ARM GAS  C:\Users\RAKIBU~1\AppData\Local\Temp\ccuCusfe.s 			page 1


   1              		.cpu cortex-m4
   2              		.eabi_attribute 20, 1
   3              		.eabi_attribute 21, 1
   4              		.eabi_attribute 23, 3
   5              		.eabi_attribute 24, 1
   6              		.eabi_attribute 25, 1
   7              		.eabi_attribute 26, 1
   8              		.eabi_attribute 30, 1
   9              		.eabi_attribute 34, 1
  10              		.eabi_attribute 18, 4
  11              		.file	"chcore_v7m.c"
  12              		.text
  13              	.Ltext0:
  14              		.cfi_sections	.debug_frame
  15              		.align	1
  16              		.p2align 4,,15
  17              		.global	SVC_Handler
  18              		.syntax unified
  19              		.thumb
  20              		.thumb_func
  21              		.fpu softvfp
  22              		.type	SVC_Handler, %function
  23              	SVC_Handler:
  24              	.LFB295:
  25              		.file 1 "../../../ChibiOSRepo/chibios191/os/common/ports/ARMCMx/chcore_v7m.c"
  26              		.loc 1 62 0
  27              		.cfi_startproc
  28              		@ args = 0, pretend = 0, frame = 0
  29              		@ frame_needed = 0, uses_anonymous_args = 0
  30              		@ link register save eliminated.
  31              	.LBB47:
  32              	.LBB48:
  33              		.file 2 "../../../ChibiOSRepo/chibios191/os/common/ext/ARM/CMSIS/Core/Include/cmsis_gcc.h"
  34              		.loc 2 251 0
  35              		.syntax unified
  36              	@ 251 "../../../ChibiOSRepo/chibios191/os/common/ext/ARM/CMSIS/Core/Include/cmsis_gcc.h" 1
  37 0000 EFF30983 		MRS r3, psp
  38              	@ 0 "" 2
  39              	.LVL0:
  40              		.thumb
  41              		.syntax unified
  42              	.LBE48:
  43              	.LBE47:
  44              		.loc 1 76 0
  45 0004 2033     		adds	r3, r3, #32
  46              	.LVL1:
  47              	.LBB49:
  48              	.LBB50:
  49              		.loc 2 279 0
  50              		.syntax unified
  51              	@ 279 "../../../ChibiOSRepo/chibios191/os/common/ext/ARM/CMSIS/Core/Include/cmsis_gcc.h" 1
  52 0006 83F30988 		MSR psp, r3
  53              	@ 0 "" 2
  54              	.LVL2:
  55              		.thumb
  56              		.syntax unified
  57              	.LBE50:
ARM GAS  C:\Users\RAKIBU~1\AppData\Local\Temp\ccuCusfe.s 			page 2


  58              	.LBE49:
  59              	.LBB51:
  60              	.LBB52:
  61              	.LBB53:
  62              	.LBB54:
  63              		.loc 2 493 0
  64 000a 0023     		movs	r3, #0
  65              	.LVL3:
  66              		.syntax unified
  67              	@ 493 "../../../ChibiOSRepo/chibios191/os/common/ext/ARM/CMSIS/Core/Include/cmsis_gcc.h" 1
  68 000c 83F31188 		MSR basepri, r3
  69              	@ 0 "" 2
  70              	.LVL4:
  71              		.thumb
  72              		.syntax unified
  73              	.LBE54:
  74              	.LBE53:
  75              	.LBE52:
  76              	.LBE51:
  77              		.loc 1 83 0
  78 0010 7047     		bx	lr
  79              		.cfi_endproc
  80              	.LFE295:
  81              		.size	SVC_Handler, .-SVC_Handler
  82              		.align	1
  83 0012 00BFAFF3 		.p2align 4,,15
  83      0080AFF3 
  83      0080AFF3 
  83      0080
  84              		.global	_port_irq_epilogue
  85              		.syntax unified
  86              		.thumb
  87              		.thumb_func
  88              		.fpu softvfp
  89              		.type	_port_irq_epilogue, %function
  90              	_port_irq_epilogue:
  91              	.LFB296:
  92              		.loc 1 135 0
  93              		.cfi_startproc
  94              		@ args = 0, pretend = 0, frame = 0
  95              		@ frame_needed = 0, uses_anonymous_args = 0
  96              	.LVL5:
  97              	.LBB55:
  98              	.LBB56:
  99              	.LBB57:
 100              	.LBB58:
 101              		.loc 2 493 0
 102 0020 2023     		movs	r3, #32
 103              		.syntax unified
 104              	@ 493 "../../../ChibiOSRepo/chibios191/os/common/ext/ARM/CMSIS/Core/Include/cmsis_gcc.h" 1
 105 0022 83F31188 		MSR basepri, r3
 106              	@ 0 "" 2
 107              	.LVL6:
 108              		.thumb
 109              		.syntax unified
 110              	.LBE58:
 111              	.LBE57:
ARM GAS  C:\Users\RAKIBU~1\AppData\Local\Temp\ccuCusfe.s 			page 3


 112              	.LBE56:
 113              	.LBE55:
 114              		.loc 1 138 0
 115 0026 0F4B     		ldr	r3, .L11
 116 0028 5B68     		ldr	r3, [r3, #4]
 117 002a 13F4006F 		tst	r3, #2048
 118 002e 03D1     		bne	.L10
 119              	.LVL7:
 120              	.LBB59:
 121              	.LBB60:
 122              	.LBB61:
 123              	.LBB62:
 124              		.loc 2 493 0
 125 0030 0023     		movs	r3, #0
 126              		.syntax unified
 127              	@ 493 "../../../ChibiOSRepo/chibios191/os/common/ext/ARM/CMSIS/Core/Include/cmsis_gcc.h" 1
 128 0032 83F31188 		MSR basepri, r3
 129              	@ 0 "" 2
 130              	.LVL8:
 131              		.thumb
 132              		.syntax unified
 133 0036 7047     		bx	lr
 134              	.L10:
 135              	.LBE62:
 136              	.LBE61:
 137              	.LBE60:
 138              	.LBE59:
 139              		.loc 1 135 0
 140 0038 10B5     		push	{r4, lr}
 141              		.cfi_def_cfa_offset 8
 142              		.cfi_offset 4, -8
 143              		.cfi_offset 14, -4
 144              	.LBB63:
 145              	.LBB64:
 146              	.LBB65:
 147              		.loc 2 251 0
 148              		.syntax unified
 149              	@ 251 "../../../ChibiOSRepo/chibios191/os/common/ext/ARM/CMSIS/Core/Include/cmsis_gcc.h" 1
 150 003a EFF30984 		MRS r4, psp
 151              	@ 0 "" 2
 152              	.LVL9:
 153              		.thumb
 154              		.syntax unified
 155              	.LBE65:
 156              	.LBE64:
 157              		.loc 1 151 0
 158 003e A4F12003 		sub	r3, r4, #32
 159              	.LVL10:
 160              		.loc 1 154 0
 161 0042 4FF08072 		mov	r2, #16777216
 162 0046 44F8042C 		str	r2, [r4, #-4]
 163              	.LVL11:
 164              	.LBB66:
 165              	.LBB67:
 166              		.loc 2 279 0
 167              		.syntax unified
 168              	@ 279 "../../../ChibiOSRepo/chibios191/os/common/ext/ARM/CMSIS/Core/Include/cmsis_gcc.h" 1
ARM GAS  C:\Users\RAKIBU~1\AppData\Local\Temp\ccuCusfe.s 			page 4


 169 004a 83F30988 		MSR psp, r3
 170              	@ 0 "" 2
 171              	.LVL12:
 172              		.thumb
 173              		.syntax unified
 174              	.LBE67:
 175              	.LBE66:
 176              		.loc 1 164 0
 177 004e FFF7FEFF 		bl	chSchIsPreemptionRequired
 178              	.LVL13:
 179 0052 18B1     		cbz	r0, .L4
 180              		.loc 1 166 0
 181 0054 044B     		ldr	r3, .L11+4
 182 0056 44F8083C 		str	r3, [r4, #-8]
 183              	.L2:
 184              	.LBE63:
 185              		.loc 1 179 0
 186 005a 10BD     		pop	{r4, pc}
 187              	.LVL14:
 188              	.L4:
 189              	.LBB68:
 190              		.loc 1 171 0
 191 005c 034B     		ldr	r3, .L11+8
 192 005e 44F8083C 		str	r3, [r4, #-8]
 193 0062 FAE7     		b	.L2
 194              	.L12:
 195              		.align	2
 196              	.L11:
 197 0064 00ED00E0 		.word	-536810240
 198 0068 00000000 		.word	_port_switch_from_isr
 199 006c 00000000 		.word	_port_exit_from_isr
 200              	.LBE68:
 201              		.cfi_endproc
 202              	.LFE296:
 203              		.size	_port_irq_epilogue, .-_port_irq_epilogue
 204              	.Letext0:
 205              		.file 3 "c:\\chibistudio\\tools\\gnu tools arm embedded\\7.0 2017q4\\lib\\gcc\\arm-none-eabi\\7.2.
 206              		.file 4 "c:\\chibistudio\\tools\\gnu tools arm embedded\\7.0 2017q4\\arm-none-eabi\\include\\machi
 207              		.file 5 "c:\\chibistudio\\tools\\gnu tools arm embedded\\7.0 2017q4\\arm-none-eabi\\include\\sys\\
 208              		.file 6 "../../../ChibiOSRepo/chibios191/os/common/ports/ARMCMx/compilers/GCC/chtypes.h"
 209              		.file 7 "../../../ChibiOSRepo/chibios191/os/rt/include/chsystypes.h"
 210              		.file 8 "../../../ChibiOSRepo/chibios191/os/rt/include/chschd.h"
 211              		.file 9 "../../../ChibiOSRepo/chibios191/os/rt/include/chtime.h"
 212              		.file 10 "../../../ChibiOSRepo/chibios191/os/common/ext/ARM/CMSIS/Core/Include/core_cm4.h"
 213              		.file 11 "../../../ChibiOSRepo/chibios191/os/common/ext/ST/STM32F4xx/system_stm32f4xx.h"
 214              		.file 12 "../../../ChibiOSRepo/chibios191/os/common/ports/ARMCMx/chcore.h"
 215              		.file 13 "../../../ChibiOSRepo/chibios191/os/common/ports/ARMCMx/chcore_v7m.h"
 216              		.file 14 "../../../ChibiOSRepo/chibios191/os/rt/include/chtrace.h"
 217              		.file 15 "../../../ChibiOSRepo/chibios191/os/rt/include/chtm.h"
 218              		.file 16 "../../../ChibiOSRepo/chibios191/os/rt/include/chstats.h"
 219              		.file 17 "../../../ChibiOSRepo/chibios191/os/rt/include/chsem.h"
 220              		.file 18 "../../../ChibiOSRepo/chibios191/os/rt/include/chmtx.h"
 221              		.file 19 "../../../ChibiOSRepo/chibios191/os/rt/include/chsys.h"
 222              		.file 20 "../../../ChibiOSRepo/chibios191/os/rt/include/chregistry.h"
 223              		.file 21 "../../../ChibiOSRepo/chibios191/os/oslib/include/chmemcore.h"
 224              		.file 22 "../../../ChibiOSRepo/chibios191/os/oslib/include/chmempools.h"
 225              		.file 23 "../../../ChibiOSRepo/chibios191/os/oslib/include/chfactory.h"
ARM GAS  C:\Users\RAKIBU~1\AppData\Local\Temp\ccuCusfe.s 			page 5


 226              		.section	.debug_info,"",%progbits
 227              	.Ldebug_info0:
 228 0000 01100000 		.4byte	0x1001
 229 0004 0400     		.2byte	0x4
 230 0006 00000000 		.4byte	.Ldebug_abbrev0
 231 000a 04       		.byte	0x4
 232 000b 01       		.uleb128 0x1
 233 000c 25050000 		.4byte	.LASF201
 234 0010 0C       		.byte	0xc
 235 0011 7F020000 		.4byte	.LASF202
 236 0015 3C030000 		.4byte	.LASF203
 237 0019 00000000 		.4byte	.Ltext0
 238 001d 70000000 		.4byte	.Letext0-.Ltext0
 239 0021 00000000 		.4byte	.Ldebug_line0
 240 0025 02       		.uleb128 0x2
 241 0026 04       		.byte	0x4
 242 0027 05       		.byte	0x5
 243 0028 696E7400 		.ascii	"int\000"
 244 002c 03       		.uleb128 0x3
 245 002d 0D000000 		.4byte	.LASF4
 246 0031 03       		.byte	0x3
 247 0032 D8       		.byte	0xd8
 248 0033 37000000 		.4byte	0x37
 249 0037 04       		.uleb128 0x4
 250 0038 04       		.byte	0x4
 251 0039 07       		.byte	0x7
 252 003a E0020000 		.4byte	.LASF0
 253 003e 04       		.uleb128 0x4
 254 003f 08       		.byte	0x8
 255 0040 05       		.byte	0x5
 256 0041 4A010000 		.4byte	.LASF1
 257 0045 04       		.uleb128 0x4
 258 0046 08       		.byte	0x8
 259 0047 04       		.byte	0x4
 260 0048 CE040000 		.4byte	.LASF2
 261 004c 04       		.uleb128 0x4
 262 004d 01       		.byte	0x1
 263 004e 06       		.byte	0x6
 264 004f 58010000 		.4byte	.LASF3
 265 0053 03       		.uleb128 0x3
 266 0054 43000000 		.4byte	.LASF5
 267 0058 04       		.byte	0x4
 268 0059 2B       		.byte	0x2b
 269 005a 5E000000 		.4byte	0x5e
 270 005e 04       		.uleb128 0x4
 271 005f 01       		.byte	0x1
 272 0060 08       		.byte	0x8
 273 0061 6B060000 		.4byte	.LASF6
 274 0065 04       		.uleb128 0x4
 275 0066 02       		.byte	0x2
 276 0067 05       		.byte	0x5
 277 0068 A2060000 		.4byte	.LASF7
 278 006c 03       		.uleb128 0x3
 279 006d 96070000 		.4byte	.LASF8
 280 0071 04       		.byte	0x4
 281 0072 39       		.byte	0x39
 282 0073 77000000 		.4byte	0x77
ARM GAS  C:\Users\RAKIBU~1\AppData\Local\Temp\ccuCusfe.s 			page 6


 283 0077 04       		.uleb128 0x4
 284 0078 02       		.byte	0x2
 285 0079 07       		.byte	0x7
 286 007a 23080000 		.4byte	.LASF9
 287 007e 03       		.uleb128 0x3
 288 007f 6D040000 		.4byte	.LASF10
 289 0083 04       		.byte	0x4
 290 0084 4D       		.byte	0x4d
 291 0085 89000000 		.4byte	0x89
 292 0089 04       		.uleb128 0x4
 293 008a 04       		.byte	0x4
 294 008b 05       		.byte	0x5
 295 008c 9A010000 		.4byte	.LASF11
 296 0090 03       		.uleb128 0x3
 297 0091 26020000 		.4byte	.LASF12
 298 0095 04       		.byte	0x4
 299 0096 4F       		.byte	0x4f
 300 0097 9B000000 		.4byte	0x9b
 301 009b 04       		.uleb128 0x4
 302 009c 04       		.byte	0x4
 303 009d 07       		.byte	0x7
 304 009e 69070000 		.4byte	.LASF13
 305 00a2 03       		.uleb128 0x3
 306 00a3 DA050000 		.4byte	.LASF14
 307 00a7 04       		.byte	0x4
 308 00a8 69       		.byte	0x69
 309 00a9 AD000000 		.4byte	0xad
 310 00ad 04       		.uleb128 0x4
 311 00ae 08       		.byte	0x8
 312 00af 07       		.byte	0x7
 313 00b0 C7000000 		.4byte	.LASF15
 314 00b4 03       		.uleb128 0x3
 315 00b5 B8080000 		.4byte	.LASF16
 316 00b9 05       		.byte	0x5
 317 00ba 18       		.byte	0x18
 318 00bb 53000000 		.4byte	0x53
 319 00bf 05       		.uleb128 0x5
 320 00c0 B4000000 		.4byte	0xb4
 321 00c4 06       		.uleb128 0x6
 322 00c5 B4000000 		.4byte	0xb4
 323 00c9 03       		.uleb128 0x3
 324 00ca DD010000 		.4byte	.LASF17
 325 00ce 05       		.byte	0x5
 326 00cf 24       		.byte	0x24
 327 00d0 6C000000 		.4byte	0x6c
 328 00d4 03       		.uleb128 0x3
 329 00d5 63060000 		.4byte	.LASF18
 330 00d9 05       		.byte	0x5
 331 00da 2C       		.byte	0x2c
 332 00db 7E000000 		.4byte	0x7e
 333 00df 05       		.uleb128 0x5
 334 00e0 D4000000 		.4byte	0xd4
 335 00e4 03       		.uleb128 0x3
 336 00e5 3E070000 		.4byte	.LASF19
 337 00e9 05       		.byte	0x5
 338 00ea 30       		.byte	0x30
 339 00eb 90000000 		.4byte	0x90
ARM GAS  C:\Users\RAKIBU~1\AppData\Local\Temp\ccuCusfe.s 			page 7


 340 00ef 05       		.uleb128 0x5
 341 00f0 E4000000 		.4byte	0xe4
 342 00f4 06       		.uleb128 0x6
 343 00f5 EF000000 		.4byte	0xef
 344 00f9 03       		.uleb128 0x3
 345 00fa 2D000000 		.4byte	.LASF20
 346 00fe 05       		.byte	0x5
 347 00ff 3C       		.byte	0x3c
 348 0100 A2000000 		.4byte	0xa2
 349 0104 03       		.uleb128 0x3
 350 0105 A1040000 		.4byte	.LASF21
 351 0109 06       		.byte	0x6
 352 010a 27       		.byte	0x27
 353 010b E4000000 		.4byte	0xe4
 354 010f 03       		.uleb128 0x3
 355 0110 2E010000 		.4byte	.LASF22
 356 0114 06       		.byte	0x6
 357 0115 28       		.byte	0x28
 358 0116 F9000000 		.4byte	0xf9
 359 011a 03       		.uleb128 0x3
 360 011b 2B040000 		.4byte	.LASF23
 361 011f 06       		.byte	0x6
 362 0120 2A       		.byte	0x2a
 363 0121 B4000000 		.4byte	0xb4
 364 0125 03       		.uleb128 0x3
 365 0126 AD010000 		.4byte	.LASF24
 366 012a 06       		.byte	0x6
 367 012b 2B       		.byte	0x2b
 368 012c B4000000 		.4byte	0xb4
 369 0130 03       		.uleb128 0x3
 370 0131 07060000 		.4byte	.LASF25
 371 0135 06       		.byte	0x6
 372 0136 2C       		.byte	0x2c
 373 0137 B4000000 		.4byte	0xb4
 374 013b 03       		.uleb128 0x3
 375 013c 43060000 		.4byte	.LASF26
 376 0140 06       		.byte	0x6
 377 0141 2E       		.byte	0x2e
 378 0142 E4000000 		.4byte	0xe4
 379 0146 03       		.uleb128 0x3
 380 0147 E3030000 		.4byte	.LASF27
 381 014b 06       		.byte	0x6
 382 014c 2F       		.byte	0x2f
 383 014d D4000000 		.4byte	0xd4
 384 0151 03       		.uleb128 0x3
 385 0152 4C040000 		.4byte	.LASF28
 386 0156 06       		.byte	0x6
 387 0157 31       		.byte	0x31
 388 0158 E4000000 		.4byte	0xe4
 389 015c 03       		.uleb128 0x3
 390 015d D1020000 		.4byte	.LASF29
 391 0161 06       		.byte	0x6
 392 0162 33       		.byte	0x33
 393 0163 D4000000 		.4byte	0xd4
 394 0167 03       		.uleb128 0x3
 395 0168 EF030000 		.4byte	.LASF30
 396 016c 06       		.byte	0x6
ARM GAS  C:\Users\RAKIBU~1\AppData\Local\Temp\ccuCusfe.s 			page 8


 397 016d 34       		.byte	0x34
 398 016e E4000000 		.4byte	0xe4
 399 0172 03       		.uleb128 0x3
 400 0173 B6070000 		.4byte	.LASF31
 401 0177 07       		.byte	0x7
 402 0178 34       		.byte	0x34
 403 0179 7D010000 		.4byte	0x17d
 404 017d 07       		.uleb128 0x7
 405 017e CF030000 		.4byte	.LASF50
 406 0182 60       		.byte	0x60
 407 0183 08       		.byte	0x8
 408 0184 8E       		.byte	0x8e
 409 0185 68020000 		.4byte	0x268
 410 0189 08       		.uleb128 0x8
 411 018a DA040000 		.4byte	.LASF32
 412 018e 08       		.byte	0x8
 413 018f 8F       		.byte	0x8f
 414 0190 9D020000 		.4byte	0x29d
 415 0194 00       		.byte	0
 416 0195 08       		.uleb128 0x8
 417 0196 BF050000 		.4byte	.LASF33
 418 019a 08       		.byte	0x8
 419 019b 90       		.byte	0x90
 420 019c 3B010000 		.4byte	0x13b
 421 01a0 08       		.byte	0x8
 422 01a1 09       		.uleb128 0x9
 423 01a2 63747800 		.ascii	"ctx\000"
 424 01a6 08       		.byte	0x8
 425 01a7 91       		.byte	0x91
 426 01a8 CE060000 		.4byte	0x6ce
 427 01ac 0C       		.byte	0xc
 428 01ad 08       		.uleb128 0x8
 429 01ae 82040000 		.4byte	.LASF34
 430 01b2 08       		.byte	0x8
 431 01b3 93       		.byte	0x93
 432 01b4 73020000 		.4byte	0x273
 433 01b8 10       		.byte	0x10
 434 01b9 08       		.uleb128 0x8
 435 01ba 87070000 		.4byte	.LASF35
 436 01be 08       		.byte	0x8
 437 01bf 94       		.byte	0x94
 438 01c0 73020000 		.4byte	0x273
 439 01c4 14       		.byte	0x14
 440 01c5 08       		.uleb128 0x8
 441 01c6 CA030000 		.4byte	.LASF36
 442 01ca 08       		.byte	0x8
 443 01cb 9B       		.byte	0x9b
 444 01cc 0F080000 		.4byte	0x80f
 445 01d0 18       		.byte	0x18
 446 01d1 08       		.uleb128 0x8
 447 01d2 7B070000 		.4byte	.LASF37
 448 01d6 08       		.byte	0x8
 449 01d7 A4       		.byte	0xa4
 450 01d8 BE0A0000 		.4byte	0xabe
 451 01dc 1C       		.byte	0x1c
 452 01dd 08       		.uleb128 0x8
 453 01de 94010000 		.4byte	.LASF38
ARM GAS  C:\Users\RAKIBU~1\AppData\Local\Temp\ccuCusfe.s 			page 9


 454 01e2 08       		.byte	0x8
 455 01e3 A9       		.byte	0xa9
 456 01e4 25010000 		.4byte	0x125
 457 01e8 20       		.byte	0x20
 458 01e9 08       		.uleb128 0x8
 459 01ea C0080000 		.4byte	.LASF39
 460 01ee 08       		.byte	0x8
 461 01ef AD       		.byte	0xad
 462 01f0 1A010000 		.4byte	0x11a
 463 01f4 21       		.byte	0x21
 464 01f5 08       		.uleb128 0x8
 465 01f6 40010000 		.4byte	.LASF40
 466 01fa 08       		.byte	0x8
 467 01fb B2       		.byte	0xb2
 468 01fc 30010000 		.4byte	0x130
 469 0200 22       		.byte	0x22
 470 0201 0A       		.uleb128 0xa
 471 0202 7500     		.ascii	"u\000"
 472 0204 08       		.byte	0x8
 473 0205 0301     		.2byte	0x103
 474 0207 F4090000 		.4byte	0x9f4
 475 020b 24       		.byte	0x24
 476 020c 0B       		.uleb128 0xb
 477 020d 53020000 		.4byte	.LASF41
 478 0211 08       		.byte	0x8
 479 0212 0801     		.2byte	0x108
 480 0214 79020000 		.4byte	0x279
 481 0218 28       		.byte	0x28
 482 0219 0B       		.uleb128 0xb
 483 021a D7020000 		.4byte	.LASF42
 484 021e 08       		.byte	0x8
 485 021f 0E01     		.2byte	0x10e
 486 0221 9D020000 		.4byte	0x29d
 487 0225 2C       		.byte	0x2c
 488 0226 0B       		.uleb128 0xb
 489 0227 F6030000 		.4byte	.LASF43
 490 022b 08       		.byte	0x8
 491 022c 1401     		.2byte	0x114
 492 022e 51010000 		.4byte	0x151
 493 0232 34       		.byte	0x34
 494 0233 0B       		.uleb128 0xb
 495 0234 32090000 		.4byte	.LASF44
 496 0238 08       		.byte	0x8
 497 0239 1B01     		.2byte	0x11b
 498 023b B80A0000 		.4byte	0xab8
 499 023f 38       		.byte	0x38
 500 0240 0B       		.uleb128 0xb
 501 0241 90040000 		.4byte	.LASF45
 502 0245 08       		.byte	0x8
 503 0246 1F01     		.2byte	0x11f
 504 0248 3B010000 		.4byte	0x13b
 505 024c 3C       		.byte	0x3c
 506 024d 0B       		.uleb128 0xb
 507 024e 36030000 		.4byte	.LASF46
 508 0252 08       		.byte	0x8
 509 0253 2601     		.2byte	0x126
 510 0255 50030000 		.4byte	0x350
ARM GAS  C:\Users\RAKIBU~1\AppData\Local\Temp\ccuCusfe.s 			page 10


 511 0259 40       		.byte	0x40
 512 025a 0B       		.uleb128 0xb
 513 025b CC010000 		.4byte	.LASF47
 514 025f 08       		.byte	0x8
 515 0260 2C01     		.2byte	0x12c
 516 0262 A5090000 		.4byte	0x9a5
 517 0266 48       		.byte	0x48
 518 0267 00       		.byte	0
 519 0268 03       		.uleb128 0x3
 520 0269 DA080000 		.4byte	.LASF48
 521 026d 07       		.byte	0x7
 522 026e 39       		.byte	0x39
 523 026f 73020000 		.4byte	0x273
 524 0273 0C       		.uleb128 0xc
 525 0274 04       		.byte	0x4
 526 0275 72010000 		.4byte	0x172
 527 0279 03       		.uleb128 0x3
 528 027a 8C000000 		.4byte	.LASF49
 529 027e 07       		.byte	0x7
 530 027f 3E       		.byte	0x3e
 531 0280 84020000 		.4byte	0x284
 532 0284 07       		.uleb128 0x7
 533 0285 53070000 		.4byte	.LASF51
 534 0289 04       		.byte	0x4
 535 028a 08       		.byte	0x8
 536 028b 7C       		.byte	0x7c
 537 028c 9D020000 		.4byte	0x29d
 538 0290 08       		.uleb128 0x8
 539 0291 F9080000 		.4byte	.LASF52
 540 0295 08       		.byte	0x8
 541 0296 7D       		.byte	0x7d
 542 0297 73020000 		.4byte	0x273
 543 029b 00       		.byte	0
 544 029c 00       		.byte	0
 545 029d 03       		.uleb128 0x3
 546 029e 86080000 		.4byte	.LASF53
 547 02a2 07       		.byte	0x7
 548 02a3 45       		.byte	0x45
 549 02a4 A8020000 		.4byte	0x2a8
 550 02a8 07       		.uleb128 0x7
 551 02a9 5E000000 		.4byte	.LASF54
 552 02ad 08       		.byte	0x8
 553 02ae 08       		.byte	0x8
 554 02af 83       		.byte	0x83
 555 02b0 CD020000 		.4byte	0x2cd
 556 02b4 08       		.uleb128 0x8
 557 02b5 F9080000 		.4byte	.LASF52
 558 02b9 08       		.byte	0x8
 559 02ba 84       		.byte	0x84
 560 02bb 73020000 		.4byte	0x273
 561 02bf 00       		.byte	0
 562 02c0 08       		.uleb128 0x8
 563 02c1 4D000000 		.4byte	.LASF55
 564 02c5 08       		.byte	0x8
 565 02c6 85       		.byte	0x85
 566 02c7 73020000 		.4byte	0x273
 567 02cb 04       		.byte	0x4
ARM GAS  C:\Users\RAKIBU~1\AppData\Local\Temp\ccuCusfe.s 			page 11


 568 02cc 00       		.byte	0
 569 02cd 03       		.uleb128 0x3
 570 02ce 00000000 		.4byte	.LASF56
 571 02d2 07       		.byte	0x7
 572 02d3 4C       		.byte	0x4c
 573 02d4 D8020000 		.4byte	0x2d8
 574 02d8 0D       		.uleb128 0xd
 575 02d9 3E040000 		.4byte	.LASF57
 576 02dd 1C       		.byte	0x1c
 577 02de 08       		.byte	0x8
 578 02df 5E01     		.2byte	0x15e
 579 02e1 34030000 		.4byte	0x334
 580 02e5 0B       		.uleb128 0xb
 581 02e6 DA040000 		.4byte	.LASF32
 582 02ea 08       		.byte	0x8
 583 02eb 5F01     		.2byte	0x15f
 584 02ed 9D020000 		.4byte	0x29d
 585 02f1 00       		.byte	0
 586 02f2 0B       		.uleb128 0xb
 587 02f3 BF050000 		.4byte	.LASF33
 588 02f7 08       		.byte	0x8
 589 02f8 6001     		.2byte	0x160
 590 02fa 3B010000 		.4byte	0x13b
 591 02fe 08       		.byte	0x8
 592 02ff 0A       		.uleb128 0xa
 593 0300 63747800 		.ascii	"ctx\000"
 594 0304 08       		.byte	0x8
 595 0305 6201     		.2byte	0x162
 596 0307 CE060000 		.4byte	0x6ce
 597 030b 0C       		.byte	0xc
 598 030c 0B       		.uleb128 0xb
 599 030d 82040000 		.4byte	.LASF34
 600 0311 08       		.byte	0x8
 601 0312 6501     		.2byte	0x165
 602 0314 73020000 		.4byte	0x273
 603 0318 10       		.byte	0x10
 604 0319 0B       		.uleb128 0xb
 605 031a 87070000 		.4byte	.LASF35
 606 031e 08       		.byte	0x8
 607 031f 6601     		.2byte	0x166
 608 0321 73020000 		.4byte	0x273
 609 0325 14       		.byte	0x14
 610 0326 0B       		.uleb128 0xb
 611 0327 CD050000 		.4byte	.LASF58
 612 032b 08       		.byte	0x8
 613 032c 6901     		.2byte	0x169
 614 032e 73020000 		.4byte	0x273
 615 0332 18       		.byte	0x18
 616 0333 00       		.byte	0
 617 0334 03       		.uleb128 0x3
 618 0335 D9070000 		.4byte	.LASF59
 619 0339 07       		.byte	0x7
 620 033a 51       		.byte	0x51
 621 033b 3F030000 		.4byte	0x33f
 622 033f 0C       		.uleb128 0xc
 623 0340 04       		.byte	0x4
 624 0341 45030000 		.4byte	0x345
ARM GAS  C:\Users\RAKIBU~1\AppData\Local\Temp\ccuCusfe.s 			page 12


 625 0345 0E       		.uleb128 0xe
 626 0346 50030000 		.4byte	0x350
 627 034a 0F       		.uleb128 0xf
 628 034b 50030000 		.4byte	0x350
 629 034f 00       		.byte	0
 630 0350 10       		.uleb128 0x10
 631 0351 04       		.byte	0x4
 632 0352 03       		.uleb128 0x3
 633 0353 2E060000 		.4byte	.LASF60
 634 0357 07       		.byte	0x7
 635 0358 56       		.byte	0x56
 636 0359 5D030000 		.4byte	0x35d
 637 035d 0D       		.uleb128 0xd
 638 035e F2060000 		.4byte	.LASF61
 639 0362 18       		.byte	0x18
 640 0363 08       		.byte	0x8
 641 0364 3901     		.2byte	0x139
 642 0366 AC030000 		.4byte	0x3ac
 643 036a 0B       		.uleb128 0xb
 644 036b F9080000 		.4byte	.LASF52
 645 036f 08       		.byte	0x8
 646 0370 3A01     		.2byte	0x13a
 647 0372 C40A0000 		.4byte	0xac4
 648 0376 00       		.byte	0
 649 0377 0B       		.uleb128 0xb
 650 0378 4D000000 		.4byte	.LASF55
 651 037c 08       		.byte	0x8
 652 037d 3B01     		.2byte	0x13b
 653 037f C40A0000 		.4byte	0xac4
 654 0383 04       		.byte	0x4
 655 0384 0B       		.uleb128 0xb
 656 0385 20000000 		.4byte	.LASF62
 657 0389 08       		.byte	0x8
 658 038a 3C01     		.2byte	0x13c
 659 038c BC040000 		.4byte	0x4bc
 660 0390 08       		.byte	0x8
 661 0391 0B       		.uleb128 0xb
 662 0392 C7010000 		.4byte	.LASF63
 663 0396 08       		.byte	0x8
 664 0397 3D01     		.2byte	0x13d
 665 0399 34030000 		.4byte	0x334
 666 039d 10       		.byte	0x10
 667 039e 0A       		.uleb128 0xa
 668 039f 70617200 		.ascii	"par\000"
 669 03a3 08       		.byte	0x8
 670 03a4 3F01     		.2byte	0x13f
 671 03a6 50030000 		.4byte	0x350
 672 03aa 14       		.byte	0x14
 673 03ab 00       		.byte	0
 674 03ac 03       		.uleb128 0x3
 675 03ad 0C010000 		.4byte	.LASF64
 676 03b1 07       		.byte	0x7
 677 03b2 5B       		.byte	0x5b
 678 03b3 B7030000 		.4byte	0x3b7
 679 03b7 0D       		.uleb128 0xd
 680 03b8 B7040000 		.4byte	.LASF65
 681 03bc 18       		.byte	0x18
ARM GAS  C:\Users\RAKIBU~1\AppData\Local\Temp\ccuCusfe.s 			page 13


 682 03bd 08       		.byte	0x8
 683 03be 4901     		.2byte	0x149
 684 03c0 F9030000 		.4byte	0x3f9
 685 03c4 0B       		.uleb128 0xb
 686 03c5 F9080000 		.4byte	.LASF52
 687 03c9 08       		.byte	0x8
 688 03ca 4A01     		.2byte	0x14a
 689 03cc C40A0000 		.4byte	0xac4
 690 03d0 00       		.byte	0
 691 03d1 0B       		.uleb128 0xb
 692 03d2 4D000000 		.4byte	.LASF55
 693 03d6 08       		.byte	0x8
 694 03d7 4C01     		.2byte	0x14c
 695 03d9 C40A0000 		.4byte	0xac4
 696 03dd 04       		.byte	0x4
 697 03de 0B       		.uleb128 0xb
 698 03df 20000000 		.4byte	.LASF62
 699 03e3 08       		.byte	0x8
 700 03e4 4E01     		.2byte	0x14e
 701 03e6 BC040000 		.4byte	0x4bc
 702 03ea 08       		.byte	0x8
 703 03eb 0B       		.uleb128 0xb
 704 03ec AC060000 		.4byte	.LASF66
 705 03f0 08       		.byte	0x8
 706 03f1 5601     		.2byte	0x156
 707 03f3 B1040000 		.4byte	0x4b1
 708 03f7 10       		.byte	0x10
 709 03f8 00       		.byte	0
 710 03f9 03       		.uleb128 0x3
 711 03fa 6F000000 		.4byte	.LASF67
 712 03fe 07       		.byte	0x7
 713 03ff 60       		.byte	0x60
 714 0400 04040000 		.4byte	0x404
 715 0404 11       		.uleb128 0x11
 716 0405 43020000 		.4byte	.LASF68
 717 0409 1408     		.2byte	0x814
 718 040b 08       		.byte	0x8
 719 040c 7001     		.2byte	0x170
 720 040e 47040000 		.4byte	0x447
 721 0412 0B       		.uleb128 0xb
 722 0413 F0070000 		.4byte	.LASF69
 723 0417 08       		.byte	0x8
 724 0418 7801     		.2byte	0x178
 725 041a 15080000 		.4byte	0x815
 726 041e 00       		.byte	0
 727 041f 0B       		.uleb128 0xb
 728 0420 A2080000 		.4byte	.LASF70
 729 0424 08       		.byte	0x8
 730 0425 7D01     		.2byte	0x17d
 731 0427 5C010000 		.4byte	0x15c
 732 042b 04       		.byte	0x4
 733 042c 0B       		.uleb128 0xb
 734 042d 76020000 		.4byte	.LASF71
 735 0431 08       		.byte	0x8
 736 0432 8101     		.2byte	0x181
 737 0434 5C010000 		.4byte	0x15c
 738 0438 08       		.byte	0x8
ARM GAS  C:\Users\RAKIBU~1\AppData\Local\Temp\ccuCusfe.s 			page 14


 739 0439 0B       		.uleb128 0xb
 740 043a 08090000 		.4byte	.LASF72
 741 043e 08       		.byte	0x8
 742 043f 8701     		.2byte	0x187
 743 0441 37090000 		.4byte	0x937
 744 0445 0C       		.byte	0xc
 745 0446 00       		.byte	0
 746 0447 03       		.uleb128 0x3
 747 0448 36080000 		.4byte	.LASF73
 748 044c 07       		.byte	0x7
 749 044d 65       		.byte	0x65
 750 044e 52040000 		.4byte	0x452
 751 0452 11       		.uleb128 0x11
 752 0453 C6060000 		.4byte	.LASF74
 753 0457 F008     		.2byte	0x8f0
 754 0459 08       		.byte	0x8
 755 045a 9001     		.2byte	0x190
 756 045c B1040000 		.4byte	0x4b1
 757 0460 0B       		.uleb128 0xb
 758 0461 73010000 		.4byte	.LASF75
 759 0465 08       		.byte	0x8
 760 0466 9401     		.2byte	0x194
 761 0468 CD020000 		.4byte	0x2cd
 762 046c 00       		.byte	0
 763 046d 0B       		.uleb128 0xb
 764 046e 81010000 		.4byte	.LASF76
 765 0472 08       		.byte	0x8
 766 0473 9801     		.2byte	0x198
 767 0475 AC030000 		.4byte	0x3ac
 768 0479 20       		.byte	0x20
 769 047a 0A       		.uleb128 0xa
 770 047b 64626700 		.ascii	"dbg\000"
 771 047f 08       		.byte	0x8
 772 0480 9C01     		.2byte	0x19c
 773 0482 F9030000 		.4byte	0x3f9
 774 0486 38       		.byte	0x38
 775 0487 12       		.uleb128 0x12
 776 0488 F9000000 		.4byte	.LASF77
 777 048c 08       		.byte	0x8
 778 048d A001     		.2byte	0x1a0
 779 048f 72010000 		.4byte	0x172
 780 0493 5008     		.2byte	0x850
 781 0495 13       		.uleb128 0x13
 782 0496 746D00   		.ascii	"tm\000"
 783 0499 08       		.byte	0x8
 784 049a A501     		.2byte	0x1a5
 785 049c 57090000 		.4byte	0x957
 786 04a0 B008     		.2byte	0x8b0
 787 04a2 12       		.uleb128 0x12
 788 04a3 36000000 		.4byte	.LASF78
 789 04a7 08       		.byte	0x8
 790 04a8 AB01     		.2byte	0x1ab
 791 04aa E9090000 		.4byte	0x9e9
 792 04ae B808     		.2byte	0x8b8
 793 04b0 00       		.byte	0
 794 04b1 03       		.uleb128 0x3
 795 04b2 CF070000 		.4byte	.LASF79
ARM GAS  C:\Users\RAKIBU~1\AppData\Local\Temp\ccuCusfe.s 			page 15


 796 04b6 09       		.byte	0x9
 797 04b7 6D       		.byte	0x6d
 798 04b8 E4000000 		.4byte	0xe4
 799 04bc 03       		.uleb128 0x3
 800 04bd C3020000 		.4byte	.LASF80
 801 04c1 09       		.byte	0x9
 802 04c2 77       		.byte	0x77
 803 04c3 F9000000 		.4byte	0xf9
 804 04c7 14       		.uleb128 0x14
 805 04c8 8C       		.byte	0x8c
 806 04c9 0A       		.byte	0xa
 807 04ca B801     		.2byte	0x1b8
 808 04cc E2050000 		.4byte	0x5e2
 809 04d0 0B       		.uleb128 0xb
 810 04d1 22010000 		.4byte	.LASF81
 811 04d5 0A       		.byte	0xa
 812 04d6 BA01     		.2byte	0x1ba
 813 04d8 F4000000 		.4byte	0xf4
 814 04dc 00       		.byte	0
 815 04dd 0B       		.uleb128 0xb
 816 04de DE030000 		.4byte	.LASF82
 817 04e2 0A       		.byte	0xa
 818 04e3 BB01     		.2byte	0x1bb
 819 04e5 EF000000 		.4byte	0xef
 820 04e9 04       		.byte	0x4
 821 04ea 0B       		.uleb128 0xb
 822 04eb 31030000 		.4byte	.LASF83
 823 04ef 0A       		.byte	0xa
 824 04f0 BC01     		.2byte	0x1bc
 825 04f2 EF000000 		.4byte	0xef
 826 04f6 08       		.byte	0x8
 827 04f7 0B       		.uleb128 0xb
 828 04f8 E9030000 		.4byte	.LASF84
 829 04fc 0A       		.byte	0xa
 830 04fd BD01     		.2byte	0x1bd
 831 04ff EF000000 		.4byte	0xef
 832 0503 0C       		.byte	0xc
 833 0504 0A       		.uleb128 0xa
 834 0505 53435200 		.ascii	"SCR\000"
 835 0509 0A       		.byte	0xa
 836 050a BE01     		.2byte	0x1be
 837 050c EF000000 		.4byte	0xef
 838 0510 10       		.byte	0x10
 839 0511 0A       		.uleb128 0xa
 840 0512 43435200 		.ascii	"CCR\000"
 841 0516 0A       		.byte	0xa
 842 0517 BF01     		.2byte	0x1bf
 843 0519 EF000000 		.4byte	0xef
 844 051d 14       		.byte	0x14
 845 051e 0A       		.uleb128 0xa
 846 051f 53485000 		.ascii	"SHP\000"
 847 0523 0A       		.byte	0xa
 848 0524 C001     		.2byte	0x1c0
 849 0526 F2050000 		.4byte	0x5f2
 850 052a 18       		.byte	0x18
 851 052b 0B       		.uleb128 0xb
 852 052c 8F060000 		.4byte	.LASF85
ARM GAS  C:\Users\RAKIBU~1\AppData\Local\Temp\ccuCusfe.s 			page 16


 853 0530 0A       		.byte	0xa
 854 0531 C101     		.2byte	0x1c1
 855 0533 EF000000 		.4byte	0xef
 856 0537 24       		.byte	0x24
 857 0538 0B       		.uleb128 0xb
 858 0539 EC040000 		.4byte	.LASF86
 859 053d 0A       		.byte	0xa
 860 053e C201     		.2byte	0x1c2
 861 0540 EF000000 		.4byte	0xef
 862 0544 28       		.byte	0x28
 863 0545 0B       		.uleb128 0xb
 864 0546 2D090000 		.4byte	.LASF87
 865 054a 0A       		.byte	0xa
 866 054b C301     		.2byte	0x1c3
 867 054d EF000000 		.4byte	0xef
 868 0551 2C       		.byte	0x2c
 869 0552 0B       		.uleb128 0xb
 870 0553 19060000 		.4byte	.LASF88
 871 0557 0A       		.byte	0xa
 872 0558 C401     		.2byte	0x1c4
 873 055a EF000000 		.4byte	0xef
 874 055e 30       		.byte	0x30
 875 055f 0B       		.uleb128 0xb
 876 0560 0A040000 		.4byte	.LASF89
 877 0564 0A       		.byte	0xa
 878 0565 C501     		.2byte	0x1c5
 879 0567 EF000000 		.4byte	0xef
 880 056b 34       		.byte	0x34
 881 056c 0B       		.uleb128 0xb
 882 056d D9030000 		.4byte	.LASF90
 883 0571 0A       		.byte	0xa
 884 0572 C601     		.2byte	0x1c6
 885 0574 EF000000 		.4byte	0xef
 886 0578 38       		.byte	0x38
 887 0579 0B       		.uleb128 0xb
 888 057a 4E070000 		.4byte	.LASF91
 889 057e 0A       		.byte	0xa
 890 057f C701     		.2byte	0x1c7
 891 0581 EF000000 		.4byte	0xef
 892 0585 3C       		.byte	0x3c
 893 0586 0A       		.uleb128 0xa
 894 0587 50465200 		.ascii	"PFR\000"
 895 058b 0A       		.byte	0xa
 896 058c C801     		.2byte	0x1c8
 897 058e 0C060000 		.4byte	0x60c
 898 0592 40       		.byte	0x40
 899 0593 0A       		.uleb128 0xa
 900 0594 44465200 		.ascii	"DFR\000"
 901 0598 0A       		.byte	0xa
 902 0599 C901     		.2byte	0x1c9
 903 059b F4000000 		.4byte	0xf4
 904 059f 48       		.byte	0x48
 905 05a0 0A       		.uleb128 0xa
 906 05a1 41445200 		.ascii	"ADR\000"
 907 05a5 0A       		.byte	0xa
 908 05a6 CA01     		.2byte	0x1ca
 909 05a8 F4000000 		.4byte	0xf4
ARM GAS  C:\Users\RAKIBU~1\AppData\Local\Temp\ccuCusfe.s 			page 17


 910 05ac 4C       		.byte	0x4c
 911 05ad 0B       		.uleb128 0xb
 912 05ae AA080000 		.4byte	.LASF92
 913 05b2 0A       		.byte	0xa
 914 05b3 CB01     		.2byte	0x1cb
 915 05b5 26060000 		.4byte	0x626
 916 05b9 50       		.byte	0x50
 917 05ba 0B       		.uleb128 0xb
 918 05bb 45010000 		.4byte	.LASF93
 919 05bf 0A       		.byte	0xa
 920 05c0 CC01     		.2byte	0x1cc
 921 05c2 40060000 		.4byte	0x640
 922 05c6 60       		.byte	0x60
 923 05c7 0B       		.uleb128 0xb
 924 05c8 0F060000 		.4byte	.LASF94
 925 05cc 0A       		.byte	0xa
 926 05cd CD01     		.2byte	0x1cd
 927 05cf 45060000 		.4byte	0x645
 928 05d3 74       		.byte	0x74
 929 05d4 0B       		.uleb128 0xb
 930 05d5 27090000 		.4byte	.LASF95
 931 05d9 0A       		.byte	0xa
 932 05da CE01     		.2byte	0x1ce
 933 05dc EF000000 		.4byte	0xef
 934 05e0 88       		.byte	0x88
 935 05e1 00       		.byte	0
 936 05e2 15       		.uleb128 0x15
 937 05e3 BF000000 		.4byte	0xbf
 938 05e7 F2050000 		.4byte	0x5f2
 939 05eb 16       		.uleb128 0x16
 940 05ec 37000000 		.4byte	0x37
 941 05f0 0B       		.byte	0xb
 942 05f1 00       		.byte	0
 943 05f2 05       		.uleb128 0x5
 944 05f3 E2050000 		.4byte	0x5e2
 945 05f7 15       		.uleb128 0x15
 946 05f8 F4000000 		.4byte	0xf4
 947 05fc 07060000 		.4byte	0x607
 948 0600 16       		.uleb128 0x16
 949 0601 37000000 		.4byte	0x37
 950 0605 01       		.byte	0x1
 951 0606 00       		.byte	0
 952 0607 06       		.uleb128 0x6
 953 0608 F7050000 		.4byte	0x5f7
 954 060c 05       		.uleb128 0x5
 955 060d 07060000 		.4byte	0x607
 956 0611 15       		.uleb128 0x15
 957 0612 F4000000 		.4byte	0xf4
 958 0616 21060000 		.4byte	0x621
 959 061a 16       		.uleb128 0x16
 960 061b 37000000 		.4byte	0x37
 961 061f 03       		.byte	0x3
 962 0620 00       		.byte	0
 963 0621 06       		.uleb128 0x6
 964 0622 11060000 		.4byte	0x611
 965 0626 05       		.uleb128 0x5
 966 0627 21060000 		.4byte	0x621
ARM GAS  C:\Users\RAKIBU~1\AppData\Local\Temp\ccuCusfe.s 			page 18


 967 062b 15       		.uleb128 0x15
 968 062c F4000000 		.4byte	0xf4
 969 0630 3B060000 		.4byte	0x63b
 970 0634 16       		.uleb128 0x16
 971 0635 37000000 		.4byte	0x37
 972 0639 04       		.byte	0x4
 973 063a 00       		.byte	0
 974 063b 06       		.uleb128 0x6
 975 063c 2B060000 		.4byte	0x62b
 976 0640 05       		.uleb128 0x5
 977 0641 3B060000 		.4byte	0x63b
 978 0645 15       		.uleb128 0x15
 979 0646 E4000000 		.4byte	0xe4
 980 064a 55060000 		.4byte	0x655
 981 064e 16       		.uleb128 0x16
 982 064f 37000000 		.4byte	0x37
 983 0653 04       		.byte	0x4
 984 0654 00       		.byte	0
 985 0655 17       		.uleb128 0x17
 986 0656 3A020000 		.4byte	.LASF96
 987 065a 0A       		.byte	0xa
 988 065b CF01     		.2byte	0x1cf
 989 065d C7040000 		.4byte	0x4c7
 990 0661 18       		.uleb128 0x18
 991 0662 95060000 		.4byte	.LASF97
 992 0666 0A       		.byte	0xa
 993 0667 0408     		.2byte	0x804
 994 0669 DF000000 		.4byte	0xdf
 995 066d 19       		.uleb128 0x19
 996 066e F7020000 		.4byte	.LASF98
 997 0672 0B       		.byte	0xb
 998 0673 4C       		.byte	0x4c
 999 0674 E4000000 		.4byte	0xe4
 1000 0678 15       		.uleb128 0x15
 1001 0679 C4000000 		.4byte	0xc4
 1002 067d 88060000 		.4byte	0x688
 1003 0681 16       		.uleb128 0x16
 1004 0682 37000000 		.4byte	0x37
 1005 0686 0F       		.byte	0xf
 1006 0687 00       		.byte	0
 1007 0688 06       		.uleb128 0x6
 1008 0689 78060000 		.4byte	0x678
 1009 068d 19       		.uleb128 0x19
 1010 068e 58040000 		.4byte	.LASF99
 1011 0692 0B       		.byte	0xb
 1012 0693 4E       		.byte	0x4e
 1013 0694 88060000 		.4byte	0x688
 1014 0698 15       		.uleb128 0x15
 1015 0699 C4000000 		.4byte	0xc4
 1016 069d A8060000 		.4byte	0x6a8
 1017 06a1 16       		.uleb128 0x16
 1018 06a2 37000000 		.4byte	0x37
 1019 06a6 07       		.byte	0x7
 1020 06a7 00       		.byte	0
 1021 06a8 06       		.uleb128 0x6
 1022 06a9 98060000 		.4byte	0x698
 1023 06ad 19       		.uleb128 0x19
ARM GAS  C:\Users\RAKIBU~1\AppData\Local\Temp\ccuCusfe.s 			page 19


 1024 06ae 5B020000 		.4byte	.LASF100
 1025 06b2 0B       		.byte	0xb
 1026 06b3 4F       		.byte	0x4f
 1027 06b4 A8060000 		.4byte	0x6a8
 1028 06b8 03       		.uleb128 0x3
 1029 06b9 31020000 		.4byte	.LASF101
 1030 06bd 0C       		.byte	0xc
 1031 06be 65       		.byte	0x65
 1032 06bf 50030000 		.4byte	0x350
 1033 06c3 03       		.uleb128 0x3
 1034 06c4 77040000 		.4byte	.LASF102
 1035 06c8 0C       		.byte	0xc
 1036 06c9 6D       		.byte	0x6d
 1037 06ca F9000000 		.4byte	0xf9
 1038 06ce 07       		.uleb128 0x7
 1039 06cf FB040000 		.4byte	.LASF103
 1040 06d3 04       		.byte	0x4
 1041 06d4 0C       		.byte	0xc
 1042 06d5 89       		.byte	0x89
 1043 06d6 E6060000 		.4byte	0x6e6
 1044 06da 09       		.uleb128 0x9
 1045 06db 737000   		.ascii	"sp\000"
 1046 06de 0C       		.byte	0xc
 1047 06df 8A       		.byte	0x8a
 1048 06e0 62070000 		.4byte	0x762
 1049 06e4 00       		.byte	0
 1050 06e5 00       		.byte	0
 1051 06e6 0D       		.uleb128 0xd
 1052 06e7 52000000 		.4byte	.LASF104
 1053 06eb 24       		.byte	0x24
 1054 06ec 0D       		.byte	0xd
 1055 06ed 6001     		.2byte	0x160
 1056 06ef 62070000 		.4byte	0x762
 1057 06f3 0A       		.uleb128 0xa
 1058 06f4 723400   		.ascii	"r4\000"
 1059 06f7 0D       		.byte	0xd
 1060 06f8 7301     		.2byte	0x173
 1061 06fa B8060000 		.4byte	0x6b8
 1062 06fe 00       		.byte	0
 1063 06ff 0A       		.uleb128 0xa
 1064 0700 723500   		.ascii	"r5\000"
 1065 0703 0D       		.byte	0xd
 1066 0704 7401     		.2byte	0x174
 1067 0706 B8060000 		.4byte	0x6b8
 1068 070a 04       		.byte	0x4
 1069 070b 0A       		.uleb128 0xa
 1070 070c 723600   		.ascii	"r6\000"
 1071 070f 0D       		.byte	0xd
 1072 0710 7501     		.2byte	0x175
 1073 0712 B8060000 		.4byte	0x6b8
 1074 0716 08       		.byte	0x8
 1075 0717 0A       		.uleb128 0xa
 1076 0718 723700   		.ascii	"r7\000"
 1077 071b 0D       		.byte	0xd
 1078 071c 7601     		.2byte	0x176
 1079 071e B8060000 		.4byte	0x6b8
 1080 0722 0C       		.byte	0xc
ARM GAS  C:\Users\RAKIBU~1\AppData\Local\Temp\ccuCusfe.s 			page 20


 1081 0723 0A       		.uleb128 0xa
 1082 0724 723800   		.ascii	"r8\000"
 1083 0727 0D       		.byte	0xd
 1084 0728 7701     		.2byte	0x177
 1085 072a B8060000 		.4byte	0x6b8
 1086 072e 10       		.byte	0x10
 1087 072f 0A       		.uleb128 0xa
 1088 0730 723900   		.ascii	"r9\000"
 1089 0733 0D       		.byte	0xd
 1090 0734 7801     		.2byte	0x178
 1091 0736 B8060000 		.4byte	0x6b8
 1092 073a 14       		.byte	0x14
 1093 073b 0A       		.uleb128 0xa
 1094 073c 72313000 		.ascii	"r10\000"
 1095 0740 0D       		.byte	0xd
 1096 0741 7901     		.2byte	0x179
 1097 0743 B8060000 		.4byte	0x6b8
 1098 0747 18       		.byte	0x18
 1099 0748 0A       		.uleb128 0xa
 1100 0749 72313100 		.ascii	"r11\000"
 1101 074d 0D       		.byte	0xd
 1102 074e 7A01     		.2byte	0x17a
 1103 0750 B8060000 		.4byte	0x6b8
 1104 0754 1C       		.byte	0x1c
 1105 0755 0A       		.uleb128 0xa
 1106 0756 6C7200   		.ascii	"lr\000"
 1107 0759 0D       		.byte	0xd
 1108 075a 7B01     		.2byte	0x17b
 1109 075c B8060000 		.4byte	0x6b8
 1110 0760 20       		.byte	0x20
 1111 0761 00       		.byte	0
 1112 0762 0C       		.uleb128 0xc
 1113 0763 04       		.byte	0x4
 1114 0764 E6060000 		.4byte	0x6e6
 1115 0768 0D       		.uleb128 0xd
 1116 0769 08050000 		.4byte	.LASF105
 1117 076d 20       		.byte	0x20
 1118 076e 0D       		.byte	0xd
 1119 076f 4101     		.2byte	0x141
 1120 0771 D9070000 		.4byte	0x7d9
 1121 0775 0A       		.uleb128 0xa
 1122 0776 723000   		.ascii	"r0\000"
 1123 0779 0D       		.byte	0xd
 1124 077a 4201     		.2byte	0x142
 1125 077c B8060000 		.4byte	0x6b8
 1126 0780 00       		.byte	0
 1127 0781 0A       		.uleb128 0xa
 1128 0782 723100   		.ascii	"r1\000"
 1129 0785 0D       		.byte	0xd
 1130 0786 4301     		.2byte	0x143
 1131 0788 B8060000 		.4byte	0x6b8
 1132 078c 04       		.byte	0x4
 1133 078d 0A       		.uleb128 0xa
 1134 078e 723200   		.ascii	"r2\000"
 1135 0791 0D       		.byte	0xd
 1136 0792 4401     		.2byte	0x144
 1137 0794 B8060000 		.4byte	0x6b8
ARM GAS  C:\Users\RAKIBU~1\AppData\Local\Temp\ccuCusfe.s 			page 21


 1138 0798 08       		.byte	0x8
 1139 0799 0A       		.uleb128 0xa
 1140 079a 723300   		.ascii	"r3\000"
 1141 079d 0D       		.byte	0xd
 1142 079e 4501     		.2byte	0x145
 1143 07a0 B8060000 		.4byte	0x6b8
 1144 07a4 0C       		.byte	0xc
 1145 07a5 0A       		.uleb128 0xa
 1146 07a6 72313200 		.ascii	"r12\000"
 1147 07aa 0D       		.byte	0xd
 1148 07ab 4601     		.2byte	0x146
 1149 07ad B8060000 		.4byte	0x6b8
 1150 07b1 10       		.byte	0x10
 1151 07b2 0B       		.uleb128 0xb
 1152 07b3 DB060000 		.4byte	.LASF106
 1153 07b7 0D       		.byte	0xd
 1154 07b8 4701     		.2byte	0x147
 1155 07ba B8060000 		.4byte	0x6b8
 1156 07be 14       		.byte	0x14
 1157 07bf 0A       		.uleb128 0xa
 1158 07c0 706300   		.ascii	"pc\000"
 1159 07c3 0D       		.byte	0xd
 1160 07c4 4801     		.2byte	0x148
 1161 07c6 B8060000 		.4byte	0x6b8
 1162 07ca 18       		.byte	0x18
 1163 07cb 0B       		.uleb128 0xb
 1164 07cc BA060000 		.4byte	.LASF107
 1165 07d0 0D       		.byte	0xd
 1166 07d1 4901     		.2byte	0x149
 1167 07d3 B8060000 		.4byte	0x6b8
 1168 07d7 1C       		.byte	0x1c
 1169 07d8 00       		.byte	0
 1170 07d9 1A       		.uleb128 0x1a
 1171 07da 08       		.byte	0x8
 1172 07db 0E       		.byte	0xe
 1173 07dc 7F       		.byte	0x7f
 1174 07dd FA070000 		.4byte	0x7fa
 1175 07e1 09       		.uleb128 0x9
 1176 07e2 6E747000 		.ascii	"ntp\000"
 1177 07e6 0E       		.byte	0xe
 1178 07e7 83       		.byte	0x83
 1179 07e8 73020000 		.4byte	0x273
 1180 07ec 00       		.byte	0
 1181 07ed 08       		.uleb128 0x8
 1182 07ee ED080000 		.4byte	.LASF108
 1183 07f2 0E       		.byte	0xe
 1184 07f3 87       		.byte	0x87
 1185 07f4 50030000 		.4byte	0x350
 1186 07f8 04       		.byte	0x4
 1187 07f9 00       		.byte	0
 1188 07fa 1A       		.uleb128 0x1a
 1189 07fb 04       		.byte	0x4
 1190 07fc 0E       		.byte	0xe
 1191 07fd 8C       		.byte	0x8c
 1192 07fe 0F080000 		.4byte	0x80f
 1193 0802 08       		.uleb128 0x8
 1194 0803 CA030000 		.4byte	.LASF36
ARM GAS  C:\Users\RAKIBU~1\AppData\Local\Temp\ccuCusfe.s 			page 22


 1195 0807 0E       		.byte	0xe
 1196 0808 90       		.byte	0x90
 1197 0809 0F080000 		.4byte	0x80f
 1198 080d 00       		.byte	0
 1199 080e 00       		.byte	0
 1200 080f 0C       		.uleb128 0xc
 1201 0810 04       		.byte	0x4
 1202 0811 21080000 		.4byte	0x821
 1203 0815 05       		.uleb128 0x5
 1204 0816 0F080000 		.4byte	0x80f
 1205 081a 04       		.uleb128 0x4
 1206 081b 01       		.byte	0x1
 1207 081c 08       		.byte	0x8
 1208 081d 82070000 		.4byte	.LASF109
 1209 0821 06       		.uleb128 0x6
 1210 0822 1A080000 		.4byte	0x81a
 1211 0826 1A       		.uleb128 0x1a
 1212 0827 04       		.byte	0x4
 1213 0828 0E       		.byte	0xe
 1214 0829 95       		.byte	0x95
 1215 082a 3B080000 		.4byte	0x83b
 1216 082e 08       		.uleb128 0x8
 1217 082f EB060000 		.4byte	.LASF110
 1218 0833 0E       		.byte	0xe
 1219 0834 99       		.byte	0x99
 1220 0835 0F080000 		.4byte	0x80f
 1221 0839 00       		.byte	0
 1222 083a 00       		.byte	0
 1223 083b 1A       		.uleb128 0x1a
 1224 083c 08       		.byte	0x8
 1225 083d 0E       		.byte	0xe
 1226 083e 9E       		.byte	0x9e
 1227 083f 5C080000 		.4byte	0x85c
 1228 0843 09       		.uleb128 0x9
 1229 0844 75703100 		.ascii	"up1\000"
 1230 0848 0E       		.byte	0xe
 1231 0849 A2       		.byte	0xa2
 1232 084a 50030000 		.4byte	0x350
 1233 084e 00       		.byte	0
 1234 084f 09       		.uleb128 0x9
 1235 0850 75703200 		.ascii	"up2\000"
 1236 0854 0E       		.byte	0xe
 1237 0855 A6       		.byte	0xa6
 1238 0856 50030000 		.4byte	0x350
 1239 085a 04       		.byte	0x4
 1240 085b 00       		.byte	0
 1241 085c 1B       		.uleb128 0x1b
 1242 085d 08       		.byte	0x8
 1243 085e 0E       		.byte	0xe
 1244 085f 7B       		.byte	0x7b
 1245 0860 90080000 		.4byte	0x890
 1246 0864 1C       		.uleb128 0x1c
 1247 0865 737700   		.ascii	"sw\000"
 1248 0868 0E       		.byte	0xe
 1249 0869 88       		.byte	0x88
 1250 086a D9070000 		.4byte	0x7d9
 1251 086e 1C       		.uleb128 0x1c
ARM GAS  C:\Users\RAKIBU~1\AppData\Local\Temp\ccuCusfe.s 			page 23


 1252 086f 69737200 		.ascii	"isr\000"
 1253 0873 0E       		.byte	0xe
 1254 0874 91       		.byte	0x91
 1255 0875 FA070000 		.4byte	0x7fa
 1256 0879 1D       		.uleb128 0x1d
 1257 087a B5060000 		.4byte	.LASF111
 1258 087e 0E       		.byte	0xe
 1259 087f 9A       		.byte	0x9a
 1260 0880 26080000 		.4byte	0x826
 1261 0884 1D       		.uleb128 0x1d
 1262 0885 3E060000 		.4byte	.LASF112
 1263 0889 0E       		.byte	0xe
 1264 088a A7       		.byte	0xa7
 1265 088b 3B080000 		.4byte	0x83b
 1266 088f 00       		.byte	0
 1267 0890 1A       		.uleb128 0x1a
 1268 0891 10       		.byte	0x10
 1269 0892 0E       		.byte	0xe
 1270 0893 68       		.byte	0x68
 1271 0894 DC080000 		.4byte	0x8dc
 1272 0898 1E       		.uleb128 0x1e
 1273 0899 87000000 		.4byte	.LASF113
 1274 089d 0E       		.byte	0xe
 1275 089e 6C       		.byte	0x6c
 1276 089f E4000000 		.4byte	0xe4
 1277 08a3 04       		.byte	0x4
 1278 08a4 03       		.byte	0x3
 1279 08a5 1D       		.byte	0x1d
 1280 08a6 00       		.byte	0
 1281 08a7 1E       		.uleb128 0x1e
 1282 08a8 94010000 		.4byte	.LASF38
 1283 08ac 0E       		.byte	0xe
 1284 08ad 70       		.byte	0x70
 1285 08ae E4000000 		.4byte	0xe4
 1286 08b2 04       		.byte	0x4
 1287 08b3 05       		.byte	0x5
 1288 08b4 18       		.byte	0x18
 1289 08b5 00       		.byte	0
 1290 08b6 1E       		.uleb128 0x1e
 1291 08b7 88040000 		.4byte	.LASF114
 1292 08bb 0E       		.byte	0xe
 1293 08bc 76       		.byte	0x76
 1294 08bd E4000000 		.4byte	0xe4
 1295 08c1 04       		.byte	0x4
 1296 08c2 18       		.byte	0x18
 1297 08c3 00       		.byte	0
 1298 08c4 00       		.byte	0
 1299 08c5 08       		.uleb128 0x8
 1300 08c6 BA050000 		.4byte	.LASF115
 1301 08ca 0E       		.byte	0xe
 1302 08cb 7A       		.byte	0x7a
 1303 08cc B1040000 		.4byte	0x4b1
 1304 08d0 04       		.byte	0x4
 1305 08d1 09       		.uleb128 0x9
 1306 08d2 7500     		.ascii	"u\000"
 1307 08d4 0E       		.byte	0xe
 1308 08d5 A8       		.byte	0xa8
ARM GAS  C:\Users\RAKIBU~1\AppData\Local\Temp\ccuCusfe.s 			page 24


 1309 08d6 5C080000 		.4byte	0x85c
 1310 08da 08       		.byte	0x8
 1311 08db 00       		.byte	0
 1312 08dc 03       		.uleb128 0x3
 1313 08dd B6010000 		.4byte	.LASF116
 1314 08e1 0E       		.byte	0xe
 1315 08e2 A9       		.byte	0xa9
 1316 08e3 90080000 		.4byte	0x890
 1317 08e7 1F       		.uleb128 0x1f
 1318 08e8 0808     		.2byte	0x808
 1319 08ea 0E       		.byte	0xe
 1320 08eb AF       		.byte	0xaf
 1321 08ec 21090000 		.4byte	0x921
 1322 08f0 08       		.uleb128 0x8
 1323 08f1 A3010000 		.4byte	.LASF117
 1324 08f5 0E       		.byte	0xe
 1325 08f6 B3       		.byte	0xb3
 1326 08f7 C9000000 		.4byte	0xc9
 1327 08fb 00       		.byte	0
 1328 08fc 08       		.uleb128 0x8
 1329 08fd F4080000 		.4byte	.LASF118
 1330 0901 0E       		.byte	0xe
 1331 0902 B7       		.byte	0xb7
 1332 0903 C9000000 		.4byte	0xc9
 1333 0907 02       		.byte	0x2
 1334 0908 09       		.uleb128 0x9
 1335 0909 70747200 		.ascii	"ptr\000"
 1336 090d 0E       		.byte	0xe
 1337 090e BB       		.byte	0xbb
 1338 090f 21090000 		.4byte	0x921
 1339 0913 04       		.byte	0x4
 1340 0914 08       		.uleb128 0x8
 1341 0915 16020000 		.4byte	.LASF119
 1342 0919 0E       		.byte	0xe
 1343 091a BF       		.byte	0xbf
 1344 091b 27090000 		.4byte	0x927
 1345 091f 08       		.byte	0x8
 1346 0920 00       		.byte	0
 1347 0921 0C       		.uleb128 0xc
 1348 0922 04       		.byte	0x4
 1349 0923 DC080000 		.4byte	0x8dc
 1350 0927 15       		.uleb128 0x15
 1351 0928 DC080000 		.4byte	0x8dc
 1352 092c 37090000 		.4byte	0x937
 1353 0930 16       		.uleb128 0x16
 1354 0931 37000000 		.4byte	0x37
 1355 0935 7F       		.byte	0x7f
 1356 0936 00       		.byte	0
 1357 0937 03       		.uleb128 0x3
 1358 0938 DE000000 		.4byte	.LASF120
 1359 093c 0E       		.byte	0xe
 1360 093d C0       		.byte	0xc0
 1361 093e E7080000 		.4byte	0x8e7
 1362 0942 1A       		.uleb128 0x1a
 1363 0943 04       		.byte	0x4
 1364 0944 0F       		.byte	0xf
 1365 0945 38       		.byte	0x38
ARM GAS  C:\Users\RAKIBU~1\AppData\Local\Temp\ccuCusfe.s 			page 25


 1366 0946 57090000 		.4byte	0x957
 1367 094a 08       		.uleb128 0x8
 1368 094b 09080000 		.4byte	.LASF121
 1369 094f 0F       		.byte	0xf
 1370 0950 3C       		.byte	0x3c
 1371 0951 04010000 		.4byte	0x104
 1372 0955 00       		.byte	0
 1373 0956 00       		.byte	0
 1374 0957 03       		.uleb128 0x3
 1375 0958 14050000 		.4byte	.LASF122
 1376 095c 0F       		.byte	0xf
 1377 095d 3D       		.byte	0x3d
 1378 095e 42090000 		.4byte	0x942
 1379 0962 1A       		.uleb128 0x1a
 1380 0963 18       		.byte	0x18
 1381 0964 0F       		.byte	0xf
 1382 0965 48       		.byte	0x48
 1383 0966 A5090000 		.4byte	0x9a5
 1384 096a 08       		.uleb128 0x8
 1385 096b BF070000 		.4byte	.LASF123
 1386 096f 0F       		.byte	0xf
 1387 0970 49       		.byte	0x49
 1388 0971 04010000 		.4byte	0x104
 1389 0975 00       		.byte	0
 1390 0976 08       		.uleb128 0x8
 1391 0977 AE000000 		.4byte	.LASF124
 1392 097b 0F       		.byte	0xf
 1393 097c 4A       		.byte	0x4a
 1394 097d 04010000 		.4byte	0x104
 1395 0981 04       		.byte	0x4
 1396 0982 08       		.uleb128 0x8
 1397 0983 D5050000 		.4byte	.LASF125
 1398 0987 0F       		.byte	0xf
 1399 0988 4B       		.byte	0x4b
 1400 0989 04010000 		.4byte	0x104
 1401 098d 08       		.byte	0x8
 1402 098e 09       		.uleb128 0x9
 1403 098f 6E00     		.ascii	"n\000"
 1404 0991 0F       		.byte	0xf
 1405 0992 4C       		.byte	0x4c
 1406 0993 67010000 		.4byte	0x167
 1407 0997 0C       		.byte	0xc
 1408 0998 08       		.uleb128 0x8
 1409 0999 EF050000 		.4byte	.LASF126
 1410 099d 0F       		.byte	0xf
 1411 099e 4D       		.byte	0x4d
 1412 099f 0F010000 		.4byte	0x10f
 1413 09a3 10       		.byte	0x10
 1414 09a4 00       		.byte	0
 1415 09a5 03       		.uleb128 0x3
 1416 09a6 B4000000 		.4byte	.LASF127
 1417 09aa 0F       		.byte	0xf
 1418 09ab 4E       		.byte	0x4e
 1419 09ac 62090000 		.4byte	0x962
 1420 09b0 1A       		.uleb128 0x1a
 1421 09b1 38       		.byte	0x38
 1422 09b2 10       		.byte	0x10
ARM GAS  C:\Users\RAKIBU~1\AppData\Local\Temp\ccuCusfe.s 			page 26


 1423 09b3 38       		.byte	0x38
 1424 09b4 E9090000 		.4byte	0x9e9
 1425 09b8 08       		.uleb128 0x8
 1426 09b9 2B030000 		.4byte	.LASF128
 1427 09bd 10       		.byte	0x10
 1428 09be 39       		.byte	0x39
 1429 09bf 67010000 		.4byte	0x167
 1430 09c3 00       		.byte	0
 1431 09c4 08       		.uleb128 0x8
 1432 09c5 54060000 		.4byte	.LASF129
 1433 09c9 10       		.byte	0x10
 1434 09ca 3A       		.byte	0x3a
 1435 09cb 67010000 		.4byte	0x167
 1436 09cf 04       		.byte	0x4
 1437 09d0 08       		.uleb128 0x8
 1438 09d1 3A090000 		.4byte	.LASF130
 1439 09d5 10       		.byte	0x10
 1440 09d6 3B       		.byte	0x3b
 1441 09d7 A5090000 		.4byte	0x9a5
 1442 09db 08       		.byte	0x8
 1443 09dc 08       		.uleb128 0x8
 1444 09dd 33040000 		.4byte	.LASF131
 1445 09e1 10       		.byte	0x10
 1446 09e2 3D       		.byte	0x3d
 1447 09e3 A5090000 		.4byte	0x9a5
 1448 09e7 20       		.byte	0x20
 1449 09e8 00       		.byte	0
 1450 09e9 03       		.uleb128 0x3
 1451 09ea BB030000 		.4byte	.LASF132
 1452 09ee 10       		.byte	0x10
 1453 09ef 3F       		.byte	0x3f
 1454 09f0 B0090000 		.4byte	0x9b0
 1455 09f4 1B       		.uleb128 0x1b
 1456 09f5 04       		.byte	0x4
 1457 09f6 08       		.byte	0x8
 1458 09f7 C6       		.byte	0xc6
 1459 09f8 560A0000 		.4byte	0xa56
 1460 09fc 1D       		.uleb128 0x1d
 1461 09fd 26000000 		.4byte	.LASF133
 1462 0a01 08       		.byte	0x8
 1463 0a02 CD       		.byte	0xcd
 1464 0a03 46010000 		.4byte	0x146
 1465 0a07 1D       		.uleb128 0x1d
 1466 0a08 F0000000 		.4byte	.LASF134
 1467 0a0c 08       		.byte	0x8
 1468 0a0d D4       		.byte	0xd4
 1469 0a0e 46010000 		.4byte	0x146
 1470 0a12 1D       		.uleb128 0x1d
 1471 0a13 ED080000 		.4byte	.LASF108
 1472 0a17 08       		.byte	0x8
 1473 0a18 DB       		.byte	0xdb
 1474 0a19 50030000 		.4byte	0x350
 1475 0a1d 1D       		.uleb128 0x1d
 1476 0a1e 0E030000 		.4byte	.LASF135
 1477 0a22 08       		.byte	0x8
 1478 0a23 E2       		.byte	0xe2
 1479 0a24 560A0000 		.4byte	0xa56
ARM GAS  C:\Users\RAKIBU~1\AppData\Local\Temp\ccuCusfe.s 			page 27


 1480 0a28 1D       		.uleb128 0x1d
 1481 0a29 04010000 		.4byte	.LASF136
 1482 0a2d 08       		.byte	0x8
 1483 0a2e E7       		.byte	0xe7
 1484 0a2f 46010000 		.4byte	0x146
 1485 0a33 1D       		.uleb128 0x1d
 1486 0a34 07030000 		.4byte	.LASF137
 1487 0a38 08       		.byte	0x8
 1488 0a39 F0       		.byte	0xf0
 1489 0a3a 810A0000 		.4byte	0xa81
 1490 0a3e 1D       		.uleb128 0x1d
 1491 0a3f 47070000 		.4byte	.LASF138
 1492 0a43 08       		.byte	0x8
 1493 0a44 F9       		.byte	0xf9
 1494 0a45 B80A0000 		.4byte	0xab8
 1495 0a49 20       		.uleb128 0x20
 1496 0a4a BF060000 		.4byte	.LASF139
 1497 0a4e 08       		.byte	0x8
 1498 0a4f 0101     		.2byte	0x101
 1499 0a51 51010000 		.4byte	0x151
 1500 0a55 00       		.byte	0
 1501 0a56 0C       		.uleb128 0xc
 1502 0a57 04       		.byte	0x4
 1503 0a58 68020000 		.4byte	0x268
 1504 0a5c 07       		.uleb128 0x7
 1505 0a5d 03070000 		.4byte	.LASF140
 1506 0a61 0C       		.byte	0xc
 1507 0a62 11       		.byte	0x11
 1508 0a63 34       		.byte	0x34
 1509 0a64 810A0000 		.4byte	0xa81
 1510 0a68 08       		.uleb128 0x8
 1511 0a69 DA040000 		.4byte	.LASF32
 1512 0a6d 11       		.byte	0x11
 1513 0a6e 35       		.byte	0x35
 1514 0a6f 9D020000 		.4byte	0x29d
 1515 0a73 00       		.byte	0
 1516 0a74 09       		.uleb128 0x9
 1517 0a75 636E7400 		.ascii	"cnt\000"
 1518 0a79 11       		.byte	0x11
 1519 0a7a 37       		.byte	0x37
 1520 0a7b 5C010000 		.4byte	0x15c
 1521 0a7f 08       		.byte	0x8
 1522 0a80 00       		.byte	0
 1523 0a81 0C       		.uleb128 0xc
 1524 0a82 04       		.byte	0x4
 1525 0a83 5C0A0000 		.4byte	0xa5c
 1526 0a87 07       		.uleb128 0x7
 1527 0a88 10080000 		.4byte	.LASF141
 1528 0a8c 10       		.byte	0x10
 1529 0a8d 12       		.byte	0x12
 1530 0a8e 39       		.byte	0x39
 1531 0a8f B80A0000 		.4byte	0xab8
 1532 0a93 08       		.uleb128 0x8
 1533 0a94 DA040000 		.4byte	.LASF32
 1534 0a98 12       		.byte	0x12
 1535 0a99 3A       		.byte	0x3a
 1536 0a9a 9D020000 		.4byte	0x29d
ARM GAS  C:\Users\RAKIBU~1\AppData\Local\Temp\ccuCusfe.s 			page 28


 1537 0a9e 00       		.byte	0
 1538 0a9f 08       		.uleb128 0x8
 1539 0aa0 63070000 		.4byte	.LASF142
 1540 0aa4 12       		.byte	0x12
 1541 0aa5 3C       		.byte	0x3c
 1542 0aa6 73020000 		.4byte	0x273
 1543 0aaa 08       		.byte	0x8
 1544 0aab 08       		.uleb128 0x8
 1545 0aac F9080000 		.4byte	.LASF52
 1546 0ab0 12       		.byte	0x12
 1547 0ab1 3E       		.byte	0x3e
 1548 0ab2 030C0000 		.4byte	0xc03
 1549 0ab6 0C       		.byte	0xc
 1550 0ab7 00       		.byte	0
 1551 0ab8 0C       		.uleb128 0xc
 1552 0ab9 04       		.byte	0x4
 1553 0aba 870A0000 		.4byte	0xa87
 1554 0abe 0C       		.uleb128 0xc
 1555 0abf 04       		.byte	0x4
 1556 0ac0 C3060000 		.4byte	0x6c3
 1557 0ac4 0C       		.uleb128 0xc
 1558 0ac5 04       		.byte	0x4
 1559 0ac6 52030000 		.4byte	0x352
 1560 0aca 21       		.uleb128 0x21
 1561 0acb 636800   		.ascii	"ch\000"
 1562 0ace 08       		.byte	0x8
 1563 0acf C701     		.2byte	0x1c7
 1564 0ad1 47040000 		.4byte	0x447
 1565 0ad5 15       		.uleb128 0x15
 1566 0ad6 C3060000 		.4byte	0x6c3
 1567 0ada E00A0000 		.4byte	0xae0
 1568 0ade 22       		.uleb128 0x22
 1569 0adf 00       		.byte	0
 1570 0ae0 18       		.uleb128 0x18
 1571 0ae1 19070000 		.4byte	.LASF143
 1572 0ae5 13       		.byte	0x13
 1573 0ae6 1701     		.2byte	0x117
 1574 0ae8 D50A0000 		.4byte	0xad5
 1575 0aec 1A       		.uleb128 0x1a
 1576 0aed 16       		.byte	0x16
 1577 0aee 14       		.byte	0x14
 1578 0aef 34       		.byte	0x34
 1579 0af0 CD0B0000 		.4byte	0xbcd
 1580 0af4 08       		.uleb128 0x8
 1581 0af5 D2010000 		.4byte	.LASF144
 1582 0af9 14       		.byte	0x14
 1583 0afa 35       		.byte	0x35
 1584 0afb CD0B0000 		.4byte	0xbcd
 1585 0aff 00       		.byte	0
 1586 0b00 08       		.uleb128 0x8
 1587 0b01 69020000 		.4byte	.LASF145
 1588 0b05 14       		.byte	0x14
 1589 0b06 36       		.byte	0x36
 1590 0b07 B4000000 		.4byte	0xb4
 1591 0b0b 04       		.byte	0x4
 1592 0b0c 08       		.uleb128 0x8
 1593 0b0d F4080000 		.4byte	.LASF118
ARM GAS  C:\Users\RAKIBU~1\AppData\Local\Temp\ccuCusfe.s 			page 29


 1594 0b11 14       		.byte	0x14
 1595 0b12 37       		.byte	0x37
 1596 0b13 B4000000 		.4byte	0xb4
 1597 0b17 05       		.byte	0x5
 1598 0b18 08       		.uleb128 0x8
 1599 0b19 99040000 		.4byte	.LASF146
 1600 0b1d 14       		.byte	0x14
 1601 0b1e 38       		.byte	0x38
 1602 0b1f C9000000 		.4byte	0xc9
 1603 0b23 06       		.byte	0x6
 1604 0b24 08       		.uleb128 0x8
 1605 0b25 6B080000 		.4byte	.LASF147
 1606 0b29 14       		.byte	0x14
 1607 0b2a 39       		.byte	0x39
 1608 0b2b B4000000 		.4byte	0xb4
 1609 0b2f 08       		.byte	0x8
 1610 0b30 08       		.uleb128 0x8
 1611 0b31 2B070000 		.4byte	.LASF148
 1612 0b35 14       		.byte	0x14
 1613 0b36 3A       		.byte	0x3a
 1614 0b37 B4000000 		.4byte	0xb4
 1615 0b3b 09       		.byte	0x9
 1616 0b3c 08       		.uleb128 0x8
 1617 0b3d 1E060000 		.4byte	.LASF149
 1618 0b41 14       		.byte	0x14
 1619 0b42 3B       		.byte	0x3b
 1620 0b43 B4000000 		.4byte	0xb4
 1621 0b47 0A       		.byte	0xa
 1622 0b48 08       		.uleb128 0x8
 1623 0b49 79060000 		.4byte	.LASF150
 1624 0b4d 14       		.byte	0x14
 1625 0b4e 3C       		.byte	0x3c
 1626 0b4f B4000000 		.4byte	0xb4
 1627 0b53 0B       		.byte	0xb
 1628 0b54 08       		.uleb128 0x8
 1629 0b55 23040000 		.4byte	.LASF151
 1630 0b59 14       		.byte	0x14
 1631 0b5a 3D       		.byte	0x3d
 1632 0b5b B4000000 		.4byte	0xb4
 1633 0b5f 0C       		.byte	0xc
 1634 0b60 08       		.uleb128 0x8
 1635 0b61 F1040000 		.4byte	.LASF152
 1636 0b65 14       		.byte	0x14
 1637 0b66 3E       		.byte	0x3e
 1638 0b67 B4000000 		.4byte	0xb4
 1639 0b6b 0D       		.byte	0xd
 1640 0b6c 08       		.uleb128 0x8
 1641 0b6d 19080000 		.4byte	.LASF153
 1642 0b71 14       		.byte	0x14
 1643 0b72 3F       		.byte	0x3f
 1644 0b73 B4000000 		.4byte	0xb4
 1645 0b77 0E       		.byte	0xe
 1646 0b78 08       		.uleb128 0x8
 1647 0b79 AF080000 		.4byte	.LASF154
 1648 0b7d 14       		.byte	0x14
 1649 0b7e 40       		.byte	0x40
 1650 0b7f B4000000 		.4byte	0xb4
ARM GAS  C:\Users\RAKIBU~1\AppData\Local\Temp\ccuCusfe.s 			page 30


 1651 0b83 0F       		.byte	0xf
 1652 0b84 08       		.uleb128 0x8
 1653 0b85 82060000 		.4byte	.LASF155
 1654 0b89 14       		.byte	0x14
 1655 0b8a 41       		.byte	0x41
 1656 0b8b B4000000 		.4byte	0xb4
 1657 0b8f 10       		.byte	0x10
 1658 0b90 08       		.uleb128 0x8
 1659 0b91 FE080000 		.4byte	.LASF156
 1660 0b95 14       		.byte	0x14
 1661 0b96 42       		.byte	0x42
 1662 0b97 B4000000 		.4byte	0xb4
 1663 0b9b 11       		.byte	0x11
 1664 0b9c 08       		.uleb128 0x8
 1665 0b9d D0080000 		.4byte	.LASF157
 1666 0ba1 14       		.byte	0x14
 1667 0ba2 43       		.byte	0x43
 1668 0ba3 B4000000 		.4byte	0xb4
 1669 0ba7 12       		.byte	0x12
 1670 0ba8 08       		.uleb128 0x8
 1671 0ba9 1D020000 		.4byte	.LASF158
 1672 0bad 14       		.byte	0x14
 1673 0bae 44       		.byte	0x44
 1674 0baf B4000000 		.4byte	0xb4
 1675 0bb3 13       		.byte	0x13
 1676 0bb4 08       		.uleb128 0x8
 1677 0bb5 F0010000 		.4byte	.LASF159
 1678 0bb9 14       		.byte	0x14
 1679 0bba 45       		.byte	0x45
 1680 0bbb B4000000 		.4byte	0xb4
 1681 0bbf 14       		.byte	0x14
 1682 0bc0 08       		.uleb128 0x8
 1683 0bc1 10070000 		.4byte	.LASF160
 1684 0bc5 14       		.byte	0x14
 1685 0bc6 46       		.byte	0x46
 1686 0bc7 B4000000 		.4byte	0xb4
 1687 0bcb 15       		.byte	0x15
 1688 0bcc 00       		.byte	0
 1689 0bcd 15       		.uleb128 0x15
 1690 0bce 1A080000 		.4byte	0x81a
 1691 0bd2 DD0B0000 		.4byte	0xbdd
 1692 0bd6 16       		.uleb128 0x16
 1693 0bd7 37000000 		.4byte	0x37
 1694 0bdb 03       		.byte	0x3
 1695 0bdc 00       		.byte	0
 1696 0bdd 03       		.uleb128 0x3
 1697 0bde E6010000 		.4byte	.LASF161
 1698 0be2 14       		.byte	0x14
 1699 0be3 47       		.byte	0x47
 1700 0be4 EC0A0000 		.4byte	0xaec
 1701 0be8 06       		.uleb128 0x6
 1702 0be9 DD0B0000 		.4byte	0xbdd
 1703 0bed 19       		.uleb128 0x19
 1704 0bee 14030000 		.4byte	.LASF162
 1705 0bf2 14       		.byte	0x14
 1706 0bf3 6C       		.byte	0x6c
 1707 0bf4 E80B0000 		.4byte	0xbe8
ARM GAS  C:\Users\RAKIBU~1\AppData\Local\Temp\ccuCusfe.s 			page 31


 1708 0bf8 03       		.uleb128 0x3
 1709 0bf9 6E020000 		.4byte	.LASF163
 1710 0bfd 12       		.byte	0x12
 1711 0bfe 34       		.byte	0x34
 1712 0bff 870A0000 		.4byte	0xa87
 1713 0c03 0C       		.uleb128 0xc
 1714 0c04 04       		.byte	0x4
 1715 0c05 F80B0000 		.4byte	0xbf8
 1716 0c09 04       		.uleb128 0x4
 1717 0c0a 01       		.byte	0x1
 1718 0c0b 02       		.byte	0x2
 1719 0c0c 5D060000 		.4byte	.LASF164
 1720 0c10 03       		.uleb128 0x3
 1721 0c11 FA050000 		.4byte	.LASF165
 1722 0c15 15       		.byte	0x15
 1723 0c16 47       		.byte	0x47
 1724 0c17 1B0C0000 		.4byte	0xc1b
 1725 0c1b 0C       		.uleb128 0xc
 1726 0c1c 04       		.byte	0x4
 1727 0c1d 210C0000 		.4byte	0xc21
 1728 0c21 23       		.uleb128 0x23
 1729 0c22 50030000 		.4byte	0x350
 1730 0c26 350C0000 		.4byte	0xc35
 1731 0c2a 0F       		.uleb128 0xf
 1732 0c2b 2C000000 		.4byte	0x2c
 1733 0c2f 0F       		.uleb128 0xf
 1734 0c30 37000000 		.4byte	0x37
 1735 0c34 00       		.byte	0
 1736 0c35 1A       		.uleb128 0x1a
 1737 0c36 08       		.byte	0x8
 1738 0c37 15       		.byte	0x15
 1739 0c38 51       		.byte	0x51
 1740 0c39 560C0000 		.4byte	0xc56
 1741 0c3d 08       		.uleb128 0x8
 1742 0c3e 4C090000 		.4byte	.LASF166
 1743 0c42 15       		.byte	0x15
 1744 0c43 55       		.byte	0x55
 1745 0c44 560C0000 		.4byte	0xc56
 1746 0c48 00       		.byte	0
 1747 0c49 08       		.uleb128 0x8
 1748 0c4a 66040000 		.4byte	.LASF167
 1749 0c4e 15       		.byte	0x15
 1750 0c4f 59       		.byte	0x59
 1751 0c50 560C0000 		.4byte	0xc56
 1752 0c54 04       		.byte	0x4
 1753 0c55 00       		.byte	0
 1754 0c56 0C       		.uleb128 0xc
 1755 0c57 04       		.byte	0x4
 1756 0c58 B4000000 		.4byte	0xb4
 1757 0c5c 03       		.uleb128 0x3
 1758 0c5d E5050000 		.4byte	.LASF168
 1759 0c61 15       		.byte	0x15
 1760 0c62 5A       		.byte	0x5a
 1761 0c63 350C0000 		.4byte	0xc35
 1762 0c67 19       		.uleb128 0x19
 1763 0c68 C4070000 		.4byte	.LASF169
 1764 0c6c 15       		.byte	0x15
ARM GAS  C:\Users\RAKIBU~1\AppData\Local\Temp\ccuCusfe.s 			page 32


 1765 0c6d 65       		.byte	0x65
 1766 0c6e 5C0C0000 		.4byte	0xc5c
 1767 0c72 07       		.uleb128 0x7
 1768 0c73 96080000 		.4byte	.LASF170
 1769 0c77 04       		.byte	0x4
 1770 0c78 16       		.byte	0x16
 1771 0c79 38       		.byte	0x38
 1772 0c7a 8B0C0000 		.4byte	0xc8b
 1773 0c7e 08       		.uleb128 0x8
 1774 0c7f F9080000 		.4byte	.LASF52
 1775 0c83 16       		.byte	0x16
 1776 0c84 39       		.byte	0x39
 1777 0c85 8B0C0000 		.4byte	0xc8b
 1778 0c89 00       		.byte	0
 1779 0c8a 00       		.byte	0
 1780 0c8b 0C       		.uleb128 0xc
 1781 0c8c 04       		.byte	0x4
 1782 0c8d 720C0000 		.4byte	0xc72
 1783 0c91 1A       		.uleb128 0x1a
 1784 0c92 10       		.byte	0x10
 1785 0c93 16       		.byte	0x16
 1786 0c94 40       		.byte	0x40
 1787 0c95 CA0C0000 		.4byte	0xcca
 1788 0c99 08       		.uleb128 0x8
 1789 0c9a F9080000 		.4byte	.LASF52
 1790 0c9e 16       		.byte	0x16
 1791 0c9f 41       		.byte	0x41
 1792 0ca0 8B0C0000 		.4byte	0xc8b
 1793 0ca4 00       		.byte	0
 1794 0ca5 08       		.uleb128 0x8
 1795 0ca6 5F080000 		.4byte	.LASF171
 1796 0caa 16       		.byte	0x16
 1797 0cab 42       		.byte	0x42
 1798 0cac 2C000000 		.4byte	0x2c
 1799 0cb0 04       		.byte	0x4
 1800 0cb1 08       		.uleb128 0x8
 1801 0cb2 28010000 		.4byte	.LASF172
 1802 0cb6 16       		.byte	0x16
 1803 0cb7 44       		.byte	0x44
 1804 0cb8 37000000 		.4byte	0x37
 1805 0cbc 08       		.byte	0x8
 1806 0cbd 08       		.uleb128 0x8
 1807 0cbe 7E000000 		.4byte	.LASF173
 1808 0cc2 16       		.byte	0x16
 1809 0cc3 45       		.byte	0x45
 1810 0cc4 100C0000 		.4byte	0xc10
 1811 0cc8 0C       		.byte	0xc
 1812 0cc9 00       		.byte	0
 1813 0cca 03       		.uleb128 0x3
 1814 0ccb 1D030000 		.4byte	.LASF174
 1815 0ccf 16       		.byte	0x16
 1816 0cd0 47       		.byte	0x47
 1817 0cd1 910C0000 		.4byte	0xc91
 1818 0cd5 07       		.uleb128 0x7
 1819 0cd6 64010000 		.4byte	.LASF175
 1820 0cda 10       		.byte	0x10
 1821 0cdb 17       		.byte	0x17
ARM GAS  C:\Users\RAKIBU~1\AppData\Local\Temp\ccuCusfe.s 			page 33


 1822 0cdc A9       		.byte	0xa9
 1823 0cdd 060D0000 		.4byte	0xd06
 1824 0ce1 08       		.uleb128 0x8
 1825 0ce2 F9080000 		.4byte	.LASF52
 1826 0ce6 17       		.byte	0x17
 1827 0ce7 AD       		.byte	0xad
 1828 0ce8 060D0000 		.4byte	0xd06
 1829 0cec 00       		.byte	0
 1830 0ced 08       		.uleb128 0x8
 1831 0cee 40010000 		.4byte	.LASF40
 1832 0cf2 17       		.byte	0x17
 1833 0cf3 B1       		.byte	0xb1
 1834 0cf4 67010000 		.4byte	0x167
 1835 0cf8 04       		.byte	0x4
 1836 0cf9 08       		.uleb128 0x8
 1837 0cfa CA030000 		.4byte	.LASF36
 1838 0cfe 17       		.byte	0x17
 1839 0cff B3       		.byte	0xb3
 1840 0d00 0C0D0000 		.4byte	0xd0c
 1841 0d04 08       		.byte	0x8
 1842 0d05 00       		.byte	0
 1843 0d06 0C       		.uleb128 0xc
 1844 0d07 04       		.byte	0x4
 1845 0d08 D50C0000 		.4byte	0xcd5
 1846 0d0c 15       		.uleb128 0x15
 1847 0d0d 1A080000 		.4byte	0x81a
 1848 0d11 1C0D0000 		.4byte	0xd1c
 1849 0d15 16       		.uleb128 0x16
 1850 0d16 37000000 		.4byte	0x37
 1851 0d1a 07       		.byte	0x7
 1852 0d1b 00       		.byte	0
 1853 0d1c 03       		.uleb128 0x3
 1854 0d1d A9040000 		.4byte	.LASF176
 1855 0d21 17       		.byte	0x17
 1856 0d22 B7       		.byte	0xb7
 1857 0d23 D50C0000 		.4byte	0xcd5
 1858 0d27 07       		.uleb128 0x7
 1859 0d28 E0040000 		.4byte	.LASF177
 1860 0d2c 04       		.byte	0x4
 1861 0d2d 17       		.byte	0x17
 1862 0d2e BC       		.byte	0xbc
 1863 0d2f 400D0000 		.4byte	0xd40
 1864 0d33 08       		.uleb128 0x8
 1865 0d34 F9080000 		.4byte	.LASF52
 1866 0d38 17       		.byte	0x17
 1867 0d39 BD       		.byte	0xbd
 1868 0d3a 400D0000 		.4byte	0xd40
 1869 0d3e 00       		.byte	0
 1870 0d3f 00       		.byte	0
 1871 0d40 0C       		.uleb128 0xc
 1872 0d41 04       		.byte	0x4
 1873 0d42 1C0D0000 		.4byte	0xd1c
 1874 0d46 03       		.uleb128 0x3
 1875 0d47 FF030000 		.4byte	.LASF178
 1876 0d4b 17       		.byte	0x17
 1877 0d4c BE       		.byte	0xbe
 1878 0d4d 270D0000 		.4byte	0xd27
ARM GAS  C:\Users\RAKIBU~1\AppData\Local\Temp\ccuCusfe.s 			page 34


 1879 0d51 0D       		.uleb128 0xd
 1880 0d52 73080000 		.4byte	.LASF179
 1881 0d56 48       		.byte	0x48
 1882 0d57 17       		.byte	0x17
 1883 0d58 3E01     		.2byte	0x13e
 1884 0d5a D40D0000 		.4byte	0xdd4
 1885 0d5e 0A       		.uleb128 0xa
 1886 0d5f 6D747800 		.ascii	"mtx\000"
 1887 0d63 17       		.byte	0x17
 1888 0d64 4301     		.2byte	0x143
 1889 0d66 F80B0000 		.4byte	0xbf8
 1890 0d6a 00       		.byte	0
 1891 0d6b 0B       		.uleb128 0xb
 1892 0d6c 8D070000 		.4byte	.LASF180
 1893 0d70 17       		.byte	0x17
 1894 0d71 4A01     		.2byte	0x14a
 1895 0d73 460D0000 		.4byte	0xd46
 1896 0d77 10       		.byte	0x10
 1897 0d78 0B       		.uleb128 0xb
 1898 0d79 E2060000 		.4byte	.LASF181
 1899 0d7d 17       		.byte	0x17
 1900 0d7e 4E01     		.2byte	0x14e
 1901 0d80 CA0C0000 		.4byte	0xcca
 1902 0d84 14       		.byte	0x14
 1903 0d85 0B       		.uleb128 0xb
 1904 0d86 4B060000 		.4byte	.LASF182
 1905 0d8a 17       		.byte	0x17
 1906 0d8b 5301     		.2byte	0x153
 1907 0d8d 460D0000 		.4byte	0xd46
 1908 0d91 24       		.byte	0x24
 1909 0d92 0B       		.uleb128 0xb
 1910 0d93 9B000000 		.4byte	.LASF183
 1911 0d97 17       		.byte	0x17
 1912 0d98 5901     		.2byte	0x159
 1913 0d9a 460D0000 		.4byte	0xd46
 1914 0d9e 28       		.byte	0x28
 1915 0d9f 0B       		.uleb128 0xb
 1916 0da0 C4050000 		.4byte	.LASF184
 1917 0da4 17       		.byte	0x17
 1918 0da5 5D01     		.2byte	0x15d
 1919 0da7 CA0C0000 		.4byte	0xcca
 1920 0dab 2C       		.byte	0x2c
 1921 0dac 0B       		.uleb128 0xb
 1922 0dad 37010000 		.4byte	.LASF185
 1923 0db1 17       		.byte	0x17
 1924 0db2 6301     		.2byte	0x163
 1925 0db4 460D0000 		.4byte	0xd46
 1926 0db8 3C       		.byte	0x3c
 1927 0db9 0B       		.uleb128 0xb
 1928 0dba C6080000 		.4byte	.LASF186
 1929 0dbe 17       		.byte	0x17
 1930 0dbf 6901     		.2byte	0x169
 1931 0dc1 460D0000 		.4byte	0xd46
 1932 0dc5 40       		.byte	0x40
 1933 0dc6 0B       		.uleb128 0xb
 1934 0dc7 34070000 		.4byte	.LASF187
 1935 0dcb 17       		.byte	0x17
ARM GAS  C:\Users\RAKIBU~1\AppData\Local\Temp\ccuCusfe.s 			page 35


 1936 0dcc 6F01     		.2byte	0x16f
 1937 0dce 460D0000 		.4byte	0xd46
 1938 0dd2 44       		.byte	0x44
 1939 0dd3 00       		.byte	0
 1940 0dd4 17       		.uleb128 0x17
 1941 0dd5 15090000 		.4byte	.LASF188
 1942 0dd9 17       		.byte	0x17
 1943 0dda 7101     		.2byte	0x171
 1944 0ddc 510D0000 		.4byte	0xd51
 1945 0de0 18       		.uleb128 0x18
 1946 0de1 D0060000 		.4byte	.LASF189
 1947 0de5 17       		.byte	0x17
 1948 0de6 7C01     		.2byte	0x17c
 1949 0de8 D40D0000 		.4byte	0xdd4
 1950 0dec 24       		.uleb128 0x24
 1951 0ded 10040000 		.4byte	.LASF190
 1952 0df1 01       		.byte	0x1
 1953 0df2 87       		.byte	0x87
 1954 0df3 20000000 		.4byte	.LFB296
 1955 0df7 50000000 		.4byte	.LFE296-.LFB296
 1956 0dfb 01       		.uleb128 0x1
 1957 0dfc 9C       		.byte	0x9c
 1958 0dfd DE0E0000 		.4byte	0xede
 1959 0e01 25       		.uleb128 0x25
 1960 0e02 00000000 		.4byte	.Ldebug_ranges0+0
 1961 0e06 630E0000 		.4byte	0xe63
 1962 0e0a 26       		.uleb128 0x26
 1963 0e0b 29060000 		.4byte	.LASF192
 1964 0e0f 01       		.byte	0x1
 1965 0e10 8B       		.byte	0x8b
 1966 0e11 DE0E0000 		.4byte	0xede
 1967 0e15 00000000 		.4byte	.LLST5
 1968 0e19 27       		.uleb128 0x27
 1969 0e1a DC0F0000 		.4byte	0xfdc
 1970 0e1e 3A000000 		.4byte	.LBB64
 1971 0e22 04000000 		.4byte	.LBE64-.LBB64
 1972 0e26 01       		.byte	0x1
 1973 0e27 93       		.byte	0x93
 1974 0e28 3C0E0000 		.4byte	0xe3c
 1975 0e2c 28       		.uleb128 0x28
 1976 0e2d 3A000000 		.4byte	.LBB65
 1977 0e31 04000000 		.4byte	.LBE65-.LBB65
 1978 0e35 29       		.uleb128 0x29
 1979 0e36 EC0F0000 		.4byte	0xfec
 1980 0e3a 00       		.byte	0
 1981 0e3b 00       		.byte	0
 1982 0e3c 27       		.uleb128 0x27
 1983 0e3d C20F0000 		.4byte	0xfc2
 1984 0e41 4A000000 		.4byte	.LBB66
 1985 0e45 04000000 		.4byte	.LBE66-.LBB66
 1986 0e49 01       		.byte	0x1
 1987 0e4a A0       		.byte	0xa0
 1988 0e4b 590E0000 		.4byte	0xe59
 1989 0e4f 2A       		.uleb128 0x2a
 1990 0e50 CF0F0000 		.4byte	0xfcf
 1991 0e54 2B000000 		.4byte	.LLST6
 1992 0e58 00       		.byte	0
ARM GAS  C:\Users\RAKIBU~1\AppData\Local\Temp\ccuCusfe.s 			page 36


 1993 0e59 2B       		.uleb128 0x2b
 1994 0e5a 52000000 		.4byte	.LVL13
 1995 0e5e F80F0000 		.4byte	0xff8
 1996 0e62 00       		.byte	0
 1997 0e63 27       		.uleb128 0x27
 1998 0e64 8D0F0000 		.4byte	0xf8d
 1999 0e68 20000000 		.4byte	.LBB55
 2000 0e6c 06000000 		.4byte	.LBE55-.LBB55
 2001 0e70 01       		.byte	0x1
 2002 0e71 89       		.byte	0x89
 2003 0e72 A20E0000 		.4byte	0xea2
 2004 0e76 2C       		.uleb128 0x2c
 2005 0e77 9F0F0000 		.4byte	0xf9f
 2006 0e7b 20000000 		.4byte	.LBB56
 2007 0e7f 06000000 		.4byte	.LBE56-.LBB56
 2008 0e83 0D       		.byte	0xd
 2009 0e84 8602     		.2byte	0x286
 2010 0e86 2C       		.uleb128 0x2c
 2011 0e87 A80F0000 		.4byte	0xfa8
 2012 0e8b 20000000 		.4byte	.LBB57
 2013 0e8f 06000000 		.4byte	.LBE57-.LBB57
 2014 0e93 0D       		.byte	0xd
 2015 0e94 6502     		.2byte	0x265
 2016 0e96 2A       		.uleb128 0x2a
 2017 0e97 B50F0000 		.4byte	0xfb5
 2018 0e9b 3E000000 		.4byte	.LLST3
 2019 0e9f 00       		.byte	0
 2020 0ea0 00       		.byte	0
 2021 0ea1 00       		.byte	0
 2022 0ea2 2D       		.uleb128 0x2d
 2023 0ea3 840F0000 		.4byte	0xf84
 2024 0ea7 30000000 		.4byte	.LBB59
 2025 0eab 08000000 		.4byte	.LBE59-.LBB59
 2026 0eaf 01       		.byte	0x1
 2027 0eb0 B2       		.byte	0xb2
 2028 0eb1 2C       		.uleb128 0x2c
 2029 0eb2 960F0000 		.4byte	0xf96
 2030 0eb6 30000000 		.4byte	.LBB60
 2031 0eba 08000000 		.4byte	.LBE60-.LBB60
 2032 0ebe 0D       		.byte	0xd
 2033 0ebf 9102     		.2byte	0x291
 2034 0ec1 2C       		.uleb128 0x2c
 2035 0ec2 A80F0000 		.4byte	0xfa8
 2036 0ec6 30000000 		.4byte	.LBB61
 2037 0eca 08000000 		.4byte	.LBE61-.LBB61
 2038 0ece 0D       		.byte	0xd
 2039 0ecf 7802     		.2byte	0x278
 2040 0ed1 2A       		.uleb128 0x2a
 2041 0ed2 B50F0000 		.4byte	0xfb5
 2042 0ed6 53000000 		.4byte	.LLST4
 2043 0eda 00       		.byte	0
 2044 0edb 00       		.byte	0
 2045 0edc 00       		.byte	0
 2046 0edd 00       		.byte	0
 2047 0ede 0C       		.uleb128 0xc
 2048 0edf 04       		.byte	0x4
 2049 0ee0 68070000 		.4byte	0x768
ARM GAS  C:\Users\RAKIBU~1\AppData\Local\Temp\ccuCusfe.s 			page 37


 2050 0ee4 24       		.uleb128 0x24
 2051 0ee5 14000000 		.4byte	.LASF191
 2052 0ee9 01       		.byte	0x1
 2053 0eea 3E       		.byte	0x3e
 2054 0eeb 00000000 		.4byte	.LFB295
 2055 0eef 12000000 		.4byte	.LFE295-.LFB295
 2056 0ef3 01       		.uleb128 0x1
 2057 0ef4 9C       		.byte	0x9c
 2058 0ef5 840F0000 		.4byte	0xf84
 2059 0ef9 26       		.uleb128 0x26
 2060 0efa 29060000 		.4byte	.LASF192
 2061 0efe 01       		.byte	0x1
 2062 0eff 40       		.byte	0x40
 2063 0f00 DE0E0000 		.4byte	0xede
 2064 0f04 67000000 		.4byte	.LLST0
 2065 0f08 27       		.uleb128 0x27
 2066 0f09 DC0F0000 		.4byte	0xfdc
 2067 0f0d 00000000 		.4byte	.LBB47
 2068 0f11 04000000 		.4byte	.LBE47-.LBB47
 2069 0f15 01       		.byte	0x1
 2070 0f16 48       		.byte	0x48
 2071 0f17 2B0F0000 		.4byte	0xf2b
 2072 0f1b 28       		.uleb128 0x28
 2073 0f1c 00000000 		.4byte	.LBB48
 2074 0f20 04000000 		.4byte	.LBE48-.LBB48
 2075 0f24 29       		.uleb128 0x29
 2076 0f25 EC0F0000 		.4byte	0xfec
 2077 0f29 00       		.byte	0
 2078 0f2a 00       		.byte	0
 2079 0f2b 27       		.uleb128 0x27
 2080 0f2c C20F0000 		.4byte	0xfc2
 2081 0f30 06000000 		.4byte	.LBB49
 2082 0f34 04000000 		.4byte	.LBE49-.LBB49
 2083 0f38 01       		.byte	0x1
 2084 0f39 4F       		.byte	0x4f
 2085 0f3a 480F0000 		.4byte	0xf48
 2086 0f3e 2A       		.uleb128 0x2a
 2087 0f3f CF0F0000 		.4byte	0xfcf
 2088 0f43 7A000000 		.4byte	.LLST1
 2089 0f47 00       		.byte	0
 2090 0f48 2D       		.uleb128 0x2d
 2091 0f49 840F0000 		.4byte	0xf84
 2092 0f4d 0A000000 		.4byte	.LBB51
 2093 0f51 06000000 		.4byte	.LBE51-.LBB51
 2094 0f55 01       		.byte	0x1
 2095 0f56 52       		.byte	0x52
 2096 0f57 2C       		.uleb128 0x2c
 2097 0f58 960F0000 		.4byte	0xf96
 2098 0f5c 0A000000 		.4byte	.LBB52
 2099 0f60 06000000 		.4byte	.LBE52-.LBB52
 2100 0f64 0D       		.byte	0xd
 2101 0f65 9102     		.2byte	0x291
 2102 0f67 2C       		.uleb128 0x2c
 2103 0f68 A80F0000 		.4byte	0xfa8
 2104 0f6c 0A000000 		.4byte	.LBB53
 2105 0f70 06000000 		.4byte	.LBE53-.LBB53
 2106 0f74 0D       		.byte	0xd
ARM GAS  C:\Users\RAKIBU~1\AppData\Local\Temp\ccuCusfe.s 			page 38


 2107 0f75 7802     		.2byte	0x278
 2108 0f77 2A       		.uleb128 0x2a
 2109 0f78 B50F0000 		.4byte	0xfb5
 2110 0f7c 8D000000 		.4byte	.LLST2
 2111 0f80 00       		.byte	0
 2112 0f81 00       		.byte	0
 2113 0f82 00       		.byte	0
 2114 0f83 00       		.byte	0
 2115 0f84 2E       		.uleb128 0x2e
 2116 0f85 A1070000 		.4byte	.LASF193
 2117 0f89 0D       		.byte	0xd
 2118 0f8a 8F02     		.2byte	0x28f
 2119 0f8c 03       		.byte	0x3
 2120 0f8d 2E       		.uleb128 0x2e
 2121 0f8e 42080000 		.4byte	.LASF194
 2122 0f92 0D       		.byte	0xd
 2123 0f93 8402     		.2byte	0x284
 2124 0f95 03       		.byte	0x3
 2125 0f96 2E       		.uleb128 0x2e
 2126 0f97 88010000 		.4byte	.LASF195
 2127 0f9b 0D       		.byte	0xd
 2128 0f9c 7502     		.2byte	0x275
 2129 0f9e 03       		.byte	0x3
 2130 0f9f 2E       		.uleb128 0x2e
 2131 0fa0 A4000000 		.4byte	.LASF196
 2132 0fa4 0D       		.byte	0xd
 2133 0fa5 5D02     		.2byte	0x25d
 2134 0fa7 03       		.byte	0x3
 2135 0fa8 2F       		.uleb128 0x2f
 2136 0fa9 E2070000 		.4byte	.LASF197
 2137 0fad 02       		.byte	0x2
 2138 0fae EB01     		.2byte	0x1eb
 2139 0fb0 03       		.byte	0x3
 2140 0fb1 C20F0000 		.4byte	0xfc2
 2141 0fb5 30       		.uleb128 0x30
 2142 0fb6 79010000 		.4byte	.LASF199
 2143 0fba 02       		.byte	0x2
 2144 0fbb EB01     		.2byte	0x1eb
 2145 0fbd E4000000 		.4byte	0xe4
 2146 0fc1 00       		.byte	0
 2147 0fc2 2F       		.uleb128 0x2f
 2148 0fc3 ED020000 		.4byte	.LASF198
 2149 0fc7 02       		.byte	0x2
 2150 0fc8 1501     		.2byte	0x115
 2151 0fca 03       		.byte	0x3
 2152 0fcb DC0F0000 		.4byte	0xfdc
 2153 0fcf 30       		.uleb128 0x30
 2154 0fd0 FA070000 		.4byte	.LASF200
 2155 0fd4 02       		.byte	0x2
 2156 0fd5 1501     		.2byte	0x115
 2157 0fd7 E4000000 		.4byte	0xe4
 2158 0fdb 00       		.byte	0
 2159 0fdc 31       		.uleb128 0x31
 2160 0fdd 55080000 		.4byte	.LASF204
 2161 0fe1 02       		.byte	0x2
 2162 0fe2 F7       		.byte	0xf7
 2163 0fe3 E4000000 		.4byte	0xe4
ARM GAS  C:\Users\RAKIBU~1\AppData\Local\Temp\ccuCusfe.s 			page 39


 2164 0fe7 03       		.byte	0x3
 2165 0fe8 F80F0000 		.4byte	0xff8
 2166 0fec 32       		.uleb128 0x32
 2167 0fed 45090000 		.4byte	.LASF205
 2168 0ff1 02       		.byte	0x2
 2169 0ff2 F9       		.byte	0xf9
 2170 0ff3 E4000000 		.4byte	0xe4
 2171 0ff7 00       		.byte	0
 2172 0ff8 33       		.uleb128 0x33
 2173 0ff9 FC010000 		.4byte	.LASF206
 2174 0ffd FC010000 		.4byte	.LASF206
 2175 1001 08       		.byte	0x8
 2176 1002 D701     		.2byte	0x1d7
 2177 1004 00       		.byte	0
 2178              		.section	.debug_abbrev,"",%progbits
 2179              	.Ldebug_abbrev0:
 2180 0000 01       		.uleb128 0x1
 2181 0001 11       		.uleb128 0x11
 2182 0002 01       		.byte	0x1
 2183 0003 25       		.uleb128 0x25
 2184 0004 0E       		.uleb128 0xe
 2185 0005 13       		.uleb128 0x13
 2186 0006 0B       		.uleb128 0xb
 2187 0007 03       		.uleb128 0x3
 2188 0008 0E       		.uleb128 0xe
 2189 0009 1B       		.uleb128 0x1b
 2190 000a 0E       		.uleb128 0xe
 2191 000b 11       		.uleb128 0x11
 2192 000c 01       		.uleb128 0x1
 2193 000d 12       		.uleb128 0x12
 2194 000e 06       		.uleb128 0x6
 2195 000f 10       		.uleb128 0x10
 2196 0010 17       		.uleb128 0x17
 2197 0011 00       		.byte	0
 2198 0012 00       		.byte	0
 2199 0013 02       		.uleb128 0x2
 2200 0014 24       		.uleb128 0x24
 2201 0015 00       		.byte	0
 2202 0016 0B       		.uleb128 0xb
 2203 0017 0B       		.uleb128 0xb
 2204 0018 3E       		.uleb128 0x3e
 2205 0019 0B       		.uleb128 0xb
 2206 001a 03       		.uleb128 0x3
 2207 001b 08       		.uleb128 0x8
 2208 001c 00       		.byte	0
 2209 001d 00       		.byte	0
 2210 001e 03       		.uleb128 0x3
 2211 001f 16       		.uleb128 0x16
 2212 0020 00       		.byte	0
 2213 0021 03       		.uleb128 0x3
 2214 0022 0E       		.uleb128 0xe
 2215 0023 3A       		.uleb128 0x3a
 2216 0024 0B       		.uleb128 0xb
 2217 0025 3B       		.uleb128 0x3b
 2218 0026 0B       		.uleb128 0xb
 2219 0027 49       		.uleb128 0x49
 2220 0028 13       		.uleb128 0x13
ARM GAS  C:\Users\RAKIBU~1\AppData\Local\Temp\ccuCusfe.s 			page 40


 2221 0029 00       		.byte	0
 2222 002a 00       		.byte	0
 2223 002b 04       		.uleb128 0x4
 2224 002c 24       		.uleb128 0x24
 2225 002d 00       		.byte	0
 2226 002e 0B       		.uleb128 0xb
 2227 002f 0B       		.uleb128 0xb
 2228 0030 3E       		.uleb128 0x3e
 2229 0031 0B       		.uleb128 0xb
 2230 0032 03       		.uleb128 0x3
 2231 0033 0E       		.uleb128 0xe
 2232 0034 00       		.byte	0
 2233 0035 00       		.byte	0
 2234 0036 05       		.uleb128 0x5
 2235 0037 35       		.uleb128 0x35
 2236 0038 00       		.byte	0
 2237 0039 49       		.uleb128 0x49
 2238 003a 13       		.uleb128 0x13
 2239 003b 00       		.byte	0
 2240 003c 00       		.byte	0
 2241 003d 06       		.uleb128 0x6
 2242 003e 26       		.uleb128 0x26
 2243 003f 00       		.byte	0
 2244 0040 49       		.uleb128 0x49
 2245 0041 13       		.uleb128 0x13
 2246 0042 00       		.byte	0
 2247 0043 00       		.byte	0
 2248 0044 07       		.uleb128 0x7
 2249 0045 13       		.uleb128 0x13
 2250 0046 01       		.byte	0x1
 2251 0047 03       		.uleb128 0x3
 2252 0048 0E       		.uleb128 0xe
 2253 0049 0B       		.uleb128 0xb
 2254 004a 0B       		.uleb128 0xb
 2255 004b 3A       		.uleb128 0x3a
 2256 004c 0B       		.uleb128 0xb
 2257 004d 3B       		.uleb128 0x3b
 2258 004e 0B       		.uleb128 0xb
 2259 004f 01       		.uleb128 0x1
 2260 0050 13       		.uleb128 0x13
 2261 0051 00       		.byte	0
 2262 0052 00       		.byte	0
 2263 0053 08       		.uleb128 0x8
 2264 0054 0D       		.uleb128 0xd
 2265 0055 00       		.byte	0
 2266 0056 03       		.uleb128 0x3
 2267 0057 0E       		.uleb128 0xe
 2268 0058 3A       		.uleb128 0x3a
 2269 0059 0B       		.uleb128 0xb
 2270 005a 3B       		.uleb128 0x3b
 2271 005b 0B       		.uleb128 0xb
 2272 005c 49       		.uleb128 0x49
 2273 005d 13       		.uleb128 0x13
 2274 005e 38       		.uleb128 0x38
 2275 005f 0B       		.uleb128 0xb
 2276 0060 00       		.byte	0
 2277 0061 00       		.byte	0
ARM GAS  C:\Users\RAKIBU~1\AppData\Local\Temp\ccuCusfe.s 			page 41


 2278 0062 09       		.uleb128 0x9
 2279 0063 0D       		.uleb128 0xd
 2280 0064 00       		.byte	0
 2281 0065 03       		.uleb128 0x3
 2282 0066 08       		.uleb128 0x8
 2283 0067 3A       		.uleb128 0x3a
 2284 0068 0B       		.uleb128 0xb
 2285 0069 3B       		.uleb128 0x3b
 2286 006a 0B       		.uleb128 0xb
 2287 006b 49       		.uleb128 0x49
 2288 006c 13       		.uleb128 0x13
 2289 006d 38       		.uleb128 0x38
 2290 006e 0B       		.uleb128 0xb
 2291 006f 00       		.byte	0
 2292 0070 00       		.byte	0
 2293 0071 0A       		.uleb128 0xa
 2294 0072 0D       		.uleb128 0xd
 2295 0073 00       		.byte	0
 2296 0074 03       		.uleb128 0x3
 2297 0075 08       		.uleb128 0x8
 2298 0076 3A       		.uleb128 0x3a
 2299 0077 0B       		.uleb128 0xb
 2300 0078 3B       		.uleb128 0x3b
 2301 0079 05       		.uleb128 0x5
 2302 007a 49       		.uleb128 0x49
 2303 007b 13       		.uleb128 0x13
 2304 007c 38       		.uleb128 0x38
 2305 007d 0B       		.uleb128 0xb
 2306 007e 00       		.byte	0
 2307 007f 00       		.byte	0
 2308 0080 0B       		.uleb128 0xb
 2309 0081 0D       		.uleb128 0xd
 2310 0082 00       		.byte	0
 2311 0083 03       		.uleb128 0x3
 2312 0084 0E       		.uleb128 0xe
 2313 0085 3A       		.uleb128 0x3a
 2314 0086 0B       		.uleb128 0xb
 2315 0087 3B       		.uleb128 0x3b
 2316 0088 05       		.uleb128 0x5
 2317 0089 49       		.uleb128 0x49
 2318 008a 13       		.uleb128 0x13
 2319 008b 38       		.uleb128 0x38
 2320 008c 0B       		.uleb128 0xb
 2321 008d 00       		.byte	0
 2322 008e 00       		.byte	0
 2323 008f 0C       		.uleb128 0xc
 2324 0090 0F       		.uleb128 0xf
 2325 0091 00       		.byte	0
 2326 0092 0B       		.uleb128 0xb
 2327 0093 0B       		.uleb128 0xb
 2328 0094 49       		.uleb128 0x49
 2329 0095 13       		.uleb128 0x13
 2330 0096 00       		.byte	0
 2331 0097 00       		.byte	0
 2332 0098 0D       		.uleb128 0xd
 2333 0099 13       		.uleb128 0x13
 2334 009a 01       		.byte	0x1
ARM GAS  C:\Users\RAKIBU~1\AppData\Local\Temp\ccuCusfe.s 			page 42


 2335 009b 03       		.uleb128 0x3
 2336 009c 0E       		.uleb128 0xe
 2337 009d 0B       		.uleb128 0xb
 2338 009e 0B       		.uleb128 0xb
 2339 009f 3A       		.uleb128 0x3a
 2340 00a0 0B       		.uleb128 0xb
 2341 00a1 3B       		.uleb128 0x3b
 2342 00a2 05       		.uleb128 0x5
 2343 00a3 01       		.uleb128 0x1
 2344 00a4 13       		.uleb128 0x13
 2345 00a5 00       		.byte	0
 2346 00a6 00       		.byte	0
 2347 00a7 0E       		.uleb128 0xe
 2348 00a8 15       		.uleb128 0x15
 2349 00a9 01       		.byte	0x1
 2350 00aa 27       		.uleb128 0x27
 2351 00ab 19       		.uleb128 0x19
 2352 00ac 01       		.uleb128 0x1
 2353 00ad 13       		.uleb128 0x13
 2354 00ae 00       		.byte	0
 2355 00af 00       		.byte	0
 2356 00b0 0F       		.uleb128 0xf
 2357 00b1 05       		.uleb128 0x5
 2358 00b2 00       		.byte	0
 2359 00b3 49       		.uleb128 0x49
 2360 00b4 13       		.uleb128 0x13
 2361 00b5 00       		.byte	0
 2362 00b6 00       		.byte	0
 2363 00b7 10       		.uleb128 0x10
 2364 00b8 0F       		.uleb128 0xf
 2365 00b9 00       		.byte	0
 2366 00ba 0B       		.uleb128 0xb
 2367 00bb 0B       		.uleb128 0xb
 2368 00bc 00       		.byte	0
 2369 00bd 00       		.byte	0
 2370 00be 11       		.uleb128 0x11
 2371 00bf 13       		.uleb128 0x13
 2372 00c0 01       		.byte	0x1
 2373 00c1 03       		.uleb128 0x3
 2374 00c2 0E       		.uleb128 0xe
 2375 00c3 0B       		.uleb128 0xb
 2376 00c4 05       		.uleb128 0x5
 2377 00c5 3A       		.uleb128 0x3a
 2378 00c6 0B       		.uleb128 0xb
 2379 00c7 3B       		.uleb128 0x3b
 2380 00c8 05       		.uleb128 0x5
 2381 00c9 01       		.uleb128 0x1
 2382 00ca 13       		.uleb128 0x13
 2383 00cb 00       		.byte	0
 2384 00cc 00       		.byte	0
 2385 00cd 12       		.uleb128 0x12
 2386 00ce 0D       		.uleb128 0xd
 2387 00cf 00       		.byte	0
 2388 00d0 03       		.uleb128 0x3
 2389 00d1 0E       		.uleb128 0xe
 2390 00d2 3A       		.uleb128 0x3a
 2391 00d3 0B       		.uleb128 0xb
ARM GAS  C:\Users\RAKIBU~1\AppData\Local\Temp\ccuCusfe.s 			page 43


 2392 00d4 3B       		.uleb128 0x3b
 2393 00d5 05       		.uleb128 0x5
 2394 00d6 49       		.uleb128 0x49
 2395 00d7 13       		.uleb128 0x13
 2396 00d8 38       		.uleb128 0x38
 2397 00d9 05       		.uleb128 0x5
 2398 00da 00       		.byte	0
 2399 00db 00       		.byte	0
 2400 00dc 13       		.uleb128 0x13
 2401 00dd 0D       		.uleb128 0xd
 2402 00de 00       		.byte	0
 2403 00df 03       		.uleb128 0x3
 2404 00e0 08       		.uleb128 0x8
 2405 00e1 3A       		.uleb128 0x3a
 2406 00e2 0B       		.uleb128 0xb
 2407 00e3 3B       		.uleb128 0x3b
 2408 00e4 05       		.uleb128 0x5
 2409 00e5 49       		.uleb128 0x49
 2410 00e6 13       		.uleb128 0x13
 2411 00e7 38       		.uleb128 0x38
 2412 00e8 05       		.uleb128 0x5
 2413 00e9 00       		.byte	0
 2414 00ea 00       		.byte	0
 2415 00eb 14       		.uleb128 0x14
 2416 00ec 13       		.uleb128 0x13
 2417 00ed 01       		.byte	0x1
 2418 00ee 0B       		.uleb128 0xb
 2419 00ef 0B       		.uleb128 0xb
 2420 00f0 3A       		.uleb128 0x3a
 2421 00f1 0B       		.uleb128 0xb
 2422 00f2 3B       		.uleb128 0x3b
 2423 00f3 05       		.uleb128 0x5
 2424 00f4 01       		.uleb128 0x1
 2425 00f5 13       		.uleb128 0x13
 2426 00f6 00       		.byte	0
 2427 00f7 00       		.byte	0
 2428 00f8 15       		.uleb128 0x15
 2429 00f9 01       		.uleb128 0x1
 2430 00fa 01       		.byte	0x1
 2431 00fb 49       		.uleb128 0x49
 2432 00fc 13       		.uleb128 0x13
 2433 00fd 01       		.uleb128 0x1
 2434 00fe 13       		.uleb128 0x13
 2435 00ff 00       		.byte	0
 2436 0100 00       		.byte	0
 2437 0101 16       		.uleb128 0x16
 2438 0102 21       		.uleb128 0x21
 2439 0103 00       		.byte	0
 2440 0104 49       		.uleb128 0x49
 2441 0105 13       		.uleb128 0x13
 2442 0106 2F       		.uleb128 0x2f
 2443 0107 0B       		.uleb128 0xb
 2444 0108 00       		.byte	0
 2445 0109 00       		.byte	0
 2446 010a 17       		.uleb128 0x17
 2447 010b 16       		.uleb128 0x16
 2448 010c 00       		.byte	0
ARM GAS  C:\Users\RAKIBU~1\AppData\Local\Temp\ccuCusfe.s 			page 44


 2449 010d 03       		.uleb128 0x3
 2450 010e 0E       		.uleb128 0xe
 2451 010f 3A       		.uleb128 0x3a
 2452 0110 0B       		.uleb128 0xb
 2453 0111 3B       		.uleb128 0x3b
 2454 0112 05       		.uleb128 0x5
 2455 0113 49       		.uleb128 0x49
 2456 0114 13       		.uleb128 0x13
 2457 0115 00       		.byte	0
 2458 0116 00       		.byte	0
 2459 0117 18       		.uleb128 0x18
 2460 0118 34       		.uleb128 0x34
 2461 0119 00       		.byte	0
 2462 011a 03       		.uleb128 0x3
 2463 011b 0E       		.uleb128 0xe
 2464 011c 3A       		.uleb128 0x3a
 2465 011d 0B       		.uleb128 0xb
 2466 011e 3B       		.uleb128 0x3b
 2467 011f 05       		.uleb128 0x5
 2468 0120 49       		.uleb128 0x49
 2469 0121 13       		.uleb128 0x13
 2470 0122 3F       		.uleb128 0x3f
 2471 0123 19       		.uleb128 0x19
 2472 0124 3C       		.uleb128 0x3c
 2473 0125 19       		.uleb128 0x19
 2474 0126 00       		.byte	0
 2475 0127 00       		.byte	0
 2476 0128 19       		.uleb128 0x19
 2477 0129 34       		.uleb128 0x34
 2478 012a 00       		.byte	0
 2479 012b 03       		.uleb128 0x3
 2480 012c 0E       		.uleb128 0xe
 2481 012d 3A       		.uleb128 0x3a
 2482 012e 0B       		.uleb128 0xb
 2483 012f 3B       		.uleb128 0x3b
 2484 0130 0B       		.uleb128 0xb
 2485 0131 49       		.uleb128 0x49
 2486 0132 13       		.uleb128 0x13
 2487 0133 3F       		.uleb128 0x3f
 2488 0134 19       		.uleb128 0x19
 2489 0135 3C       		.uleb128 0x3c
 2490 0136 19       		.uleb128 0x19
 2491 0137 00       		.byte	0
 2492 0138 00       		.byte	0
 2493 0139 1A       		.uleb128 0x1a
 2494 013a 13       		.uleb128 0x13
 2495 013b 01       		.byte	0x1
 2496 013c 0B       		.uleb128 0xb
 2497 013d 0B       		.uleb128 0xb
 2498 013e 3A       		.uleb128 0x3a
 2499 013f 0B       		.uleb128 0xb
 2500 0140 3B       		.uleb128 0x3b
 2501 0141 0B       		.uleb128 0xb
 2502 0142 01       		.uleb128 0x1
 2503 0143 13       		.uleb128 0x13
 2504 0144 00       		.byte	0
 2505 0145 00       		.byte	0
ARM GAS  C:\Users\RAKIBU~1\AppData\Local\Temp\ccuCusfe.s 			page 45


 2506 0146 1B       		.uleb128 0x1b
 2507 0147 17       		.uleb128 0x17
 2508 0148 01       		.byte	0x1
 2509 0149 0B       		.uleb128 0xb
 2510 014a 0B       		.uleb128 0xb
 2511 014b 3A       		.uleb128 0x3a
 2512 014c 0B       		.uleb128 0xb
 2513 014d 3B       		.uleb128 0x3b
 2514 014e 0B       		.uleb128 0xb
 2515 014f 01       		.uleb128 0x1
 2516 0150 13       		.uleb128 0x13
 2517 0151 00       		.byte	0
 2518 0152 00       		.byte	0
 2519 0153 1C       		.uleb128 0x1c
 2520 0154 0D       		.uleb128 0xd
 2521 0155 00       		.byte	0
 2522 0156 03       		.uleb128 0x3
 2523 0157 08       		.uleb128 0x8
 2524 0158 3A       		.uleb128 0x3a
 2525 0159 0B       		.uleb128 0xb
 2526 015a 3B       		.uleb128 0x3b
 2527 015b 0B       		.uleb128 0xb
 2528 015c 49       		.uleb128 0x49
 2529 015d 13       		.uleb128 0x13
 2530 015e 00       		.byte	0
 2531 015f 00       		.byte	0
 2532 0160 1D       		.uleb128 0x1d
 2533 0161 0D       		.uleb128 0xd
 2534 0162 00       		.byte	0
 2535 0163 03       		.uleb128 0x3
 2536 0164 0E       		.uleb128 0xe
 2537 0165 3A       		.uleb128 0x3a
 2538 0166 0B       		.uleb128 0xb
 2539 0167 3B       		.uleb128 0x3b
 2540 0168 0B       		.uleb128 0xb
 2541 0169 49       		.uleb128 0x49
 2542 016a 13       		.uleb128 0x13
 2543 016b 00       		.byte	0
 2544 016c 00       		.byte	0
 2545 016d 1E       		.uleb128 0x1e
 2546 016e 0D       		.uleb128 0xd
 2547 016f 00       		.byte	0
 2548 0170 03       		.uleb128 0x3
 2549 0171 0E       		.uleb128 0xe
 2550 0172 3A       		.uleb128 0x3a
 2551 0173 0B       		.uleb128 0xb
 2552 0174 3B       		.uleb128 0x3b
 2553 0175 0B       		.uleb128 0xb
 2554 0176 49       		.uleb128 0x49
 2555 0177 13       		.uleb128 0x13
 2556 0178 0B       		.uleb128 0xb
 2557 0179 0B       		.uleb128 0xb
 2558 017a 0D       		.uleb128 0xd
 2559 017b 0B       		.uleb128 0xb
 2560 017c 0C       		.uleb128 0xc
 2561 017d 0B       		.uleb128 0xb
 2562 017e 38       		.uleb128 0x38
ARM GAS  C:\Users\RAKIBU~1\AppData\Local\Temp\ccuCusfe.s 			page 46


 2563 017f 0B       		.uleb128 0xb
 2564 0180 00       		.byte	0
 2565 0181 00       		.byte	0
 2566 0182 1F       		.uleb128 0x1f
 2567 0183 13       		.uleb128 0x13
 2568 0184 01       		.byte	0x1
 2569 0185 0B       		.uleb128 0xb
 2570 0186 05       		.uleb128 0x5
 2571 0187 3A       		.uleb128 0x3a
 2572 0188 0B       		.uleb128 0xb
 2573 0189 3B       		.uleb128 0x3b
 2574 018a 0B       		.uleb128 0xb
 2575 018b 01       		.uleb128 0x1
 2576 018c 13       		.uleb128 0x13
 2577 018d 00       		.byte	0
 2578 018e 00       		.byte	0
 2579 018f 20       		.uleb128 0x20
 2580 0190 0D       		.uleb128 0xd
 2581 0191 00       		.byte	0
 2582 0192 03       		.uleb128 0x3
 2583 0193 0E       		.uleb128 0xe
 2584 0194 3A       		.uleb128 0x3a
 2585 0195 0B       		.uleb128 0xb
 2586 0196 3B       		.uleb128 0x3b
 2587 0197 05       		.uleb128 0x5
 2588 0198 49       		.uleb128 0x49
 2589 0199 13       		.uleb128 0x13
 2590 019a 00       		.byte	0
 2591 019b 00       		.byte	0
 2592 019c 21       		.uleb128 0x21
 2593 019d 34       		.uleb128 0x34
 2594 019e 00       		.byte	0
 2595 019f 03       		.uleb128 0x3
 2596 01a0 08       		.uleb128 0x8
 2597 01a1 3A       		.uleb128 0x3a
 2598 01a2 0B       		.uleb128 0xb
 2599 01a3 3B       		.uleb128 0x3b
 2600 01a4 05       		.uleb128 0x5
 2601 01a5 49       		.uleb128 0x49
 2602 01a6 13       		.uleb128 0x13
 2603 01a7 3F       		.uleb128 0x3f
 2604 01a8 19       		.uleb128 0x19
 2605 01a9 3C       		.uleb128 0x3c
 2606 01aa 19       		.uleb128 0x19
 2607 01ab 00       		.byte	0
 2608 01ac 00       		.byte	0
 2609 01ad 22       		.uleb128 0x22
 2610 01ae 21       		.uleb128 0x21
 2611 01af 00       		.byte	0
 2612 01b0 00       		.byte	0
 2613 01b1 00       		.byte	0
 2614 01b2 23       		.uleb128 0x23
 2615 01b3 15       		.uleb128 0x15
 2616 01b4 01       		.byte	0x1
 2617 01b5 27       		.uleb128 0x27
 2618 01b6 19       		.uleb128 0x19
 2619 01b7 49       		.uleb128 0x49
ARM GAS  C:\Users\RAKIBU~1\AppData\Local\Temp\ccuCusfe.s 			page 47


 2620 01b8 13       		.uleb128 0x13
 2621 01b9 01       		.uleb128 0x1
 2622 01ba 13       		.uleb128 0x13
 2623 01bb 00       		.byte	0
 2624 01bc 00       		.byte	0
 2625 01bd 24       		.uleb128 0x24
 2626 01be 2E       		.uleb128 0x2e
 2627 01bf 01       		.byte	0x1
 2628 01c0 3F       		.uleb128 0x3f
 2629 01c1 19       		.uleb128 0x19
 2630 01c2 03       		.uleb128 0x3
 2631 01c3 0E       		.uleb128 0xe
 2632 01c4 3A       		.uleb128 0x3a
 2633 01c5 0B       		.uleb128 0xb
 2634 01c6 3B       		.uleb128 0x3b
 2635 01c7 0B       		.uleb128 0xb
 2636 01c8 27       		.uleb128 0x27
 2637 01c9 19       		.uleb128 0x19
 2638 01ca 11       		.uleb128 0x11
 2639 01cb 01       		.uleb128 0x1
 2640 01cc 12       		.uleb128 0x12
 2641 01cd 06       		.uleb128 0x6
 2642 01ce 40       		.uleb128 0x40
 2643 01cf 18       		.uleb128 0x18
 2644 01d0 9742     		.uleb128 0x2117
 2645 01d2 19       		.uleb128 0x19
 2646 01d3 01       		.uleb128 0x1
 2647 01d4 13       		.uleb128 0x13
 2648 01d5 00       		.byte	0
 2649 01d6 00       		.byte	0
 2650 01d7 25       		.uleb128 0x25
 2651 01d8 0B       		.uleb128 0xb
 2652 01d9 01       		.byte	0x1
 2653 01da 55       		.uleb128 0x55
 2654 01db 17       		.uleb128 0x17
 2655 01dc 01       		.uleb128 0x1
 2656 01dd 13       		.uleb128 0x13
 2657 01de 00       		.byte	0
 2658 01df 00       		.byte	0
 2659 01e0 26       		.uleb128 0x26
 2660 01e1 34       		.uleb128 0x34
 2661 01e2 00       		.byte	0
 2662 01e3 03       		.uleb128 0x3
 2663 01e4 0E       		.uleb128 0xe
 2664 01e5 3A       		.uleb128 0x3a
 2665 01e6 0B       		.uleb128 0xb
 2666 01e7 3B       		.uleb128 0x3b
 2667 01e8 0B       		.uleb128 0xb
 2668 01e9 49       		.uleb128 0x49
 2669 01ea 13       		.uleb128 0x13
 2670 01eb 02       		.uleb128 0x2
 2671 01ec 17       		.uleb128 0x17
 2672 01ed 00       		.byte	0
 2673 01ee 00       		.byte	0
 2674 01ef 27       		.uleb128 0x27
 2675 01f0 1D       		.uleb128 0x1d
 2676 01f1 01       		.byte	0x1
ARM GAS  C:\Users\RAKIBU~1\AppData\Local\Temp\ccuCusfe.s 			page 48


 2677 01f2 31       		.uleb128 0x31
 2678 01f3 13       		.uleb128 0x13
 2679 01f4 11       		.uleb128 0x11
 2680 01f5 01       		.uleb128 0x1
 2681 01f6 12       		.uleb128 0x12
 2682 01f7 06       		.uleb128 0x6
 2683 01f8 58       		.uleb128 0x58
 2684 01f9 0B       		.uleb128 0xb
 2685 01fa 59       		.uleb128 0x59
 2686 01fb 0B       		.uleb128 0xb
 2687 01fc 01       		.uleb128 0x1
 2688 01fd 13       		.uleb128 0x13
 2689 01fe 00       		.byte	0
 2690 01ff 00       		.byte	0
 2691 0200 28       		.uleb128 0x28
 2692 0201 0B       		.uleb128 0xb
 2693 0202 01       		.byte	0x1
 2694 0203 11       		.uleb128 0x11
 2695 0204 01       		.uleb128 0x1
 2696 0205 12       		.uleb128 0x12
 2697 0206 06       		.uleb128 0x6
 2698 0207 00       		.byte	0
 2699 0208 00       		.byte	0
 2700 0209 29       		.uleb128 0x29
 2701 020a 34       		.uleb128 0x34
 2702 020b 00       		.byte	0
 2703 020c 31       		.uleb128 0x31
 2704 020d 13       		.uleb128 0x13
 2705 020e 00       		.byte	0
 2706 020f 00       		.byte	0
 2707 0210 2A       		.uleb128 0x2a
 2708 0211 05       		.uleb128 0x5
 2709 0212 00       		.byte	0
 2710 0213 31       		.uleb128 0x31
 2711 0214 13       		.uleb128 0x13
 2712 0215 02       		.uleb128 0x2
 2713 0216 17       		.uleb128 0x17
 2714 0217 00       		.byte	0
 2715 0218 00       		.byte	0
 2716 0219 2B       		.uleb128 0x2b
 2717 021a 898201   		.uleb128 0x4109
 2718 021d 00       		.byte	0
 2719 021e 11       		.uleb128 0x11
 2720 021f 01       		.uleb128 0x1
 2721 0220 31       		.uleb128 0x31
 2722 0221 13       		.uleb128 0x13
 2723 0222 00       		.byte	0
 2724 0223 00       		.byte	0
 2725 0224 2C       		.uleb128 0x2c
 2726 0225 1D       		.uleb128 0x1d
 2727 0226 01       		.byte	0x1
 2728 0227 31       		.uleb128 0x31
 2729 0228 13       		.uleb128 0x13
 2730 0229 11       		.uleb128 0x11
 2731 022a 01       		.uleb128 0x1
 2732 022b 12       		.uleb128 0x12
 2733 022c 06       		.uleb128 0x6
ARM GAS  C:\Users\RAKIBU~1\AppData\Local\Temp\ccuCusfe.s 			page 49


 2734 022d 58       		.uleb128 0x58
 2735 022e 0B       		.uleb128 0xb
 2736 022f 59       		.uleb128 0x59
 2737 0230 05       		.uleb128 0x5
 2738 0231 00       		.byte	0
 2739 0232 00       		.byte	0
 2740 0233 2D       		.uleb128 0x2d
 2741 0234 1D       		.uleb128 0x1d
 2742 0235 01       		.byte	0x1
 2743 0236 31       		.uleb128 0x31
 2744 0237 13       		.uleb128 0x13
 2745 0238 11       		.uleb128 0x11
 2746 0239 01       		.uleb128 0x1
 2747 023a 12       		.uleb128 0x12
 2748 023b 06       		.uleb128 0x6
 2749 023c 58       		.uleb128 0x58
 2750 023d 0B       		.uleb128 0xb
 2751 023e 59       		.uleb128 0x59
 2752 023f 0B       		.uleb128 0xb
 2753 0240 00       		.byte	0
 2754 0241 00       		.byte	0
 2755 0242 2E       		.uleb128 0x2e
 2756 0243 2E       		.uleb128 0x2e
 2757 0244 00       		.byte	0
 2758 0245 03       		.uleb128 0x3
 2759 0246 0E       		.uleb128 0xe
 2760 0247 3A       		.uleb128 0x3a
 2761 0248 0B       		.uleb128 0xb
 2762 0249 3B       		.uleb128 0x3b
 2763 024a 05       		.uleb128 0x5
 2764 024b 27       		.uleb128 0x27
 2765 024c 19       		.uleb128 0x19
 2766 024d 20       		.uleb128 0x20
 2767 024e 0B       		.uleb128 0xb
 2768 024f 00       		.byte	0
 2769 0250 00       		.byte	0
 2770 0251 2F       		.uleb128 0x2f
 2771 0252 2E       		.uleb128 0x2e
 2772 0253 01       		.byte	0x1
 2773 0254 03       		.uleb128 0x3
 2774 0255 0E       		.uleb128 0xe
 2775 0256 3A       		.uleb128 0x3a
 2776 0257 0B       		.uleb128 0xb
 2777 0258 3B       		.uleb128 0x3b
 2778 0259 05       		.uleb128 0x5
 2779 025a 27       		.uleb128 0x27
 2780 025b 19       		.uleb128 0x19
 2781 025c 20       		.uleb128 0x20
 2782 025d 0B       		.uleb128 0xb
 2783 025e 01       		.uleb128 0x1
 2784 025f 13       		.uleb128 0x13
 2785 0260 00       		.byte	0
 2786 0261 00       		.byte	0
 2787 0262 30       		.uleb128 0x30
 2788 0263 05       		.uleb128 0x5
 2789 0264 00       		.byte	0
 2790 0265 03       		.uleb128 0x3
ARM GAS  C:\Users\RAKIBU~1\AppData\Local\Temp\ccuCusfe.s 			page 50


 2791 0266 0E       		.uleb128 0xe
 2792 0267 3A       		.uleb128 0x3a
 2793 0268 0B       		.uleb128 0xb
 2794 0269 3B       		.uleb128 0x3b
 2795 026a 05       		.uleb128 0x5
 2796 026b 49       		.uleb128 0x49
 2797 026c 13       		.uleb128 0x13
 2798 026d 00       		.byte	0
 2799 026e 00       		.byte	0
 2800 026f 31       		.uleb128 0x31
 2801 0270 2E       		.uleb128 0x2e
 2802 0271 01       		.byte	0x1
 2803 0272 03       		.uleb128 0x3
 2804 0273 0E       		.uleb128 0xe
 2805 0274 3A       		.uleb128 0x3a
 2806 0275 0B       		.uleb128 0xb
 2807 0276 3B       		.uleb128 0x3b
 2808 0277 0B       		.uleb128 0xb
 2809 0278 27       		.uleb128 0x27
 2810 0279 19       		.uleb128 0x19
 2811 027a 49       		.uleb128 0x49
 2812 027b 13       		.uleb128 0x13
 2813 027c 20       		.uleb128 0x20
 2814 027d 0B       		.uleb128 0xb
 2815 027e 01       		.uleb128 0x1
 2816 027f 13       		.uleb128 0x13
 2817 0280 00       		.byte	0
 2818 0281 00       		.byte	0
 2819 0282 32       		.uleb128 0x32
 2820 0283 34       		.uleb128 0x34
 2821 0284 00       		.byte	0
 2822 0285 03       		.uleb128 0x3
 2823 0286 0E       		.uleb128 0xe
 2824 0287 3A       		.uleb128 0x3a
 2825 0288 0B       		.uleb128 0xb
 2826 0289 3B       		.uleb128 0x3b
 2827 028a 0B       		.uleb128 0xb
 2828 028b 49       		.uleb128 0x49
 2829 028c 13       		.uleb128 0x13
 2830 028d 00       		.byte	0
 2831 028e 00       		.byte	0
 2832 028f 33       		.uleb128 0x33
 2833 0290 2E       		.uleb128 0x2e
 2834 0291 00       		.byte	0
 2835 0292 3F       		.uleb128 0x3f
 2836 0293 19       		.uleb128 0x19
 2837 0294 3C       		.uleb128 0x3c
 2838 0295 19       		.uleb128 0x19
 2839 0296 6E       		.uleb128 0x6e
 2840 0297 0E       		.uleb128 0xe
 2841 0298 03       		.uleb128 0x3
 2842 0299 0E       		.uleb128 0xe
 2843 029a 3A       		.uleb128 0x3a
 2844 029b 0B       		.uleb128 0xb
 2845 029c 3B       		.uleb128 0x3b
 2846 029d 05       		.uleb128 0x5
 2847 029e 00       		.byte	0
ARM GAS  C:\Users\RAKIBU~1\AppData\Local\Temp\ccuCusfe.s 			page 51


 2848 029f 00       		.byte	0
 2849 02a0 00       		.byte	0
 2850              		.section	.debug_loc,"",%progbits
 2851              	.Ldebug_loc0:
 2852              	.LLST5:
 2853 0000 3E000000 		.4byte	.LVL9-.Ltext0
 2854 0004 42000000 		.4byte	.LVL10-.Ltext0
 2855 0008 0100     		.2byte	0x1
 2856 000a 54       		.byte	0x54
 2857 000b 42000000 		.4byte	.LVL10-.Ltext0
 2858 000f 51000000 		.4byte	.LVL13-1-.Ltext0
 2859 0013 0100     		.2byte	0x1
 2860 0015 53       		.byte	0x53
 2861 0016 51000000 		.4byte	.LVL13-1-.Ltext0
 2862 001a 70000000 		.4byte	.LFE296-.Ltext0
 2863 001e 0300     		.2byte	0x3
 2864 0020 74       		.byte	0x74
 2865 0021 60       		.sleb128 -32
 2866 0022 9F       		.byte	0x9f
 2867 0023 00000000 		.4byte	0
 2868 0027 00000000 		.4byte	0
 2869              	.LLST6:
 2870 002b 4A000000 		.4byte	.LVL11-.Ltext0
 2871 002f 4E000000 		.4byte	.LVL12-.Ltext0
 2872 0033 0100     		.2byte	0x1
 2873 0035 53       		.byte	0x53
 2874 0036 00000000 		.4byte	0
 2875 003a 00000000 		.4byte	0
 2876              	.LLST3:
 2877 003e 20000000 		.4byte	.LVL5-.Ltext0
 2878 0042 26000000 		.4byte	.LVL6-.Ltext0
 2879 0046 0300     		.2byte	0x3
 2880 0048 08       		.byte	0x8
 2881 0049 20       		.byte	0x20
 2882 004a 9F       		.byte	0x9f
 2883 004b 00000000 		.4byte	0
 2884 004f 00000000 		.4byte	0
 2885              	.LLST4:
 2886 0053 30000000 		.4byte	.LVL7-.Ltext0
 2887 0057 36000000 		.4byte	.LVL8-.Ltext0
 2888 005b 0200     		.2byte	0x2
 2889 005d 30       		.byte	0x30
 2890 005e 9F       		.byte	0x9f
 2891 005f 00000000 		.4byte	0
 2892 0063 00000000 		.4byte	0
 2893              	.LLST0:
 2894 0067 04000000 		.4byte	.LVL0-.Ltext0
 2895 006b 0C000000 		.4byte	.LVL3-.Ltext0
 2896 006f 0100     		.2byte	0x1
 2897 0071 53       		.byte	0x53
 2898 0072 00000000 		.4byte	0
 2899 0076 00000000 		.4byte	0
 2900              	.LLST1:
 2901 007a 06000000 		.4byte	.LVL1-.Ltext0
 2902 007e 0A000000 		.4byte	.LVL2-.Ltext0
 2903 0082 0100     		.2byte	0x1
 2904 0084 53       		.byte	0x53
ARM GAS  C:\Users\RAKIBU~1\AppData\Local\Temp\ccuCusfe.s 			page 52


 2905 0085 00000000 		.4byte	0
 2906 0089 00000000 		.4byte	0
 2907              	.LLST2:
 2908 008d 0A000000 		.4byte	.LVL2-.Ltext0
 2909 0091 10000000 		.4byte	.LVL4-.Ltext0
 2910 0095 0200     		.2byte	0x2
 2911 0097 30       		.byte	0x30
 2912 0098 9F       		.byte	0x9f
 2913 0099 00000000 		.4byte	0
 2914 009d 00000000 		.4byte	0
 2915              		.section	.debug_aranges,"",%progbits
 2916 0000 1C000000 		.4byte	0x1c
 2917 0004 0200     		.2byte	0x2
 2918 0006 00000000 		.4byte	.Ldebug_info0
 2919 000a 04       		.byte	0x4
 2920 000b 00       		.byte	0
 2921 000c 0000     		.2byte	0
 2922 000e 0000     		.2byte	0
 2923 0010 00000000 		.4byte	.Ltext0
 2924 0014 70000000 		.4byte	.Letext0-.Ltext0
 2925 0018 00000000 		.4byte	0
 2926 001c 00000000 		.4byte	0
 2927              		.section	.debug_ranges,"",%progbits
 2928              	.Ldebug_ranges0:
 2929 0000 3A000000 		.4byte	.LBB63-.Ltext0
 2930 0004 5A000000 		.4byte	.LBE63-.Ltext0
 2931 0008 5C000000 		.4byte	.LBB68-.Ltext0
 2932 000c 70000000 		.4byte	.LBE68-.Ltext0
 2933 0010 00000000 		.4byte	0
 2934 0014 00000000 		.4byte	0
 2935              		.section	.debug_line,"",%progbits
 2936              	.Ldebug_line0:
 2937 0000 1F040000 		.section	.debug_str,"MS",%progbits,1
 2937      0200B303 
 2937      00000201 
 2937      FB0E0D00 
 2937      01010101 
 2938              	.LASF56:
 2939 0000 72656164 		.ascii	"ready_list_t\000"
 2939      795F6C69 
 2939      73745F74 
 2939      00
 2940              	.LASF4:
 2941 000d 73697A65 		.ascii	"size_t\000"
 2941      5F7400
 2942              	.LASF191:
 2943 0014 5356435F 		.ascii	"SVC_Handler\000"
 2943      48616E64 
 2943      6C657200 
 2944              	.LASF62:
 2945 0020 64656C74 		.ascii	"delta\000"
 2945      6100
 2946              	.LASF133:
 2947 0026 7264796D 		.ascii	"rdymsg\000"
 2947      736700
 2948              	.LASF20:
 2949 002d 75696E74 		.ascii	"uint64_t\000"
ARM GAS  C:\Users\RAKIBU~1\AppData\Local\Temp\ccuCusfe.s 			page 53


 2949      36345F74 
 2949      00
 2950              	.LASF78:
 2951 0036 6B65726E 		.ascii	"kernel_stats\000"
 2951      656C5F73 
 2951      74617473 
 2951      00
 2952              	.LASF5:
 2953 0043 5F5F7569 		.ascii	"__uint8_t\000"
 2953      6E74385F 
 2953      7400
 2954              	.LASF55:
 2955 004d 70726576 		.ascii	"prev\000"
 2955      00
 2956              	.LASF104:
 2957 0052 706F7274 		.ascii	"port_intctx\000"
 2957      5F696E74 
 2957      63747800 
 2958              	.LASF54:
 2959 005e 63685F74 		.ascii	"ch_threads_queue\000"
 2959      68726561 
 2959      64735F71 
 2959      75657565 
 2959      00
 2960              	.LASF67:
 2961 006f 73797374 		.ascii	"system_debug_t\000"
 2961      656D5F64 
 2961      65627567 
 2961      5F7400
 2962              	.LASF173:
 2963 007e 70726F76 		.ascii	"provider\000"
 2963      69646572 
 2963      00
 2964              	.LASF113:
 2965 0087 74797065 		.ascii	"type\000"
 2965      00
 2966              	.LASF49:
 2967 008c 74687265 		.ascii	"threads_list_t\000"
 2967      6164735F 
 2967      6C697374 
 2967      5F7400
 2968              	.LASF183:
 2969 009b 73656D5F 		.ascii	"sem_list\000"
 2969      6C697374 
 2969      00
 2970              	.LASF196:
 2971 00a4 706F7274 		.ascii	"port_lock\000"
 2971      5F6C6F63 
 2971      6B00
 2972              	.LASF124:
 2973 00ae 776F7273 		.ascii	"worst\000"
 2973      7400
 2974              	.LASF127:
 2975 00b4 74696D65 		.ascii	"time_measurement_t\000"
 2975      5F6D6561 
 2975      73757265 
 2975      6D656E74 
ARM GAS  C:\Users\RAKIBU~1\AppData\Local\Temp\ccuCusfe.s 			page 54


 2975      5F7400
 2976              	.LASF15:
 2977 00c7 6C6F6E67 		.ascii	"long long unsigned int\000"
 2977      206C6F6E 
 2977      6720756E 
 2977      7369676E 
 2977      65642069 
 2978              	.LASF120:
 2979 00de 63685F74 		.ascii	"ch_trace_buffer_t\000"
 2979      72616365 
 2979      5F627566 
 2979      6665725F 
 2979      7400
 2980              	.LASF134:
 2981 00f0 65786974 		.ascii	"exitcode\000"
 2981      636F6465 
 2981      00
 2982              	.LASF77:
 2983 00f9 6D61696E 		.ascii	"mainthread\000"
 2983      74687265 
 2983      616400
 2984              	.LASF136:
 2985 0104 73656E74 		.ascii	"sentmsg\000"
 2985      6D736700 
 2986              	.LASF64:
 2987 010c 76697274 		.ascii	"virtual_timers_list_t\000"
 2987      75616C5F 
 2987      74696D65 
 2987      72735F6C 
 2987      6973745F 
 2988              	.LASF81:
 2989 0122 43505549 		.ascii	"CPUID\000"
 2989      4400
 2990              	.LASF172:
 2991 0128 616C6967 		.ascii	"align\000"
 2991      6E00
 2992              	.LASF22:
 2993 012e 72747469 		.ascii	"rttime_t\000"
 2993      6D655F74 
 2993      00
 2994              	.LASF185:
 2995 0137 6D62785F 		.ascii	"mbx_list\000"
 2995      6C697374 
 2995      00
 2996              	.LASF40:
 2997 0140 72656673 		.ascii	"refs\000"
 2997      00
 2998              	.LASF93:
 2999 0145 49534152 		.ascii	"ISAR\000"
 2999      00
 3000              	.LASF1:
 3001 014a 6C6F6E67 		.ascii	"long long int\000"
 3001      206C6F6E 
 3001      6720696E 
 3001      7400
 3002              	.LASF3:
 3003 0158 7369676E 		.ascii	"signed char\000"
ARM GAS  C:\Users\RAKIBU~1\AppData\Local\Temp\ccuCusfe.s 			page 55


 3003      65642063 
 3003      68617200 
 3004              	.LASF175:
 3005 0164 63685F64 		.ascii	"ch_dyn_element\000"
 3005      796E5F65 
 3005      6C656D65 
 3005      6E7400
 3006              	.LASF75:
 3007 0173 726C6973 		.ascii	"rlist\000"
 3007      7400
 3008              	.LASF199:
 3009 0179 62617365 		.ascii	"basePri\000"
 3009      50726900 
 3010              	.LASF76:
 3011 0181 76746C69 		.ascii	"vtlist\000"
 3011      737400
 3012              	.LASF195:
 3013 0188 706F7274 		.ascii	"port_unlock\000"
 3013      5F756E6C 
 3013      6F636B00 
 3014              	.LASF38:
 3015 0194 73746174 		.ascii	"state\000"
 3015      6500
 3016              	.LASF11:
 3017 019a 6C6F6E67 		.ascii	"long int\000"
 3017      20696E74 
 3017      00
 3018              	.LASF117:
 3019 01a3 73757370 		.ascii	"suspended\000"
 3019      656E6465 
 3019      6400
 3020              	.LASF24:
 3021 01ad 74737461 		.ascii	"tstate_t\000"
 3021      74655F74 
 3021      00
 3022              	.LASF116:
 3023 01b6 63685F74 		.ascii	"ch_trace_event_t\000"
 3023      72616365 
 3023      5F657665 
 3023      6E745F74 
 3023      00
 3024              	.LASF63:
 3025 01c7 66756E63 		.ascii	"func\000"
 3025      00
 3026              	.LASF47:
 3027 01cc 73746174 		.ascii	"stats\000"
 3027      7300
 3028              	.LASF144:
 3029 01d2 6964656E 		.ascii	"identifier\000"
 3029      74696669 
 3029      657200
 3030              	.LASF17:
 3031 01dd 75696E74 		.ascii	"uint16_t\000"
 3031      31365F74 
 3031      00
 3032              	.LASF161:
 3033 01e6 63686465 		.ascii	"chdebug_t\000"
ARM GAS  C:\Users\RAKIBU~1\AppData\Local\Temp\ccuCusfe.s 			page 56


 3033      6275675F 
 3033      7400
 3034              	.LASF159:
 3035 01f0 6F66665F 		.ascii	"off_preempt\000"
 3035      70726565 
 3035      6D707400 
 3036              	.LASF206:
 3037 01fc 63685363 		.ascii	"chSchIsPreemptionRequired\000"
 3037      68497350 
 3037      7265656D 
 3037      7074696F 
 3037      6E526571 
 3038              	.LASF119:
 3039 0216 62756666 		.ascii	"buffer\000"
 3039      657200
 3040              	.LASF158:
 3041 021d 6F66665F 		.ascii	"off_refs\000"
 3041      72656673 
 3041      00
 3042              	.LASF12:
 3043 0226 5F5F7569 		.ascii	"__uint32_t\000"
 3043      6E743332 
 3043      5F7400
 3044              	.LASF101:
 3045 0231 72656761 		.ascii	"regarm_t\000"
 3045      726D5F74 
 3045      00
 3046              	.LASF96:
 3047 023a 5343425F 		.ascii	"SCB_Type\000"
 3047      54797065 
 3047      00
 3048              	.LASF68:
 3049 0243 63685F73 		.ascii	"ch_system_debug\000"
 3049      79737465 
 3049      6D5F6465 
 3049      62756700 
 3050              	.LASF41:
 3051 0253 77616974 		.ascii	"waiting\000"
 3051      696E6700 
 3052              	.LASF100:
 3053 025b 41504250 		.ascii	"APBPrescTable\000"
 3053      72657363 
 3053      5461626C 
 3053      6500
 3054              	.LASF145:
 3055 0269 7A65726F 		.ascii	"zero\000"
 3055      00
 3056              	.LASF163:
 3057 026e 6D757465 		.ascii	"mutex_t\000"
 3057      785F7400 
 3058              	.LASF71:
 3059 0276 6C6F636B 		.ascii	"lock_cnt\000"
 3059      5F636E74 
 3059      00
 3060              	.LASF202:
 3061 027f 2E2E2F2E 		.ascii	"../../../ChibiOSRepo/chibios191/os/common/ports/ARM"
 3061      2E2F2E2E 
ARM GAS  C:\Users\RAKIBU~1\AppData\Local\Temp\ccuCusfe.s 			page 57


 3061      2F436869 
 3061      62694F53 
 3061      5265706F 
 3062 02b2 434D782F 		.ascii	"CMx/chcore_v7m.c\000"
 3062      6368636F 
 3062      72655F76 
 3062      376D2E63 
 3062      00
 3063              	.LASF80:
 3064 02c3 73797369 		.ascii	"sysinterval_t\000"
 3064      6E746572 
 3064      76616C5F 
 3064      7400
 3065              	.LASF29:
 3066 02d1 636E745F 		.ascii	"cnt_t\000"
 3066      7400
 3067              	.LASF42:
 3068 02d7 6D736771 		.ascii	"msgqueue\000"
 3068      75657565 
 3068      00
 3069              	.LASF0:
 3070 02e0 756E7369 		.ascii	"unsigned int\000"
 3070      676E6564 
 3070      20696E74 
 3070      00
 3071              	.LASF198:
 3072 02ed 5F5F7365 		.ascii	"__set_PSP\000"
 3072      745F5053 
 3072      5000
 3073              	.LASF98:
 3074 02f7 53797374 		.ascii	"SystemCoreClock\000"
 3074      656D436F 
 3074      7265436C 
 3074      6F636B00 
 3075              	.LASF137:
 3076 0307 77747365 		.ascii	"wtsemp\000"
 3076      6D7000
 3077              	.LASF135:
 3078 030e 77747472 		.ascii	"wttrp\000"
 3078      7000
 3079              	.LASF162:
 3080 0314 63685F64 		.ascii	"ch_debug\000"
 3080      65627567 
 3080      00
 3081              	.LASF174:
 3082 031d 6D656D6F 		.ascii	"memory_pool_t\000"
 3082      72795F70 
 3082      6F6F6C5F 
 3082      7400
 3083              	.LASF128:
 3084 032b 6E5F6972 		.ascii	"n_irq\000"
 3084      7100
 3085              	.LASF83:
 3086 0331 56544F52 		.ascii	"VTOR\000"
 3086      00
 3087              	.LASF46:
 3088 0336 6D706F6F 		.ascii	"mpool\000"
ARM GAS  C:\Users\RAKIBU~1\AppData\Local\Temp\ccuCusfe.s 			page 58


 3088      6C00
 3089              	.LASF203:
 3090 033c 433A5C55 		.ascii	"C:\\Users\\RakibulChowdhury\\OneDrive - DIAS Geophy"
 3090      73657273 
 3090      5C52616B 
 3090      6962756C 
 3090      43686F77 
 3091 036c 73696361 		.ascii	"sical\\Dias32FirmwareDevelopment\\FirmwareRepo\\Dia"
 3091      6C5C4469 
 3091      61733332 
 3091      4669726D 
 3091      77617265 
 3092 039c 73333257 		.ascii	"s32Workspace\\DIAS-Gen2-Rakibul\000"
 3092      6F726B73 
 3092      70616365 
 3092      5C444941 
 3092      532D4765 
 3093              	.LASF132:
 3094 03bb 6B65726E 		.ascii	"kernel_stats_t\000"
 3094      656C5F73 
 3094      74617473 
 3094      5F7400
 3095              	.LASF36:
 3096 03ca 6E616D65 		.ascii	"name\000"
 3096      00
 3097              	.LASF50:
 3098 03cf 63685F74 		.ascii	"ch_thread\000"
 3098      68726561 
 3098      6400
 3099              	.LASF90:
 3100 03d9 42464152 		.ascii	"BFAR\000"
 3100      00
 3101              	.LASF82:
 3102 03de 49435352 		.ascii	"ICSR\000"
 3102      00
 3103              	.LASF27:
 3104 03e3 6D73675F 		.ascii	"msg_t\000"
 3104      7400
 3105              	.LASF84:
 3106 03e9 41495243 		.ascii	"AIRCR\000"
 3106      5200
 3107              	.LASF30:
 3108 03ef 75636E74 		.ascii	"ucnt_t\000"
 3108      5F7400
 3109              	.LASF43:
 3110 03f6 6570656E 		.ascii	"epending\000"
 3110      64696E67 
 3110      00
 3111              	.LASF178:
 3112 03ff 64796E5F 		.ascii	"dyn_list_t\000"
 3112      6C697374 
 3112      5F7400
 3113              	.LASF89:
 3114 040a 4D4D4641 		.ascii	"MMFAR\000"
 3114      5200
 3115              	.LASF190:
 3116 0410 5F706F72 		.ascii	"_port_irq_epilogue\000"
ARM GAS  C:\Users\RAKIBU~1\AppData\Local\Temp\ccuCusfe.s 			page 59


 3116      745F6972 
 3116      715F6570 
 3116      696C6F67 
 3116      756500
 3117              	.LASF151:
 3118 0423 6F66665F 		.ascii	"off_ctx\000"
 3118      63747800 
 3119              	.LASF23:
 3120 042b 746D6F64 		.ascii	"tmode_t\000"
 3120      655F7400 
 3121              	.LASF131:
 3122 0433 6D5F6372 		.ascii	"m_crit_isr\000"
 3122      69745F69 
 3122      737200
 3123              	.LASF57:
 3124 043e 63685F72 		.ascii	"ch_ready_list\000"
 3124      65616479 
 3124      5F6C6973 
 3124      7400
 3125              	.LASF28:
 3126 044c 6576656E 		.ascii	"eventmask_t\000"
 3126      746D6173 
 3126      6B5F7400 
 3127              	.LASF99:
 3128 0458 41484250 		.ascii	"AHBPrescTable\000"
 3128      72657363 
 3128      5461626C 
 3128      6500
 3129              	.LASF167:
 3130 0466 656E646D 		.ascii	"endmem\000"
 3130      656D00
 3131              	.LASF10:
 3132 046d 5F5F696E 		.ascii	"__int32_t\000"
 3132      7433325F 
 3132      7400
 3133              	.LASF102:
 3134 0477 73746B61 		.ascii	"stkalign_t\000"
 3134      6C69676E 
 3134      5F7400
 3135              	.LASF34:
 3136 0482 6E657765 		.ascii	"newer\000"
 3136      7200
 3137              	.LASF114:
 3138 0488 72747374 		.ascii	"rtstamp\000"
 3138      616D7000 
 3139              	.LASF45:
 3140 0490 7265616C 		.ascii	"realprio\000"
 3140      7072696F 
 3140      00
 3141              	.LASF146:
 3142 0499 76657273 		.ascii	"version\000"
 3142      696F6E00 
 3143              	.LASF21:
 3144 04a1 7274636E 		.ascii	"rtcnt_t\000"
 3144      745F7400 
 3145              	.LASF176:
 3146 04a9 64796E5F 		.ascii	"dyn_element_t\000"
ARM GAS  C:\Users\RAKIBU~1\AppData\Local\Temp\ccuCusfe.s 			page 60


 3146      656C656D 
 3146      656E745F 
 3146      7400
 3147              	.LASF65:
 3148 04b7 63685F76 		.ascii	"ch_virtual_timers_list\000"
 3148      69727475 
 3148      616C5F74 
 3148      696D6572 
 3148      735F6C69 
 3149              	.LASF2:
 3150 04ce 6C6F6E67 		.ascii	"long double\000"
 3150      20646F75 
 3150      626C6500 
 3151              	.LASF32:
 3152 04da 71756575 		.ascii	"queue\000"
 3152      6500
 3153              	.LASF177:
 3154 04e0 63685F64 		.ascii	"ch_dyn_list\000"
 3154      796E5F6C 
 3154      69737400 
 3155              	.LASF86:
 3156 04ec 43465352 		.ascii	"CFSR\000"
 3156      00
 3157              	.LASF152:
 3158 04f1 6F66665F 		.ascii	"off_newer\000"
 3158      6E657765 
 3158      7200
 3159              	.LASF103:
 3160 04fb 706F7274 		.ascii	"port_context\000"
 3160      5F636F6E 
 3160      74657874 
 3160      00
 3161              	.LASF105:
 3162 0508 706F7274 		.ascii	"port_extctx\000"
 3162      5F657874 
 3162      63747800 
 3163              	.LASF122:
 3164 0514 746D5F63 		.ascii	"tm_calibration_t\000"
 3164      616C6962 
 3164      72617469 
 3164      6F6E5F74 
 3164      00
 3165              	.LASF201:
 3166 0525 474E5520 		.ascii	"GNU C11 7.2.1 20170904 (release) [ARM/embedded-7-br"
 3166      43313120 
 3166      372E322E 
 3166      31203230 
 3166      31373039 
 3167 0558 616E6368 		.ascii	"anch revision 255204] -mcpu=cortex-m4 -mthumb -ggdb"
 3167      20726576 
 3167      6973696F 
 3167      6E203235 
 3167      35323034 
 3168 058b 202D4F67 		.ascii	" -Og -fomit-frame-pointer -falign-functions=16\000"
 3168      202D666F 
 3168      6D69742D 
 3168      6672616D 
ARM GAS  C:\Users\RAKIBU~1\AppData\Local\Temp\ccuCusfe.s 			page 61


 3168      652D706F 
 3169              	.LASF115:
 3170 05ba 74696D65 		.ascii	"time\000"
 3170      00
 3171              	.LASF33:
 3172 05bf 7072696F 		.ascii	"prio\000"
 3172      00
 3173              	.LASF184:
 3174 05c4 73656D5F 		.ascii	"sem_pool\000"
 3174      706F6F6C 
 3174      00
 3175              	.LASF58:
 3176 05cd 63757272 		.ascii	"current\000"
 3176      656E7400 
 3177              	.LASF125:
 3178 05d5 6C617374 		.ascii	"last\000"
 3178      00
 3179              	.LASF14:
 3180 05da 5F5F7569 		.ascii	"__uint64_t\000"
 3180      6E743634 
 3180      5F7400
 3181              	.LASF168:
 3182 05e5 6D656D63 		.ascii	"memcore_t\000"
 3182      6F72655F 
 3182      7400
 3183              	.LASF126:
 3184 05ef 63756D75 		.ascii	"cumulative\000"
 3184      6C617469 
 3184      766500
 3185              	.LASF165:
 3186 05fa 6D656D67 		.ascii	"memgetfunc_t\000"
 3186      65746675 
 3186      6E635F74 
 3186      00
 3187              	.LASF25:
 3188 0607 74726566 		.ascii	"trefs_t\000"
 3188      735F7400 
 3189              	.LASF94:
 3190 060f 52455345 		.ascii	"RESERVED0\000"
 3190      52564544 
 3190      3000
 3191              	.LASF88:
 3192 0619 44465352 		.ascii	"DFSR\000"
 3192      00
 3193              	.LASF149:
 3194 061e 74687265 		.ascii	"threadsize\000"
 3194      61647369 
 3194      7A6500
 3195              	.LASF192:
 3196 0629 63747870 		.ascii	"ctxp\000"
 3196      00
 3197              	.LASF60:
 3198 062e 76697274 		.ascii	"virtual_timer_t\000"
 3198      75616C5F 
 3198      74696D65 
 3198      725F7400 
 3199              	.LASF112:
ARM GAS  C:\Users\RAKIBU~1\AppData\Local\Temp\ccuCusfe.s 			page 62


 3200 063e 75736572 		.ascii	"user\000"
 3200      00
 3201              	.LASF26:
 3202 0643 74707269 		.ascii	"tprio_t\000"
 3202      6F5F7400 
 3203              	.LASF182:
 3204 064b 6275665F 		.ascii	"buf_list\000"
 3204      6C697374 
 3204      00
 3205              	.LASF129:
 3206 0654 6E5F6374 		.ascii	"n_ctxswc\000"
 3206      78737763 
 3206      00
 3207              	.LASF164:
 3208 065d 5F426F6F 		.ascii	"_Bool\000"
 3208      6C00
 3209              	.LASF18:
 3210 0663 696E7433 		.ascii	"int32_t\000"
 3210      325F7400 
 3211              	.LASF6:
 3212 066b 756E7369 		.ascii	"unsigned char\000"
 3212      676E6564 
 3212      20636861 
 3212      7200
 3213              	.LASF150:
 3214 0679 6F66665F 		.ascii	"off_prio\000"
 3214      7072696F 
 3214      00
 3215              	.LASF155:
 3216 0682 6F66665F 		.ascii	"off_stklimit\000"
 3216      73746B6C 
 3216      696D6974 
 3216      00
 3217              	.LASF85:
 3218 068f 53484353 		.ascii	"SHCSR\000"
 3218      5200
 3219              	.LASF97:
 3220 0695 49544D5F 		.ascii	"ITM_RxBuffer\000"
 3220      52784275 
 3220      66666572 
 3220      00
 3221              	.LASF7:
 3222 06a2 73686F72 		.ascii	"short int\000"
 3222      7420696E 
 3222      7400
 3223              	.LASF66:
 3224 06ac 6C617374 		.ascii	"lasttime\000"
 3224      74696D65 
 3224      00
 3225              	.LASF111:
 3226 06b5 68616C74 		.ascii	"halt\000"
 3226      00
 3227              	.LASF107:
 3228 06ba 78707372 		.ascii	"xpsr\000"
 3228      00
 3229              	.LASF139:
 3230 06bf 65776D61 		.ascii	"ewmask\000"
ARM GAS  C:\Users\RAKIBU~1\AppData\Local\Temp\ccuCusfe.s 			page 63


 3230      736B00
 3231              	.LASF74:
 3232 06c6 63685F73 		.ascii	"ch_system\000"
 3232      79737465 
 3232      6D00
 3233              	.LASF189:
 3234 06d0 63685F66 		.ascii	"ch_factory\000"
 3234      6163746F 
 3234      727900
 3235              	.LASF106:
 3236 06db 6C725F74 		.ascii	"lr_thd\000"
 3236      686400
 3237              	.LASF181:
 3238 06e2 6F626A5F 		.ascii	"obj_pool\000"
 3238      706F6F6C 
 3238      00
 3239              	.LASF110:
 3240 06eb 72656173 		.ascii	"reason\000"
 3240      6F6E00
 3241              	.LASF61:
 3242 06f2 63685F76 		.ascii	"ch_virtual_timer\000"
 3242      69727475 
 3242      616C5F74 
 3242      696D6572 
 3242      00
 3243              	.LASF140:
 3244 0703 63685F73 		.ascii	"ch_semaphore\000"
 3244      656D6170 
 3244      686F7265 
 3244      00
 3245              	.LASF160:
 3246 0710 6F66665F 		.ascii	"off_time\000"
 3246      74696D65 
 3246      00
 3247              	.LASF143:
 3248 0719 63685F69 		.ascii	"ch_idle_thread_wa\000"
 3248      646C655F 
 3248      74687265 
 3248      61645F77 
 3248      6100
 3249              	.LASF148:
 3250 072b 74696D65 		.ascii	"timesize\000"
 3250      73697A65 
 3250      00
 3251              	.LASF187:
 3252 0734 70697065 		.ascii	"pipe_list\000"
 3252      5F6C6973 
 3252      7400
 3253              	.LASF19:
 3254 073e 75696E74 		.ascii	"uint32_t\000"
 3254      33325F74 
 3254      00
 3255              	.LASF138:
 3256 0747 77746D74 		.ascii	"wtmtxp\000"
 3256      787000
 3257              	.LASF91:
 3258 074e 41465352 		.ascii	"AFSR\000"
ARM GAS  C:\Users\RAKIBU~1\AppData\Local\Temp\ccuCusfe.s 			page 64


 3258      00
 3259              	.LASF51:
 3260 0753 63685F74 		.ascii	"ch_threads_list\000"
 3260      68726561 
 3260      64735F6C 
 3260      69737400 
 3261              	.LASF142:
 3262 0763 6F776E65 		.ascii	"owner\000"
 3262      7200
 3263              	.LASF13:
 3264 0769 6C6F6E67 		.ascii	"long unsigned int\000"
 3264      20756E73 
 3264      69676E65 
 3264      6420696E 
 3264      7400
 3265              	.LASF37:
 3266 077b 77616261 		.ascii	"wabase\000"
 3266      736500
 3267              	.LASF109:
 3268 0782 63686172 		.ascii	"char\000"
 3268      00
 3269              	.LASF35:
 3270 0787 6F6C6465 		.ascii	"older\000"
 3270      7200
 3271              	.LASF180:
 3272 078d 6F626A5F 		.ascii	"obj_list\000"
 3272      6C697374 
 3272      00
 3273              	.LASF8:
 3274 0796 5F5F7569 		.ascii	"__uint16_t\000"
 3274      6E743136 
 3274      5F7400
 3275              	.LASF193:
 3276 07a1 706F7274 		.ascii	"port_unlock_from_isr\000"
 3276      5F756E6C 
 3276      6F636B5F 
 3276      66726F6D 
 3276      5F697372 
 3277              	.LASF31:
 3278 07b6 74687265 		.ascii	"thread_t\000"
 3278      61645F74 
 3278      00
 3279              	.LASF123:
 3280 07bf 62657374 		.ascii	"best\000"
 3280      00
 3281              	.LASF169:
 3282 07c4 63685F6D 		.ascii	"ch_memcore\000"
 3282      656D636F 
 3282      726500
 3283              	.LASF79:
 3284 07cf 73797374 		.ascii	"systime_t\000"
 3284      696D655F 
 3284      7400
 3285              	.LASF59:
 3286 07d9 76746675 		.ascii	"vtfunc_t\000"
 3286      6E635F74 
 3286      00
ARM GAS  C:\Users\RAKIBU~1\AppData\Local\Temp\ccuCusfe.s 			page 65


 3287              	.LASF197:
 3288 07e2 5F5F7365 		.ascii	"__set_BASEPRI\000"
 3288      745F4241 
 3288      53455052 
 3288      4900
 3289              	.LASF69:
 3290 07f0 70616E69 		.ascii	"panic_msg\000"
 3290      635F6D73 
 3290      6700
 3291              	.LASF200:
 3292 07fa 746F704F 		.ascii	"topOfProcStack\000"
 3292      6650726F 
 3292      63537461 
 3292      636B00
 3293              	.LASF121:
 3294 0809 6F666673 		.ascii	"offset\000"
 3294      657400
 3295              	.LASF141:
 3296 0810 63685F6D 		.ascii	"ch_mutex\000"
 3296      75746578 
 3296      00
 3297              	.LASF153:
 3298 0819 6F66665F 		.ascii	"off_older\000"
 3298      6F6C6465 
 3298      7200
 3299              	.LASF9:
 3300 0823 73686F72 		.ascii	"short unsigned int\000"
 3300      7420756E 
 3300      7369676E 
 3300      65642069 
 3300      6E7400
 3301              	.LASF73:
 3302 0836 63685F73 		.ascii	"ch_system_t\000"
 3302      79737465 
 3302      6D5F7400 
 3303              	.LASF194:
 3304 0842 706F7274 		.ascii	"port_lock_from_isr\000"
 3304      5F6C6F63 
 3304      6B5F6672 
 3304      6F6D5F69 
 3304      737200
 3305              	.LASF204:
 3306 0855 5F5F6765 		.ascii	"__get_PSP\000"
 3306      745F5053 
 3306      5000
 3307              	.LASF171:
 3308 085f 6F626A65 		.ascii	"object_size\000"
 3308      63745F73 
 3308      697A6500 
 3309              	.LASF147:
 3310 086b 70747273 		.ascii	"ptrsize\000"
 3310      697A6500 
 3311              	.LASF179:
 3312 0873 63685F6F 		.ascii	"ch_objects_factory\000"
 3312      626A6563 
 3312      74735F66 
 3312      6163746F 
ARM GAS  C:\Users\RAKIBU~1\AppData\Local\Temp\ccuCusfe.s 			page 66


 3312      727900
 3313              	.LASF53:
 3314 0886 74687265 		.ascii	"threads_queue_t\000"
 3314      6164735F 
 3314      71756575 
 3314      655F7400 
 3315              	.LASF170:
 3316 0896 706F6F6C 		.ascii	"pool_header\000"
 3316      5F686561 
 3316      64657200 
 3317              	.LASF70:
 3318 08a2 6973725F 		.ascii	"isr_cnt\000"
 3318      636E7400 
 3319              	.LASF92:
 3320 08aa 4D4D4652 		.ascii	"MMFR\000"
 3320      00
 3321              	.LASF154:
 3322 08af 6F66665F 		.ascii	"off_name\000"
 3322      6E616D65 
 3322      00
 3323              	.LASF16:
 3324 08b8 75696E74 		.ascii	"uint8_t\000"
 3324      385F7400 
 3325              	.LASF39:
 3326 08c0 666C6167 		.ascii	"flags\000"
 3326      7300
 3327              	.LASF186:
 3328 08c6 6669666F 		.ascii	"fifo_list\000"
 3328      5F6C6973 
 3328      7400
 3329              	.LASF157:
 3330 08d0 6F66665F 		.ascii	"off_flags\000"
 3330      666C6167 
 3330      7300
 3331              	.LASF48:
 3332 08da 74687265 		.ascii	"thread_reference_t\000"
 3332      61645F72 
 3332      65666572 
 3332      656E6365 
 3332      5F7400
 3333              	.LASF108:
 3334 08ed 77746F62 		.ascii	"wtobjp\000"
 3334      6A7000
 3335              	.LASF118:
 3336 08f4 73697A65 		.ascii	"size\000"
 3336      00
 3337              	.LASF52:
 3338 08f9 6E657874 		.ascii	"next\000"
 3338      00
 3339              	.LASF156:
 3340 08fe 6F66665F 		.ascii	"off_state\000"
 3340      73746174 
 3340      6500
 3341              	.LASF72:
 3342 0908 74726163 		.ascii	"trace_buffer\000"
 3342      655F6275 
 3342      66666572 
ARM GAS  C:\Users\RAKIBU~1\AppData\Local\Temp\ccuCusfe.s 			page 67


 3342      00
 3343              	.LASF188:
 3344 0915 6F626A65 		.ascii	"objects_factory_t\000"
 3344      6374735F 
 3344      66616374 
 3344      6F72795F 
 3344      7400
 3345              	.LASF95:
 3346 0927 43504143 		.ascii	"CPACR\000"
 3346      5200
 3347              	.LASF87:
 3348 092d 48465352 		.ascii	"HFSR\000"
 3348      00
 3349              	.LASF44:
 3350 0932 6D74786C 		.ascii	"mtxlist\000"
 3350      69737400 
 3351              	.LASF130:
 3352 093a 6D5F6372 		.ascii	"m_crit_thd\000"
 3352      69745F74 
 3352      686400
 3353              	.LASF205:
 3354 0945 72657375 		.ascii	"result\000"
 3354      6C7400
 3355              	.LASF166:
 3356 094c 6E657874 		.ascii	"nextmem\000"
 3356      6D656D00 
 3357              		.ident	"GCC: (GNU Tools for Arm Embedded Processors 7-2017-q4-major) 7.2.1 20170904 (release) [ARM
ARM GAS  C:\Users\RAKIBU~1\AppData\Local\Temp\ccuCusfe.s 			page 68


DEFINED SYMBOLS
                            *ABS*:00000000 chcore_v7m.c
C:\Users\RAKIBU~1\AppData\Local\Temp\ccuCusfe.s:15     .text:00000000 $t
C:\Users\RAKIBU~1\AppData\Local\Temp\ccuCusfe.s:23     .text:00000000 SVC_Handler
C:\Users\RAKIBU~1\AppData\Local\Temp\ccuCusfe.s:90     .text:00000020 _port_irq_epilogue
C:\Users\RAKIBU~1\AppData\Local\Temp\ccuCusfe.s:197    .text:00000064 $d

UNDEFINED SYMBOLS
chSchIsPreemptionRequired
_port_switch_from_isr
_port_exit_from_isr
