ARM GAS  C:\Users\RAKIBU~1\AppData\Local\Temp\ccsr67Nb.s 			page 1


   1              		.cpu cortex-m4
   2              		.eabi_attribute 20, 1
   3              		.eabi_attribute 21, 1
   4              		.eabi_attribute 23, 3
   5              		.eabi_attribute 24, 1
   6              		.eabi_attribute 25, 1
   7              		.eabi_attribute 26, 1
   8              		.eabi_attribute 30, 1
   9              		.eabi_attribute 34, 1
  10              		.eabi_attribute 18, 4
  11              		.file	"chdebug.c"
  12              		.text
  13              	.Ltext0:
  14              		.cfi_sections	.debug_frame
  15              		.align	1
  16              		.p2align 4,,15
  17              		.global	_dbg_check_disable
  18              		.syntax unified
  19              		.thumb
  20              		.thumb_func
  21              		.fpu softvfp
  22              		.type	_dbg_check_disable, %function
  23              	_dbg_check_disable:
  24              	.LFB295:
  25              		.file 1 "../../../ChibiOSRepo/chibios191/os/rt/src/chdebug.c"
  26              		.loc 1 112 0
  27              		.cfi_startproc
  28              		@ args = 0, pretend = 0, frame = 0
  29              		@ frame_needed = 0, uses_anonymous_args = 0
  30 0000 08B5     		push	{r3, lr}
  31              		.cfi_def_cfa_offset 8
  32              		.cfi_offset 3, -8
  33              		.cfi_offset 14, -4
  34              		.loc 1 114 0
  35 0002 054B     		ldr	r3, .L5
  36 0004 DB6B     		ldr	r3, [r3, #60]
  37 0006 13B9     		cbnz	r3, .L2
  38              		.loc 1 114 0 is_stmt 0 discriminator 1
  39 0008 034B     		ldr	r3, .L5
  40 000a 1B6C     		ldr	r3, [r3, #64]
  41 000c 13B1     		cbz	r3, .L1
  42              	.L2:
  43              		.loc 1 115 0 is_stmt 1
  44 000e 0348     		ldr	r0, .L5+4
  45 0010 FFF7FEFF 		bl	chSysHalt
  46              	.LVL0:
  47              	.L1:
  48              		.loc 1 117 0
  49 0014 08BD     		pop	{r3, pc}
  50              	.L6:
  51 0016 00BF     		.align	2
  52              	.L5:
  53 0018 00000000 		.word	ch
  54 001c 00000000 		.word	.LC0
  55              		.cfi_endproc
  56              	.LFE295:
  57              		.size	_dbg_check_disable, .-_dbg_check_disable
ARM GAS  C:\Users\RAKIBU~1\AppData\Local\Temp\ccsr67Nb.s 			page 2


  58              		.align	1
  59              		.p2align 4,,15
  60              		.global	_dbg_check_suspend
  61              		.syntax unified
  62              		.thumb
  63              		.thumb_func
  64              		.fpu softvfp
  65              		.type	_dbg_check_suspend, %function
  66              	_dbg_check_suspend:
  67              	.LFB296:
  68              		.loc 1 124 0
  69              		.cfi_startproc
  70              		@ args = 0, pretend = 0, frame = 0
  71              		@ frame_needed = 0, uses_anonymous_args = 0
  72 0020 08B5     		push	{r3, lr}
  73              		.cfi_def_cfa_offset 8
  74              		.cfi_offset 3, -8
  75              		.cfi_offset 14, -4
  76              		.loc 1 126 0
  77 0022 054B     		ldr	r3, .L11
  78 0024 DB6B     		ldr	r3, [r3, #60]
  79 0026 13B9     		cbnz	r3, .L8
  80              		.loc 1 126 0 is_stmt 0 discriminator 1
  81 0028 034B     		ldr	r3, .L11
  82 002a 1B6C     		ldr	r3, [r3, #64]
  83 002c 13B1     		cbz	r3, .L7
  84              	.L8:
  85              		.loc 1 127 0 is_stmt 1
  86 002e 0348     		ldr	r0, .L11+4
  87 0030 FFF7FEFF 		bl	chSysHalt
  88              	.LVL1:
  89              	.L7:
  90              		.loc 1 129 0
  91 0034 08BD     		pop	{r3, pc}
  92              	.L12:
  93 0036 00BF     		.align	2
  94              	.L11:
  95 0038 00000000 		.word	ch
  96 003c 08000000 		.word	.LC1
  97              		.cfi_endproc
  98              	.LFE296:
  99              		.size	_dbg_check_suspend, .-_dbg_check_suspend
 100              		.align	1
 101              		.p2align 4,,15
 102              		.global	_dbg_check_enable
 103              		.syntax unified
 104              		.thumb
 105              		.thumb_func
 106              		.fpu softvfp
 107              		.type	_dbg_check_enable, %function
 108              	_dbg_check_enable:
 109              	.LFB297:
 110              		.loc 1 136 0
 111              		.cfi_startproc
 112              		@ args = 0, pretend = 0, frame = 0
 113              		@ frame_needed = 0, uses_anonymous_args = 0
 114 0040 08B5     		push	{r3, lr}
ARM GAS  C:\Users\RAKIBU~1\AppData\Local\Temp\ccsr67Nb.s 			page 3


 115              		.cfi_def_cfa_offset 8
 116              		.cfi_offset 3, -8
 117              		.cfi_offset 14, -4
 118              		.loc 1 138 0
 119 0042 054B     		ldr	r3, .L17
 120 0044 DB6B     		ldr	r3, [r3, #60]
 121 0046 13B9     		cbnz	r3, .L14
 122              		.loc 1 138 0 is_stmt 0 discriminator 1
 123 0048 034B     		ldr	r3, .L17
 124 004a 1B6C     		ldr	r3, [r3, #64]
 125 004c 13B1     		cbz	r3, .L13
 126              	.L14:
 127              		.loc 1 139 0 is_stmt 1
 128 004e 0348     		ldr	r0, .L17+4
 129 0050 FFF7FEFF 		bl	chSysHalt
 130              	.LVL2:
 131              	.L13:
 132              		.loc 1 141 0
 133 0054 08BD     		pop	{r3, pc}
 134              	.L18:
 135 0056 00BF     		.align	2
 136              	.L17:
 137 0058 00000000 		.word	ch
 138 005c 10000000 		.word	.LC2
 139              		.cfi_endproc
 140              	.LFE297:
 141              		.size	_dbg_check_enable, .-_dbg_check_enable
 142              		.align	1
 143              		.p2align 4,,15
 144              		.global	_dbg_check_lock
 145              		.syntax unified
 146              		.thumb
 147              		.thumb_func
 148              		.fpu softvfp
 149              		.type	_dbg_check_lock, %function
 150              	_dbg_check_lock:
 151              	.LFB298:
 152              		.loc 1 148 0
 153              		.cfi_startproc
 154              		@ args = 0, pretend = 0, frame = 0
 155              		@ frame_needed = 0, uses_anonymous_args = 0
 156 0060 08B5     		push	{r3, lr}
 157              		.cfi_def_cfa_offset 8
 158              		.cfi_offset 3, -8
 159              		.cfi_offset 14, -4
 160              		.loc 1 150 0
 161 0062 064B     		ldr	r3, .L23
 162 0064 DB6B     		ldr	r3, [r3, #60]
 163 0066 13B9     		cbnz	r3, .L20
 164              		.loc 1 150 0 is_stmt 0 discriminator 1
 165 0068 044B     		ldr	r3, .L23
 166 006a 1B6C     		ldr	r3, [r3, #64]
 167 006c 13B1     		cbz	r3, .L21
 168              	.L20:
 169              		.loc 1 151 0 is_stmt 1
 170 006e 0448     		ldr	r0, .L23+4
 171 0070 FFF7FEFF 		bl	chSysHalt
ARM GAS  C:\Users\RAKIBU~1\AppData\Local\Temp\ccsr67Nb.s 			page 4


 172              	.LVL3:
 173              	.L21:
 174              		.loc 1 153 0
 175 0074 014B     		ldr	r3, .L23
 176 0076 0122     		movs	r2, #1
 177 0078 1A64     		str	r2, [r3, #64]
 178              		.loc 1 154 0
 179 007a 08BD     		pop	{r3, pc}
 180              	.L24:
 181              		.align	2
 182              	.L23:
 183 007c 00000000 		.word	ch
 184 0080 18000000 		.word	.LC3
 185              		.cfi_endproc
 186              	.LFE298:
 187              		.size	_dbg_check_lock, .-_dbg_check_lock
 188              		.align	1
 189 0084 AFF30080 		.p2align 4,,15
 189      AFF30080 
 189      AFF30080 
 190              		.global	_dbg_check_unlock
 191              		.syntax unified
 192              		.thumb
 193              		.thumb_func
 194              		.fpu softvfp
 195              		.type	_dbg_check_unlock, %function
 196              	_dbg_check_unlock:
 197              	.LFB299:
 198              		.loc 1 161 0
 199              		.cfi_startproc
 200              		@ args = 0, pretend = 0, frame = 0
 201              		@ frame_needed = 0, uses_anonymous_args = 0
 202 0090 08B5     		push	{r3, lr}
 203              		.cfi_def_cfa_offset 8
 204              		.cfi_offset 3, -8
 205              		.cfi_offset 14, -4
 206              		.loc 1 163 0
 207 0092 074B     		ldr	r3, .L29
 208 0094 DB6B     		ldr	r3, [r3, #60]
 209 0096 1BB9     		cbnz	r3, .L26
 210              		.loc 1 163 0 is_stmt 0 discriminator 1
 211 0098 054B     		ldr	r3, .L29
 212 009a 1B6C     		ldr	r3, [r3, #64]
 213 009c 002B     		cmp	r3, #0
 214 009e 02DC     		bgt	.L27
 215              	.L26:
 216              		.loc 1 164 0 is_stmt 1
 217 00a0 0448     		ldr	r0, .L29+4
 218 00a2 FFF7FEFF 		bl	chSysHalt
 219              	.LVL4:
 220              	.L27:
 221              		.loc 1 166 0
 222 00a6 024B     		ldr	r3, .L29
 223 00a8 0022     		movs	r2, #0
 224 00aa 1A64     		str	r2, [r3, #64]
 225              		.loc 1 167 0
 226 00ac 08BD     		pop	{r3, pc}
ARM GAS  C:\Users\RAKIBU~1\AppData\Local\Temp\ccsr67Nb.s 			page 5


 227              	.L30:
 228 00ae 00BF     		.align	2
 229              	.L29:
 230 00b0 00000000 		.word	ch
 231 00b4 20000000 		.word	.LC4
 232              		.cfi_endproc
 233              	.LFE299:
 234              		.size	_dbg_check_unlock, .-_dbg_check_unlock
 235              		.align	1
 236 00b8 AFF30080 		.p2align 4,,15
 236      AFF30080 
 237              		.global	_dbg_check_lock_from_isr
 238              		.syntax unified
 239              		.thumb
 240              		.thumb_func
 241              		.fpu softvfp
 242              		.type	_dbg_check_lock_from_isr, %function
 243              	_dbg_check_lock_from_isr:
 244              	.LFB300:
 245              		.loc 1 174 0
 246              		.cfi_startproc
 247              		@ args = 0, pretend = 0, frame = 0
 248              		@ frame_needed = 0, uses_anonymous_args = 0
 249 00c0 08B5     		push	{r3, lr}
 250              		.cfi_def_cfa_offset 8
 251              		.cfi_offset 3, -8
 252              		.cfi_offset 14, -4
 253              		.loc 1 176 0
 254 00c2 074B     		ldr	r3, .L35
 255 00c4 DB6B     		ldr	r3, [r3, #60]
 256 00c6 002B     		cmp	r3, #0
 257 00c8 02DD     		ble	.L32
 258              		.loc 1 176 0 is_stmt 0 discriminator 1
 259 00ca 054B     		ldr	r3, .L35
 260 00cc 1B6C     		ldr	r3, [r3, #64]
 261 00ce 13B1     		cbz	r3, .L33
 262              	.L32:
 263              		.loc 1 177 0 is_stmt 1
 264 00d0 0448     		ldr	r0, .L35+4
 265 00d2 FFF7FEFF 		bl	chSysHalt
 266              	.LVL5:
 267              	.L33:
 268              		.loc 1 179 0
 269 00d6 024B     		ldr	r3, .L35
 270 00d8 0122     		movs	r2, #1
 271 00da 1A64     		str	r2, [r3, #64]
 272              		.loc 1 180 0
 273 00dc 08BD     		pop	{r3, pc}
 274              	.L36:
 275 00de 00BF     		.align	2
 276              	.L35:
 277 00e0 00000000 		.word	ch
 278 00e4 28000000 		.word	.LC5
 279              		.cfi_endproc
 280              	.LFE300:
 281              		.size	_dbg_check_lock_from_isr, .-_dbg_check_lock_from_isr
 282              		.align	1
ARM GAS  C:\Users\RAKIBU~1\AppData\Local\Temp\ccsr67Nb.s 			page 6


 283 00e8 AFF30080 		.p2align 4,,15
 283      AFF30080 
 284              		.global	_dbg_check_unlock_from_isr
 285              		.syntax unified
 286              		.thumb
 287              		.thumb_func
 288              		.fpu softvfp
 289              		.type	_dbg_check_unlock_from_isr, %function
 290              	_dbg_check_unlock_from_isr:
 291              	.LFB301:
 292              		.loc 1 187 0
 293              		.cfi_startproc
 294              		@ args = 0, pretend = 0, frame = 0
 295              		@ frame_needed = 0, uses_anonymous_args = 0
 296 00f0 08B5     		push	{r3, lr}
 297              		.cfi_def_cfa_offset 8
 298              		.cfi_offset 3, -8
 299              		.cfi_offset 14, -4
 300              		.loc 1 189 0
 301 00f2 074B     		ldr	r3, .L41
 302 00f4 DB6B     		ldr	r3, [r3, #60]
 303 00f6 002B     		cmp	r3, #0
 304 00f8 03DD     		ble	.L38
 305              		.loc 1 189 0 is_stmt 0 discriminator 1
 306 00fa 054B     		ldr	r3, .L41
 307 00fc 1B6C     		ldr	r3, [r3, #64]
 308 00fe 002B     		cmp	r3, #0
 309 0100 02DC     		bgt	.L39
 310              	.L38:
 311              		.loc 1 190 0 is_stmt 1
 312 0102 0448     		ldr	r0, .L41+4
 313 0104 FFF7FEFF 		bl	chSysHalt
 314              	.LVL6:
 315              	.L39:
 316              		.loc 1 192 0
 317 0108 014B     		ldr	r3, .L41
 318 010a 0022     		movs	r2, #0
 319 010c 1A64     		str	r2, [r3, #64]
 320              		.loc 1 193 0
 321 010e 08BD     		pop	{r3, pc}
 322              	.L42:
 323              		.align	2
 324              	.L41:
 325 0110 00000000 		.word	ch
 326 0114 30000000 		.word	.LC6
 327              		.cfi_endproc
 328              	.LFE301:
 329              		.size	_dbg_check_unlock_from_isr, .-_dbg_check_unlock_from_isr
 330              		.align	1
 331 0118 AFF30080 		.p2align 4,,15
 331      AFF30080 
 332              		.global	_dbg_check_enter_isr
 333              		.syntax unified
 334              		.thumb
 335              		.thumb_func
 336              		.fpu softvfp
 337              		.type	_dbg_check_enter_isr, %function
ARM GAS  C:\Users\RAKIBU~1\AppData\Local\Temp\ccsr67Nb.s 			page 7


 338              	_dbg_check_enter_isr:
 339              	.LFB302:
 340              		.loc 1 200 0
 341              		.cfi_startproc
 342              		@ args = 0, pretend = 0, frame = 0
 343              		@ frame_needed = 0, uses_anonymous_args = 0
 344 0120 08B5     		push	{r3, lr}
 345              		.cfi_def_cfa_offset 8
 346              		.cfi_offset 3, -8
 347              		.cfi_offset 14, -4
 348              	.LVL7:
 349              	.LBB34:
 350              	.LBB35:
 351              	.LBB36:
 352              	.LBB37:
 353              		.file 2 "../../../ChibiOSRepo/chibios191/os/common/ext/ARM/CMSIS/Core/Include/cmsis_gcc.h"
 354              		.loc 2 493 0
 355 0122 2023     		movs	r3, #32
 356              		.syntax unified
 357              	@ 493 "../../../ChibiOSRepo/chibios191/os/common/ext/ARM/CMSIS/Core/Include/cmsis_gcc.h" 1
 358 0124 83F31188 		MSR basepri, r3
 359              	@ 0 "" 2
 360              	.LVL8:
 361              		.thumb
 362              		.syntax unified
 363              	.LBE37:
 364              	.LBE36:
 365              	.LBE35:
 366              	.LBE34:
 367              		.loc 1 203 0
 368 0128 084B     		ldr	r3, .L47
 369 012a DB6B     		ldr	r3, [r3, #60]
 370 012c 002B     		cmp	r3, #0
 371 012e 02DB     		blt	.L44
 372              		.loc 1 203 0 is_stmt 0 discriminator 1
 373 0130 064B     		ldr	r3, .L47
 374 0132 1B6C     		ldr	r3, [r3, #64]
 375 0134 13B1     		cbz	r3, .L45
 376              	.L44:
 377              		.loc 1 204 0 is_stmt 1
 378 0136 0648     		ldr	r0, .L47+4
 379 0138 FFF7FEFF 		bl	chSysHalt
 380              	.LVL9:
 381              	.L45:
 382              		.loc 1 206 0
 383 013c 034A     		ldr	r2, .L47
 384 013e D36B     		ldr	r3, [r2, #60]
 385 0140 0133     		adds	r3, r3, #1
 386 0142 D363     		str	r3, [r2, #60]
 387              	.LVL10:
 388              	.LBB38:
 389              	.LBB39:
 390              	.LBB40:
 391              	.LBB41:
 392              		.loc 2 493 0
 393 0144 0023     		movs	r3, #0
 394              		.syntax unified
ARM GAS  C:\Users\RAKIBU~1\AppData\Local\Temp\ccsr67Nb.s 			page 8


 395              	@ 493 "../../../ChibiOSRepo/chibios191/os/common/ext/ARM/CMSIS/Core/Include/cmsis_gcc.h" 1
 396 0146 83F31188 		MSR basepri, r3
 397              	@ 0 "" 2
 398              	.LVL11:
 399              		.thumb
 400              		.syntax unified
 401              	.LBE41:
 402              	.LBE40:
 403              	.LBE39:
 404              	.LBE38:
 405              		.loc 1 208 0
 406 014a 08BD     		pop	{r3, pc}
 407              	.L48:
 408              		.align	2
 409              	.L47:
 410 014c 00000000 		.word	ch
 411 0150 38000000 		.word	.LC7
 412              		.cfi_endproc
 413              	.LFE302:
 414              		.size	_dbg_check_enter_isr, .-_dbg_check_enter_isr
 415              		.align	1
 416 0154 AFF30080 		.p2align 4,,15
 416      AFF30080 
 416      AFF30080 
 417              		.global	_dbg_check_leave_isr
 418              		.syntax unified
 419              		.thumb
 420              		.thumb_func
 421              		.fpu softvfp
 422              		.type	_dbg_check_leave_isr, %function
 423              	_dbg_check_leave_isr:
 424              	.LFB303:
 425              		.loc 1 215 0
 426              		.cfi_startproc
 427              		@ args = 0, pretend = 0, frame = 0
 428              		@ frame_needed = 0, uses_anonymous_args = 0
 429 0160 08B5     		push	{r3, lr}
 430              		.cfi_def_cfa_offset 8
 431              		.cfi_offset 3, -8
 432              		.cfi_offset 14, -4
 433              	.LVL12:
 434              	.LBB42:
 435              	.LBB43:
 436              	.LBB44:
 437              	.LBB45:
 438              		.loc 2 493 0
 439 0162 2023     		movs	r3, #32
 440              		.syntax unified
 441              	@ 493 "../../../ChibiOSRepo/chibios191/os/common/ext/ARM/CMSIS/Core/Include/cmsis_gcc.h" 1
 442 0164 83F31188 		MSR basepri, r3
 443              	@ 0 "" 2
 444              	.LVL13:
 445              		.thumb
 446              		.syntax unified
 447              	.LBE45:
 448              	.LBE44:
 449              	.LBE43:
ARM GAS  C:\Users\RAKIBU~1\AppData\Local\Temp\ccsr67Nb.s 			page 9


 450              	.LBE42:
 451              		.loc 1 218 0
 452 0168 084B     		ldr	r3, .L53
 453 016a DB6B     		ldr	r3, [r3, #60]
 454 016c 002B     		cmp	r3, #0
 455 016e 02DD     		ble	.L50
 456              		.loc 1 218 0 is_stmt 0 discriminator 1
 457 0170 064B     		ldr	r3, .L53
 458 0172 1B6C     		ldr	r3, [r3, #64]
 459 0174 13B1     		cbz	r3, .L51
 460              	.L50:
 461              		.loc 1 219 0 is_stmt 1
 462 0176 0648     		ldr	r0, .L53+4
 463 0178 FFF7FEFF 		bl	chSysHalt
 464              	.LVL14:
 465              	.L51:
 466              		.loc 1 221 0
 467 017c 034A     		ldr	r2, .L53
 468 017e D36B     		ldr	r3, [r2, #60]
 469 0180 013B     		subs	r3, r3, #1
 470 0182 D363     		str	r3, [r2, #60]
 471              	.LVL15:
 472              	.LBB46:
 473              	.LBB47:
 474              	.LBB48:
 475              	.LBB49:
 476              		.loc 2 493 0
 477 0184 0023     		movs	r3, #0
 478              		.syntax unified
 479              	@ 493 "../../../ChibiOSRepo/chibios191/os/common/ext/ARM/CMSIS/Core/Include/cmsis_gcc.h" 1
 480 0186 83F31188 		MSR basepri, r3
 481              	@ 0 "" 2
 482              	.LVL16:
 483              		.thumb
 484              		.syntax unified
 485              	.LBE49:
 486              	.LBE48:
 487              	.LBE47:
 488              	.LBE46:
 489              		.loc 1 223 0
 490 018a 08BD     		pop	{r3, pc}
 491              	.L54:
 492              		.align	2
 493              	.L53:
 494 018c 00000000 		.word	ch
 495 0190 40000000 		.word	.LC8
 496              		.cfi_endproc
 497              	.LFE303:
 498              		.size	_dbg_check_leave_isr, .-_dbg_check_leave_isr
 499              		.align	1
 500 0194 AFF30080 		.p2align 4,,15
 500      AFF30080 
 500      AFF30080 
 501              		.global	chDbgCheckClassI
 502              		.syntax unified
 503              		.thumb
 504              		.thumb_func
ARM GAS  C:\Users\RAKIBU~1\AppData\Local\Temp\ccsr67Nb.s 			page 10


 505              		.fpu softvfp
 506              		.type	chDbgCheckClassI, %function
 507              	chDbgCheckClassI:
 508              	.LFB304:
 509              		.loc 1 233 0
 510              		.cfi_startproc
 511              		@ args = 0, pretend = 0, frame = 0
 512              		@ frame_needed = 0, uses_anonymous_args = 0
 513 01a0 08B5     		push	{r3, lr}
 514              		.cfi_def_cfa_offset 8
 515              		.cfi_offset 3, -8
 516              		.cfi_offset 14, -4
 517              		.loc 1 235 0
 518 01a2 064B     		ldr	r3, .L59
 519 01a4 DB6B     		ldr	r3, [r3, #60]
 520 01a6 002B     		cmp	r3, #0
 521 01a8 03DB     		blt	.L56
 522              		.loc 1 235 0 is_stmt 0 discriminator 1
 523 01aa 044B     		ldr	r3, .L59
 524 01ac 1B6C     		ldr	r3, [r3, #64]
 525 01ae 002B     		cmp	r3, #0
 526 01b0 02DC     		bgt	.L55
 527              	.L56:
 528              		.loc 1 236 0 is_stmt 1
 529 01b2 0348     		ldr	r0, .L59+4
 530 01b4 FFF7FEFF 		bl	chSysHalt
 531              	.LVL17:
 532              	.L55:
 533              		.loc 1 238 0
 534 01b8 08BD     		pop	{r3, pc}
 535              	.L60:
 536 01ba 00BF     		.align	2
 537              	.L59:
 538 01bc 00000000 		.word	ch
 539 01c0 48000000 		.word	.LC9
 540              		.cfi_endproc
 541              	.LFE304:
 542              		.size	chDbgCheckClassI, .-chDbgCheckClassI
 543              		.align	1
 544 01c4 AFF30080 		.p2align 4,,15
 544      AFF30080 
 544      AFF30080 
 545              		.global	chDbgCheckClassS
 546              		.syntax unified
 547              		.thumb
 548              		.thumb_func
 549              		.fpu softvfp
 550              		.type	chDbgCheckClassS, %function
 551              	chDbgCheckClassS:
 552              	.LFB305:
 553              		.loc 1 248 0
 554              		.cfi_startproc
 555              		@ args = 0, pretend = 0, frame = 0
 556              		@ frame_needed = 0, uses_anonymous_args = 0
 557 01d0 08B5     		push	{r3, lr}
 558              		.cfi_def_cfa_offset 8
 559              		.cfi_offset 3, -8
ARM GAS  C:\Users\RAKIBU~1\AppData\Local\Temp\ccsr67Nb.s 			page 11


 560              		.cfi_offset 14, -4
 561              		.loc 1 250 0
 562 01d2 054B     		ldr	r3, .L65
 563 01d4 DB6B     		ldr	r3, [r3, #60]
 564 01d6 1BB9     		cbnz	r3, .L62
 565              		.loc 1 250 0 is_stmt 0 discriminator 1
 566 01d8 034B     		ldr	r3, .L65
 567 01da 1B6C     		ldr	r3, [r3, #64]
 568 01dc 002B     		cmp	r3, #0
 569 01de 02DC     		bgt	.L61
 570              	.L62:
 571              		.loc 1 251 0 is_stmt 1
 572 01e0 0248     		ldr	r0, .L65+4
 573 01e2 FFF7FEFF 		bl	chSysHalt
 574              	.LVL18:
 575              	.L61:
 576              		.loc 1 253 0
 577 01e6 08BD     		pop	{r3, pc}
 578              	.L66:
 579              		.align	2
 580              	.L65:
 581 01e8 00000000 		.word	ch
 582 01ec 50000000 		.word	.LC10
 583              		.cfi_endproc
 584              	.LFE305:
 585              		.size	chDbgCheckClassS, .-chDbgCheckClassS
 586              		.section	.rodata.str1.4,"aMS",%progbits,1
 587              		.align	2
 588              	.LC0:
 589 0000 53562331 		.ascii	"SV#1\000"
 589      00
 590 0005 000000   		.space	3
 591              	.LC1:
 592 0008 53562332 		.ascii	"SV#2\000"
 592      00
 593 000d 000000   		.space	3
 594              	.LC2:
 595 0010 53562333 		.ascii	"SV#3\000"
 595      00
 596 0015 000000   		.space	3
 597              	.LC3:
 598 0018 53562334 		.ascii	"SV#4\000"
 598      00
 599 001d 000000   		.space	3
 600              	.LC4:
 601 0020 53562335 		.ascii	"SV#5\000"
 601      00
 602 0025 000000   		.space	3
 603              	.LC5:
 604 0028 53562336 		.ascii	"SV#6\000"
 604      00
 605 002d 000000   		.space	3
 606              	.LC6:
 607 0030 53562337 		.ascii	"SV#7\000"
 607      00
 608 0035 000000   		.space	3
 609              	.LC7:
ARM GAS  C:\Users\RAKIBU~1\AppData\Local\Temp\ccsr67Nb.s 			page 12


 610 0038 53562338 		.ascii	"SV#8\000"
 610      00
 611 003d 000000   		.space	3
 612              	.LC8:
 613 0040 53562339 		.ascii	"SV#9\000"
 613      00
 614 0045 000000   		.space	3
 615              	.LC9:
 616 0048 53562331 		.ascii	"SV#10\000"
 616      3000
 617 004e 0000     		.space	2
 618              	.LC10:
 619 0050 53562331 		.ascii	"SV#11\000"
 619      3100
 620              		.text
 621              	.Letext0:
 622              		.file 3 "c:\\chibistudio\\tools\\gnu tools arm embedded\\7.0 2017q4\\lib\\gcc\\arm-none-eabi\\7.2.
 623              		.file 4 "c:\\chibistudio\\tools\\gnu tools arm embedded\\7.0 2017q4\\arm-none-eabi\\include\\machi
 624              		.file 5 "c:\\chibistudio\\tools\\gnu tools arm embedded\\7.0 2017q4\\arm-none-eabi\\include\\sys\\
 625              		.file 6 "../../../ChibiOSRepo/chibios191/os/common/ports/ARMCMx/compilers/GCC/chtypes.h"
 626              		.file 7 "../../../ChibiOSRepo/chibios191/os/rt/include/chsystypes.h"
 627              		.file 8 "../../../ChibiOSRepo/chibios191/os/rt/include/chschd.h"
 628              		.file 9 "../../../ChibiOSRepo/chibios191/os/rt/include/chtime.h"
 629              		.file 10 "../../../ChibiOSRepo/chibios191/os/common/ext/ARM/CMSIS/Core/Include/core_cm4.h"
 630              		.file 11 "../../../ChibiOSRepo/chibios191/os/common/ext/ST/STM32F4xx/system_stm32f4xx.h"
 631              		.file 12 "../../../ChibiOSRepo/chibios191/os/common/ports/ARMCMx/chcore.h"
 632              		.file 13 "../../../ChibiOSRepo/chibios191/os/common/ports/ARMCMx/chcore_v7m.h"
 633              		.file 14 "../../../ChibiOSRepo/chibios191/os/rt/include/chtrace.h"
 634              		.file 15 "../../../ChibiOSRepo/chibios191/os/rt/include/chtm.h"
 635              		.file 16 "../../../ChibiOSRepo/chibios191/os/rt/include/chstats.h"
 636              		.file 17 "../../../ChibiOSRepo/chibios191/os/rt/include/chsem.h"
 637              		.file 18 "../../../ChibiOSRepo/chibios191/os/rt/include/chmtx.h"
 638              		.file 19 "../../../ChibiOSRepo/chibios191/os/rt/include/chsys.h"
 639              		.file 20 "../../../ChibiOSRepo/chibios191/os/rt/include/chregistry.h"
 640              		.file 21 "../../../ChibiOSRepo/chibios191/os/oslib/include/chmemcore.h"
 641              		.file 22 "../../../ChibiOSRepo/chibios191/os/oslib/include/chmempools.h"
 642              		.file 23 "../../../ChibiOSRepo/chibios191/os/oslib/include/chfactory.h"
 643              		.file 24 "../../../ChibiOSRepo/chibios191/os/rt/include/ch.h"
 644              		.section	.debug_info,"",%progbits
 645              	.Ldebug_info0:
 646 0000 D70E0000 		.4byte	0xed7
 647 0004 0400     		.2byte	0x4
 648 0006 00000000 		.4byte	.Ldebug_abbrev0
 649 000a 04       		.byte	0x4
 650 000b 01       		.uleb128 0x1
 651 000c 0B050000 		.4byte	.LASF186
 652 0010 0C       		.byte	0xc
 653 0011 7F070000 		.4byte	.LASF187
 654 0015 FA020000 		.4byte	.LASF188
 655 0019 00000000 		.4byte	.Ltext0
 656 001d F0010000 		.4byte	.Letext0-.Ltext0
 657 0021 00000000 		.4byte	.Ldebug_line0
 658 0025 02       		.uleb128 0x2
 659 0026 04       		.byte	0x4
 660 0027 05       		.byte	0x5
 661 0028 696E7400 		.ascii	"int\000"
 662 002c 03       		.uleb128 0x3
ARM GAS  C:\Users\RAKIBU~1\AppData\Local\Temp\ccsr67Nb.s 			page 13


 663 002d 0D000000 		.4byte	.LASF4
 664 0031 03       		.byte	0x3
 665 0032 D8       		.byte	0xd8
 666 0033 37000000 		.4byte	0x37
 667 0037 04       		.uleb128 0x4
 668 0038 04       		.byte	0x4
 669 0039 07       		.byte	0x7
 670 003a 92020000 		.4byte	.LASF0
 671 003e 04       		.uleb128 0x4
 672 003f 08       		.byte	0x8
 673 0040 05       		.byte	0x5
 674 0041 55010000 		.4byte	.LASF1
 675 0045 04       		.uleb128 0x4
 676 0046 08       		.byte	0x8
 677 0047 04       		.byte	0x4
 678 0048 B8040000 		.4byte	.LASF2
 679 004c 04       		.uleb128 0x4
 680 004d 01       		.byte	0x1
 681 004e 06       		.byte	0x6
 682 004f 63010000 		.4byte	.LASF3
 683 0053 03       		.uleb128 0x3
 684 0054 3C000000 		.4byte	.LASF5
 685 0058 04       		.byte	0x4
 686 0059 2B       		.byte	0x2b
 687 005a 5E000000 		.4byte	0x5e
 688 005e 04       		.uleb128 0x4
 689 005f 01       		.byte	0x1
 690 0060 08       		.byte	0x8
 691 0061 6E060000 		.4byte	.LASF6
 692 0065 04       		.uleb128 0x4
 693 0066 02       		.byte	0x2
 694 0067 05       		.byte	0x5
 695 0068 99060000 		.4byte	.LASF7
 696 006c 03       		.uleb128 0x3
 697 006d BC070000 		.4byte	.LASF8
 698 0071 04       		.byte	0x4
 699 0072 39       		.byte	0x39
 700 0073 77000000 		.4byte	0x77
 701 0077 04       		.uleb128 0x4
 702 0078 02       		.byte	0x2
 703 0079 07       		.byte	0x7
 704 007a 3A080000 		.4byte	.LASF9
 705 007e 03       		.uleb128 0x3
 706 007f 25040000 		.4byte	.LASF10
 707 0083 04       		.byte	0x4
 708 0084 4D       		.byte	0x4d
 709 0085 89000000 		.4byte	0x89
 710 0089 04       		.uleb128 0x4
 711 008a 04       		.byte	0x4
 712 008b 05       		.byte	0x5
 713 008c AA010000 		.4byte	.LASF11
 714 0090 03       		.uleb128 0x3
 715 0091 1C020000 		.4byte	.LASF12
 716 0095 04       		.byte	0x4
 717 0096 4F       		.byte	0x4f
 718 0097 9B000000 		.4byte	0x9b
 719 009b 04       		.uleb128 0x4
ARM GAS  C:\Users\RAKIBU~1\AppData\Local\Temp\ccsr67Nb.s 			page 14


 720 009c 04       		.byte	0x4
 721 009d 07       		.byte	0x7
 722 009e 5B070000 		.4byte	.LASF13
 723 00a2 03       		.uleb128 0x3
 724 00a3 D9050000 		.4byte	.LASF14
 725 00a7 04       		.byte	0x4
 726 00a8 69       		.byte	0x69
 727 00a9 AD000000 		.4byte	0xad
 728 00ad 04       		.uleb128 0x4
 729 00ae 08       		.byte	0x8
 730 00af 07       		.byte	0x7
 731 00b0 BE000000 		.4byte	.LASF15
 732 00b4 03       		.uleb128 0x3
 733 00b5 BC080000 		.4byte	.LASF16
 734 00b9 05       		.byte	0x5
 735 00ba 18       		.byte	0x18
 736 00bb 53000000 		.4byte	0x53
 737 00bf 05       		.uleb128 0x5
 738 00c0 B4000000 		.4byte	0xb4
 739 00c4 03       		.uleb128 0x3
 740 00c5 ED010000 		.4byte	.LASF17
 741 00c9 05       		.byte	0x5
 742 00ca 24       		.byte	0x24
 743 00cb 6C000000 		.4byte	0x6c
 744 00cf 03       		.uleb128 0x3
 745 00d0 66060000 		.4byte	.LASF18
 746 00d4 05       		.byte	0x5
 747 00d5 2C       		.byte	0x2c
 748 00d6 7E000000 		.4byte	0x7e
 749 00da 06       		.uleb128 0x6
 750 00db CF000000 		.4byte	0xcf
 751 00df 03       		.uleb128 0x3
 752 00e0 35070000 		.4byte	.LASF19
 753 00e4 05       		.byte	0x5
 754 00e5 30       		.byte	0x30
 755 00e6 90000000 		.4byte	0x90
 756 00ea 03       		.uleb128 0x3
 757 00eb 26000000 		.4byte	.LASF20
 758 00ef 05       		.byte	0x5
 759 00f0 3C       		.byte	0x3c
 760 00f1 A2000000 		.4byte	0xa2
 761 00f5 03       		.uleb128 0x3
 762 00f6 76040000 		.4byte	.LASF21
 763 00fa 06       		.byte	0x6
 764 00fb 27       		.byte	0x27
 765 00fc DF000000 		.4byte	0xdf
 766 0100 03       		.uleb128 0x3
 767 0101 4C010000 		.4byte	.LASF22
 768 0105 06       		.byte	0x6
 769 0106 28       		.byte	0x28
 770 0107 EA000000 		.4byte	0xea
 771 010b 03       		.uleb128 0x3
 772 010c D2030000 		.4byte	.LASF23
 773 0110 06       		.byte	0x6
 774 0111 2A       		.byte	0x2a
 775 0112 B4000000 		.4byte	0xb4
 776 0116 03       		.uleb128 0x3
ARM GAS  C:\Users\RAKIBU~1\AppData\Local\Temp\ccsr67Nb.s 			page 15


 777 0117 BD010000 		.4byte	.LASF24
 778 011b 06       		.byte	0x6
 779 011c 2B       		.byte	0x2b
 780 011d B4000000 		.4byte	0xb4
 781 0121 03       		.uleb128 0x3
 782 0122 06060000 		.4byte	.LASF25
 783 0126 06       		.byte	0x6
 784 0127 2C       		.byte	0x2c
 785 0128 B4000000 		.4byte	0xb4
 786 012c 03       		.uleb128 0x3
 787 012d 46060000 		.4byte	.LASF26
 788 0131 06       		.byte	0x6
 789 0132 2E       		.byte	0x2e
 790 0133 DF000000 		.4byte	0xdf
 791 0137 03       		.uleb128 0x3
 792 0138 97030000 		.4byte	.LASF27
 793 013c 06       		.byte	0x6
 794 013d 2F       		.byte	0x2f
 795 013e CF000000 		.4byte	0xcf
 796 0142 03       		.uleb128 0x3
 797 0143 04040000 		.4byte	.LASF28
 798 0147 06       		.byte	0x6
 799 0148 31       		.byte	0x31
 800 0149 DF000000 		.4byte	0xdf
 801 014d 03       		.uleb128 0x3
 802 014e 83020000 		.4byte	.LASF29
 803 0152 06       		.byte	0x6
 804 0153 33       		.byte	0x33
 805 0154 CF000000 		.4byte	0xcf
 806 0158 03       		.uleb128 0x3
 807 0159 9D030000 		.4byte	.LASF30
 808 015d 06       		.byte	0x6
 809 015e 34       		.byte	0x34
 810 015f DF000000 		.4byte	0xdf
 811 0163 03       		.uleb128 0x3
 812 0164 DC070000 		.4byte	.LASF31
 813 0168 07       		.byte	0x7
 814 0169 34       		.byte	0x34
 815 016a 6E010000 		.4byte	0x16e
 816 016e 07       		.uleb128 0x7
 817 016f 8D030000 		.4byte	.LASF50
 818 0173 60       		.byte	0x60
 819 0174 08       		.byte	0x8
 820 0175 8E       		.byte	0x8e
 821 0176 59020000 		.4byte	0x259
 822 017a 08       		.uleb128 0x8
 823 017b EE020000 		.4byte	.LASF32
 824 017f 08       		.byte	0x8
 825 0180 8F       		.byte	0x8f
 826 0181 8E020000 		.4byte	0x28e
 827 0185 00       		.byte	0
 828 0186 08       		.uleb128 0x8
 829 0187 A5050000 		.4byte	.LASF33
 830 018b 08       		.byte	0x8
 831 018c 90       		.byte	0x90
 832 018d 2C010000 		.4byte	0x12c
 833 0191 08       		.byte	0x8
ARM GAS  C:\Users\RAKIBU~1\AppData\Local\Temp\ccsr67Nb.s 			page 16


 834 0192 09       		.uleb128 0x9
 835 0193 63747800 		.ascii	"ctx\000"
 836 0197 08       		.byte	0x8
 837 0198 91       		.byte	0x91
 838 0199 25050000 		.4byte	0x525
 839 019d 0C       		.byte	0xc
 840 019e 08       		.uleb128 0x8
 841 019f 3A040000 		.4byte	.LASF34
 842 01a3 08       		.byte	0x8
 843 01a4 93       		.byte	0x93
 844 01a5 64020000 		.4byte	0x264
 845 01a9 10       		.byte	0x10
 846 01aa 08       		.uleb128 0x8
 847 01ab 79070000 		.4byte	.LASF35
 848 01af 08       		.byte	0x8
 849 01b0 94       		.byte	0x94
 850 01b1 64020000 		.4byte	0x264
 851 01b5 14       		.byte	0x14
 852 01b6 08       		.uleb128 0x8
 853 01b7 88030000 		.4byte	.LASF36
 854 01bb 08       		.byte	0x8
 855 01bc 9B       		.byte	0x9b
 856 01bd F5050000 		.4byte	0x5f5
 857 01c1 18       		.byte	0x18
 858 01c2 08       		.uleb128 0x8
 859 01c3 6D070000 		.4byte	.LASF37
 860 01c7 08       		.byte	0x8
 861 01c8 A4       		.byte	0xa4
 862 01c9 A4080000 		.4byte	0x8a4
 863 01cd 1C       		.byte	0x1c
 864 01ce 08       		.uleb128 0x8
 865 01cf A4010000 		.4byte	.LASF38
 866 01d3 08       		.byte	0x8
 867 01d4 A9       		.byte	0xa9
 868 01d5 16010000 		.4byte	0x116
 869 01d9 20       		.byte	0x20
 870 01da 08       		.uleb128 0x8
 871 01db C4080000 		.4byte	.LASF39
 872 01df 08       		.byte	0x8
 873 01e0 AD       		.byte	0xad
 874 01e1 0B010000 		.4byte	0x10b
 875 01e5 21       		.byte	0x21
 876 01e6 08       		.uleb128 0x8
 877 01e7 2C060000 		.4byte	.LASF40
 878 01eb 08       		.byte	0x8
 879 01ec B2       		.byte	0xb2
 880 01ed 21010000 		.4byte	0x121
 881 01f1 22       		.byte	0x22
 882 01f2 0A       		.uleb128 0xa
 883 01f3 7500     		.ascii	"u\000"
 884 01f5 08       		.byte	0x8
 885 01f6 0301     		.2byte	0x103
 886 01f8 DA070000 		.4byte	0x7da
 887 01fc 24       		.byte	0x24
 888 01fd 0B       		.uleb128 0xb
 889 01fe 49020000 		.4byte	.LASF41
 890 0202 08       		.byte	0x8
ARM GAS  C:\Users\RAKIBU~1\AppData\Local\Temp\ccsr67Nb.s 			page 17


 891 0203 0801     		.2byte	0x108
 892 0205 6A020000 		.4byte	0x26a
 893 0209 28       		.byte	0x28
 894 020a 0B       		.uleb128 0xb
 895 020b 89020000 		.4byte	.LASF42
 896 020f 08       		.byte	0x8
 897 0210 0E01     		.2byte	0x10e
 898 0212 8E020000 		.4byte	0x28e
 899 0216 2C       		.byte	0x2c
 900 0217 0B       		.uleb128 0xb
 901 0218 A4030000 		.4byte	.LASF43
 902 021c 08       		.byte	0x8
 903 021d 1401     		.2byte	0x114
 904 021f 42010000 		.4byte	0x142
 905 0223 34       		.byte	0x34
 906 0224 0B       		.uleb128 0xb
 907 0225 2F090000 		.4byte	.LASF44
 908 0229 08       		.byte	0x8
 909 022a 1B01     		.2byte	0x11b
 910 022c 9E080000 		.4byte	0x89e
 911 0230 38       		.byte	0x38
 912 0231 0B       		.uleb128 0xb
 913 0232 5B040000 		.4byte	.LASF45
 914 0236 08       		.byte	0x8
 915 0237 1F01     		.2byte	0x11f
 916 0239 2C010000 		.4byte	0x12c
 917 023d 3C       		.byte	0x3c
 918 023e 0B       		.uleb128 0xb
 919 023f F4020000 		.4byte	.LASF46
 920 0243 08       		.byte	0x8
 921 0244 2601     		.2byte	0x126
 922 0246 41030000 		.4byte	0x341
 923 024a 40       		.byte	0x40
 924 024b 0B       		.uleb128 0xb
 925 024c DC010000 		.4byte	.LASF47
 926 0250 08       		.byte	0x8
 927 0251 2C01     		.2byte	0x12c
 928 0253 8B070000 		.4byte	0x78b
 929 0257 48       		.byte	0x48
 930 0258 00       		.byte	0
 931 0259 03       		.uleb128 0x3
 932 025a 7E040000 		.4byte	.LASF48
 933 025e 07       		.byte	0x7
 934 025f 39       		.byte	0x39
 935 0260 64020000 		.4byte	0x264
 936 0264 0C       		.uleb128 0xc
 937 0265 04       		.byte	0x4
 938 0266 63010000 		.4byte	0x163
 939 026a 03       		.uleb128 0x3
 940 026b ED080000 		.4byte	.LASF49
 941 026f 07       		.byte	0x7
 942 0270 3E       		.byte	0x3e
 943 0271 75020000 		.4byte	0x275
 944 0275 07       		.uleb128 0x7
 945 0276 45070000 		.4byte	.LASF51
 946 027a 04       		.byte	0x4
 947 027b 08       		.byte	0x8
ARM GAS  C:\Users\RAKIBU~1\AppData\Local\Temp\ccsr67Nb.s 			page 18


 948 027c 7C       		.byte	0x7c
 949 027d 8E020000 		.4byte	0x28e
 950 0281 08       		.uleb128 0x8
 951 0282 14000000 		.4byte	.LASF52
 952 0286 08       		.byte	0x8
 953 0287 7D       		.byte	0x7d
 954 0288 64020000 		.4byte	0x264
 955 028c 00       		.byte	0
 956 028d 00       		.byte	0
 957 028e 03       		.uleb128 0x3
 958 028f 8F080000 		.4byte	.LASF53
 959 0293 07       		.byte	0x7
 960 0294 45       		.byte	0x45
 961 0295 99020000 		.4byte	0x299
 962 0299 07       		.uleb128 0x7
 963 029a 57000000 		.4byte	.LASF54
 964 029e 08       		.byte	0x8
 965 029f 08       		.byte	0x8
 966 02a0 83       		.byte	0x83
 967 02a1 BE020000 		.4byte	0x2be
 968 02a5 08       		.uleb128 0x8
 969 02a6 14000000 		.4byte	.LASF52
 970 02aa 08       		.byte	0x8
 971 02ab 84       		.byte	0x84
 972 02ac 64020000 		.4byte	0x264
 973 02b0 00       		.byte	0
 974 02b1 08       		.uleb128 0x8
 975 02b2 46000000 		.4byte	.LASF55
 976 02b6 08       		.byte	0x8
 977 02b7 85       		.byte	0x85
 978 02b8 64020000 		.4byte	0x264
 979 02bc 04       		.byte	0x4
 980 02bd 00       		.byte	0
 981 02be 03       		.uleb128 0x3
 982 02bf 00000000 		.4byte	.LASF56
 983 02c3 07       		.byte	0x7
 984 02c4 4C       		.byte	0x4c
 985 02c5 C9020000 		.4byte	0x2c9
 986 02c9 0D       		.uleb128 0xd
 987 02ca F6030000 		.4byte	.LASF57
 988 02ce 1C       		.byte	0x1c
 989 02cf 08       		.byte	0x8
 990 02d0 5E01     		.2byte	0x15e
 991 02d2 25030000 		.4byte	0x325
 992 02d6 0B       		.uleb128 0xb
 993 02d7 EE020000 		.4byte	.LASF32
 994 02db 08       		.byte	0x8
 995 02dc 5F01     		.2byte	0x15f
 996 02de 8E020000 		.4byte	0x28e
 997 02e2 00       		.byte	0
 998 02e3 0B       		.uleb128 0xb
 999 02e4 A5050000 		.4byte	.LASF33
 1000 02e8 08       		.byte	0x8
 1001 02e9 6001     		.2byte	0x160
 1002 02eb 2C010000 		.4byte	0x12c
 1003 02ef 08       		.byte	0x8
 1004 02f0 0A       		.uleb128 0xa
ARM GAS  C:\Users\RAKIBU~1\AppData\Local\Temp\ccsr67Nb.s 			page 19


 1005 02f1 63747800 		.ascii	"ctx\000"
 1006 02f5 08       		.byte	0x8
 1007 02f6 6201     		.2byte	0x162
 1008 02f8 25050000 		.4byte	0x525
 1009 02fc 0C       		.byte	0xc
 1010 02fd 0B       		.uleb128 0xb
 1011 02fe 3A040000 		.4byte	.LASF34
 1012 0302 08       		.byte	0x8
 1013 0303 6501     		.2byte	0x165
 1014 0305 64020000 		.4byte	0x264
 1015 0309 10       		.byte	0x10
 1016 030a 0B       		.uleb128 0xb
 1017 030b 79070000 		.4byte	.LASF35
 1018 030f 08       		.byte	0x8
 1019 0310 6601     		.2byte	0x166
 1020 0312 64020000 		.4byte	0x264
 1021 0316 14       		.byte	0x14
 1022 0317 0B       		.uleb128 0xb
 1023 0318 CC050000 		.4byte	.LASF58
 1024 031c 08       		.byte	0x8
 1025 031d 6901     		.2byte	0x169
 1026 031f 64020000 		.4byte	0x264
 1027 0323 18       		.byte	0x18
 1028 0324 00       		.byte	0
 1029 0325 03       		.uleb128 0x3
 1030 0326 FF070000 		.4byte	.LASF59
 1031 032a 07       		.byte	0x7
 1032 032b 51       		.byte	0x51
 1033 032c 30030000 		.4byte	0x330
 1034 0330 0C       		.uleb128 0xc
 1035 0331 04       		.byte	0x4
 1036 0332 36030000 		.4byte	0x336
 1037 0336 0E       		.uleb128 0xe
 1038 0337 41030000 		.4byte	0x341
 1039 033b 0F       		.uleb128 0xf
 1040 033c 41030000 		.4byte	0x341
 1041 0340 00       		.byte	0
 1042 0341 10       		.uleb128 0x10
 1043 0342 04       		.byte	0x4
 1044 0343 03       		.uleb128 0x3
 1045 0344 31060000 		.4byte	.LASF60
 1046 0348 07       		.byte	0x7
 1047 0349 56       		.byte	0x56
 1048 034a 4E030000 		.4byte	0x34e
 1049 034e 0D       		.uleb128 0xd
 1050 034f E9060000 		.4byte	.LASF61
 1051 0353 18       		.byte	0x18
 1052 0354 08       		.byte	0x8
 1053 0355 3901     		.2byte	0x139
 1054 0357 9D030000 		.4byte	0x39d
 1055 035b 0B       		.uleb128 0xb
 1056 035c 14000000 		.4byte	.LASF52
 1057 0360 08       		.byte	0x8
 1058 0361 3A01     		.2byte	0x13a
 1059 0363 AA080000 		.4byte	0x8aa
 1060 0367 00       		.byte	0
 1061 0368 0B       		.uleb128 0xb
ARM GAS  C:\Users\RAKIBU~1\AppData\Local\Temp\ccsr67Nb.s 			page 20


 1062 0369 46000000 		.4byte	.LASF55
 1063 036d 08       		.byte	0x8
 1064 036e 3B01     		.2byte	0x13b
 1065 0370 AA080000 		.4byte	0x8aa
 1066 0374 04       		.byte	0x4
 1067 0375 0B       		.uleb128 0xb
 1068 0376 19000000 		.4byte	.LASF62
 1069 037a 08       		.byte	0x8
 1070 037b 3C01     		.2byte	0x13c
 1071 037d AD040000 		.4byte	0x4ad
 1072 0381 08       		.byte	0x8
 1073 0382 0B       		.uleb128 0xb
 1074 0383 D7010000 		.4byte	.LASF63
 1075 0387 08       		.byte	0x8
 1076 0388 3D01     		.2byte	0x13d
 1077 038a 25030000 		.4byte	0x325
 1078 038e 10       		.byte	0x10
 1079 038f 0A       		.uleb128 0xa
 1080 0390 70617200 		.ascii	"par\000"
 1081 0394 08       		.byte	0x8
 1082 0395 3F01     		.2byte	0x13f
 1083 0397 41030000 		.4byte	0x341
 1084 039b 14       		.byte	0x14
 1085 039c 00       		.byte	0
 1086 039d 03       		.uleb128 0x3
 1087 039e 15010000 		.4byte	.LASF64
 1088 03a2 07       		.byte	0x7
 1089 03a3 5B       		.byte	0x5b
 1090 03a4 A8030000 		.4byte	0x3a8
 1091 03a8 0D       		.uleb128 0xd
 1092 03a9 A1040000 		.4byte	.LASF65
 1093 03ad 18       		.byte	0x18
 1094 03ae 08       		.byte	0x8
 1095 03af 4901     		.2byte	0x149
 1096 03b1 EA030000 		.4byte	0x3ea
 1097 03b5 0B       		.uleb128 0xb
 1098 03b6 14000000 		.4byte	.LASF52
 1099 03ba 08       		.byte	0x8
 1100 03bb 4A01     		.2byte	0x14a
 1101 03bd AA080000 		.4byte	0x8aa
 1102 03c1 00       		.byte	0
 1103 03c2 0B       		.uleb128 0xb
 1104 03c3 46000000 		.4byte	.LASF55
 1105 03c7 08       		.byte	0x8
 1106 03c8 4C01     		.2byte	0x14c
 1107 03ca AA080000 		.4byte	0x8aa
 1108 03ce 04       		.byte	0x4
 1109 03cf 0B       		.uleb128 0xb
 1110 03d0 19000000 		.4byte	.LASF62
 1111 03d4 08       		.byte	0x8
 1112 03d5 4E01     		.2byte	0x14e
 1113 03d7 AD040000 		.4byte	0x4ad
 1114 03db 08       		.byte	0x8
 1115 03dc 0B       		.uleb128 0xb
 1116 03dd A3060000 		.4byte	.LASF66
 1117 03e1 08       		.byte	0x8
 1118 03e2 5601     		.2byte	0x156
ARM GAS  C:\Users\RAKIBU~1\AppData\Local\Temp\ccsr67Nb.s 			page 21


 1119 03e4 A2040000 		.4byte	0x4a2
 1120 03e8 10       		.byte	0x10
 1121 03e9 00       		.byte	0
 1122 03ea 03       		.uleb128 0x3
 1123 03eb 68000000 		.4byte	.LASF67
 1124 03ef 07       		.byte	0x7
 1125 03f0 60       		.byte	0x60
 1126 03f1 F5030000 		.4byte	0x3f5
 1127 03f5 11       		.uleb128 0x11
 1128 03f6 39020000 		.4byte	.LASF68
 1129 03fa 1408     		.2byte	0x814
 1130 03fc 08       		.byte	0x8
 1131 03fd 7001     		.2byte	0x170
 1132 03ff 38040000 		.4byte	0x438
 1133 0403 0B       		.uleb128 0xb
 1134 0404 16080000 		.4byte	.LASF69
 1135 0408 08       		.byte	0x8
 1136 0409 7801     		.2byte	0x178
 1137 040b FB050000 		.4byte	0x5fb
 1138 040f 00       		.byte	0
 1139 0410 0B       		.uleb128 0xb
 1140 0411 AB080000 		.4byte	.LASF70
 1141 0415 08       		.byte	0x8
 1142 0416 7D01     		.2byte	0x17d
 1143 0418 4D010000 		.4byte	0x14d
 1144 041c 04       		.byte	0x4
 1145 041d 0B       		.uleb128 0xb
 1146 041e 6C020000 		.4byte	.LASF71
 1147 0422 08       		.byte	0x8
 1148 0423 8101     		.2byte	0x181
 1149 0425 4D010000 		.4byte	0x14d
 1150 0429 08       		.byte	0x8
 1151 042a 0B       		.uleb128 0xb
 1152 042b 06090000 		.4byte	.LASF72
 1153 042f 08       		.byte	0x8
 1154 0430 8701     		.2byte	0x187
 1155 0432 1D070000 		.4byte	0x71d
 1156 0436 0C       		.byte	0xc
 1157 0437 00       		.byte	0
 1158 0438 03       		.uleb128 0x3
 1159 0439 BE030000 		.4byte	.LASF73
 1160 043d 07       		.byte	0x7
 1161 043e 65       		.byte	0x65
 1162 043f 43040000 		.4byte	0x443
 1163 0443 11       		.uleb128 0x11
 1164 0444 B8060000 		.4byte	.LASF74
 1165 0448 F008     		.2byte	0x8f0
 1166 044a 08       		.byte	0x8
 1167 044b 9001     		.2byte	0x190
 1168 044d A2040000 		.4byte	0x4a2
 1169 0451 0B       		.uleb128 0xb
 1170 0452 83010000 		.4byte	.LASF75
 1171 0456 08       		.byte	0x8
 1172 0457 9401     		.2byte	0x194
 1173 0459 BE020000 		.4byte	0x2be
 1174 045d 00       		.byte	0
 1175 045e 0B       		.uleb128 0xb
ARM GAS  C:\Users\RAKIBU~1\AppData\Local\Temp\ccsr67Nb.s 			page 22


 1176 045f 91010000 		.4byte	.LASF76
 1177 0463 08       		.byte	0x8
 1178 0464 9801     		.2byte	0x198
 1179 0466 9D030000 		.4byte	0x39d
 1180 046a 20       		.byte	0x20
 1181 046b 0A       		.uleb128 0xa
 1182 046c 64626700 		.ascii	"dbg\000"
 1183 0470 08       		.byte	0x8
 1184 0471 9C01     		.2byte	0x19c
 1185 0473 EA030000 		.4byte	0x3ea
 1186 0477 38       		.byte	0x38
 1187 0478 12       		.uleb128 0x12
 1188 0479 02010000 		.4byte	.LASF77
 1189 047d 08       		.byte	0x8
 1190 047e A001     		.2byte	0x1a0
 1191 0480 63010000 		.4byte	0x163
 1192 0484 5008     		.2byte	0x850
 1193 0486 13       		.uleb128 0x13
 1194 0487 746D00   		.ascii	"tm\000"
 1195 048a 08       		.byte	0x8
 1196 048b A501     		.2byte	0x1a5
 1197 048d 3D070000 		.4byte	0x73d
 1198 0491 B008     		.2byte	0x8b0
 1199 0493 12       		.uleb128 0x12
 1200 0494 2F000000 		.4byte	.LASF78
 1201 0498 08       		.byte	0x8
 1202 0499 AB01     		.2byte	0x1ab
 1203 049b CF070000 		.4byte	0x7cf
 1204 049f B808     		.2byte	0x8b8
 1205 04a1 00       		.byte	0
 1206 04a2 03       		.uleb128 0x3
 1207 04a3 F5070000 		.4byte	.LASF79
 1208 04a7 09       		.byte	0x9
 1209 04a8 6D       		.byte	0x6d
 1210 04a9 DF000000 		.4byte	0xdf
 1211 04ad 03       		.uleb128 0x3
 1212 04ae 75020000 		.4byte	.LASF80
 1213 04b2 09       		.byte	0x9
 1214 04b3 77       		.byte	0x77
 1215 04b4 EA000000 		.4byte	0xea
 1216 04b8 14       		.uleb128 0x14
 1217 04b9 2B010000 		.4byte	.LASF81
 1218 04bd 0A       		.byte	0xa
 1219 04be 0408     		.2byte	0x804
 1220 04c0 DA000000 		.4byte	0xda
 1221 04c4 15       		.uleb128 0x15
 1222 04c5 9F020000 		.4byte	.LASF82
 1223 04c9 0B       		.byte	0xb
 1224 04ca 4C       		.byte	0x4c
 1225 04cb DF000000 		.4byte	0xdf
 1226 04cf 16       		.uleb128 0x16
 1227 04d0 BF000000 		.4byte	0xbf
 1228 04d4 DF040000 		.4byte	0x4df
 1229 04d8 17       		.uleb128 0x17
 1230 04d9 37000000 		.4byte	0x37
 1231 04dd 0F       		.byte	0xf
 1232 04de 00       		.byte	0
ARM GAS  C:\Users\RAKIBU~1\AppData\Local\Temp\ccsr67Nb.s 			page 23


 1233 04df 05       		.uleb128 0x5
 1234 04e0 CF040000 		.4byte	0x4cf
 1235 04e4 15       		.uleb128 0x15
 1236 04e5 10040000 		.4byte	.LASF83
 1237 04e9 0B       		.byte	0xb
 1238 04ea 4E       		.byte	0x4e
 1239 04eb DF040000 		.4byte	0x4df
 1240 04ef 16       		.uleb128 0x16
 1241 04f0 BF000000 		.4byte	0xbf
 1242 04f4 FF040000 		.4byte	0x4ff
 1243 04f8 17       		.uleb128 0x17
 1244 04f9 37000000 		.4byte	0x37
 1245 04fd 07       		.byte	0x7
 1246 04fe 00       		.byte	0
 1247 04ff 05       		.uleb128 0x5
 1248 0500 EF040000 		.4byte	0x4ef
 1249 0504 15       		.uleb128 0x15
 1250 0505 51020000 		.4byte	.LASF84
 1251 0509 0B       		.byte	0xb
 1252 050a 4F       		.byte	0x4f
 1253 050b FF040000 		.4byte	0x4ff
 1254 050f 03       		.uleb128 0x3
 1255 0510 27020000 		.4byte	.LASF85
 1256 0514 0C       		.byte	0xc
 1257 0515 65       		.byte	0x65
 1258 0516 41030000 		.4byte	0x341
 1259 051a 03       		.uleb128 0x3
 1260 051b 2F040000 		.4byte	.LASF86
 1261 051f 0C       		.byte	0xc
 1262 0520 6D       		.byte	0x6d
 1263 0521 EA000000 		.4byte	0xea
 1264 0525 07       		.uleb128 0x7
 1265 0526 98000000 		.4byte	.LASF87
 1266 052a 04       		.byte	0x4
 1267 052b 0C       		.byte	0xc
 1268 052c 89       		.byte	0x89
 1269 052d 3D050000 		.4byte	0x53d
 1270 0531 09       		.uleb128 0x9
 1271 0532 737000   		.ascii	"sp\000"
 1272 0535 0C       		.byte	0xc
 1273 0536 8A       		.byte	0x8a
 1274 0537 B9050000 		.4byte	0x5b9
 1275 053b 00       		.byte	0
 1276 053c 00       		.byte	0
 1277 053d 0D       		.uleb128 0xd
 1278 053e 4B000000 		.4byte	.LASF88
 1279 0542 24       		.byte	0x24
 1280 0543 0D       		.byte	0xd
 1281 0544 6001     		.2byte	0x160
 1282 0546 B9050000 		.4byte	0x5b9
 1283 054a 0A       		.uleb128 0xa
 1284 054b 723400   		.ascii	"r4\000"
 1285 054e 0D       		.byte	0xd
 1286 054f 7301     		.2byte	0x173
 1287 0551 0F050000 		.4byte	0x50f
 1288 0555 00       		.byte	0
 1289 0556 0A       		.uleb128 0xa
ARM GAS  C:\Users\RAKIBU~1\AppData\Local\Temp\ccsr67Nb.s 			page 24


 1290 0557 723500   		.ascii	"r5\000"
 1291 055a 0D       		.byte	0xd
 1292 055b 7401     		.2byte	0x174
 1293 055d 0F050000 		.4byte	0x50f
 1294 0561 04       		.byte	0x4
 1295 0562 0A       		.uleb128 0xa
 1296 0563 723600   		.ascii	"r6\000"
 1297 0566 0D       		.byte	0xd
 1298 0567 7501     		.2byte	0x175
 1299 0569 0F050000 		.4byte	0x50f
 1300 056d 08       		.byte	0x8
 1301 056e 0A       		.uleb128 0xa
 1302 056f 723700   		.ascii	"r7\000"
 1303 0572 0D       		.byte	0xd
 1304 0573 7601     		.2byte	0x176
 1305 0575 0F050000 		.4byte	0x50f
 1306 0579 0C       		.byte	0xc
 1307 057a 0A       		.uleb128 0xa
 1308 057b 723800   		.ascii	"r8\000"
 1309 057e 0D       		.byte	0xd
 1310 057f 7701     		.2byte	0x177
 1311 0581 0F050000 		.4byte	0x50f
 1312 0585 10       		.byte	0x10
 1313 0586 0A       		.uleb128 0xa
 1314 0587 723900   		.ascii	"r9\000"
 1315 058a 0D       		.byte	0xd
 1316 058b 7801     		.2byte	0x178
 1317 058d 0F050000 		.4byte	0x50f
 1318 0591 14       		.byte	0x14
 1319 0592 0A       		.uleb128 0xa
 1320 0593 72313000 		.ascii	"r10\000"
 1321 0597 0D       		.byte	0xd
 1322 0598 7901     		.2byte	0x179
 1323 059a 0F050000 		.4byte	0x50f
 1324 059e 18       		.byte	0x18
 1325 059f 0A       		.uleb128 0xa
 1326 05a0 72313100 		.ascii	"r11\000"
 1327 05a4 0D       		.byte	0xd
 1328 05a5 7A01     		.2byte	0x17a
 1329 05a7 0F050000 		.4byte	0x50f
 1330 05ab 1C       		.byte	0x1c
 1331 05ac 0A       		.uleb128 0xa
 1332 05ad 6C7200   		.ascii	"lr\000"
 1333 05b0 0D       		.byte	0xd
 1334 05b1 7B01     		.2byte	0x17b
 1335 05b3 0F050000 		.4byte	0x50f
 1336 05b7 20       		.byte	0x20
 1337 05b8 00       		.byte	0
 1338 05b9 0C       		.uleb128 0xc
 1339 05ba 04       		.byte	0x4
 1340 05bb 3D050000 		.4byte	0x53d
 1341 05bf 18       		.uleb128 0x18
 1342 05c0 08       		.byte	0x8
 1343 05c1 0E       		.byte	0xe
 1344 05c2 7F       		.byte	0x7f
 1345 05c3 E0050000 		.4byte	0x5e0
 1346 05c7 09       		.uleb128 0x9
ARM GAS  C:\Users\RAKIBU~1\AppData\Local\Temp\ccsr67Nb.s 			page 25


 1347 05c8 6E747000 		.ascii	"ntp\000"
 1348 05cc 0E       		.byte	0xe
 1349 05cd 83       		.byte	0x83
 1350 05ce 64020000 		.4byte	0x264
 1351 05d2 00       		.byte	0
 1352 05d3 08       		.uleb128 0x8
 1353 05d4 E6080000 		.4byte	.LASF89
 1354 05d8 0E       		.byte	0xe
 1355 05d9 87       		.byte	0x87
 1356 05da 41030000 		.4byte	0x341
 1357 05de 04       		.byte	0x4
 1358 05df 00       		.byte	0
 1359 05e0 18       		.uleb128 0x18
 1360 05e1 04       		.byte	0x4
 1361 05e2 0E       		.byte	0xe
 1362 05e3 8C       		.byte	0x8c
 1363 05e4 F5050000 		.4byte	0x5f5
 1364 05e8 08       		.uleb128 0x8
 1365 05e9 88030000 		.4byte	.LASF36
 1366 05ed 0E       		.byte	0xe
 1367 05ee 90       		.byte	0x90
 1368 05ef F5050000 		.4byte	0x5f5
 1369 05f3 00       		.byte	0
 1370 05f4 00       		.byte	0
 1371 05f5 0C       		.uleb128 0xc
 1372 05f6 04       		.byte	0x4
 1373 05f7 07060000 		.4byte	0x607
 1374 05fb 06       		.uleb128 0x6
 1375 05fc F5050000 		.4byte	0x5f5
 1376 0600 04       		.uleb128 0x4
 1377 0601 01       		.byte	0x1
 1378 0602 08       		.byte	0x8
 1379 0603 74070000 		.4byte	.LASF90
 1380 0607 05       		.uleb128 0x5
 1381 0608 00060000 		.4byte	0x600
 1382 060c 18       		.uleb128 0x18
 1383 060d 04       		.byte	0x4
 1384 060e 0E       		.byte	0xe
 1385 060f 95       		.byte	0x95
 1386 0610 21060000 		.4byte	0x621
 1387 0614 08       		.uleb128 0x8
 1388 0615 92060000 		.4byte	.LASF91
 1389 0619 0E       		.byte	0xe
 1390 061a 99       		.byte	0x99
 1391 061b F5050000 		.4byte	0x5f5
 1392 061f 00       		.byte	0
 1393 0620 00       		.byte	0
 1394 0621 18       		.uleb128 0x18
 1395 0622 08       		.byte	0x8
 1396 0623 0E       		.byte	0xe
 1397 0624 9E       		.byte	0x9e
 1398 0625 42060000 		.4byte	0x642
 1399 0629 09       		.uleb128 0x9
 1400 062a 75703100 		.ascii	"up1\000"
 1401 062e 0E       		.byte	0xe
 1402 062f A2       		.byte	0xa2
 1403 0630 41030000 		.4byte	0x341
ARM GAS  C:\Users\RAKIBU~1\AppData\Local\Temp\ccsr67Nb.s 			page 26


 1404 0634 00       		.byte	0
 1405 0635 09       		.uleb128 0x9
 1406 0636 75703200 		.ascii	"up2\000"
 1407 063a 0E       		.byte	0xe
 1408 063b A6       		.byte	0xa6
 1409 063c 41030000 		.4byte	0x341
 1410 0640 04       		.byte	0x4
 1411 0641 00       		.byte	0
 1412 0642 19       		.uleb128 0x19
 1413 0643 08       		.byte	0x8
 1414 0644 0E       		.byte	0xe
 1415 0645 7B       		.byte	0x7b
 1416 0646 76060000 		.4byte	0x676
 1417 064a 1A       		.uleb128 0x1a
 1418 064b 737700   		.ascii	"sw\000"
 1419 064e 0E       		.byte	0xe
 1420 064f 88       		.byte	0x88
 1421 0650 BF050000 		.4byte	0x5bf
 1422 0654 1A       		.uleb128 0x1a
 1423 0655 69737200 		.ascii	"isr\000"
 1424 0659 0E       		.byte	0xe
 1425 065a 91       		.byte	0x91
 1426 065b E0050000 		.4byte	0x5e0
 1427 065f 1B       		.uleb128 0x1b
 1428 0660 AC060000 		.4byte	.LASF92
 1429 0664 0E       		.byte	0xe
 1430 0665 9A       		.byte	0x9a
 1431 0666 0C060000 		.4byte	0x60c
 1432 066a 1B       		.uleb128 0x1b
 1433 066b 41060000 		.4byte	.LASF93
 1434 066f 0E       		.byte	0xe
 1435 0670 A7       		.byte	0xa7
 1436 0671 21060000 		.4byte	0x621
 1437 0675 00       		.byte	0
 1438 0676 18       		.uleb128 0x18
 1439 0677 10       		.byte	0x10
 1440 0678 0E       		.byte	0xe
 1441 0679 68       		.byte	0x68
 1442 067a C2060000 		.4byte	0x6c2
 1443 067e 1C       		.uleb128 0x1c
 1444 067f 80000000 		.4byte	.LASF94
 1445 0683 0E       		.byte	0xe
 1446 0684 6C       		.byte	0x6c
 1447 0685 DF000000 		.4byte	0xdf
 1448 0689 04       		.byte	0x4
 1449 068a 03       		.byte	0x3
 1450 068b 1D       		.byte	0x1d
 1451 068c 00       		.byte	0
 1452 068d 1C       		.uleb128 0x1c
 1453 068e A4010000 		.4byte	.LASF38
 1454 0692 0E       		.byte	0xe
 1455 0693 70       		.byte	0x70
 1456 0694 DF000000 		.4byte	0xdf
 1457 0698 04       		.byte	0x4
 1458 0699 05       		.byte	0x5
 1459 069a 18       		.byte	0x18
 1460 069b 00       		.byte	0
ARM GAS  C:\Users\RAKIBU~1\AppData\Local\Temp\ccsr67Nb.s 			page 27


 1461 069c 1C       		.uleb128 0x1c
 1462 069d 40040000 		.4byte	.LASF95
 1463 06a1 0E       		.byte	0xe
 1464 06a2 76       		.byte	0x76
 1465 06a3 DF000000 		.4byte	0xdf
 1466 06a7 04       		.byte	0x4
 1467 06a8 18       		.byte	0x18
 1468 06a9 00       		.byte	0
 1469 06aa 00       		.byte	0
 1470 06ab 08       		.uleb128 0x8
 1471 06ac A0050000 		.4byte	.LASF96
 1472 06b0 0E       		.byte	0xe
 1473 06b1 7A       		.byte	0x7a
 1474 06b2 A2040000 		.4byte	0x4a2
 1475 06b6 04       		.byte	0x4
 1476 06b7 09       		.uleb128 0x9
 1477 06b8 7500     		.ascii	"u\000"
 1478 06ba 0E       		.byte	0xe
 1479 06bb A8       		.byte	0xa8
 1480 06bc 42060000 		.4byte	0x642
 1481 06c0 08       		.byte	0x8
 1482 06c1 00       		.byte	0
 1483 06c2 03       		.uleb128 0x3
 1484 06c3 C6010000 		.4byte	.LASF97
 1485 06c7 0E       		.byte	0xe
 1486 06c8 A9       		.byte	0xa9
 1487 06c9 76060000 		.4byte	0x676
 1488 06cd 1D       		.uleb128 0x1d
 1489 06ce 0808     		.2byte	0x808
 1490 06d0 0E       		.byte	0xe
 1491 06d1 AF       		.byte	0xaf
 1492 06d2 07070000 		.4byte	0x707
 1493 06d6 08       		.uleb128 0x8
 1494 06d7 B3010000 		.4byte	.LASF98
 1495 06db 0E       		.byte	0xe
 1496 06dc B3       		.byte	0xb3
 1497 06dd C4000000 		.4byte	0xc4
 1498 06e1 00       		.byte	0
 1499 06e2 08       		.uleb128 0x8
 1500 06e3 7E010000 		.4byte	.LASF99
 1501 06e7 0E       		.byte	0xe
 1502 06e8 B7       		.byte	0xb7
 1503 06e9 C4000000 		.4byte	0xc4
 1504 06ed 02       		.byte	0x2
 1505 06ee 09       		.uleb128 0x9
 1506 06ef 70747200 		.ascii	"ptr\000"
 1507 06f3 0E       		.byte	0xe
 1508 06f4 BB       		.byte	0xbb
 1509 06f5 07070000 		.4byte	0x707
 1510 06f9 04       		.byte	0x4
 1511 06fa 08       		.uleb128 0x8
 1512 06fb 0C020000 		.4byte	.LASF100
 1513 06ff 0E       		.byte	0xe
 1514 0700 BF       		.byte	0xbf
 1515 0701 0D070000 		.4byte	0x70d
 1516 0705 08       		.byte	0x8
 1517 0706 00       		.byte	0
ARM GAS  C:\Users\RAKIBU~1\AppData\Local\Temp\ccsr67Nb.s 			page 28


 1518 0707 0C       		.uleb128 0xc
 1519 0708 04       		.byte	0x4
 1520 0709 C2060000 		.4byte	0x6c2
 1521 070d 16       		.uleb128 0x16
 1522 070e C2060000 		.4byte	0x6c2
 1523 0712 1D070000 		.4byte	0x71d
 1524 0716 17       		.uleb128 0x17
 1525 0717 37000000 		.4byte	0x37
 1526 071b 7F       		.byte	0x7f
 1527 071c 00       		.byte	0
 1528 071d 03       		.uleb128 0x3
 1529 071e D5000000 		.4byte	.LASF101
 1530 0722 0E       		.byte	0xe
 1531 0723 C0       		.byte	0xc0
 1532 0724 CD060000 		.4byte	0x6cd
 1533 0728 18       		.uleb128 0x18
 1534 0729 04       		.byte	0x4
 1535 072a 0F       		.byte	0xf
 1536 072b 38       		.byte	0x38
 1537 072c 3D070000 		.4byte	0x73d
 1538 0730 08       		.uleb128 0x8
 1539 0731 20080000 		.4byte	.LASF102
 1540 0735 0F       		.byte	0xf
 1541 0736 3C       		.byte	0x3c
 1542 0737 F5000000 		.4byte	0xf5
 1543 073b 00       		.byte	0
 1544 073c 00       		.byte	0
 1545 073d 03       		.uleb128 0x3
 1546 073e FA040000 		.4byte	.LASF103
 1547 0742 0F       		.byte	0xf
 1548 0743 3D       		.byte	0x3d
 1549 0744 28070000 		.4byte	0x728
 1550 0748 18       		.uleb128 0x18
 1551 0749 18       		.byte	0x18
 1552 074a 0F       		.byte	0xf
 1553 074b 48       		.byte	0x48
 1554 074c 8B070000 		.4byte	0x78b
 1555 0750 08       		.uleb128 0x8
 1556 0751 E5070000 		.4byte	.LASF104
 1557 0755 0F       		.byte	0xf
 1558 0756 49       		.byte	0x49
 1559 0757 F5000000 		.4byte	0xf5
 1560 075b 00       		.byte	0
 1561 075c 08       		.uleb128 0x8
 1562 075d A5000000 		.4byte	.LASF105
 1563 0761 0F       		.byte	0xf
 1564 0762 4A       		.byte	0x4a
 1565 0763 F5000000 		.4byte	0xf5
 1566 0767 04       		.byte	0x4
 1567 0768 08       		.uleb128 0x8
 1568 0769 D4050000 		.4byte	.LASF106
 1569 076d 0F       		.byte	0xf
 1570 076e 4B       		.byte	0x4b
 1571 076f F5000000 		.4byte	0xf5
 1572 0773 08       		.byte	0x8
 1573 0774 09       		.uleb128 0x9
 1574 0775 6E00     		.ascii	"n\000"
ARM GAS  C:\Users\RAKIBU~1\AppData\Local\Temp\ccsr67Nb.s 			page 29


 1575 0777 0F       		.byte	0xf
 1576 0778 4C       		.byte	0x4c
 1577 0779 58010000 		.4byte	0x158
 1578 077d 0C       		.byte	0xc
 1579 077e 08       		.uleb128 0x8
 1580 077f EE050000 		.4byte	.LASF107
 1581 0783 0F       		.byte	0xf
 1582 0784 4D       		.byte	0x4d
 1583 0785 00010000 		.4byte	0x100
 1584 0789 10       		.byte	0x10
 1585 078a 00       		.byte	0
 1586 078b 03       		.uleb128 0x3
 1587 078c AB000000 		.4byte	.LASF108
 1588 0790 0F       		.byte	0xf
 1589 0791 4E       		.byte	0x4e
 1590 0792 48070000 		.4byte	0x748
 1591 0796 18       		.uleb128 0x18
 1592 0797 38       		.byte	0x38
 1593 0798 10       		.byte	0x10
 1594 0799 38       		.byte	0x38
 1595 079a CF070000 		.4byte	0x7cf
 1596 079e 08       		.uleb128 0x8
 1597 079f E8020000 		.4byte	.LASF109
 1598 07a3 10       		.byte	0x10
 1599 07a4 39       		.byte	0x39
 1600 07a5 58010000 		.4byte	0x158
 1601 07a9 00       		.byte	0
 1602 07aa 08       		.uleb128 0x8
 1603 07ab 57060000 		.4byte	.LASF110
 1604 07af 10       		.byte	0x10
 1605 07b0 3A       		.byte	0x3a
 1606 07b1 58010000 		.4byte	0x158
 1607 07b5 04       		.byte	0x4
 1608 07b6 08       		.uleb128 0x8
 1609 07b7 37090000 		.4byte	.LASF111
 1610 07bb 10       		.byte	0x10
 1611 07bc 3B       		.byte	0x3b
 1612 07bd 8B070000 		.4byte	0x78b
 1613 07c1 08       		.byte	0x8
 1614 07c2 08       		.uleb128 0x8
 1615 07c3 EB030000 		.4byte	.LASF112
 1616 07c7 10       		.byte	0x10
 1617 07c8 3D       		.byte	0x3d
 1618 07c9 8B070000 		.4byte	0x78b
 1619 07cd 20       		.byte	0x20
 1620 07ce 00       		.byte	0
 1621 07cf 03       		.uleb128 0x3
 1622 07d0 79030000 		.4byte	.LASF113
 1623 07d4 10       		.byte	0x10
 1624 07d5 3F       		.byte	0x3f
 1625 07d6 96070000 		.4byte	0x796
 1626 07da 19       		.uleb128 0x19
 1627 07db 04       		.byte	0x4
 1628 07dc 08       		.byte	0x8
 1629 07dd C6       		.byte	0xc6
 1630 07de 3C080000 		.4byte	0x83c
 1631 07e2 1B       		.uleb128 0x1b
ARM GAS  C:\Users\RAKIBU~1\AppData\Local\Temp\ccsr67Nb.s 			page 30


 1632 07e3 1F000000 		.4byte	.LASF114
 1633 07e7 08       		.byte	0x8
 1634 07e8 CD       		.byte	0xcd
 1635 07e9 37010000 		.4byte	0x137
 1636 07ed 1B       		.uleb128 0x1b
 1637 07ee F9000000 		.4byte	.LASF115
 1638 07f2 08       		.byte	0x8
 1639 07f3 D4       		.byte	0xd4
 1640 07f4 37010000 		.4byte	0x137
 1641 07f8 1B       		.uleb128 0x1b
 1642 07f9 E6080000 		.4byte	.LASF89
 1643 07fd 08       		.byte	0x8
 1644 07fe DB       		.byte	0xdb
 1645 07ff 41030000 		.4byte	0x341
 1646 0803 1B       		.uleb128 0x1b
 1647 0804 CB020000 		.4byte	.LASF116
 1648 0808 08       		.byte	0x8
 1649 0809 E2       		.byte	0xe2
 1650 080a 3C080000 		.4byte	0x83c
 1651 080e 1B       		.uleb128 0x1b
 1652 080f 0D010000 		.4byte	.LASF117
 1653 0813 08       		.byte	0x8
 1654 0814 E7       		.byte	0xe7
 1655 0815 37010000 		.4byte	0x137
 1656 0819 1B       		.uleb128 0x1b
 1657 081a C4020000 		.4byte	.LASF118
 1658 081e 08       		.byte	0x8
 1659 081f F0       		.byte	0xf0
 1660 0820 67080000 		.4byte	0x867
 1661 0824 1B       		.uleb128 0x1b
 1662 0825 3E070000 		.4byte	.LASF119
 1663 0829 08       		.byte	0x8
 1664 082a F9       		.byte	0xf9
 1665 082b 9E080000 		.4byte	0x89e
 1666 082f 1E       		.uleb128 0x1e
 1667 0830 B1060000 		.4byte	.LASF120
 1668 0834 08       		.byte	0x8
 1669 0835 0101     		.2byte	0x101
 1670 0837 42010000 		.4byte	0x142
 1671 083b 00       		.byte	0
 1672 083c 0C       		.uleb128 0xc
 1673 083d 04       		.byte	0x4
 1674 083e 59020000 		.4byte	0x259
 1675 0842 07       		.uleb128 0x7
 1676 0843 FA060000 		.4byte	.LASF121
 1677 0847 0C       		.byte	0xc
 1678 0848 11       		.byte	0x11
 1679 0849 34       		.byte	0x34
 1680 084a 67080000 		.4byte	0x867
 1681 084e 08       		.uleb128 0x8
 1682 084f EE020000 		.4byte	.LASF32
 1683 0853 11       		.byte	0x11
 1684 0854 35       		.byte	0x35
 1685 0855 8E020000 		.4byte	0x28e
 1686 0859 00       		.byte	0
 1687 085a 09       		.uleb128 0x9
 1688 085b 636E7400 		.ascii	"cnt\000"
ARM GAS  C:\Users\RAKIBU~1\AppData\Local\Temp\ccsr67Nb.s 			page 31


 1689 085f 11       		.byte	0x11
 1690 0860 37       		.byte	0x37
 1691 0861 4D010000 		.4byte	0x14d
 1692 0865 08       		.byte	0x8
 1693 0866 00       		.byte	0
 1694 0867 0C       		.uleb128 0xc
 1695 0868 04       		.byte	0x4
 1696 0869 42080000 		.4byte	0x842
 1697 086d 07       		.uleb128 0x7
 1698 086e 27080000 		.4byte	.LASF122
 1699 0872 10       		.byte	0x10
 1700 0873 12       		.byte	0x12
 1701 0874 39       		.byte	0x39
 1702 0875 9E080000 		.4byte	0x89e
 1703 0879 08       		.uleb128 0x8
 1704 087a EE020000 		.4byte	.LASF32
 1705 087e 12       		.byte	0x12
 1706 087f 3A       		.byte	0x3a
 1707 0880 8E020000 		.4byte	0x28e
 1708 0884 00       		.byte	0
 1709 0885 08       		.uleb128 0x8
 1710 0886 55070000 		.4byte	.LASF123
 1711 088a 12       		.byte	0x12
 1712 088b 3C       		.byte	0x3c
 1713 088c 64020000 		.4byte	0x264
 1714 0890 08       		.byte	0x8
 1715 0891 08       		.uleb128 0x8
 1716 0892 14000000 		.4byte	.LASF52
 1717 0896 12       		.byte	0x12
 1718 0897 3E       		.byte	0x3e
 1719 0898 E9090000 		.4byte	0x9e9
 1720 089c 0C       		.byte	0xc
 1721 089d 00       		.byte	0
 1722 089e 0C       		.uleb128 0xc
 1723 089f 04       		.byte	0x4
 1724 08a0 6D080000 		.4byte	0x86d
 1725 08a4 0C       		.uleb128 0xc
 1726 08a5 04       		.byte	0x4
 1727 08a6 1A050000 		.4byte	0x51a
 1728 08aa 0C       		.uleb128 0xc
 1729 08ab 04       		.byte	0x4
 1730 08ac 43030000 		.4byte	0x343
 1731 08b0 1F       		.uleb128 0x1f
 1732 08b1 636800   		.ascii	"ch\000"
 1733 08b4 08       		.byte	0x8
 1734 08b5 C701     		.2byte	0x1c7
 1735 08b7 38040000 		.4byte	0x438
 1736 08bb 16       		.uleb128 0x16
 1737 08bc 1A050000 		.4byte	0x51a
 1738 08c0 C6080000 		.4byte	0x8c6
 1739 08c4 20       		.uleb128 0x20
 1740 08c5 00       		.byte	0
 1741 08c6 14       		.uleb128 0x14
 1742 08c7 10070000 		.4byte	.LASF124
 1743 08cb 13       		.byte	0x13
 1744 08cc 1701     		.2byte	0x117
 1745 08ce BB080000 		.4byte	0x8bb
ARM GAS  C:\Users\RAKIBU~1\AppData\Local\Temp\ccsr67Nb.s 			page 32


 1746 08d2 18       		.uleb128 0x18
 1747 08d3 16       		.byte	0x16
 1748 08d4 14       		.byte	0x14
 1749 08d5 34       		.byte	0x34
 1750 08d6 B3090000 		.4byte	0x9b3
 1751 08da 08       		.uleb128 0x8
 1752 08db E2010000 		.4byte	.LASF125
 1753 08df 14       		.byte	0x14
 1754 08e0 35       		.byte	0x35
 1755 08e1 B3090000 		.4byte	0x9b3
 1756 08e5 00       		.byte	0
 1757 08e6 08       		.uleb128 0x8
 1758 08e7 5F020000 		.4byte	.LASF126
 1759 08eb 14       		.byte	0x14
 1760 08ec 36       		.byte	0x36
 1761 08ed B4000000 		.4byte	0xb4
 1762 08f1 04       		.byte	0x4
 1763 08f2 08       		.uleb128 0x8
 1764 08f3 7E010000 		.4byte	.LASF99
 1765 08f7 14       		.byte	0x14
 1766 08f8 37       		.byte	0x37
 1767 08f9 B4000000 		.4byte	0xb4
 1768 08fd 05       		.byte	0x5
 1769 08fe 08       		.uleb128 0x8
 1770 08ff 64040000 		.4byte	.LASF127
 1771 0903 14       		.byte	0x14
 1772 0904 38       		.byte	0x38
 1773 0905 C4000000 		.4byte	0xc4
 1774 0909 06       		.byte	0x6
 1775 090a 08       		.uleb128 0x8
 1776 090b 6C080000 		.4byte	.LASF128
 1777 090f 14       		.byte	0x14
 1778 0910 39       		.byte	0x39
 1779 0911 B4000000 		.4byte	0xb4
 1780 0915 08       		.byte	0x8
 1781 0916 08       		.uleb128 0x8
 1782 0917 22070000 		.4byte	.LASF129
 1783 091b 14       		.byte	0x14
 1784 091c 3A       		.byte	0x3a
 1785 091d B4000000 		.4byte	0xb4
 1786 0921 09       		.byte	0x9
 1787 0922 08       		.uleb128 0x8
 1788 0923 21060000 		.4byte	.LASF130
 1789 0927 14       		.byte	0x14
 1790 0928 3B       		.byte	0x3b
 1791 0929 B4000000 		.4byte	0xb4
 1792 092d 0A       		.byte	0xa
 1793 092e 08       		.uleb128 0x8
 1794 092f 7C060000 		.4byte	.LASF131
 1795 0933 14       		.byte	0x14
 1796 0934 3C       		.byte	0x3c
 1797 0935 B4000000 		.4byte	0xb4
 1798 0939 0B       		.byte	0xb
 1799 093a 08       		.uleb128 0x8
 1800 093b CA030000 		.4byte	.LASF132
 1801 093f 14       		.byte	0x14
 1802 0940 3D       		.byte	0x3d
ARM GAS  C:\Users\RAKIBU~1\AppData\Local\Temp\ccsr67Nb.s 			page 33


 1803 0941 B4000000 		.4byte	0xb4
 1804 0945 0C       		.byte	0xc
 1805 0946 08       		.uleb128 0x8
 1806 0947 D0040000 		.4byte	.LASF133
 1807 094b 14       		.byte	0x14
 1808 094c 3E       		.byte	0x3e
 1809 094d B4000000 		.4byte	0xb4
 1810 0951 0D       		.byte	0xd
 1811 0952 08       		.uleb128 0x8
 1812 0953 30080000 		.4byte	.LASF134
 1813 0957 14       		.byte	0x14
 1814 0958 3F       		.byte	0x3f
 1815 0959 B4000000 		.4byte	0xb4
 1816 095d 0E       		.byte	0xe
 1817 095e 08       		.uleb128 0x8
 1818 095f B3080000 		.4byte	.LASF135
 1819 0963 14       		.byte	0x14
 1820 0964 40       		.byte	0x40
 1821 0965 B4000000 		.4byte	0xb4
 1822 0969 0F       		.byte	0xf
 1823 096a 08       		.uleb128 0x8
 1824 096b 85060000 		.4byte	.LASF136
 1825 096f 14       		.byte	0x14
 1826 0970 41       		.byte	0x41
 1827 0971 B4000000 		.4byte	0xb4
 1828 0975 10       		.byte	0x10
 1829 0976 08       		.uleb128 0x8
 1830 0977 FC080000 		.4byte	.LASF137
 1831 097b 14       		.byte	0x14
 1832 097c 42       		.byte	0x42
 1833 097d B4000000 		.4byte	0xb4
 1834 0981 11       		.byte	0x11
 1835 0982 08       		.uleb128 0x8
 1836 0983 25090000 		.4byte	.LASF138
 1837 0987 14       		.byte	0x14
 1838 0988 43       		.byte	0x43
 1839 0989 B4000000 		.4byte	0xb4
 1840 098d 12       		.byte	0x12
 1841 098e 08       		.uleb128 0x8
 1842 098f 13020000 		.4byte	.LASF139
 1843 0993 14       		.byte	0x14
 1844 0994 44       		.byte	0x44
 1845 0995 B4000000 		.4byte	0xb4
 1846 0999 13       		.byte	0x13
 1847 099a 08       		.uleb128 0x8
 1848 099b 00020000 		.4byte	.LASF140
 1849 099f 14       		.byte	0x14
 1850 09a0 45       		.byte	0x45
 1851 09a1 B4000000 		.4byte	0xb4
 1852 09a5 14       		.byte	0x14
 1853 09a6 08       		.uleb128 0x8
 1854 09a7 07070000 		.4byte	.LASF141
 1855 09ab 14       		.byte	0x14
 1856 09ac 46       		.byte	0x46
 1857 09ad B4000000 		.4byte	0xb4
 1858 09b1 15       		.byte	0x15
 1859 09b2 00       		.byte	0
ARM GAS  C:\Users\RAKIBU~1\AppData\Local\Temp\ccsr67Nb.s 			page 34


 1860 09b3 16       		.uleb128 0x16
 1861 09b4 00060000 		.4byte	0x600
 1862 09b8 C3090000 		.4byte	0x9c3
 1863 09bc 17       		.uleb128 0x17
 1864 09bd 37000000 		.4byte	0x37
 1865 09c1 03       		.byte	0x3
 1866 09c2 00       		.byte	0
 1867 09c3 03       		.uleb128 0x3
 1868 09c4 F6010000 		.4byte	.LASF142
 1869 09c8 14       		.byte	0x14
 1870 09c9 47       		.byte	0x47
 1871 09ca D2080000 		.4byte	0x8d2
 1872 09ce 05       		.uleb128 0x5
 1873 09cf C3090000 		.4byte	0x9c3
 1874 09d3 15       		.uleb128 0x15
 1875 09d4 D1020000 		.4byte	.LASF143
 1876 09d8 14       		.byte	0x14
 1877 09d9 6C       		.byte	0x6c
 1878 09da CE090000 		.4byte	0x9ce
 1879 09de 03       		.uleb128 0x3
 1880 09df 64020000 		.4byte	.LASF144
 1881 09e3 12       		.byte	0x12
 1882 09e4 34       		.byte	0x34
 1883 09e5 6D080000 		.4byte	0x86d
 1884 09e9 0C       		.uleb128 0xc
 1885 09ea 04       		.byte	0x4
 1886 09eb DE090000 		.4byte	0x9de
 1887 09ef 04       		.uleb128 0x4
 1888 09f0 01       		.byte	0x1
 1889 09f1 02       		.byte	0x2
 1890 09f2 60060000 		.4byte	.LASF145
 1891 09f6 03       		.uleb128 0x3
 1892 09f7 F9050000 		.4byte	.LASF146
 1893 09fb 15       		.byte	0x15
 1894 09fc 47       		.byte	0x47
 1895 09fd 010A0000 		.4byte	0xa01
 1896 0a01 0C       		.uleb128 0xc
 1897 0a02 04       		.byte	0x4
 1898 0a03 070A0000 		.4byte	0xa07
 1899 0a07 21       		.uleb128 0x21
 1900 0a08 41030000 		.4byte	0x341
 1901 0a0c 1B0A0000 		.4byte	0xa1b
 1902 0a10 0F       		.uleb128 0xf
 1903 0a11 2C000000 		.4byte	0x2c
 1904 0a15 0F       		.uleb128 0xf
 1905 0a16 37000000 		.4byte	0x37
 1906 0a1a 00       		.byte	0
 1907 0a1b 18       		.uleb128 0x18
 1908 0a1c 08       		.byte	0x8
 1909 0a1d 15       		.byte	0x15
 1910 0a1e 51       		.byte	0x51
 1911 0a1f 3C0A0000 		.4byte	0xa3c
 1912 0a23 08       		.uleb128 0x8
 1913 0a24 42090000 		.4byte	.LASF147
 1914 0a28 15       		.byte	0x15
 1915 0a29 55       		.byte	0x55
 1916 0a2a 3C0A0000 		.4byte	0xa3c
ARM GAS  C:\Users\RAKIBU~1\AppData\Local\Temp\ccsr67Nb.s 			page 35


 1917 0a2e 00       		.byte	0
 1918 0a2f 08       		.uleb128 0x8
 1919 0a30 1E040000 		.4byte	.LASF148
 1920 0a34 15       		.byte	0x15
 1921 0a35 59       		.byte	0x59
 1922 0a36 3C0A0000 		.4byte	0xa3c
 1923 0a3a 04       		.byte	0x4
 1924 0a3b 00       		.byte	0
 1925 0a3c 0C       		.uleb128 0xc
 1926 0a3d 04       		.byte	0x4
 1927 0a3e B4000000 		.4byte	0xb4
 1928 0a42 03       		.uleb128 0x3
 1929 0a43 E4050000 		.4byte	.LASF149
 1930 0a47 15       		.byte	0x15
 1931 0a48 5A       		.byte	0x5a
 1932 0a49 1B0A0000 		.4byte	0xa1b
 1933 0a4d 15       		.uleb128 0x15
 1934 0a4e EA070000 		.4byte	.LASF150
 1935 0a52 15       		.byte	0x15
 1936 0a53 65       		.byte	0x65
 1937 0a54 420A0000 		.4byte	0xa42
 1938 0a58 07       		.uleb128 0x7
 1939 0a59 9F080000 		.4byte	.LASF151
 1940 0a5d 04       		.byte	0x4
 1941 0a5e 16       		.byte	0x16
 1942 0a5f 38       		.byte	0x38
 1943 0a60 710A0000 		.4byte	0xa71
 1944 0a64 08       		.uleb128 0x8
 1945 0a65 14000000 		.4byte	.LASF52
 1946 0a69 16       		.byte	0x16
 1947 0a6a 39       		.byte	0x39
 1948 0a6b 710A0000 		.4byte	0xa71
 1949 0a6f 00       		.byte	0
 1950 0a70 00       		.byte	0
 1951 0a71 0C       		.uleb128 0xc
 1952 0a72 04       		.byte	0x4
 1953 0a73 580A0000 		.4byte	0xa58
 1954 0a77 18       		.uleb128 0x18
 1955 0a78 10       		.byte	0x10
 1956 0a79 16       		.byte	0x16
 1957 0a7a 40       		.byte	0x40
 1958 0a7b B00A0000 		.4byte	0xab0
 1959 0a7f 08       		.uleb128 0x8
 1960 0a80 14000000 		.4byte	.LASF52
 1961 0a84 16       		.byte	0x16
 1962 0a85 41       		.byte	0x41
 1963 0a86 710A0000 		.4byte	0xa71
 1964 0a8a 00       		.byte	0
 1965 0a8b 08       		.uleb128 0x8
 1966 0a8c 60080000 		.4byte	.LASF152
 1967 0a90 16       		.byte	0x16
 1968 0a91 42       		.byte	0x42
 1969 0a92 2C000000 		.4byte	0x2c
 1970 0a96 04       		.byte	0x4
 1971 0a97 08       		.uleb128 0x8
 1972 0a98 46010000 		.4byte	.LASF153
 1973 0a9c 16       		.byte	0x16
ARM GAS  C:\Users\RAKIBU~1\AppData\Local\Temp\ccsr67Nb.s 			page 36


 1974 0a9d 44       		.byte	0x44
 1975 0a9e 37000000 		.4byte	0x37
 1976 0aa2 08       		.byte	0x8
 1977 0aa3 08       		.uleb128 0x8
 1978 0aa4 77000000 		.4byte	.LASF154
 1979 0aa8 16       		.byte	0x16
 1980 0aa9 45       		.byte	0x45
 1981 0aaa F6090000 		.4byte	0x9f6
 1982 0aae 0C       		.byte	0xc
 1983 0aaf 00       		.byte	0
 1984 0ab0 03       		.uleb128 0x3
 1985 0ab1 DA020000 		.4byte	.LASF155
 1986 0ab5 16       		.byte	0x16
 1987 0ab6 47       		.byte	0x47
 1988 0ab7 770A0000 		.4byte	0xa77
 1989 0abb 07       		.uleb128 0x7
 1990 0abc 6F010000 		.4byte	.LASF156
 1991 0ac0 10       		.byte	0x10
 1992 0ac1 17       		.byte	0x17
 1993 0ac2 A9       		.byte	0xa9
 1994 0ac3 EC0A0000 		.4byte	0xaec
 1995 0ac7 08       		.uleb128 0x8
 1996 0ac8 14000000 		.4byte	.LASF52
 1997 0acc 17       		.byte	0x17
 1998 0acd AD       		.byte	0xad
 1999 0ace EC0A0000 		.4byte	0xaec
 2000 0ad2 00       		.byte	0
 2001 0ad3 08       		.uleb128 0x8
 2002 0ad4 2C060000 		.4byte	.LASF40
 2003 0ad8 17       		.byte	0x17
 2004 0ad9 B1       		.byte	0xb1
 2005 0ada 58010000 		.4byte	0x158
 2006 0ade 04       		.byte	0x4
 2007 0adf 08       		.uleb128 0x8
 2008 0ae0 88030000 		.4byte	.LASF36
 2009 0ae4 17       		.byte	0x17
 2010 0ae5 B3       		.byte	0xb3
 2011 0ae6 F20A0000 		.4byte	0xaf2
 2012 0aea 08       		.byte	0x8
 2013 0aeb 00       		.byte	0
 2014 0aec 0C       		.uleb128 0xc
 2015 0aed 04       		.byte	0x4
 2016 0aee BB0A0000 		.4byte	0xabb
 2017 0af2 16       		.uleb128 0x16
 2018 0af3 00060000 		.4byte	0x600
 2019 0af7 020B0000 		.4byte	0xb02
 2020 0afb 17       		.uleb128 0x17
 2021 0afc 37000000 		.4byte	0x37
 2022 0b00 07       		.byte	0x7
 2023 0b01 00       		.byte	0
 2024 0b02 03       		.uleb128 0x3
 2025 0b03 38010000 		.4byte	.LASF157
 2026 0b07 17       		.byte	0x17
 2027 0b08 B7       		.byte	0xb7
 2028 0b09 BB0A0000 		.4byte	0xabb
 2029 0b0d 07       		.uleb128 0x7
 2030 0b0e C4040000 		.4byte	.LASF158
ARM GAS  C:\Users\RAKIBU~1\AppData\Local\Temp\ccsr67Nb.s 			page 37


 2031 0b12 04       		.byte	0x4
 2032 0b13 17       		.byte	0x17
 2033 0b14 BC       		.byte	0xbc
 2034 0b15 260B0000 		.4byte	0xb26
 2035 0b19 08       		.uleb128 0x8
 2036 0b1a 14000000 		.4byte	.LASF52
 2037 0b1e 17       		.byte	0x17
 2038 0b1f BD       		.byte	0xbd
 2039 0b20 260B0000 		.4byte	0xb26
 2040 0b24 00       		.byte	0
 2041 0b25 00       		.byte	0
 2042 0b26 0C       		.uleb128 0xc
 2043 0b27 04       		.byte	0x4
 2044 0b28 020B0000 		.4byte	0xb02
 2045 0b2c 03       		.uleb128 0x3
 2046 0b2d EF040000 		.4byte	.LASF159
 2047 0b31 17       		.byte	0x17
 2048 0b32 BE       		.byte	0xbe
 2049 0b33 0D0B0000 		.4byte	0xb0d
 2050 0b37 0D       		.uleb128 0xd
 2051 0b38 D6060000 		.4byte	.LASF160
 2052 0b3c 48       		.byte	0x48
 2053 0b3d 17       		.byte	0x17
 2054 0b3e 3E01     		.2byte	0x13e
 2055 0b40 BA0B0000 		.4byte	0xbba
 2056 0b44 0A       		.uleb128 0xa
 2057 0b45 6D747800 		.ascii	"mtx\000"
 2058 0b49 17       		.byte	0x17
 2059 0b4a 4301     		.2byte	0x143
 2060 0b4c DE090000 		.4byte	0x9de
 2061 0b50 00       		.byte	0
 2062 0b51 0B       		.uleb128 0xb
 2063 0b52 B3070000 		.4byte	.LASF161
 2064 0b56 17       		.byte	0x17
 2065 0b57 4A01     		.2byte	0x14a
 2066 0b59 2C0B0000 		.4byte	0xb2c
 2067 0b5d 10       		.byte	0x10
 2068 0b5e 0B       		.uleb128 0xb
 2069 0b5f CD060000 		.4byte	.LASF162
 2070 0b63 17       		.byte	0x17
 2071 0b64 4E01     		.2byte	0x14e
 2072 0b66 B00A0000 		.4byte	0xab0
 2073 0b6a 14       		.byte	0x14
 2074 0b6b 0B       		.uleb128 0xb
 2075 0b6c 4E060000 		.4byte	.LASF163
 2076 0b70 17       		.byte	0x17
 2077 0b71 5301     		.2byte	0x153
 2078 0b73 2C0B0000 		.4byte	0xb2c
 2079 0b77 24       		.byte	0x24
 2080 0b78 0B       		.uleb128 0xb
 2081 0b79 85000000 		.4byte	.LASF164
 2082 0b7d 17       		.byte	0x17
 2083 0b7e 5901     		.2byte	0x159
 2084 0b80 2C0B0000 		.4byte	0xb2c
 2085 0b84 28       		.byte	0x28
 2086 0b85 0B       		.uleb128 0xb
 2087 0b86 C3050000 		.4byte	.LASF165
ARM GAS  C:\Users\RAKIBU~1\AppData\Local\Temp\ccsr67Nb.s 			page 38


 2088 0b8a 17       		.byte	0x17
 2089 0b8b 5D01     		.2byte	0x15d
 2090 0b8d B00A0000 		.4byte	0xab0
 2091 0b91 2C       		.byte	0x2c
 2092 0b92 0B       		.uleb128 0xb
 2093 0b93 30020000 		.4byte	.LASF166
 2094 0b97 17       		.byte	0x17
 2095 0b98 6301     		.2byte	0x163
 2096 0b9a 2C0B0000 		.4byte	0xb2c
 2097 0b9e 3C       		.byte	0x3c
 2098 0b9f 0B       		.uleb128 0xb
 2099 0ba0 CA080000 		.4byte	.LASF167
 2100 0ba4 17       		.byte	0x17
 2101 0ba5 6901     		.2byte	0x169
 2102 0ba7 2C0B0000 		.4byte	0xb2c
 2103 0bab 40       		.byte	0x40
 2104 0bac 0B       		.uleb128 0xb
 2105 0bad 2B070000 		.4byte	.LASF168
 2106 0bb1 17       		.byte	0x17
 2107 0bb2 6F01     		.2byte	0x16f
 2108 0bb4 2C0B0000 		.4byte	0xb2c
 2109 0bb8 44       		.byte	0x44
 2110 0bb9 00       		.byte	0
 2111 0bba 22       		.uleb128 0x22
 2112 0bbb 13090000 		.4byte	.LASF169
 2113 0bbf 17       		.byte	0x17
 2114 0bc0 7101     		.2byte	0x171
 2115 0bc2 370B0000 		.4byte	0xb37
 2116 0bc6 14       		.uleb128 0x14
 2117 0bc7 C2060000 		.4byte	.LASF170
 2118 0bcb 17       		.byte	0x17
 2119 0bcc 7C01     		.2byte	0x17c
 2120 0bce BA0B0000 		.4byte	0xbba
 2121 0bd2 23       		.uleb128 0x23
 2122 0bd3 DA030000 		.4byte	.LASF171
 2123 0bd7 01       		.byte	0x1
 2124 0bd8 F8       		.byte	0xf8
 2125 0bd9 D0010000 		.4byte	.LFB305
 2126 0bdd 20000000 		.4byte	.LFE305-.LFB305
 2127 0be1 01       		.uleb128 0x1
 2128 0be2 9C       		.byte	0x9c
 2129 0be3 FB0B0000 		.4byte	0xbfb
 2130 0be7 24       		.uleb128 0x24
 2131 0be8 E6010000 		.4byte	.LVL18
 2132 0bec CF0E0000 		.4byte	0xecf
 2133 0bf0 25       		.uleb128 0x25
 2134 0bf1 01       		.uleb128 0x1
 2135 0bf2 50       		.byte	0x50
 2136 0bf3 05       		.uleb128 0x5
 2137 0bf4 03       		.byte	0x3
 2138 0bf5 50000000 		.4byte	.LC10
 2139 0bf9 00       		.byte	0
 2140 0bfa 00       		.byte	0
 2141 0bfb 23       		.uleb128 0x23
 2142 0bfc AD030000 		.4byte	.LASF172
 2143 0c00 01       		.byte	0x1
 2144 0c01 E9       		.byte	0xe9
ARM GAS  C:\Users\RAKIBU~1\AppData\Local\Temp\ccsr67Nb.s 			page 39


 2145 0c02 A0010000 		.4byte	.LFB304
 2146 0c06 24000000 		.4byte	.LFE304-.LFB304
 2147 0c0a 01       		.uleb128 0x1
 2148 0c0b 9C       		.byte	0x9c
 2149 0c0c 240C0000 		.4byte	0xc24
 2150 0c10 24       		.uleb128 0x24
 2151 0c11 B8010000 		.4byte	.LVL17
 2152 0c15 CF0E0000 		.4byte	0xecf
 2153 0c19 25       		.uleb128 0x25
 2154 0c1a 01       		.uleb128 0x1
 2155 0c1b 50       		.byte	0x50
 2156 0c1c 05       		.uleb128 0x5
 2157 0c1d 03       		.byte	0x3
 2158 0c1e 48000000 		.4byte	.LC9
 2159 0c22 00       		.byte	0
 2160 0c23 00       		.byte	0
 2161 0c24 23       		.uleb128 0x23
 2162 0c25 AF020000 		.4byte	.LASF173
 2163 0c29 01       		.byte	0x1
 2164 0c2a D7       		.byte	0xd7
 2165 0c2b 60010000 		.4byte	.LFB303
 2166 0c2f 34000000 		.4byte	.LFE303-.LFB303
 2167 0c33 01       		.uleb128 0x1
 2168 0c34 9C       		.byte	0x9c
 2169 0c35 CB0C0000 		.4byte	0xccb
 2170 0c39 26       		.uleb128 0x26
 2171 0c3a 9A0E0000 		.4byte	0xe9a
 2172 0c3e 62010000 		.4byte	.LBB42
 2173 0c42 06000000 		.4byte	.LBE42-.LBB42
 2174 0c46 01       		.byte	0x1
 2175 0c47 D9       		.byte	0xd9
 2176 0c48 780C0000 		.4byte	0xc78
 2177 0c4c 27       		.uleb128 0x27
 2178 0c4d AC0E0000 		.4byte	0xeac
 2179 0c51 62010000 		.4byte	.LBB43
 2180 0c55 06000000 		.4byte	.LBE43-.LBB43
 2181 0c59 0D       		.byte	0xd
 2182 0c5a 8602     		.2byte	0x286
 2183 0c5c 27       		.uleb128 0x27
 2184 0c5d B50E0000 		.4byte	0xeb5
 2185 0c61 62010000 		.4byte	.LBB44
 2186 0c65 06000000 		.4byte	.LBE44-.LBB44
 2187 0c69 0D       		.byte	0xd
 2188 0c6a 6502     		.2byte	0x265
 2189 0c6c 28       		.uleb128 0x28
 2190 0c6d C20E0000 		.4byte	0xec2
 2191 0c71 00000000 		.4byte	.LLST2
 2192 0c75 00       		.byte	0
 2193 0c76 00       		.byte	0
 2194 0c77 00       		.byte	0
 2195 0c78 26       		.uleb128 0x26
 2196 0c79 910E0000 		.4byte	0xe91
 2197 0c7d 84010000 		.4byte	.LBB46
 2198 0c81 06000000 		.4byte	.LBE46-.LBB46
 2199 0c85 01       		.byte	0x1
 2200 0c86 DE       		.byte	0xde
 2201 0c87 B70C0000 		.4byte	0xcb7
ARM GAS  C:\Users\RAKIBU~1\AppData\Local\Temp\ccsr67Nb.s 			page 40


 2202 0c8b 27       		.uleb128 0x27
 2203 0c8c A30E0000 		.4byte	0xea3
 2204 0c90 84010000 		.4byte	.LBB47
 2205 0c94 06000000 		.4byte	.LBE47-.LBB47
 2206 0c98 0D       		.byte	0xd
 2207 0c99 9102     		.2byte	0x291
 2208 0c9b 27       		.uleb128 0x27
 2209 0c9c B50E0000 		.4byte	0xeb5
 2210 0ca0 84010000 		.4byte	.LBB48
 2211 0ca4 06000000 		.4byte	.LBE48-.LBB48
 2212 0ca8 0D       		.byte	0xd
 2213 0ca9 7802     		.2byte	0x278
 2214 0cab 28       		.uleb128 0x28
 2215 0cac C20E0000 		.4byte	0xec2
 2216 0cb0 15000000 		.4byte	.LLST3
 2217 0cb4 00       		.byte	0
 2218 0cb5 00       		.byte	0
 2219 0cb6 00       		.byte	0
 2220 0cb7 24       		.uleb128 0x24
 2221 0cb8 7C010000 		.4byte	.LVL14
 2222 0cbc CF0E0000 		.4byte	0xecf
 2223 0cc0 25       		.uleb128 0x25
 2224 0cc1 01       		.uleb128 0x1
 2225 0cc2 50       		.byte	0x50
 2226 0cc3 05       		.uleb128 0x5
 2227 0cc4 03       		.byte	0x3
 2228 0cc5 40000000 		.4byte	.LC8
 2229 0cc9 00       		.byte	0
 2230 0cca 00       		.byte	0
 2231 0ccb 23       		.uleb128 0x23
 2232 0ccc DA040000 		.4byte	.LASF174
 2233 0cd0 01       		.byte	0x1
 2234 0cd1 C8       		.byte	0xc8
 2235 0cd2 20010000 		.4byte	.LFB302
 2236 0cd6 34000000 		.4byte	.LFE302-.LFB302
 2237 0cda 01       		.uleb128 0x1
 2238 0cdb 9C       		.byte	0x9c
 2239 0cdc 720D0000 		.4byte	0xd72
 2240 0ce0 26       		.uleb128 0x26
 2241 0ce1 9A0E0000 		.4byte	0xe9a
 2242 0ce5 22010000 		.4byte	.LBB34
 2243 0ce9 06000000 		.4byte	.LBE34-.LBB34
 2244 0ced 01       		.byte	0x1
 2245 0cee CA       		.byte	0xca
 2246 0cef 1F0D0000 		.4byte	0xd1f
 2247 0cf3 27       		.uleb128 0x27
 2248 0cf4 AC0E0000 		.4byte	0xeac
 2249 0cf8 22010000 		.4byte	.LBB35
 2250 0cfc 06000000 		.4byte	.LBE35-.LBB35
 2251 0d00 0D       		.byte	0xd
 2252 0d01 8602     		.2byte	0x286
 2253 0d03 27       		.uleb128 0x27
 2254 0d04 B50E0000 		.4byte	0xeb5
 2255 0d08 22010000 		.4byte	.LBB36
 2256 0d0c 06000000 		.4byte	.LBE36-.LBB36
 2257 0d10 0D       		.byte	0xd
 2258 0d11 6502     		.2byte	0x265
ARM GAS  C:\Users\RAKIBU~1\AppData\Local\Temp\ccsr67Nb.s 			page 41


 2259 0d13 28       		.uleb128 0x28
 2260 0d14 C20E0000 		.4byte	0xec2
 2261 0d18 29000000 		.4byte	.LLST0
 2262 0d1c 00       		.byte	0
 2263 0d1d 00       		.byte	0
 2264 0d1e 00       		.byte	0
 2265 0d1f 26       		.uleb128 0x26
 2266 0d20 910E0000 		.4byte	0xe91
 2267 0d24 44010000 		.4byte	.LBB38
 2268 0d28 06000000 		.4byte	.LBE38-.LBB38
 2269 0d2c 01       		.byte	0x1
 2270 0d2d CF       		.byte	0xcf
 2271 0d2e 5E0D0000 		.4byte	0xd5e
 2272 0d32 27       		.uleb128 0x27
 2273 0d33 A30E0000 		.4byte	0xea3
 2274 0d37 44010000 		.4byte	.LBB39
 2275 0d3b 06000000 		.4byte	.LBE39-.LBB39
 2276 0d3f 0D       		.byte	0xd
 2277 0d40 9102     		.2byte	0x291
 2278 0d42 27       		.uleb128 0x27
 2279 0d43 B50E0000 		.4byte	0xeb5
 2280 0d47 44010000 		.4byte	.LBB40
 2281 0d4b 06000000 		.4byte	.LBE40-.LBB40
 2282 0d4f 0D       		.byte	0xd
 2283 0d50 7802     		.2byte	0x278
 2284 0d52 28       		.uleb128 0x28
 2285 0d53 C20E0000 		.4byte	0xec2
 2286 0d57 3E000000 		.4byte	.LLST1
 2287 0d5b 00       		.byte	0
 2288 0d5c 00       		.byte	0
 2289 0d5d 00       		.byte	0
 2290 0d5e 24       		.uleb128 0x24
 2291 0d5f 3C010000 		.4byte	.LVL9
 2292 0d63 CF0E0000 		.4byte	0xecf
 2293 0d67 25       		.uleb128 0x25
 2294 0d68 01       		.uleb128 0x1
 2295 0d69 50       		.byte	0x50
 2296 0d6a 05       		.uleb128 0x5
 2297 0d6b 03       		.byte	0x3
 2298 0d6c 38000000 		.4byte	.LC7
 2299 0d70 00       		.byte	0
 2300 0d71 00       		.byte	0
 2301 0d72 23       		.uleb128 0x23
 2302 0d73 74080000 		.4byte	.LASF175
 2303 0d77 01       		.byte	0x1
 2304 0d78 BB       		.byte	0xbb
 2305 0d79 F0000000 		.4byte	.LFB301
 2306 0d7d 28000000 		.4byte	.LFE301-.LFB301
 2307 0d81 01       		.uleb128 0x1
 2308 0d82 9C       		.byte	0x9c
 2309 0d83 9B0D0000 		.4byte	0xd9b
 2310 0d87 24       		.uleb128 0x24
 2311 0d88 08010000 		.4byte	.LVL6
 2312 0d8c CF0E0000 		.4byte	0xecf
 2313 0d90 25       		.uleb128 0x25
 2314 0d91 01       		.uleb128 0x1
 2315 0d92 50       		.byte	0x50
ARM GAS  C:\Users\RAKIBU~1\AppData\Local\Temp\ccsr67Nb.s 			page 42


 2316 0d93 05       		.uleb128 0x5
 2317 0d94 03       		.byte	0x3
 2318 0d95 30000000 		.4byte	.LC6
 2319 0d99 00       		.byte	0
 2320 0d9a 00       		.byte	0
 2321 0d9b 23       		.uleb128 0x23
 2322 0d9c AA050000 		.4byte	.LASF176
 2323 0da0 01       		.byte	0x1
 2324 0da1 AE       		.byte	0xae
 2325 0da2 C0000000 		.4byte	.LFB300
 2326 0da6 28000000 		.4byte	.LFE300-.LFB300
 2327 0daa 01       		.uleb128 0x1
 2328 0dab 9C       		.byte	0x9c
 2329 0dac C40D0000 		.4byte	0xdc4
 2330 0db0 24       		.uleb128 0x24
 2331 0db1 D6000000 		.4byte	.LVL5
 2332 0db5 CF0E0000 		.4byte	0xecf
 2333 0db9 25       		.uleb128 0x25
 2334 0dba 01       		.uleb128 0x1
 2335 0dbb 50       		.byte	0x50
 2336 0dbc 05       		.uleb128 0x5
 2337 0dbd 03       		.byte	0x3
 2338 0dbe 28000000 		.4byte	.LC5
 2339 0dc2 00       		.byte	0
 2340 0dc3 00       		.byte	0
 2341 0dc4 23       		.uleb128 0x23
 2342 0dc5 D4080000 		.4byte	.LASF177
 2343 0dc9 01       		.byte	0x1
 2344 0dca A1       		.byte	0xa1
 2345 0dcb 90000000 		.4byte	.LFB299
 2346 0dcf 28000000 		.4byte	.LFE299-.LFB299
 2347 0dd3 01       		.uleb128 0x1
 2348 0dd4 9C       		.byte	0x9c
 2349 0dd5 ED0D0000 		.4byte	0xded
 2350 0dd9 24       		.uleb128 0x24
 2351 0dda A6000000 		.4byte	.LVL4
 2352 0dde CF0E0000 		.4byte	0xecf
 2353 0de2 25       		.uleb128 0x25
 2354 0de3 01       		.uleb128 0x1
 2355 0de4 50       		.byte	0x50
 2356 0de5 05       		.uleb128 0x5
 2357 0de6 03       		.byte	0x3
 2358 0de7 20000000 		.4byte	.LC4
 2359 0deb 00       		.byte	0
 2360 0dec 00       		.byte	0
 2361 0ded 23       		.uleb128 0x23
 2362 0dee 91040000 		.4byte	.LASF178
 2363 0df2 01       		.byte	0x1
 2364 0df3 94       		.byte	0x94
 2365 0df4 60000000 		.4byte	.LFB298
 2366 0df8 24000000 		.4byte	.LFE298-.LFB298
 2367 0dfc 01       		.uleb128 0x1
 2368 0dfd 9C       		.byte	0x9c
 2369 0dfe 160E0000 		.4byte	0xe16
 2370 0e02 24       		.uleb128 0x24
 2371 0e03 74000000 		.4byte	.LVL3
 2372 0e07 CF0E0000 		.4byte	0xecf
ARM GAS  C:\Users\RAKIBU~1\AppData\Local\Temp\ccsr67Nb.s 			page 43


 2373 0e0b 25       		.uleb128 0x25
 2374 0e0c 01       		.uleb128 0x1
 2375 0e0d 50       		.byte	0x50
 2376 0e0e 05       		.uleb128 0x5
 2377 0e0f 03       		.byte	0x3
 2378 0e10 18000000 		.4byte	.LC3
 2379 0e14 00       		.byte	0
 2380 0e15 00       		.byte	0
 2381 0e16 23       		.uleb128 0x23
 2382 0e17 E7000000 		.4byte	.LASF179
 2383 0e1b 01       		.byte	0x1
 2384 0e1c 88       		.byte	0x88
 2385 0e1d 40000000 		.4byte	.LFB297
 2386 0e21 20000000 		.4byte	.LFE297-.LFB297
 2387 0e25 01       		.uleb128 0x1
 2388 0e26 9C       		.byte	0x9c
 2389 0e27 3F0E0000 		.4byte	0xe3f
 2390 0e2b 24       		.uleb128 0x24
 2391 0e2c 54000000 		.4byte	.LVL2
 2392 0e30 CF0E0000 		.4byte	0xecf
 2393 0e34 25       		.uleb128 0x25
 2394 0e35 01       		.uleb128 0x1
 2395 0e36 50       		.byte	0x50
 2396 0e37 05       		.uleb128 0x5
 2397 0e38 03       		.byte	0x3
 2398 0e39 10000000 		.4byte	.LC2
 2399 0e3d 00       		.byte	0
 2400 0e3e 00       		.byte	0
 2401 0e3f 23       		.uleb128 0x23
 2402 0e40 48040000 		.4byte	.LASF180
 2403 0e44 01       		.byte	0x1
 2404 0e45 7C       		.byte	0x7c
 2405 0e46 20000000 		.4byte	.LFB296
 2406 0e4a 20000000 		.4byte	.LFE296-.LFB296
 2407 0e4e 01       		.uleb128 0x1
 2408 0e4f 9C       		.byte	0x9c
 2409 0e50 680E0000 		.4byte	0xe68
 2410 0e54 24       		.uleb128 0x24
 2411 0e55 34000000 		.4byte	.LVL1
 2412 0e59 CF0E0000 		.4byte	0xecf
 2413 0e5d 25       		.uleb128 0x25
 2414 0e5e 01       		.uleb128 0x1
 2415 0e5f 50       		.byte	0x50
 2416 0e60 05       		.uleb128 0x5
 2417 0e61 03       		.byte	0x3
 2418 0e62 08000000 		.4byte	.LC1
 2419 0e66 00       		.byte	0
 2420 0e67 00       		.byte	0
 2421 0e68 23       		.uleb128 0x23
 2422 0e69 0E060000 		.4byte	.LASF181
 2423 0e6d 01       		.byte	0x1
 2424 0e6e 70       		.byte	0x70
 2425 0e6f 00000000 		.4byte	.LFB295
 2426 0e73 20000000 		.4byte	.LFE295-.LFB295
 2427 0e77 01       		.uleb128 0x1
 2428 0e78 9C       		.byte	0x9c
 2429 0e79 910E0000 		.4byte	0xe91
ARM GAS  C:\Users\RAKIBU~1\AppData\Local\Temp\ccsr67Nb.s 			page 44


 2430 0e7d 24       		.uleb128 0x24
 2431 0e7e 14000000 		.4byte	.LVL0
 2432 0e82 CF0E0000 		.4byte	0xecf
 2433 0e86 25       		.uleb128 0x25
 2434 0e87 01       		.uleb128 0x1
 2435 0e88 50       		.byte	0x50
 2436 0e89 05       		.uleb128 0x5
 2437 0e8a 03       		.byte	0x3
 2438 0e8b 00000000 		.4byte	.LC0
 2439 0e8f 00       		.byte	0
 2440 0e90 00       		.byte	0
 2441 0e91 29       		.uleb128 0x29
 2442 0e92 C7070000 		.4byte	.LASF182
 2443 0e96 0D       		.byte	0xd
 2444 0e97 8F02     		.2byte	0x28f
 2445 0e99 03       		.byte	0x3
 2446 0e9a 29       		.uleb128 0x29
 2447 0e9b 4D080000 		.4byte	.LASF183
 2448 0e9f 0D       		.byte	0xd
 2449 0ea0 8402     		.2byte	0x284
 2450 0ea2 03       		.byte	0x3
 2451 0ea3 29       		.uleb128 0x29
 2452 0ea4 98010000 		.4byte	.LASF184
 2453 0ea8 0D       		.byte	0xd
 2454 0ea9 7502     		.2byte	0x275
 2455 0eab 03       		.byte	0x3
 2456 0eac 29       		.uleb128 0x29
 2457 0ead 8E000000 		.4byte	.LASF185
 2458 0eb1 0D       		.byte	0xd
 2459 0eb2 5D02     		.2byte	0x25d
 2460 0eb4 03       		.byte	0x3
 2461 0eb5 2A       		.uleb128 0x2a
 2462 0eb6 08080000 		.4byte	.LASF189
 2463 0eba 02       		.byte	0x2
 2464 0ebb EB01     		.2byte	0x1eb
 2465 0ebd 03       		.byte	0x3
 2466 0ebe CF0E0000 		.4byte	0xecf
 2467 0ec2 2B       		.uleb128 0x2b
 2468 0ec3 89010000 		.4byte	.LASF190
 2469 0ec7 02       		.byte	0x2
 2470 0ec8 EB01     		.2byte	0x1eb
 2471 0eca DF000000 		.4byte	0xdf
 2472 0ece 00       		.byte	0
 2473 0ecf 2C       		.uleb128 0x2c
 2474 0ed0 6C040000 		.4byte	.LASF191
 2475 0ed4 6C040000 		.4byte	.LASF191
 2476 0ed8 18       		.byte	0x18
 2477 0ed9 63       		.byte	0x63
 2478 0eda 00       		.byte	0
 2479              		.section	.debug_abbrev,"",%progbits
 2480              	.Ldebug_abbrev0:
 2481 0000 01       		.uleb128 0x1
 2482 0001 11       		.uleb128 0x11
 2483 0002 01       		.byte	0x1
 2484 0003 25       		.uleb128 0x25
 2485 0004 0E       		.uleb128 0xe
 2486 0005 13       		.uleb128 0x13
ARM GAS  C:\Users\RAKIBU~1\AppData\Local\Temp\ccsr67Nb.s 			page 45


 2487 0006 0B       		.uleb128 0xb
 2488 0007 03       		.uleb128 0x3
 2489 0008 0E       		.uleb128 0xe
 2490 0009 1B       		.uleb128 0x1b
 2491 000a 0E       		.uleb128 0xe
 2492 000b 11       		.uleb128 0x11
 2493 000c 01       		.uleb128 0x1
 2494 000d 12       		.uleb128 0x12
 2495 000e 06       		.uleb128 0x6
 2496 000f 10       		.uleb128 0x10
 2497 0010 17       		.uleb128 0x17
 2498 0011 00       		.byte	0
 2499 0012 00       		.byte	0
 2500 0013 02       		.uleb128 0x2
 2501 0014 24       		.uleb128 0x24
 2502 0015 00       		.byte	0
 2503 0016 0B       		.uleb128 0xb
 2504 0017 0B       		.uleb128 0xb
 2505 0018 3E       		.uleb128 0x3e
 2506 0019 0B       		.uleb128 0xb
 2507 001a 03       		.uleb128 0x3
 2508 001b 08       		.uleb128 0x8
 2509 001c 00       		.byte	0
 2510 001d 00       		.byte	0
 2511 001e 03       		.uleb128 0x3
 2512 001f 16       		.uleb128 0x16
 2513 0020 00       		.byte	0
 2514 0021 03       		.uleb128 0x3
 2515 0022 0E       		.uleb128 0xe
 2516 0023 3A       		.uleb128 0x3a
 2517 0024 0B       		.uleb128 0xb
 2518 0025 3B       		.uleb128 0x3b
 2519 0026 0B       		.uleb128 0xb
 2520 0027 49       		.uleb128 0x49
 2521 0028 13       		.uleb128 0x13
 2522 0029 00       		.byte	0
 2523 002a 00       		.byte	0
 2524 002b 04       		.uleb128 0x4
 2525 002c 24       		.uleb128 0x24
 2526 002d 00       		.byte	0
 2527 002e 0B       		.uleb128 0xb
 2528 002f 0B       		.uleb128 0xb
 2529 0030 3E       		.uleb128 0x3e
 2530 0031 0B       		.uleb128 0xb
 2531 0032 03       		.uleb128 0x3
 2532 0033 0E       		.uleb128 0xe
 2533 0034 00       		.byte	0
 2534 0035 00       		.byte	0
 2535 0036 05       		.uleb128 0x5
 2536 0037 26       		.uleb128 0x26
 2537 0038 00       		.byte	0
 2538 0039 49       		.uleb128 0x49
 2539 003a 13       		.uleb128 0x13
 2540 003b 00       		.byte	0
 2541 003c 00       		.byte	0
 2542 003d 06       		.uleb128 0x6
 2543 003e 35       		.uleb128 0x35
ARM GAS  C:\Users\RAKIBU~1\AppData\Local\Temp\ccsr67Nb.s 			page 46


 2544 003f 00       		.byte	0
 2545 0040 49       		.uleb128 0x49
 2546 0041 13       		.uleb128 0x13
 2547 0042 00       		.byte	0
 2548 0043 00       		.byte	0
 2549 0044 07       		.uleb128 0x7
 2550 0045 13       		.uleb128 0x13
 2551 0046 01       		.byte	0x1
 2552 0047 03       		.uleb128 0x3
 2553 0048 0E       		.uleb128 0xe
 2554 0049 0B       		.uleb128 0xb
 2555 004a 0B       		.uleb128 0xb
 2556 004b 3A       		.uleb128 0x3a
 2557 004c 0B       		.uleb128 0xb
 2558 004d 3B       		.uleb128 0x3b
 2559 004e 0B       		.uleb128 0xb
 2560 004f 01       		.uleb128 0x1
 2561 0050 13       		.uleb128 0x13
 2562 0051 00       		.byte	0
 2563 0052 00       		.byte	0
 2564 0053 08       		.uleb128 0x8
 2565 0054 0D       		.uleb128 0xd
 2566 0055 00       		.byte	0
 2567 0056 03       		.uleb128 0x3
 2568 0057 0E       		.uleb128 0xe
 2569 0058 3A       		.uleb128 0x3a
 2570 0059 0B       		.uleb128 0xb
 2571 005a 3B       		.uleb128 0x3b
 2572 005b 0B       		.uleb128 0xb
 2573 005c 49       		.uleb128 0x49
 2574 005d 13       		.uleb128 0x13
 2575 005e 38       		.uleb128 0x38
 2576 005f 0B       		.uleb128 0xb
 2577 0060 00       		.byte	0
 2578 0061 00       		.byte	0
 2579 0062 09       		.uleb128 0x9
 2580 0063 0D       		.uleb128 0xd
 2581 0064 00       		.byte	0
 2582 0065 03       		.uleb128 0x3
 2583 0066 08       		.uleb128 0x8
 2584 0067 3A       		.uleb128 0x3a
 2585 0068 0B       		.uleb128 0xb
 2586 0069 3B       		.uleb128 0x3b
 2587 006a 0B       		.uleb128 0xb
 2588 006b 49       		.uleb128 0x49
 2589 006c 13       		.uleb128 0x13
 2590 006d 38       		.uleb128 0x38
 2591 006e 0B       		.uleb128 0xb
 2592 006f 00       		.byte	0
 2593 0070 00       		.byte	0
 2594 0071 0A       		.uleb128 0xa
 2595 0072 0D       		.uleb128 0xd
 2596 0073 00       		.byte	0
 2597 0074 03       		.uleb128 0x3
 2598 0075 08       		.uleb128 0x8
 2599 0076 3A       		.uleb128 0x3a
 2600 0077 0B       		.uleb128 0xb
ARM GAS  C:\Users\RAKIBU~1\AppData\Local\Temp\ccsr67Nb.s 			page 47


 2601 0078 3B       		.uleb128 0x3b
 2602 0079 05       		.uleb128 0x5
 2603 007a 49       		.uleb128 0x49
 2604 007b 13       		.uleb128 0x13
 2605 007c 38       		.uleb128 0x38
 2606 007d 0B       		.uleb128 0xb
 2607 007e 00       		.byte	0
 2608 007f 00       		.byte	0
 2609 0080 0B       		.uleb128 0xb
 2610 0081 0D       		.uleb128 0xd
 2611 0082 00       		.byte	0
 2612 0083 03       		.uleb128 0x3
 2613 0084 0E       		.uleb128 0xe
 2614 0085 3A       		.uleb128 0x3a
 2615 0086 0B       		.uleb128 0xb
 2616 0087 3B       		.uleb128 0x3b
 2617 0088 05       		.uleb128 0x5
 2618 0089 49       		.uleb128 0x49
 2619 008a 13       		.uleb128 0x13
 2620 008b 38       		.uleb128 0x38
 2621 008c 0B       		.uleb128 0xb
 2622 008d 00       		.byte	0
 2623 008e 00       		.byte	0
 2624 008f 0C       		.uleb128 0xc
 2625 0090 0F       		.uleb128 0xf
 2626 0091 00       		.byte	0
 2627 0092 0B       		.uleb128 0xb
 2628 0093 0B       		.uleb128 0xb
 2629 0094 49       		.uleb128 0x49
 2630 0095 13       		.uleb128 0x13
 2631 0096 00       		.byte	0
 2632 0097 00       		.byte	0
 2633 0098 0D       		.uleb128 0xd
 2634 0099 13       		.uleb128 0x13
 2635 009a 01       		.byte	0x1
 2636 009b 03       		.uleb128 0x3
 2637 009c 0E       		.uleb128 0xe
 2638 009d 0B       		.uleb128 0xb
 2639 009e 0B       		.uleb128 0xb
 2640 009f 3A       		.uleb128 0x3a
 2641 00a0 0B       		.uleb128 0xb
 2642 00a1 3B       		.uleb128 0x3b
 2643 00a2 05       		.uleb128 0x5
 2644 00a3 01       		.uleb128 0x1
 2645 00a4 13       		.uleb128 0x13
 2646 00a5 00       		.byte	0
 2647 00a6 00       		.byte	0
 2648 00a7 0E       		.uleb128 0xe
 2649 00a8 15       		.uleb128 0x15
 2650 00a9 01       		.byte	0x1
 2651 00aa 27       		.uleb128 0x27
 2652 00ab 19       		.uleb128 0x19
 2653 00ac 01       		.uleb128 0x1
 2654 00ad 13       		.uleb128 0x13
 2655 00ae 00       		.byte	0
 2656 00af 00       		.byte	0
 2657 00b0 0F       		.uleb128 0xf
ARM GAS  C:\Users\RAKIBU~1\AppData\Local\Temp\ccsr67Nb.s 			page 48


 2658 00b1 05       		.uleb128 0x5
 2659 00b2 00       		.byte	0
 2660 00b3 49       		.uleb128 0x49
 2661 00b4 13       		.uleb128 0x13
 2662 00b5 00       		.byte	0
 2663 00b6 00       		.byte	0
 2664 00b7 10       		.uleb128 0x10
 2665 00b8 0F       		.uleb128 0xf
 2666 00b9 00       		.byte	0
 2667 00ba 0B       		.uleb128 0xb
 2668 00bb 0B       		.uleb128 0xb
 2669 00bc 00       		.byte	0
 2670 00bd 00       		.byte	0
 2671 00be 11       		.uleb128 0x11
 2672 00bf 13       		.uleb128 0x13
 2673 00c0 01       		.byte	0x1
 2674 00c1 03       		.uleb128 0x3
 2675 00c2 0E       		.uleb128 0xe
 2676 00c3 0B       		.uleb128 0xb
 2677 00c4 05       		.uleb128 0x5
 2678 00c5 3A       		.uleb128 0x3a
 2679 00c6 0B       		.uleb128 0xb
 2680 00c7 3B       		.uleb128 0x3b
 2681 00c8 05       		.uleb128 0x5
 2682 00c9 01       		.uleb128 0x1
 2683 00ca 13       		.uleb128 0x13
 2684 00cb 00       		.byte	0
 2685 00cc 00       		.byte	0
 2686 00cd 12       		.uleb128 0x12
 2687 00ce 0D       		.uleb128 0xd
 2688 00cf 00       		.byte	0
 2689 00d0 03       		.uleb128 0x3
 2690 00d1 0E       		.uleb128 0xe
 2691 00d2 3A       		.uleb128 0x3a
 2692 00d3 0B       		.uleb128 0xb
 2693 00d4 3B       		.uleb128 0x3b
 2694 00d5 05       		.uleb128 0x5
 2695 00d6 49       		.uleb128 0x49
 2696 00d7 13       		.uleb128 0x13
 2697 00d8 38       		.uleb128 0x38
 2698 00d9 05       		.uleb128 0x5
 2699 00da 00       		.byte	0
 2700 00db 00       		.byte	0
 2701 00dc 13       		.uleb128 0x13
 2702 00dd 0D       		.uleb128 0xd
 2703 00de 00       		.byte	0
 2704 00df 03       		.uleb128 0x3
 2705 00e0 08       		.uleb128 0x8
 2706 00e1 3A       		.uleb128 0x3a
 2707 00e2 0B       		.uleb128 0xb
 2708 00e3 3B       		.uleb128 0x3b
 2709 00e4 05       		.uleb128 0x5
 2710 00e5 49       		.uleb128 0x49
 2711 00e6 13       		.uleb128 0x13
 2712 00e7 38       		.uleb128 0x38
 2713 00e8 05       		.uleb128 0x5
 2714 00e9 00       		.byte	0
ARM GAS  C:\Users\RAKIBU~1\AppData\Local\Temp\ccsr67Nb.s 			page 49


 2715 00ea 00       		.byte	0
 2716 00eb 14       		.uleb128 0x14
 2717 00ec 34       		.uleb128 0x34
 2718 00ed 00       		.byte	0
 2719 00ee 03       		.uleb128 0x3
 2720 00ef 0E       		.uleb128 0xe
 2721 00f0 3A       		.uleb128 0x3a
 2722 00f1 0B       		.uleb128 0xb
 2723 00f2 3B       		.uleb128 0x3b
 2724 00f3 05       		.uleb128 0x5
 2725 00f4 49       		.uleb128 0x49
 2726 00f5 13       		.uleb128 0x13
 2727 00f6 3F       		.uleb128 0x3f
 2728 00f7 19       		.uleb128 0x19
 2729 00f8 3C       		.uleb128 0x3c
 2730 00f9 19       		.uleb128 0x19
 2731 00fa 00       		.byte	0
 2732 00fb 00       		.byte	0
 2733 00fc 15       		.uleb128 0x15
 2734 00fd 34       		.uleb128 0x34
 2735 00fe 00       		.byte	0
 2736 00ff 03       		.uleb128 0x3
 2737 0100 0E       		.uleb128 0xe
 2738 0101 3A       		.uleb128 0x3a
 2739 0102 0B       		.uleb128 0xb
 2740 0103 3B       		.uleb128 0x3b
 2741 0104 0B       		.uleb128 0xb
 2742 0105 49       		.uleb128 0x49
 2743 0106 13       		.uleb128 0x13
 2744 0107 3F       		.uleb128 0x3f
 2745 0108 19       		.uleb128 0x19
 2746 0109 3C       		.uleb128 0x3c
 2747 010a 19       		.uleb128 0x19
 2748 010b 00       		.byte	0
 2749 010c 00       		.byte	0
 2750 010d 16       		.uleb128 0x16
 2751 010e 01       		.uleb128 0x1
 2752 010f 01       		.byte	0x1
 2753 0110 49       		.uleb128 0x49
 2754 0111 13       		.uleb128 0x13
 2755 0112 01       		.uleb128 0x1
 2756 0113 13       		.uleb128 0x13
 2757 0114 00       		.byte	0
 2758 0115 00       		.byte	0
 2759 0116 17       		.uleb128 0x17
 2760 0117 21       		.uleb128 0x21
 2761 0118 00       		.byte	0
 2762 0119 49       		.uleb128 0x49
 2763 011a 13       		.uleb128 0x13
 2764 011b 2F       		.uleb128 0x2f
 2765 011c 0B       		.uleb128 0xb
 2766 011d 00       		.byte	0
 2767 011e 00       		.byte	0
 2768 011f 18       		.uleb128 0x18
 2769 0120 13       		.uleb128 0x13
 2770 0121 01       		.byte	0x1
 2771 0122 0B       		.uleb128 0xb
ARM GAS  C:\Users\RAKIBU~1\AppData\Local\Temp\ccsr67Nb.s 			page 50


 2772 0123 0B       		.uleb128 0xb
 2773 0124 3A       		.uleb128 0x3a
 2774 0125 0B       		.uleb128 0xb
 2775 0126 3B       		.uleb128 0x3b
 2776 0127 0B       		.uleb128 0xb
 2777 0128 01       		.uleb128 0x1
 2778 0129 13       		.uleb128 0x13
 2779 012a 00       		.byte	0
 2780 012b 00       		.byte	0
 2781 012c 19       		.uleb128 0x19
 2782 012d 17       		.uleb128 0x17
 2783 012e 01       		.byte	0x1
 2784 012f 0B       		.uleb128 0xb
 2785 0130 0B       		.uleb128 0xb
 2786 0131 3A       		.uleb128 0x3a
 2787 0132 0B       		.uleb128 0xb
 2788 0133 3B       		.uleb128 0x3b
 2789 0134 0B       		.uleb128 0xb
 2790 0135 01       		.uleb128 0x1
 2791 0136 13       		.uleb128 0x13
 2792 0137 00       		.byte	0
 2793 0138 00       		.byte	0
 2794 0139 1A       		.uleb128 0x1a
 2795 013a 0D       		.uleb128 0xd
 2796 013b 00       		.byte	0
 2797 013c 03       		.uleb128 0x3
 2798 013d 08       		.uleb128 0x8
 2799 013e 3A       		.uleb128 0x3a
 2800 013f 0B       		.uleb128 0xb
 2801 0140 3B       		.uleb128 0x3b
 2802 0141 0B       		.uleb128 0xb
 2803 0142 49       		.uleb128 0x49
 2804 0143 13       		.uleb128 0x13
 2805 0144 00       		.byte	0
 2806 0145 00       		.byte	0
 2807 0146 1B       		.uleb128 0x1b
 2808 0147 0D       		.uleb128 0xd
 2809 0148 00       		.byte	0
 2810 0149 03       		.uleb128 0x3
 2811 014a 0E       		.uleb128 0xe
 2812 014b 3A       		.uleb128 0x3a
 2813 014c 0B       		.uleb128 0xb
 2814 014d 3B       		.uleb128 0x3b
 2815 014e 0B       		.uleb128 0xb
 2816 014f 49       		.uleb128 0x49
 2817 0150 13       		.uleb128 0x13
 2818 0151 00       		.byte	0
 2819 0152 00       		.byte	0
 2820 0153 1C       		.uleb128 0x1c
 2821 0154 0D       		.uleb128 0xd
 2822 0155 00       		.byte	0
 2823 0156 03       		.uleb128 0x3
 2824 0157 0E       		.uleb128 0xe
 2825 0158 3A       		.uleb128 0x3a
 2826 0159 0B       		.uleb128 0xb
 2827 015a 3B       		.uleb128 0x3b
 2828 015b 0B       		.uleb128 0xb
ARM GAS  C:\Users\RAKIBU~1\AppData\Local\Temp\ccsr67Nb.s 			page 51


 2829 015c 49       		.uleb128 0x49
 2830 015d 13       		.uleb128 0x13
 2831 015e 0B       		.uleb128 0xb
 2832 015f 0B       		.uleb128 0xb
 2833 0160 0D       		.uleb128 0xd
 2834 0161 0B       		.uleb128 0xb
 2835 0162 0C       		.uleb128 0xc
 2836 0163 0B       		.uleb128 0xb
 2837 0164 38       		.uleb128 0x38
 2838 0165 0B       		.uleb128 0xb
 2839 0166 00       		.byte	0
 2840 0167 00       		.byte	0
 2841 0168 1D       		.uleb128 0x1d
 2842 0169 13       		.uleb128 0x13
 2843 016a 01       		.byte	0x1
 2844 016b 0B       		.uleb128 0xb
 2845 016c 05       		.uleb128 0x5
 2846 016d 3A       		.uleb128 0x3a
 2847 016e 0B       		.uleb128 0xb
 2848 016f 3B       		.uleb128 0x3b
 2849 0170 0B       		.uleb128 0xb
 2850 0171 01       		.uleb128 0x1
 2851 0172 13       		.uleb128 0x13
 2852 0173 00       		.byte	0
 2853 0174 00       		.byte	0
 2854 0175 1E       		.uleb128 0x1e
 2855 0176 0D       		.uleb128 0xd
 2856 0177 00       		.byte	0
 2857 0178 03       		.uleb128 0x3
 2858 0179 0E       		.uleb128 0xe
 2859 017a 3A       		.uleb128 0x3a
 2860 017b 0B       		.uleb128 0xb
 2861 017c 3B       		.uleb128 0x3b
 2862 017d 05       		.uleb128 0x5
 2863 017e 49       		.uleb128 0x49
 2864 017f 13       		.uleb128 0x13
 2865 0180 00       		.byte	0
 2866 0181 00       		.byte	0
 2867 0182 1F       		.uleb128 0x1f
 2868 0183 34       		.uleb128 0x34
 2869 0184 00       		.byte	0
 2870 0185 03       		.uleb128 0x3
 2871 0186 08       		.uleb128 0x8
 2872 0187 3A       		.uleb128 0x3a
 2873 0188 0B       		.uleb128 0xb
 2874 0189 3B       		.uleb128 0x3b
 2875 018a 05       		.uleb128 0x5
 2876 018b 49       		.uleb128 0x49
 2877 018c 13       		.uleb128 0x13
 2878 018d 3F       		.uleb128 0x3f
 2879 018e 19       		.uleb128 0x19
 2880 018f 3C       		.uleb128 0x3c
 2881 0190 19       		.uleb128 0x19
 2882 0191 00       		.byte	0
 2883 0192 00       		.byte	0
 2884 0193 20       		.uleb128 0x20
 2885 0194 21       		.uleb128 0x21
ARM GAS  C:\Users\RAKIBU~1\AppData\Local\Temp\ccsr67Nb.s 			page 52


 2886 0195 00       		.byte	0
 2887 0196 00       		.byte	0
 2888 0197 00       		.byte	0
 2889 0198 21       		.uleb128 0x21
 2890 0199 15       		.uleb128 0x15
 2891 019a 01       		.byte	0x1
 2892 019b 27       		.uleb128 0x27
 2893 019c 19       		.uleb128 0x19
 2894 019d 49       		.uleb128 0x49
 2895 019e 13       		.uleb128 0x13
 2896 019f 01       		.uleb128 0x1
 2897 01a0 13       		.uleb128 0x13
 2898 01a1 00       		.byte	0
 2899 01a2 00       		.byte	0
 2900 01a3 22       		.uleb128 0x22
 2901 01a4 16       		.uleb128 0x16
 2902 01a5 00       		.byte	0
 2903 01a6 03       		.uleb128 0x3
 2904 01a7 0E       		.uleb128 0xe
 2905 01a8 3A       		.uleb128 0x3a
 2906 01a9 0B       		.uleb128 0xb
 2907 01aa 3B       		.uleb128 0x3b
 2908 01ab 05       		.uleb128 0x5
 2909 01ac 49       		.uleb128 0x49
 2910 01ad 13       		.uleb128 0x13
 2911 01ae 00       		.byte	0
 2912 01af 00       		.byte	0
 2913 01b0 23       		.uleb128 0x23
 2914 01b1 2E       		.uleb128 0x2e
 2915 01b2 01       		.byte	0x1
 2916 01b3 3F       		.uleb128 0x3f
 2917 01b4 19       		.uleb128 0x19
 2918 01b5 03       		.uleb128 0x3
 2919 01b6 0E       		.uleb128 0xe
 2920 01b7 3A       		.uleb128 0x3a
 2921 01b8 0B       		.uleb128 0xb
 2922 01b9 3B       		.uleb128 0x3b
 2923 01ba 0B       		.uleb128 0xb
 2924 01bb 27       		.uleb128 0x27
 2925 01bc 19       		.uleb128 0x19
 2926 01bd 11       		.uleb128 0x11
 2927 01be 01       		.uleb128 0x1
 2928 01bf 12       		.uleb128 0x12
 2929 01c0 06       		.uleb128 0x6
 2930 01c1 40       		.uleb128 0x40
 2931 01c2 18       		.uleb128 0x18
 2932 01c3 9742     		.uleb128 0x2117
 2933 01c5 19       		.uleb128 0x19
 2934 01c6 01       		.uleb128 0x1
 2935 01c7 13       		.uleb128 0x13
 2936 01c8 00       		.byte	0
 2937 01c9 00       		.byte	0
 2938 01ca 24       		.uleb128 0x24
 2939 01cb 898201   		.uleb128 0x4109
 2940 01ce 01       		.byte	0x1
 2941 01cf 11       		.uleb128 0x11
 2942 01d0 01       		.uleb128 0x1
ARM GAS  C:\Users\RAKIBU~1\AppData\Local\Temp\ccsr67Nb.s 			page 53


 2943 01d1 31       		.uleb128 0x31
 2944 01d2 13       		.uleb128 0x13
 2945 01d3 00       		.byte	0
 2946 01d4 00       		.byte	0
 2947 01d5 25       		.uleb128 0x25
 2948 01d6 8A8201   		.uleb128 0x410a
 2949 01d9 00       		.byte	0
 2950 01da 02       		.uleb128 0x2
 2951 01db 18       		.uleb128 0x18
 2952 01dc 9142     		.uleb128 0x2111
 2953 01de 18       		.uleb128 0x18
 2954 01df 00       		.byte	0
 2955 01e0 00       		.byte	0
 2956 01e1 26       		.uleb128 0x26
 2957 01e2 1D       		.uleb128 0x1d
 2958 01e3 01       		.byte	0x1
 2959 01e4 31       		.uleb128 0x31
 2960 01e5 13       		.uleb128 0x13
 2961 01e6 11       		.uleb128 0x11
 2962 01e7 01       		.uleb128 0x1
 2963 01e8 12       		.uleb128 0x12
 2964 01e9 06       		.uleb128 0x6
 2965 01ea 58       		.uleb128 0x58
 2966 01eb 0B       		.uleb128 0xb
 2967 01ec 59       		.uleb128 0x59
 2968 01ed 0B       		.uleb128 0xb
 2969 01ee 01       		.uleb128 0x1
 2970 01ef 13       		.uleb128 0x13
 2971 01f0 00       		.byte	0
 2972 01f1 00       		.byte	0
 2973 01f2 27       		.uleb128 0x27
 2974 01f3 1D       		.uleb128 0x1d
 2975 01f4 01       		.byte	0x1
 2976 01f5 31       		.uleb128 0x31
 2977 01f6 13       		.uleb128 0x13
 2978 01f7 11       		.uleb128 0x11
 2979 01f8 01       		.uleb128 0x1
 2980 01f9 12       		.uleb128 0x12
 2981 01fa 06       		.uleb128 0x6
 2982 01fb 58       		.uleb128 0x58
 2983 01fc 0B       		.uleb128 0xb
 2984 01fd 59       		.uleb128 0x59
 2985 01fe 05       		.uleb128 0x5
 2986 01ff 00       		.byte	0
 2987 0200 00       		.byte	0
 2988 0201 28       		.uleb128 0x28
 2989 0202 05       		.uleb128 0x5
 2990 0203 00       		.byte	0
 2991 0204 31       		.uleb128 0x31
 2992 0205 13       		.uleb128 0x13
 2993 0206 02       		.uleb128 0x2
 2994 0207 17       		.uleb128 0x17
 2995 0208 00       		.byte	0
 2996 0209 00       		.byte	0
 2997 020a 29       		.uleb128 0x29
 2998 020b 2E       		.uleb128 0x2e
 2999 020c 00       		.byte	0
ARM GAS  C:\Users\RAKIBU~1\AppData\Local\Temp\ccsr67Nb.s 			page 54


 3000 020d 03       		.uleb128 0x3
 3001 020e 0E       		.uleb128 0xe
 3002 020f 3A       		.uleb128 0x3a
 3003 0210 0B       		.uleb128 0xb
 3004 0211 3B       		.uleb128 0x3b
 3005 0212 05       		.uleb128 0x5
 3006 0213 27       		.uleb128 0x27
 3007 0214 19       		.uleb128 0x19
 3008 0215 20       		.uleb128 0x20
 3009 0216 0B       		.uleb128 0xb
 3010 0217 00       		.byte	0
 3011 0218 00       		.byte	0
 3012 0219 2A       		.uleb128 0x2a
 3013 021a 2E       		.uleb128 0x2e
 3014 021b 01       		.byte	0x1
 3015 021c 03       		.uleb128 0x3
 3016 021d 0E       		.uleb128 0xe
 3017 021e 3A       		.uleb128 0x3a
 3018 021f 0B       		.uleb128 0xb
 3019 0220 3B       		.uleb128 0x3b
 3020 0221 05       		.uleb128 0x5
 3021 0222 27       		.uleb128 0x27
 3022 0223 19       		.uleb128 0x19
 3023 0224 20       		.uleb128 0x20
 3024 0225 0B       		.uleb128 0xb
 3025 0226 01       		.uleb128 0x1
 3026 0227 13       		.uleb128 0x13
 3027 0228 00       		.byte	0
 3028 0229 00       		.byte	0
 3029 022a 2B       		.uleb128 0x2b
 3030 022b 05       		.uleb128 0x5
 3031 022c 00       		.byte	0
 3032 022d 03       		.uleb128 0x3
 3033 022e 0E       		.uleb128 0xe
 3034 022f 3A       		.uleb128 0x3a
 3035 0230 0B       		.uleb128 0xb
 3036 0231 3B       		.uleb128 0x3b
 3037 0232 05       		.uleb128 0x5
 3038 0233 49       		.uleb128 0x49
 3039 0234 13       		.uleb128 0x13
 3040 0235 00       		.byte	0
 3041 0236 00       		.byte	0
 3042 0237 2C       		.uleb128 0x2c
 3043 0238 2E       		.uleb128 0x2e
 3044 0239 00       		.byte	0
 3045 023a 3F       		.uleb128 0x3f
 3046 023b 19       		.uleb128 0x19
 3047 023c 3C       		.uleb128 0x3c
 3048 023d 19       		.uleb128 0x19
 3049 023e 6E       		.uleb128 0x6e
 3050 023f 0E       		.uleb128 0xe
 3051 0240 03       		.uleb128 0x3
 3052 0241 0E       		.uleb128 0xe
 3053 0242 3A       		.uleb128 0x3a
 3054 0243 0B       		.uleb128 0xb
 3055 0244 3B       		.uleb128 0x3b
 3056 0245 0B       		.uleb128 0xb
ARM GAS  C:\Users\RAKIBU~1\AppData\Local\Temp\ccsr67Nb.s 			page 55


 3057 0246 00       		.byte	0
 3058 0247 00       		.byte	0
 3059 0248 00       		.byte	0
 3060              		.section	.debug_loc,"",%progbits
 3061              	.Ldebug_loc0:
 3062              	.LLST2:
 3063 0000 62010000 		.4byte	.LVL12-.Ltext0
 3064 0004 68010000 		.4byte	.LVL13-.Ltext0
 3065 0008 0300     		.2byte	0x3
 3066 000a 08       		.byte	0x8
 3067 000b 20       		.byte	0x20
 3068 000c 9F       		.byte	0x9f
 3069 000d 00000000 		.4byte	0
 3070 0011 00000000 		.4byte	0
 3071              	.LLST3:
 3072 0015 84010000 		.4byte	.LVL15-.Ltext0
 3073 0019 8A010000 		.4byte	.LVL16-.Ltext0
 3074 001d 0200     		.2byte	0x2
 3075 001f 30       		.byte	0x30
 3076 0020 9F       		.byte	0x9f
 3077 0021 00000000 		.4byte	0
 3078 0025 00000000 		.4byte	0
 3079              	.LLST0:
 3080 0029 22010000 		.4byte	.LVL7-.Ltext0
 3081 002d 28010000 		.4byte	.LVL8-.Ltext0
 3082 0031 0300     		.2byte	0x3
 3083 0033 08       		.byte	0x8
 3084 0034 20       		.byte	0x20
 3085 0035 9F       		.byte	0x9f
 3086 0036 00000000 		.4byte	0
 3087 003a 00000000 		.4byte	0
 3088              	.LLST1:
 3089 003e 44010000 		.4byte	.LVL10-.Ltext0
 3090 0042 4A010000 		.4byte	.LVL11-.Ltext0
 3091 0046 0200     		.2byte	0x2
 3092 0048 30       		.byte	0x30
 3093 0049 9F       		.byte	0x9f
 3094 004a 00000000 		.4byte	0
 3095 004e 00000000 		.4byte	0
 3096              		.section	.debug_aranges,"",%progbits
 3097 0000 1C000000 		.4byte	0x1c
 3098 0004 0200     		.2byte	0x2
 3099 0006 00000000 		.4byte	.Ldebug_info0
 3100 000a 04       		.byte	0x4
 3101 000b 00       		.byte	0
 3102 000c 0000     		.2byte	0
 3103 000e 0000     		.2byte	0
 3104 0010 00000000 		.4byte	.Ltext0
 3105 0014 F0010000 		.4byte	.Letext0-.Ltext0
 3106 0018 00000000 		.4byte	0
 3107 001c 00000000 		.4byte	0
 3108              		.section	.debug_line,"",%progbits
 3109              	.Ldebug_line0:
 3110 0000 A6040000 		.section	.debug_str,"MS",%progbits,1
 3110      0200E203 
 3110      00000201 
 3110      FB0E0D00 
ARM GAS  C:\Users\RAKIBU~1\AppData\Local\Temp\ccsr67Nb.s 			page 56


 3110      01010101 
 3111              	.LASF56:
 3112 0000 72656164 		.ascii	"ready_list_t\000"
 3112      795F6C69 
 3112      73745F74 
 3112      00
 3113              	.LASF4:
 3114 000d 73697A65 		.ascii	"size_t\000"
 3114      5F7400
 3115              	.LASF52:
 3116 0014 6E657874 		.ascii	"next\000"
 3116      00
 3117              	.LASF62:
 3118 0019 64656C74 		.ascii	"delta\000"
 3118      6100
 3119              	.LASF114:
 3120 001f 7264796D 		.ascii	"rdymsg\000"
 3120      736700
 3121              	.LASF20:
 3122 0026 75696E74 		.ascii	"uint64_t\000"
 3122      36345F74 
 3122      00
 3123              	.LASF78:
 3124 002f 6B65726E 		.ascii	"kernel_stats\000"
 3124      656C5F73 
 3124      74617473 
 3124      00
 3125              	.LASF5:
 3126 003c 5F5F7569 		.ascii	"__uint8_t\000"
 3126      6E74385F 
 3126      7400
 3127              	.LASF55:
 3128 0046 70726576 		.ascii	"prev\000"
 3128      00
 3129              	.LASF88:
 3130 004b 706F7274 		.ascii	"port_intctx\000"
 3130      5F696E74 
 3130      63747800 
 3131              	.LASF54:
 3132 0057 63685F74 		.ascii	"ch_threads_queue\000"
 3132      68726561 
 3132      64735F71 
 3132      75657565 
 3132      00
 3133              	.LASF67:
 3134 0068 73797374 		.ascii	"system_debug_t\000"
 3134      656D5F64 
 3134      65627567 
 3134      5F7400
 3135              	.LASF154:
 3136 0077 70726F76 		.ascii	"provider\000"
 3136      69646572 
 3136      00
 3137              	.LASF94:
 3138 0080 74797065 		.ascii	"type\000"
 3138      00
 3139              	.LASF164:
ARM GAS  C:\Users\RAKIBU~1\AppData\Local\Temp\ccsr67Nb.s 			page 57


 3140 0085 73656D5F 		.ascii	"sem_list\000"
 3140      6C697374 
 3140      00
 3141              	.LASF185:
 3142 008e 706F7274 		.ascii	"port_lock\000"
 3142      5F6C6F63 
 3142      6B00
 3143              	.LASF87:
 3144 0098 706F7274 		.ascii	"port_context\000"
 3144      5F636F6E 
 3144      74657874 
 3144      00
 3145              	.LASF105:
 3146 00a5 776F7273 		.ascii	"worst\000"
 3146      7400
 3147              	.LASF108:
 3148 00ab 74696D65 		.ascii	"time_measurement_t\000"
 3148      5F6D6561 
 3148      73757265 
 3148      6D656E74 
 3148      5F7400
 3149              	.LASF15:
 3150 00be 6C6F6E67 		.ascii	"long long unsigned int\000"
 3150      206C6F6E 
 3150      6720756E 
 3150      7369676E 
 3150      65642069 
 3151              	.LASF101:
 3152 00d5 63685F74 		.ascii	"ch_trace_buffer_t\000"
 3152      72616365 
 3152      5F627566 
 3152      6665725F 
 3152      7400
 3153              	.LASF179:
 3154 00e7 5F646267 		.ascii	"_dbg_check_enable\000"
 3154      5F636865 
 3154      636B5F65 
 3154      6E61626C 
 3154      6500
 3155              	.LASF115:
 3156 00f9 65786974 		.ascii	"exitcode\000"
 3156      636F6465 
 3156      00
 3157              	.LASF77:
 3158 0102 6D61696E 		.ascii	"mainthread\000"
 3158      74687265 
 3158      616400
 3159              	.LASF117:
 3160 010d 73656E74 		.ascii	"sentmsg\000"
 3160      6D736700 
 3161              	.LASF64:
 3162 0115 76697274 		.ascii	"virtual_timers_list_t\000"
 3162      75616C5F 
 3162      74696D65 
 3162      72735F6C 
 3162      6973745F 
 3163              	.LASF81:
ARM GAS  C:\Users\RAKIBU~1\AppData\Local\Temp\ccsr67Nb.s 			page 58


 3164 012b 49544D5F 		.ascii	"ITM_RxBuffer\000"
 3164      52784275 
 3164      66666572 
 3164      00
 3165              	.LASF157:
 3166 0138 64796E5F 		.ascii	"dyn_element_t\000"
 3166      656C656D 
 3166      656E745F 
 3166      7400
 3167              	.LASF153:
 3168 0146 616C6967 		.ascii	"align\000"
 3168      6E00
 3169              	.LASF22:
 3170 014c 72747469 		.ascii	"rttime_t\000"
 3170      6D655F74 
 3170      00
 3171              	.LASF1:
 3172 0155 6C6F6E67 		.ascii	"long long int\000"
 3172      206C6F6E 
 3172      6720696E 
 3172      7400
 3173              	.LASF3:
 3174 0163 7369676E 		.ascii	"signed char\000"
 3174      65642063 
 3174      68617200 
 3175              	.LASF156:
 3176 016f 63685F64 		.ascii	"ch_dyn_element\000"
 3176      796E5F65 
 3176      6C656D65 
 3176      6E7400
 3177              	.LASF99:
 3178 017e 73697A65 		.ascii	"size\000"
 3178      00
 3179              	.LASF75:
 3180 0183 726C6973 		.ascii	"rlist\000"
 3180      7400
 3181              	.LASF190:
 3182 0189 62617365 		.ascii	"basePri\000"
 3182      50726900 
 3183              	.LASF76:
 3184 0191 76746C69 		.ascii	"vtlist\000"
 3184      737400
 3185              	.LASF184:
 3186 0198 706F7274 		.ascii	"port_unlock\000"
 3186      5F756E6C 
 3186      6F636B00 
 3187              	.LASF38:
 3188 01a4 73746174 		.ascii	"state\000"
 3188      6500
 3189              	.LASF11:
 3190 01aa 6C6F6E67 		.ascii	"long int\000"
 3190      20696E74 
 3190      00
 3191              	.LASF98:
 3192 01b3 73757370 		.ascii	"suspended\000"
 3192      656E6465 
 3192      6400
ARM GAS  C:\Users\RAKIBU~1\AppData\Local\Temp\ccsr67Nb.s 			page 59


 3193              	.LASF24:
 3194 01bd 74737461 		.ascii	"tstate_t\000"
 3194      74655F74 
 3194      00
 3195              	.LASF97:
 3196 01c6 63685F74 		.ascii	"ch_trace_event_t\000"
 3196      72616365 
 3196      5F657665 
 3196      6E745F74 
 3196      00
 3197              	.LASF63:
 3198 01d7 66756E63 		.ascii	"func\000"
 3198      00
 3199              	.LASF47:
 3200 01dc 73746174 		.ascii	"stats\000"
 3200      7300
 3201              	.LASF125:
 3202 01e2 6964656E 		.ascii	"identifier\000"
 3202      74696669 
 3202      657200
 3203              	.LASF17:
 3204 01ed 75696E74 		.ascii	"uint16_t\000"
 3204      31365F74 
 3204      00
 3205              	.LASF142:
 3206 01f6 63686465 		.ascii	"chdebug_t\000"
 3206      6275675F 
 3206      7400
 3207              	.LASF140:
 3208 0200 6F66665F 		.ascii	"off_preempt\000"
 3208      70726565 
 3208      6D707400 
 3209              	.LASF100:
 3210 020c 62756666 		.ascii	"buffer\000"
 3210      657200
 3211              	.LASF139:
 3212 0213 6F66665F 		.ascii	"off_refs\000"
 3212      72656673 
 3212      00
 3213              	.LASF12:
 3214 021c 5F5F7569 		.ascii	"__uint32_t\000"
 3214      6E743332 
 3214      5F7400
 3215              	.LASF85:
 3216 0227 72656761 		.ascii	"regarm_t\000"
 3216      726D5F74 
 3216      00
 3217              	.LASF166:
 3218 0230 6D62785F 		.ascii	"mbx_list\000"
 3218      6C697374 
 3218      00
 3219              	.LASF68:
 3220 0239 63685F73 		.ascii	"ch_system_debug\000"
 3220      79737465 
 3220      6D5F6465 
 3220      62756700 
 3221              	.LASF41:
ARM GAS  C:\Users\RAKIBU~1\AppData\Local\Temp\ccsr67Nb.s 			page 60


 3222 0249 77616974 		.ascii	"waiting\000"
 3222      696E6700 
 3223              	.LASF84:
 3224 0251 41504250 		.ascii	"APBPrescTable\000"
 3224      72657363 
 3224      5461626C 
 3224      6500
 3225              	.LASF126:
 3226 025f 7A65726F 		.ascii	"zero\000"
 3226      00
 3227              	.LASF144:
 3228 0264 6D757465 		.ascii	"mutex_t\000"
 3228      785F7400 
 3229              	.LASF71:
 3230 026c 6C6F636B 		.ascii	"lock_cnt\000"
 3230      5F636E74 
 3230      00
 3231              	.LASF80:
 3232 0275 73797369 		.ascii	"sysinterval_t\000"
 3232      6E746572 
 3232      76616C5F 
 3232      7400
 3233              	.LASF29:
 3234 0283 636E745F 		.ascii	"cnt_t\000"
 3234      7400
 3235              	.LASF42:
 3236 0289 6D736771 		.ascii	"msgqueue\000"
 3236      75657565 
 3236      00
 3237              	.LASF0:
 3238 0292 756E7369 		.ascii	"unsigned int\000"
 3238      676E6564 
 3238      20696E74 
 3238      00
 3239              	.LASF82:
 3240 029f 53797374 		.ascii	"SystemCoreClock\000"
 3240      656D436F 
 3240      7265436C 
 3240      6F636B00 
 3241              	.LASF173:
 3242 02af 5F646267 		.ascii	"_dbg_check_leave_isr\000"
 3242      5F636865 
 3242      636B5F6C 
 3242      65617665 
 3242      5F697372 
 3243              	.LASF118:
 3244 02c4 77747365 		.ascii	"wtsemp\000"
 3244      6D7000
 3245              	.LASF116:
 3246 02cb 77747472 		.ascii	"wttrp\000"
 3246      7000
 3247              	.LASF143:
 3248 02d1 63685F64 		.ascii	"ch_debug\000"
 3248      65627567 
 3248      00
 3249              	.LASF155:
 3250 02da 6D656D6F 		.ascii	"memory_pool_t\000"
ARM GAS  C:\Users\RAKIBU~1\AppData\Local\Temp\ccsr67Nb.s 			page 61


 3250      72795F70 
 3250      6F6F6C5F 
 3250      7400
 3251              	.LASF109:
 3252 02e8 6E5F6972 		.ascii	"n_irq\000"
 3252      7100
 3253              	.LASF32:
 3254 02ee 71756575 		.ascii	"queue\000"
 3254      6500
 3255              	.LASF46:
 3256 02f4 6D706F6F 		.ascii	"mpool\000"
 3256      6C00
 3257              	.LASF188:
 3258 02fa 433A5C55 		.ascii	"C:\\Users\\RakibulChowdhury\\OneDrive - DIAS Geophy"
 3258      73657273 
 3258      5C52616B 
 3258      6962756C 
 3258      43686F77 
 3259 032a 73696361 		.ascii	"sical\\Dias32FirmwareDevelopment\\FirmwareRepo\\Dia"
 3259      6C5C4469 
 3259      61733332 
 3259      4669726D 
 3259      77617265 
 3260 035a 73333257 		.ascii	"s32Workspace\\DIAS-Gen2-Rakibul\000"
 3260      6F726B73 
 3260      70616365 
 3260      5C444941 
 3260      532D4765 
 3261              	.LASF113:
 3262 0379 6B65726E 		.ascii	"kernel_stats_t\000"
 3262      656C5F73 
 3262      74617473 
 3262      5F7400
 3263              	.LASF36:
 3264 0388 6E616D65 		.ascii	"name\000"
 3264      00
 3265              	.LASF50:
 3266 038d 63685F74 		.ascii	"ch_thread\000"
 3266      68726561 
 3266      6400
 3267              	.LASF27:
 3268 0397 6D73675F 		.ascii	"msg_t\000"
 3268      7400
 3269              	.LASF30:
 3270 039d 75636E74 		.ascii	"ucnt_t\000"
 3270      5F7400
 3271              	.LASF43:
 3272 03a4 6570656E 		.ascii	"epending\000"
 3272      64696E67 
 3272      00
 3273              	.LASF172:
 3274 03ad 63684462 		.ascii	"chDbgCheckClassI\000"
 3274      67436865 
 3274      636B436C 
 3274      61737349 
 3274      00
 3275              	.LASF73:
ARM GAS  C:\Users\RAKIBU~1\AppData\Local\Temp\ccsr67Nb.s 			page 62


 3276 03be 63685F73 		.ascii	"ch_system_t\000"
 3276      79737465 
 3276      6D5F7400 
 3277              	.LASF132:
 3278 03ca 6F66665F 		.ascii	"off_ctx\000"
 3278      63747800 
 3279              	.LASF23:
 3280 03d2 746D6F64 		.ascii	"tmode_t\000"
 3280      655F7400 
 3281              	.LASF171:
 3282 03da 63684462 		.ascii	"chDbgCheckClassS\000"
 3282      67436865 
 3282      636B436C 
 3282      61737353 
 3282      00
 3283              	.LASF112:
 3284 03eb 6D5F6372 		.ascii	"m_crit_isr\000"
 3284      69745F69 
 3284      737200
 3285              	.LASF57:
 3286 03f6 63685F72 		.ascii	"ch_ready_list\000"
 3286      65616479 
 3286      5F6C6973 
 3286      7400
 3287              	.LASF28:
 3288 0404 6576656E 		.ascii	"eventmask_t\000"
 3288      746D6173 
 3288      6B5F7400 
 3289              	.LASF83:
 3290 0410 41484250 		.ascii	"AHBPrescTable\000"
 3290      72657363 
 3290      5461626C 
 3290      6500
 3291              	.LASF148:
 3292 041e 656E646D 		.ascii	"endmem\000"
 3292      656D00
 3293              	.LASF10:
 3294 0425 5F5F696E 		.ascii	"__int32_t\000"
 3294      7433325F 
 3294      7400
 3295              	.LASF86:
 3296 042f 73746B61 		.ascii	"stkalign_t\000"
 3296      6C69676E 
 3296      5F7400
 3297              	.LASF34:
 3298 043a 6E657765 		.ascii	"newer\000"
 3298      7200
 3299              	.LASF95:
 3300 0440 72747374 		.ascii	"rtstamp\000"
 3300      616D7000 
 3301              	.LASF180:
 3302 0448 5F646267 		.ascii	"_dbg_check_suspend\000"
 3302      5F636865 
 3302      636B5F73 
 3302      75737065 
 3302      6E6400
 3303              	.LASF45:
ARM GAS  C:\Users\RAKIBU~1\AppData\Local\Temp\ccsr67Nb.s 			page 63


 3304 045b 7265616C 		.ascii	"realprio\000"
 3304      7072696F 
 3304      00
 3305              	.LASF127:
 3306 0464 76657273 		.ascii	"version\000"
 3306      696F6E00 
 3307              	.LASF191:
 3308 046c 63685379 		.ascii	"chSysHalt\000"
 3308      7348616C 
 3308      7400
 3309              	.LASF21:
 3310 0476 7274636E 		.ascii	"rtcnt_t\000"
 3310      745F7400 
 3311              	.LASF48:
 3312 047e 74687265 		.ascii	"thread_reference_t\000"
 3312      61645F72 
 3312      65666572 
 3312      656E6365 
 3312      5F7400
 3313              	.LASF178:
 3314 0491 5F646267 		.ascii	"_dbg_check_lock\000"
 3314      5F636865 
 3314      636B5F6C 
 3314      6F636B00 
 3315              	.LASF65:
 3316 04a1 63685F76 		.ascii	"ch_virtual_timers_list\000"
 3316      69727475 
 3316      616C5F74 
 3316      696D6572 
 3316      735F6C69 
 3317              	.LASF2:
 3318 04b8 6C6F6E67 		.ascii	"long double\000"
 3318      20646F75 
 3318      626C6500 
 3319              	.LASF158:
 3320 04c4 63685F64 		.ascii	"ch_dyn_list\000"
 3320      796E5F6C 
 3320      69737400 
 3321              	.LASF133:
 3322 04d0 6F66665F 		.ascii	"off_newer\000"
 3322      6E657765 
 3322      7200
 3323              	.LASF174:
 3324 04da 5F646267 		.ascii	"_dbg_check_enter_isr\000"
 3324      5F636865 
 3324      636B5F65 
 3324      6E746572 
 3324      5F697372 
 3325              	.LASF159:
 3326 04ef 64796E5F 		.ascii	"dyn_list_t\000"
 3326      6C697374 
 3326      5F7400
 3327              	.LASF103:
 3328 04fa 746D5F63 		.ascii	"tm_calibration_t\000"
 3328      616C6962 
 3328      72617469 
 3328      6F6E5F74 
ARM GAS  C:\Users\RAKIBU~1\AppData\Local\Temp\ccsr67Nb.s 			page 64


 3328      00
 3329              	.LASF186:
 3330 050b 474E5520 		.ascii	"GNU C11 7.2.1 20170904 (release) [ARM/embedded-7-br"
 3330      43313120 
 3330      372E322E 
 3330      31203230 
 3330      31373039 
 3331 053e 616E6368 		.ascii	"anch revision 255204] -mcpu=cortex-m4 -mthumb -ggdb"
 3331      20726576 
 3331      6973696F 
 3331      6E203235 
 3331      35323034 
 3332 0571 202D4F67 		.ascii	" -Og -fomit-frame-pointer -falign-functions=16\000"
 3332      202D666F 
 3332      6D69742D 
 3332      6672616D 
 3332      652D706F 
 3333              	.LASF96:
 3334 05a0 74696D65 		.ascii	"time\000"
 3334      00
 3335              	.LASF33:
 3336 05a5 7072696F 		.ascii	"prio\000"
 3336      00
 3337              	.LASF176:
 3338 05aa 5F646267 		.ascii	"_dbg_check_lock_from_isr\000"
 3338      5F636865 
 3338      636B5F6C 
 3338      6F636B5F 
 3338      66726F6D 
 3339              	.LASF165:
 3340 05c3 73656D5F 		.ascii	"sem_pool\000"
 3340      706F6F6C 
 3340      00
 3341              	.LASF58:
 3342 05cc 63757272 		.ascii	"current\000"
 3342      656E7400 
 3343              	.LASF106:
 3344 05d4 6C617374 		.ascii	"last\000"
 3344      00
 3345              	.LASF14:
 3346 05d9 5F5F7569 		.ascii	"__uint64_t\000"
 3346      6E743634 
 3346      5F7400
 3347              	.LASF149:
 3348 05e4 6D656D63 		.ascii	"memcore_t\000"
 3348      6F72655F 
 3348      7400
 3349              	.LASF107:
 3350 05ee 63756D75 		.ascii	"cumulative\000"
 3350      6C617469 
 3350      766500
 3351              	.LASF146:
 3352 05f9 6D656D67 		.ascii	"memgetfunc_t\000"
 3352      65746675 
 3352      6E635F74 
 3352      00
 3353              	.LASF25:
ARM GAS  C:\Users\RAKIBU~1\AppData\Local\Temp\ccsr67Nb.s 			page 65


 3354 0606 74726566 		.ascii	"trefs_t\000"
 3354      735F7400 
 3355              	.LASF181:
 3356 060e 5F646267 		.ascii	"_dbg_check_disable\000"
 3356      5F636865 
 3356      636B5F64 
 3356      69736162 
 3356      6C6500
 3357              	.LASF130:
 3358 0621 74687265 		.ascii	"threadsize\000"
 3358      61647369 
 3358      7A6500
 3359              	.LASF40:
 3360 062c 72656673 		.ascii	"refs\000"
 3360      00
 3361              	.LASF60:
 3362 0631 76697274 		.ascii	"virtual_timer_t\000"
 3362      75616C5F 
 3362      74696D65 
 3362      725F7400 
 3363              	.LASF93:
 3364 0641 75736572 		.ascii	"user\000"
 3364      00
 3365              	.LASF26:
 3366 0646 74707269 		.ascii	"tprio_t\000"
 3366      6F5F7400 
 3367              	.LASF163:
 3368 064e 6275665F 		.ascii	"buf_list\000"
 3368      6C697374 
 3368      00
 3369              	.LASF110:
 3370 0657 6E5F6374 		.ascii	"n_ctxswc\000"
 3370      78737763 
 3370      00
 3371              	.LASF145:
 3372 0660 5F426F6F 		.ascii	"_Bool\000"
 3372      6C00
 3373              	.LASF18:
 3374 0666 696E7433 		.ascii	"int32_t\000"
 3374      325F7400 
 3375              	.LASF6:
 3376 066e 756E7369 		.ascii	"unsigned char\000"
 3376      676E6564 
 3376      20636861 
 3376      7200
 3377              	.LASF131:
 3378 067c 6F66665F 		.ascii	"off_prio\000"
 3378      7072696F 
 3378      00
 3379              	.LASF136:
 3380 0685 6F66665F 		.ascii	"off_stklimit\000"
 3380      73746B6C 
 3380      696D6974 
 3380      00
 3381              	.LASF91:
 3382 0692 72656173 		.ascii	"reason\000"
 3382      6F6E00
ARM GAS  C:\Users\RAKIBU~1\AppData\Local\Temp\ccsr67Nb.s 			page 66


 3383              	.LASF7:
 3384 0699 73686F72 		.ascii	"short int\000"
 3384      7420696E 
 3384      7400
 3385              	.LASF66:
 3386 06a3 6C617374 		.ascii	"lasttime\000"
 3386      74696D65 
 3386      00
 3387              	.LASF92:
 3388 06ac 68616C74 		.ascii	"halt\000"
 3388      00
 3389              	.LASF120:
 3390 06b1 65776D61 		.ascii	"ewmask\000"
 3390      736B00
 3391              	.LASF74:
 3392 06b8 63685F73 		.ascii	"ch_system\000"
 3392      79737465 
 3392      6D00
 3393              	.LASF170:
 3394 06c2 63685F66 		.ascii	"ch_factory\000"
 3394      6163746F 
 3394      727900
 3395              	.LASF162:
 3396 06cd 6F626A5F 		.ascii	"obj_pool\000"
 3396      706F6F6C 
 3396      00
 3397              	.LASF160:
 3398 06d6 63685F6F 		.ascii	"ch_objects_factory\000"
 3398      626A6563 
 3398      74735F66 
 3398      6163746F 
 3398      727900
 3399              	.LASF61:
 3400 06e9 63685F76 		.ascii	"ch_virtual_timer\000"
 3400      69727475 
 3400      616C5F74 
 3400      696D6572 
 3400      00
 3401              	.LASF121:
 3402 06fa 63685F73 		.ascii	"ch_semaphore\000"
 3402      656D6170 
 3402      686F7265 
 3402      00
 3403              	.LASF141:
 3404 0707 6F66665F 		.ascii	"off_time\000"
 3404      74696D65 
 3404      00
 3405              	.LASF124:
 3406 0710 63685F69 		.ascii	"ch_idle_thread_wa\000"
 3406      646C655F 
 3406      74687265 
 3406      61645F77 
 3406      6100
 3407              	.LASF129:
 3408 0722 74696D65 		.ascii	"timesize\000"
 3408      73697A65 
 3408      00
ARM GAS  C:\Users\RAKIBU~1\AppData\Local\Temp\ccsr67Nb.s 			page 67


 3409              	.LASF168:
 3410 072b 70697065 		.ascii	"pipe_list\000"
 3410      5F6C6973 
 3410      7400
 3411              	.LASF19:
 3412 0735 75696E74 		.ascii	"uint32_t\000"
 3412      33325F74 
 3412      00
 3413              	.LASF119:
 3414 073e 77746D74 		.ascii	"wtmtxp\000"
 3414      787000
 3415              	.LASF51:
 3416 0745 63685F74 		.ascii	"ch_threads_list\000"
 3416      68726561 
 3416      64735F6C 
 3416      69737400 
 3417              	.LASF123:
 3418 0755 6F776E65 		.ascii	"owner\000"
 3418      7200
 3419              	.LASF13:
 3420 075b 6C6F6E67 		.ascii	"long unsigned int\000"
 3420      20756E73 
 3420      69676E65 
 3420      6420696E 
 3420      7400
 3421              	.LASF37:
 3422 076d 77616261 		.ascii	"wabase\000"
 3422      736500
 3423              	.LASF90:
 3424 0774 63686172 		.ascii	"char\000"
 3424      00
 3425              	.LASF35:
 3426 0779 6F6C6465 		.ascii	"older\000"
 3426      7200
 3427              	.LASF187:
 3428 077f 2E2E2F2E 		.ascii	"../../../ChibiOSRepo/chibios191/os/rt/src/chdebug.c"
 3428      2E2F2E2E 
 3428      2F436869 
 3428      62694F53 
 3428      5265706F 
 3429 07b2 00       		.ascii	"\000"
 3430              	.LASF161:
 3431 07b3 6F626A5F 		.ascii	"obj_list\000"
 3431      6C697374 
 3431      00
 3432              	.LASF8:
 3433 07bc 5F5F7569 		.ascii	"__uint16_t\000"
 3433      6E743136 
 3433      5F7400
 3434              	.LASF182:
 3435 07c7 706F7274 		.ascii	"port_unlock_from_isr\000"
 3435      5F756E6C 
 3435      6F636B5F 
 3435      66726F6D 
 3435      5F697372 
 3436              	.LASF31:
 3437 07dc 74687265 		.ascii	"thread_t\000"
ARM GAS  C:\Users\RAKIBU~1\AppData\Local\Temp\ccsr67Nb.s 			page 68


 3437      61645F74 
 3437      00
 3438              	.LASF104:
 3439 07e5 62657374 		.ascii	"best\000"
 3439      00
 3440              	.LASF150:
 3441 07ea 63685F6D 		.ascii	"ch_memcore\000"
 3441      656D636F 
 3441      726500
 3442              	.LASF79:
 3443 07f5 73797374 		.ascii	"systime_t\000"
 3443      696D655F 
 3443      7400
 3444              	.LASF59:
 3445 07ff 76746675 		.ascii	"vtfunc_t\000"
 3445      6E635F74 
 3445      00
 3446              	.LASF189:
 3447 0808 5F5F7365 		.ascii	"__set_BASEPRI\000"
 3447      745F4241 
 3447      53455052 
 3447      4900
 3448              	.LASF69:
 3449 0816 70616E69 		.ascii	"panic_msg\000"
 3449      635F6D73 
 3449      6700
 3450              	.LASF102:
 3451 0820 6F666673 		.ascii	"offset\000"
 3451      657400
 3452              	.LASF122:
 3453 0827 63685F6D 		.ascii	"ch_mutex\000"
 3453      75746578 
 3453      00
 3454              	.LASF134:
 3455 0830 6F66665F 		.ascii	"off_older\000"
 3455      6F6C6465 
 3455      7200
 3456              	.LASF9:
 3457 083a 73686F72 		.ascii	"short unsigned int\000"
 3457      7420756E 
 3457      7369676E 
 3457      65642069 
 3457      6E7400
 3458              	.LASF183:
 3459 084d 706F7274 		.ascii	"port_lock_from_isr\000"
 3459      5F6C6F63 
 3459      6B5F6672 
 3459      6F6D5F69 
 3459      737200
 3460              	.LASF152:
 3461 0860 6F626A65 		.ascii	"object_size\000"
 3461      63745F73 
 3461      697A6500 
 3462              	.LASF128:
 3463 086c 70747273 		.ascii	"ptrsize\000"
 3463      697A6500 
 3464              	.LASF175:
ARM GAS  C:\Users\RAKIBU~1\AppData\Local\Temp\ccsr67Nb.s 			page 69


 3465 0874 5F646267 		.ascii	"_dbg_check_unlock_from_isr\000"
 3465      5F636865 
 3465      636B5F75 
 3465      6E6C6F63 
 3465      6B5F6672 
 3466              	.LASF53:
 3467 088f 74687265 		.ascii	"threads_queue_t\000"
 3467      6164735F 
 3467      71756575 
 3467      655F7400 
 3468              	.LASF151:
 3469 089f 706F6F6C 		.ascii	"pool_header\000"
 3469      5F686561 
 3469      64657200 
 3470              	.LASF70:
 3471 08ab 6973725F 		.ascii	"isr_cnt\000"
 3471      636E7400 
 3472              	.LASF135:
 3473 08b3 6F66665F 		.ascii	"off_name\000"
 3473      6E616D65 
 3473      00
 3474              	.LASF16:
 3475 08bc 75696E74 		.ascii	"uint8_t\000"
 3475      385F7400 
 3476              	.LASF39:
 3477 08c4 666C6167 		.ascii	"flags\000"
 3477      7300
 3478              	.LASF167:
 3479 08ca 6669666F 		.ascii	"fifo_list\000"
 3479      5F6C6973 
 3479      7400
 3480              	.LASF177:
 3481 08d4 5F646267 		.ascii	"_dbg_check_unlock\000"
 3481      5F636865 
 3481      636B5F75 
 3481      6E6C6F63 
 3481      6B00
 3482              	.LASF89:
 3483 08e6 77746F62 		.ascii	"wtobjp\000"
 3483      6A7000
 3484              	.LASF49:
 3485 08ed 74687265 		.ascii	"threads_list_t\000"
 3485      6164735F 
 3485      6C697374 
 3485      5F7400
 3486              	.LASF137:
 3487 08fc 6F66665F 		.ascii	"off_state\000"
 3487      73746174 
 3487      6500
 3488              	.LASF72:
 3489 0906 74726163 		.ascii	"trace_buffer\000"
 3489      655F6275 
 3489      66666572 
 3489      00
 3490              	.LASF169:
 3491 0913 6F626A65 		.ascii	"objects_factory_t\000"
 3491      6374735F 
ARM GAS  C:\Users\RAKIBU~1\AppData\Local\Temp\ccsr67Nb.s 			page 70


 3491      66616374 
 3491      6F72795F 
 3491      7400
 3492              	.LASF138:
 3493 0925 6F66665F 		.ascii	"off_flags\000"
 3493      666C6167 
 3493      7300
 3494              	.LASF44:
 3495 092f 6D74786C 		.ascii	"mtxlist\000"
 3495      69737400 
 3496              	.LASF111:
 3497 0937 6D5F6372 		.ascii	"m_crit_thd\000"
 3497      69745F74 
 3497      686400
 3498              	.LASF147:
 3499 0942 6E657874 		.ascii	"nextmem\000"
 3499      6D656D00 
 3500              		.ident	"GCC: (GNU Tools for Arm Embedded Processors 7-2017-q4-major) 7.2.1 20170904 (release) [ARM
ARM GAS  C:\Users\RAKIBU~1\AppData\Local\Temp\ccsr67Nb.s 			page 71


DEFINED SYMBOLS
                            *ABS*:00000000 chdebug.c
C:\Users\RAKIBU~1\AppData\Local\Temp\ccsr67Nb.s:15     .text:00000000 $t
C:\Users\RAKIBU~1\AppData\Local\Temp\ccsr67Nb.s:23     .text:00000000 _dbg_check_disable
C:\Users\RAKIBU~1\AppData\Local\Temp\ccsr67Nb.s:53     .text:00000018 $d
C:\Users\RAKIBU~1\AppData\Local\Temp\ccsr67Nb.s:58     .text:00000020 $t
C:\Users\RAKIBU~1\AppData\Local\Temp\ccsr67Nb.s:66     .text:00000020 _dbg_check_suspend
C:\Users\RAKIBU~1\AppData\Local\Temp\ccsr67Nb.s:95     .text:00000038 $d
C:\Users\RAKIBU~1\AppData\Local\Temp\ccsr67Nb.s:100    .text:00000040 $t
C:\Users\RAKIBU~1\AppData\Local\Temp\ccsr67Nb.s:108    .text:00000040 _dbg_check_enable
C:\Users\RAKIBU~1\AppData\Local\Temp\ccsr67Nb.s:137    .text:00000058 $d
C:\Users\RAKIBU~1\AppData\Local\Temp\ccsr67Nb.s:142    .text:00000060 $t
C:\Users\RAKIBU~1\AppData\Local\Temp\ccsr67Nb.s:150    .text:00000060 _dbg_check_lock
C:\Users\RAKIBU~1\AppData\Local\Temp\ccsr67Nb.s:183    .text:0000007c $d
C:\Users\RAKIBU~1\AppData\Local\Temp\ccsr67Nb.s:188    .text:00000084 $t
C:\Users\RAKIBU~1\AppData\Local\Temp\ccsr67Nb.s:196    .text:00000090 _dbg_check_unlock
C:\Users\RAKIBU~1\AppData\Local\Temp\ccsr67Nb.s:230    .text:000000b0 $d
C:\Users\RAKIBU~1\AppData\Local\Temp\ccsr67Nb.s:235    .text:000000b8 $t
C:\Users\RAKIBU~1\AppData\Local\Temp\ccsr67Nb.s:243    .text:000000c0 _dbg_check_lock_from_isr
C:\Users\RAKIBU~1\AppData\Local\Temp\ccsr67Nb.s:277    .text:000000e0 $d
C:\Users\RAKIBU~1\AppData\Local\Temp\ccsr67Nb.s:282    .text:000000e8 $t
C:\Users\RAKIBU~1\AppData\Local\Temp\ccsr67Nb.s:290    .text:000000f0 _dbg_check_unlock_from_isr
C:\Users\RAKIBU~1\AppData\Local\Temp\ccsr67Nb.s:325    .text:00000110 $d
C:\Users\RAKIBU~1\AppData\Local\Temp\ccsr67Nb.s:330    .text:00000118 $t
C:\Users\RAKIBU~1\AppData\Local\Temp\ccsr67Nb.s:338    .text:00000120 _dbg_check_enter_isr
C:\Users\RAKIBU~1\AppData\Local\Temp\ccsr67Nb.s:410    .text:0000014c $d
C:\Users\RAKIBU~1\AppData\Local\Temp\ccsr67Nb.s:415    .text:00000154 $t
C:\Users\RAKIBU~1\AppData\Local\Temp\ccsr67Nb.s:423    .text:00000160 _dbg_check_leave_isr
C:\Users\RAKIBU~1\AppData\Local\Temp\ccsr67Nb.s:494    .text:0000018c $d
C:\Users\RAKIBU~1\AppData\Local\Temp\ccsr67Nb.s:499    .text:00000194 $t
C:\Users\RAKIBU~1\AppData\Local\Temp\ccsr67Nb.s:507    .text:000001a0 chDbgCheckClassI
C:\Users\RAKIBU~1\AppData\Local\Temp\ccsr67Nb.s:538    .text:000001bc $d
C:\Users\RAKIBU~1\AppData\Local\Temp\ccsr67Nb.s:543    .text:000001c4 $t
C:\Users\RAKIBU~1\AppData\Local\Temp\ccsr67Nb.s:551    .text:000001d0 chDbgCheckClassS
C:\Users\RAKIBU~1\AppData\Local\Temp\ccsr67Nb.s:581    .text:000001e8 $d
C:\Users\RAKIBU~1\AppData\Local\Temp\ccsr67Nb.s:587    .rodata.str1.4:00000000 $d

UNDEFINED SYMBOLS
chSysHalt
ch
