ARM GAS  C:\Users\RAKIBU~1\AppData\Local\Temp\ccsr67Nb.s 			page 1


   1              		.cpu cortex-m4
   2              		.eabi_attribute 20, 1
   3              		.eabi_attribute 21, 1
   4              		.eabi_attribute 23, 3
   5              		.eabi_attribute 24, 1
   6              		.eabi_attribute 25, 1
   7              		.eabi_attribute 26, 1
   8              		.eabi_attribute 30, 1
   9              		.eabi_attribute 34, 1
  10              		.eabi_attribute 18, 4
  11              		.file	"chdebug.c"
  12              		.text
  13              	.Ltext0:
  14              		.cfi_sections	.debug_frame
  15              		.align	1
  16              		.p2align 4,,15
  17              		.global	_dbg_check_disable
  18              		.syntax unified
  19              		.thumb
  20              		.thumb_func
  21              		.fpu softvfp
  22              		.type	_dbg_check_disable, %function
  23              	_dbg_check_disable:
  24              	.LFB295:
  25              		.file 1 "../../../ChibiOSRepo/chibios191/os/rt/src/chdebug.c"
  26              		.loc 1 112 0
  27              		.cfi_startproc
  28              		@ args = 0, pretend = 0, frame = 0
  29              		@ frame_needed = 0, uses_anonymous_args = 0
  30 0000 08B5     		push	{r3, lr}
  31              		.cfi_def_cfa_offset 8
  32              		.cfi_offset 3, -8
  33              		.cfi_offset 14, -4
  34              		.loc 1 114 0
  35 0002 054B     		ldr	r3, .L5
  36 0004 DB6B     		ldr	r3, [r3, #60]
  37 0006 13B9     		cbnz	r3, .L2
  38              		.loc 1 114 0 is_stmt 0 discriminator 1
  39 0008 034B     		ldr	r3, .L5
  40 000a 1B6C     		ldr	r3, [r3, #64]
  41 000c 13B1     		cbz	r3, .L1
  42              	.L2:
  43              		.loc 1 115 0 is_stmt 1
  44 000e 0348     		ldr	r0, .L5+4
  45 0010 FFF7FEFF 		bl	chSysHalt
  46              	.LVL0:
  47              	.L1:
  48              		.loc 1 117 0
  49 0014 08BD     		pop	{r3, pc}
  50              	.L6:
  51 0016 00BF     		.align	2
  52              	.L5:
  53 0018 00000000 		.word	ch
  54 001c 00000000 		.word	.LC0
  55              		.cfi_endproc
  56              	.LFE295:
  57              		.size	_dbg_check_disable, .-_dbg_check_disable
ARM GAS  C:\Users\RAKIBU~1\AppData\Local\Temp\ccsr67Nb.s 			page 2


  58              		.align	1
  59              		.p2align 4,,15
  60              		.global	_dbg_check_suspend
  61              		.syntax unified
  62              		.thumb
  63              		.thumb_func
  64              		.fpu softvfp
  65              		.type	_dbg_check_suspend, %function
  66              	_dbg_check_suspend:
  67              	.LFB296:
  68              		.loc 1 124 0
  69              		.cfi_startproc
  70              		@ args = 0, pretend = 0, frame = 0
  71              		@ frame_needed = 0, uses_anonymous_args = 0
  72 0020 08B5     		push	{r3, lr}
  73              		.cfi_def_cfa_offset 8
  74              		.cfi_offset 3, -8
  75              		.cfi_offset 14, -4
  76              		.loc 1 126 0
  77 0022 054B     		ldr	r3, .L11
  78 0024 DB6B     		ldr	r3, [r3, #60]
  79 0026 13B9     		cbnz	r3, .L8
  80              		.loc 1 126 0 is_stmt 0 discriminator 1
  81 0028 034B     		ldr	r3, .L11
  82 002a 1B6C     		ldr	r3, [r3, #64]
  83 002c 13B1     		cbz	r3, .L7
  84              	.L8:
  85              		.loc 1 127 0 is_stmt 1
  86 002e 0348     		ldr	r0, .L11+4
  87 0030 FFF7FEFF 		bl	chSysHalt
  88              	.LVL1:
  89              	.L7:
  90              		.loc 1 129 0
  91 0034 08BD     		pop	{r3, pc}
  92              	.L12:
  93 0036 00BF     		.align	2
  94              	.L11:
  95 0038 00000000 		.word	ch
  96 003c 08000000 		.word	.LC1
  97              		.cfi_endproc
  98              	.LFE296:
  99              		.size	_dbg_check_suspend, .-_dbg_check_suspend
 100              		.align	1
 101              		.p2align 4,,15
 102              		.global	_dbg_check_enable
 103              		.syntax unified
 104              		.thumb
 105              		.thumb_func
 106              		.fpu softvfp
 107              		.type	_dbg_check_enable, %function
 108              	_dbg_check_enable:
 109              	.LFB297:
 110              		.loc 1 136 0
 111              		.cfi_startproc
 112              		@ args = 0, pretend = 0, frame = 0
 113              		@ frame_needed = 0, uses_anonymous_args = 0
 114 0040 08B5     		push	{r3, lr}
ARM GAS  C:\Users\RAKIBU~1\AppData\Local\Temp\ccsr67Nb.s 			page 3


 115              		.cfi_def_cfa_offset 8
 116              		.cfi_offset 3, -8
 117              		.cfi_offset 14, -4
 118              		.loc 1 138 0
 119 0042 054B     		ldr	r3, .L17
 120 0044 DB6B     		ldr	r3, [r3, #60]
 121 0046 13B9     		cbnz	r3, .L14
 122              		.loc 1 138 0 is_stmt 0 discriminator 1
 123 0048 034B     		ldr	r3, .L17
 124 004a 1B6C     		ldr	r3, [r3, #64]
 125 004c 13B1     		cbz	r3, .L13
 126              	.L14:
 127              		.loc 1 139 0 is_stmt 1
 128 004e 0348     		ldr	r0, .L17+4
 129 0050 FFF7FEFF 		bl	chSysHalt
 130              	.LVL2:
 131              	.L13:
 132              		.loc 1 141 0
 133 0054 08BD     		pop	{r3, pc}
 134              	.L18:
 135 0056 00BF     		.align	2
 136              	.L17:
 137 0058 00000000 		.word	ch
 138 005c 10000000 		.word	.LC2
 139              		.cfi_endproc
 140              	.LFE297:
 141              		.size	_dbg_check_enable, .-_dbg_check_enable
 142              		.align	1
 143              		.p2align 4,,15
 144              		.global	_dbg_check_lock
 145              		.syntax unified
 146              		.thumb
 147              		.thumb_func
 148              		.fpu softvfp
 149              		.type	_dbg_check_lock, %function
 150              	_dbg_check_lock:
 151              	.LFB298:
 152              		.loc 1 148 0
 153              		.cfi_startproc
 154              		@ args = 0, pretend = 0, frame = 0
 155              		@ frame_needed = 0, uses_anonymous_args = 0
 156 0060 08B5     		push	{r3, lr}
 157              		.cfi_def_cfa_offset 8
 158              		.cfi_offset 3, -8
 159              		.cfi_offset 14, -4
 160              		.loc 1 150 0
 161 0062 064B     		ldr	r3, .L23
 162 0064 DB6B     		ldr	r3, [r3, #60]
 163 0066 13B9     		cbnz	r3, .L20
 164              		.loc 1 150 0 is_stmt 0 discriminator 1
 165 0068 044B     		ldr	r3, .L23
 166 006a 1B6C     		ldr	r3, [r3, #64]
 167 006c 13B1     		cbz	r3, .L21
 168              	.L20:
 169              		.loc 1 151 0 is_stmt 1
 170 006e 0448     		ldr	r0, .L23+4
 171 0070 FFF7FEFF 		bl	chSysHalt
ARM GAS  C:\Users\RAKIBU~1\AppData\Local\Temp\ccsr67Nb.s 			page 4


 172              	.LVL3:
 173              	.L21:
 174              		.loc 1 153 0
 175 0074 014B     		ldr	r3, .L23
 176 0076 0122     		movs	r2, #1
 177 0078 1A64     		str	r2, [r3, #64]
 178              		.loc 1 154 0
 179 007a 08BD     		pop	{r3, pc}
 180              	.L24:
 181              		.align	2
 182              	.L23:
 183 007c 00000000 		.word	ch
 184 0080 18000000 		.word	.LC3
 185              		.cfi_endproc
 186              	.LFE298:
 187              		.size	_dbg_check_lock, .-_dbg_check_lock
 188              		.align	1
 189 0084 AFF30080 		.p2align 4,,15
 189      AFF30080 
 189      AFF30080 
 190              		.global	_dbg_check_unlock
 191              		.syntax unified
 192              		.thumb
 193              		.thumb_func
 194              		.fpu softvfp
 195              		.type	_dbg_check_unlock, %function
 196              	_dbg_check_unlock:
 197              	.LFB299:
 198              		.loc 1 161 0
 199              		.cfi_startproc
 200              		@ args = 0, pretend = 0, frame = 0
 201              		@ frame_needed = 0, uses_anonymous_args = 0
 202 0090 08B5     		push	{r3, lr}
 203              		.cfi_def_cfa_offset 8
 204              		.cfi_offset 3, -8
 205              		.cfi_offset 14, -4
 206              		.loc 1 163 0
 207 0092 074B     		ldr	r3, .L29
 208 0094 DB6B     		ldr	r3, [r3, #60]
 209 0096 1BB9     		cbnz	r3, .L26
 210              		.loc 1 163 0 is_stmt 0 discriminator 1
 211 0098 054B     		ldr	r3, .L29
 212 009a 1B6C     		ldr	r3, [r3, #64]
 213 009c 002B     		cmp	r3, #0
 214 009e 02DC     		bgt	.L27
 215              	.L26:
 216              		.loc 1 164 0 is_stmt 1
 217 00a0 0448     		ldr	r0, .L29+4
 218 00a2 FFF7FEFF 		bl	chSysHalt
 219              	.LVL4:
 220              	.L27:
 221              		.loc 1 166 0
 222 00a6 024B     		ldr	r3, .L29
 223 00a8 0022     		movs	r2, #0
 224 00aa 1A64     		str	r2, [r3, #64]
 225              		.loc 1 167 0
 226 00ac 08BD     		pop	{r3, pc}
ARM GAS  C:\Users\RAKIBU~1\AppData\Local\Temp\ccsr67Nb.s 			page 5


 227              	.L30:
 228 00ae 00BF     		.align	2
 229              	.L29:
 230 00b0 00000000 		.word	ch
 231 00b4 20000000 		.word	.LC4
 232              		.cfi_endproc
 233              	.LFE299:
 234              		.size	_dbg_check_unlock, .-_dbg_check_unlock
 235              		.align	1
 236 00b8 AFF30080 		.p2align 4,,15
 236      AFF30080 
 237              		.global	_dbg_check_lock_from_isr
 238              		.syntax unified
 239              		.thumb
 240              		.thumb_func
 241              		.fpu softvfp
 242              		.type	_dbg_check_lock_from_isr, %function
 243              	_dbg_check_lock_from_isr:
 244              	.LFB300:
 245              		.loc 1 174 0
 246              		.cfi_startproc
 247              		@ args = 0, pretend = 0, frame = 0
 248              		@ frame_needed = 0, uses_anonymous_args = 0
 249 00c0 08B5     		push	{r3, lr}
 250              		.cfi_def_cfa_offset 8
 251              		.cfi_offset 3, -8
 252              		.cfi_offset 14, -4
 253              		.loc 1 176 0
 254 00c2 074B     		ldr	r3, .L35
 255 00c4 DB6B     		ldr	r3, [r3, #60]
 256 00c6 002B     		cmp	r3, #0
 257 00c8 02DD     		ble	.L32
 258              		.loc 1 176 0 is_stmt 0 discriminator 1
 259 00ca 054B     		ldr	r3, .L35
 260 00cc 1B6C     		ldr	r3, [r3, #64]
 261 00ce 13B1     		cbz	r3, .L33
 262              	.L32:
 263              		.loc 1 177 0 is_stmt 1
 264 00d0 0448     		ldr	r0, .L35+4
 265 00d2 FFF7FEFF 		bl	chSysHalt
 266              	.LVL5:
 267              	.L33:
 268              		.loc 1 179 0
 269 00d6 024B     		ldr	r3, .L35
 270 00d8 0122     		movs	r2, #1
 271 00da 1A64     		str	r2, [r3, #64]
 272              		.loc 1 180 0
 273 00dc 08BD     		pop	{r3, pc}
 274              	.L36:
 275 00de 00BF     		.align	2
 276              	.L35:
 277 00e0 00000000 		.word	ch
 278 00e4 28000000 		.word	.LC5
 279              		.cfi_endproc
 280              	.LFE300:
 281              		.size	_dbg_check_lock_from_isr, .-_dbg_check_lock_from_isr
 282              		.align	1
ARM GAS  C:\Users\RAKIBU~1\AppData\Local\Temp\ccsr67Nb.s 			page 6


 283 00e8 AFF30080 		.p2align 4,,15
 283      AFF30080 
 284              		.global	_dbg_check_unlock_from_isr
 285              		.syntax unified
 286              		.thumb
 287              		.thumb_func
 288              		.fpu softvfp
 289              		.type	_dbg_check_unlock_from_isr, %function
 290              	_dbg_check_unlock_from_isr:
 291              	.LFB301:
 292              		.loc 1 187 0
 293              		.cfi_startproc
 294              		@ args = 0, pretend = 0, frame = 0
 295              		@ frame_needed = 0, uses_anonymous_args = 0
 296 00f0 08B5     		push	{r3, lr}
 297              		.cfi_def_cfa_offset 8
 298              		.cfi_offset 3, -8
 299              		.cfi_offset 14, -4
 300              		.loc 1 189 0
 301 00f2 074B     		ldr	r3, .L41
 302 00f4 DB6B     		ldr	r3, [r3, #60]
 303 00f6 002B     		cmp	r3, #0
 304 00f8 03DD     		ble	.L38
 305              		.loc 1 189 0 is_stmt 0 discriminator 1
 306 00fa 054B     		ldr	r3, .L41
 307 00fc 1B6C     		ldr	r3, [r3, #64]
 308 00fe 002B     		cmp	r3, #0
 309 0100 02DC     		bgt	.L39
 310              	.L38:
 311              		.loc 1 190 0 is_stmt 1
 312 0102 0448     		ldr	r0, .L41+4
 313 0104 FFF7FEFF 		bl	chSysHalt
 314              	.LVL6:
 315              	.L39:
 316              		.loc 1 192 0
 317 0108 014B     		ldr	r3, .L41
 318 010a 0022     		movs	r2, #0
 319 010c 1A64     		str	r2, [r3, #64]
 320              		.loc 1 193 0
 321 010e 08BD     		pop	{r3, pc}
 322              	.L42:
 323              		.align	2
 324              	.L41:
 325 0110 00000000 		.word	ch
 326 0114 30000000 		.word	.LC6
 327              		.cfi_endproc
 328              	.LFE301:
 329              		.size	_dbg_check_unlock_from_isr, .-_dbg_check_unlock_from_isr
 330              		.align	1
 331 0118 AFF30080 		.p2align 4,,15
 331      AFF30080 
 332              		.global	_dbg_check_enter_isr
 333              		.syntax unified
 334              		.thumb
 335              		.thumb_func
 336              		.fpu softvfp
 337              		.type	_dbg_check_enter_isr, %function
ARM GAS  C:\Users\RAKIBU~1\AppData\Local\Temp\ccsr67Nb.s 			page 7


 338              	_dbg_check_enter_isr:
 339              	.LFB302:
 340              		.loc 1 200 0
 341              		.cfi_startproc
 342              		@ args = 0, pretend = 0, frame = 0
 343              		@ frame_needed = 0, uses_anonymous_args = 0
 344 0120 08B5     		push	{r3, lr}
 345              		.cfi_def_cfa_offset 8
 346              		.cfi_offset 3, -8
 347              		.cfi_offset 14, -4
 348              	.LVL7:
 349              	.LBB34:
 350              	.LBB35:
 351              	.LBB36:
 352              	.LBB37:
 353              		.file 2 "../../../ChibiOSRepo/chibios191/os/common/ext/ARM/CMSIS/Core/Include/cmsis_gcc.h"
 354              		.loc 2 493 0
 355 0122 2023     		movs	r3, #32
 356              		.syntax unified
 357              	@ 493 "../../../ChibiOSRepo/chibios191/os/common/ext/ARM/CMSIS/Core/Include/cmsis_gcc.h" 1
 358 0124 83F31188 		MSR basepri, r3
 359              	@ 0 "" 2
 360              	.LVL8:
 361              		.thumb
 362              		.syntax unified
 363              	.LBE37:
 364              	.LBE36:
 365              	.LBE35:
 366              	.LBE34:
 367              		.loc 1 203 0
 368 0128 084B     		ldr	r3, .L47
 369 012a DB6B     		ldr	r3, [r3, #60]
 370 012c 002B     		cmp	r3, #0
 371 012e 02DB     		blt	.L44
 372              		.loc 1 203 0 is_stmt 0 discriminator 1
 373 0130 064B     		ldr	r3, .L47
 374 0132 1B6C     		ldr	r3, [r3, #64]
 375 0134 13B1     		cbz	r3, .L45
 376              	.L44:
 377              		.loc 1 204 0 is_stmt 1
 378 0136 0648     		ldr	r0, .L47+4
 379 0138 FFF7FEFF 		bl	chSysHalt
 380              	.LVL9:
 381              	.L45:
 382              		.loc 1 206 0
 383 013c 034A     		ldr	r2, .L47
 384 013e D36B     		ldr	r3, [r2, #60]
 385 0140 0133     		adds	r3, r3, #1
 386 0142 D363     		str	r3, [r2, #60]
 387              	.LVL10:
 388              	.LBB38:
 389              	.LBB39:
 390              	.LBB40:
 391              	.LBB41:
 392              		.loc 2 493 0
 393 0144 0023     		movs	r3, #0
 394              		.syntax unified
ARM GAS  C:\Users\RAKIBU~1\AppData\Local\Temp\ccsr67Nb.s 			page 8


 395              	@ 493 "../../../ChibiOSRepo/chibios191/os/common/ext/ARM/CMSIS/Core/Include/cmsis_gcc.h" 1
 396 0146 83F31188 		MSR basepri, r3
 397              	@ 0 "" 2
 398              	.LVL11:
 399              		.thumb
 400              		.syntax unified
 401              	.LBE41:
 402              	.LBE40:
 403              	.LBE39:
 404              	.LBE38:
 405              		.loc 1 208 0
 406 014a 08BD     		pop	{r3, pc}
 407              	.L48:
 408              		.align	2
 409              	.L47:
 410 014c 00000000 		.word	ch
 411 0150 38000000 		.word	.LC7
 412              		.cfi_endproc
 413              	.LFE302:
 414              		.size	_dbg_check_enter_isr, .-_dbg_check_enter_isr
 415              		.align	1
 416 0154 AFF30080 		.p2align 4,,15
 416      AFF30080 
 416      AFF30080 
 417              		.global	_dbg_check_leave_isr
 418              		.syntax unified
 419              		.thumb
 420              		.thumb_func
 421              		.fpu softvfp
 422              		.type	_dbg_check_leave_isr, %function
 423              	_dbg_check_leave_isr:
 424              	.LFB303:
 425              		.loc 1 215 0
 426              		.cfi_startproc
 427              		@ args = 0, pretend = 0, frame = 0
 428              		@ frame_needed = 0, uses_anonymous_args = 0
 429 0160 08B5     		push	{r3, lr}
 430              		.cfi_def_cfa_offset 8
 431              		.cfi_offset 3, -8
 432              		.cfi_offset 14, -4
 433              	.LVL12:
 434              	.LBB42:
 435              	.LBB43:
 436              	.LBB44:
 437              	.LBB45:
 438              		.loc 2 493 0
 439 0162 2023     		movs	r3, #32
 440              		.syntax unified
 441              	@ 493 "../../../ChibiOSRepo/chibios191/os/common/ext/ARM/CMSIS/Core/Include/cmsis_gcc.h" 1
 442 0164 83F31188 		MSR basepri, r3
 443              	@ 0 "" 2
 444              	.LVL13:
 445              		.thumb
 446              		.syntax unified
 447              	.LBE45:
 448              	.LBE44:
 449              	.LBE43:
ARM GAS  C:\Users\RAKIBU~1\AppData\Local\Temp\ccsr67Nb.s 			page 9


 450              	.LBE42:
 451              		.loc 1 218 0
 452 0168 084B     		ldr	r3, .L53
 453 016a DB6B     		ldr	r3, [r3, #60]
 454 016c 002B     		cmp	r3, #0
 455 016e 02DD     		ble	.L50
 456              		.loc 1 218 0 is_stmt 0 discriminator 1
 457 0170 064B     		ldr	r3, .L53
 458 0172 1B6C     		ldr	r3, [r3, #64]
 459 0174 13B1     		cbz	r3, .L51
 460              	.L50:
 461              		.loc 1 219 0 is_stmt 1
 462 0176 0648     		ldr	r0, .L53+4
 463 0178 FFF7FEFF 		bl	chSysHalt
 464              	.LVL14:
 465              	.L51:
 466              		.loc 1 221 0
 467 017c 034A     		ldr	r2, .L53
 468 017e D36B     		ldr	r3, [r2, #60]
 469 0180 013B     		subs	r3, r3, #1
 470 0182 D363     		str	r3, [r2, #60]
 471              	.LVL15:
 472              	.LBB46:
 473              	.LBB47:
 474              	.LBB48:
 475              	.LBB49:
 476              		.loc 2 493 0
 477 0184 0023     		movs	r3, #0
 478              		.syntax unified
 479              	@ 493 "../../../ChibiOSRepo/chibios191/os/common/ext/ARM/CMSIS/Core/Include/cmsis_gcc.h" 1
 480 0186 83F31188 		MSR basepri, r3
 481              	@ 0 "" 2
 482              	.LVL16:
 483              		.thumb
 484              		.syntax unified
 485              	.LBE49:
 486              	.LBE48:
 487              	.LBE47:
 488              	.LBE46:
 489              		.loc 1 223 0
 490 018a 08BD     		pop	{r3, pc}
 491              	.L54:
 492              		.align	2
 493              	.L53:
 494 018c 00000000 		.word	ch
 495 0190 40000000 		.word	.LC8
 496              		.cfi_endproc
 497              	.LFE303:
 498              		.size	_dbg_check_leave_isr, .-_dbg_check_leave_isr
 499              		.align	1
 500 0194 AFF30080 		.p2align 4,,15
 500      AFF30080 
 500      AFF30080 
 501              		.global	chDbgCheckClassI
 502              		.syntax unified
 503              		.thumb
 504              		.thumb_func
ARM GAS  C:\Users\RAKIBU~1\AppData\Local\Temp\ccsr67Nb.s 			page 10


 505              		.fpu softvfp
 506              		.type	chDbgCheckClassI, %function
 507              	chDbgCheckClassI:
 508              	.LFB304:
 509              		.loc 1 233 0
 510              		.cfi_startproc
 511              		@ args = 0, pretend = 0, frame = 0
 512              		@ frame_needed = 0, uses_anonymous_args = 0
 513 01a0 08B5     		push	{r3, lr}
 514              		.cfi_def_cfa_offset 8
 515              		.cfi_offset 3, -8
 516              		.cfi_offset 14, -4
 517              		.loc 1 235 0
 518 01a2 064B     		ldr	r3, .L59
 519 01a4 DB6B     		ldr	r3, [r3, #60]
 520 01a6 002B     		cmp	r3, #0
 521 01a8 03DB     		blt	.L56
 522              		.loc 1 235 0 is_stmt 0 discriminator 1
 523 01aa 044B     		ldr	r3, .L59
 524 01ac 1B6C     		ldr	r3, [r3, #64]
 525 01ae 002B     		cmp	r3, #0
 526 01b0 02DC     		bgt	.L55
 527              	.L56:
 528              		.loc 1 236 0 is_stmt 1
 529 01b2 0348     		ldr	r0, .L59+4
 530 01b4 FFF7FEFF 		bl	chSysHalt
 531              	.LVL17:
 532              	.L55:
 533              		.loc 1 238 0
 534 01b8 08BD     		pop	{r3, pc}
 535              	.L60:
 536 01ba 00BF     		.align	2
 537              	.L59:
 538 01bc 00000000 		.word	ch
 539 01c0 48000000 		.word	.LC9
 540              		.cfi_endproc
 541              	.LFE304:
 542              		.size	chDbgCheckClassI, .-chDbgCheckClassI
 543              		.align	1
 544 01c4 AFF30080 		.p2align 4,,15
 544      AFF30080 
 544      AFF30080 
 545              		.global	chDbgCheckClassS
 546              		.syntax unified
 547              		.thumb
 548              		.thumb_func
 549              		.fpu softvfp
 550              		.type	chDbgCheckClassS, %function
 551              	chDbgCheckClassS:
 552              	.LFB305:
 553              		.loc 1 248 0
 554              		.cfi_startproc
 555              		@ args = 0, pretend = 0, frame = 0
 556              		@ frame_needed = 0, uses_anonymous_args = 0
 557 01d0 08B5     		push	{r3, lr}
 558              		.cfi_def_cfa_offset 8
 559              		.cfi_offset 3, -8
ARM GAS  C:\Users\RAKIBU~1\AppData\Local\Temp\ccsr67Nb.s 			page 11


 560              		.cfi_offset 14, -4
 561              		.loc 1 250 0
 562 01d2 054B     		ldr	r3, .L65
 563 01d4 DB6B     		ldr	r3, [r3, #60]
 564 01d6 1BB9     		cbnz	r3, .L62
 565              		.loc 1 250 0 is_stmt 0 discriminator 1
 566 01d8 034B     		ldr	r3, .L65
 567 01da 1B6C     		ldr	r3, [r3, #64]
 568 01dc 002B     		cmp	r3, #0
 569 01de 02DC     		bgt	.L61
 570              	.L62:
 571              		.loc 1 251 0 is_stmt 1
 572 01e0 0248     		ldr	r0, .L65+4
 573 01e2 FFF7FEFF 		bl	chSysHalt
 574              	.LVL18:
 575              	.L61:
 576              		.loc 1 253 0
 577 01e6 08BD     		pop	{r3, pc}
 578              	.L66:
 579              		.align	2
 580              	.L65:
 581 01e8 00000000 		.word	ch
 582 01ec 50000000 		.word	.LC10
 583              		.cfi_endproc
 584              	.LFE305:
 585              		.size	chDbgCheckClassS, .-chDbgCheckClassS
 586              		.section	.rodata.str1.4,"aMS",%progbits,1
 587              		.align	2
 588              	.LC0:
 589 0000 53562331 		.ascii	"SV#1\000"
 589      00
 590 0005 000000   		.space	3
 591              	.LC1:
 592 0008 53562332 		.ascii	"SV#2\000"
 592      00
 593 000d 000000   		.space	3
 594              	.LC2:
 595 0010 53562333 		.ascii	"SV#3\000"
 595      00
 596 0015 000000   		.space	3
 597              	.LC3:
 598 0018 53562334 		.ascii	"SV#4\000"
 598      00
 599 001d 000000   		.space	3
 600              	.LC4:
 601 0020 53562335 		.ascii	"SV#5\000"
 601      00
 602 0025 000000   		.space	3
 603              	.LC5:
 604 0028 53562336 		.ascii	"SV#6\000"
 604      00
 605 002d 000000   		.space	3
 606              	.LC6:
 607 0030 53562337 		.ascii	"SV#7\000"
 607      00
 608 0035 000000   		.space	3
 609              	.LC7:
ARM GAS  C:\Users\RAKIBU~1\AppData\Local\Temp\ccsr67Nb.s 			page 12


 610 0038 53562338 		.ascii	"SV#8\000"
 610      00
 611 003d 000000   		.space	3
 612              	.LC8:
 613 0040 53562339 		.ascii	"SV#9\000"
 613      00
 614 0045 000000   		.space	3
 615              	.LC9:
 616 0048 53562331 		.ascii	"SV#10\000"
 616      3000
 617 004e 0000     		.space	2
 618              	.LC10:
 619 0050 53562331 		.ascii	"SV#11\000"
 619      3100
 620              		.text
 621              	.Letext0:
 622              		.file 3 "c:\\chibistudio\\tools\\gnu tools arm embedded\\7.0 2017q4\\lib\\gcc\\arm-none-eabi\\7.2.
 623              		.file 4 "c:\\chibistudio\\tools\\gnu tools arm embedded\\7.0 2017q4\\arm-none-eabi\\include\\machi
 624              		.file 5 "c:\\chibistudio\\tools\\gnu tools arm embedded\\7.0 2017q4\\arm-none-eabi\\include\\sys\\
 625              		.file 6 "../../../ChibiOSRepo/chibios191/os/common/ports/ARMCMx/compilers/GCC/chtypes.h"
 626              		.file 7 "../../../ChibiOSRepo/chibios191/os/rt/include/chsystypes.h"
 627              		.file 8 "../../../ChibiOSRepo/chibios191/os/rt/include/chschd.h"
 628              		.file 9 "../../../ChibiOSRepo/chibios191/os/rt/include/chtime.h"
 629              		.file 10 "../../../ChibiOSRepo/chibios191/os/common/ext/ARM/CMSIS/Core/Include/core_cm4.h"
 630              		.file 11 "../../../ChibiOSRepo/chibios191/os/common/ext/ST/STM32F4xx/system_stm32f4xx.h"
 631              		.file 12 "../../../ChibiOSRepo/chibios191/os/common/ports/ARMCMx/chcore.h"
 632              		.file 13 "../../../ChibiOSRepo/chibios191/os/common/ports/ARMCMx/chcore_v7m.h"
 633              		.file 14 "../../../ChibiOSRepo/chibios191/os/rt/include/chtrace.h"
 634              		.file 15 "../../../ChibiOSRepo/chibios191/os/rt/include/chtm.h"
 635              		.file 16 "../../../ChibiOSRepo/chibios191/os/rt/include/chstats.h"
 636              		.file 17 "../../../ChibiOSRepo/chibios191/os/rt/include/chsem.h"
 637              		.file 18 "../../../ChibiOSRepo/chibios191/os/rt/include/chmtx.h"
 638              		.file 19 "../../../ChibiOSRepo/chibios191/os/rt/include/chsys.h"
 639              		.file 20 "../../../ChibiOSRepo/chibios191/os/rt/include/chregistry.h"
 640              		.file 21 "../../../ChibiOSRepo/chibios191/os/oslib/include/chmemcore.h"
 641              		.file 22 "../../../ChibiOSRepo/chibios191/os/oslib/include/chmempools.h"
 642              		.file 23 "../../../ChibiOSRepo/chibios191/os/oslib/include/chfactory.h"
 643              		.file 24 "../../../ChibiOSRepo/chibios191/os/rt/include/ch.h"