ARM GAS  C:\Users\RAKIBU~1\AppData\Local\Temp\cc7Yu26h.s 			page 1


   1              		.cpu cortex-m4
   2              		.eabi_attribute 20, 1
   3              		.eabi_attribute 21, 1
   4              		.eabi_attribute 23, 3
   5              		.eabi_attribute 24, 1
   6              		.eabi_attribute 25, 1
   7              		.eabi_attribute 26, 1
   8              		.eabi_attribute 30, 1
   9              		.eabi_attribute 34, 1
  10              		.eabi_attribute 18, 4
  11              		.file	"chmempools.c"
  12              		.text
  13              	.Ltext0:
  14              		.cfi_sections	.debug_frame
  15              		.align	1
  16              		.p2align 4,,15
  17              		.global	chPoolObjectInitAligned
  18              		.syntax unified
  19              		.thumb
  20              		.thumb_func
  21              		.fpu softvfp
  22              		.type	chPoolObjectInitAligned, %function
  23              	chPoolObjectInitAligned:
  24              	.LFB295:
  25              		.file 1 "../../../ChibiOSRepo/chibios191/os/oslib/src/chmempools.c"
  26              		.loc 1 78 0
  27              		.cfi_startproc
  28              		@ args = 0, pretend = 0, frame = 0
  29              		@ frame_needed = 0, uses_anonymous_args = 0
  30              	.LVL0:
  31 0000 F8B5     		push	{r3, r4, r5, r6, r7, lr}
  32              		.cfi_def_cfa_offset 24
  33              		.cfi_offset 3, -24
  34              		.cfi_offset 4, -20
  35              		.cfi_offset 5, -16
  36              		.cfi_offset 6, -12
  37              		.cfi_offset 7, -8
  38              		.cfi_offset 14, -4
  39 0002 0D46     		mov	r5, r1
  40 0004 1646     		mov	r6, r2
  41 0006 1F46     		mov	r7, r3
  42              		.loc 1 80 0
  43 0008 0446     		mov	r4, r0
  44 000a 38B1     		cbz	r0, .L2
  45              		.loc 1 80 0 is_stmt 0 discriminator 3
  46 000c 0329     		cmp	r1, #3
  47 000e 05D9     		bls	.L2
  48              		.loc 1 80 0 discriminator 5
  49 0010 032A     		cmp	r2, #3
  50 0012 03D9     		bls	.L2
  51              		.loc 1 80 0 discriminator 7
  52 0014 12B1     		cbz	r2, .L2
  53              		.loc 1 80 0 discriminator 9
  54 0016 531E     		subs	r3, r2, #1
  55              	.LVL1:
  56 0018 1342     		tst	r3, r2
  57 001a 02D0     		beq	.L3
ARM GAS  C:\Users\RAKIBU~1\AppData\Local\Temp\cc7Yu26h.s 			page 2


  58              	.L2:
  59              		.loc 1 80 0 discriminator 10
  60 001c 0448     		ldr	r0, .L5
  61              	.LVL2:
  62 001e FFF7FEFF 		bl	chSysHalt
  63              	.LVL3:
  64              	.L3:
  65              		.loc 1 85 0 is_stmt 1
  66 0022 0023     		movs	r3, #0
  67 0024 2360     		str	r3, [r4]
  68              		.loc 1 86 0
  69 0026 6560     		str	r5, [r4, #4]
  70              		.loc 1 87 0
  71 0028 A660     		str	r6, [r4, #8]
  72              		.loc 1 88 0
  73 002a E760     		str	r7, [r4, #12]
  74              		.loc 1 89 0
  75 002c F8BD     		pop	{r3, r4, r5, r6, r7, pc}
  76              	.LVL4:
  77              	.L6:
  78 002e 00BF     		.align	2
  79              	.L5:
  80 0030 00000000 		.word	.LANCHOR0
  81              		.cfi_endproc
  82              	.LFE295:
  83              		.size	chPoolObjectInitAligned, .-chPoolObjectInitAligned
  84              		.align	1
  85 0034 AFF30080 		.p2align 4,,15
  85      AFF30080 
  85      AFF30080 
  86              		.global	chPoolAllocI
  87              		.syntax unified
  88              		.thumb
  89              		.thumb_func
  90              		.fpu softvfp
  91              		.type	chPoolAllocI, %function
  92              	chPoolAllocI:
  93              	.LFB297:
  94              		.loc 1 129 0
  95              		.cfi_startproc
  96              		@ args = 0, pretend = 0, frame = 0
  97              		@ frame_needed = 0, uses_anonymous_args = 0
  98              	.LVL5:
  99 0040 38B5     		push	{r3, r4, r5, lr}
 100              		.cfi_def_cfa_offset 16
 101              		.cfi_offset 3, -16
 102              		.cfi_offset 4, -12
 103              		.cfi_offset 5, -8
 104              		.cfi_offset 14, -4
 105 0042 0446     		mov	r4, r0
 106              		.loc 1 132 0
 107 0044 FFF7FEFF 		bl	chDbgCheckClassI
 108              	.LVL6:
 109              		.loc 1 133 0
 110 0048 2CB1     		cbz	r4, .L12
 111              	.L8:
 112              		.loc 1 135 0
ARM GAS  C:\Users\RAKIBU~1\AppData\Local\Temp\cc7Yu26h.s 			page 3


 113 004a 2568     		ldr	r5, [r4]
 114              	.LVL7:
 115              		.loc 1 137 0
 116 004c 3DB1     		cbz	r5, .L9
 117              		.loc 1 138 0
 118 004e 2B68     		ldr	r3, [r5]
 119 0050 2360     		str	r3, [r4]
 120              	.L7:
 121              		.loc 1 149 0
 122 0052 2846     		mov	r0, r5
 123 0054 38BD     		pop	{r3, r4, r5, pc}
 124              	.LVL8:
 125              	.L12:
 126              		.loc 1 133 0 discriminator 2
 127 0056 0948     		ldr	r0, .L13
 128 0058 FFF7FEFF 		bl	chSysHalt
 129              	.LVL9:
 130 005c F5E7     		b	.L8
 131              	.LVL10:
 132              	.L9:
 133              		.loc 1 140 0
 134 005e E368     		ldr	r3, [r4, #12]
 135 0060 002B     		cmp	r3, #0
 136 0062 F6D0     		beq	.L7
 137              		.loc 1 141 0
 138 0064 A168     		ldr	r1, [r4, #8]
 139 0066 6068     		ldr	r0, [r4, #4]
 140 0068 9847     		blx	r3
 141              	.LVL11:
 142 006a 0546     		mov	r5, r0
 143              	.LVL12:
 144              		.loc 1 143 0
 145 006c A368     		ldr	r3, [r4, #8]
 146 006e 013B     		subs	r3, r3, #1
 147 0070 1842     		tst	r0, r3
 148 0072 EED0     		beq	.L7
 149              		.loc 1 143 0 is_stmt 0 discriminator 2
 150 0074 0148     		ldr	r0, .L13
 151              	.LVL13:
 152 0076 FFF7FEFF 		bl	chSysHalt
 153              	.LVL14:
 154              		.loc 1 148 0 is_stmt 1 discriminator 2
 155 007a EAE7     		b	.L7
 156              	.L14:
 157              		.align	2
 158              	.L13:
 159 007c 18000000 		.word	.LANCHOR0+24
 160              		.cfi_endproc
 161              	.LFE297:
 162              		.size	chPoolAllocI, .-chPoolAllocI
 163              		.align	1
 164              		.p2align 4,,15
 165              		.global	chPoolAlloc
 166              		.syntax unified
 167              		.thumb
 168              		.thumb_func
 169              		.fpu softvfp
ARM GAS  C:\Users\RAKIBU~1\AppData\Local\Temp\cc7Yu26h.s 			page 4


 170              		.type	chPoolAlloc, %function
 171              	chPoolAlloc:
 172              	.LFB298:
 173              		.loc 1 161 0
 174              		.cfi_startproc
 175              		@ args = 0, pretend = 0, frame = 0
 176              		@ frame_needed = 0, uses_anonymous_args = 0
 177              	.LVL15:
 178 0080 10B5     		push	{r4, lr}
 179              		.cfi_def_cfa_offset 8
 180              		.cfi_offset 4, -8
 181              		.cfi_offset 14, -4
 182 0082 0446     		mov	r4, r0
 183              	.LVL16:
 184              	.LBB50:
 185              	.LBB51:
 186              	.LBB52:
 187              	.LBB53:
 188              	.LBB54:
 189              		.file 2 "../../../ChibiOSRepo/chibios191/os/common/ext/ARM/CMSIS/Core/Include/cmsis_gcc.h"
 190              		.loc 2 493 0
 191 0084 2023     		movs	r3, #32
 192              		.syntax unified
 193              	@ 493 "../../../ChibiOSRepo/chibios191/os/common/ext/ARM/CMSIS/Core/Include/cmsis_gcc.h" 1
 194 0086 83F31188 		MSR basepri, r3
 195              	@ 0 "" 2
 196              	.LVL17:
 197              		.thumb
 198              		.syntax unified
 199              	.LBE54:
 200              	.LBE53:
 201              	.LBE52:
 202              		.file 3 "../../../ChibiOSRepo/chibios191/os/rt/include/chsys.h"
 203              		.loc 3 356 0
 204 008a FFF7FEFF 		bl	_stats_start_measure_crit_thd
 205              	.LVL18:
 206              		.loc 3 357 0
 207 008e FFF7FEFF 		bl	_dbg_check_lock
 208              	.LVL19:
 209              	.LBE51:
 210              	.LBE50:
 211              		.loc 1 165 0
 212 0092 2046     		mov	r0, r4
 213 0094 FFF7FEFF 		bl	chPoolAllocI
 214              	.LVL20:
 215 0098 0446     		mov	r4, r0
 216              	.LVL21:
 217              	.LBB55:
 218              	.LBB56:
 219              		.loc 3 367 0
 220 009a FFF7FEFF 		bl	_dbg_check_unlock
 221              	.LVL22:
 222              		.loc 3 368 0
 223 009e FFF7FEFF 		bl	_stats_stop_measure_crit_thd
 224              	.LVL23:
 225              		.loc 3 374 0
 226 00a2 094B     		ldr	r3, .L19
ARM GAS  C:\Users\RAKIBU~1\AppData\Local\Temp\cc7Yu26h.s 			page 5


 227 00a4 1A68     		ldr	r2, [r3]
 228 00a6 9A42     		cmp	r2, r3
 229 00a8 04D0     		beq	.L16
 230 00aa 9B69     		ldr	r3, [r3, #24]
 231 00ac 9968     		ldr	r1, [r3, #8]
 232 00ae 9368     		ldr	r3, [r2, #8]
 233 00b0 9942     		cmp	r1, r3
 234 00b2 04D3     		bcc	.L18
 235              	.L16:
 236              	.LVL24:
 237              	.LBB57:
 238              	.LBB58:
 239              	.LBB59:
 240              		.loc 2 493 0
 241 00b4 0023     		movs	r3, #0
 242              		.syntax unified
 243              	@ 493 "../../../ChibiOSRepo/chibios191/os/common/ext/ARM/CMSIS/Core/Include/cmsis_gcc.h" 1
 244 00b6 83F31188 		MSR basepri, r3
 245              	@ 0 "" 2
 246              	.LVL25:
 247              		.thumb
 248              		.syntax unified
 249              	.LBE59:
 250              	.LBE58:
 251              	.LBE57:
 252              	.LBE56:
 253              	.LBE55:
 254              		.loc 1 169 0
 255 00ba 2046     		mov	r0, r4
 256 00bc 10BD     		pop	{r4, pc}
 257              	.LVL26:
 258              	.L18:
 259              	.LBB61:
 260              	.LBB60:
 261              		.loc 3 374 0
 262 00be 0348     		ldr	r0, .L19+4
 263 00c0 FFF7FEFF 		bl	chSysHalt
 264              	.LVL27:
 265 00c4 F6E7     		b	.L16
 266              	.L20:
 267 00c6 00BF     		.align	2
 268              	.L19:
 269 00c8 00000000 		.word	ch
 270 00cc 28000000 		.word	.LANCHOR0+40
 271              	.LBE60:
 272              	.LBE61:
 273              		.cfi_endproc
 274              	.LFE298:
 275              		.size	chPoolAlloc, .-chPoolAlloc
 276              		.align	1
 277              		.p2align 4,,15
 278              		.global	chPoolFreeI
 279              		.syntax unified
 280              		.thumb
 281              		.thumb_func
 282              		.fpu softvfp
 283              		.type	chPoolFreeI, %function
ARM GAS  C:\Users\RAKIBU~1\AppData\Local\Temp\cc7Yu26h.s 			page 6


 284              	chPoolFreeI:
 285              	.LFB299:
 286              		.loc 1 183 0
 287              		.cfi_startproc
 288              		@ args = 0, pretend = 0, frame = 0
 289              		@ frame_needed = 0, uses_anonymous_args = 0
 290              	.LVL28:
 291 00d0 38B5     		push	{r3, r4, r5, lr}
 292              		.cfi_def_cfa_offset 16
 293              		.cfi_offset 3, -16
 294              		.cfi_offset 4, -12
 295              		.cfi_offset 5, -8
 296              		.cfi_offset 14, -4
 297 00d2 0446     		mov	r4, r0
 298 00d4 0D46     		mov	r5, r1
 299              	.LVL29:
 300              		.loc 1 186 0
 301 00d6 FFF7FEFF 		bl	chDbgCheckClassI
 302              	.LVL30:
 303              		.loc 1 187 0
 304 00da 24B1     		cbz	r4, .L22
 305              		.loc 1 187 0 is_stmt 0 discriminator 3
 306 00dc 1DB1     		cbz	r5, .L22
 307              		.loc 1 187 0 discriminator 5
 308 00de A368     		ldr	r3, [r4, #8]
 309 00e0 013B     		subs	r3, r3, #1
 310 00e2 1D42     		tst	r5, r3
 311 00e4 02D0     		beq	.L23
 312              	.L22:
 313              		.loc 1 187 0 discriminator 6
 314 00e6 0348     		ldr	r0, .L25
 315 00e8 FFF7FEFF 		bl	chSysHalt
 316              	.LVL31:
 317              	.L23:
 318              		.loc 1 191 0 is_stmt 1
 319 00ec 2368     		ldr	r3, [r4]
 320 00ee 2B60     		str	r3, [r5]
 321              		.loc 1 192 0
 322 00f0 2560     		str	r5, [r4]
 323              		.loc 1 193 0
 324 00f2 38BD     		pop	{r3, r4, r5, pc}
 325              	.LVL32:
 326              	.L26:
 327              		.align	2
 328              	.L25:
 329 00f4 34000000 		.word	.LANCHOR0+52
 330              		.cfi_endproc
 331              	.LFE299:
 332              		.size	chPoolFreeI, .-chPoolFreeI
 333              		.align	1
 334 00f8 AFF30080 		.p2align 4,,15
 334      AFF30080 
 335              		.global	chPoolFree
 336              		.syntax unified
 337              		.thumb
 338              		.thumb_func
 339              		.fpu softvfp
ARM GAS  C:\Users\RAKIBU~1\AppData\Local\Temp\cc7Yu26h.s 			page 7


 340              		.type	chPoolFree, %function
 341              	chPoolFree:
 342              	.LFB300:
 343              		.loc 1 207 0
 344              		.cfi_startproc
 345              		@ args = 0, pretend = 0, frame = 0
 346              		@ frame_needed = 0, uses_anonymous_args = 0
 347              	.LVL33:
 348 0100 38B5     		push	{r3, r4, r5, lr}
 349              		.cfi_def_cfa_offset 16
 350              		.cfi_offset 3, -16
 351              		.cfi_offset 4, -12
 352              		.cfi_offset 5, -8
 353              		.cfi_offset 14, -4
 354 0102 0446     		mov	r4, r0
 355 0104 0D46     		mov	r5, r1
 356              	.LVL34:
 357              	.LBB72:
 358              	.LBB73:
 359              	.LBB74:
 360              	.LBB75:
 361              	.LBB76:
 362              		.loc 2 493 0
 363 0106 2023     		movs	r3, #32
 364              		.syntax unified
 365              	@ 493 "../../../ChibiOSRepo/chibios191/os/common/ext/ARM/CMSIS/Core/Include/cmsis_gcc.h" 1
 366 0108 83F31188 		MSR basepri, r3
 367              	@ 0 "" 2
 368              	.LVL35:
 369              		.thumb
 370              		.syntax unified
 371              	.LBE76:
 372              	.LBE75:
 373              	.LBE74:
 374              		.loc 3 356 0
 375 010c FFF7FEFF 		bl	_stats_start_measure_crit_thd
 376              	.LVL36:
 377              		.loc 3 357 0
 378 0110 FFF7FEFF 		bl	_dbg_check_lock
 379              	.LVL37:
 380              	.LBE73:
 381              	.LBE72:
 382              		.loc 1 210 0
 383 0114 2946     		mov	r1, r5
 384 0116 2046     		mov	r0, r4
 385 0118 FFF7FEFF 		bl	chPoolFreeI
 386              	.LVL38:
 387              	.LBB77:
 388              	.LBB78:
 389              		.loc 3 367 0
 390 011c FFF7FEFF 		bl	_dbg_check_unlock
 391              	.LVL39:
 392              		.loc 3 368 0
 393 0120 FFF7FEFF 		bl	_stats_stop_measure_crit_thd
 394              	.LVL40:
 395              		.loc 3 374 0
 396 0124 084B     		ldr	r3, .L31
ARM GAS  C:\Users\RAKIBU~1\AppData\Local\Temp\cc7Yu26h.s 			page 8


 397 0126 1A68     		ldr	r2, [r3]
 398 0128 9A42     		cmp	r2, r3
 399 012a 04D0     		beq	.L28
 400 012c 9B69     		ldr	r3, [r3, #24]
 401 012e 9968     		ldr	r1, [r3, #8]
 402 0130 9368     		ldr	r3, [r2, #8]
 403 0132 9942     		cmp	r1, r3
 404 0134 03D3     		bcc	.L30
 405              	.L28:
 406              	.LVL41:
 407              	.LBB79:
 408              	.LBB80:
 409              	.LBB81:
 410              		.loc 2 493 0
 411 0136 0023     		movs	r3, #0
 412              		.syntax unified
 413              	@ 493 "../../../ChibiOSRepo/chibios191/os/common/ext/ARM/CMSIS/Core/Include/cmsis_gcc.h" 1
 414 0138 83F31188 		MSR basepri, r3
 415              	@ 0 "" 2
 416              	.LVL42:
 417              		.thumb
 418              		.syntax unified
 419              	.LBE81:
 420              	.LBE80:
 421              	.LBE79:
 422              	.LBE78:
 423              	.LBE77:
 424              		.loc 1 212 0
 425 013c 38BD     		pop	{r3, r4, r5, pc}
 426              	.LVL43:
 427              	.L30:
 428              	.LBB83:
 429              	.LBB82:
 430              		.loc 3 374 0
 431 013e 0348     		ldr	r0, .L31+4
 432 0140 FFF7FEFF 		bl	chSysHalt
 433              	.LVL44:
 434 0144 F7E7     		b	.L28
 435              	.L32:
 436 0146 00BF     		.align	2
 437              	.L31:
 438 0148 00000000 		.word	ch
 439 014c 28000000 		.word	.LANCHOR0+40
 440              	.LBE82:
 441              	.LBE83:
 442              		.cfi_endproc
 443              	.LFE300:
 444              		.size	chPoolFree, .-chPoolFree
 445              		.align	1
 446              		.p2align 4,,15
 447              		.global	chPoolLoadArray
 448              		.syntax unified
 449              		.thumb
 450              		.thumb_func
 451              		.fpu softvfp
 452              		.type	chPoolLoadArray, %function
 453              	chPoolLoadArray:
ARM GAS  C:\Users\RAKIBU~1\AppData\Local\Temp\cc7Yu26h.s 			page 9


 454              	.LFB296:
 455              		.loc 1 106 0
 456              		.cfi_startproc
 457              		@ args = 0, pretend = 0, frame = 0
 458              		@ frame_needed = 0, uses_anonymous_args = 0
 459              	.LVL45:
 460 0150 70B5     		push	{r4, r5, r6, lr}
 461              		.cfi_def_cfa_offset 16
 462              		.cfi_offset 4, -16
 463              		.cfi_offset 5, -12
 464              		.cfi_offset 6, -8
 465              		.cfi_offset 14, -4
 466 0152 0D46     		mov	r5, r1
 467 0154 1446     		mov	r4, r2
 468              		.loc 1 108 0
 469 0156 0646     		mov	r6, r0
 470 0158 00B1     		cbz	r0, .L34
 471              		.loc 1 108 0 is_stmt 0 discriminator 3
 472 015a 52B9     		cbnz	r2, .L36
 473              	.L34:
 474              		.loc 1 108 0 discriminator 4
 475 015c 0648     		ldr	r0, .L39
 476              	.LVL46:
 477 015e FFF7FEFF 		bl	chSysHalt
 478              	.LVL47:
 479 0162 06E0     		b	.L36
 480              	.L37:
 481              	.LVL48:
 482              	.LBB84:
 483              	.LBB85:
 484              		.file 4 "../../../ChibiOSRepo/chibios191/os/oslib/include/chmempools.h"
 485              		.loc 4 212 0 is_stmt 1
 486 0164 2946     		mov	r1, r5
 487 0166 3046     		mov	r0, r6
 488 0168 FFF7FEFF 		bl	chPoolFree
 489              	.LVL49:
 490              	.LBE85:
 491              	.LBE84:
 492              		.loc 1 113 0
 493 016c 7368     		ldr	r3, [r6, #4]
 494 016e 1D44     		add	r5, r5, r3
 495              	.LVL50:
 496              		.loc 1 115 0
 497 0170 013C     		subs	r4, r4, #1
 498              	.LVL51:
 499              	.L36:
 500              		.loc 1 110 0
 501 0172 002C     		cmp	r4, #0
 502 0174 F6D1     		bne	.L37
 503              		.loc 1 117 0
 504 0176 70BD     		pop	{r4, r5, r6, pc}
 505              	.LVL52:
 506              	.L40:
 507              		.align	2
 508              	.L39:
 509 0178 40000000 		.word	.LANCHOR0+64
 510              		.cfi_endproc
ARM GAS  C:\Users\RAKIBU~1\AppData\Local\Temp\cc7Yu26h.s 			page 10


 511              	.LFE296:
 512              		.size	chPoolLoadArray, .-chPoolLoadArray
 513              		.align	1
 514 017c AFF30080 		.p2align 4,,15
 515              		.global	chGuardedPoolObjectInitAligned
 516              		.syntax unified
 517              		.thumb
 518              		.thumb_func
 519              		.fpu softvfp
 520              		.type	chGuardedPoolObjectInitAligned, %function
 521              	chGuardedPoolObjectInitAligned:
 522              	.LFB301:
 523              		.loc 1 228 0
 524              		.cfi_startproc
 525              		@ args = 0, pretend = 0, frame = 0
 526              		@ frame_needed = 0, uses_anonymous_args = 0
 527              	.LVL53:
 528 0180 10B5     		push	{r4, lr}
 529              		.cfi_def_cfa_offset 8
 530              		.cfi_offset 4, -8
 531              		.cfi_offset 14, -4
 532 0182 0446     		mov	r4, r0
 533              		.loc 1 230 0
 534 0184 0023     		movs	r3, #0
 535 0186 0C30     		adds	r0, r0, #12
 536              	.LVL54:
 537 0188 FFF7FEFF 		bl	chPoolObjectInitAligned
 538              	.LVL55:
 539              		.loc 1 231 0
 540 018c 0021     		movs	r1, #0
 541 018e 2046     		mov	r0, r4
 542 0190 FFF7FEFF 		bl	chSemObjectInit
 543              	.LVL56:
 544              		.loc 1 232 0
 545 0194 10BD     		pop	{r4, pc}
 546              		.cfi_endproc
 547              	.LFE301:
 548              		.size	chGuardedPoolObjectInitAligned, .-chGuardedPoolObjectInitAligned
 549              		.align	1
 550 0196 00BFAFF3 		.p2align 4,,15
 550      0080AFF3 
 550      0080
 551              		.global	chGuardedPoolAllocTimeoutS
 552              		.syntax unified
 553              		.thumb
 554              		.thumb_func
 555              		.fpu softvfp
 556              		.type	chGuardedPoolAllocTimeoutS, %function
 557              	chGuardedPoolAllocTimeoutS:
 558              	.LFB303:
 559              		.loc 1 276 0
 560              		.cfi_startproc
 561              		@ args = 0, pretend = 0, frame = 0
 562              		@ frame_needed = 0, uses_anonymous_args = 0
 563              	.LVL57:
 564 01a0 10B5     		push	{r4, lr}
 565              		.cfi_def_cfa_offset 8
ARM GAS  C:\Users\RAKIBU~1\AppData\Local\Temp\cc7Yu26h.s 			page 11


 566              		.cfi_offset 4, -8
 567              		.cfi_offset 14, -4
 568 01a2 0446     		mov	r4, r0
 569              		.loc 1 279 0
 570 01a4 FFF7FEFF 		bl	chSemWaitTimeoutS
 571              	.LVL58:
 572              		.loc 1 280 0
 573 01a8 20B9     		cbnz	r0, .L45
 574              		.loc 1 284 0
 575 01aa 04F10C00 		add	r0, r4, #12
 576              	.LVL59:
 577 01ae FFF7FEFF 		bl	chPoolAllocI
 578              	.LVL60:
 579              	.L43:
 580              		.loc 1 285 0
 581 01b2 10BD     		pop	{r4, pc}
 582              	.LVL61:
 583              	.L45:
 584              		.loc 1 281 0
 585 01b4 0020     		movs	r0, #0
 586              	.LVL62:
 587 01b6 FCE7     		b	.L43
 588              		.cfi_endproc
 589              	.LFE303:
 590              		.size	chGuardedPoolAllocTimeoutS, .-chGuardedPoolAllocTimeoutS
 591              		.align	1
 592 01b8 AFF30080 		.p2align 4,,15
 592      AFF30080 
 593              		.global	chGuardedPoolAllocTimeout
 594              		.syntax unified
 595              		.thumb
 596              		.thumb_func
 597              		.fpu softvfp
 598              		.type	chGuardedPoolAllocTimeout, %function
 599              	chGuardedPoolAllocTimeout:
 600              	.LFB304:
 601              		.loc 1 303 0
 602              		.cfi_startproc
 603              		@ args = 0, pretend = 0, frame = 0
 604              		@ frame_needed = 0, uses_anonymous_args = 0
 605              	.LVL63:
 606 01c0 D0B5     		push	{r4, r6, r7, lr}
 607              		.cfi_def_cfa_offset 16
 608              		.cfi_offset 4, -16
 609              		.cfi_offset 6, -12
 610              		.cfi_offset 7, -8
 611              		.cfi_offset 14, -4
 612 01c2 0446     		mov	r4, r0
 613 01c4 1646     		mov	r6, r2
 614 01c6 1F46     		mov	r7, r3
 615              	.LVL64:
 616              	.LBB96:
 617              	.LBB97:
 618              	.LBB98:
 619              	.LBB99:
 620              	.LBB100:
 621              		.loc 2 493 0
ARM GAS  C:\Users\RAKIBU~1\AppData\Local\Temp\cc7Yu26h.s 			page 12


 622 01c8 2023     		movs	r3, #32
 623              		.syntax unified
 624              	@ 493 "../../../ChibiOSRepo/chibios191/os/common/ext/ARM/CMSIS/Core/Include/cmsis_gcc.h" 1
 625 01ca 83F31188 		MSR basepri, r3
 626              	@ 0 "" 2
 627              	.LVL65:
 628              		.thumb
 629              		.syntax unified
 630              	.LBE100:
 631              	.LBE99:
 632              	.LBE98:
 633              		.loc 3 356 0
 634 01ce FFF7FEFF 		bl	_stats_start_measure_crit_thd
 635              	.LVL66:
 636              		.loc 3 357 0
 637 01d2 FFF7FEFF 		bl	_dbg_check_lock
 638              	.LVL67:
 639              	.LBE97:
 640              	.LBE96:
 641              		.loc 1 307 0
 642 01d6 3246     		mov	r2, r6
 643 01d8 3B46     		mov	r3, r7
 644 01da 2046     		mov	r0, r4
 645 01dc FFF7FEFF 		bl	chGuardedPoolAllocTimeoutS
 646              	.LVL68:
 647 01e0 0446     		mov	r4, r0
 648              	.LVL69:
 649              	.LBB101:
 650              	.LBB102:
 651              		.loc 3 367 0
 652 01e2 FFF7FEFF 		bl	_dbg_check_unlock
 653              	.LVL70:
 654              		.loc 3 368 0
 655 01e6 FFF7FEFF 		bl	_stats_stop_measure_crit_thd
 656              	.LVL71:
 657              		.loc 3 374 0
 658 01ea 094B     		ldr	r3, .L51
 659 01ec 1A68     		ldr	r2, [r3]
 660 01ee 9A42     		cmp	r2, r3
 661 01f0 04D0     		beq	.L48
 662 01f2 9B69     		ldr	r3, [r3, #24]
 663 01f4 9968     		ldr	r1, [r3, #8]
 664 01f6 9368     		ldr	r3, [r2, #8]
 665 01f8 9942     		cmp	r1, r3
 666 01fa 04D3     		bcc	.L50
 667              	.L48:
 668              	.LVL72:
 669              	.LBB103:
 670              	.LBB104:
 671              	.LBB105:
 672              		.loc 2 493 0
 673 01fc 0023     		movs	r3, #0
 674              		.syntax unified
 675              	@ 493 "../../../ChibiOSRepo/chibios191/os/common/ext/ARM/CMSIS/Core/Include/cmsis_gcc.h" 1
 676 01fe 83F31188 		MSR basepri, r3
 677              	@ 0 "" 2
 678              	.LVL73:
ARM GAS  C:\Users\RAKIBU~1\AppData\Local\Temp\cc7Yu26h.s 			page 13


 679              		.thumb
 680              		.syntax unified
 681              	.LBE105:
 682              	.LBE104:
 683              	.LBE103:
 684              	.LBE102:
 685              	.LBE101:
 686              		.loc 1 311 0
 687 0202 2046     		mov	r0, r4
 688 0204 D0BD     		pop	{r4, r6, r7, pc}
 689              	.LVL74:
 690              	.L50:
 691              	.LBB107:
 692              	.LBB106:
 693              		.loc 3 374 0
 694 0206 0348     		ldr	r0, .L51+4
 695 0208 FFF7FEFF 		bl	chSysHalt
 696              	.LVL75:
 697 020c F6E7     		b	.L48
 698              	.L52:
 699 020e 00BF     		.align	2
 700              	.L51:
 701 0210 00000000 		.word	ch
 702 0214 28000000 		.word	.LANCHOR0+40
 703              	.LBE106:
 704              	.LBE107:
 705              		.cfi_endproc
 706              	.LFE304:
 707              		.size	chGuardedPoolAllocTimeout, .-chGuardedPoolAllocTimeout
 708              		.align	1
 709 0218 AFF30080 		.p2align 4,,15
 709      AFF30080 
 710              		.global	chGuardedPoolFree
 711              		.syntax unified
 712              		.thumb
 713              		.thumb_func
 714              		.fpu softvfp
 715              		.type	chGuardedPoolFree, %function
 716              	chGuardedPoolFree:
 717              	.LFB305:
 718              		.loc 1 325 0
 719              		.cfi_startproc
 720              		@ args = 0, pretend = 0, frame = 0
 721              		@ frame_needed = 0, uses_anonymous_args = 0
 722              	.LVL76:
 723 0220 38B5     		push	{r3, r4, r5, lr}
 724              		.cfi_def_cfa_offset 16
 725              		.cfi_offset 3, -16
 726              		.cfi_offset 4, -12
 727              		.cfi_offset 5, -8
 728              		.cfi_offset 14, -4
 729 0222 0446     		mov	r4, r0
 730 0224 0D46     		mov	r5, r1
 731              	.LVL77:
 732              	.LBB120:
 733              	.LBB121:
 734              	.LBB122:
ARM GAS  C:\Users\RAKIBU~1\AppData\Local\Temp\cc7Yu26h.s 			page 14


 735              	.LBB123:
 736              	.LBB124:
 737              		.loc 2 493 0
 738 0226 2023     		movs	r3, #32
 739              		.syntax unified
 740              	@ 493 "../../../ChibiOSRepo/chibios191/os/common/ext/ARM/CMSIS/Core/Include/cmsis_gcc.h" 1
 741 0228 83F31188 		MSR basepri, r3
 742              	@ 0 "" 2
 743              	.LVL78:
 744              		.thumb
 745              		.syntax unified
 746              	.LBE124:
 747              	.LBE123:
 748              	.LBE122:
 749              		.loc 3 356 0
 750 022c FFF7FEFF 		bl	_stats_start_measure_crit_thd
 751              	.LVL79:
 752              		.loc 3 357 0
 753 0230 FFF7FEFF 		bl	_dbg_check_lock
 754              	.LVL80:
 755              	.LBE121:
 756              	.LBE120:
 757              	.LBB125:
 758              	.LBB126:
 759              		.loc 4 301 0
 760 0234 2946     		mov	r1, r5
 761 0236 04F10C00 		add	r0, r4, #12
 762 023a FFF7FEFF 		bl	chPoolFreeI
 763              	.LVL81:
 764              		.loc 4 302 0
 765 023e 2046     		mov	r0, r4
 766 0240 FFF7FEFF 		bl	chSemSignalI
 767              	.LVL82:
 768              	.LBE126:
 769              	.LBE125:
 770              		.loc 1 329 0
 771 0244 FFF7FEFF 		bl	chSchRescheduleS
 772              	.LVL83:
 773              	.LBB127:
 774              	.LBB128:
 775              		.loc 3 367 0
 776 0248 FFF7FEFF 		bl	_dbg_check_unlock
 777              	.LVL84:
 778              		.loc 3 368 0
 779 024c FFF7FEFF 		bl	_stats_stop_measure_crit_thd
 780              	.LVL85:
 781              		.loc 3 374 0
 782 0250 084B     		ldr	r3, .L57
 783 0252 1A68     		ldr	r2, [r3]
 784 0254 9A42     		cmp	r2, r3
 785 0256 04D0     		beq	.L54
 786 0258 9B69     		ldr	r3, [r3, #24]
 787 025a 9968     		ldr	r1, [r3, #8]
 788 025c 9368     		ldr	r3, [r2, #8]
 789 025e 9942     		cmp	r1, r3
 790 0260 03D3     		bcc	.L56
 791              	.L54:
ARM GAS  C:\Users\RAKIBU~1\AppData\Local\Temp\cc7Yu26h.s 			page 15


 792              	.LVL86:
 793              	.LBB129:
 794              	.LBB130:
 795              	.LBB131:
 796              		.loc 2 493 0
 797 0262 0023     		movs	r3, #0
 798              		.syntax unified
 799              	@ 493 "../../../ChibiOSRepo/chibios191/os/common/ext/ARM/CMSIS/Core/Include/cmsis_gcc.h" 1
 800 0264 83F31188 		MSR basepri, r3
 801              	@ 0 "" 2
 802              	.LVL87:
 803              		.thumb
 804              		.syntax unified
 805              	.LBE131:
 806              	.LBE130:
 807              	.LBE129:
 808              	.LBE128:
 809              	.LBE127:
 810              		.loc 1 331 0
 811 0268 38BD     		pop	{r3, r4, r5, pc}
 812              	.LVL88:
 813              	.L56:
 814              	.LBB133:
 815              	.LBB132:
 816              		.loc 3 374 0
 817 026a 0348     		ldr	r0, .L57+4
 818 026c FFF7FEFF 		bl	chSysHalt
 819              	.LVL89:
 820 0270 F7E7     		b	.L54
 821              	.L58:
 822 0272 00BF     		.align	2
 823              	.L57:
 824 0274 00000000 		.word	ch
 825 0278 28000000 		.word	.LANCHOR0+40
 826              	.LBE132:
 827              	.LBE133:
 828              		.cfi_endproc
 829              	.LFE305:
 830              		.size	chGuardedPoolFree, .-chGuardedPoolFree
 831              		.align	1
 832 027c AFF30080 		.p2align 4,,15
 833              		.global	chGuardedPoolLoadArray
 834              		.syntax unified
 835              		.thumb
 836              		.thumb_func
 837              		.fpu softvfp
 838              		.type	chGuardedPoolLoadArray, %function
 839              	chGuardedPoolLoadArray:
 840              	.LFB302:
 841              		.loc 1 247 0
 842              		.cfi_startproc
 843              		@ args = 0, pretend = 0, frame = 0
 844              		@ frame_needed = 0, uses_anonymous_args = 0
 845              	.LVL90:
 846 0280 70B5     		push	{r4, r5, r6, lr}
 847              		.cfi_def_cfa_offset 16
 848              		.cfi_offset 4, -16
ARM GAS  C:\Users\RAKIBU~1\AppData\Local\Temp\cc7Yu26h.s 			page 16


 849              		.cfi_offset 5, -12
 850              		.cfi_offset 6, -8
 851              		.cfi_offset 14, -4
 852 0282 0D46     		mov	r5, r1
 853 0284 1446     		mov	r4, r2
 854              		.loc 1 249 0
 855 0286 0646     		mov	r6, r0
 856 0288 00B1     		cbz	r0, .L60
 857              		.loc 1 249 0 is_stmt 0 discriminator 3
 858 028a 52B9     		cbnz	r2, .L62
 859              	.L60:
 860              		.loc 1 249 0 discriminator 4
 861 028c 0648     		ldr	r0, .L65
 862              	.LVL91:
 863 028e FFF7FEFF 		bl	chSysHalt
 864              	.LVL92:
 865 0292 06E0     		b	.L62
 866              	.L63:
 867              	.LVL93:
 868              	.LBB134:
 869              	.LBB135:
 870              		.loc 4 339 0 is_stmt 1
 871 0294 2946     		mov	r1, r5
 872 0296 3046     		mov	r0, r6
 873 0298 FFF7FEFF 		bl	chGuardedPoolFree
 874              	.LVL94:
 875              	.LBE135:
 876              	.LBE134:
 877              		.loc 1 254 0
 878 029c 3369     		ldr	r3, [r6, #16]
 879 029e 1D44     		add	r5, r5, r3
 880              	.LVL95:
 881              		.loc 1 256 0
 882 02a0 013C     		subs	r4, r4, #1
 883              	.LVL96:
 884              	.L62:
 885              		.loc 1 251 0
 886 02a2 002C     		cmp	r4, #0
 887 02a4 F6D1     		bne	.L63
 888              		.loc 1 258 0
 889 02a6 70BD     		pop	{r4, r5, r6, pc}
 890              	.LVL97:
 891              	.L66:
 892              		.align	2
 893              	.L65:
 894 02a8 50000000 		.word	.LANCHOR0+80
 895              		.cfi_endproc
 896              	.LFE302:
 897              		.size	chGuardedPoolLoadArray, .-chGuardedPoolLoadArray
 898              		.section	.rodata
 899              		.align	2
 900              		.set	.LANCHOR0,. + 0
 901              		.type	__func__.7109, %object
 902              		.size	__func__.7109, 24
 903              	__func__.7109:
 904 0000 6368506F 		.ascii	"chPoolObjectInitAligned\000"
 904      6F6C4F62 
ARM GAS  C:\Users\RAKIBU~1\AppData\Local\Temp\cc7Yu26h.s 			page 17


 904      6A656374 
 904      496E6974 
 904      416C6967 
 905              		.type	__func__.7123, %object
 906              		.size	__func__.7123, 13
 907              	__func__.7123:
 908 0018 6368506F 		.ascii	"chPoolAllocI\000"
 908      6F6C416C 
 908      6C6F6349 
 908      00
 909 0025 000000   		.space	3
 910              		.type	__func__.6118, %object
 911              		.size	__func__.6118, 12
 912              	__func__.6118:
 913 0028 63685379 		.ascii	"chSysUnlock\000"
 913      73556E6C 
 913      6F636B00 
 914              		.type	__func__.7133, %object
 915              		.size	__func__.7133, 12
 916              	__func__.7133:
 917 0034 6368506F 		.ascii	"chPoolFreeI\000"
 917      6F6C4672 
 917      65654900 
 918              		.type	__func__.7115, %object
 919              		.size	__func__.7115, 16
 920              	__func__.7115:
 921 0040 6368506F 		.ascii	"chPoolLoadArray\000"
 921      6F6C4C6F 
 921      61644172 
 921      72617900 
 922              		.type	__func__.7148, %object
 923              		.size	__func__.7148, 23
 924              	__func__.7148:
 925 0050 63684775 		.ascii	"chGuardedPoolLoadArray\000"
 925      61726465 
 925      64506F6F 
 925      6C4C6F61 
 925      64417272 
 926              		.text
 927              	.Letext0:
 928              		.file 5 "c:\\chibistudio\\tools\\gnu tools arm embedded\\7.0 2017q4\\lib\\gcc\\arm-none-eabi\\7.2.
 929              		.file 6 "c:\\chibistudio\\tools\\gnu tools arm embedded\\7.0 2017q4\\arm-none-eabi\\include\\machi
 930              		.file 7 "c:\\chibistudio\\tools\\gnu tools arm embedded\\7.0 2017q4\\arm-none-eabi\\include\\sys\\
 931              		.file 8 "../../../ChibiOSRepo/chibios191/os/common/ports/ARMCMx/compilers/GCC/chtypes.h"
 932              		.file 9 "../../../ChibiOSRepo/chibios191/os/rt/include/chsystypes.h"
 933              		.file 10 "../../../ChibiOSRepo/chibios191/os/rt/include/chschd.h"
 934              		.file 11 "../../../ChibiOSRepo/chibios191/os/rt/include/chtime.h"
 935              		.file 12 "../../../ChibiOSRepo/chibios191/os/common/ext/ARM/CMSIS/Core/Include/core_cm4.h"
 936              		.file 13 "../../../ChibiOSRepo/chibios191/os/common/ext/ST/STM32F4xx/system_stm32f4xx.h"
 937              		.file 14 "../../../ChibiOSRepo/chibios191/os/common/ports/ARMCMx/chcore.h"
 938              		.file 15 "../../../ChibiOSRepo/chibios191/os/common/ports/ARMCMx/chcore_v7m.h"
 939              		.file 16 "../../../ChibiOSRepo/chibios191/os/rt/include/chtrace.h"
 940              		.file 17 "../../../ChibiOSRepo/chibios191/os/rt/include/chtm.h"
 941              		.file 18 "../../../ChibiOSRepo/chibios191/os/rt/include/chstats.h"
 942              		.file 19 "../../../ChibiOSRepo/chibios191/os/rt/include/chsem.h"
 943              		.file 20 "../../../ChibiOSRepo/chibios191/os/rt/include/chmtx.h"
 944              		.file 21 "../../../ChibiOSRepo/chibios191/os/rt/include/chregistry.h"
ARM GAS  C:\Users\RAKIBU~1\AppData\Local\Temp\cc7Yu26h.s 			page 18


 945              		.file 22 "../../../ChibiOSRepo/chibios191/os/oslib/include/chmemcore.h"
 946              		.file 23 "../../../ChibiOSRepo/chibios191/os/oslib/include/chfactory.h"
 947              		.file 24 "../../../ChibiOSRepo/chibios191/os/rt/include/chdebug.h"
 948              		.file 25 "../../../ChibiOSRepo/chibios191/os/rt/include/ch.h"