ARM GAS  C:\Users\RAKIBU~1\AppData\Local\Temp\ccYMbiBh.s 			page 1


   1              		.cpu cortex-m4
   2              		.eabi_attribute 20, 1
   3              		.eabi_attribute 21, 1
   4              		.eabi_attribute 23, 3
   5              		.eabi_attribute 24, 1
   6              		.eabi_attribute 25, 1
   7              		.eabi_attribute 26, 1
   8              		.eabi_attribute 30, 1
   9              		.eabi_attribute 34, 1
  10              		.eabi_attribute 18, 4
  11              		.file	"chmsg.c"
  12              		.text
  13              	.Ltext0:
  14              		.cfi_sections	.debug_frame
  15              		.align	1
  16              		.p2align 4,,15
  17              		.global	chMsgSend
  18              		.syntax unified
  19              		.thumb
  20              		.thumb_func
  21              		.fpu softvfp
  22              		.type	chMsgSend, %function
  23              	chMsgSend:
  24              	.LFB295:
  25              		.file 1 "../../../ChibiOSRepo/chibios191/os/rt/src/chmsg.c"
  26              		.loc 1 87 0
  27              		.cfi_startproc
  28              		@ args = 0, pretend = 0, frame = 0
  29              		@ frame_needed = 0, uses_anonymous_args = 0
  30              	.LVL0:
  31 0000 70B5     		push	{r4, r5, r6, lr}
  32              		.cfi_def_cfa_offset 16
  33              		.cfi_offset 4, -16
  34              		.cfi_offset 5, -12
  35              		.cfi_offset 6, -8
  36              		.cfi_offset 14, -4
  37 0002 0E46     		mov	r6, r1
  38              		.loc 1 88 0
  39 0004 1C4B     		ldr	r3, .L9
  40 0006 9C69     		ldr	r4, [r3, #24]
  41              	.LVL1:
  42              		.loc 1 90 0
  43 0008 0546     		mov	r5, r0
  44 000a 40B3     		cbz	r0, .L6
  45              	.LVL2:
  46              	.L2:
  47              	.LBB49:
  48              	.LBB50:
  49              	.LBB51:
  50              	.LBB52:
  51              	.LBB53:
  52              		.file 2 "../../../ChibiOSRepo/chibios191/os/common/ext/ARM/CMSIS/Core/Include/cmsis_gcc.h"
  53              		.loc 2 493 0
  54 000c 2023     		movs	r3, #32
  55              		.syntax unified
  56              	@ 493 "../../../ChibiOSRepo/chibios191/os/common/ext/ARM/CMSIS/Core/Include/cmsis_gcc.h" 1
  57 000e 83F31188 		MSR basepri, r3
ARM GAS  C:\Users\RAKIBU~1\AppData\Local\Temp\ccYMbiBh.s 			page 2


  58              	@ 0 "" 2
  59              	.LVL3:
  60              		.thumb
  61              		.syntax unified
  62              	.LBE53:
  63              	.LBE52:
  64              	.LBE51:
  65              		.file 3 "../../../ChibiOSRepo/chibios191/os/rt/include/chsys.h"
  66              		.loc 3 356 0
  67 0012 FFF7FEFF 		bl	_stats_start_measure_crit_thd
  68              	.LVL4:
  69              		.loc 3 357 0
  70 0016 FFF7FEFF 		bl	_dbg_check_lock
  71              	.LVL5:
  72              	.LBE50:
  73              	.LBE49:
  74              		.loc 1 93 0
  75 001a 6662     		str	r6, [r4, #36]
  76              		.loc 1 94 0
  77 001c 05F12C03 		add	r3, r5, #44
  78              	.LVL6:
  79              	.LBB54:
  80              	.LBB55:
  81              		.file 4 "../../../ChibiOSRepo/chibios191/os/rt/include/chschd.h"
  82              		.loc 4 600 0
  83 0020 2360     		str	r3, [r4]
  84              		.loc 4 601 0
  85 0022 2B6B     		ldr	r3, [r5, #48]
  86              	.LVL7:
  87 0024 6360     		str	r3, [r4, #4]
  88              		.loc 4 602 0
  89 0026 1C60     		str	r4, [r3]
  90              	.LVL8:
  91              		.loc 4 603 0
  92 0028 2C63     		str	r4, [r5, #48]
  93              	.LVL9:
  94              	.LBE55:
  95              	.LBE54:
  96              		.loc 1 95 0
  97 002a 95F82030 		ldrb	r3, [r5, #32]	@ zero_extendqisi2
  98 002e 0E2B     		cmp	r3, #14
  99 0030 19D0     		beq	.L7
 100              	.L3:
 101              		.loc 1 98 0
 102 0032 0C20     		movs	r0, #12
 103 0034 FFF7FEFF 		bl	chSchGoSleepS
 104              	.LVL10:
 105              		.loc 1 99 0
 106 0038 646A     		ldr	r4, [r4, #36]
 107              	.LVL11:
 108              	.LBB56:
 109              	.LBB57:
 110              		.loc 3 367 0
 111 003a FFF7FEFF 		bl	_dbg_check_unlock
 112              	.LVL12:
 113              		.loc 3 368 0
 114 003e FFF7FEFF 		bl	_stats_stop_measure_crit_thd
ARM GAS  C:\Users\RAKIBU~1\AppData\Local\Temp\ccYMbiBh.s 			page 3


 115              	.LVL13:
 116              		.loc 3 374 0
 117 0042 0D4B     		ldr	r3, .L9
 118 0044 1A68     		ldr	r2, [r3]
 119 0046 9A42     		cmp	r2, r3
 120 0048 04D0     		beq	.L4
 121 004a 9B69     		ldr	r3, [r3, #24]
 122 004c 9968     		ldr	r1, [r3, #8]
 123 004e 9368     		ldr	r3, [r2, #8]
 124 0050 9942     		cmp	r1, r3
 125 0052 0CD3     		bcc	.L8
 126              	.L4:
 127              	.LVL14:
 128              	.LBB58:
 129              	.LBB59:
 130              	.LBB60:
 131              		.loc 2 493 0
 132 0054 0023     		movs	r3, #0
 133              		.syntax unified
 134              	@ 493 "../../../ChibiOSRepo/chibios191/os/common/ext/ARM/CMSIS/Core/Include/cmsis_gcc.h" 1
 135 0056 83F31188 		MSR basepri, r3
 136              	@ 0 "" 2
 137              	.LVL15:
 138              		.thumb
 139              		.syntax unified
 140              	.LBE60:
 141              	.LBE59:
 142              	.LBE58:
 143              	.LBE57:
 144              	.LBE56:
 145              		.loc 1 103 0
 146 005a 2046     		mov	r0, r4
 147 005c 70BD     		pop	{r4, r5, r6, pc}
 148              	.LVL16:
 149              	.L6:
 150              		.loc 1 90 0 discriminator 2
 151 005e 0748     		ldr	r0, .L9+4
 152              	.LVL17:
 153 0060 FFF7FEFF 		bl	chSysHalt
 154              	.LVL18:
 155 0064 D2E7     		b	.L2
 156              	.L7:
 157              		.loc 1 96 0
 158 0066 2846     		mov	r0, r5
 159 0068 FFF7FEFF 		bl	chSchReadyI
 160              	.LVL19:
 161 006c E1E7     		b	.L3
 162              	.LVL20:
 163              	.L8:
 164              	.LBB62:
 165              	.LBB61:
 166              		.loc 3 374 0
 167 006e 0448     		ldr	r0, .L9+8
 168 0070 FFF7FEFF 		bl	chSysHalt
 169              	.LVL21:
 170 0074 EEE7     		b	.L4
 171              	.L10:
ARM GAS  C:\Users\RAKIBU~1\AppData\Local\Temp\ccYMbiBh.s 			page 4


 172 0076 00BF     		.align	2
 173              	.L9:
 174 0078 00000000 		.word	ch
 175 007c 00000000 		.word	.LANCHOR0
 176 0080 0C000000 		.word	.LANCHOR0+12
 177              	.LBE61:
 178              	.LBE62:
 179              		.cfi_endproc
 180              	.LFE295:
 181              		.size	chMsgSend, .-chMsgSend
 182              		.align	1
 183 0084 AFF30080 		.p2align 4,,15
 183      AFF30080 
 183      AFF30080 
 184              		.global	chMsgWait
 185              		.syntax unified
 186              		.thumb
 187              		.thumb_func
 188              		.fpu softvfp
 189              		.type	chMsgWait, %function
 190              	chMsgWait:
 191              	.LFB296:
 192              		.loc 1 121 0
 193              		.cfi_startproc
 194              		@ args = 0, pretend = 0, frame = 0
 195              		@ frame_needed = 0, uses_anonymous_args = 0
 196 0090 38B5     		push	{r3, r4, r5, lr}
 197              		.cfi_def_cfa_offset 16
 198              		.cfi_offset 3, -16
 199              		.cfi_offset 4, -12
 200              		.cfi_offset 5, -8
 201              		.cfi_offset 14, -4
 202              	.LVL22:
 203              	.LBB77:
 204              	.LBB78:
 205              	.LBB79:
 206              	.LBB80:
 207              	.LBB81:
 208              		.loc 2 493 0
 209 0092 2023     		movs	r3, #32
 210              		.syntax unified
 211              	@ 493 "../../../ChibiOSRepo/chibios191/os/common/ext/ARM/CMSIS/Core/Include/cmsis_gcc.h" 1
 212 0094 83F31188 		MSR basepri, r3
 213              	@ 0 "" 2
 214              	.LVL23:
 215              		.thumb
 216              		.syntax unified
 217              	.LBE81:
 218              	.LBE80:
 219              	.LBE79:
 220              		.loc 3 356 0
 221 0098 FFF7FEFF 		bl	_stats_start_measure_crit_thd
 222              	.LVL24:
 223              		.loc 3 357 0
 224 009c FFF7FEFF 		bl	_dbg_check_lock
 225              	.LVL25:
 226              	.LBE78:
ARM GAS  C:\Users\RAKIBU~1\AppData\Local\Temp\ccYMbiBh.s 			page 5


 227              	.LBE77:
 228              		.loc 1 125 0
 229 00a0 164B     		ldr	r3, .L17
 230 00a2 9C69     		ldr	r4, [r3, #24]
 231              	.LVL26:
 232              	.LBB82:
 233              	.LBB83:
 234              		.file 5 "../../../ChibiOSRepo/chibios191/os/rt/include/chmsg.h"
 235              		.loc 5 81 0
 236 00a4 FFF7FEFF 		bl	chDbgCheckClassI
 237              	.LVL27:
 238              		.loc 5 83 0
 239 00a8 2346     		mov	r3, r4
 240 00aa 53F82C2F 		ldr	r2, [r3, #44]!
 241              	.LVL28:
 242              	.LBE83:
 243              	.LBE82:
 244              		.loc 1 125 0
 245 00ae 9A42     		cmp	r2, r3
 246 00b0 1BD0     		beq	.L15
 247              	.L12:
 248              		.loc 1 128 0
 249 00b2 124D     		ldr	r5, .L17
 250 00b4 AB69     		ldr	r3, [r5, #24]
 251 00b6 03F12C01 		add	r1, r3, #44
 252              	.LVL29:
 253              	.LBB84:
 254              	.LBB85:
 255              		.loc 4 607 0
 256 00ba DC6A     		ldr	r4, [r3, #44]
 257              	.LVL30:
 258              		.loc 4 609 0
 259 00bc 2268     		ldr	r2, [r4]
 260 00be DA62     		str	r2, [r3, #44]
 261              		.loc 4 610 0
 262 00c0 5160     		str	r1, [r2, #4]
 263              	.LVL31:
 264              	.LBE85:
 265              	.LBE84:
 266              		.loc 1 129 0
 267 00c2 0D23     		movs	r3, #13
 268 00c4 84F82030 		strb	r3, [r4, #32]
 269              	.LBB86:
 270              	.LBB87:
 271              		.loc 3 367 0
 272 00c8 FFF7FEFF 		bl	_dbg_check_unlock
 273              	.LVL32:
 274              		.loc 3 368 0
 275 00cc FFF7FEFF 		bl	_stats_stop_measure_crit_thd
 276              	.LVL33:
 277              		.loc 3 374 0
 278 00d0 2B68     		ldr	r3, [r5]
 279 00d2 AB42     		cmp	r3, r5
 280 00d4 04D0     		beq	.L13
 281 00d6 AA69     		ldr	r2, [r5, #24]
 282 00d8 9268     		ldr	r2, [r2, #8]
 283 00da 9B68     		ldr	r3, [r3, #8]
ARM GAS  C:\Users\RAKIBU~1\AppData\Local\Temp\ccYMbiBh.s 			page 6


 284 00dc 9A42     		cmp	r2, r3
 285 00de 08D3     		bcc	.L16
 286              	.L13:
 287              	.LVL34:
 288              	.LBB88:
 289              	.LBB89:
 290              	.LBB90:
 291              		.loc 2 493 0
 292 00e0 0023     		movs	r3, #0
 293              		.syntax unified
 294              	@ 493 "../../../ChibiOSRepo/chibios191/os/common/ext/ARM/CMSIS/Core/Include/cmsis_gcc.h" 1
 295 00e2 83F31188 		MSR basepri, r3
 296              	@ 0 "" 2
 297              	.LVL35:
 298              		.thumb
 299              		.syntax unified
 300              	.LBE90:
 301              	.LBE89:
 302              	.LBE88:
 303              	.LBE87:
 304              	.LBE86:
 305              		.loc 1 133 0
 306 00e6 2046     		mov	r0, r4
 307 00e8 38BD     		pop	{r3, r4, r5, pc}
 308              	.L15:
 309              		.loc 1 126 0
 310 00ea 0E20     		movs	r0, #14
 311 00ec FFF7FEFF 		bl	chSchGoSleepS
 312              	.LVL36:
 313 00f0 DFE7     		b	.L12
 314              	.L16:
 315              	.LBB92:
 316              	.LBB91:
 317              		.loc 3 374 0
 318 00f2 0348     		ldr	r0, .L17+4
 319 00f4 FFF7FEFF 		bl	chSysHalt
 320              	.LVL37:
 321 00f8 F2E7     		b	.L13
 322              	.L18:
 323 00fa 00BF     		.align	2
 324              	.L17:
 325 00fc 00000000 		.word	ch
 326 0100 0C000000 		.word	.LANCHOR0+12
 327              	.LBE91:
 328              	.LBE92:
 329              		.cfi_endproc
 330              	.LFE296:
 331              		.size	chMsgWait, .-chMsgWait
 332              		.align	1
 333 0104 AFF30080 		.p2align 4,,15
 333      AFF30080 
 333      AFF30080 
 334              		.global	chMsgRelease
 335              		.syntax unified
 336              		.thumb
 337              		.thumb_func
 338              		.fpu softvfp
ARM GAS  C:\Users\RAKIBU~1\AppData\Local\Temp\ccYMbiBh.s 			page 7


 339              		.type	chMsgRelease, %function
 340              	chMsgRelease:
 341              	.LFB297:
 342              		.loc 1 145 0
 343              		.cfi_startproc
 344              		@ args = 0, pretend = 0, frame = 0
 345              		@ frame_needed = 0, uses_anonymous_args = 0
 346              	.LVL38:
 347 0110 38B5     		push	{r3, r4, r5, lr}
 348              		.cfi_def_cfa_offset 16
 349              		.cfi_offset 3, -16
 350              		.cfi_offset 4, -12
 351              		.cfi_offset 5, -8
 352              		.cfi_offset 14, -4
 353 0112 0446     		mov	r4, r0
 354 0114 0D46     		mov	r5, r1
 355              	.LVL39:
 356              	.LBB105:
 357              	.LBB106:
 358              	.LBB107:
 359              	.LBB108:
 360              	.LBB109:
 361              		.loc 2 493 0
 362 0116 2023     		movs	r3, #32
 363              		.syntax unified
 364              	@ 493 "../../../ChibiOSRepo/chibios191/os/common/ext/ARM/CMSIS/Core/Include/cmsis_gcc.h" 1
 365 0118 83F31188 		MSR basepri, r3
 366              	@ 0 "" 2
 367              	.LVL40:
 368              		.thumb
 369              		.syntax unified
 370              	.LBE109:
 371              	.LBE108:
 372              	.LBE107:
 373              		.loc 3 356 0
 374 011c FFF7FEFF 		bl	_stats_start_measure_crit_thd
 375              	.LVL41:
 376              		.loc 3 357 0
 377 0120 FFF7FEFF 		bl	_dbg_check_lock
 378              	.LVL42:
 379              	.LBE106:
 380              	.LBE105:
 381              		.loc 1 148 0
 382 0124 94F82030 		ldrb	r3, [r4, #32]	@ zero_extendqisi2
 383 0128 0D2B     		cmp	r3, #13
 384 012a 02D0     		beq	.L20
 385              		.loc 1 148 0 is_stmt 0 discriminator 2
 386 012c 0E48     		ldr	r0, .L24
 387 012e FFF7FEFF 		bl	chSysHalt
 388              	.LVL43:
 389              	.L20:
 390              	.LBB110:
 391              	.LBB111:
 392              		.loc 5 115 0 is_stmt 1
 393 0132 FFF7FEFF 		bl	chDbgCheckClassS
 394              	.LVL44:
 395              		.loc 5 117 0
ARM GAS  C:\Users\RAKIBU~1\AppData\Local\Temp\ccYMbiBh.s 			page 8


 396 0136 2946     		mov	r1, r5
 397 0138 2046     		mov	r0, r4
 398 013a FFF7FEFF 		bl	chSchWakeupS
 399              	.LVL45:
 400              	.LBE111:
 401              	.LBE110:
 402              	.LBB112:
 403              	.LBB113:
 404              		.loc 3 367 0
 405 013e FFF7FEFF 		bl	_dbg_check_unlock
 406              	.LVL46:
 407              		.loc 3 368 0
 408 0142 FFF7FEFF 		bl	_stats_stop_measure_crit_thd
 409              	.LVL47:
 410              		.loc 3 374 0
 411 0146 094B     		ldr	r3, .L24+4
 412 0148 1A68     		ldr	r2, [r3]
 413 014a 9A42     		cmp	r2, r3
 414 014c 04D0     		beq	.L21
 415 014e 9B69     		ldr	r3, [r3, #24]
 416 0150 9968     		ldr	r1, [r3, #8]
 417 0152 9368     		ldr	r3, [r2, #8]
 418 0154 9942     		cmp	r1, r3
 419 0156 03D3     		bcc	.L23
 420              	.L21:
 421              	.LVL48:
 422              	.LBB114:
 423              	.LBB115:
 424              	.LBB116:
 425              		.loc 2 493 0
 426 0158 0023     		movs	r3, #0
 427              		.syntax unified
 428              	@ 493 "../../../ChibiOSRepo/chibios191/os/common/ext/ARM/CMSIS/Core/Include/cmsis_gcc.h" 1
 429 015a 83F31188 		MSR basepri, r3
 430              	@ 0 "" 2
 431              	.LVL49:
 432              		.thumb
 433              		.syntax unified
 434              	.LBE116:
 435              	.LBE115:
 436              	.LBE114:
 437              	.LBE113:
 438              	.LBE112:
 439              		.loc 1 151 0
 440 015e 38BD     		pop	{r3, r4, r5, pc}
 441              	.LVL50:
 442              	.L23:
 443              	.LBB118:
 444              	.LBB117:
 445              		.loc 3 374 0
 446 0160 0348     		ldr	r0, .L24+8
 447 0162 FFF7FEFF 		bl	chSysHalt
 448              	.LVL51:
 449 0166 F7E7     		b	.L21
 450              	.L25:
 451              		.align	2
 452              	.L24:
ARM GAS  C:\Users\RAKIBU~1\AppData\Local\Temp\ccYMbiBh.s 			page 9


 453 0168 18000000 		.word	.LANCHOR0+24
 454 016c 00000000 		.word	ch
 455 0170 0C000000 		.word	.LANCHOR0+12
 456              	.LBE117:
 457              	.LBE118:
 458              		.cfi_endproc
 459              	.LFE297:
 460              		.size	chMsgRelease, .-chMsgRelease
 461              		.section	.rodata
 462              		.align	2
 463              		.set	.LANCHOR0,. + 0
 464              		.type	__func__.7108, %object
 465              		.size	__func__.7108, 10
 466              	__func__.7108:
 467 0000 63684D73 		.ascii	"chMsgSend\000"
 467      6753656E 
 467      6400
 468 000a 0000     		.space	2
 469              		.type	__func__.6118, %object
 470              		.size	__func__.6118, 12
 471              	__func__.6118:
 472 000c 63685379 		.ascii	"chSysUnlock\000"
 472      73556E6C 
 472      6F636B00 
 473              		.type	__func__.7117, %object
 474              		.size	__func__.7117, 13
 475              	__func__.7117:
 476 0018 63684D73 		.ascii	"chMsgRelease\000"
 476      6752656C 
 476      65617365 
 476      00
 477              		.text
 478              	.Letext0:
 479              		.file 6 "c:\\chibistudio\\tools\\gnu tools arm embedded\\7.0 2017q4\\lib\\gcc\\arm-none-eabi\\7.2.
 480              		.file 7 "c:\\chibistudio\\tools\\gnu tools arm embedded\\7.0 2017q4\\arm-none-eabi\\include\\machi
 481              		.file 8 "c:\\chibistudio\\tools\\gnu tools arm embedded\\7.0 2017q4\\arm-none-eabi\\include\\sys\\
 482              		.file 9 "../../../ChibiOSRepo/chibios191/os/common/ports/ARMCMx/compilers/GCC/chtypes.h"
 483              		.file 10 "../../../ChibiOSRepo/chibios191/os/rt/include/chsystypes.h"
 484              		.file 11 "../../../ChibiOSRepo/chibios191/os/rt/include/chtime.h"
 485              		.file 12 "../../../ChibiOSRepo/chibios191/os/common/ext/ARM/CMSIS/Core/Include/core_cm4.h"
 486              		.file 13 "../../../ChibiOSRepo/chibios191/os/common/ext/ST/STM32F4xx/system_stm32f4xx.h"
 487              		.file 14 "../../../ChibiOSRepo/chibios191/os/common/ports/ARMCMx/chcore.h"
 488              		.file 15 "../../../ChibiOSRepo/chibios191/os/common/ports/ARMCMx/chcore_v7m.h"
 489              		.file 16 "../../../ChibiOSRepo/chibios191/os/rt/include/chtrace.h"
 490              		.file 17 "../../../ChibiOSRepo/chibios191/os/rt/include/chtm.h"
 491              		.file 18 "../../../ChibiOSRepo/chibios191/os/rt/include/chstats.h"
 492              		.file 19 "../../../ChibiOSRepo/chibios191/os/rt/include/chsem.h"
 493              		.file 20 "../../../ChibiOSRepo/chibios191/os/rt/include/chmtx.h"
 494              		.file 21 "../../../ChibiOSRepo/chibios191/os/rt/include/chregistry.h"
 495              		.file 22 "../../../ChibiOSRepo/chibios191/os/oslib/include/chmemcore.h"
 496              		.file 23 "../../../ChibiOSRepo/chibios191/os/oslib/include/chmempools.h"
 497              		.file 24 "../../../ChibiOSRepo/chibios191/os/oslib/include/chfactory.h"
 498              		.file 25 "../../../ChibiOSRepo/chibios191/os/rt/include/chdebug.h"
 499              		.file 26 "../../../ChibiOSRepo/chibios191/os/rt/include/ch.h"