ARM GAS  C:\Users\RAKIBU~1\AppData\Local\Temp\ccPGqyJw.s 			page 1


   1              		.cpu cortex-m4
   2              		.eabi_attribute 20, 1
   3              		.eabi_attribute 21, 1
   4              		.eabi_attribute 23, 3
   5              		.eabi_attribute 24, 1
   6              		.eabi_attribute 25, 1
   7              		.eabi_attribute 26, 1
   8              		.eabi_attribute 30, 1
   9              		.eabi_attribute 34, 1
  10              		.eabi_attribute 18, 4
  11              		.file	"chstats.c"
  12              		.text
  13              	.Ltext0:
  14              		.cfi_sections	.debug_frame
  15              		.align	1
  16              		.p2align 4,,15
  17              		.global	_stats_init
  18              		.syntax unified
  19              		.thumb
  20              		.thumb_func
  21              		.fpu softvfp
  22              		.type	_stats_init, %function
  23              	_stats_init:
  24              	.LFB295:
  25              		.file 1 "../../../ChibiOSRepo/chibios191/os/rt/src/chstats.c"
  26              		.loc 1 62 0
  27              		.cfi_startproc
  28              		@ args = 0, pretend = 0, frame = 0
  29              		@ frame_needed = 0, uses_anonymous_args = 0
  30 0000 10B5     		push	{r4, lr}
  31              		.cfi_def_cfa_offset 8
  32              		.cfi_offset 4, -8
  33              		.cfi_offset 14, -4
  34              		.loc 1 64 0
  35 0002 074C     		ldr	r4, .L3
  36 0004 0023     		movs	r3, #0
  37 0006 C4F8B838 		str	r3, [r4, #2232]
  38              		.loc 1 65 0
  39 000a C4F8BC38 		str	r3, [r4, #2236]
  40              		.loc 1 66 0
  41 000e 04F50C60 		add	r0, r4, #2240
  42 0012 FFF7FEFF 		bl	chTMObjectInit
  43              	.LVL0:
  44              		.loc 1 67 0
  45 0016 04F6D800 		addw	r0, r4, #2264
  46 001a FFF7FEFF 		bl	chTMObjectInit
  47              	.LVL1:
  48              		.loc 1 68 0
  49 001e 10BD     		pop	{r4, pc}
  50              	.L4:
  51              		.align	2
  52              	.L3:
  53 0020 00000000 		.word	ch
  54              		.cfi_endproc
  55              	.LFE295:
  56              		.size	_stats_init, .-_stats_init
  57              		.align	1
ARM GAS  C:\Users\RAKIBU~1\AppData\Local\Temp\ccPGqyJw.s 			page 2


  58 0024 AFF30080 		.p2align 4,,15
  58      AFF30080 
  58      AFF30080 
  59              		.global	_stats_increase_irq
  60              		.syntax unified
  61              		.thumb
  62              		.thumb_func
  63              		.fpu softvfp
  64              		.type	_stats_increase_irq, %function
  65              	_stats_increase_irq:
  66              	.LFB296:
  67              		.loc 1 73 0
  68              		.cfi_startproc
  69              		@ args = 0, pretend = 0, frame = 0
  70              		@ frame_needed = 0, uses_anonymous_args = 0
  71              		@ link register save eliminated.
  72              	.LVL2:
  73              	.LBB24:
  74              	.LBB25:
  75              	.LBB26:
  76              	.LBB27:
  77              		.file 2 "../../../ChibiOSRepo/chibios191/os/common/ext/ARM/CMSIS/Core/Include/cmsis_gcc.h"
  78              		.loc 2 493 0
  79 0030 2023     		movs	r3, #32
  80              		.syntax unified
  81              	@ 493 "../../../ChibiOSRepo/chibios191/os/common/ext/ARM/CMSIS/Core/Include/cmsis_gcc.h" 1
  82 0032 83F31188 		MSR basepri, r3
  83              	@ 0 "" 2
  84              	.LVL3:
  85              		.thumb
  86              		.syntax unified
  87              	.LBE27:
  88              	.LBE26:
  89              	.LBE25:
  90              	.LBE24:
  91              		.loc 1 76 0
  92 0036 054A     		ldr	r2, .L6
  93 0038 D2F8B838 		ldr	r3, [r2, #2232]
  94 003c 0133     		adds	r3, r3, #1
  95 003e C2F8B838 		str	r3, [r2, #2232]
  96              	.LVL4:
  97              	.LBB28:
  98              	.LBB29:
  99              	.LBB30:
 100              	.LBB31:
 101              		.loc 2 493 0
 102 0042 0023     		movs	r3, #0
 103              		.syntax unified
 104              	@ 493 "../../../ChibiOSRepo/chibios191/os/common/ext/ARM/CMSIS/Core/Include/cmsis_gcc.h" 1
 105 0044 83F31188 		MSR basepri, r3
 106              	@ 0 "" 2
 107              	.LVL5:
 108              		.thumb
 109              		.syntax unified
 110              	.LBE31:
 111              	.LBE30:
 112              	.LBE29:
ARM GAS  C:\Users\RAKIBU~1\AppData\Local\Temp\ccPGqyJw.s 			page 3


 113              	.LBE28:
 114              		.loc 1 78 0
 115 0048 7047     		bx	lr
 116              	.L7:
 117 004a 00BF     		.align	2
 118              	.L6:
 119 004c 00000000 		.word	ch
 120              		.cfi_endproc
 121              	.LFE296:
 122              		.size	_stats_increase_irq, .-_stats_increase_irq
 123              		.align	1
 124              		.p2align 4,,15
 125              		.global	_stats_ctxswc
 126              		.syntax unified
 127              		.thumb
 128              		.thumb_func
 129              		.fpu softvfp
 130              		.type	_stats_ctxswc, %function
 131              	_stats_ctxswc:
 132              	.LFB297:
 133              		.loc 1 86 0
 134              		.cfi_startproc
 135              		@ args = 0, pretend = 0, frame = 0
 136              		@ frame_needed = 0, uses_anonymous_args = 0
 137              	.LVL6:
 138 0050 08B5     		push	{r3, lr}
 139              		.cfi_def_cfa_offset 8
 140              		.cfi_offset 3, -8
 141              		.cfi_offset 14, -4
 142              		.loc 1 88 0
 143 0052 074A     		ldr	r2, .L10
 144 0054 D2F8BC38 		ldr	r3, [r2, #2236]
 145 0058 0133     		adds	r3, r3, #1
 146 005a C2F8BC38 		str	r3, [r2, #2236]
 147              		.loc 1 89 0
 148 005e 01F14803 		add	r3, r1, #72
 149 0062 00F14801 		add	r1, r0, #72
 150              	.LVL7:
 151 0066 1846     		mov	r0, r3
 152              	.LVL8:
 153 0068 FFF7FEFF 		bl	chTMChainMeasurementToX
 154              	.LVL9:
 155              		.loc 1 90 0
 156 006c 08BD     		pop	{r3, pc}
 157              	.L11:
 158 006e 00BF     		.align	2
 159              	.L10:
 160 0070 00000000 		.word	ch
 161              		.cfi_endproc
 162              	.LFE297:
 163              		.size	_stats_ctxswc, .-_stats_ctxswc
 164              		.align	1
 165 0074 AFF30080 		.p2align 4,,15
 165      AFF30080 
 165      AFF30080 
 166              		.global	_stats_start_measure_crit_thd
 167              		.syntax unified
ARM GAS  C:\Users\RAKIBU~1\AppData\Local\Temp\ccPGqyJw.s 			page 4


 168              		.thumb
 169              		.thumb_func
 170              		.fpu softvfp
 171              		.type	_stats_start_measure_crit_thd, %function
 172              	_stats_start_measure_crit_thd:
 173              	.LFB298:
 174              		.loc 1 95 0
 175              		.cfi_startproc
 176              		@ args = 0, pretend = 0, frame = 0
 177              		@ frame_needed = 0, uses_anonymous_args = 0
 178 0080 08B5     		push	{r3, lr}
 179              		.cfi_def_cfa_offset 8
 180              		.cfi_offset 3, -8
 181              		.cfi_offset 14, -4
 182              		.loc 1 97 0
 183 0082 0248     		ldr	r0, .L14
 184 0084 FFF7FEFF 		bl	chTMStartMeasurementX
 185              	.LVL10:
 186              		.loc 1 98 0
 187 0088 08BD     		pop	{r3, pc}
 188              	.L15:
 189 008a 00BF     		.align	2
 190              	.L14:
 191 008c C0080000 		.word	ch+2240
 192              		.cfi_endproc
 193              	.LFE298:
 194              		.size	_stats_start_measure_crit_thd, .-_stats_start_measure_crit_thd
 195              		.align	1
 196              		.p2align 4,,15
 197              		.global	_stats_stop_measure_crit_thd
 198              		.syntax unified
 199              		.thumb
 200              		.thumb_func
 201              		.fpu softvfp
 202              		.type	_stats_stop_measure_crit_thd, %function
 203              	_stats_stop_measure_crit_thd:
 204              	.LFB299:
 205              		.loc 1 103 0
 206              		.cfi_startproc
 207              		@ args = 0, pretend = 0, frame = 0
 208              		@ frame_needed = 0, uses_anonymous_args = 0
 209 0090 08B5     		push	{r3, lr}
 210              		.cfi_def_cfa_offset 8
 211              		.cfi_offset 3, -8
 212              		.cfi_offset 14, -4
 213              		.loc 1 105 0
 214 0092 0248     		ldr	r0, .L18
 215 0094 FFF7FEFF 		bl	chTMStopMeasurementX
 216              	.LVL11:
 217              		.loc 1 106 0
 218 0098 08BD     		pop	{r3, pc}
 219              	.L19:
 220 009a 00BF     		.align	2
 221              	.L18:
 222 009c C0080000 		.word	ch+2240
 223              		.cfi_endproc
 224              	.LFE299:
ARM GAS  C:\Users\RAKIBU~1\AppData\Local\Temp\ccPGqyJw.s 			page 5


 225              		.size	_stats_stop_measure_crit_thd, .-_stats_stop_measure_crit_thd
 226              		.align	1
 227              		.p2align 4,,15
 228              		.global	_stats_start_measure_crit_isr
 229              		.syntax unified
 230              		.thumb
 231              		.thumb_func
 232              		.fpu softvfp
 233              		.type	_stats_start_measure_crit_isr, %function
 234              	_stats_start_measure_crit_isr:
 235              	.LFB300:
 236              		.loc 1 111 0
 237              		.cfi_startproc
 238              		@ args = 0, pretend = 0, frame = 0
 239              		@ frame_needed = 0, uses_anonymous_args = 0
 240 00a0 08B5     		push	{r3, lr}
 241              		.cfi_def_cfa_offset 8
 242              		.cfi_offset 3, -8
 243              		.cfi_offset 14, -4
 244              		.loc 1 113 0
 245 00a2 0248     		ldr	r0, .L22
 246 00a4 FFF7FEFF 		bl	chTMStartMeasurementX
 247              	.LVL12:
 248              		.loc 1 114 0
 249 00a8 08BD     		pop	{r3, pc}
 250              	.L23:
 251 00aa 00BF     		.align	2
 252              	.L22:
 253 00ac D8080000 		.word	ch+2264
 254              		.cfi_endproc
 255              	.LFE300:
 256              		.size	_stats_start_measure_crit_isr, .-_stats_start_measure_crit_isr
 257              		.align	1
 258              		.p2align 4,,15
 259              		.global	_stats_stop_measure_crit_isr
 260              		.syntax unified
 261              		.thumb
 262              		.thumb_func
 263              		.fpu softvfp
 264              		.type	_stats_stop_measure_crit_isr, %function
 265              	_stats_stop_measure_crit_isr:
 266              	.LFB301:
 267              		.loc 1 119 0
 268              		.cfi_startproc
 269              		@ args = 0, pretend = 0, frame = 0
 270              		@ frame_needed = 0, uses_anonymous_args = 0
 271 00b0 08B5     		push	{r3, lr}
 272              		.cfi_def_cfa_offset 8
 273              		.cfi_offset 3, -8
 274              		.cfi_offset 14, -4
 275              		.loc 1 121 0
 276 00b2 0248     		ldr	r0, .L26
 277 00b4 FFF7FEFF 		bl	chTMStopMeasurementX
 278              	.LVL13:
 279              		.loc 1 122 0
 280 00b8 08BD     		pop	{r3, pc}
 281              	.L27:
ARM GAS  C:\Users\RAKIBU~1\AppData\Local\Temp\ccPGqyJw.s 			page 6


 282 00ba 00BF     		.align	2
 283              	.L26:
 284 00bc D8080000 		.word	ch+2264
 285              		.cfi_endproc
 286              	.LFE301:
 287              		.size	_stats_stop_measure_crit_isr, .-_stats_stop_measure_crit_isr
 288              	.Letext0:
 289              		.file 3 "c:\\chibistudio\\tools\\gnu tools arm embedded\\7.0 2017q4\\lib\\gcc\\arm-none-eabi\\7.2.
 290              		.file 4 "c:\\chibistudio\\tools\\gnu tools arm embedded\\7.0 2017q4\\arm-none-eabi\\include\\machi
 291              		.file 5 "c:\\chibistudio\\tools\\gnu tools arm embedded\\7.0 2017q4\\arm-none-eabi\\include\\sys\\
 292              		.file 6 "../../../ChibiOSRepo/chibios191/os/common/ports/ARMCMx/compilers/GCC/chtypes.h"
 293              		.file 7 "../../../ChibiOSRepo/chibios191/os/rt/include/chsystypes.h"
 294              		.file 8 "../../../ChibiOSRepo/chibios191/os/rt/include/chschd.h"
 295              		.file 9 "../../../ChibiOSRepo/chibios191/os/rt/include/chtime.h"
 296              		.file 10 "../../../ChibiOSRepo/chibios191/os/common/ext/ARM/CMSIS/Core/Include/core_cm4.h"
 297              		.file 11 "../../../ChibiOSRepo/chibios191/os/common/ext/ST/STM32F4xx/system_stm32f4xx.h"
 298              		.file 12 "../../../ChibiOSRepo/chibios191/os/common/ports/ARMCMx/chcore.h"
 299              		.file 13 "../../../ChibiOSRepo/chibios191/os/common/ports/ARMCMx/chcore_v7m.h"
 300              		.file 14 "../../../ChibiOSRepo/chibios191/os/rt/include/chtrace.h"
 301              		.file 15 "../../../ChibiOSRepo/chibios191/os/rt/include/chtm.h"
 302              		.file 16 "../../../ChibiOSRepo/chibios191/os/rt/include/chstats.h"
 303              		.file 17 "../../../ChibiOSRepo/chibios191/os/rt/include/chsem.h"
 304              		.file 18 "../../../ChibiOSRepo/chibios191/os/rt/include/chmtx.h"
 305              		.file 19 "../../../ChibiOSRepo/chibios191/os/rt/include/chsys.h"
 306              		.file 20 "../../../ChibiOSRepo/chibios191/os/rt/include/chregistry.h"
 307              		.file 21 "../../../ChibiOSRepo/chibios191/os/oslib/include/chmemcore.h"
 308              		.file 22 "../../../ChibiOSRepo/chibios191/os/oslib/include/chmempools.h"
 309              		.file 23 "../../../ChibiOSRepo/chibios191/os/oslib/include/chfactory.h"
 310              		.section	.debug_info,"",%progbits
 311              	.Ldebug_info0:
 312 0000 D10D0000 		.4byte	0xdd1
 313 0004 0400     		.2byte	0x4
 314 0006 00000000 		.4byte	.Ldebug_abbrev0
 315 000a 04       		.byte	0x4
 316 000b 01       		.uleb128 0x1
 317 000c 22050000 		.4byte	.LASF186
 318 0010 0C       		.byte	0xc
 319 0011 4E010000 		.4byte	.LASF187
 320 0015 3D030000 		.4byte	.LASF188
 321 0019 00000000 		.4byte	.Ltext0
 322 001d C0000000 		.4byte	.Letext0-.Ltext0
 323 0021 00000000 		.4byte	.Ldebug_line0
 324 0025 02       		.uleb128 0x2
 325 0026 04       		.byte	0x4
 326 0027 05       		.byte	0x5
 327 0028 696E7400 		.ascii	"int\000"
 328 002c 03       		.uleb128 0x3
 329 002d 0D000000 		.4byte	.LASF4
 330 0031 03       		.byte	0x3
 331 0032 D8       		.byte	0xd8
 332 0033 37000000 		.4byte	0x37
 333 0037 04       		.uleb128 0x4
 334 0038 04       		.byte	0x4
 335 0039 07       		.byte	0x7
 336 003a EA020000 		.4byte	.LASF0
 337 003e 04       		.uleb128 0x4
 338 003f 08       		.byte	0x8
ARM GAS  C:\Users\RAKIBU~1\AppData\Local\Temp\ccPGqyJw.s 			page 7


 339 0040 05       		.byte	0x5
 340 0041 82010000 		.4byte	.LASF1
 341 0045 04       		.uleb128 0x4
 342 0046 08       		.byte	0x8
 343 0047 04       		.byte	0x4
 344 0048 E2040000 		.4byte	.LASF2
 345 004c 04       		.uleb128 0x4
 346 004d 01       		.byte	0x1
 347 004e 06       		.byte	0x6
 348 004f 90010000 		.4byte	.LASF3
 349 0053 03       		.uleb128 0x3
 350 0054 3C000000 		.4byte	.LASF5
 351 0058 04       		.byte	0x4
 352 0059 2B       		.byte	0x2b
 353 005a 5E000000 		.4byte	0x5e
 354 005e 04       		.uleb128 0x4
 355 005f 01       		.byte	0x1
 356 0060 08       		.byte	0x8
 357 0061 77060000 		.4byte	.LASF6
 358 0065 04       		.uleb128 0x4
 359 0066 02       		.byte	0x2
 360 0067 05       		.byte	0x5
 361 0068 A8060000 		.4byte	.LASF7
 362 006c 03       		.uleb128 0x3
 363 006d A2070000 		.4byte	.LASF8
 364 0071 04       		.byte	0x4
 365 0072 39       		.byte	0x39
 366 0073 77000000 		.4byte	0x77
 367 0077 04       		.uleb128 0x4
 368 0078 02       		.byte	0x2
 369 0079 07       		.byte	0x7
 370 007a 27080000 		.4byte	.LASF9
 371 007e 03       		.uleb128 0x3
 372 007f 8F070000 		.4byte	.LASF10
 373 0083 04       		.byte	0x4
 374 0084 4D       		.byte	0x4d
 375 0085 89000000 		.4byte	0x89
 376 0089 04       		.uleb128 0x4
 377 008a 04       		.byte	0x4
 378 008b 05       		.byte	0x5
 379 008c 02020000 		.4byte	.LASF11
 380 0090 03       		.uleb128 0x3
 381 0091 74020000 		.4byte	.LASF12
 382 0095 04       		.byte	0x4
 383 0096 4F       		.byte	0x4f
 384 0097 9B000000 		.4byte	0x9b
 385 009b 04       		.uleb128 0x4
 386 009c 04       		.byte	0x4
 387 009d 07       		.byte	0x7
 388 009e 6B070000 		.4byte	.LASF13
 389 00a2 03       		.uleb128 0x3
 390 00a3 F5050000 		.4byte	.LASF14
 391 00a7 04       		.byte	0x4
 392 00a8 69       		.byte	0x69
 393 00a9 AD000000 		.4byte	0xad
 394 00ad 04       		.uleb128 0x4
 395 00ae 08       		.byte	0x8
ARM GAS  C:\Users\RAKIBU~1\AppData\Local\Temp\ccPGqyJw.s 			page 8


 396 00af 07       		.byte	0x7
 397 00b0 B1000000 		.4byte	.LASF15
 398 00b4 03       		.uleb128 0x3
 399 00b5 A1080000 		.4byte	.LASF16
 400 00b9 05       		.byte	0x5
 401 00ba 18       		.byte	0x18
 402 00bb 53000000 		.4byte	0x53
 403 00bf 05       		.uleb128 0x5
 404 00c0 B4000000 		.4byte	0xb4
 405 00c4 03       		.uleb128 0x3
 406 00c5 45020000 		.4byte	.LASF17
 407 00c9 05       		.byte	0x5
 408 00ca 24       		.byte	0x24
 409 00cb 6C000000 		.4byte	0x6c
 410 00cf 03       		.uleb128 0x3
 411 00d0 6F060000 		.4byte	.LASF18
 412 00d4 05       		.byte	0x5
 413 00d5 2C       		.byte	0x2c
 414 00d6 7E000000 		.4byte	0x7e
 415 00da 06       		.uleb128 0x6
 416 00db CF000000 		.4byte	0xcf
 417 00df 03       		.uleb128 0x3
 418 00e0 38070000 		.4byte	.LASF19
 419 00e4 05       		.byte	0x5
 420 00e5 30       		.byte	0x30
 421 00e6 90000000 		.4byte	0x90
 422 00ea 03       		.uleb128 0x3
 423 00eb 26000000 		.4byte	.LASF20
 424 00ef 05       		.byte	0x5
 425 00f0 3C       		.byte	0x3c
 426 00f1 A2000000 		.4byte	0xa2
 427 00f5 03       		.uleb128 0x3
 428 00f6 B0040000 		.4byte	.LASF21
 429 00fa 06       		.byte	0x6
 430 00fb 27       		.byte	0x27
 431 00fc DF000000 		.4byte	0xdf
 432 0100 03       		.uleb128 0x3
 433 0101 45010000 		.4byte	.LASF22
 434 0105 06       		.byte	0x6
 435 0106 28       		.byte	0x28
 436 0107 EA000000 		.4byte	0xea
 437 010b 03       		.uleb128 0x3
 438 010c 0F040000 		.4byte	.LASF23
 439 0110 06       		.byte	0x6
 440 0111 2A       		.byte	0x2a
 441 0112 B4000000 		.4byte	0xb4
 442 0116 03       		.uleb128 0x3
 443 0117 15020000 		.4byte	.LASF24
 444 011b 06       		.byte	0x6
 445 011c 2B       		.byte	0x2b
 446 011d B4000000 		.4byte	0xb4
 447 0121 03       		.uleb128 0x3
 448 0122 22060000 		.4byte	.LASF25
 449 0126 06       		.byte	0x6
 450 0127 2C       		.byte	0x2c
 451 0128 B4000000 		.4byte	0xb4
 452 012c 03       		.uleb128 0x3
ARM GAS  C:\Users\RAKIBU~1\AppData\Local\Temp\ccPGqyJw.s 			page 9


 453 012d 4F060000 		.4byte	.LASF26
 454 0131 06       		.byte	0x6
 455 0132 2E       		.byte	0x2e
 456 0133 DF000000 		.4byte	0xdf
 457 0137 03       		.uleb128 0x3
 458 0138 DA030000 		.4byte	.LASF27
 459 013c 06       		.byte	0x6
 460 013d 2F       		.byte	0x2f
 461 013e CF000000 		.4byte	0xcf
 462 0142 03       		.uleb128 0x3
 463 0143 30040000 		.4byte	.LASF28
 464 0147 06       		.byte	0x6
 465 0148 31       		.byte	0x31
 466 0149 DF000000 		.4byte	0xdf
 467 014d 03       		.uleb128 0x3
 468 014e DB020000 		.4byte	.LASF29
 469 0152 06       		.byte	0x6
 470 0153 33       		.byte	0x33
 471 0154 CF000000 		.4byte	0xcf
 472 0158 03       		.uleb128 0x3
 473 0159 E0030000 		.4byte	.LASF30
 474 015d 06       		.byte	0x6
 475 015e 34       		.byte	0x34
 476 015f DF000000 		.4byte	0xdf
 477 0163 03       		.uleb128 0x3
 478 0164 C2070000 		.4byte	.LASF31
 479 0168 07       		.byte	0x7
 480 0169 34       		.byte	0x34
 481 016a 6E010000 		.4byte	0x16e
 482 016e 07       		.uleb128 0x7
 483 016f D0030000 		.4byte	.LASF50
 484 0173 60       		.byte	0x60
 485 0174 08       		.byte	0x8
 486 0175 8E       		.byte	0x8e
 487 0176 59020000 		.4byte	0x259
 488 017a 08       		.uleb128 0x8
 489 017b 31030000 		.4byte	.LASF32
 490 017f 08       		.byte	0x8
 491 0180 8F       		.byte	0x8f
 492 0181 8E020000 		.4byte	0x28e
 493 0185 00       		.byte	0
 494 0186 08       		.uleb128 0x8
 495 0187 BC050000 		.4byte	.LASF33
 496 018b 08       		.byte	0x8
 497 018c 90       		.byte	0x90
 498 018d 2C010000 		.4byte	0x12c
 499 0191 08       		.byte	0x8
 500 0192 09       		.uleb128 0x9
 501 0193 63747800 		.ascii	"ctx\000"
 502 0197 08       		.byte	0x8
 503 0198 91       		.byte	0x91
 504 0199 25050000 		.4byte	0x525
 505 019d 0C       		.byte	0xc
 506 019e 08       		.uleb128 0x8
 507 019f 74040000 		.4byte	.LASF34
 508 01a3 08       		.byte	0x8
 509 01a4 93       		.byte	0x93
ARM GAS  C:\Users\RAKIBU~1\AppData\Local\Temp\ccPGqyJw.s 			page 10


 510 01a5 64020000 		.4byte	0x264
 511 01a9 10       		.byte	0x10
 512 01aa 08       		.uleb128 0x8
 513 01ab 89070000 		.4byte	.LASF35
 514 01af 08       		.byte	0x8
 515 01b0 94       		.byte	0x94
 516 01b1 64020000 		.4byte	0x264
 517 01b5 14       		.byte	0x14
 518 01b6 08       		.uleb128 0x8
 519 01b7 CB030000 		.4byte	.LASF36
 520 01bb 08       		.byte	0x8
 521 01bc 9B       		.byte	0x9b
 522 01bd F5050000 		.4byte	0x5f5
 523 01c1 18       		.byte	0x18
 524 01c2 08       		.uleb128 0x8
 525 01c3 7D070000 		.4byte	.LASF37
 526 01c7 08       		.byte	0x8
 527 01c8 A4       		.byte	0xa4
 528 01c9 A4080000 		.4byte	0x8a4
 529 01cd 1C       		.byte	0x1c
 530 01ce 08       		.uleb128 0x8
 531 01cf E7010000 		.4byte	.LASF38
 532 01d3 08       		.byte	0x8
 533 01d4 A9       		.byte	0xa9
 534 01d5 16010000 		.4byte	0x116
 535 01d9 20       		.byte	0x20
 536 01da 08       		.uleb128 0x8
 537 01db A9080000 		.4byte	.LASF39
 538 01df 08       		.byte	0x8
 539 01e0 AD       		.byte	0xad
 540 01e1 0B010000 		.4byte	0x10b
 541 01e5 21       		.byte	0x21
 542 01e6 08       		.uleb128 0x8
 543 01e7 35060000 		.4byte	.LASF40
 544 01eb 08       		.byte	0x8
 545 01ec B2       		.byte	0xb2
 546 01ed 21010000 		.4byte	0x121
 547 01f1 22       		.byte	0x22
 548 01f2 0A       		.uleb128 0xa
 549 01f3 7500     		.ascii	"u\000"
 550 01f5 08       		.byte	0x8
 551 01f6 0301     		.2byte	0x103
 552 01f8 DA070000 		.4byte	0x7da
 553 01fc 24       		.byte	0x24
 554 01fd 0B       		.uleb128 0xb
 555 01fe A1020000 		.4byte	.LASF41
 556 0202 08       		.byte	0x8
 557 0203 0801     		.2byte	0x108
 558 0205 6A020000 		.4byte	0x26a
 559 0209 28       		.byte	0x28
 560 020a 0B       		.uleb128 0xb
 561 020b E1020000 		.4byte	.LASF42
 562 020f 08       		.byte	0x8
 563 0210 0E01     		.2byte	0x10e
 564 0212 8E020000 		.4byte	0x28e
 565 0216 2C       		.byte	0x2c
 566 0217 0B       		.uleb128 0xb
ARM GAS  C:\Users\RAKIBU~1\AppData\Local\Temp\ccPGqyJw.s 			page 11


 567 0218 E7030000 		.4byte	.LASF43
 568 021c 08       		.byte	0x8
 569 021d 1401     		.2byte	0x114
 570 021f 42010000 		.4byte	0x142
 571 0223 34       		.byte	0x34
 572 0224 0B       		.uleb128 0xb
 573 0225 39090000 		.4byte	.LASF44
 574 0229 08       		.byte	0x8
 575 022a 1B01     		.2byte	0x11b
 576 022c 9E080000 		.4byte	0x89e
 577 0230 38       		.byte	0x38
 578 0231 0B       		.uleb128 0xb
 579 0232 82040000 		.4byte	.LASF45
 580 0236 08       		.byte	0x8
 581 0237 1F01     		.2byte	0x11f
 582 0239 2C010000 		.4byte	0x12c
 583 023d 3C       		.byte	0x3c
 584 023e 0B       		.uleb128 0xb
 585 023f 37030000 		.4byte	.LASF46
 586 0243 08       		.byte	0x8
 587 0244 2601     		.2byte	0x126
 588 0246 41030000 		.4byte	0x341
 589 024a 40       		.byte	0x40
 590 024b 0B       		.uleb128 0xb
 591 024c 34020000 		.4byte	.LASF47
 592 0250 08       		.byte	0x8
 593 0251 2C01     		.2byte	0x12c
 594 0253 8B070000 		.4byte	0x78b
 595 0257 48       		.byte	0x48
 596 0258 00       		.byte	0
 597 0259 03       		.uleb128 0x3
 598 025a B8040000 		.4byte	.LASF48
 599 025e 07       		.byte	0x7
 600 025f 39       		.byte	0x39
 601 0260 64020000 		.4byte	0x264
 602 0264 0C       		.uleb128 0xc
 603 0265 04       		.byte	0x4
 604 0266 63010000 		.4byte	0x163
 605 026a 03       		.uleb128 0x3
 606 026b CE080000 		.4byte	.LASF49
 607 026f 07       		.byte	0x7
 608 0270 3E       		.byte	0x3e
 609 0271 75020000 		.4byte	0x275
 610 0275 07       		.uleb128 0x7
 611 0276 55070000 		.4byte	.LASF51
 612 027a 04       		.byte	0x4
 613 027b 08       		.byte	0x8
 614 027c 7C       		.byte	0x7c
 615 027d 8E020000 		.4byte	0x28e
 616 0281 08       		.uleb128 0x8
 617 0282 14000000 		.4byte	.LASF52
 618 0286 08       		.byte	0x8
 619 0287 7D       		.byte	0x7d
 620 0288 64020000 		.4byte	0x264
 621 028c 00       		.byte	0
 622 028d 00       		.byte	0
 623 028e 03       		.uleb128 0x3
ARM GAS  C:\Users\RAKIBU~1\AppData\Local\Temp\ccPGqyJw.s 			page 12


 624 028f 74080000 		.4byte	.LASF53
 625 0293 07       		.byte	0x7
 626 0294 45       		.byte	0x45
 627 0295 99020000 		.4byte	0x299
 628 0299 07       		.uleb128 0x7
 629 029a 57000000 		.4byte	.LASF54
 630 029e 08       		.byte	0x8
 631 029f 08       		.byte	0x8
 632 02a0 83       		.byte	0x83
 633 02a1 BE020000 		.4byte	0x2be
 634 02a5 08       		.uleb128 0x8
 635 02a6 14000000 		.4byte	.LASF52
 636 02aa 08       		.byte	0x8
 637 02ab 84       		.byte	0x84
 638 02ac 64020000 		.4byte	0x264
 639 02b0 00       		.byte	0
 640 02b1 08       		.uleb128 0x8
 641 02b2 46000000 		.4byte	.LASF55
 642 02b6 08       		.byte	0x8
 643 02b7 85       		.byte	0x85
 644 02b8 64020000 		.4byte	0x264
 645 02bc 04       		.byte	0x4
 646 02bd 00       		.byte	0
 647 02be 03       		.uleb128 0x3
 648 02bf 00000000 		.4byte	.LASF56
 649 02c3 07       		.byte	0x7
 650 02c4 4C       		.byte	0x4c
 651 02c5 C9020000 		.4byte	0x2c9
 652 02c9 0D       		.uleb128 0xd
 653 02ca 22040000 		.4byte	.LASF57
 654 02ce 1C       		.byte	0x1c
 655 02cf 08       		.byte	0x8
 656 02d0 5E01     		.2byte	0x15e
 657 02d2 25030000 		.4byte	0x325
 658 02d6 0B       		.uleb128 0xb
 659 02d7 31030000 		.4byte	.LASF32
 660 02db 08       		.byte	0x8
 661 02dc 5F01     		.2byte	0x15f
 662 02de 8E020000 		.4byte	0x28e
 663 02e2 00       		.byte	0
 664 02e3 0B       		.uleb128 0xb
 665 02e4 BC050000 		.4byte	.LASF33
 666 02e8 08       		.byte	0x8
 667 02e9 6001     		.2byte	0x160
 668 02eb 2C010000 		.4byte	0x12c
 669 02ef 08       		.byte	0x8
 670 02f0 0A       		.uleb128 0xa
 671 02f1 63747800 		.ascii	"ctx\000"
 672 02f5 08       		.byte	0x8
 673 02f6 6201     		.2byte	0x162
 674 02f8 25050000 		.4byte	0x525
 675 02fc 0C       		.byte	0xc
 676 02fd 0B       		.uleb128 0xb
 677 02fe 74040000 		.4byte	.LASF34
 678 0302 08       		.byte	0x8
 679 0303 6501     		.2byte	0x165
 680 0305 64020000 		.4byte	0x264
ARM GAS  C:\Users\RAKIBU~1\AppData\Local\Temp\ccPGqyJw.s 			page 13


 681 0309 10       		.byte	0x10
 682 030a 0B       		.uleb128 0xb
 683 030b 89070000 		.4byte	.LASF35
 684 030f 08       		.byte	0x8
 685 0310 6601     		.2byte	0x166
 686 0312 64020000 		.4byte	0x264
 687 0316 14       		.byte	0x14
 688 0317 0B       		.uleb128 0xb
 689 0318 E8050000 		.4byte	.LASF58
 690 031c 08       		.byte	0x8
 691 031d 6901     		.2byte	0x169
 692 031f 64020000 		.4byte	0x264
 693 0323 18       		.byte	0x18
 694 0324 00       		.byte	0
 695 0325 03       		.uleb128 0x3
 696 0326 E5070000 		.4byte	.LASF59
 697 032a 07       		.byte	0x7
 698 032b 51       		.byte	0x51
 699 032c 30030000 		.4byte	0x330
 700 0330 0C       		.uleb128 0xc
 701 0331 04       		.byte	0x4
 702 0332 36030000 		.4byte	0x336
 703 0336 0E       		.uleb128 0xe
 704 0337 41030000 		.4byte	0x341
 705 033b 0F       		.uleb128 0xf
 706 033c 41030000 		.4byte	0x341
 707 0340 00       		.byte	0
 708 0341 10       		.uleb128 0x10
 709 0342 04       		.byte	0x4
 710 0343 03       		.uleb128 0x3
 711 0344 3A060000 		.4byte	.LASF60
 712 0348 07       		.byte	0x7
 713 0349 56       		.byte	0x56
 714 034a 4E030000 		.4byte	0x34e
 715 034e 0D       		.uleb128 0xd
 716 034f EC060000 		.4byte	.LASF61
 717 0353 18       		.byte	0x18
 718 0354 08       		.byte	0x8
 719 0355 3901     		.2byte	0x139
 720 0357 9D030000 		.4byte	0x39d
 721 035b 0B       		.uleb128 0xb
 722 035c 14000000 		.4byte	.LASF52
 723 0360 08       		.byte	0x8
 724 0361 3A01     		.2byte	0x13a
 725 0363 AA080000 		.4byte	0x8aa
 726 0367 00       		.byte	0
 727 0368 0B       		.uleb128 0xb
 728 0369 46000000 		.4byte	.LASF55
 729 036d 08       		.byte	0x8
 730 036e 3B01     		.2byte	0x13b
 731 0370 AA080000 		.4byte	0x8aa
 732 0374 04       		.byte	0x4
 733 0375 0B       		.uleb128 0xb
 734 0376 19000000 		.4byte	.LASF62
 735 037a 08       		.byte	0x8
 736 037b 3C01     		.2byte	0x13c
 737 037d AD040000 		.4byte	0x4ad
ARM GAS  C:\Users\RAKIBU~1\AppData\Local\Temp\ccPGqyJw.s 			page 14


 738 0381 08       		.byte	0x8
 739 0382 0B       		.uleb128 0xb
 740 0383 2F020000 		.4byte	.LASF63
 741 0387 08       		.byte	0x8
 742 0388 3D01     		.2byte	0x13d
 743 038a 25030000 		.4byte	0x325
 744 038e 10       		.byte	0x10
 745 038f 0A       		.uleb128 0xa
 746 0390 70617200 		.ascii	"par\000"
 747 0394 08       		.byte	0x8
 748 0395 3F01     		.2byte	0x13f
 749 0397 41030000 		.4byte	0x341
 750 039b 14       		.byte	0x14
 751 039c 00       		.byte	0
 752 039d 03       		.uleb128 0x3
 753 039e 0C010000 		.4byte	.LASF64
 754 03a2 07       		.byte	0x7
 755 03a3 5B       		.byte	0x5b
 756 03a4 A8030000 		.4byte	0x3a8
 757 03a8 0D       		.uleb128 0xd
 758 03a9 CB040000 		.4byte	.LASF65
 759 03ad 18       		.byte	0x18
 760 03ae 08       		.byte	0x8
 761 03af 4901     		.2byte	0x149
 762 03b1 EA030000 		.4byte	0x3ea
 763 03b5 0B       		.uleb128 0xb
 764 03b6 14000000 		.4byte	.LASF52
 765 03ba 08       		.byte	0x8
 766 03bb 4A01     		.2byte	0x14a
 767 03bd AA080000 		.4byte	0x8aa
 768 03c1 00       		.byte	0
 769 03c2 0B       		.uleb128 0xb
 770 03c3 46000000 		.4byte	.LASF55
 771 03c7 08       		.byte	0x8
 772 03c8 4C01     		.2byte	0x14c
 773 03ca AA080000 		.4byte	0x8aa
 774 03ce 04       		.byte	0x4
 775 03cf 0B       		.uleb128 0xb
 776 03d0 19000000 		.4byte	.LASF62
 777 03d4 08       		.byte	0x8
 778 03d5 4E01     		.2byte	0x14e
 779 03d7 AD040000 		.4byte	0x4ad
 780 03db 08       		.byte	0x8
 781 03dc 0B       		.uleb128 0xb
 782 03dd B2060000 		.4byte	.LASF66
 783 03e1 08       		.byte	0x8
 784 03e2 5601     		.2byte	0x156
 785 03e4 A2040000 		.4byte	0x4a2
 786 03e8 10       		.byte	0x10
 787 03e9 00       		.byte	0
 788 03ea 03       		.uleb128 0x3
 789 03eb 68000000 		.4byte	.LASF67
 790 03ef 07       		.byte	0x7
 791 03f0 60       		.byte	0x60
 792 03f1 F5030000 		.4byte	0x3f5
 793 03f5 11       		.uleb128 0x11
 794 03f6 91020000 		.4byte	.LASF68
ARM GAS  C:\Users\RAKIBU~1\AppData\Local\Temp\ccPGqyJw.s 			page 15


 795 03fa 1408     		.2byte	0x814
 796 03fc 08       		.byte	0x8
 797 03fd 7001     		.2byte	0x170
 798 03ff 38040000 		.4byte	0x438
 799 0403 0B       		.uleb128 0xb
 800 0404 03080000 		.4byte	.LASF69
 801 0408 08       		.byte	0x8
 802 0409 7801     		.2byte	0x178
 803 040b FB050000 		.4byte	0x5fb
 804 040f 00       		.byte	0
 805 0410 0B       		.uleb128 0xb
 806 0411 90080000 		.4byte	.LASF70
 807 0415 08       		.byte	0x8
 808 0416 7D01     		.2byte	0x17d
 809 0418 4D010000 		.4byte	0x14d
 810 041c 04       		.byte	0x4
 811 041d 0B       		.uleb128 0xb
 812 041e C4020000 		.4byte	.LASF71
 813 0422 08       		.byte	0x8
 814 0423 8101     		.2byte	0x181
 815 0425 4D010000 		.4byte	0x14d
 816 0429 08       		.byte	0x8
 817 042a 0B       		.uleb128 0xb
 818 042b E7080000 		.4byte	.LASF72
 819 042f 08       		.byte	0x8
 820 0430 8701     		.2byte	0x187
 821 0432 1D070000 		.4byte	0x71d
 822 0436 0C       		.byte	0xc
 823 0437 00       		.byte	0
 824 0438 03       		.uleb128 0x3
 825 0439 FB030000 		.4byte	.LASF73
 826 043d 07       		.byte	0x7
 827 043e 65       		.byte	0x65
 828 043f 43040000 		.4byte	0x443
 829 0443 11       		.uleb128 0x11
 830 0444 C7060000 		.4byte	.LASF74
 831 0448 F008     		.2byte	0x8f0
 832 044a 08       		.byte	0x8
 833 044b 9001     		.2byte	0x190
 834 044d A2040000 		.4byte	0x4a2
 835 0451 0B       		.uleb128 0xb
 836 0452 B0010000 		.4byte	.LASF75
 837 0456 08       		.byte	0x8
 838 0457 9401     		.2byte	0x194
 839 0459 BE020000 		.4byte	0x2be
 840 045d 00       		.byte	0
 841 045e 0B       		.uleb128 0xb
 842 045f BE010000 		.4byte	.LASF76
 843 0463 08       		.byte	0x8
 844 0464 9801     		.2byte	0x198
 845 0466 9D030000 		.4byte	0x39d
 846 046a 20       		.byte	0x20
 847 046b 0A       		.uleb128 0xa
 848 046c 64626700 		.ascii	"dbg\000"
 849 0470 08       		.byte	0x8
 850 0471 9C01     		.2byte	0x19c
 851 0473 EA030000 		.4byte	0x3ea
ARM GAS  C:\Users\RAKIBU~1\AppData\Local\Temp\ccPGqyJw.s 			page 16


 852 0477 38       		.byte	0x38
 853 0478 12       		.uleb128 0x12
 854 0479 E3000000 		.4byte	.LASF77
 855 047d 08       		.byte	0x8
 856 047e A001     		.2byte	0x1a0
 857 0480 63010000 		.4byte	0x163
 858 0484 5008     		.2byte	0x850
 859 0486 13       		.uleb128 0x13
 860 0487 746D00   		.ascii	"tm\000"
 861 048a 08       		.byte	0x8
 862 048b A501     		.2byte	0x1a5
 863 048d 3D070000 		.4byte	0x73d
 864 0491 B008     		.2byte	0x8b0
 865 0493 12       		.uleb128 0x12
 866 0494 2F000000 		.4byte	.LASF78
 867 0498 08       		.byte	0x8
 868 0499 AB01     		.2byte	0x1ab
 869 049b CF070000 		.4byte	0x7cf
 870 049f B808     		.2byte	0x8b8
 871 04a1 00       		.byte	0
 872 04a2 03       		.uleb128 0x3
 873 04a3 DB070000 		.4byte	.LASF79
 874 04a7 09       		.byte	0x9
 875 04a8 6D       		.byte	0x6d
 876 04a9 DF000000 		.4byte	0xdf
 877 04ad 03       		.uleb128 0x3
 878 04ae CD020000 		.4byte	.LASF80
 879 04b2 09       		.byte	0x9
 880 04b3 77       		.byte	0x77
 881 04b4 EA000000 		.4byte	0xea
 882 04b8 14       		.uleb128 0x14
 883 04b9 9B060000 		.4byte	.LASF81
 884 04bd 0A       		.byte	0xa
 885 04be 0408     		.2byte	0x804
 886 04c0 DA000000 		.4byte	0xda
 887 04c4 15       		.uleb128 0x15
 888 04c5 F7020000 		.4byte	.LASF82
 889 04c9 0B       		.byte	0xb
 890 04ca 4C       		.byte	0x4c
 891 04cb DF000000 		.4byte	0xdf
 892 04cf 16       		.uleb128 0x16
 893 04d0 BF000000 		.4byte	0xbf
 894 04d4 DF040000 		.4byte	0x4df
 895 04d8 17       		.uleb128 0x17
 896 04d9 37000000 		.4byte	0x37
 897 04dd 0F       		.byte	0xf
 898 04de 00       		.byte	0
 899 04df 05       		.uleb128 0x5
 900 04e0 CF040000 		.4byte	0x4cf
 901 04e4 15       		.uleb128 0x15
 902 04e5 3C040000 		.4byte	.LASF83
 903 04e9 0B       		.byte	0xb
 904 04ea 4E       		.byte	0x4e
 905 04eb DF040000 		.4byte	0x4df
 906 04ef 16       		.uleb128 0x16
 907 04f0 BF000000 		.4byte	0xbf
 908 04f4 FF040000 		.4byte	0x4ff
ARM GAS  C:\Users\RAKIBU~1\AppData\Local\Temp\ccPGqyJw.s 			page 17


 909 04f8 17       		.uleb128 0x17
 910 04f9 37000000 		.4byte	0x37
 911 04fd 07       		.byte	0x7
 912 04fe 00       		.byte	0
 913 04ff 05       		.uleb128 0x5
 914 0500 EF040000 		.4byte	0x4ef
 915 0504 15       		.uleb128 0x15
 916 0505 A9020000 		.4byte	.LASF84
 917 0509 0B       		.byte	0xb
 918 050a 4F       		.byte	0x4f
 919 050b FF040000 		.4byte	0x4ff
 920 050f 03       		.uleb128 0x3
 921 0510 7F020000 		.4byte	.LASF85
 922 0514 0C       		.byte	0xc
 923 0515 65       		.byte	0x65
 924 0516 41030000 		.4byte	0x341
 925 051a 03       		.uleb128 0x3
 926 051b 69040000 		.4byte	.LASF86
 927 051f 0C       		.byte	0xc
 928 0520 6D       		.byte	0x6d
 929 0521 EA000000 		.4byte	0xea
 930 0525 07       		.uleb128 0x7
 931 0526 04050000 		.4byte	.LASF87
 932 052a 04       		.byte	0x4
 933 052b 0C       		.byte	0xc
 934 052c 89       		.byte	0x89
 935 052d 3D050000 		.4byte	0x53d
 936 0531 09       		.uleb128 0x9
 937 0532 737000   		.ascii	"sp\000"
 938 0535 0C       		.byte	0xc
 939 0536 8A       		.byte	0x8a
 940 0537 B9050000 		.4byte	0x5b9
 941 053b 00       		.byte	0
 942 053c 00       		.byte	0
 943 053d 0D       		.uleb128 0xd
 944 053e 4B000000 		.4byte	.LASF88
 945 0542 24       		.byte	0x24
 946 0543 0D       		.byte	0xd
 947 0544 6001     		.2byte	0x160
 948 0546 B9050000 		.4byte	0x5b9
 949 054a 0A       		.uleb128 0xa
 950 054b 723400   		.ascii	"r4\000"
 951 054e 0D       		.byte	0xd
 952 054f 7301     		.2byte	0x173
 953 0551 0F050000 		.4byte	0x50f
 954 0555 00       		.byte	0
 955 0556 0A       		.uleb128 0xa
 956 0557 723500   		.ascii	"r5\000"
 957 055a 0D       		.byte	0xd
 958 055b 7401     		.2byte	0x174
 959 055d 0F050000 		.4byte	0x50f
 960 0561 04       		.byte	0x4
 961 0562 0A       		.uleb128 0xa
 962 0563 723600   		.ascii	"r6\000"
 963 0566 0D       		.byte	0xd
 964 0567 7501     		.2byte	0x175
 965 0569 0F050000 		.4byte	0x50f
ARM GAS  C:\Users\RAKIBU~1\AppData\Local\Temp\ccPGqyJw.s 			page 18


 966 056d 08       		.byte	0x8
 967 056e 0A       		.uleb128 0xa
 968 056f 723700   		.ascii	"r7\000"
 969 0572 0D       		.byte	0xd
 970 0573 7601     		.2byte	0x176
 971 0575 0F050000 		.4byte	0x50f
 972 0579 0C       		.byte	0xc
 973 057a 0A       		.uleb128 0xa
 974 057b 723800   		.ascii	"r8\000"
 975 057e 0D       		.byte	0xd
 976 057f 7701     		.2byte	0x177
 977 0581 0F050000 		.4byte	0x50f
 978 0585 10       		.byte	0x10
 979 0586 0A       		.uleb128 0xa
 980 0587 723900   		.ascii	"r9\000"
 981 058a 0D       		.byte	0xd
 982 058b 7801     		.2byte	0x178
 983 058d 0F050000 		.4byte	0x50f
 984 0591 14       		.byte	0x14
 985 0592 0A       		.uleb128 0xa
 986 0593 72313000 		.ascii	"r10\000"
 987 0597 0D       		.byte	0xd
 988 0598 7901     		.2byte	0x179
 989 059a 0F050000 		.4byte	0x50f
 990 059e 18       		.byte	0x18
 991 059f 0A       		.uleb128 0xa
 992 05a0 72313100 		.ascii	"r11\000"
 993 05a4 0D       		.byte	0xd
 994 05a5 7A01     		.2byte	0x17a
 995 05a7 0F050000 		.4byte	0x50f
 996 05ab 1C       		.byte	0x1c
 997 05ac 0A       		.uleb128 0xa
 998 05ad 6C7200   		.ascii	"lr\000"
 999 05b0 0D       		.byte	0xd
 1000 05b1 7B01     		.2byte	0x17b
 1001 05b3 0F050000 		.4byte	0x50f
 1002 05b7 20       		.byte	0x20
 1003 05b8 00       		.byte	0
 1004 05b9 0C       		.uleb128 0xc
 1005 05ba 04       		.byte	0x4
 1006 05bb 3D050000 		.4byte	0x53d
 1007 05bf 18       		.uleb128 0x18
 1008 05c0 08       		.byte	0x8
 1009 05c1 0E       		.byte	0xe
 1010 05c2 7F       		.byte	0x7f
 1011 05c3 E0050000 		.4byte	0x5e0
 1012 05c7 09       		.uleb128 0x9
 1013 05c8 6E747000 		.ascii	"ntp\000"
 1014 05cc 0E       		.byte	0xe
 1015 05cd 83       		.byte	0x83
 1016 05ce 64020000 		.4byte	0x264
 1017 05d2 00       		.byte	0
 1018 05d3 08       		.uleb128 0x8
 1019 05d4 C7080000 		.4byte	.LASF89
 1020 05d8 0E       		.byte	0xe
 1021 05d9 87       		.byte	0x87
 1022 05da 41030000 		.4byte	0x341
ARM GAS  C:\Users\RAKIBU~1\AppData\Local\Temp\ccPGqyJw.s 			page 19


 1023 05de 04       		.byte	0x4
 1024 05df 00       		.byte	0
 1025 05e0 18       		.uleb128 0x18
 1026 05e1 04       		.byte	0x4
 1027 05e2 0E       		.byte	0xe
 1028 05e3 8C       		.byte	0x8c
 1029 05e4 F5050000 		.4byte	0x5f5
 1030 05e8 08       		.uleb128 0x8
 1031 05e9 CB030000 		.4byte	.LASF36
 1032 05ed 0E       		.byte	0xe
 1033 05ee 90       		.byte	0x90
 1034 05ef F5050000 		.4byte	0x5f5
 1035 05f3 00       		.byte	0
 1036 05f4 00       		.byte	0
 1037 05f5 0C       		.uleb128 0xc
 1038 05f6 04       		.byte	0x4
 1039 05f7 07060000 		.4byte	0x607
 1040 05fb 06       		.uleb128 0x6
 1041 05fc F5050000 		.4byte	0x5f5
 1042 0600 04       		.uleb128 0x4
 1043 0601 01       		.byte	0x1
 1044 0602 08       		.byte	0x8
 1045 0603 84070000 		.4byte	.LASF90
 1046 0607 05       		.uleb128 0x5
 1047 0608 00060000 		.4byte	0x600
 1048 060c 18       		.uleb128 0x18
 1049 060d 04       		.byte	0x4
 1050 060e 0E       		.byte	0xe
 1051 060f 95       		.byte	0x95
 1052 0610 21060000 		.4byte	0x621
 1053 0614 08       		.uleb128 0x8
 1054 0615 E5060000 		.4byte	.LASF91
 1055 0619 0E       		.byte	0xe
 1056 061a 99       		.byte	0x99
 1057 061b F5050000 		.4byte	0x5f5
 1058 061f 00       		.byte	0
 1059 0620 00       		.byte	0
 1060 0621 18       		.uleb128 0x18
 1061 0622 08       		.byte	0x8
 1062 0623 0E       		.byte	0xe
 1063 0624 9E       		.byte	0x9e
 1064 0625 42060000 		.4byte	0x642
 1065 0629 09       		.uleb128 0x9
 1066 062a 75703100 		.ascii	"up1\000"
 1067 062e 0E       		.byte	0xe
 1068 062f A2       		.byte	0xa2
 1069 0630 41030000 		.4byte	0x341
 1070 0634 00       		.byte	0
 1071 0635 09       		.uleb128 0x9
 1072 0636 75703200 		.ascii	"up2\000"
 1073 063a 0E       		.byte	0xe
 1074 063b A6       		.byte	0xa6
 1075 063c 41030000 		.4byte	0x341
 1076 0640 04       		.byte	0x4
 1077 0641 00       		.byte	0
 1078 0642 19       		.uleb128 0x19
 1079 0643 08       		.byte	0x8
ARM GAS  C:\Users\RAKIBU~1\AppData\Local\Temp\ccPGqyJw.s 			page 20


 1080 0644 0E       		.byte	0xe
 1081 0645 7B       		.byte	0x7b
 1082 0646 76060000 		.4byte	0x676
 1083 064a 1A       		.uleb128 0x1a
 1084 064b 737700   		.ascii	"sw\000"
 1085 064e 0E       		.byte	0xe
 1086 064f 88       		.byte	0x88
 1087 0650 BF050000 		.4byte	0x5bf
 1088 0654 1A       		.uleb128 0x1a
 1089 0655 69737200 		.ascii	"isr\000"
 1090 0659 0E       		.byte	0xe
 1091 065a 91       		.byte	0x91
 1092 065b E0050000 		.4byte	0x5e0
 1093 065f 1B       		.uleb128 0x1b
 1094 0660 BB060000 		.4byte	.LASF92
 1095 0664 0E       		.byte	0xe
 1096 0665 9A       		.byte	0x9a
 1097 0666 0C060000 		.4byte	0x60c
 1098 066a 1B       		.uleb128 0x1b
 1099 066b 4A060000 		.4byte	.LASF93
 1100 066f 0E       		.byte	0xe
 1101 0670 A7       		.byte	0xa7
 1102 0671 21060000 		.4byte	0x621
 1103 0675 00       		.byte	0
 1104 0676 18       		.uleb128 0x18
 1105 0677 10       		.byte	0x10
 1106 0678 0E       		.byte	0xe
 1107 0679 68       		.byte	0x68
 1108 067a C2060000 		.4byte	0x6c2
 1109 067e 1C       		.uleb128 0x1c
 1110 067f 80000000 		.4byte	.LASF94
 1111 0683 0E       		.byte	0xe
 1112 0684 6C       		.byte	0x6c
 1113 0685 DF000000 		.4byte	0xdf
 1114 0689 04       		.byte	0x4
 1115 068a 03       		.byte	0x3
 1116 068b 1D       		.byte	0x1d
 1117 068c 00       		.byte	0
 1118 068d 1C       		.uleb128 0x1c
 1119 068e E7010000 		.4byte	.LASF38
 1120 0692 0E       		.byte	0xe
 1121 0693 70       		.byte	0x70
 1122 0694 DF000000 		.4byte	0xdf
 1123 0698 04       		.byte	0x4
 1124 0699 05       		.byte	0x5
 1125 069a 18       		.byte	0x18
 1126 069b 00       		.byte	0
 1127 069c 1C       		.uleb128 0x1c
 1128 069d 7A040000 		.4byte	.LASF95
 1129 06a1 0E       		.byte	0xe
 1130 06a2 76       		.byte	0x76
 1131 06a3 DF000000 		.4byte	0xdf
 1132 06a7 04       		.byte	0x4
 1133 06a8 18       		.byte	0x18
 1134 06a9 00       		.byte	0
 1135 06aa 00       		.byte	0
 1136 06ab 08       		.uleb128 0x8
ARM GAS  C:\Users\RAKIBU~1\AppData\Local\Temp\ccPGqyJw.s 			page 21


 1137 06ac B7050000 		.4byte	.LASF96
 1138 06b0 0E       		.byte	0xe
 1139 06b1 7A       		.byte	0x7a
 1140 06b2 A2040000 		.4byte	0x4a2
 1141 06b6 04       		.byte	0x4
 1142 06b7 09       		.uleb128 0x9
 1143 06b8 7500     		.ascii	"u\000"
 1144 06ba 0E       		.byte	0xe
 1145 06bb A8       		.byte	0xa8
 1146 06bc 42060000 		.4byte	0x642
 1147 06c0 08       		.byte	0x8
 1148 06c1 00       		.byte	0
 1149 06c2 03       		.uleb128 0x3
 1150 06c3 1E020000 		.4byte	.LASF97
 1151 06c7 0E       		.byte	0xe
 1152 06c8 A9       		.byte	0xa9
 1153 06c9 76060000 		.4byte	0x676
 1154 06cd 1D       		.uleb128 0x1d
 1155 06ce 0808     		.2byte	0x808
 1156 06d0 0E       		.byte	0xe
 1157 06d1 AF       		.byte	0xaf
 1158 06d2 07070000 		.4byte	0x707
 1159 06d6 08       		.uleb128 0x8
 1160 06d7 0B020000 		.4byte	.LASF98
 1161 06db 0E       		.byte	0xe
 1162 06dc B3       		.byte	0xb3
 1163 06dd C4000000 		.4byte	0xc4
 1164 06e1 00       		.byte	0
 1165 06e2 08       		.uleb128 0x8
 1166 06e3 AB010000 		.4byte	.LASF99
 1167 06e7 0E       		.byte	0xe
 1168 06e8 B7       		.byte	0xb7
 1169 06e9 C4000000 		.4byte	0xc4
 1170 06ed 02       		.byte	0x2
 1171 06ee 09       		.uleb128 0x9
 1172 06ef 70747200 		.ascii	"ptr\000"
 1173 06f3 0E       		.byte	0xe
 1174 06f4 BB       		.byte	0xbb
 1175 06f5 07070000 		.4byte	0x707
 1176 06f9 04       		.byte	0x4
 1177 06fa 08       		.uleb128 0x8
 1178 06fb 64020000 		.4byte	.LASF100
 1179 06ff 0E       		.byte	0xe
 1180 0700 BF       		.byte	0xbf
 1181 0701 0D070000 		.4byte	0x70d
 1182 0705 08       		.byte	0x8
 1183 0706 00       		.byte	0
 1184 0707 0C       		.uleb128 0xc
 1185 0708 04       		.byte	0x4
 1186 0709 C2060000 		.4byte	0x6c2
 1187 070d 16       		.uleb128 0x16
 1188 070e C2060000 		.4byte	0x6c2
 1189 0712 1D070000 		.4byte	0x71d
 1190 0716 17       		.uleb128 0x17
 1191 0717 37000000 		.4byte	0x37
 1192 071b 7F       		.byte	0x7f
 1193 071c 00       		.byte	0
ARM GAS  C:\Users\RAKIBU~1\AppData\Local\Temp\ccPGqyJw.s 			page 22


 1194 071d 03       		.uleb128 0x3
 1195 071e C8000000 		.4byte	.LASF101
 1196 0722 0E       		.byte	0xe
 1197 0723 C0       		.byte	0xc0
 1198 0724 CD060000 		.4byte	0x6cd
 1199 0728 18       		.uleb128 0x18
 1200 0729 04       		.byte	0x4
 1201 072a 0F       		.byte	0xf
 1202 072b 38       		.byte	0x38
 1203 072c 3D070000 		.4byte	0x73d
 1204 0730 08       		.uleb128 0x8
 1205 0731 0D080000 		.4byte	.LASF102
 1206 0735 0F       		.byte	0xf
 1207 0736 3C       		.byte	0x3c
 1208 0737 F5000000 		.4byte	0xf5
 1209 073b 00       		.byte	0
 1210 073c 00       		.byte	0
 1211 073d 03       		.uleb128 0x3
 1212 073e 11050000 		.4byte	.LASF103
 1213 0742 0F       		.byte	0xf
 1214 0743 3D       		.byte	0x3d
 1215 0744 28070000 		.4byte	0x728
 1216 0748 18       		.uleb128 0x18
 1217 0749 18       		.byte	0x18
 1218 074a 0F       		.byte	0xf
 1219 074b 48       		.byte	0x48
 1220 074c 8B070000 		.4byte	0x78b
 1221 0750 08       		.uleb128 0x8
 1222 0751 CB070000 		.4byte	.LASF104
 1223 0755 0F       		.byte	0xf
 1224 0756 49       		.byte	0x49
 1225 0757 F5000000 		.4byte	0xf5
 1226 075b 00       		.byte	0
 1227 075c 08       		.uleb128 0x8
 1228 075d 98000000 		.4byte	.LASF105
 1229 0761 0F       		.byte	0xf
 1230 0762 4A       		.byte	0x4a
 1231 0763 F5000000 		.4byte	0xf5
 1232 0767 04       		.byte	0x4
 1233 0768 08       		.uleb128 0x8
 1234 0769 F0050000 		.4byte	.LASF106
 1235 076d 0F       		.byte	0xf
 1236 076e 4B       		.byte	0x4b
 1237 076f F5000000 		.4byte	0xf5
 1238 0773 08       		.byte	0x8
 1239 0774 09       		.uleb128 0x9
 1240 0775 6E00     		.ascii	"n\000"
 1241 0777 0F       		.byte	0xf
 1242 0778 4C       		.byte	0x4c
 1243 0779 58010000 		.4byte	0x158
 1244 077d 0C       		.byte	0xc
 1245 077e 08       		.uleb128 0x8
 1246 077f 0A060000 		.4byte	.LASF107
 1247 0783 0F       		.byte	0xf
 1248 0784 4D       		.byte	0x4d
 1249 0785 00010000 		.4byte	0x100
 1250 0789 10       		.byte	0x10
ARM GAS  C:\Users\RAKIBU~1\AppData\Local\Temp\ccPGqyJw.s 			page 23


 1251 078a 00       		.byte	0
 1252 078b 03       		.uleb128 0x3
 1253 078c 9E000000 		.4byte	.LASF108
 1254 0790 0F       		.byte	0xf
 1255 0791 4E       		.byte	0x4e
 1256 0792 48070000 		.4byte	0x748
 1257 0796 18       		.uleb128 0x18
 1258 0797 38       		.byte	0x38
 1259 0798 10       		.byte	0x10
 1260 0799 38       		.byte	0x38
 1261 079a CF070000 		.4byte	0x7cf
 1262 079e 08       		.uleb128 0x8
 1263 079f 2B030000 		.4byte	.LASF109
 1264 07a3 10       		.byte	0x10
 1265 07a4 39       		.byte	0x39
 1266 07a5 58010000 		.4byte	0x158
 1267 07a9 00       		.byte	0
 1268 07aa 08       		.uleb128 0x8
 1269 07ab 60060000 		.4byte	.LASF110
 1270 07af 10       		.byte	0x10
 1271 07b0 3A       		.byte	0x3a
 1272 07b1 58010000 		.4byte	0x158
 1273 07b5 04       		.byte	0x4
 1274 07b6 08       		.uleb128 0x8
 1275 07b7 49090000 		.4byte	.LASF111
 1276 07bb 10       		.byte	0x10
 1277 07bc 3B       		.byte	0x3b
 1278 07bd 8B070000 		.4byte	0x78b
 1279 07c1 08       		.byte	0x8
 1280 07c2 08       		.uleb128 0x8
 1281 07c3 17040000 		.4byte	.LASF112
 1282 07c7 10       		.byte	0x10
 1283 07c8 3D       		.byte	0x3d
 1284 07c9 8B070000 		.4byte	0x78b
 1285 07cd 20       		.byte	0x20
 1286 07ce 00       		.byte	0
 1287 07cf 03       		.uleb128 0x3
 1288 07d0 BC030000 		.4byte	.LASF113
 1289 07d4 10       		.byte	0x10
 1290 07d5 3F       		.byte	0x3f
 1291 07d6 96070000 		.4byte	0x796
 1292 07da 19       		.uleb128 0x19
 1293 07db 04       		.byte	0x4
 1294 07dc 08       		.byte	0x8
 1295 07dd C6       		.byte	0xc6
 1296 07de 3C080000 		.4byte	0x83c
 1297 07e2 1B       		.uleb128 0x1b
 1298 07e3 1F000000 		.4byte	.LASF114
 1299 07e7 08       		.byte	0x8
 1300 07e8 CD       		.byte	0xcd
 1301 07e9 37010000 		.4byte	0x137
 1302 07ed 1B       		.uleb128 0x1b
 1303 07ee DA000000 		.4byte	.LASF115
 1304 07f2 08       		.byte	0x8
 1305 07f3 D4       		.byte	0xd4
 1306 07f4 37010000 		.4byte	0x137
 1307 07f8 1B       		.uleb128 0x1b
ARM GAS  C:\Users\RAKIBU~1\AppData\Local\Temp\ccPGqyJw.s 			page 24


 1308 07f9 C7080000 		.4byte	.LASF89
 1309 07fd 08       		.byte	0x8
 1310 07fe DB       		.byte	0xdb
 1311 07ff 41030000 		.4byte	0x341
 1312 0803 1B       		.uleb128 0x1b
 1313 0804 0E030000 		.4byte	.LASF116
 1314 0808 08       		.byte	0x8
 1315 0809 E2       		.byte	0xe2
 1316 080a 3C080000 		.4byte	0x83c
 1317 080e 1B       		.uleb128 0x1b
 1318 080f 41090000 		.4byte	.LASF117
 1319 0813 08       		.byte	0x8
 1320 0814 E7       		.byte	0xe7
 1321 0815 37010000 		.4byte	0x137
 1322 0819 1B       		.uleb128 0x1b
 1323 081a 07030000 		.4byte	.LASF118
 1324 081e 08       		.byte	0x8
 1325 081f F0       		.byte	0xf0
 1326 0820 67080000 		.4byte	0x867
 1327 0824 1B       		.uleb128 0x1b
 1328 0825 FC070000 		.4byte	.LASF119
 1329 0829 08       		.byte	0x8
 1330 082a F9       		.byte	0xf9
 1331 082b 9E080000 		.4byte	0x89e
 1332 082f 1E       		.uleb128 0x1e
 1333 0830 C0060000 		.4byte	.LASF120
 1334 0834 08       		.byte	0x8
 1335 0835 0101     		.2byte	0x101
 1336 0837 42010000 		.4byte	0x142
 1337 083b 00       		.byte	0
 1338 083c 0C       		.uleb128 0xc
 1339 083d 04       		.byte	0x4
 1340 083e 59020000 		.4byte	0x259
 1341 0842 07       		.uleb128 0x7
 1342 0843 FD060000 		.4byte	.LASF121
 1343 0847 0C       		.byte	0xc
 1344 0848 11       		.byte	0x11
 1345 0849 34       		.byte	0x34
 1346 084a 67080000 		.4byte	0x867
 1347 084e 08       		.uleb128 0x8
 1348 084f 31030000 		.4byte	.LASF32
 1349 0853 11       		.byte	0x11
 1350 0854 35       		.byte	0x35
 1351 0855 8E020000 		.4byte	0x28e
 1352 0859 00       		.byte	0
 1353 085a 09       		.uleb128 0x9
 1354 085b 636E7400 		.ascii	"cnt\000"
 1355 085f 11       		.byte	0x11
 1356 0860 37       		.byte	0x37
 1357 0861 4D010000 		.4byte	0x14d
 1358 0865 08       		.byte	0x8
 1359 0866 00       		.byte	0
 1360 0867 0C       		.uleb128 0xc
 1361 0868 04       		.byte	0x4
 1362 0869 42080000 		.4byte	0x842
 1363 086d 07       		.uleb128 0x7
 1364 086e 14080000 		.4byte	.LASF122
ARM GAS  C:\Users\RAKIBU~1\AppData\Local\Temp\ccPGqyJw.s 			page 25


 1365 0872 10       		.byte	0x10
 1366 0873 12       		.byte	0x12
 1367 0874 39       		.byte	0x39
 1368 0875 9E080000 		.4byte	0x89e
 1369 0879 08       		.uleb128 0x8
 1370 087a 31030000 		.4byte	.LASF32
 1371 087e 12       		.byte	0x12
 1372 087f 3A       		.byte	0x3a
 1373 0880 8E020000 		.4byte	0x28e
 1374 0884 00       		.byte	0
 1375 0885 08       		.uleb128 0x8
 1376 0886 65070000 		.4byte	.LASF123
 1377 088a 12       		.byte	0x12
 1378 088b 3C       		.byte	0x3c
 1379 088c 64020000 		.4byte	0x264
 1380 0890 08       		.byte	0x8
 1381 0891 08       		.uleb128 0x8
 1382 0892 14000000 		.4byte	.LASF52
 1383 0896 12       		.byte	0x12
 1384 0897 3E       		.byte	0x3e
 1385 0898 E9090000 		.4byte	0x9e9
 1386 089c 0C       		.byte	0xc
 1387 089d 00       		.byte	0
 1388 089e 0C       		.uleb128 0xc
 1389 089f 04       		.byte	0x4
 1390 08a0 6D080000 		.4byte	0x86d
 1391 08a4 0C       		.uleb128 0xc
 1392 08a5 04       		.byte	0x4
 1393 08a6 1A050000 		.4byte	0x51a
 1394 08aa 0C       		.uleb128 0xc
 1395 08ab 04       		.byte	0x4
 1396 08ac 43030000 		.4byte	0x343
 1397 08b0 1F       		.uleb128 0x1f
 1398 08b1 636800   		.ascii	"ch\000"
 1399 08b4 08       		.byte	0x8
 1400 08b5 C701     		.2byte	0x1c7
 1401 08b7 38040000 		.4byte	0x438
 1402 08bb 16       		.uleb128 0x16
 1403 08bc 1A050000 		.4byte	0x51a
 1404 08c0 C6080000 		.4byte	0x8c6
 1405 08c4 20       		.uleb128 0x20
 1406 08c5 00       		.byte	0
 1407 08c6 14       		.uleb128 0x14
 1408 08c7 13070000 		.4byte	.LASF124
 1409 08cb 13       		.byte	0x13
 1410 08cc 1701     		.2byte	0x117
 1411 08ce BB080000 		.4byte	0x8bb
 1412 08d2 18       		.uleb128 0x18
 1413 08d3 16       		.byte	0x16
 1414 08d4 14       		.byte	0x14
 1415 08d5 34       		.byte	0x34
 1416 08d6 B3090000 		.4byte	0x9b3
 1417 08da 08       		.uleb128 0x8
 1418 08db 3A020000 		.4byte	.LASF125
 1419 08df 14       		.byte	0x14
 1420 08e0 35       		.byte	0x35
 1421 08e1 B3090000 		.4byte	0x9b3
ARM GAS  C:\Users\RAKIBU~1\AppData\Local\Temp\ccPGqyJw.s 			page 26


 1422 08e5 00       		.byte	0
 1423 08e6 08       		.uleb128 0x8
 1424 08e7 B7020000 		.4byte	.LASF126
 1425 08eb 14       		.byte	0x14
 1426 08ec 36       		.byte	0x36
 1427 08ed B4000000 		.4byte	0xb4
 1428 08f1 04       		.byte	0x4
 1429 08f2 08       		.uleb128 0x8
 1430 08f3 AB010000 		.4byte	.LASF99
 1431 08f7 14       		.byte	0x14
 1432 08f8 37       		.byte	0x37
 1433 08f9 B4000000 		.4byte	0xb4
 1434 08fd 05       		.byte	0x5
 1435 08fe 08       		.uleb128 0x8
 1436 08ff 8B040000 		.4byte	.LASF127
 1437 0903 14       		.byte	0x14
 1438 0904 38       		.byte	0x38
 1439 0905 C4000000 		.4byte	0xc4
 1440 0909 06       		.byte	0x6
 1441 090a 08       		.uleb128 0x8
 1442 090b 59080000 		.4byte	.LASF128
 1443 090f 14       		.byte	0x14
 1444 0910 39       		.byte	0x39
 1445 0911 B4000000 		.4byte	0xb4
 1446 0915 08       		.byte	0x8
 1447 0916 08       		.uleb128 0x8
 1448 0917 25070000 		.4byte	.LASF129
 1449 091b 14       		.byte	0x14
 1450 091c 3A       		.byte	0x3a
 1451 091d B4000000 		.4byte	0xb4
 1452 0921 09       		.byte	0x9
 1453 0922 08       		.uleb128 0x8
 1454 0923 2A060000 		.4byte	.LASF130
 1455 0927 14       		.byte	0x14
 1456 0928 3B       		.byte	0x3b
 1457 0929 B4000000 		.4byte	0xb4
 1458 092d 0A       		.byte	0xa
 1459 092e 08       		.uleb128 0x8
 1460 092f 85060000 		.4byte	.LASF131
 1461 0933 14       		.byte	0x14
 1462 0934 3C       		.byte	0x3c
 1463 0935 B4000000 		.4byte	0xb4
 1464 0939 0B       		.byte	0xb
 1465 093a 08       		.uleb128 0x8
 1466 093b 07040000 		.4byte	.LASF132
 1467 093f 14       		.byte	0x14
 1468 0940 3D       		.byte	0x3d
 1469 0941 B4000000 		.4byte	0xb4
 1470 0945 0C       		.byte	0xc
 1471 0946 08       		.uleb128 0x8
 1472 0947 FA040000 		.4byte	.LASF133
 1473 094b 14       		.byte	0x14
 1474 094c 3E       		.byte	0x3e
 1475 094d B4000000 		.4byte	0xb4
 1476 0951 0D       		.byte	0xd
 1477 0952 08       		.uleb128 0x8
 1478 0953 1D080000 		.4byte	.LASF134
ARM GAS  C:\Users\RAKIBU~1\AppData\Local\Temp\ccPGqyJw.s 			page 27


 1479 0957 14       		.byte	0x14
 1480 0958 3F       		.byte	0x3f
 1481 0959 B4000000 		.4byte	0xb4
 1482 095d 0E       		.byte	0xe
 1483 095e 08       		.uleb128 0x8
 1484 095f 98080000 		.4byte	.LASF135
 1485 0963 14       		.byte	0x14
 1486 0964 40       		.byte	0x40
 1487 0965 B4000000 		.4byte	0xb4
 1488 0969 0F       		.byte	0xf
 1489 096a 08       		.uleb128 0x8
 1490 096b 8E060000 		.4byte	.LASF136
 1491 096f 14       		.byte	0x14
 1492 0970 41       		.byte	0x41
 1493 0971 B4000000 		.4byte	0xb4
 1494 0975 10       		.byte	0x10
 1495 0976 08       		.uleb128 0x8
 1496 0977 DD080000 		.4byte	.LASF137
 1497 097b 14       		.byte	0x14
 1498 097c 42       		.byte	0x42
 1499 097d B4000000 		.4byte	0xb4
 1500 0981 11       		.byte	0x11
 1501 0982 08       		.uleb128 0x8
 1502 0983 2F090000 		.4byte	.LASF138
 1503 0987 14       		.byte	0x14
 1504 0988 43       		.byte	0x43
 1505 0989 B4000000 		.4byte	0xb4
 1506 098d 12       		.byte	0x12
 1507 098e 08       		.uleb128 0x8
 1508 098f 6B020000 		.4byte	.LASF139
 1509 0993 14       		.byte	0x14
 1510 0994 44       		.byte	0x44
 1511 0995 B4000000 		.4byte	0xb4
 1512 0999 13       		.byte	0x13
 1513 099a 08       		.uleb128 0x8
 1514 099b 58020000 		.4byte	.LASF140
 1515 099f 14       		.byte	0x14
 1516 09a0 45       		.byte	0x45
 1517 09a1 B4000000 		.4byte	0xb4
 1518 09a5 14       		.byte	0x14
 1519 09a6 08       		.uleb128 0x8
 1520 09a7 0A070000 		.4byte	.LASF141
 1521 09ab 14       		.byte	0x14
 1522 09ac 46       		.byte	0x46
 1523 09ad B4000000 		.4byte	0xb4
 1524 09b1 15       		.byte	0x15
 1525 09b2 00       		.byte	0
 1526 09b3 16       		.uleb128 0x16
 1527 09b4 00060000 		.4byte	0x600
 1528 09b8 C3090000 		.4byte	0x9c3
 1529 09bc 17       		.uleb128 0x17
 1530 09bd 37000000 		.4byte	0x37
 1531 09c1 03       		.byte	0x3
 1532 09c2 00       		.byte	0
 1533 09c3 03       		.uleb128 0x3
 1534 09c4 4E020000 		.4byte	.LASF142
 1535 09c8 14       		.byte	0x14
ARM GAS  C:\Users\RAKIBU~1\AppData\Local\Temp\ccPGqyJw.s 			page 28


 1536 09c9 47       		.byte	0x47
 1537 09ca D2080000 		.4byte	0x8d2
 1538 09ce 05       		.uleb128 0x5
 1539 09cf C3090000 		.4byte	0x9c3
 1540 09d3 15       		.uleb128 0x15
 1541 09d4 14030000 		.4byte	.LASF143
 1542 09d8 14       		.byte	0x14
 1543 09d9 6C       		.byte	0x6c
 1544 09da CE090000 		.4byte	0x9ce
 1545 09de 03       		.uleb128 0x3
 1546 09df BC020000 		.4byte	.LASF144
 1547 09e3 12       		.byte	0x12
 1548 09e4 34       		.byte	0x34
 1549 09e5 6D080000 		.4byte	0x86d
 1550 09e9 0C       		.uleb128 0xc
 1551 09ea 04       		.byte	0x4
 1552 09eb DE090000 		.4byte	0x9de
 1553 09ef 04       		.uleb128 0x4
 1554 09f0 01       		.byte	0x1
 1555 09f1 02       		.byte	0x2
 1556 09f2 69060000 		.4byte	.LASF145
 1557 09f6 03       		.uleb128 0x3
 1558 09f7 15060000 		.4byte	.LASF146
 1559 09fb 15       		.byte	0x15
 1560 09fc 47       		.byte	0x47
 1561 09fd 010A0000 		.4byte	0xa01
 1562 0a01 0C       		.uleb128 0xc
 1563 0a02 04       		.byte	0x4
 1564 0a03 070A0000 		.4byte	0xa07
 1565 0a07 21       		.uleb128 0x21
 1566 0a08 41030000 		.4byte	0x341
 1567 0a0c 1B0A0000 		.4byte	0xa1b
 1568 0a10 0F       		.uleb128 0xf
 1569 0a11 2C000000 		.4byte	0x2c
 1570 0a15 0F       		.uleb128 0xf
 1571 0a16 37000000 		.4byte	0x37
 1572 0a1a 00       		.byte	0
 1573 0a1b 18       		.uleb128 0x18
 1574 0a1c 08       		.byte	0x8
 1575 0a1d 15       		.byte	0x15
 1576 0a1e 51       		.byte	0x51
 1577 0a1f 3C0A0000 		.4byte	0xa3c
 1578 0a23 08       		.uleb128 0x8
 1579 0a24 54090000 		.4byte	.LASF147
 1580 0a28 15       		.byte	0x15
 1581 0a29 55       		.byte	0x55
 1582 0a2a 3C0A0000 		.4byte	0xa3c
 1583 0a2e 00       		.byte	0
 1584 0a2f 08       		.uleb128 0x8
 1585 0a30 4A040000 		.4byte	.LASF148
 1586 0a34 15       		.byte	0x15
 1587 0a35 59       		.byte	0x59
 1588 0a36 3C0A0000 		.4byte	0xa3c
 1589 0a3a 04       		.byte	0x4
 1590 0a3b 00       		.byte	0
 1591 0a3c 0C       		.uleb128 0xc
 1592 0a3d 04       		.byte	0x4
ARM GAS  C:\Users\RAKIBU~1\AppData\Local\Temp\ccPGqyJw.s 			page 29


 1593 0a3e B4000000 		.4byte	0xb4
 1594 0a42 03       		.uleb128 0x3
 1595 0a43 00060000 		.4byte	.LASF149
 1596 0a47 15       		.byte	0x15
 1597 0a48 5A       		.byte	0x5a
 1598 0a49 1B0A0000 		.4byte	0xa1b
 1599 0a4d 15       		.uleb128 0x15
 1600 0a4e D0070000 		.4byte	.LASF150
 1601 0a52 15       		.byte	0x15
 1602 0a53 65       		.byte	0x65
 1603 0a54 420A0000 		.4byte	0xa42
 1604 0a58 07       		.uleb128 0x7
 1605 0a59 84080000 		.4byte	.LASF151
 1606 0a5d 04       		.byte	0x4
 1607 0a5e 16       		.byte	0x16
 1608 0a5f 38       		.byte	0x38
 1609 0a60 710A0000 		.4byte	0xa71
 1610 0a64 08       		.uleb128 0x8
 1611 0a65 14000000 		.4byte	.LASF52
 1612 0a69 16       		.byte	0x16
 1613 0a6a 39       		.byte	0x39
 1614 0a6b 710A0000 		.4byte	0xa71
 1615 0a6f 00       		.byte	0
 1616 0a70 00       		.byte	0
 1617 0a71 0C       		.uleb128 0xc
 1618 0a72 04       		.byte	0x4
 1619 0a73 580A0000 		.4byte	0xa58
 1620 0a77 18       		.uleb128 0x18
 1621 0a78 10       		.byte	0x10
 1622 0a79 16       		.byte	0x16
 1623 0a7a 40       		.byte	0x40
 1624 0a7b B00A0000 		.4byte	0xab0
 1625 0a7f 08       		.uleb128 0x8
 1626 0a80 14000000 		.4byte	.LASF52
 1627 0a84 16       		.byte	0x16
 1628 0a85 41       		.byte	0x41
 1629 0a86 710A0000 		.4byte	0xa71
 1630 0a8a 00       		.byte	0
 1631 0a8b 08       		.uleb128 0x8
 1632 0a8c 4D080000 		.4byte	.LASF152
 1633 0a90 16       		.byte	0x16
 1634 0a91 42       		.byte	0x42
 1635 0a92 2C000000 		.4byte	0x2c
 1636 0a96 04       		.byte	0x4
 1637 0a97 08       		.uleb128 0x8
 1638 0a98 3F010000 		.4byte	.LASF153
 1639 0a9c 16       		.byte	0x16
 1640 0a9d 44       		.byte	0x44
 1641 0a9e 37000000 		.4byte	0x37
 1642 0aa2 08       		.byte	0x8
 1643 0aa3 08       		.uleb128 0x8
 1644 0aa4 77000000 		.4byte	.LASF154
 1645 0aa8 16       		.byte	0x16
 1646 0aa9 45       		.byte	0x45
 1647 0aaa F6090000 		.4byte	0x9f6
 1648 0aae 0C       		.byte	0xc
 1649 0aaf 00       		.byte	0
ARM GAS  C:\Users\RAKIBU~1\AppData\Local\Temp\ccPGqyJw.s 			page 30


 1650 0ab0 03       		.uleb128 0x3
 1651 0ab1 1D030000 		.4byte	.LASF155
 1652 0ab5 16       		.byte	0x16
 1653 0ab6 47       		.byte	0x47
 1654 0ab7 770A0000 		.4byte	0xa77
 1655 0abb 07       		.uleb128 0x7
 1656 0abc 9C010000 		.4byte	.LASF156
 1657 0ac0 10       		.byte	0x10
 1658 0ac1 17       		.byte	0x17
 1659 0ac2 A9       		.byte	0xa9
 1660 0ac3 EC0A0000 		.4byte	0xaec
 1661 0ac7 08       		.uleb128 0x8
 1662 0ac8 14000000 		.4byte	.LASF52
 1663 0acc 17       		.byte	0x17
 1664 0acd AD       		.byte	0xad
 1665 0ace EC0A0000 		.4byte	0xaec
 1666 0ad2 00       		.byte	0
 1667 0ad3 08       		.uleb128 0x8
 1668 0ad4 35060000 		.4byte	.LASF40
 1669 0ad8 17       		.byte	0x17
 1670 0ad9 B1       		.byte	0xb1
 1671 0ada 58010000 		.4byte	0x158
 1672 0ade 04       		.byte	0x4
 1673 0adf 08       		.uleb128 0x8
 1674 0ae0 CB030000 		.4byte	.LASF36
 1675 0ae4 17       		.byte	0x17
 1676 0ae5 B3       		.byte	0xb3
 1677 0ae6 F20A0000 		.4byte	0xaf2
 1678 0aea 08       		.byte	0x8
 1679 0aeb 00       		.byte	0
 1680 0aec 0C       		.uleb128 0xc
 1681 0aed 04       		.byte	0x4
 1682 0aee BB0A0000 		.4byte	0xabb
 1683 0af2 16       		.uleb128 0x16
 1684 0af3 00060000 		.4byte	0x600
 1685 0af7 020B0000 		.4byte	0xb02
 1686 0afb 17       		.uleb128 0x17
 1687 0afc 37000000 		.4byte	0x37
 1688 0b00 07       		.byte	0x7
 1689 0b01 00       		.byte	0
 1690 0b02 03       		.uleb128 0x3
 1691 0b03 31010000 		.4byte	.LASF157
 1692 0b07 17       		.byte	0x17
 1693 0b08 B7       		.byte	0xb7
 1694 0b09 BB0A0000 		.4byte	0xabb
 1695 0b0d 07       		.uleb128 0x7
 1696 0b0e EE040000 		.4byte	.LASF158
 1697 0b12 04       		.byte	0x4
 1698 0b13 17       		.byte	0x17
 1699 0b14 BC       		.byte	0xbc
 1700 0b15 260B0000 		.4byte	0xb26
 1701 0b19 08       		.uleb128 0x8
 1702 0b1a 14000000 		.4byte	.LASF52
 1703 0b1e 17       		.byte	0x17
 1704 0b1f BD       		.byte	0xbd
 1705 0b20 260B0000 		.4byte	0xb26
 1706 0b24 00       		.byte	0
ARM GAS  C:\Users\RAKIBU~1\AppData\Local\Temp\ccPGqyJw.s 			page 31


 1707 0b25 00       		.byte	0
 1708 0b26 0C       		.uleb128 0xc
 1709 0b27 04       		.byte	0x4
 1710 0b28 020B0000 		.4byte	0xb02
 1711 0b2c 03       		.uleb128 0x3
 1712 0b2d F0030000 		.4byte	.LASF159
 1713 0b31 17       		.byte	0x17
 1714 0b32 BE       		.byte	0xbe
 1715 0b33 0D0B0000 		.4byte	0xb0d
 1716 0b37 0D       		.uleb128 0xd
 1717 0b38 61080000 		.4byte	.LASF160
 1718 0b3c 48       		.byte	0x48
 1719 0b3d 17       		.byte	0x17
 1720 0b3e 3E01     		.2byte	0x13e
 1721 0b40 BA0B0000 		.4byte	0xbba
 1722 0b44 0A       		.uleb128 0xa
 1723 0b45 6D747800 		.ascii	"mtx\000"
 1724 0b49 17       		.byte	0x17
 1725 0b4a 4301     		.2byte	0x143
 1726 0b4c DE090000 		.4byte	0x9de
 1727 0b50 00       		.byte	0
 1728 0b51 0B       		.uleb128 0xb
 1729 0b52 99070000 		.4byte	.LASF161
 1730 0b56 17       		.byte	0x17
 1731 0b57 4A01     		.2byte	0x14a
 1732 0b59 2C0B0000 		.4byte	0xb2c
 1733 0b5d 10       		.byte	0x10
 1734 0b5e 0B       		.uleb128 0xb
 1735 0b5f DC060000 		.4byte	.LASF162
 1736 0b63 17       		.byte	0x17
 1737 0b64 4E01     		.2byte	0x14e
 1738 0b66 B00A0000 		.4byte	0xab0
 1739 0b6a 14       		.byte	0x14
 1740 0b6b 0B       		.uleb128 0xb
 1741 0b6c 57060000 		.4byte	.LASF163
 1742 0b70 17       		.byte	0x17
 1743 0b71 5301     		.2byte	0x153
 1744 0b73 2C0B0000 		.4byte	0xb2c
 1745 0b77 24       		.byte	0x24
 1746 0b78 0B       		.uleb128 0xb
 1747 0b79 85000000 		.4byte	.LASF164
 1748 0b7d 17       		.byte	0x17
 1749 0b7e 5901     		.2byte	0x159
 1750 0b80 2C0B0000 		.4byte	0xb2c
 1751 0b84 28       		.byte	0x28
 1752 0b85 0B       		.uleb128 0xb
 1753 0b86 DF050000 		.4byte	.LASF165
 1754 0b8a 17       		.byte	0x17
 1755 0b8b 5D01     		.2byte	0x15d
 1756 0b8d B00A0000 		.4byte	0xab0
 1757 0b91 2C       		.byte	0x2c
 1758 0b92 0B       		.uleb128 0xb
 1759 0b93 88020000 		.4byte	.LASF166
 1760 0b97 17       		.byte	0x17
 1761 0b98 6301     		.2byte	0x163
 1762 0b9a 2C0B0000 		.4byte	0xb2c
 1763 0b9e 3C       		.byte	0x3c
ARM GAS  C:\Users\RAKIBU~1\AppData\Local\Temp\ccPGqyJw.s 			page 32


 1764 0b9f 0B       		.uleb128 0xb
 1765 0ba0 AF080000 		.4byte	.LASF167
 1766 0ba4 17       		.byte	0x17
 1767 0ba5 6901     		.2byte	0x169
 1768 0ba7 2C0B0000 		.4byte	0xb2c
 1769 0bab 40       		.byte	0x40
 1770 0bac 0B       		.uleb128 0xb
 1771 0bad 2E070000 		.4byte	.LASF168
 1772 0bb1 17       		.byte	0x17
 1773 0bb2 6F01     		.2byte	0x16f
 1774 0bb4 2C0B0000 		.4byte	0xb2c
 1775 0bb8 44       		.byte	0x44
 1776 0bb9 00       		.byte	0
 1777 0bba 22       		.uleb128 0x22
 1778 0bbb F4080000 		.4byte	.LASF169
 1779 0bbf 17       		.byte	0x17
 1780 0bc0 7101     		.2byte	0x171
 1781 0bc2 370B0000 		.4byte	0xb37
 1782 0bc6 14       		.uleb128 0x14
 1783 0bc7 D1060000 		.4byte	.LASF170
 1784 0bcb 17       		.byte	0x17
 1785 0bcc 7C01     		.2byte	0x17c
 1786 0bce BA0B0000 		.4byte	0xbba
 1787 0bd2 23       		.uleb128 0x23
 1788 0bd3 12090000 		.4byte	.LASF171
 1789 0bd7 01       		.byte	0x1
 1790 0bd8 77       		.byte	0x77
 1791 0bd9 B0000000 		.4byte	.LFB301
 1792 0bdd 10000000 		.4byte	.LFE301-.LFB301
 1793 0be1 01       		.uleb128 0x1
 1794 0be2 9C       		.byte	0x9c
 1795 0be3 F10B0000 		.4byte	0xbf1
 1796 0be7 24       		.uleb128 0x24
 1797 0be8 B8000000 		.4byte	.LVL13
 1798 0bec A80D0000 		.4byte	0xda8
 1799 0bf0 00       		.byte	0
 1800 0bf1 23       		.uleb128 0x23
 1801 0bf2 C1050000 		.4byte	.LASF172
 1802 0bf6 01       		.byte	0x1
 1803 0bf7 6F       		.byte	0x6f
 1804 0bf8 A0000000 		.4byte	.LFB300
 1805 0bfc 10000000 		.4byte	.LFE300-.LFB300
 1806 0c00 01       		.uleb128 0x1
 1807 0c01 9C       		.byte	0x9c
 1808 0c02 100C0000 		.4byte	0xc10
 1809 0c06 24       		.uleb128 0x24
 1810 0c07 A8000000 		.4byte	.LVL12
 1811 0c0b B30D0000 		.4byte	0xdb3
 1812 0c0f 00       		.byte	0
 1813 0c10 23       		.uleb128 0x23
 1814 0c11 93040000 		.4byte	.LASF173
 1815 0c15 01       		.byte	0x1
 1816 0c16 67       		.byte	0x67
 1817 0c17 90000000 		.4byte	.LFB299
 1818 0c1b 10000000 		.4byte	.LFE299-.LFB299
 1819 0c1f 01       		.uleb128 0x1
 1820 0c20 9C       		.byte	0x9c
ARM GAS  C:\Users\RAKIBU~1\AppData\Local\Temp\ccPGqyJw.s 			page 33


 1821 0c21 2F0C0000 		.4byte	0xc2f
 1822 0c25 24       		.uleb128 0x24
 1823 0c26 98000000 		.4byte	.LVL11
 1824 0c2a A80D0000 		.4byte	0xda8
 1825 0c2e 00       		.byte	0
 1826 0c2f 23       		.uleb128 0x23
 1827 0c30 EE000000 		.4byte	.LASF174
 1828 0c34 01       		.byte	0x1
 1829 0c35 5F       		.byte	0x5f
 1830 0c36 80000000 		.4byte	.LFB298
 1831 0c3a 10000000 		.4byte	.LFE298-.LFB298
 1832 0c3e 01       		.uleb128 0x1
 1833 0c3f 9C       		.byte	0x9c
 1834 0c40 4E0C0000 		.4byte	0xc4e
 1835 0c44 24       		.uleb128 0x24
 1836 0c45 88000000 		.4byte	.LVL10
 1837 0c49 B30D0000 		.4byte	0xdb3
 1838 0c4d 00       		.byte	0
 1839 0c4e 23       		.uleb128 0x23
 1840 0c4f B9080000 		.4byte	.LASF175
 1841 0c53 01       		.byte	0x1
 1842 0c54 56       		.byte	0x56
 1843 0c55 50000000 		.4byte	.LFB297
 1844 0c59 24000000 		.4byte	.LFE297-.LFB297
 1845 0c5d 01       		.uleb128 0x1
 1846 0c5e 9C       		.byte	0x9c
 1847 0c5f 9E0C0000 		.4byte	0xc9e
 1848 0c63 25       		.uleb128 0x25
 1849 0c64 6E747000 		.ascii	"ntp\000"
 1850 0c68 01       		.byte	0x1
 1851 0c69 56       		.byte	0x56
 1852 0c6a 64020000 		.4byte	0x264
 1853 0c6e 00000000 		.4byte	.LLST2
 1854 0c72 25       		.uleb128 0x25
 1855 0c73 6F747000 		.ascii	"otp\000"
 1856 0c77 01       		.byte	0x1
 1857 0c78 56       		.byte	0x56
 1858 0c79 64020000 		.4byte	0x264
 1859 0c7d 2F000000 		.4byte	.LLST3
 1860 0c81 26       		.uleb128 0x26
 1861 0c82 6C000000 		.4byte	.LVL9
 1862 0c86 BE0D0000 		.4byte	0xdbe
 1863 0c8a 27       		.uleb128 0x27
 1864 0c8b 01       		.uleb128 0x1
 1865 0c8c 50       		.byte	0x50
 1866 0c8d 05       		.uleb128 0x5
 1867 0c8e F3       		.byte	0xf3
 1868 0c8f 01       		.uleb128 0x1
 1869 0c90 51       		.byte	0x51
 1870 0c91 23       		.byte	0x23
 1871 0c92 48       		.uleb128 0x48
 1872 0c93 27       		.uleb128 0x27
 1873 0c94 01       		.uleb128 0x1
 1874 0c95 51       		.byte	0x51
 1875 0c96 05       		.uleb128 0x5
 1876 0c97 F3       		.byte	0xf3
 1877 0c98 01       		.uleb128 0x1
ARM GAS  C:\Users\RAKIBU~1\AppData\Local\Temp\ccPGqyJw.s 			page 34


 1878 0c99 50       		.byte	0x50
 1879 0c9a 23       		.byte	0x23
 1880 0c9b 48       		.uleb128 0x48
 1881 0c9c 00       		.byte	0
 1882 0c9d 00       		.byte	0
 1883 0c9e 23       		.uleb128 0x23
 1884 0c9f 41070000 		.4byte	.LASF176
 1885 0ca3 01       		.byte	0x1
 1886 0ca4 49       		.byte	0x49
 1887 0ca5 30000000 		.4byte	.LFB296
 1888 0ca9 20000000 		.4byte	.LFE296-.LFB296
 1889 0cad 01       		.uleb128 0x1
 1890 0cae 9C       		.byte	0x9c
 1891 0caf 2E0D0000 		.4byte	0xd2e
 1892 0cb3 28       		.uleb128 0x28
 1893 0cb4 730D0000 		.4byte	0xd73
 1894 0cb8 30000000 		.4byte	.LBB24
 1895 0cbc 06000000 		.4byte	.LBE24-.LBB24
 1896 0cc0 01       		.byte	0x1
 1897 0cc1 4B       		.byte	0x4b
 1898 0cc2 F20C0000 		.4byte	0xcf2
 1899 0cc6 29       		.uleb128 0x29
 1900 0cc7 850D0000 		.4byte	0xd85
 1901 0ccb 30000000 		.4byte	.LBB25
 1902 0ccf 06000000 		.4byte	.LBE25-.LBB25
 1903 0cd3 0D       		.byte	0xd
 1904 0cd4 8602     		.2byte	0x286
 1905 0cd6 29       		.uleb128 0x29
 1906 0cd7 8E0D0000 		.4byte	0xd8e
 1907 0cdb 30000000 		.4byte	.LBB26
 1908 0cdf 06000000 		.4byte	.LBE26-.LBB26
 1909 0ce3 0D       		.byte	0xd
 1910 0ce4 6502     		.2byte	0x265
 1911 0ce6 2A       		.uleb128 0x2a
 1912 0ce7 9B0D0000 		.4byte	0xd9b
 1913 0ceb 5E000000 		.4byte	.LLST0
 1914 0cef 00       		.byte	0
 1915 0cf0 00       		.byte	0
 1916 0cf1 00       		.byte	0
 1917 0cf2 2B       		.uleb128 0x2b
 1918 0cf3 6A0D0000 		.4byte	0xd6a
 1919 0cf7 42000000 		.4byte	.LBB28
 1920 0cfb 06000000 		.4byte	.LBE28-.LBB28
 1921 0cff 01       		.byte	0x1
 1922 0d00 4D       		.byte	0x4d
 1923 0d01 29       		.uleb128 0x29
 1924 0d02 7C0D0000 		.4byte	0xd7c
 1925 0d06 42000000 		.4byte	.LBB29
 1926 0d0a 06000000 		.4byte	.LBE29-.LBB29
 1927 0d0e 0D       		.byte	0xd
 1928 0d0f 9102     		.2byte	0x291
 1929 0d11 29       		.uleb128 0x29
 1930 0d12 8E0D0000 		.4byte	0xd8e
 1931 0d16 42000000 		.4byte	.LBB30
 1932 0d1a 06000000 		.4byte	.LBE30-.LBB30
 1933 0d1e 0D       		.byte	0xd
 1934 0d1f 7802     		.2byte	0x278
ARM GAS  C:\Users\RAKIBU~1\AppData\Local\Temp\ccPGqyJw.s 			page 35


 1935 0d21 2A       		.uleb128 0x2a
 1936 0d22 9B0D0000 		.4byte	0xd9b
 1937 0d26 73000000 		.4byte	.LLST1
 1938 0d2a 00       		.byte	0
 1939 0d2b 00       		.byte	0
 1940 0d2c 00       		.byte	0
 1941 0d2d 00       		.byte	0
 1942 0d2e 23       		.uleb128 0x23
 1943 0d2f 06090000 		.4byte	.LASF177
 1944 0d33 01       		.byte	0x1
 1945 0d34 3E       		.byte	0x3e
 1946 0d35 00000000 		.4byte	.LFB295
 1947 0d39 24000000 		.4byte	.LFE295-.LFB295
 1948 0d3d 01       		.uleb128 0x1
 1949 0d3e 9C       		.byte	0x9c
 1950 0d3f 6A0D0000 		.4byte	0xd6a
 1951 0d43 2C       		.uleb128 0x2c
 1952 0d44 16000000 		.4byte	.LVL0
 1953 0d48 C90D0000 		.4byte	0xdc9
 1954 0d4c 580D0000 		.4byte	0xd58
 1955 0d50 27       		.uleb128 0x27
 1956 0d51 01       		.uleb128 0x1
 1957 0d52 50       		.byte	0x50
 1958 0d53 03       		.uleb128 0x3
 1959 0d54 74       		.byte	0x74
 1960 0d55 C011     		.sleb128 2240
 1961 0d57 00       		.byte	0
 1962 0d58 26       		.uleb128 0x26
 1963 0d59 1E000000 		.4byte	.LVL1
 1964 0d5d C90D0000 		.4byte	0xdc9
 1965 0d61 27       		.uleb128 0x27
 1966 0d62 01       		.uleb128 0x1
 1967 0d63 50       		.byte	0x50
 1968 0d64 03       		.uleb128 0x3
 1969 0d65 74       		.byte	0x74
 1970 0d66 D811     		.sleb128 2264
 1971 0d68 00       		.byte	0
 1972 0d69 00       		.byte	0
 1973 0d6a 2D       		.uleb128 0x2d
 1974 0d6b AD070000 		.4byte	.LASF178
 1975 0d6f 0D       		.byte	0xd
 1976 0d70 8F02     		.2byte	0x28f
 1977 0d72 03       		.byte	0x3
 1978 0d73 2D       		.uleb128 0x2d
 1979 0d74 3A080000 		.4byte	.LASF179
 1980 0d78 0D       		.byte	0xd
 1981 0d79 8402     		.2byte	0x284
 1982 0d7b 03       		.byte	0x3
 1983 0d7c 2D       		.uleb128 0x2d
 1984 0d7d C5010000 		.4byte	.LASF180
 1985 0d81 0D       		.byte	0xd
 1986 0d82 7502     		.2byte	0x275
 1987 0d84 03       		.byte	0x3
 1988 0d85 2D       		.uleb128 0x2d
 1989 0d86 8E000000 		.4byte	.LASF181
 1990 0d8a 0D       		.byte	0xd
 1991 0d8b 5D02     		.2byte	0x25d
ARM GAS  C:\Users\RAKIBU~1\AppData\Local\Temp\ccPGqyJw.s 			page 36


 1992 0d8d 03       		.byte	0x3
 1993 0d8e 2E       		.uleb128 0x2e
 1994 0d8f EE070000 		.4byte	.LASF189
 1995 0d93 02       		.byte	0x2
 1996 0d94 EB01     		.2byte	0x1eb
 1997 0d96 03       		.byte	0x3
 1998 0d97 A80D0000 		.4byte	0xda8
 1999 0d9b 2F       		.uleb128 0x2f
 2000 0d9c B6010000 		.4byte	.LASF190
 2001 0da0 02       		.byte	0x2
 2002 0da1 EB01     		.2byte	0x1eb
 2003 0da3 DF000000 		.4byte	0xdf
 2004 0da7 00       		.byte	0
 2005 0da8 30       		.uleb128 0x30
 2006 0da9 ED010000 		.4byte	.LASF182
 2007 0dad ED010000 		.4byte	.LASF182
 2008 0db1 0F       		.byte	0xf
 2009 0db2 5E       		.byte	0x5e
 2010 0db3 30       		.uleb128 0x30
 2011 0db4 D1010000 		.4byte	.LASF183
 2012 0db8 D1010000 		.4byte	.LASF183
 2013 0dbc 0F       		.byte	0xf
 2014 0dbd 5D       		.byte	0x5d
 2015 0dbe 30       		.uleb128 0x30
 2016 0dbf 51040000 		.4byte	.LASF184
 2017 0dc3 51040000 		.4byte	.LASF184
 2018 0dc7 0F       		.byte	0xf
 2019 0dc8 5F       		.byte	0x5f
 2020 0dc9 30       		.uleb128 0x30
 2021 0dca 22010000 		.4byte	.LASF185
 2022 0dce 22010000 		.4byte	.LASF185
 2023 0dd2 0F       		.byte	0xf
 2024 0dd3 5C       		.byte	0x5c
 2025 0dd4 00       		.byte	0
 2026              		.section	.debug_abbrev,"",%progbits
 2027              	.Ldebug_abbrev0:
 2028 0000 01       		.uleb128 0x1
 2029 0001 11       		.uleb128 0x11
 2030 0002 01       		.byte	0x1
 2031 0003 25       		.uleb128 0x25
 2032 0004 0E       		.uleb128 0xe
 2033 0005 13       		.uleb128 0x13
 2034 0006 0B       		.uleb128 0xb
 2035 0007 03       		.uleb128 0x3
 2036 0008 0E       		.uleb128 0xe
 2037 0009 1B       		.uleb128 0x1b
 2038 000a 0E       		.uleb128 0xe
 2039 000b 11       		.uleb128 0x11
 2040 000c 01       		.uleb128 0x1
 2041 000d 12       		.uleb128 0x12
 2042 000e 06       		.uleb128 0x6
 2043 000f 10       		.uleb128 0x10
 2044 0010 17       		.uleb128 0x17
 2045 0011 00       		.byte	0
 2046 0012 00       		.byte	0
 2047 0013 02       		.uleb128 0x2
 2048 0014 24       		.uleb128 0x24
ARM GAS  C:\Users\RAKIBU~1\AppData\Local\Temp\ccPGqyJw.s 			page 37


 2049 0015 00       		.byte	0
 2050 0016 0B       		.uleb128 0xb
 2051 0017 0B       		.uleb128 0xb
 2052 0018 3E       		.uleb128 0x3e
 2053 0019 0B       		.uleb128 0xb
 2054 001a 03       		.uleb128 0x3
 2055 001b 08       		.uleb128 0x8
 2056 001c 00       		.byte	0
 2057 001d 00       		.byte	0
 2058 001e 03       		.uleb128 0x3
 2059 001f 16       		.uleb128 0x16
 2060 0020 00       		.byte	0
 2061 0021 03       		.uleb128 0x3
 2062 0022 0E       		.uleb128 0xe
 2063 0023 3A       		.uleb128 0x3a
 2064 0024 0B       		.uleb128 0xb
 2065 0025 3B       		.uleb128 0x3b
 2066 0026 0B       		.uleb128 0xb
 2067 0027 49       		.uleb128 0x49
 2068 0028 13       		.uleb128 0x13
 2069 0029 00       		.byte	0
 2070 002a 00       		.byte	0
 2071 002b 04       		.uleb128 0x4
 2072 002c 24       		.uleb128 0x24
 2073 002d 00       		.byte	0
 2074 002e 0B       		.uleb128 0xb
 2075 002f 0B       		.uleb128 0xb
 2076 0030 3E       		.uleb128 0x3e
 2077 0031 0B       		.uleb128 0xb
 2078 0032 03       		.uleb128 0x3
 2079 0033 0E       		.uleb128 0xe
 2080 0034 00       		.byte	0
 2081 0035 00       		.byte	0
 2082 0036 05       		.uleb128 0x5
 2083 0037 26       		.uleb128 0x26
 2084 0038 00       		.byte	0
 2085 0039 49       		.uleb128 0x49
 2086 003a 13       		.uleb128 0x13
 2087 003b 00       		.byte	0
 2088 003c 00       		.byte	0
 2089 003d 06       		.uleb128 0x6
 2090 003e 35       		.uleb128 0x35
 2091 003f 00       		.byte	0
 2092 0040 49       		.uleb128 0x49
 2093 0041 13       		.uleb128 0x13
 2094 0042 00       		.byte	0
 2095 0043 00       		.byte	0
 2096 0044 07       		.uleb128 0x7
 2097 0045 13       		.uleb128 0x13
 2098 0046 01       		.byte	0x1
 2099 0047 03       		.uleb128 0x3
 2100 0048 0E       		.uleb128 0xe
 2101 0049 0B       		.uleb128 0xb
 2102 004a 0B       		.uleb128 0xb
 2103 004b 3A       		.uleb128 0x3a
 2104 004c 0B       		.uleb128 0xb
 2105 004d 3B       		.uleb128 0x3b
ARM GAS  C:\Users\RAKIBU~1\AppData\Local\Temp\ccPGqyJw.s 			page 38


 2106 004e 0B       		.uleb128 0xb
 2107 004f 01       		.uleb128 0x1
 2108 0050 13       		.uleb128 0x13
 2109 0051 00       		.byte	0
 2110 0052 00       		.byte	0
 2111 0053 08       		.uleb128 0x8
 2112 0054 0D       		.uleb128 0xd
 2113 0055 00       		.byte	0
 2114 0056 03       		.uleb128 0x3
 2115 0057 0E       		.uleb128 0xe
 2116 0058 3A       		.uleb128 0x3a
 2117 0059 0B       		.uleb128 0xb
 2118 005a 3B       		.uleb128 0x3b
 2119 005b 0B       		.uleb128 0xb
 2120 005c 49       		.uleb128 0x49
 2121 005d 13       		.uleb128 0x13
 2122 005e 38       		.uleb128 0x38
 2123 005f 0B       		.uleb128 0xb
 2124 0060 00       		.byte	0
 2125 0061 00       		.byte	0
 2126 0062 09       		.uleb128 0x9
 2127 0063 0D       		.uleb128 0xd
 2128 0064 00       		.byte	0
 2129 0065 03       		.uleb128 0x3
 2130 0066 08       		.uleb128 0x8
 2131 0067 3A       		.uleb128 0x3a
 2132 0068 0B       		.uleb128 0xb
 2133 0069 3B       		.uleb128 0x3b
 2134 006a 0B       		.uleb128 0xb
 2135 006b 49       		.uleb128 0x49
 2136 006c 13       		.uleb128 0x13
 2137 006d 38       		.uleb128 0x38
 2138 006e 0B       		.uleb128 0xb
 2139 006f 00       		.byte	0
 2140 0070 00       		.byte	0
 2141 0071 0A       		.uleb128 0xa
 2142 0072 0D       		.uleb128 0xd
 2143 0073 00       		.byte	0
 2144 0074 03       		.uleb128 0x3
 2145 0075 08       		.uleb128 0x8
 2146 0076 3A       		.uleb128 0x3a
 2147 0077 0B       		.uleb128 0xb
 2148 0078 3B       		.uleb128 0x3b
 2149 0079 05       		.uleb128 0x5
 2150 007a 49       		.uleb128 0x49
 2151 007b 13       		.uleb128 0x13
 2152 007c 38       		.uleb128 0x38
 2153 007d 0B       		.uleb128 0xb
 2154 007e 00       		.byte	0
 2155 007f 00       		.byte	0
 2156 0080 0B       		.uleb128 0xb
 2157 0081 0D       		.uleb128 0xd
 2158 0082 00       		.byte	0
 2159 0083 03       		.uleb128 0x3
 2160 0084 0E       		.uleb128 0xe
 2161 0085 3A       		.uleb128 0x3a
 2162 0086 0B       		.uleb128 0xb
ARM GAS  C:\Users\RAKIBU~1\AppData\Local\Temp\ccPGqyJw.s 			page 39


 2163 0087 3B       		.uleb128 0x3b
 2164 0088 05       		.uleb128 0x5
 2165 0089 49       		.uleb128 0x49
 2166 008a 13       		.uleb128 0x13
 2167 008b 38       		.uleb128 0x38
 2168 008c 0B       		.uleb128 0xb
 2169 008d 00       		.byte	0
 2170 008e 00       		.byte	0
 2171 008f 0C       		.uleb128 0xc
 2172 0090 0F       		.uleb128 0xf
 2173 0091 00       		.byte	0
 2174 0092 0B       		.uleb128 0xb
 2175 0093 0B       		.uleb128 0xb
 2176 0094 49       		.uleb128 0x49
 2177 0095 13       		.uleb128 0x13
 2178 0096 00       		.byte	0
 2179 0097 00       		.byte	0
 2180 0098 0D       		.uleb128 0xd
 2181 0099 13       		.uleb128 0x13
 2182 009a 01       		.byte	0x1
 2183 009b 03       		.uleb128 0x3
 2184 009c 0E       		.uleb128 0xe
 2185 009d 0B       		.uleb128 0xb
 2186 009e 0B       		.uleb128 0xb
 2187 009f 3A       		.uleb128 0x3a
 2188 00a0 0B       		.uleb128 0xb
 2189 00a1 3B       		.uleb128 0x3b
 2190 00a2 05       		.uleb128 0x5
 2191 00a3 01       		.uleb128 0x1
 2192 00a4 13       		.uleb128 0x13
 2193 00a5 00       		.byte	0
 2194 00a6 00       		.byte	0
 2195 00a7 0E       		.uleb128 0xe
 2196 00a8 15       		.uleb128 0x15
 2197 00a9 01       		.byte	0x1
 2198 00aa 27       		.uleb128 0x27
 2199 00ab 19       		.uleb128 0x19
 2200 00ac 01       		.uleb128 0x1
 2201 00ad 13       		.uleb128 0x13
 2202 00ae 00       		.byte	0
 2203 00af 00       		.byte	0
 2204 00b0 0F       		.uleb128 0xf
 2205 00b1 05       		.uleb128 0x5
 2206 00b2 00       		.byte	0
 2207 00b3 49       		.uleb128 0x49
 2208 00b4 13       		.uleb128 0x13
 2209 00b5 00       		.byte	0
 2210 00b6 00       		.byte	0
 2211 00b7 10       		.uleb128 0x10
 2212 00b8 0F       		.uleb128 0xf
 2213 00b9 00       		.byte	0
 2214 00ba 0B       		.uleb128 0xb
 2215 00bb 0B       		.uleb128 0xb
 2216 00bc 00       		.byte	0
 2217 00bd 00       		.byte	0
 2218 00be 11       		.uleb128 0x11
 2219 00bf 13       		.uleb128 0x13
ARM GAS  C:\Users\RAKIBU~1\AppData\Local\Temp\ccPGqyJw.s 			page 40


 2220 00c0 01       		.byte	0x1
 2221 00c1 03       		.uleb128 0x3
 2222 00c2 0E       		.uleb128 0xe
 2223 00c3 0B       		.uleb128 0xb
 2224 00c4 05       		.uleb128 0x5
 2225 00c5 3A       		.uleb128 0x3a
 2226 00c6 0B       		.uleb128 0xb
 2227 00c7 3B       		.uleb128 0x3b
 2228 00c8 05       		.uleb128 0x5
 2229 00c9 01       		.uleb128 0x1
 2230 00ca 13       		.uleb128 0x13
 2231 00cb 00       		.byte	0
 2232 00cc 00       		.byte	0
 2233 00cd 12       		.uleb128 0x12
 2234 00ce 0D       		.uleb128 0xd
 2235 00cf 00       		.byte	0
 2236 00d0 03       		.uleb128 0x3
 2237 00d1 0E       		.uleb128 0xe
 2238 00d2 3A       		.uleb128 0x3a
 2239 00d3 0B       		.uleb128 0xb
 2240 00d4 3B       		.uleb128 0x3b
 2241 00d5 05       		.uleb128 0x5
 2242 00d6 49       		.uleb128 0x49
 2243 00d7 13       		.uleb128 0x13
 2244 00d8 38       		.uleb128 0x38
 2245 00d9 05       		.uleb128 0x5
 2246 00da 00       		.byte	0
 2247 00db 00       		.byte	0
 2248 00dc 13       		.uleb128 0x13
 2249 00dd 0D       		.uleb128 0xd
 2250 00de 00       		.byte	0
 2251 00df 03       		.uleb128 0x3
 2252 00e0 08       		.uleb128 0x8
 2253 00e1 3A       		.uleb128 0x3a
 2254 00e2 0B       		.uleb128 0xb
 2255 00e3 3B       		.uleb128 0x3b
 2256 00e4 05       		.uleb128 0x5
 2257 00e5 49       		.uleb128 0x49
 2258 00e6 13       		.uleb128 0x13
 2259 00e7 38       		.uleb128 0x38
 2260 00e8 05       		.uleb128 0x5
 2261 00e9 00       		.byte	0
 2262 00ea 00       		.byte	0
 2263 00eb 14       		.uleb128 0x14
 2264 00ec 34       		.uleb128 0x34
 2265 00ed 00       		.byte	0
 2266 00ee 03       		.uleb128 0x3
 2267 00ef 0E       		.uleb128 0xe
 2268 00f0 3A       		.uleb128 0x3a
 2269 00f1 0B       		.uleb128 0xb
 2270 00f2 3B       		.uleb128 0x3b
 2271 00f3 05       		.uleb128 0x5
 2272 00f4 49       		.uleb128 0x49
 2273 00f5 13       		.uleb128 0x13
 2274 00f6 3F       		.uleb128 0x3f
 2275 00f7 19       		.uleb128 0x19
 2276 00f8 3C       		.uleb128 0x3c
ARM GAS  C:\Users\RAKIBU~1\AppData\Local\Temp\ccPGqyJw.s 			page 41


 2277 00f9 19       		.uleb128 0x19
 2278 00fa 00       		.byte	0
 2279 00fb 00       		.byte	0
 2280 00fc 15       		.uleb128 0x15
 2281 00fd 34       		.uleb128 0x34
 2282 00fe 00       		.byte	0
 2283 00ff 03       		.uleb128 0x3
 2284 0100 0E       		.uleb128 0xe
 2285 0101 3A       		.uleb128 0x3a
 2286 0102 0B       		.uleb128 0xb
 2287 0103 3B       		.uleb128 0x3b
 2288 0104 0B       		.uleb128 0xb
 2289 0105 49       		.uleb128 0x49
 2290 0106 13       		.uleb128 0x13
 2291 0107 3F       		.uleb128 0x3f
 2292 0108 19       		.uleb128 0x19
 2293 0109 3C       		.uleb128 0x3c
 2294 010a 19       		.uleb128 0x19
 2295 010b 00       		.byte	0
 2296 010c 00       		.byte	0
 2297 010d 16       		.uleb128 0x16
 2298 010e 01       		.uleb128 0x1
 2299 010f 01       		.byte	0x1
 2300 0110 49       		.uleb128 0x49
 2301 0111 13       		.uleb128 0x13
 2302 0112 01       		.uleb128 0x1
 2303 0113 13       		.uleb128 0x13
 2304 0114 00       		.byte	0
 2305 0115 00       		.byte	0
 2306 0116 17       		.uleb128 0x17
 2307 0117 21       		.uleb128 0x21
 2308 0118 00       		.byte	0
 2309 0119 49       		.uleb128 0x49
 2310 011a 13       		.uleb128 0x13
 2311 011b 2F       		.uleb128 0x2f
 2312 011c 0B       		.uleb128 0xb
 2313 011d 00       		.byte	0
 2314 011e 00       		.byte	0
 2315 011f 18       		.uleb128 0x18
 2316 0120 13       		.uleb128 0x13
 2317 0121 01       		.byte	0x1
 2318 0122 0B       		.uleb128 0xb
 2319 0123 0B       		.uleb128 0xb
 2320 0124 3A       		.uleb128 0x3a
 2321 0125 0B       		.uleb128 0xb
 2322 0126 3B       		.uleb128 0x3b
 2323 0127 0B       		.uleb128 0xb
 2324 0128 01       		.uleb128 0x1
 2325 0129 13       		.uleb128 0x13
 2326 012a 00       		.byte	0
 2327 012b 00       		.byte	0
 2328 012c 19       		.uleb128 0x19
 2329 012d 17       		.uleb128 0x17
 2330 012e 01       		.byte	0x1
 2331 012f 0B       		.uleb128 0xb
 2332 0130 0B       		.uleb128 0xb
 2333 0131 3A       		.uleb128 0x3a
ARM GAS  C:\Users\RAKIBU~1\AppData\Local\Temp\ccPGqyJw.s 			page 42


 2334 0132 0B       		.uleb128 0xb
 2335 0133 3B       		.uleb128 0x3b
 2336 0134 0B       		.uleb128 0xb
 2337 0135 01       		.uleb128 0x1
 2338 0136 13       		.uleb128 0x13
 2339 0137 00       		.byte	0
 2340 0138 00       		.byte	0
 2341 0139 1A       		.uleb128 0x1a
 2342 013a 0D       		.uleb128 0xd
 2343 013b 00       		.byte	0
 2344 013c 03       		.uleb128 0x3
 2345 013d 08       		.uleb128 0x8
 2346 013e 3A       		.uleb128 0x3a
 2347 013f 0B       		.uleb128 0xb
 2348 0140 3B       		.uleb128 0x3b
 2349 0141 0B       		.uleb128 0xb
 2350 0142 49       		.uleb128 0x49
 2351 0143 13       		.uleb128 0x13
 2352 0144 00       		.byte	0
 2353 0145 00       		.byte	0
 2354 0146 1B       		.uleb128 0x1b
 2355 0147 0D       		.uleb128 0xd
 2356 0148 00       		.byte	0
 2357 0149 03       		.uleb128 0x3
 2358 014a 0E       		.uleb128 0xe
 2359 014b 3A       		.uleb128 0x3a
 2360 014c 0B       		.uleb128 0xb
 2361 014d 3B       		.uleb128 0x3b
 2362 014e 0B       		.uleb128 0xb
 2363 014f 49       		.uleb128 0x49
 2364 0150 13       		.uleb128 0x13
 2365 0151 00       		.byte	0
 2366 0152 00       		.byte	0
 2367 0153 1C       		.uleb128 0x1c
 2368 0154 0D       		.uleb128 0xd
 2369 0155 00       		.byte	0
 2370 0156 03       		.uleb128 0x3
 2371 0157 0E       		.uleb128 0xe
 2372 0158 3A       		.uleb128 0x3a
 2373 0159 0B       		.uleb128 0xb
 2374 015a 3B       		.uleb128 0x3b
 2375 015b 0B       		.uleb128 0xb
 2376 015c 49       		.uleb128 0x49
 2377 015d 13       		.uleb128 0x13
 2378 015e 0B       		.uleb128 0xb
 2379 015f 0B       		.uleb128 0xb
 2380 0160 0D       		.uleb128 0xd
 2381 0161 0B       		.uleb128 0xb
 2382 0162 0C       		.uleb128 0xc
 2383 0163 0B       		.uleb128 0xb
 2384 0164 38       		.uleb128 0x38
 2385 0165 0B       		.uleb128 0xb
 2386 0166 00       		.byte	0
 2387 0167 00       		.byte	0
 2388 0168 1D       		.uleb128 0x1d
 2389 0169 13       		.uleb128 0x13
 2390 016a 01       		.byte	0x1
ARM GAS  C:\Users\RAKIBU~1\AppData\Local\Temp\ccPGqyJw.s 			page 43


 2391 016b 0B       		.uleb128 0xb
 2392 016c 05       		.uleb128 0x5
 2393 016d 3A       		.uleb128 0x3a
 2394 016e 0B       		.uleb128 0xb
 2395 016f 3B       		.uleb128 0x3b
 2396 0170 0B       		.uleb128 0xb
 2397 0171 01       		.uleb128 0x1
 2398 0172 13       		.uleb128 0x13
 2399 0173 00       		.byte	0
 2400 0174 00       		.byte	0
 2401 0175 1E       		.uleb128 0x1e
 2402 0176 0D       		.uleb128 0xd
 2403 0177 00       		.byte	0
 2404 0178 03       		.uleb128 0x3
 2405 0179 0E       		.uleb128 0xe
 2406 017a 3A       		.uleb128 0x3a
 2407 017b 0B       		.uleb128 0xb
 2408 017c 3B       		.uleb128 0x3b
 2409 017d 05       		.uleb128 0x5
 2410 017e 49       		.uleb128 0x49
 2411 017f 13       		.uleb128 0x13
 2412 0180 00       		.byte	0
 2413 0181 00       		.byte	0
 2414 0182 1F       		.uleb128 0x1f
 2415 0183 34       		.uleb128 0x34
 2416 0184 00       		.byte	0
 2417 0185 03       		.uleb128 0x3
 2418 0186 08       		.uleb128 0x8
 2419 0187 3A       		.uleb128 0x3a
 2420 0188 0B       		.uleb128 0xb
 2421 0189 3B       		.uleb128 0x3b
 2422 018a 05       		.uleb128 0x5
 2423 018b 49       		.uleb128 0x49
 2424 018c 13       		.uleb128 0x13
 2425 018d 3F       		.uleb128 0x3f
 2426 018e 19       		.uleb128 0x19
 2427 018f 3C       		.uleb128 0x3c
 2428 0190 19       		.uleb128 0x19
 2429 0191 00       		.byte	0
 2430 0192 00       		.byte	0
 2431 0193 20       		.uleb128 0x20
 2432 0194 21       		.uleb128 0x21
 2433 0195 00       		.byte	0
 2434 0196 00       		.byte	0
 2435 0197 00       		.byte	0
 2436 0198 21       		.uleb128 0x21
 2437 0199 15       		.uleb128 0x15
 2438 019a 01       		.byte	0x1
 2439 019b 27       		.uleb128 0x27
 2440 019c 19       		.uleb128 0x19
 2441 019d 49       		.uleb128 0x49
 2442 019e 13       		.uleb128 0x13
 2443 019f 01       		.uleb128 0x1
 2444 01a0 13       		.uleb128 0x13
 2445 01a1 00       		.byte	0
 2446 01a2 00       		.byte	0
 2447 01a3 22       		.uleb128 0x22
ARM GAS  C:\Users\RAKIBU~1\AppData\Local\Temp\ccPGqyJw.s 			page 44


 2448 01a4 16       		.uleb128 0x16
 2449 01a5 00       		.byte	0
 2450 01a6 03       		.uleb128 0x3
 2451 01a7 0E       		.uleb128 0xe
 2452 01a8 3A       		.uleb128 0x3a
 2453 01a9 0B       		.uleb128 0xb
 2454 01aa 3B       		.uleb128 0x3b
 2455 01ab 05       		.uleb128 0x5
 2456 01ac 49       		.uleb128 0x49
 2457 01ad 13       		.uleb128 0x13
 2458 01ae 00       		.byte	0
 2459 01af 00       		.byte	0
 2460 01b0 23       		.uleb128 0x23
 2461 01b1 2E       		.uleb128 0x2e
 2462 01b2 01       		.byte	0x1
 2463 01b3 3F       		.uleb128 0x3f
 2464 01b4 19       		.uleb128 0x19
 2465 01b5 03       		.uleb128 0x3
 2466 01b6 0E       		.uleb128 0xe
 2467 01b7 3A       		.uleb128 0x3a
 2468 01b8 0B       		.uleb128 0xb
 2469 01b9 3B       		.uleb128 0x3b
 2470 01ba 0B       		.uleb128 0xb
 2471 01bb 27       		.uleb128 0x27
 2472 01bc 19       		.uleb128 0x19
 2473 01bd 11       		.uleb128 0x11
 2474 01be 01       		.uleb128 0x1
 2475 01bf 12       		.uleb128 0x12
 2476 01c0 06       		.uleb128 0x6
 2477 01c1 40       		.uleb128 0x40
 2478 01c2 18       		.uleb128 0x18
 2479 01c3 9742     		.uleb128 0x2117
 2480 01c5 19       		.uleb128 0x19
 2481 01c6 01       		.uleb128 0x1
 2482 01c7 13       		.uleb128 0x13
 2483 01c8 00       		.byte	0
 2484 01c9 00       		.byte	0
 2485 01ca 24       		.uleb128 0x24
 2486 01cb 898201   		.uleb128 0x4109
 2487 01ce 00       		.byte	0
 2488 01cf 11       		.uleb128 0x11
 2489 01d0 01       		.uleb128 0x1
 2490 01d1 31       		.uleb128 0x31
 2491 01d2 13       		.uleb128 0x13
 2492 01d3 00       		.byte	0
 2493 01d4 00       		.byte	0
 2494 01d5 25       		.uleb128 0x25
 2495 01d6 05       		.uleb128 0x5
 2496 01d7 00       		.byte	0
 2497 01d8 03       		.uleb128 0x3
 2498 01d9 08       		.uleb128 0x8
 2499 01da 3A       		.uleb128 0x3a
 2500 01db 0B       		.uleb128 0xb
 2501 01dc 3B       		.uleb128 0x3b
 2502 01dd 0B       		.uleb128 0xb
 2503 01de 49       		.uleb128 0x49
 2504 01df 13       		.uleb128 0x13
ARM GAS  C:\Users\RAKIBU~1\AppData\Local\Temp\ccPGqyJw.s 			page 45


 2505 01e0 02       		.uleb128 0x2
 2506 01e1 17       		.uleb128 0x17
 2507 01e2 00       		.byte	0
 2508 01e3 00       		.byte	0
 2509 01e4 26       		.uleb128 0x26
 2510 01e5 898201   		.uleb128 0x4109
 2511 01e8 01       		.byte	0x1
 2512 01e9 11       		.uleb128 0x11
 2513 01ea 01       		.uleb128 0x1
 2514 01eb 31       		.uleb128 0x31
 2515 01ec 13       		.uleb128 0x13
 2516 01ed 00       		.byte	0
 2517 01ee 00       		.byte	0
 2518 01ef 27       		.uleb128 0x27
 2519 01f0 8A8201   		.uleb128 0x410a
 2520 01f3 00       		.byte	0
 2521 01f4 02       		.uleb128 0x2
 2522 01f5 18       		.uleb128 0x18
 2523 01f6 9142     		.uleb128 0x2111
 2524 01f8 18       		.uleb128 0x18
 2525 01f9 00       		.byte	0
 2526 01fa 00       		.byte	0
 2527 01fb 28       		.uleb128 0x28
 2528 01fc 1D       		.uleb128 0x1d
 2529 01fd 01       		.byte	0x1
 2530 01fe 31       		.uleb128 0x31
 2531 01ff 13       		.uleb128 0x13
 2532 0200 11       		.uleb128 0x11
 2533 0201 01       		.uleb128 0x1
 2534 0202 12       		.uleb128 0x12
 2535 0203 06       		.uleb128 0x6
 2536 0204 58       		.uleb128 0x58
 2537 0205 0B       		.uleb128 0xb
 2538 0206 59       		.uleb128 0x59
 2539 0207 0B       		.uleb128 0xb
 2540 0208 01       		.uleb128 0x1
 2541 0209 13       		.uleb128 0x13
 2542 020a 00       		.byte	0
 2543 020b 00       		.byte	0
 2544 020c 29       		.uleb128 0x29
 2545 020d 1D       		.uleb128 0x1d
 2546 020e 01       		.byte	0x1
 2547 020f 31       		.uleb128 0x31
 2548 0210 13       		.uleb128 0x13
 2549 0211 11       		.uleb128 0x11
 2550 0212 01       		.uleb128 0x1
 2551 0213 12       		.uleb128 0x12
 2552 0214 06       		.uleb128 0x6
 2553 0215 58       		.uleb128 0x58
 2554 0216 0B       		.uleb128 0xb
 2555 0217 59       		.uleb128 0x59
 2556 0218 05       		.uleb128 0x5
 2557 0219 00       		.byte	0
 2558 021a 00       		.byte	0
 2559 021b 2A       		.uleb128 0x2a
 2560 021c 05       		.uleb128 0x5
 2561 021d 00       		.byte	0
ARM GAS  C:\Users\RAKIBU~1\AppData\Local\Temp\ccPGqyJw.s 			page 46


 2562 021e 31       		.uleb128 0x31
 2563 021f 13       		.uleb128 0x13
 2564 0220 02       		.uleb128 0x2
 2565 0221 17       		.uleb128 0x17
 2566 0222 00       		.byte	0
 2567 0223 00       		.byte	0
 2568 0224 2B       		.uleb128 0x2b
 2569 0225 1D       		.uleb128 0x1d
 2570 0226 01       		.byte	0x1
 2571 0227 31       		.uleb128 0x31
 2572 0228 13       		.uleb128 0x13
 2573 0229 11       		.uleb128 0x11
 2574 022a 01       		.uleb128 0x1
 2575 022b 12       		.uleb128 0x12
 2576 022c 06       		.uleb128 0x6
 2577 022d 58       		.uleb128 0x58
 2578 022e 0B       		.uleb128 0xb
 2579 022f 59       		.uleb128 0x59
 2580 0230 0B       		.uleb128 0xb
 2581 0231 00       		.byte	0
 2582 0232 00       		.byte	0
 2583 0233 2C       		.uleb128 0x2c
 2584 0234 898201   		.uleb128 0x4109
 2585 0237 01       		.byte	0x1
 2586 0238 11       		.uleb128 0x11
 2587 0239 01       		.uleb128 0x1
 2588 023a 31       		.uleb128 0x31
 2589 023b 13       		.uleb128 0x13
 2590 023c 01       		.uleb128 0x1
 2591 023d 13       		.uleb128 0x13
 2592 023e 00       		.byte	0
 2593 023f 00       		.byte	0
 2594 0240 2D       		.uleb128 0x2d
 2595 0241 2E       		.uleb128 0x2e
 2596 0242 00       		.byte	0
 2597 0243 03       		.uleb128 0x3
 2598 0244 0E       		.uleb128 0xe
 2599 0245 3A       		.uleb128 0x3a
 2600 0246 0B       		.uleb128 0xb
 2601 0247 3B       		.uleb128 0x3b
 2602 0248 05       		.uleb128 0x5
 2603 0249 27       		.uleb128 0x27
 2604 024a 19       		.uleb128 0x19
 2605 024b 20       		.uleb128 0x20
 2606 024c 0B       		.uleb128 0xb
 2607 024d 00       		.byte	0
 2608 024e 00       		.byte	0
 2609 024f 2E       		.uleb128 0x2e
 2610 0250 2E       		.uleb128 0x2e
 2611 0251 01       		.byte	0x1
 2612 0252 03       		.uleb128 0x3
 2613 0253 0E       		.uleb128 0xe
 2614 0254 3A       		.uleb128 0x3a
 2615 0255 0B       		.uleb128 0xb
 2616 0256 3B       		.uleb128 0x3b
 2617 0257 05       		.uleb128 0x5
 2618 0258 27       		.uleb128 0x27
ARM GAS  C:\Users\RAKIBU~1\AppData\Local\Temp\ccPGqyJw.s 			page 47


 2619 0259 19       		.uleb128 0x19
 2620 025a 20       		.uleb128 0x20
 2621 025b 0B       		.uleb128 0xb
 2622 025c 01       		.uleb128 0x1
 2623 025d 13       		.uleb128 0x13
 2624 025e 00       		.byte	0
 2625 025f 00       		.byte	0
 2626 0260 2F       		.uleb128 0x2f
 2627 0261 05       		.uleb128 0x5
 2628 0262 00       		.byte	0
 2629 0263 03       		.uleb128 0x3
 2630 0264 0E       		.uleb128 0xe
 2631 0265 3A       		.uleb128 0x3a
 2632 0266 0B       		.uleb128 0xb
 2633 0267 3B       		.uleb128 0x3b
 2634 0268 05       		.uleb128 0x5
 2635 0269 49       		.uleb128 0x49
 2636 026a 13       		.uleb128 0x13
 2637 026b 00       		.byte	0
 2638 026c 00       		.byte	0
 2639 026d 30       		.uleb128 0x30
 2640 026e 2E       		.uleb128 0x2e
 2641 026f 00       		.byte	0
 2642 0270 3F       		.uleb128 0x3f
 2643 0271 19       		.uleb128 0x19
 2644 0272 3C       		.uleb128 0x3c
 2645 0273 19       		.uleb128 0x19
 2646 0274 6E       		.uleb128 0x6e
 2647 0275 0E       		.uleb128 0xe
 2648 0276 03       		.uleb128 0x3
 2649 0277 0E       		.uleb128 0xe
 2650 0278 3A       		.uleb128 0x3a
 2651 0279 0B       		.uleb128 0xb
 2652 027a 3B       		.uleb128 0x3b
 2653 027b 0B       		.uleb128 0xb
 2654 027c 00       		.byte	0
 2655 027d 00       		.byte	0
 2656 027e 00       		.byte	0
 2657              		.section	.debug_loc,"",%progbits
 2658              	.Ldebug_loc0:
 2659              	.LLST2:
 2660 0000 50000000 		.4byte	.LVL6-.Ltext0
 2661 0004 68000000 		.4byte	.LVL8-.Ltext0
 2662 0008 0100     		.2byte	0x1
 2663 000a 50       		.byte	0x50
 2664 000b 68000000 		.4byte	.LVL8-.Ltext0
 2665 000f 6B000000 		.4byte	.LVL9-1-.Ltext0
 2666 0013 0400     		.2byte	0x4
 2667 0015 71       		.byte	0x71
 2668 0016 B87F     		.sleb128 -72
 2669 0018 9F       		.byte	0x9f
 2670 0019 6B000000 		.4byte	.LVL9-1-.Ltext0
 2671 001d 74000000 		.4byte	.LFE297-.Ltext0
 2672 0021 0400     		.2byte	0x4
 2673 0023 F3       		.byte	0xf3
 2674 0024 01       		.uleb128 0x1
 2675 0025 50       		.byte	0x50
ARM GAS  C:\Users\RAKIBU~1\AppData\Local\Temp\ccPGqyJw.s 			page 48


 2676 0026 9F       		.byte	0x9f
 2677 0027 00000000 		.4byte	0
 2678 002b 00000000 		.4byte	0
 2679              	.LLST3:
 2680 002f 50000000 		.4byte	.LVL6-.Ltext0
 2681 0033 66000000 		.4byte	.LVL7-.Ltext0
 2682 0037 0100     		.2byte	0x1
 2683 0039 51       		.byte	0x51
 2684 003a 66000000 		.4byte	.LVL7-.Ltext0
 2685 003e 6B000000 		.4byte	.LVL9-1-.Ltext0
 2686 0042 0400     		.2byte	0x4
 2687 0044 73       		.byte	0x73
 2688 0045 B87F     		.sleb128 -72
 2689 0047 9F       		.byte	0x9f
 2690 0048 6B000000 		.4byte	.LVL9-1-.Ltext0
 2691 004c 74000000 		.4byte	.LFE297-.Ltext0
 2692 0050 0400     		.2byte	0x4
 2693 0052 F3       		.byte	0xf3
 2694 0053 01       		.uleb128 0x1
 2695 0054 51       		.byte	0x51
 2696 0055 9F       		.byte	0x9f
 2697 0056 00000000 		.4byte	0
 2698 005a 00000000 		.4byte	0
 2699              	.LLST0:
 2700 005e 30000000 		.4byte	.LVL2-.Ltext0
 2701 0062 36000000 		.4byte	.LVL3-.Ltext0
 2702 0066 0300     		.2byte	0x3
 2703 0068 08       		.byte	0x8
 2704 0069 20       		.byte	0x20
 2705 006a 9F       		.byte	0x9f
 2706 006b 00000000 		.4byte	0
 2707 006f 00000000 		.4byte	0
 2708              	.LLST1:
 2709 0073 42000000 		.4byte	.LVL4-.Ltext0
 2710 0077 48000000 		.4byte	.LVL5-.Ltext0
 2711 007b 0200     		.2byte	0x2
 2712 007d 30       		.byte	0x30
 2713 007e 9F       		.byte	0x9f
 2714 007f 00000000 		.4byte	0
 2715 0083 00000000 		.4byte	0
 2716              		.section	.debug_aranges,"",%progbits
 2717 0000 1C000000 		.4byte	0x1c
 2718 0004 0200     		.2byte	0x2
 2719 0006 00000000 		.4byte	.Ldebug_info0
 2720 000a 04       		.byte	0x4
 2721 000b 00       		.byte	0
 2722 000c 0000     		.2byte	0
 2723 000e 0000     		.2byte	0
 2724 0010 00000000 		.4byte	.Ltext0
 2725 0014 C0000000 		.4byte	.Letext0-.Ltext0
 2726 0018 00000000 		.4byte	0
 2727 001c 00000000 		.4byte	0
 2728              		.section	.debug_line,"",%progbits
 2729              	.Ldebug_line0:
 2730 0000 1D040000 		.section	.debug_str,"MS",%progbits,1
 2730      0200DA03 
 2730      00000201 
ARM GAS  C:\Users\RAKIBU~1\AppData\Local\Temp\ccPGqyJw.s 			page 49


 2730      FB0E0D00 
 2730      01010101 
 2731              	.LASF56:
 2732 0000 72656164 		.ascii	"ready_list_t\000"
 2732      795F6C69 
 2732      73745F74 
 2732      00
 2733              	.LASF4:
 2734 000d 73697A65 		.ascii	"size_t\000"
 2734      5F7400
 2735              	.LASF52:
 2736 0014 6E657874 		.ascii	"next\000"
 2736      00
 2737              	.LASF62:
 2738 0019 64656C74 		.ascii	"delta\000"
 2738      6100
 2739              	.LASF114:
 2740 001f 7264796D 		.ascii	"rdymsg\000"
 2740      736700
 2741              	.LASF20:
 2742 0026 75696E74 		.ascii	"uint64_t\000"
 2742      36345F74 
 2742      00
 2743              	.LASF78:
 2744 002f 6B65726E 		.ascii	"kernel_stats\000"
 2744      656C5F73 
 2744      74617473 
 2744      00
 2745              	.LASF5:
 2746 003c 5F5F7569 		.ascii	"__uint8_t\000"
 2746      6E74385F 
 2746      7400
 2747              	.LASF55:
 2748 0046 70726576 		.ascii	"prev\000"
 2748      00
 2749              	.LASF88:
 2750 004b 706F7274 		.ascii	"port_intctx\000"
 2750      5F696E74 
 2750      63747800 
 2751              	.LASF54:
 2752 0057 63685F74 		.ascii	"ch_threads_queue\000"
 2752      68726561 
 2752      64735F71 
 2752      75657565 
 2752      00
 2753              	.LASF67:
 2754 0068 73797374 		.ascii	"system_debug_t\000"
 2754      656D5F64 
 2754      65627567 
 2754      5F7400
 2755              	.LASF154:
 2756 0077 70726F76 		.ascii	"provider\000"
 2756      69646572 
 2756      00
 2757              	.LASF94:
 2758 0080 74797065 		.ascii	"type\000"
 2758      00
ARM GAS  C:\Users\RAKIBU~1\AppData\Local\Temp\ccPGqyJw.s 			page 50


 2759              	.LASF164:
 2760 0085 73656D5F 		.ascii	"sem_list\000"
 2760      6C697374 
 2760      00
 2761              	.LASF181:
 2762 008e 706F7274 		.ascii	"port_lock\000"
 2762      5F6C6F63 
 2762      6B00
 2763              	.LASF105:
 2764 0098 776F7273 		.ascii	"worst\000"
 2764      7400
 2765              	.LASF108:
 2766 009e 74696D65 		.ascii	"time_measurement_t\000"
 2766      5F6D6561 
 2766      73757265 
 2766      6D656E74 
 2766      5F7400
 2767              	.LASF15:
 2768 00b1 6C6F6E67 		.ascii	"long long unsigned int\000"
 2768      206C6F6E 
 2768      6720756E 
 2768      7369676E 
 2768      65642069 
 2769              	.LASF101:
 2770 00c8 63685F74 		.ascii	"ch_trace_buffer_t\000"
 2770      72616365 
 2770      5F627566 
 2770      6665725F 
 2770      7400
 2771              	.LASF115:
 2772 00da 65786974 		.ascii	"exitcode\000"
 2772      636F6465 
 2772      00
 2773              	.LASF77:
 2774 00e3 6D61696E 		.ascii	"mainthread\000"
 2774      74687265 
 2774      616400
 2775              	.LASF174:
 2776 00ee 5F737461 		.ascii	"_stats_start_measure_crit_thd\000"
 2776      74735F73 
 2776      74617274 
 2776      5F6D6561 
 2776      73757265 
 2777              	.LASF64:
 2778 010c 76697274 		.ascii	"virtual_timers_list_t\000"
 2778      75616C5F 
 2778      74696D65 
 2778      72735F6C 
 2778      6973745F 
 2779              	.LASF185:
 2780 0122 6368544D 		.ascii	"chTMObjectInit\000"
 2780      4F626A65 
 2780      6374496E 
 2780      697400
 2781              	.LASF157:
 2782 0131 64796E5F 		.ascii	"dyn_element_t\000"
 2782      656C656D 
ARM GAS  C:\Users\RAKIBU~1\AppData\Local\Temp\ccPGqyJw.s 			page 51


 2782      656E745F 
 2782      7400
 2783              	.LASF153:
 2784 013f 616C6967 		.ascii	"align\000"
 2784      6E00
 2785              	.LASF22:
 2786 0145 72747469 		.ascii	"rttime_t\000"
 2786      6D655F74 
 2786      00
 2787              	.LASF187:
 2788 014e 2E2E2F2E 		.ascii	"../../../ChibiOSRepo/chibios191/os/rt/src/chstats.c"
 2788      2E2F2E2E 
 2788      2F436869 
 2788      62694F53 
 2788      5265706F 
 2789 0181 00       		.ascii	"\000"
 2790              	.LASF1:
 2791 0182 6C6F6E67 		.ascii	"long long int\000"
 2791      206C6F6E 
 2791      6720696E 
 2791      7400
 2792              	.LASF3:
 2793 0190 7369676E 		.ascii	"signed char\000"
 2793      65642063 
 2793      68617200 
 2794              	.LASF156:
 2795 019c 63685F64 		.ascii	"ch_dyn_element\000"
 2795      796E5F65 
 2795      6C656D65 
 2795      6E7400
 2796              	.LASF99:
 2797 01ab 73697A65 		.ascii	"size\000"
 2797      00
 2798              	.LASF75:
 2799 01b0 726C6973 		.ascii	"rlist\000"
 2799      7400
 2800              	.LASF190:
 2801 01b6 62617365 		.ascii	"basePri\000"
 2801      50726900 
 2802              	.LASF76:
 2803 01be 76746C69 		.ascii	"vtlist\000"
 2803      737400
 2804              	.LASF180:
 2805 01c5 706F7274 		.ascii	"port_unlock\000"
 2805      5F756E6C 
 2805      6F636B00 
 2806              	.LASF183:
 2807 01d1 6368544D 		.ascii	"chTMStartMeasurementX\000"
 2807      53746172 
 2807      744D6561 
 2807      73757265 
 2807      6D656E74 
 2808              	.LASF38:
 2809 01e7 73746174 		.ascii	"state\000"
 2809      6500
 2810              	.LASF182:
 2811 01ed 6368544D 		.ascii	"chTMStopMeasurementX\000"
ARM GAS  C:\Users\RAKIBU~1\AppData\Local\Temp\ccPGqyJw.s 			page 52


 2811      53746F70 
 2811      4D656173 
 2811      7572656D 
 2811      656E7458 
 2812              	.LASF11:
 2813 0202 6C6F6E67 		.ascii	"long int\000"
 2813      20696E74 
 2813      00
 2814              	.LASF98:
 2815 020b 73757370 		.ascii	"suspended\000"
 2815      656E6465 
 2815      6400
 2816              	.LASF24:
 2817 0215 74737461 		.ascii	"tstate_t\000"
 2817      74655F74 
 2817      00
 2818              	.LASF97:
 2819 021e 63685F74 		.ascii	"ch_trace_event_t\000"
 2819      72616365 
 2819      5F657665 
 2819      6E745F74 
 2819      00
 2820              	.LASF63:
 2821 022f 66756E63 		.ascii	"func\000"
 2821      00
 2822              	.LASF47:
 2823 0234 73746174 		.ascii	"stats\000"
 2823      7300
 2824              	.LASF125:
 2825 023a 6964656E 		.ascii	"identifier\000"
 2825      74696669 
 2825      657200
 2826              	.LASF17:
 2827 0245 75696E74 		.ascii	"uint16_t\000"
 2827      31365F74 
 2827      00
 2828              	.LASF142:
 2829 024e 63686465 		.ascii	"chdebug_t\000"
 2829      6275675F 
 2829      7400
 2830              	.LASF140:
 2831 0258 6F66665F 		.ascii	"off_preempt\000"
 2831      70726565 
 2831      6D707400 
 2832              	.LASF100:
 2833 0264 62756666 		.ascii	"buffer\000"
 2833      657200
 2834              	.LASF139:
 2835 026b 6F66665F 		.ascii	"off_refs\000"
 2835      72656673 
 2835      00
 2836              	.LASF12:
 2837 0274 5F5F7569 		.ascii	"__uint32_t\000"
 2837      6E743332 
 2837      5F7400
 2838              	.LASF85:
 2839 027f 72656761 		.ascii	"regarm_t\000"
ARM GAS  C:\Users\RAKIBU~1\AppData\Local\Temp\ccPGqyJw.s 			page 53


 2839      726D5F74 
 2839      00
 2840              	.LASF166:
 2841 0288 6D62785F 		.ascii	"mbx_list\000"
 2841      6C697374 
 2841      00
 2842              	.LASF68:
 2843 0291 63685F73 		.ascii	"ch_system_debug\000"
 2843      79737465 
 2843      6D5F6465 
 2843      62756700 
 2844              	.LASF41:
 2845 02a1 77616974 		.ascii	"waiting\000"
 2845      696E6700 
 2846              	.LASF84:
 2847 02a9 41504250 		.ascii	"APBPrescTable\000"
 2847      72657363 
 2847      5461626C 
 2847      6500
 2848              	.LASF126:
 2849 02b7 7A65726F 		.ascii	"zero\000"
 2849      00
 2850              	.LASF144:
 2851 02bc 6D757465 		.ascii	"mutex_t\000"
 2851      785F7400 
 2852              	.LASF71:
 2853 02c4 6C6F636B 		.ascii	"lock_cnt\000"
 2853      5F636E74 
 2853      00
 2854              	.LASF80:
 2855 02cd 73797369 		.ascii	"sysinterval_t\000"
 2855      6E746572 
 2855      76616C5F 
 2855      7400
 2856              	.LASF29:
 2857 02db 636E745F 		.ascii	"cnt_t\000"
 2857      7400
 2858              	.LASF42:
 2859 02e1 6D736771 		.ascii	"msgqueue\000"
 2859      75657565 
 2859      00
 2860              	.LASF0:
 2861 02ea 756E7369 		.ascii	"unsigned int\000"
 2861      676E6564 
 2861      20696E74 
 2861      00
 2862              	.LASF82:
 2863 02f7 53797374 		.ascii	"SystemCoreClock\000"
 2863      656D436F 
 2863      7265436C 
 2863      6F636B00 
 2864              	.LASF118:
 2865 0307 77747365 		.ascii	"wtsemp\000"
 2865      6D7000
 2866              	.LASF116:
 2867 030e 77747472 		.ascii	"wttrp\000"
 2867      7000
ARM GAS  C:\Users\RAKIBU~1\AppData\Local\Temp\ccPGqyJw.s 			page 54


 2868              	.LASF143:
 2869 0314 63685F64 		.ascii	"ch_debug\000"
 2869      65627567 
 2869      00
 2870              	.LASF155:
 2871 031d 6D656D6F 		.ascii	"memory_pool_t\000"
 2871      72795F70 
 2871      6F6F6C5F 
 2871      7400
 2872              	.LASF109:
 2873 032b 6E5F6972 		.ascii	"n_irq\000"
 2873      7100
 2874              	.LASF32:
 2875 0331 71756575 		.ascii	"queue\000"
 2875      6500
 2876              	.LASF46:
 2877 0337 6D706F6F 		.ascii	"mpool\000"
 2877      6C00
 2878              	.LASF188:
 2879 033d 433A5C55 		.ascii	"C:\\Users\\RakibulChowdhury\\OneDrive - DIAS Geophy"
 2879      73657273 
 2879      5C52616B 
 2879      6962756C 
 2879      43686F77 
 2880 036d 73696361 		.ascii	"sical\\Dias32FirmwareDevelopment\\FirmwareRepo\\Dia"
 2880      6C5C4469 
 2880      61733332 
 2880      4669726D 
 2880      77617265 
 2881 039d 73333257 		.ascii	"s32Workspace\\DIAS-Gen2-Rakibul\000"
 2881      6F726B73 
 2881      70616365 
 2881      5C444941 
 2881      532D4765 
 2882              	.LASF113:
 2883 03bc 6B65726E 		.ascii	"kernel_stats_t\000"
 2883      656C5F73 
 2883      74617473 
 2883      5F7400
 2884              	.LASF36:
 2885 03cb 6E616D65 		.ascii	"name\000"
 2885      00
 2886              	.LASF50:
 2887 03d0 63685F74 		.ascii	"ch_thread\000"
 2887      68726561 
 2887      6400
 2888              	.LASF27:
 2889 03da 6D73675F 		.ascii	"msg_t\000"
 2889      7400
 2890              	.LASF30:
 2891 03e0 75636E74 		.ascii	"ucnt_t\000"
 2891      5F7400
 2892              	.LASF43:
 2893 03e7 6570656E 		.ascii	"epending\000"
 2893      64696E67 
 2893      00
 2894              	.LASF159:
ARM GAS  C:\Users\RAKIBU~1\AppData\Local\Temp\ccPGqyJw.s 			page 55


 2895 03f0 64796E5F 		.ascii	"dyn_list_t\000"
 2895      6C697374 
 2895      5F7400
 2896              	.LASF73:
 2897 03fb 63685F73 		.ascii	"ch_system_t\000"
 2897      79737465 
 2897      6D5F7400 
 2898              	.LASF132:
 2899 0407 6F66665F 		.ascii	"off_ctx\000"
 2899      63747800 
 2900              	.LASF23:
 2901 040f 746D6F64 		.ascii	"tmode_t\000"
 2901      655F7400 
 2902              	.LASF112:
 2903 0417 6D5F6372 		.ascii	"m_crit_isr\000"
 2903      69745F69 
 2903      737200
 2904              	.LASF57:
 2905 0422 63685F72 		.ascii	"ch_ready_list\000"
 2905      65616479 
 2905      5F6C6973 
 2905      7400
 2906              	.LASF28:
 2907 0430 6576656E 		.ascii	"eventmask_t\000"
 2907      746D6173 
 2907      6B5F7400 
 2908              	.LASF83:
 2909 043c 41484250 		.ascii	"AHBPrescTable\000"
 2909      72657363 
 2909      5461626C 
 2909      6500
 2910              	.LASF148:
 2911 044a 656E646D 		.ascii	"endmem\000"
 2911      656D00
 2912              	.LASF184:
 2913 0451 6368544D 		.ascii	"chTMChainMeasurementToX\000"
 2913      43686169 
 2913      6E4D6561 
 2913      73757265 
 2913      6D656E74 
 2914              	.LASF86:
 2915 0469 73746B61 		.ascii	"stkalign_t\000"
 2915      6C69676E 
 2915      5F7400
 2916              	.LASF34:
 2917 0474 6E657765 		.ascii	"newer\000"
 2917      7200
 2918              	.LASF95:
 2919 047a 72747374 		.ascii	"rtstamp\000"
 2919      616D7000 
 2920              	.LASF45:
 2921 0482 7265616C 		.ascii	"realprio\000"
 2921      7072696F 
 2921      00
 2922              	.LASF127:
 2923 048b 76657273 		.ascii	"version\000"
 2923      696F6E00 
ARM GAS  C:\Users\RAKIBU~1\AppData\Local\Temp\ccPGqyJw.s 			page 56


 2924              	.LASF173:
 2925 0493 5F737461 		.ascii	"_stats_stop_measure_crit_thd\000"
 2925      74735F73 
 2925      746F705F 
 2925      6D656173 
 2925      7572655F 
 2926              	.LASF21:
 2927 04b0 7274636E 		.ascii	"rtcnt_t\000"
 2927      745F7400 
 2928              	.LASF48:
 2929 04b8 74687265 		.ascii	"thread_reference_t\000"
 2929      61645F72 
 2929      65666572 
 2929      656E6365 
 2929      5F7400
 2930              	.LASF65:
 2931 04cb 63685F76 		.ascii	"ch_virtual_timers_list\000"
 2931      69727475 
 2931      616C5F74 
 2931      696D6572 
 2931      735F6C69 
 2932              	.LASF2:
 2933 04e2 6C6F6E67 		.ascii	"long double\000"
 2933      20646F75 
 2933      626C6500 
 2934              	.LASF158:
 2935 04ee 63685F64 		.ascii	"ch_dyn_list\000"
 2935      796E5F6C 
 2935      69737400 
 2936              	.LASF133:
 2937 04fa 6F66665F 		.ascii	"off_newer\000"
 2937      6E657765 
 2937      7200
 2938              	.LASF87:
 2939 0504 706F7274 		.ascii	"port_context\000"
 2939      5F636F6E 
 2939      74657874 
 2939      00
 2940              	.LASF103:
 2941 0511 746D5F63 		.ascii	"tm_calibration_t\000"
 2941      616C6962 
 2941      72617469 
 2941      6F6E5F74 
 2941      00
 2942              	.LASF186:
 2943 0522 474E5520 		.ascii	"GNU C11 7.2.1 20170904 (release) [ARM/embedded-7-br"
 2943      43313120 
 2943      372E322E 
 2943      31203230 
 2943      31373039 
 2944 0555 616E6368 		.ascii	"anch revision 255204] -mcpu=cortex-m4 -mthumb -ggdb"
 2944      20726576 
 2944      6973696F 
 2944      6E203235 
 2944      35323034 
 2945 0588 202D4F67 		.ascii	" -Og -fomit-frame-pointer -falign-functions=16\000"
 2945      202D666F 
ARM GAS  C:\Users\RAKIBU~1\AppData\Local\Temp\ccPGqyJw.s 			page 57


 2945      6D69742D 
 2945      6672616D 
 2945      652D706F 
 2946              	.LASF96:
 2947 05b7 74696D65 		.ascii	"time\000"
 2947      00
 2948              	.LASF33:
 2949 05bc 7072696F 		.ascii	"prio\000"
 2949      00
 2950              	.LASF172:
 2951 05c1 5F737461 		.ascii	"_stats_start_measure_crit_isr\000"
 2951      74735F73 
 2951      74617274 
 2951      5F6D6561 
 2951      73757265 
 2952              	.LASF165:
 2953 05df 73656D5F 		.ascii	"sem_pool\000"
 2953      706F6F6C 
 2953      00
 2954              	.LASF58:
 2955 05e8 63757272 		.ascii	"current\000"
 2955      656E7400 
 2956              	.LASF106:
 2957 05f0 6C617374 		.ascii	"last\000"
 2957      00
 2958              	.LASF14:
 2959 05f5 5F5F7569 		.ascii	"__uint64_t\000"
 2959      6E743634 
 2959      5F7400
 2960              	.LASF149:
 2961 0600 6D656D63 		.ascii	"memcore_t\000"
 2961      6F72655F 
 2961      7400
 2962              	.LASF107:
 2963 060a 63756D75 		.ascii	"cumulative\000"
 2963      6C617469 
 2963      766500
 2964              	.LASF146:
 2965 0615 6D656D67 		.ascii	"memgetfunc_t\000"
 2965      65746675 
 2965      6E635F74 
 2965      00
 2966              	.LASF25:
 2967 0622 74726566 		.ascii	"trefs_t\000"
 2967      735F7400 
 2968              	.LASF130:
 2969 062a 74687265 		.ascii	"threadsize\000"
 2969      61647369 
 2969      7A6500
 2970              	.LASF40:
 2971 0635 72656673 		.ascii	"refs\000"
 2971      00
 2972              	.LASF60:
 2973 063a 76697274 		.ascii	"virtual_timer_t\000"
 2973      75616C5F 
 2973      74696D65 
 2973      725F7400 
ARM GAS  C:\Users\RAKIBU~1\AppData\Local\Temp\ccPGqyJw.s 			page 58


 2974              	.LASF93:
 2975 064a 75736572 		.ascii	"user\000"
 2975      00
 2976              	.LASF26:
 2977 064f 74707269 		.ascii	"tprio_t\000"
 2977      6F5F7400 
 2978              	.LASF163:
 2979 0657 6275665F 		.ascii	"buf_list\000"
 2979      6C697374 
 2979      00
 2980              	.LASF110:
 2981 0660 6E5F6374 		.ascii	"n_ctxswc\000"
 2981      78737763 
 2981      00
 2982              	.LASF145:
 2983 0669 5F426F6F 		.ascii	"_Bool\000"
 2983      6C00
 2984              	.LASF18:
 2985 066f 696E7433 		.ascii	"int32_t\000"
 2985      325F7400 
 2986              	.LASF6:
 2987 0677 756E7369 		.ascii	"unsigned char\000"
 2987      676E6564 
 2987      20636861 
 2987      7200
 2988              	.LASF131:
 2989 0685 6F66665F 		.ascii	"off_prio\000"
 2989      7072696F 
 2989      00
 2990              	.LASF136:
 2991 068e 6F66665F 		.ascii	"off_stklimit\000"
 2991      73746B6C 
 2991      696D6974 
 2991      00
 2992              	.LASF81:
 2993 069b 49544D5F 		.ascii	"ITM_RxBuffer\000"
 2993      52784275 
 2993      66666572 
 2993      00
 2994              	.LASF7:
 2995 06a8 73686F72 		.ascii	"short int\000"
 2995      7420696E 
 2995      7400
 2996              	.LASF66:
 2997 06b2 6C617374 		.ascii	"lasttime\000"
 2997      74696D65 
 2997      00
 2998              	.LASF92:
 2999 06bb 68616C74 		.ascii	"halt\000"
 2999      00
 3000              	.LASF120:
 3001 06c0 65776D61 		.ascii	"ewmask\000"
 3001      736B00
 3002              	.LASF74:
 3003 06c7 63685F73 		.ascii	"ch_system\000"
 3003      79737465 
 3003      6D00
ARM GAS  C:\Users\RAKIBU~1\AppData\Local\Temp\ccPGqyJw.s 			page 59


 3004              	.LASF170:
 3005 06d1 63685F66 		.ascii	"ch_factory\000"
 3005      6163746F 
 3005      727900
 3006              	.LASF162:
 3007 06dc 6F626A5F 		.ascii	"obj_pool\000"
 3007      706F6F6C 
 3007      00
 3008              	.LASF91:
 3009 06e5 72656173 		.ascii	"reason\000"
 3009      6F6E00
 3010              	.LASF61:
 3011 06ec 63685F76 		.ascii	"ch_virtual_timer\000"
 3011      69727475 
 3011      616C5F74 
 3011      696D6572 
 3011      00
 3012              	.LASF121:
 3013 06fd 63685F73 		.ascii	"ch_semaphore\000"
 3013      656D6170 
 3013      686F7265 
 3013      00
 3014              	.LASF141:
 3015 070a 6F66665F 		.ascii	"off_time\000"
 3015      74696D65 
 3015      00
 3016              	.LASF124:
 3017 0713 63685F69 		.ascii	"ch_idle_thread_wa\000"
 3017      646C655F 
 3017      74687265 
 3017      61645F77 
 3017      6100
 3018              	.LASF129:
 3019 0725 74696D65 		.ascii	"timesize\000"
 3019      73697A65 
 3019      00
 3020              	.LASF168:
 3021 072e 70697065 		.ascii	"pipe_list\000"
 3021      5F6C6973 
 3021      7400
 3022              	.LASF19:
 3023 0738 75696E74 		.ascii	"uint32_t\000"
 3023      33325F74 
 3023      00
 3024              	.LASF176:
 3025 0741 5F737461 		.ascii	"_stats_increase_irq\000"
 3025      74735F69 
 3025      6E637265 
 3025      6173655F 
 3025      69727100 
 3026              	.LASF51:
 3027 0755 63685F74 		.ascii	"ch_threads_list\000"
 3027      68726561 
 3027      64735F6C 
 3027      69737400 
 3028              	.LASF123:
 3029 0765 6F776E65 		.ascii	"owner\000"
ARM GAS  C:\Users\RAKIBU~1\AppData\Local\Temp\ccPGqyJw.s 			page 60


 3029      7200
 3030              	.LASF13:
 3031 076b 6C6F6E67 		.ascii	"long unsigned int\000"
 3031      20756E73 
 3031      69676E65 
 3031      6420696E 
 3031      7400
 3032              	.LASF37:
 3033 077d 77616261 		.ascii	"wabase\000"
 3033      736500
 3034              	.LASF90:
 3035 0784 63686172 		.ascii	"char\000"
 3035      00
 3036              	.LASF35:
 3037 0789 6F6C6465 		.ascii	"older\000"
 3037      7200
 3038              	.LASF10:
 3039 078f 5F5F696E 		.ascii	"__int32_t\000"
 3039      7433325F 
 3039      7400
 3040              	.LASF161:
 3041 0799 6F626A5F 		.ascii	"obj_list\000"
 3041      6C697374 
 3041      00
 3042              	.LASF8:
 3043 07a2 5F5F7569 		.ascii	"__uint16_t\000"
 3043      6E743136 
 3043      5F7400
 3044              	.LASF178:
 3045 07ad 706F7274 		.ascii	"port_unlock_from_isr\000"
 3045      5F756E6C 
 3045      6F636B5F 
 3045      66726F6D 
 3045      5F697372 
 3046              	.LASF31:
 3047 07c2 74687265 		.ascii	"thread_t\000"
 3047      61645F74 
 3047      00
 3048              	.LASF104:
 3049 07cb 62657374 		.ascii	"best\000"
 3049      00
 3050              	.LASF150:
 3051 07d0 63685F6D 		.ascii	"ch_memcore\000"
 3051      656D636F 
 3051      726500
 3052              	.LASF79:
 3053 07db 73797374 		.ascii	"systime_t\000"
 3053      696D655F 
 3053      7400
 3054              	.LASF59:
 3055 07e5 76746675 		.ascii	"vtfunc_t\000"
 3055      6E635F74 
 3055      00
 3056              	.LASF189:
 3057 07ee 5F5F7365 		.ascii	"__set_BASEPRI\000"
 3057      745F4241 
 3057      53455052 
ARM GAS  C:\Users\RAKIBU~1\AppData\Local\Temp\ccPGqyJw.s 			page 61


 3057      4900
 3058              	.LASF119:
 3059 07fc 77746D74 		.ascii	"wtmtxp\000"
 3059      787000
 3060              	.LASF69:
 3061 0803 70616E69 		.ascii	"panic_msg\000"
 3061      635F6D73 
 3061      6700
 3062              	.LASF102:
 3063 080d 6F666673 		.ascii	"offset\000"
 3063      657400
 3064              	.LASF122:
 3065 0814 63685F6D 		.ascii	"ch_mutex\000"
 3065      75746578 
 3065      00
 3066              	.LASF134:
 3067 081d 6F66665F 		.ascii	"off_older\000"
 3067      6F6C6465 
 3067      7200
 3068              	.LASF9:
 3069 0827 73686F72 		.ascii	"short unsigned int\000"
 3069      7420756E 
 3069      7369676E 
 3069      65642069 
 3069      6E7400
 3070              	.LASF179:
 3071 083a 706F7274 		.ascii	"port_lock_from_isr\000"
 3071      5F6C6F63 
 3071      6B5F6672 
 3071      6F6D5F69 
 3071      737200
 3072              	.LASF152:
 3073 084d 6F626A65 		.ascii	"object_size\000"
 3073      63745F73 
 3073      697A6500 
 3074              	.LASF128:
 3075 0859 70747273 		.ascii	"ptrsize\000"
 3075      697A6500 
 3076              	.LASF160:
 3077 0861 63685F6F 		.ascii	"ch_objects_factory\000"
 3077      626A6563 
 3077      74735F66 
 3077      6163746F 
 3077      727900
 3078              	.LASF53:
 3079 0874 74687265 		.ascii	"threads_queue_t\000"
 3079      6164735F 
 3079      71756575 
 3079      655F7400 
 3080              	.LASF151:
 3081 0884 706F6F6C 		.ascii	"pool_header\000"
 3081      5F686561 
 3081      64657200 
 3082              	.LASF70:
 3083 0890 6973725F 		.ascii	"isr_cnt\000"
 3083      636E7400 
 3084              	.LASF135:
ARM GAS  C:\Users\RAKIBU~1\AppData\Local\Temp\ccPGqyJw.s 			page 62


 3085 0898 6F66665F 		.ascii	"off_name\000"
 3085      6E616D65 
 3085      00
 3086              	.LASF16:
 3087 08a1 75696E74 		.ascii	"uint8_t\000"
 3087      385F7400 
 3088              	.LASF39:
 3089 08a9 666C6167 		.ascii	"flags\000"
 3089      7300
 3090              	.LASF167:
 3091 08af 6669666F 		.ascii	"fifo_list\000"
 3091      5F6C6973 
 3091      7400
 3092              	.LASF175:
 3093 08b9 5F737461 		.ascii	"_stats_ctxswc\000"
 3093      74735F63 
 3093      74787377 
 3093      6300
 3094              	.LASF89:
 3095 08c7 77746F62 		.ascii	"wtobjp\000"
 3095      6A7000
 3096              	.LASF49:
 3097 08ce 74687265 		.ascii	"threads_list_t\000"
 3097      6164735F 
 3097      6C697374 
 3097      5F7400
 3098              	.LASF137:
 3099 08dd 6F66665F 		.ascii	"off_state\000"
 3099      73746174 
 3099      6500
 3100              	.LASF72:
 3101 08e7 74726163 		.ascii	"trace_buffer\000"
 3101      655F6275 
 3101      66666572 
 3101      00
 3102              	.LASF169:
 3103 08f4 6F626A65 		.ascii	"objects_factory_t\000"
 3103      6374735F 
 3103      66616374 
 3103      6F72795F 
 3103      7400
 3104              	.LASF177:
 3105 0906 5F737461 		.ascii	"_stats_init\000"
 3105      74735F69 
 3105      6E697400 
 3106              	.LASF171:
 3107 0912 5F737461 		.ascii	"_stats_stop_measure_crit_isr\000"
 3107      74735F73 
 3107      746F705F 
 3107      6D656173 
 3107      7572655F 
 3108              	.LASF138:
 3109 092f 6F66665F 		.ascii	"off_flags\000"
 3109      666C6167 
 3109      7300
 3110              	.LASF44:
 3111 0939 6D74786C 		.ascii	"mtxlist\000"
ARM GAS  C:\Users\RAKIBU~1\AppData\Local\Temp\ccPGqyJw.s 			page 63


 3111      69737400 
 3112              	.LASF117:
 3113 0941 73656E74 		.ascii	"sentmsg\000"
 3113      6D736700 
 3114              	.LASF111:
 3115 0949 6D5F6372 		.ascii	"m_crit_thd\000"
 3115      69745F74 
 3115      686400
 3116              	.LASF147:
 3117 0954 6E657874 		.ascii	"nextmem\000"
 3117      6D656D00 
 3118              		.ident	"GCC: (GNU Tools for Arm Embedded Processors 7-2017-q4-major) 7.2.1 20170904 (release) [ARM
ARM GAS  C:\Users\RAKIBU~1\AppData\Local\Temp\ccPGqyJw.s 			page 64


DEFINED SYMBOLS
                            *ABS*:00000000 chstats.c
C:\Users\RAKIBU~1\AppData\Local\Temp\ccPGqyJw.s:15     .text:00000000 $t
C:\Users\RAKIBU~1\AppData\Local\Temp\ccPGqyJw.s:23     .text:00000000 _stats_init
C:\Users\RAKIBU~1\AppData\Local\Temp\ccPGqyJw.s:53     .text:00000020 $d
C:\Users\RAKIBU~1\AppData\Local\Temp\ccPGqyJw.s:57     .text:00000024 $t
C:\Users\RAKIBU~1\AppData\Local\Temp\ccPGqyJw.s:65     .text:00000030 _stats_increase_irq
C:\Users\RAKIBU~1\AppData\Local\Temp\ccPGqyJw.s:119    .text:0000004c $d
C:\Users\RAKIBU~1\AppData\Local\Temp\ccPGqyJw.s:123    .text:00000050 $t
C:\Users\RAKIBU~1\AppData\Local\Temp\ccPGqyJw.s:131    .text:00000050 _stats_ctxswc
C:\Users\RAKIBU~1\AppData\Local\Temp\ccPGqyJw.s:160    .text:00000070 $d
C:\Users\RAKIBU~1\AppData\Local\Temp\ccPGqyJw.s:164    .text:00000074 $t
C:\Users\RAKIBU~1\AppData\Local\Temp\ccPGqyJw.s:172    .text:00000080 _stats_start_measure_crit_thd
C:\Users\RAKIBU~1\AppData\Local\Temp\ccPGqyJw.s:191    .text:0000008c $d
C:\Users\RAKIBU~1\AppData\Local\Temp\ccPGqyJw.s:195    .text:00000090 $t
C:\Users\RAKIBU~1\AppData\Local\Temp\ccPGqyJw.s:203    .text:00000090 _stats_stop_measure_crit_thd
C:\Users\RAKIBU~1\AppData\Local\Temp\ccPGqyJw.s:222    .text:0000009c $d
C:\Users\RAKIBU~1\AppData\Local\Temp\ccPGqyJw.s:226    .text:000000a0 $t
C:\Users\RAKIBU~1\AppData\Local\Temp\ccPGqyJw.s:234    .text:000000a0 _stats_start_measure_crit_isr
C:\Users\RAKIBU~1\AppData\Local\Temp\ccPGqyJw.s:253    .text:000000ac $d
C:\Users\RAKIBU~1\AppData\Local\Temp\ccPGqyJw.s:257    .text:000000b0 $t
C:\Users\RAKIBU~1\AppData\Local\Temp\ccPGqyJw.s:265    .text:000000b0 _stats_stop_measure_crit_isr
C:\Users\RAKIBU~1\AppData\Local\Temp\ccPGqyJw.s:284    .text:000000bc $d

UNDEFINED SYMBOLS
chTMObjectInit
ch
chTMChainMeasurementToX
chTMStartMeasurementX
chTMStopMeasurementX
