ARM GAS  C:\Users\RAKIBU~1\AppData\Local\Temp\ccPGqyJw.s 			page 1


   1              		.cpu cortex-m4
   2              		.eabi_attribute 20, 1
   3              		.eabi_attribute 21, 1
   4              		.eabi_attribute 23, 3
   5              		.eabi_attribute 24, 1
   6              		.eabi_attribute 25, 1
   7              		.eabi_attribute 26, 1
   8              		.eabi_attribute 30, 1
   9              		.eabi_attribute 34, 1
  10              		.eabi_attribute 18, 4
  11              		.file	"chstats.c"
  12              		.text
  13              	.Ltext0:
  14              		.cfi_sections	.debug_frame
  15              		.align	1
  16              		.p2align 4,,15
  17              		.global	_stats_init
  18              		.syntax unified
  19              		.thumb
  20              		.thumb_func
  21              		.fpu softvfp
  22              		.type	_stats_init, %function
  23              	_stats_init:
  24              	.LFB295:
  25              		.file 1 "../../../ChibiOSRepo/chibios191/os/rt/src/chstats.c"
  26              		.loc 1 62 0
  27              		.cfi_startproc
  28              		@ args = 0, pretend = 0, frame = 0
  29              		@ frame_needed = 0, uses_anonymous_args = 0
  30 0000 10B5     		push	{r4, lr}
  31              		.cfi_def_cfa_offset 8
  32              		.cfi_offset 4, -8
  33              		.cfi_offset 14, -4
  34              		.loc 1 64 0
  35 0002 074C     		ldr	r4, .L3
  36 0004 0023     		movs	r3, #0
  37 0006 C4F8B838 		str	r3, [r4, #2232]
  38              		.loc 1 65 0
  39 000a C4F8BC38 		str	r3, [r4, #2236]
  40              		.loc 1 66 0
  41 000e 04F50C60 		add	r0, r4, #2240
  42 0012 FFF7FEFF 		bl	chTMObjectInit
  43              	.LVL0:
  44              		.loc 1 67 0
  45 0016 04F6D800 		addw	r0, r4, #2264
  46 001a FFF7FEFF 		bl	chTMObjectInit
  47              	.LVL1:
  48              		.loc 1 68 0
  49 001e 10BD     		pop	{r4, pc}
  50              	.L4:
  51              		.align	2
  52              	.L3:
  53 0020 00000000 		.word	ch
  54              		.cfi_endproc
  55              	.LFE295:
  56              		.size	_stats_init, .-_stats_init
  57              		.align	1
ARM GAS  C:\Users\RAKIBU~1\AppData\Local\Temp\ccPGqyJw.s 			page 2


  58 0024 AFF30080 		.p2align 4,,15
  58      AFF30080 
  58      AFF30080 
  59              		.global	_stats_increase_irq
  60              		.syntax unified
  61              		.thumb
  62              		.thumb_func
  63              		.fpu softvfp
  64              		.type	_stats_increase_irq, %function
  65              	_stats_increase_irq:
  66              	.LFB296:
  67              		.loc 1 73 0
  68              		.cfi_startproc
  69              		@ args = 0, pretend = 0, frame = 0
  70              		@ frame_needed = 0, uses_anonymous_args = 0
  71              		@ link register save eliminated.
  72              	.LVL2:
  73              	.LBB24:
  74              	.LBB25:
  75              	.LBB26:
  76              	.LBB27:
  77              		.file 2 "../../../ChibiOSRepo/chibios191/os/common/ext/ARM/CMSIS/Core/Include/cmsis_gcc.h"
  78              		.loc 2 493 0
  79 0030 2023     		movs	r3, #32
  80              		.syntax unified
  81              	@ 493 "../../../ChibiOSRepo/chibios191/os/common/ext/ARM/CMSIS/Core/Include/cmsis_gcc.h" 1
  82 0032 83F31188 		MSR basepri, r3
  83              	@ 0 "" 2
  84              	.LVL3:
  85              		.thumb
  86              		.syntax unified
  87              	.LBE27:
  88              	.LBE26:
  89              	.LBE25:
  90              	.LBE24:
  91              		.loc 1 76 0
  92 0036 054A     		ldr	r2, .L6
  93 0038 D2F8B838 		ldr	r3, [r2, #2232]
  94 003c 0133     		adds	r3, r3, #1
  95 003e C2F8B838 		str	r3, [r2, #2232]
  96              	.LVL4:
  97              	.LBB28:
  98              	.LBB29:
  99              	.LBB30:
 100              	.LBB31:
 101              		.loc 2 493 0
 102 0042 0023     		movs	r3, #0
 103              		.syntax unified
 104              	@ 493 "../../../ChibiOSRepo/chibios191/os/common/ext/ARM/CMSIS/Core/Include/cmsis_gcc.h" 1
 105 0044 83F31188 		MSR basepri, r3
 106              	@ 0 "" 2
 107              	.LVL5:
 108              		.thumb
 109              		.syntax unified
 110              	.LBE31:
 111              	.LBE30:
 112              	.LBE29:
ARM GAS  C:\Users\RAKIBU~1\AppData\Local\Temp\ccPGqyJw.s 			page 3


 113              	.LBE28:
 114              		.loc 1 78 0
 115 0048 7047     		bx	lr
 116              	.L7:
 117 004a 00BF     		.align	2
 118              	.L6:
 119 004c 00000000 		.word	ch
 120              		.cfi_endproc
 121              	.LFE296:
 122              		.size	_stats_increase_irq, .-_stats_increase_irq
 123              		.align	1
 124              		.p2align 4,,15
 125              		.global	_stats_ctxswc
 126              		.syntax unified
 127              		.thumb
 128              		.thumb_func
 129              		.fpu softvfp
 130              		.type	_stats_ctxswc, %function
 131              	_stats_ctxswc:
 132              	.LFB297:
 133              		.loc 1 86 0
 134              		.cfi_startproc
 135              		@ args = 0, pretend = 0, frame = 0
 136              		@ frame_needed = 0, uses_anonymous_args = 0
 137              	.LVL6:
 138 0050 08B5     		push	{r3, lr}
 139              		.cfi_def_cfa_offset 8
 140              		.cfi_offset 3, -8
 141              		.cfi_offset 14, -4
 142              		.loc 1 88 0
 143 0052 074A     		ldr	r2, .L10
 144 0054 D2F8BC38 		ldr	r3, [r2, #2236]
 145 0058 0133     		adds	r3, r3, #1
 146 005a C2F8BC38 		str	r3, [r2, #2236]
 147              		.loc 1 89 0
 148 005e 01F14803 		add	r3, r1, #72
 149 0062 00F14801 		add	r1, r0, #72
 150              	.LVL7:
 151 0066 1846     		mov	r0, r3
 152              	.LVL8:
 153 0068 FFF7FEFF 		bl	chTMChainMeasurementToX
 154              	.LVL9:
 155              		.loc 1 90 0
 156 006c 08BD     		pop	{r3, pc}
 157              	.L11:
 158 006e 00BF     		.align	2
 159              	.L10:
 160 0070 00000000 		.word	ch
 161              		.cfi_endproc
 162              	.LFE297:
 163              		.size	_stats_ctxswc, .-_stats_ctxswc
 164              		.align	1
 165 0074 AFF30080 		.p2align 4,,15
 165      AFF30080 
 165      AFF30080 
 166              		.global	_stats_start_measure_crit_thd
 167              		.syntax unified
ARM GAS  C:\Users\RAKIBU~1\AppData\Local\Temp\ccPGqyJw.s 			page 4


 168              		.thumb
 169              		.thumb_func
 170              		.fpu softvfp
 171              		.type	_stats_start_measure_crit_thd, %function
 172              	_stats_start_measure_crit_thd:
 173              	.LFB298:
 174              		.loc 1 95 0
 175              		.cfi_startproc
 176              		@ args = 0, pretend = 0, frame = 0
 177              		@ frame_needed = 0, uses_anonymous_args = 0
 178 0080 08B5     		push	{r3, lr}
 179              		.cfi_def_cfa_offset 8
 180              		.cfi_offset 3, -8
 181              		.cfi_offset 14, -4
 182              		.loc 1 97 0
 183 0082 0248     		ldr	r0, .L14
 184 0084 FFF7FEFF 		bl	chTMStartMeasurementX
 185              	.LVL10:
 186              		.loc 1 98 0
 187 0088 08BD     		pop	{r3, pc}
 188              	.L15:
 189 008a 00BF     		.align	2
 190              	.L14:
 191 008c C0080000 		.word	ch+2240
 192              		.cfi_endproc
 193              	.LFE298:
 194              		.size	_stats_start_measure_crit_thd, .-_stats_start_measure_crit_thd
 195              		.align	1
 196              		.p2align 4,,15
 197              		.global	_stats_stop_measure_crit_thd
 198              		.syntax unified
 199              		.thumb
 200              		.thumb_func
 201              		.fpu softvfp
 202              		.type	_stats_stop_measure_crit_thd, %function
 203              	_stats_stop_measure_crit_thd:
 204              	.LFB299:
 205              		.loc 1 103 0
 206              		.cfi_startproc
 207              		@ args = 0, pretend = 0, frame = 0
 208              		@ frame_needed = 0, uses_anonymous_args = 0
 209 0090 08B5     		push	{r3, lr}
 210              		.cfi_def_cfa_offset 8
 211              		.cfi_offset 3, -8
 212              		.cfi_offset 14, -4
 213              		.loc 1 105 0
 214 0092 0248     		ldr	r0, .L18
 215 0094 FFF7FEFF 		bl	chTMStopMeasurementX
 216              	.LVL11:
 217              		.loc 1 106 0
 218 0098 08BD     		pop	{r3, pc}
 219              	.L19:
 220 009a 00BF     		.align	2
 221              	.L18:
 222 009c C0080000 		.word	ch+2240
 223              		.cfi_endproc
 224              	.LFE299:
ARM GAS  C:\Users\RAKIBU~1\AppData\Local\Temp\ccPGqyJw.s 			page 5


 225              		.size	_stats_stop_measure_crit_thd, .-_stats_stop_measure_crit_thd
 226              		.align	1
 227              		.p2align 4,,15
 228              		.global	_stats_start_measure_crit_isr
 229              		.syntax unified
 230              		.thumb
 231              		.thumb_func
 232              		.fpu softvfp
 233              		.type	_stats_start_measure_crit_isr, %function
 234              	_stats_start_measure_crit_isr:
 235              	.LFB300:
 236              		.loc 1 111 0
 237              		.cfi_startproc
 238              		@ args = 0, pretend = 0, frame = 0
 239              		@ frame_needed = 0, uses_anonymous_args = 0
 240 00a0 08B5     		push	{r3, lr}
 241              		.cfi_def_cfa_offset 8
 242              		.cfi_offset 3, -8
 243              		.cfi_offset 14, -4
 244              		.loc 1 113 0
 245 00a2 0248     		ldr	r0, .L22
 246 00a4 FFF7FEFF 		bl	chTMStartMeasurementX
 247              	.LVL12:
 248              		.loc 1 114 0
 249 00a8 08BD     		pop	{r3, pc}
 250              	.L23:
 251 00aa 00BF     		.align	2
 252              	.L22:
 253 00ac D8080000 		.word	ch+2264
 254              		.cfi_endproc
 255              	.LFE300:
 256              		.size	_stats_start_measure_crit_isr, .-_stats_start_measure_crit_isr
 257              		.align	1
 258              		.p2align 4,,15
 259              		.global	_stats_stop_measure_crit_isr
 260              		.syntax unified
 261              		.thumb
 262              		.thumb_func
 263              		.fpu softvfp
 264              		.type	_stats_stop_measure_crit_isr, %function
 265              	_stats_stop_measure_crit_isr:
 266              	.LFB301:
 267              		.loc 1 119 0
 268              		.cfi_startproc
 269              		@ args = 0, pretend = 0, frame = 0
 270              		@ frame_needed = 0, uses_anonymous_args = 0
 271 00b0 08B5     		push	{r3, lr}
 272              		.cfi_def_cfa_offset 8
 273              		.cfi_offset 3, -8
 274              		.cfi_offset 14, -4
 275              		.loc 1 121 0
 276 00b2 0248     		ldr	r0, .L26
 277 00b4 FFF7FEFF 		bl	chTMStopMeasurementX
 278              	.LVL13:
 279              		.loc 1 122 0
 280 00b8 08BD     		pop	{r3, pc}
 281              	.L27:
ARM GAS  C:\Users\RAKIBU~1\AppData\Local\Temp\ccPGqyJw.s 			page 6


 282 00ba 00BF     		.align	2
 283              	.L26:
 284 00bc D8080000 		.word	ch+2264
 285              		.cfi_endproc
 286              	.LFE301:
 287              		.size	_stats_stop_measure_crit_isr, .-_stats_stop_measure_crit_isr
 288              	.Letext0:
 289              		.file 3 "c:\\chibistudio\\tools\\gnu tools arm embedded\\7.0 2017q4\\lib\\gcc\\arm-none-eabi\\7.2.
 290              		.file 4 "c:\\chibistudio\\tools\\gnu tools arm embedded\\7.0 2017q4\\arm-none-eabi\\include\\machi
 291              		.file 5 "c:\\chibistudio\\tools\\gnu tools arm embedded\\7.0 2017q4\\arm-none-eabi\\include\\sys\\
 292              		.file 6 "../../../ChibiOSRepo/chibios191/os/common/ports/ARMCMx/compilers/GCC/chtypes.h"
 293              		.file 7 "../../../ChibiOSRepo/chibios191/os/rt/include/chsystypes.h"
 294              		.file 8 "../../../ChibiOSRepo/chibios191/os/rt/include/chschd.h"
 295              		.file 9 "../../../ChibiOSRepo/chibios191/os/rt/include/chtime.h"
 296              		.file 10 "../../../ChibiOSRepo/chibios191/os/common/ext/ARM/CMSIS/Core/Include/core_cm4.h"
 297              		.file 11 "../../../ChibiOSRepo/chibios191/os/common/ext/ST/STM32F4xx/system_stm32f4xx.h"
 298              		.file 12 "../../../ChibiOSRepo/chibios191/os/common/ports/ARMCMx/chcore.h"
 299              		.file 13 "../../../ChibiOSRepo/chibios191/os/common/ports/ARMCMx/chcore_v7m.h"
 300              		.file 14 "../../../ChibiOSRepo/chibios191/os/rt/include/chtrace.h"
 301              		.file 15 "../../../ChibiOSRepo/chibios191/os/rt/include/chtm.h"
 302              		.file 16 "../../../ChibiOSRepo/chibios191/os/rt/include/chstats.h"
 303              		.file 17 "../../../ChibiOSRepo/chibios191/os/rt/include/chsem.h"
 304              		.file 18 "../../../ChibiOSRepo/chibios191/os/rt/include/chmtx.h"
 305              		.file 19 "../../../ChibiOSRepo/chibios191/os/rt/include/chsys.h"
 306              		.file 20 "../../../ChibiOSRepo/chibios191/os/rt/include/chregistry.h"
 307              		.file 21 "../../../ChibiOSRepo/chibios191/os/oslib/include/chmemcore.h"
 308              		.file 22 "../../../ChibiOSRepo/chibios191/os/oslib/include/chmempools.h"
 309              		.file 23 "../../../ChibiOSRepo/chibios191/os/oslib/include/chfactory.h"