ARM GAS  C:\Users\RAKIBU~1\AppData\Local\Temp\cc4wEajS.s 			page 1


   1              		.cpu cortex-m4
   2              		.eabi_attribute 20, 1
   3              		.eabi_attribute 21, 1
   4              		.eabi_attribute 23, 3
   5              		.eabi_attribute 24, 1
   6              		.eabi_attribute 25, 1
   7              		.eabi_attribute 26, 1
   8              		.eabi_attribute 30, 1
   9              		.eabi_attribute 34, 1
  10              		.eabi_attribute 18, 4
  11              		.file	"chtm.c"
  12              		.text
  13              	.Ltext0:
  14              		.cfi_sections	.debug_frame
  15              		.align	1
  16              		.p2align 4,,15
  17              		.global	chTMObjectInit
  18              		.syntax unified
  19              		.thumb
  20              		.thumb_func
  21              		.fpu softvfp
  22              		.type	chTMObjectInit, %function
  23              	chTMObjectInit:
  24              	.LFB297:
  25              		.file 1 "../../../ChibiOSRepo/chibios191/os/rt/src/chtm.c"
  26              		.loc 1 97 0
  27              		.cfi_startproc
  28              		@ args = 0, pretend = 0, frame = 0
  29              		@ frame_needed = 0, uses_anonymous_args = 0
  30              		@ link register save eliminated.
  31              	.LVL0:
  32              		.loc 1 99 0
  33 0000 4FF0FF33 		mov	r3, #-1
  34 0004 0360     		str	r3, [r0]
  35              		.loc 1 100 0
  36 0006 0023     		movs	r3, #0
  37 0008 4360     		str	r3, [r0, #4]
  38              		.loc 1 101 0
  39 000a 8360     		str	r3, [r0, #8]
  40              		.loc 1 102 0
  41 000c C360     		str	r3, [r0, #12]
  42              		.loc 1 103 0
  43 000e 0022     		movs	r2, #0
  44 0010 0023     		movs	r3, #0
  45 0012 C0E90423 		strd	r2, [r0, #16]
  46              		.loc 1 104 0
  47 0016 7047     		bx	lr
  48              		.cfi_endproc
  49              	.LFE297:
  50              		.size	chTMObjectInit, .-chTMObjectInit
  51              		.align	1
  52 0018 AFF30080 		.p2align 4,,15
  52      AFF30080 
  53              		.global	chTMStartMeasurementX
  54              		.syntax unified
  55              		.thumb
  56              		.thumb_func
ARM GAS  C:\Users\RAKIBU~1\AppData\Local\Temp\cc4wEajS.s 			page 2


  57              		.fpu softvfp
  58              		.type	chTMStartMeasurementX, %function
  59              	chTMStartMeasurementX:
  60              	.LFB298:
  61              		.loc 1 114 0
  62              		.cfi_startproc
  63              		@ args = 0, pretend = 0, frame = 0
  64              		@ frame_needed = 0, uses_anonymous_args = 0
  65              		@ link register save eliminated.
  66              	.LVL1:
  67              	.LBB12:
  68              	.LBB13:
  69              		.file 2 "../../../ChibiOSRepo/chibios191/os/common/ports/ARMCMx/chcore_v7m.h"
  70              		.loc 2 719 0
  71 0020 014B     		ldr	r3, .L3
  72 0022 5B68     		ldr	r3, [r3, #4]
  73              	.LBE13:
  74              	.LBE12:
  75              		.loc 1 116 0
  76 0024 8360     		str	r3, [r0, #8]
  77              		.loc 1 117 0
  78 0026 7047     		bx	lr
  79              	.L4:
  80              		.align	2
  81              	.L3:
  82 0028 001000E0 		.word	-536866816
  83              		.cfi_endproc
  84              	.LFE298:
  85              		.size	chTMStartMeasurementX, .-chTMStartMeasurementX
  86              		.align	1
  87 002c AFF30080 		.p2align 4,,15
  88              		.global	chTMStopMeasurementX
  89              		.syntax unified
  90              		.thumb
  91              		.thumb_func
  92              		.fpu softvfp
  93              		.type	chTMStopMeasurementX, %function
  94              	chTMStopMeasurementX:
  95              	.LFB299:
  96              		.loc 1 127 0
  97              		.cfi_startproc
  98              		@ args = 0, pretend = 0, frame = 0
  99              		@ frame_needed = 0, uses_anonymous_args = 0
 100              		@ link register save eliminated.
 101              	.LVL2:
 102 0030 30B4     		push	{r4, r5}
 103              		.cfi_def_cfa_offset 8
 104              		.cfi_offset 4, -8
 105              		.cfi_offset 5, -4
 106              	.LBB14:
 107              	.LBB15:
 108              		.loc 2 719 0
 109 0032 0E4B     		ldr	r3, .L9
 110 0034 5B68     		ldr	r3, [r3, #4]
 111              	.LBE15:
 112              	.LBE14:
 113              		.loc 1 129 0
ARM GAS  C:\Users\RAKIBU~1\AppData\Local\Temp\cc4wEajS.s 			page 3


 114 0036 0E4A     		ldr	r2, .L9+4
 115 0038 D2F8B018 		ldr	r1, [r2, #2224]
 116              	.LVL3:
 117              	.LBB16:
 118              	.LBB17:
 119              		.loc 1 57 0
 120 003c C268     		ldr	r2, [r0, #12]
 121 003e 0132     		adds	r2, r2, #1
 122 0040 C260     		str	r2, [r0, #12]
 123              		.loc 1 58 0
 124 0042 8268     		ldr	r2, [r0, #8]
 125 0044 9B1A     		subs	r3, r3, r2
 126 0046 5B1A     		subs	r3, r3, r1
 127 0048 8360     		str	r3, [r0, #8]
 128              		.loc 1 59 0
 129 004a D0E90445 		ldrd	r4, [r0, #16]
 130 004e E118     		adds	r1, r4, r3
 131              	.LVL4:
 132 0050 45F10002 		adc	r2, r5, #0
 133 0054 C0E90412 		strd	r1, [r0, #16]
 134              		.loc 1 60 0
 135 0058 4268     		ldr	r2, [r0, #4]
 136 005a 9342     		cmp	r3, r2
 137 005c 00D9     		bls	.L6
 138              		.loc 1 61 0
 139 005e 4360     		str	r3, [r0, #4]
 140              	.L6:
 141              		.loc 1 63 0
 142 0060 0268     		ldr	r2, [r0]
 143 0062 9342     		cmp	r3, r2
 144 0064 00D2     		bcs	.L5
 145              		.loc 1 64 0
 146 0066 0360     		str	r3, [r0]
 147              	.LVL5:
 148              	.L5:
 149              	.LBE17:
 150              	.LBE16:
 151              		.loc 1 130 0
 152 0068 30BC     		pop	{r4, r5}
 153              		.cfi_restore 5
 154              		.cfi_restore 4
 155              		.cfi_def_cfa_offset 0
 156 006a 7047     		bx	lr
 157              	.L10:
 158              		.align	2
 159              	.L9:
 160 006c 001000E0 		.word	-536866816
 161 0070 00000000 		.word	ch
 162              		.cfi_endproc
 163              	.LFE299:
 164              		.size	chTMStopMeasurementX, .-chTMStopMeasurementX
 165              		.align	1
 166 0074 AFF30080 		.p2align 4,,15
 166      AFF30080 
 166      AFF30080 
 167              		.global	_tm_init
 168              		.syntax unified
ARM GAS  C:\Users\RAKIBU~1\AppData\Local\Temp\cc4wEajS.s 			page 4


 169              		.thumb
 170              		.thumb_func
 171              		.fpu softvfp
 172              		.type	_tm_init, %function
 173              	_tm_init:
 174              	.LFB296:
 175              		.loc 1 77 0
 176              		.cfi_startproc
 177              		@ args = 0, pretend = 0, frame = 24
 178              		@ frame_needed = 0, uses_anonymous_args = 0
 179 0080 10B5     		push	{r4, lr}
 180              		.cfi_def_cfa_offset 8
 181              		.cfi_offset 4, -8
 182              		.cfi_offset 14, -4
 183 0082 86B0     		sub	sp, sp, #24
 184              		.cfi_def_cfa_offset 32
 185              		.loc 1 83 0
 186 0084 084C     		ldr	r4, .L13
 187 0086 0023     		movs	r3, #0
 188 0088 C4F8B038 		str	r3, [r4, #2224]
 189              		.loc 1 84 0
 190 008c 6846     		mov	r0, sp
 191 008e FFF7FEFF 		bl	chTMObjectInit
 192              	.LVL6:
 193              		.loc 1 85 0
 194 0092 6846     		mov	r0, sp
 195 0094 FFF7FEFF 		bl	chTMStartMeasurementX
 196              	.LVL7:
 197              		.loc 1 86 0
 198 0098 6846     		mov	r0, sp
 199 009a FFF7FEFF 		bl	chTMStopMeasurementX
 200              	.LVL8:
 201              		.loc 1 87 0
 202 009e 029B     		ldr	r3, [sp, #8]
 203 00a0 C4F8B038 		str	r3, [r4, #2224]
 204              		.loc 1 88 0
 205 00a4 06B0     		add	sp, sp, #24
 206              		.cfi_def_cfa_offset 8
 207              		@ sp needed
 208 00a6 10BD     		pop	{r4, pc}
 209              	.L14:
 210              		.align	2
 211              	.L13:
 212 00a8 00000000 		.word	ch
 213              		.cfi_endproc
 214              	.LFE296:
 215              		.size	_tm_init, .-_tm_init
 216              		.align	1
 217 00ac AFF30080 		.p2align 4,,15
 218              		.global	chTMChainMeasurementToX
 219              		.syntax unified
 220              		.thumb
 221              		.thumb_func
 222              		.fpu softvfp
 223              		.type	chTMChainMeasurementToX, %function
 224              	chTMChainMeasurementToX:
 225              	.LFB300:
ARM GAS  C:\Users\RAKIBU~1\AppData\Local\Temp\cc4wEajS.s 			page 5


 226              		.loc 1 145 0
 227              		.cfi_startproc
 228              		@ args = 0, pretend = 0, frame = 0
 229              		@ frame_needed = 0, uses_anonymous_args = 0
 230              		@ link register save eliminated.
 231              	.LVL9:
 232 00b0 30B4     		push	{r4, r5}
 233              		.cfi_def_cfa_offset 8
 234              		.cfi_offset 4, -8
 235              		.cfi_offset 5, -4
 236              	.LBB18:
 237              	.LBB19:
 238              		.loc 2 719 0
 239 00b2 0D4B     		ldr	r3, .L19
 240 00b4 5B68     		ldr	r3, [r3, #4]
 241              	.LBE19:
 242              	.LBE18:
 243              		.loc 1 148 0
 244 00b6 8B60     		str	r3, [r1, #8]
 245              	.LVL10:
 246              	.LBB20:
 247              	.LBB21:
 248              		.loc 1 57 0
 249 00b8 C268     		ldr	r2, [r0, #12]
 250 00ba 0132     		adds	r2, r2, #1
 251 00bc C260     		str	r2, [r0, #12]
 252              		.loc 1 58 0
 253 00be 8268     		ldr	r2, [r0, #8]
 254 00c0 9B1A     		subs	r3, r3, r2
 255              	.LVL11:
 256 00c2 8360     		str	r3, [r0, #8]
 257              		.loc 1 59 0
 258 00c4 D0E90445 		ldrd	r4, [r0, #16]
 259 00c8 E118     		adds	r1, r4, r3
 260              	.LVL12:
 261 00ca 45F10002 		adc	r2, r5, #0
 262 00ce C0E90412 		strd	r1, [r0, #16]
 263              		.loc 1 60 0
 264 00d2 4268     		ldr	r2, [r0, #4]
 265 00d4 9342     		cmp	r3, r2
 266 00d6 00D9     		bls	.L16
 267              		.loc 1 61 0
 268 00d8 4360     		str	r3, [r0, #4]
 269              	.L16:
 270              		.loc 1 63 0
 271 00da 0268     		ldr	r2, [r0]
 272 00dc 9342     		cmp	r3, r2
 273 00de 00D2     		bcs	.L15
 274              		.loc 1 64 0
 275 00e0 0360     		str	r3, [r0]
 276              	.LVL13:
 277              	.L15:
 278              	.LBE21:
 279              	.LBE20:
 280              		.loc 1 152 0
 281 00e2 30BC     		pop	{r4, r5}
 282              		.cfi_restore 5
ARM GAS  C:\Users\RAKIBU~1\AppData\Local\Temp\cc4wEajS.s 			page 6


 283              		.cfi_restore 4
 284              		.cfi_def_cfa_offset 0
 285 00e4 7047     		bx	lr
 286              	.L20:
 287 00e6 00BF     		.align	2
 288              	.L19:
 289 00e8 001000E0 		.word	-536866816
 290              		.cfi_endproc
 291              	.LFE300:
 292              		.size	chTMChainMeasurementToX, .-chTMChainMeasurementToX
 293              	.Letext0:
 294              		.file 3 "c:\\chibistudio\\tools\\gnu tools arm embedded\\7.0 2017q4\\lib\\gcc\\arm-none-eabi\\7.2.
 295              		.file 4 "c:\\chibistudio\\tools\\gnu tools arm embedded\\7.0 2017q4\\arm-none-eabi\\include\\machi
 296              		.file 5 "c:\\chibistudio\\tools\\gnu tools arm embedded\\7.0 2017q4\\arm-none-eabi\\include\\sys\\
 297              		.file 6 "../../../ChibiOSRepo/chibios191/os/common/ports/ARMCMx/compilers/GCC/chtypes.h"
 298              		.file 7 "../../../ChibiOSRepo/chibios191/os/rt/include/chsystypes.h"
 299              		.file 8 "../../../ChibiOSRepo/chibios191/os/rt/include/chschd.h"
 300              		.file 9 "../../../ChibiOSRepo/chibios191/os/rt/include/chtime.h"
 301              		.file 10 "../../../ChibiOSRepo/chibios191/os/common/ext/ARM/CMSIS/Core/Include/core_cm4.h"
 302              		.file 11 "../../../ChibiOSRepo/chibios191/os/common/ext/ST/STM32F4xx/system_stm32f4xx.h"
 303              		.file 12 "../../../ChibiOSRepo/chibios191/os/common/ports/ARMCMx/chcore.h"
 304              		.file 13 "../../../ChibiOSRepo/chibios191/os/rt/include/chtrace.h"
 305              		.file 14 "../../../ChibiOSRepo/chibios191/os/rt/include/chtm.h"
 306              		.file 15 "../../../ChibiOSRepo/chibios191/os/rt/include/chstats.h"
 307              		.file 16 "../../../ChibiOSRepo/chibios191/os/rt/include/chsem.h"
 308              		.file 17 "../../../ChibiOSRepo/chibios191/os/rt/include/chmtx.h"
 309              		.file 18 "../../../ChibiOSRepo/chibios191/os/rt/include/chsys.h"
 310              		.file 19 "../../../ChibiOSRepo/chibios191/os/rt/include/chregistry.h"
 311              		.file 20 "../../../ChibiOSRepo/chibios191/os/oslib/include/chmemcore.h"
 312              		.file 21 "../../../ChibiOSRepo/chibios191/os/oslib/include/chmempools.h"
 313              		.file 22 "../../../ChibiOSRepo/chibios191/os/oslib/include/chfactory.h"
 314              		.section	.debug_info,"",%progbits
 315              	.Ldebug_info0:
 316 0000 E00E0000 		.4byte	0xee0
 317 0004 0400     		.2byte	0x4
 318 0006 00000000 		.4byte	.Ldebug_abbrev0
 319 000a 04       		.byte	0x4
 320 000b 01       		.uleb128 0x1
 321 000c 12050000 		.4byte	.LASF202
 322 0010 0C       		.byte	0xc
 323 0011 A2080000 		.4byte	.LASF203
 324 0015 2E030000 		.4byte	.LASF204
 325 0019 00000000 		.4byte	.Ltext0
 326 001d EC000000 		.4byte	.Letext0-.Ltext0
 327 0021 00000000 		.4byte	.Ldebug_line0
 328 0025 02       		.uleb128 0x2
 329 0026 04       		.byte	0x4
 330 0027 05       		.byte	0x5
 331 0028 696E7400 		.ascii	"int\000"
 332 002c 03       		.uleb128 0x3
 333 002d 0D000000 		.4byte	.LASF4
 334 0031 03       		.byte	0x3
 335 0032 D8       		.byte	0xd8
 336 0033 37000000 		.4byte	0x37
 337 0037 04       		.uleb128 0x4
 338 0038 04       		.byte	0x4
 339 0039 07       		.byte	0x7
ARM GAS  C:\Users\RAKIBU~1\AppData\Local\Temp\cc4wEajS.s 			page 7


 340 003a BD020000 		.4byte	.LASF0
 341 003e 04       		.uleb128 0x4
 342 003f 08       		.byte	0x8
 343 0040 05       		.byte	0x5
 344 0041 50010000 		.4byte	.LASF1
 345 0045 04       		.uleb128 0x4
 346 0046 08       		.byte	0x8
 347 0047 04       		.byte	0x4
 348 0048 35020000 		.4byte	.LASF2
 349 004c 04       		.uleb128 0x4
 350 004d 01       		.byte	0x1
 351 004e 06       		.byte	0x6
 352 004f 5E010000 		.4byte	.LASF3
 353 0053 03       		.uleb128 0x3
 354 0054 3C000000 		.4byte	.LASF5
 355 0058 04       		.byte	0x4
 356 0059 2B       		.byte	0x2b
 357 005a 5E000000 		.4byte	0x5e
 358 005e 04       		.uleb128 0x4
 359 005f 01       		.byte	0x1
 360 0060 08       		.byte	0x8
 361 0061 4A060000 		.4byte	.LASF6
 362 0065 04       		.uleb128 0x4
 363 0066 02       		.byte	0x2
 364 0067 05       		.byte	0x5
 365 0068 A0060000 		.4byte	.LASF7
 366 006c 03       		.uleb128 0x3
 367 006d 90070000 		.4byte	.LASF8
 368 0071 04       		.byte	0x4
 369 0072 39       		.byte	0x39
 370 0073 77000000 		.4byte	0x77
 371 0077 04       		.uleb128 0x4
 372 0078 02       		.byte	0x2
 373 0079 07       		.byte	0x7
 374 007a 05080000 		.4byte	.LASF9
 375 007e 03       		.uleb128 0x3
 376 007f 48040000 		.4byte	.LASF10
 377 0083 04       		.byte	0x4
 378 0084 4D       		.byte	0x4d
 379 0085 89000000 		.4byte	0x89
 380 0089 04       		.uleb128 0x4
 381 008a 04       		.byte	0x4
 382 008b 05       		.byte	0x5
 383 008c C3010000 		.4byte	.LASF11
 384 0090 03       		.uleb128 0x3
 385 0091 41020000 		.4byte	.LASF12
 386 0095 04       		.byte	0x4
 387 0096 4F       		.byte	0x4f
 388 0097 9B000000 		.4byte	0x9b
 389 009b 04       		.uleb128 0x4
 390 009c 04       		.byte	0x4
 391 009d 07       		.byte	0x7
 392 009e 63070000 		.4byte	.LASF13
 393 00a2 03       		.uleb128 0x3
 394 00a3 C2050000 		.4byte	.LASF14
 395 00a7 04       		.byte	0x4
 396 00a8 69       		.byte	0x69
ARM GAS  C:\Users\RAKIBU~1\AppData\Local\Temp\cc4wEajS.s 			page 8


 397 00a9 AD000000 		.4byte	0xad
 398 00ad 04       		.uleb128 0x4
 399 00ae 08       		.byte	0x8
 400 00af 07       		.byte	0x7
 401 00b0 B4000000 		.4byte	.LASF15
 402 00b4 03       		.uleb128 0x3
 403 00b5 87080000 		.4byte	.LASF16
 404 00b9 05       		.byte	0x5
 405 00ba 18       		.byte	0x18
 406 00bb 53000000 		.4byte	0x53
 407 00bf 05       		.uleb128 0x5
 408 00c0 B4000000 		.4byte	0xb4
 409 00c4 03       		.uleb128 0x3
 410 00c5 06020000 		.4byte	.LASF17
 411 00c9 05       		.byte	0x5
 412 00ca 24       		.byte	0x24
 413 00cb 6C000000 		.4byte	0x6c
 414 00cf 03       		.uleb128 0x3
 415 00d0 42060000 		.4byte	.LASF18
 416 00d4 05       		.byte	0x5
 417 00d5 2C       		.byte	0x2c
 418 00d6 7E000000 		.4byte	0x7e
 419 00da 06       		.uleb128 0x6
 420 00db CF000000 		.4byte	0xcf
 421 00df 03       		.uleb128 0x3
 422 00e0 37070000 		.4byte	.LASF19
 423 00e4 05       		.byte	0x5
 424 00e5 30       		.byte	0x30
 425 00e6 90000000 		.4byte	0x90
 426 00ea 06       		.uleb128 0x6
 427 00eb DF000000 		.4byte	0xdf
 428 00ef 05       		.uleb128 0x5
 429 00f0 EA000000 		.4byte	0xea
 430 00f4 03       		.uleb128 0x3
 431 00f5 26000000 		.4byte	.LASF20
 432 00f9 05       		.byte	0x5
 433 00fa 3C       		.byte	0x3c
 434 00fb A2000000 		.4byte	0xa2
 435 00ff 03       		.uleb128 0x3
 436 0100 9B040000 		.4byte	.LASF21
 437 0104 06       		.byte	0x6
 438 0105 27       		.byte	0x27
 439 0106 DF000000 		.4byte	0xdf
 440 010a 03       		.uleb128 0x3
 441 010b 3D010000 		.4byte	.LASF22
 442 010f 06       		.byte	0x6
 443 0110 28       		.byte	0x28
 444 0111 F4000000 		.4byte	0xf4
 445 0115 03       		.uleb128 0x3
 446 0116 06040000 		.4byte	.LASF23
 447 011a 06       		.byte	0x6
 448 011b 2A       		.byte	0x2a
 449 011c B4000000 		.4byte	0xb4
 450 0120 03       		.uleb128 0x3
 451 0121 D6010000 		.4byte	.LASF24
 452 0125 06       		.byte	0x6
 453 0126 2B       		.byte	0x2b
ARM GAS  C:\Users\RAKIBU~1\AppData\Local\Temp\cc4wEajS.s 			page 9


 454 0127 B4000000 		.4byte	0xb4
 455 012b 03       		.uleb128 0x3
 456 012c E2050000 		.4byte	.LASF25
 457 0130 06       		.byte	0x6
 458 0131 2C       		.byte	0x2c
 459 0132 B4000000 		.4byte	0xb4
 460 0136 03       		.uleb128 0x3
 461 0137 22060000 		.4byte	.LASF26
 462 013b 06       		.byte	0x6
 463 013c 2E       		.byte	0x2e
 464 013d DF000000 		.4byte	0xdf
 465 0141 03       		.uleb128 0x3
 466 0142 D1030000 		.4byte	.LASF27
 467 0146 06       		.byte	0x6
 468 0147 2F       		.byte	0x2f
 469 0148 CF000000 		.4byte	0xcf
 470 014c 03       		.uleb128 0x3
 471 014d 27040000 		.4byte	.LASF28
 472 0151 06       		.byte	0x6
 473 0152 31       		.byte	0x31
 474 0153 DF000000 		.4byte	0xdf
 475 0157 03       		.uleb128 0x3
 476 0158 A8020000 		.4byte	.LASF29
 477 015c 06       		.byte	0x6
 478 015d 33       		.byte	0x33
 479 015e CF000000 		.4byte	0xcf
 480 0162 03       		.uleb128 0x3
 481 0163 D7030000 		.4byte	.LASF30
 482 0167 06       		.byte	0x6
 483 0168 34       		.byte	0x34
 484 0169 DF000000 		.4byte	0xdf
 485 016d 03       		.uleb128 0x3
 486 016e 9B070000 		.4byte	.LASF31
 487 0172 07       		.byte	0x7
 488 0173 34       		.byte	0x34
 489 0174 78010000 		.4byte	0x178
 490 0178 07       		.uleb128 0x7
 491 0179 FF020000 		.4byte	.LASF50
 492 017d 60       		.byte	0x60
 493 017e 08       		.byte	0x8
 494 017f 8E       		.byte	0x8e
 495 0180 63020000 		.4byte	0x263
 496 0184 08       		.uleb128 0x8
 497 0185 1D030000 		.4byte	.LASF32
 498 0189 08       		.byte	0x8
 499 018a 8F       		.byte	0x8f
 500 018b 98020000 		.4byte	0x298
 501 018f 00       		.byte	0
 502 0190 08       		.uleb128 0x8
 503 0191 AC050000 		.4byte	.LASF33
 504 0195 08       		.byte	0x8
 505 0196 90       		.byte	0x90
 506 0197 36010000 		.4byte	0x136
 507 019b 08       		.byte	0x8
 508 019c 09       		.uleb128 0x9
 509 019d 63747800 		.ascii	"ctx\000"
 510 01a1 08       		.byte	0x8
ARM GAS  C:\Users\RAKIBU~1\AppData\Local\Temp\cc4wEajS.s 			page 10


 511 01a2 91       		.byte	0x91
 512 01a3 80060000 		.4byte	0x680
 513 01a7 0C       		.byte	0xc
 514 01a8 08       		.uleb128 0x8
 515 01a9 75040000 		.4byte	.LASF34
 516 01ad 08       		.byte	0x8
 517 01ae 93       		.byte	0x93
 518 01af 6E020000 		.4byte	0x26e
 519 01b3 10       		.byte	0x10
 520 01b4 08       		.uleb128 0x8
 521 01b5 81070000 		.4byte	.LASF35
 522 01b9 08       		.byte	0x8
 523 01ba 94       		.byte	0x94
 524 01bb 6E020000 		.4byte	0x26e
 525 01bf 14       		.byte	0x14
 526 01c0 08       		.uleb128 0x8
 527 01c1 BC030000 		.4byte	.LASF36
 528 01c5 08       		.byte	0x8
 529 01c6 9B       		.byte	0x9b
 530 01c7 50070000 		.4byte	0x750
 531 01cb 18       		.byte	0x18
 532 01cc 08       		.uleb128 0x8
 533 01cd 75070000 		.4byte	.LASF37
 534 01d1 08       		.byte	0x8
 535 01d2 A4       		.byte	0xa4
 536 01d3 FF090000 		.4byte	0x9ff
 537 01d7 1C       		.byte	0x1c
 538 01d8 08       		.uleb128 0x8
 539 01d9 A8010000 		.4byte	.LASF38
 540 01dd 08       		.byte	0x8
 541 01de A9       		.byte	0xa9
 542 01df 20010000 		.4byte	0x120
 543 01e3 20       		.byte	0x20
 544 01e4 08       		.uleb128 0x8
 545 01e5 9C080000 		.4byte	.LASF39
 546 01e9 08       		.byte	0x8
 547 01ea AD       		.byte	0xad
 548 01eb 15010000 		.4byte	0x115
 549 01ef 21       		.byte	0x21
 550 01f0 08       		.uleb128 0x8
 551 01f1 08060000 		.4byte	.LASF40
 552 01f5 08       		.byte	0x8
 553 01f6 B2       		.byte	0xb2
 554 01f7 2B010000 		.4byte	0x12b
 555 01fb 22       		.byte	0x22
 556 01fc 0A       		.uleb128 0xa
 557 01fd 7500     		.ascii	"u\000"
 558 01ff 08       		.byte	0x8
 559 0200 0301     		.2byte	0x103
 560 0202 35090000 		.4byte	0x935
 561 0206 24       		.byte	0x24
 562 0207 0B       		.uleb128 0xb
 563 0208 6E020000 		.4byte	.LASF41
 564 020c 08       		.byte	0x8
 565 020d 0801     		.2byte	0x108
 566 020f 74020000 		.4byte	0x274
 567 0213 28       		.byte	0x28
ARM GAS  C:\Users\RAKIBU~1\AppData\Local\Temp\cc4wEajS.s 			page 11


 568 0214 0B       		.uleb128 0xb
 569 0215 AE020000 		.4byte	.LASF42
 570 0219 08       		.byte	0x8
 571 021a 0E01     		.2byte	0x10e
 572 021c 98020000 		.4byte	0x298
 573 0220 2C       		.byte	0x2c
 574 0221 0B       		.uleb128 0xb
 575 0222 DE030000 		.4byte	.LASF43
 576 0226 08       		.byte	0x8
 577 0227 1401     		.2byte	0x114
 578 0229 4C010000 		.4byte	0x14c
 579 022d 34       		.byte	0x34
 580 022e 0B       		.uleb128 0xb
 581 022f 29090000 		.4byte	.LASF44
 582 0233 08       		.byte	0x8
 583 0234 1B01     		.2byte	0x11b
 584 0236 F9090000 		.4byte	0x9f9
 585 023a 38       		.byte	0x38
 586 023b 0B       		.uleb128 0xb
 587 023c 8A040000 		.4byte	.LASF45
 588 0240 08       		.byte	0x8
 589 0241 1F01     		.2byte	0x11f
 590 0243 36010000 		.4byte	0x136
 591 0247 3C       		.byte	0x3c
 592 0248 0B       		.uleb128 0xb
 593 0249 23030000 		.4byte	.LASF46
 594 024d 08       		.byte	0x8
 595 024e 2601     		.2byte	0x126
 596 0250 4B030000 		.4byte	0x34b
 597 0254 40       		.byte	0x40
 598 0255 0B       		.uleb128 0xb
 599 0256 F5010000 		.4byte	.LASF47
 600 025a 08       		.byte	0x8
 601 025b 2C01     		.2byte	0x12c
 602 025d E6080000 		.4byte	0x8e6
 603 0261 48       		.byte	0x48
 604 0262 00       		.byte	0
 605 0263 03       		.uleb128 0x3
 606 0264 A3040000 		.4byte	.LASF48
 607 0268 07       		.byte	0x7
 608 0269 39       		.byte	0x39
 609 026a 6E020000 		.4byte	0x26e
 610 026e 0C       		.uleb128 0xc
 611 026f 04       		.byte	0x4
 612 0270 6D010000 		.4byte	0x16d
 613 0274 03       		.uleb128 0x3
 614 0275 E7080000 		.4byte	.LASF49
 615 0279 07       		.byte	0x7
 616 027a 3E       		.byte	0x3e
 617 027b 7F020000 		.4byte	0x27f
 618 027f 07       		.uleb128 0x7
 619 0280 47070000 		.4byte	.LASF51
 620 0284 04       		.byte	0x4
 621 0285 08       		.byte	0x8
 622 0286 7C       		.byte	0x7c
 623 0287 98020000 		.4byte	0x298
 624 028b 08       		.uleb128 0x8
ARM GAS  C:\Users\RAKIBU~1\AppData\Local\Temp\cc4wEajS.s 			page 12


 625 028c 14000000 		.4byte	.LASF52
 626 0290 08       		.byte	0x8
 627 0291 7D       		.byte	0x7d
 628 0292 6E020000 		.4byte	0x26e
 629 0296 00       		.byte	0
 630 0297 00       		.byte	0
 631 0298 03       		.uleb128 0x3
 632 0299 5A080000 		.4byte	.LASF53
 633 029d 07       		.byte	0x7
 634 029e 45       		.byte	0x45
 635 029f A3020000 		.4byte	0x2a3
 636 02a3 07       		.uleb128 0x7
 637 02a4 57000000 		.4byte	.LASF54
 638 02a8 08       		.byte	0x8
 639 02a9 08       		.byte	0x8
 640 02aa 83       		.byte	0x83
 641 02ab C8020000 		.4byte	0x2c8
 642 02af 08       		.uleb128 0x8
 643 02b0 14000000 		.4byte	.LASF52
 644 02b4 08       		.byte	0x8
 645 02b5 84       		.byte	0x84
 646 02b6 6E020000 		.4byte	0x26e
 647 02ba 00       		.byte	0
 648 02bb 08       		.uleb128 0x8
 649 02bc 46000000 		.4byte	.LASF55
 650 02c0 08       		.byte	0x8
 651 02c1 85       		.byte	0x85
 652 02c2 6E020000 		.4byte	0x26e
 653 02c6 04       		.byte	0x4
 654 02c7 00       		.byte	0
 655 02c8 03       		.uleb128 0x3
 656 02c9 00000000 		.4byte	.LASF56
 657 02cd 07       		.byte	0x7
 658 02ce 4C       		.byte	0x4c
 659 02cf D3020000 		.4byte	0x2d3
 660 02d3 0D       		.uleb128 0xd
 661 02d4 19040000 		.4byte	.LASF57
 662 02d8 1C       		.byte	0x1c
 663 02d9 08       		.byte	0x8
 664 02da 5E01     		.2byte	0x15e
 665 02dc 2F030000 		.4byte	0x32f
 666 02e0 0B       		.uleb128 0xb
 667 02e1 1D030000 		.4byte	.LASF32
 668 02e5 08       		.byte	0x8
 669 02e6 5F01     		.2byte	0x15f
 670 02e8 98020000 		.4byte	0x298
 671 02ec 00       		.byte	0
 672 02ed 0B       		.uleb128 0xb
 673 02ee AC050000 		.4byte	.LASF33
 674 02f2 08       		.byte	0x8
 675 02f3 6001     		.2byte	0x160
 676 02f5 36010000 		.4byte	0x136
 677 02f9 08       		.byte	0x8
 678 02fa 0A       		.uleb128 0xa
 679 02fb 63747800 		.ascii	"ctx\000"
 680 02ff 08       		.byte	0x8
 681 0300 6201     		.2byte	0x162
ARM GAS  C:\Users\RAKIBU~1\AppData\Local\Temp\cc4wEajS.s 			page 13


 682 0302 80060000 		.4byte	0x680
 683 0306 0C       		.byte	0xc
 684 0307 0B       		.uleb128 0xb
 685 0308 75040000 		.4byte	.LASF34
 686 030c 08       		.byte	0x8
 687 030d 6501     		.2byte	0x165
 688 030f 6E020000 		.4byte	0x26e
 689 0313 10       		.byte	0x10
 690 0314 0B       		.uleb128 0xb
 691 0315 81070000 		.4byte	.LASF35
 692 0319 08       		.byte	0x8
 693 031a 6601     		.2byte	0x166
 694 031c 6E020000 		.4byte	0x26e
 695 0320 14       		.byte	0x14
 696 0321 0B       		.uleb128 0xb
 697 0322 BA050000 		.4byte	.LASF58
 698 0326 08       		.byte	0x8
 699 0327 6901     		.2byte	0x169
 700 0329 6E020000 		.4byte	0x26e
 701 032d 18       		.byte	0x18
 702 032e 00       		.byte	0
 703 032f 03       		.uleb128 0x3
 704 0330 D3070000 		.4byte	.LASF59
 705 0334 07       		.byte	0x7
 706 0335 51       		.byte	0x51
 707 0336 3A030000 		.4byte	0x33a
 708 033a 0C       		.uleb128 0xc
 709 033b 04       		.byte	0x4
 710 033c 40030000 		.4byte	0x340
 711 0340 0E       		.uleb128 0xe
 712 0341 4B030000 		.4byte	0x34b
 713 0345 0F       		.uleb128 0xf
 714 0346 4B030000 		.4byte	0x34b
 715 034a 00       		.byte	0
 716 034b 10       		.uleb128 0x10
 717 034c 04       		.byte	0x4
 718 034d 03       		.uleb128 0x3
 719 034e 0D060000 		.4byte	.LASF60
 720 0352 07       		.byte	0x7
 721 0353 56       		.byte	0x56
 722 0354 58030000 		.4byte	0x358
 723 0358 0D       		.uleb128 0xd
 724 0359 E4060000 		.4byte	.LASF61
 725 035d 18       		.byte	0x18
 726 035e 08       		.byte	0x8
 727 035f 3901     		.2byte	0x139
 728 0361 A7030000 		.4byte	0x3a7
 729 0365 0B       		.uleb128 0xb
 730 0366 14000000 		.4byte	.LASF52
 731 036a 08       		.byte	0x8
 732 036b 3A01     		.2byte	0x13a
 733 036d 050A0000 		.4byte	0xa05
 734 0371 00       		.byte	0
 735 0372 0B       		.uleb128 0xb
 736 0373 46000000 		.4byte	.LASF55
 737 0377 08       		.byte	0x8
 738 0378 3B01     		.2byte	0x13b
ARM GAS  C:\Users\RAKIBU~1\AppData\Local\Temp\cc4wEajS.s 			page 14


 739 037a 050A0000 		.4byte	0xa05
 740 037e 04       		.byte	0x4
 741 037f 0B       		.uleb128 0xb
 742 0380 19000000 		.4byte	.LASF62
 743 0384 08       		.byte	0x8
 744 0385 3C01     		.2byte	0x13c
 745 0387 B7040000 		.4byte	0x4b7
 746 038b 08       		.byte	0x8
 747 038c 0B       		.uleb128 0xb
 748 038d F0010000 		.4byte	.LASF63
 749 0391 08       		.byte	0x8
 750 0392 3D01     		.2byte	0x13d
 751 0394 2F030000 		.4byte	0x32f
 752 0398 10       		.byte	0x10
 753 0399 0A       		.uleb128 0xa
 754 039a 70617200 		.ascii	"par\000"
 755 039e 08       		.byte	0x8
 756 039f 3F01     		.2byte	0x13f
 757 03a1 4B030000 		.4byte	0x34b
 758 03a5 14       		.byte	0x14
 759 03a6 00       		.byte	0
 760 03a7 03       		.uleb128 0x3
 761 03a8 04010000 		.4byte	.LASF64
 762 03ac 07       		.byte	0x7
 763 03ad 5B       		.byte	0x5b
 764 03ae B2030000 		.4byte	0x3b2
 765 03b2 0D       		.uleb128 0xd
 766 03b3 B6040000 		.4byte	.LASF65
 767 03b7 18       		.byte	0x18
 768 03b8 08       		.byte	0x8
 769 03b9 4901     		.2byte	0x149
 770 03bb F4030000 		.4byte	0x3f4
 771 03bf 0B       		.uleb128 0xb
 772 03c0 14000000 		.4byte	.LASF52
 773 03c4 08       		.byte	0x8
 774 03c5 4A01     		.2byte	0x14a
 775 03c7 050A0000 		.4byte	0xa05
 776 03cb 00       		.byte	0
 777 03cc 0B       		.uleb128 0xb
 778 03cd 46000000 		.4byte	.LASF55
 779 03d1 08       		.byte	0x8
 780 03d2 4C01     		.2byte	0x14c
 781 03d4 050A0000 		.4byte	0xa05
 782 03d8 04       		.byte	0x4
 783 03d9 0B       		.uleb128 0xb
 784 03da 19000000 		.4byte	.LASF62
 785 03de 08       		.byte	0x8
 786 03df 4E01     		.2byte	0x14e
 787 03e1 B7040000 		.4byte	0x4b7
 788 03e5 08       		.byte	0x8
 789 03e6 0B       		.uleb128 0xb
 790 03e7 AA060000 		.4byte	.LASF66
 791 03eb 08       		.byte	0x8
 792 03ec 5601     		.2byte	0x156
 793 03ee AC040000 		.4byte	0x4ac
 794 03f2 10       		.byte	0x10
 795 03f3 00       		.byte	0
ARM GAS  C:\Users\RAKIBU~1\AppData\Local\Temp\cc4wEajS.s 			page 15


 796 03f4 03       		.uleb128 0x3
 797 03f5 68000000 		.4byte	.LASF67
 798 03f9 07       		.byte	0x7
 799 03fa 60       		.byte	0x60
 800 03fb FF030000 		.4byte	0x3ff
 801 03ff 11       		.uleb128 0x11
 802 0400 5E020000 		.4byte	.LASF68
 803 0404 1408     		.2byte	0x814
 804 0406 08       		.byte	0x8
 805 0407 7001     		.2byte	0x170
 806 0409 42040000 		.4byte	0x442
 807 040d 0B       		.uleb128 0xb
 808 040e E1070000 		.4byte	.LASF69
 809 0412 08       		.byte	0x8
 810 0413 7801     		.2byte	0x178
 811 0415 56070000 		.4byte	0x756
 812 0419 00       		.byte	0
 813 041a 0B       		.uleb128 0xb
 814 041b 76080000 		.4byte	.LASF70
 815 041f 08       		.byte	0x8
 816 0420 7D01     		.2byte	0x17d
 817 0422 57010000 		.4byte	0x157
 818 0426 04       		.byte	0x4
 819 0427 0B       		.uleb128 0xb
 820 0428 91020000 		.4byte	.LASF71
 821 042c 08       		.byte	0x8
 822 042d 8101     		.2byte	0x181
 823 042f 57010000 		.4byte	0x157
 824 0433 08       		.byte	0x8
 825 0434 0B       		.uleb128 0xb
 826 0435 00090000 		.4byte	.LASF72
 827 0439 08       		.byte	0x8
 828 043a 8701     		.2byte	0x187
 829 043c 78080000 		.4byte	0x878
 830 0440 0C       		.byte	0xc
 831 0441 00       		.byte	0
 832 0442 03       		.uleb128 0x3
 833 0443 F2030000 		.4byte	.LASF73
 834 0447 07       		.byte	0x7
 835 0448 65       		.byte	0x65
 836 0449 4D040000 		.4byte	0x44d
 837 044d 11       		.uleb128 0x11
 838 044e BF060000 		.4byte	.LASF74
 839 0452 F008     		.2byte	0x8f0
 840 0454 08       		.byte	0x8
 841 0455 9001     		.2byte	0x190
 842 0457 AC040000 		.4byte	0x4ac
 843 045b 0B       		.uleb128 0xb
 844 045c 85010000 		.4byte	.LASF75
 845 0460 08       		.byte	0x8
 846 0461 9401     		.2byte	0x194
 847 0463 C8020000 		.4byte	0x2c8
 848 0467 00       		.byte	0
 849 0468 0B       		.uleb128 0xb
 850 0469 8B010000 		.4byte	.LASF76
 851 046d 08       		.byte	0x8
 852 046e 9801     		.2byte	0x198
ARM GAS  C:\Users\RAKIBU~1\AppData\Local\Temp\cc4wEajS.s 			page 16


 853 0470 A7030000 		.4byte	0x3a7
 854 0474 20       		.byte	0x20
 855 0475 0A       		.uleb128 0xa
 856 0476 64626700 		.ascii	"dbg\000"
 857 047a 08       		.byte	0x8
 858 047b 9C01     		.2byte	0x19c
 859 047d F4030000 		.4byte	0x3f4
 860 0481 38       		.byte	0x38
 861 0482 12       		.uleb128 0x12
 862 0483 F1000000 		.4byte	.LASF77
 863 0487 08       		.byte	0x8
 864 0488 A001     		.2byte	0x1a0
 865 048a 6D010000 		.4byte	0x16d
 866 048e 5008     		.2byte	0x850
 867 0490 13       		.uleb128 0x13
 868 0491 746D00   		.ascii	"tm\000"
 869 0494 08       		.byte	0x8
 870 0495 A501     		.2byte	0x1a5
 871 0497 98080000 		.4byte	0x898
 872 049b B008     		.2byte	0x8b0
 873 049d 12       		.uleb128 0x12
 874 049e 2F000000 		.4byte	.LASF78
 875 04a2 08       		.byte	0x8
 876 04a3 AB01     		.2byte	0x1ab
 877 04a5 2A090000 		.4byte	0x92a
 878 04a9 B808     		.2byte	0x8b8
 879 04ab 00       		.byte	0
 880 04ac 03       		.uleb128 0x3
 881 04ad C9070000 		.4byte	.LASF79
 882 04b1 09       		.byte	0x9
 883 04b2 6D       		.byte	0x6d
 884 04b3 DF000000 		.4byte	0xdf
 885 04b7 03       		.uleb128 0x3
 886 04b8 9A020000 		.4byte	.LASF80
 887 04bc 09       		.byte	0x9
 888 04bd 77       		.byte	0x77
 889 04be F4000000 		.4byte	0xf4
 890 04c2 14       		.uleb128 0x14
 891 04c3 DF000000 		.4byte	0xdf
 892 04c7 D2040000 		.4byte	0x4d2
 893 04cb 15       		.uleb128 0x15
 894 04cc 37000000 		.4byte	0x37
 895 04d0 00       		.byte	0
 896 04d1 00       		.byte	0
 897 04d2 16       		.uleb128 0x16
 898 04d3 5C       		.byte	0x5c
 899 04d4 0A       		.byte	0xa
 900 04d5 9203     		.2byte	0x392
 901 04d7 07060000 		.4byte	0x607
 902 04db 0B       		.uleb128 0xb
 903 04dc 2E080000 		.4byte	.LASF81
 904 04e0 0A       		.byte	0xa
 905 04e1 9403     		.2byte	0x394
 906 04e3 EA000000 		.4byte	0xea
 907 04e7 00       		.byte	0
 908 04e8 0B       		.uleb128 0xb
 909 04e9 83040000 		.4byte	.LASF82
ARM GAS  C:\Users\RAKIBU~1\AppData\Local\Temp\cc4wEajS.s 			page 17


 910 04ed 0A       		.byte	0xa
 911 04ee 9503     		.2byte	0x395
 912 04f0 EA000000 		.4byte	0xea
 913 04f4 04       		.byte	0x4
 914 04f5 0B       		.uleb128 0xb
 915 04f6 7E010000 		.4byte	.LASF83
 916 04fa 0A       		.byte	0xa
 917 04fb 9603     		.2byte	0x396
 918 04fd EA000000 		.4byte	0xea
 919 0501 08       		.byte	0x8
 920 0502 0B       		.uleb128 0xb
 921 0503 CA030000 		.4byte	.LASF84
 922 0507 0A       		.byte	0xa
 923 0508 9703     		.2byte	0x397
 924 050a EA000000 		.4byte	0xea
 925 050e 0C       		.byte	0xc
 926 050f 0B       		.uleb128 0xb
 927 0510 C1030000 		.4byte	.LASF85
 928 0514 0A       		.byte	0xa
 929 0515 9803     		.2byte	0x398
 930 0517 EA000000 		.4byte	0xea
 931 051b 10       		.byte	0x10
 932 051c 0B       		.uleb128 0xb
 933 051d 30070000 		.4byte	.LASF86
 934 0521 0A       		.byte	0xa
 935 0522 9903     		.2byte	0x399
 936 0524 EA000000 		.4byte	0xea
 937 0528 14       		.byte	0x14
 938 0529 0B       		.uleb128 0xb
 939 052a D3080000 		.4byte	.LASF87
 940 052e 0A       		.byte	0xa
 941 052f 9A03     		.2byte	0x39a
 942 0531 EA000000 		.4byte	0xea
 943 0535 18       		.byte	0x18
 944 0536 0B       		.uleb128 0xb
 945 0537 DB080000 		.4byte	.LASF88
 946 053b 0A       		.byte	0xa
 947 053c 9B03     		.2byte	0x39b
 948 053e EF000000 		.4byte	0xef
 949 0542 1C       		.byte	0x1c
 950 0543 0B       		.uleb128 0xb
 951 0544 FA040000 		.4byte	.LASF89
 952 0548 0A       		.byte	0xa
 953 0549 9C03     		.2byte	0x39c
 954 054b EA000000 		.4byte	0xea
 955 054f 20       		.byte	0x20
 956 0550 0B       		.uleb128 0xb
 957 0551 B7020000 		.4byte	.LASF90
 958 0555 0A       		.byte	0xa
 959 0556 9D03     		.2byte	0x39d
 960 0558 EA000000 		.4byte	0xea
 961 055c 24       		.byte	0x24
 962 055d 0B       		.uleb128 0xb
 963 055e 78060000 		.4byte	.LASF91
 964 0562 0A       		.byte	0xa
 965 0563 9E03     		.2byte	0x39e
 966 0565 EA000000 		.4byte	0xea
ARM GAS  C:\Users\RAKIBU~1\AppData\Local\Temp\cc4wEajS.s 			page 18


 967 0569 28       		.byte	0x28
 968 056a 0B       		.uleb128 0xb
 969 056b EA050000 		.4byte	.LASF92
 970 056f 0A       		.byte	0xa
 971 0570 9F03     		.2byte	0x39f
 972 0572 C2040000 		.4byte	0x4c2
 973 0576 2C       		.byte	0x2c
 974 0577 0B       		.uleb128 0xb
 975 0578 00050000 		.4byte	.LASF93
 976 057c 0A       		.byte	0xa
 977 057d A003     		.2byte	0x3a0
 978 057f EA000000 		.4byte	0xea
 979 0583 30       		.byte	0x30
 980 0584 0B       		.uleb128 0xb
 981 0585 3C060000 		.4byte	.LASF94
 982 0589 0A       		.byte	0xa
 983 058a A103     		.2byte	0x3a1
 984 058c EA000000 		.4byte	0xea
 985 0590 34       		.byte	0x34
 986 0591 0B       		.uleb128 0xb
 987 0592 82060000 		.4byte	.LASF95
 988 0596 0A       		.byte	0xa
 989 0597 A203     		.2byte	0x3a2
 990 0599 EA000000 		.4byte	0xea
 991 059d 38       		.byte	0x38
 992 059e 0B       		.uleb128 0xb
 993 059f F4050000 		.4byte	.LASF96
 994 05a3 0A       		.byte	0xa
 995 05a4 A303     		.2byte	0x3a3
 996 05a6 C2040000 		.4byte	0x4c2
 997 05aa 3C       		.byte	0x3c
 998 05ab 0B       		.uleb128 0xb
 999 05ac 06050000 		.4byte	.LASF97
 1000 05b0 0A       		.byte	0xa
 1001 05b1 A403     		.2byte	0x3a4
 1002 05b3 EA000000 		.4byte	0xea
 1003 05b7 40       		.byte	0x40
 1004 05b8 0B       		.uleb128 0xb
 1005 05b9 CA020000 		.4byte	.LASF98
 1006 05bd 0A       		.byte	0xa
 1007 05be A503     		.2byte	0x3a5
 1008 05c0 EA000000 		.4byte	0xea
 1009 05c4 44       		.byte	0x44
 1010 05c5 0B       		.uleb128 0xb
 1011 05c6 8C060000 		.4byte	.LASF99
 1012 05ca 0A       		.byte	0xa
 1013 05cb A603     		.2byte	0x3a6
 1014 05cd EA000000 		.4byte	0xea
 1015 05d1 48       		.byte	0x48
 1016 05d2 0B       		.uleb128 0xb
 1017 05d3 FE050000 		.4byte	.LASF100
 1018 05d7 0A       		.byte	0xa
 1019 05d8 A703     		.2byte	0x3a7
 1020 05da C2040000 		.4byte	0x4c2
 1021 05de 4C       		.byte	0x4c
 1022 05df 0B       		.uleb128 0xb
 1023 05e0 0C050000 		.4byte	.LASF101
ARM GAS  C:\Users\RAKIBU~1\AppData\Local\Temp\cc4wEajS.s 			page 19


 1024 05e4 0A       		.byte	0xa
 1025 05e5 A803     		.2byte	0x3a8
 1026 05e7 EA000000 		.4byte	0xea
 1027 05eb 50       		.byte	0x50
 1028 05ec 0B       		.uleb128 0xb
 1029 05ed E0020000 		.4byte	.LASF102
 1030 05f1 0A       		.byte	0xa
 1031 05f2 A903     		.2byte	0x3a9
 1032 05f4 EA000000 		.4byte	0xea
 1033 05f8 54       		.byte	0x54
 1034 05f9 0B       		.uleb128 0xb
 1035 05fa 96060000 		.4byte	.LASF103
 1036 05fe 0A       		.byte	0xa
 1037 05ff AA03     		.2byte	0x3aa
 1038 0601 EA000000 		.4byte	0xea
 1039 0605 58       		.byte	0x58
 1040 0606 00       		.byte	0
 1041 0607 17       		.uleb128 0x17
 1042 0608 18080000 		.4byte	.LASF104
 1043 060c 0A       		.byte	0xa
 1044 060d AB03     		.2byte	0x3ab
 1045 060f D2040000 		.4byte	0x4d2
 1046 0613 18       		.uleb128 0x18
 1047 0614 6B060000 		.4byte	.LASF105
 1048 0618 0A       		.byte	0xa
 1049 0619 0408     		.2byte	0x804
 1050 061b DA000000 		.4byte	0xda
 1051 061f 19       		.uleb128 0x19
 1052 0620 D0020000 		.4byte	.LASF106
 1053 0624 0B       		.byte	0xb
 1054 0625 4C       		.byte	0x4c
 1055 0626 DF000000 		.4byte	0xdf
 1056 062a 14       		.uleb128 0x14
 1057 062b BF000000 		.4byte	0xbf
 1058 062f 3A060000 		.4byte	0x63a
 1059 0633 15       		.uleb128 0x15
 1060 0634 37000000 		.4byte	0x37
 1061 0638 0F       		.byte	0xf
 1062 0639 00       		.byte	0
 1063 063a 05       		.uleb128 0x5
 1064 063b 2A060000 		.4byte	0x62a
 1065 063f 19       		.uleb128 0x19
 1066 0640 33040000 		.4byte	.LASF107
 1067 0644 0B       		.byte	0xb
 1068 0645 4E       		.byte	0x4e
 1069 0646 3A060000 		.4byte	0x63a
 1070 064a 14       		.uleb128 0x14
 1071 064b BF000000 		.4byte	0xbf
 1072 064f 5A060000 		.4byte	0x65a
 1073 0653 15       		.uleb128 0x15
 1074 0654 37000000 		.4byte	0x37
 1075 0658 07       		.byte	0x7
 1076 0659 00       		.byte	0
 1077 065a 05       		.uleb128 0x5
 1078 065b 4A060000 		.4byte	0x64a
 1079 065f 19       		.uleb128 0x19
 1080 0660 76020000 		.4byte	.LASF108
ARM GAS  C:\Users\RAKIBU~1\AppData\Local\Temp\cc4wEajS.s 			page 20


 1081 0664 0B       		.byte	0xb
 1082 0665 4F       		.byte	0x4f
 1083 0666 5A060000 		.4byte	0x65a
 1084 066a 03       		.uleb128 0x3
 1085 066b 4C020000 		.4byte	.LASF109
 1086 066f 0C       		.byte	0xc
 1087 0670 65       		.byte	0x65
 1088 0671 4B030000 		.4byte	0x34b
 1089 0675 03       		.uleb128 0x3
 1090 0676 6A040000 		.4byte	.LASF110
 1091 067a 0C       		.byte	0xc
 1092 067b 6D       		.byte	0x6d
 1093 067c F4000000 		.4byte	0xf4
 1094 0680 07       		.uleb128 0x7
 1095 0681 8E000000 		.4byte	.LASF111
 1096 0685 04       		.byte	0x4
 1097 0686 0C       		.byte	0xc
 1098 0687 89       		.byte	0x89
 1099 0688 98060000 		.4byte	0x698
 1100 068c 09       		.uleb128 0x9
 1101 068d 737000   		.ascii	"sp\000"
 1102 0690 0C       		.byte	0xc
 1103 0691 8A       		.byte	0x8a
 1104 0692 14070000 		.4byte	0x714
 1105 0696 00       		.byte	0
 1106 0697 00       		.byte	0
 1107 0698 0D       		.uleb128 0xd
 1108 0699 4B000000 		.4byte	.LASF112
 1109 069d 24       		.byte	0x24
 1110 069e 02       		.byte	0x2
 1111 069f 6001     		.2byte	0x160
 1112 06a1 14070000 		.4byte	0x714
 1113 06a5 0A       		.uleb128 0xa
 1114 06a6 723400   		.ascii	"r4\000"
 1115 06a9 02       		.byte	0x2
 1116 06aa 7301     		.2byte	0x173
 1117 06ac 6A060000 		.4byte	0x66a
 1118 06b0 00       		.byte	0
 1119 06b1 0A       		.uleb128 0xa
 1120 06b2 723500   		.ascii	"r5\000"
 1121 06b5 02       		.byte	0x2
 1122 06b6 7401     		.2byte	0x174
 1123 06b8 6A060000 		.4byte	0x66a
 1124 06bc 04       		.byte	0x4
 1125 06bd 0A       		.uleb128 0xa
 1126 06be 723600   		.ascii	"r6\000"
 1127 06c1 02       		.byte	0x2
 1128 06c2 7501     		.2byte	0x175
 1129 06c4 6A060000 		.4byte	0x66a
 1130 06c8 08       		.byte	0x8
 1131 06c9 0A       		.uleb128 0xa
 1132 06ca 723700   		.ascii	"r7\000"
 1133 06cd 02       		.byte	0x2
 1134 06ce 7601     		.2byte	0x176
 1135 06d0 6A060000 		.4byte	0x66a
 1136 06d4 0C       		.byte	0xc
 1137 06d5 0A       		.uleb128 0xa
ARM GAS  C:\Users\RAKIBU~1\AppData\Local\Temp\cc4wEajS.s 			page 21


 1138 06d6 723800   		.ascii	"r8\000"
 1139 06d9 02       		.byte	0x2
 1140 06da 7701     		.2byte	0x177
 1141 06dc 6A060000 		.4byte	0x66a
 1142 06e0 10       		.byte	0x10
 1143 06e1 0A       		.uleb128 0xa
 1144 06e2 723900   		.ascii	"r9\000"
 1145 06e5 02       		.byte	0x2
 1146 06e6 7801     		.2byte	0x178
 1147 06e8 6A060000 		.4byte	0x66a
 1148 06ec 14       		.byte	0x14
 1149 06ed 0A       		.uleb128 0xa
 1150 06ee 72313000 		.ascii	"r10\000"
 1151 06f2 02       		.byte	0x2
 1152 06f3 7901     		.2byte	0x179
 1153 06f5 6A060000 		.4byte	0x66a
 1154 06f9 18       		.byte	0x18
 1155 06fa 0A       		.uleb128 0xa
 1156 06fb 72313100 		.ascii	"r11\000"
 1157 06ff 02       		.byte	0x2
 1158 0700 7A01     		.2byte	0x17a
 1159 0702 6A060000 		.4byte	0x66a
 1160 0706 1C       		.byte	0x1c
 1161 0707 0A       		.uleb128 0xa
 1162 0708 6C7200   		.ascii	"lr\000"
 1163 070b 02       		.byte	0x2
 1164 070c 7B01     		.2byte	0x17b
 1165 070e 6A060000 		.4byte	0x66a
 1166 0712 20       		.byte	0x20
 1167 0713 00       		.byte	0
 1168 0714 0C       		.uleb128 0xc
 1169 0715 04       		.byte	0x4
 1170 0716 98060000 		.4byte	0x698
 1171 071a 1A       		.uleb128 0x1a
 1172 071b 08       		.byte	0x8
 1173 071c 0D       		.byte	0xd
 1174 071d 7F       		.byte	0x7f
 1175 071e 3B070000 		.4byte	0x73b
 1176 0722 09       		.uleb128 0x9
 1177 0723 6E747000 		.ascii	"ntp\000"
 1178 0727 0D       		.byte	0xd
 1179 0728 83       		.byte	0x83
 1180 0729 6E020000 		.4byte	0x26e
 1181 072d 00       		.byte	0
 1182 072e 08       		.uleb128 0x8
 1183 072f E0080000 		.4byte	.LASF113
 1184 0733 0D       		.byte	0xd
 1185 0734 87       		.byte	0x87
 1186 0735 4B030000 		.4byte	0x34b
 1187 0739 04       		.byte	0x4
 1188 073a 00       		.byte	0
 1189 073b 1A       		.uleb128 0x1a
 1190 073c 04       		.byte	0x4
 1191 073d 0D       		.byte	0xd
 1192 073e 8C       		.byte	0x8c
 1193 073f 50070000 		.4byte	0x750
 1194 0743 08       		.uleb128 0x8
ARM GAS  C:\Users\RAKIBU~1\AppData\Local\Temp\cc4wEajS.s 			page 22


 1195 0744 BC030000 		.4byte	.LASF36
 1196 0748 0D       		.byte	0xd
 1197 0749 90       		.byte	0x90
 1198 074a 50070000 		.4byte	0x750
 1199 074e 00       		.byte	0
 1200 074f 00       		.byte	0
 1201 0750 0C       		.uleb128 0xc
 1202 0751 04       		.byte	0x4
 1203 0752 62070000 		.4byte	0x762
 1204 0756 06       		.uleb128 0x6
 1205 0757 50070000 		.4byte	0x750
 1206 075b 04       		.uleb128 0x4
 1207 075c 01       		.byte	0x1
 1208 075d 08       		.byte	0x8
 1209 075e 7C070000 		.4byte	.LASF114
 1210 0762 05       		.uleb128 0x5
 1211 0763 5B070000 		.4byte	0x75b
 1212 0767 1A       		.uleb128 0x1a
 1213 0768 04       		.byte	0x4
 1214 0769 0D       		.byte	0xd
 1215 076a 95       		.byte	0x95
 1216 076b 7C070000 		.4byte	0x77c
 1217 076f 08       		.uleb128 0x8
 1218 0770 DD060000 		.4byte	.LASF115
 1219 0774 0D       		.byte	0xd
 1220 0775 99       		.byte	0x99
 1221 0776 50070000 		.4byte	0x750
 1222 077a 00       		.byte	0
 1223 077b 00       		.byte	0
 1224 077c 1A       		.uleb128 0x1a
 1225 077d 08       		.byte	0x8
 1226 077e 0D       		.byte	0xd
 1227 077f 9E       		.byte	0x9e
 1228 0780 9D070000 		.4byte	0x79d
 1229 0784 09       		.uleb128 0x9
 1230 0785 75703100 		.ascii	"up1\000"
 1231 0789 0D       		.byte	0xd
 1232 078a A2       		.byte	0xa2
 1233 078b 4B030000 		.4byte	0x34b
 1234 078f 00       		.byte	0
 1235 0790 09       		.uleb128 0x9
 1236 0791 75703200 		.ascii	"up2\000"
 1237 0795 0D       		.byte	0xd
 1238 0796 A6       		.byte	0xa6
 1239 0797 4B030000 		.4byte	0x34b
 1240 079b 04       		.byte	0x4
 1241 079c 00       		.byte	0
 1242 079d 1B       		.uleb128 0x1b
 1243 079e 08       		.byte	0x8
 1244 079f 0D       		.byte	0xd
 1245 07a0 7B       		.byte	0x7b
 1246 07a1 D1070000 		.4byte	0x7d1
 1247 07a5 1C       		.uleb128 0x1c
 1248 07a6 737700   		.ascii	"sw\000"
 1249 07a9 0D       		.byte	0xd
 1250 07aa 88       		.byte	0x88
 1251 07ab 1A070000 		.4byte	0x71a
ARM GAS  C:\Users\RAKIBU~1\AppData\Local\Temp\cc4wEajS.s 			page 23


 1252 07af 1C       		.uleb128 0x1c
 1253 07b0 69737200 		.ascii	"isr\000"
 1254 07b4 0D       		.byte	0xd
 1255 07b5 91       		.byte	0x91
 1256 07b6 3B070000 		.4byte	0x73b
 1257 07ba 1D       		.uleb128 0x1d
 1258 07bb B3060000 		.4byte	.LASF116
 1259 07bf 0D       		.byte	0xd
 1260 07c0 9A       		.byte	0x9a
 1261 07c1 67070000 		.4byte	0x767
 1262 07c5 1D       		.uleb128 0x1d
 1263 07c6 1D060000 		.4byte	.LASF117
 1264 07ca 0D       		.byte	0xd
 1265 07cb A7       		.byte	0xa7
 1266 07cc 7C070000 		.4byte	0x77c
 1267 07d0 00       		.byte	0
 1268 07d1 1A       		.uleb128 0x1a
 1269 07d2 10       		.byte	0x10
 1270 07d3 0D       		.byte	0xd
 1271 07d4 68       		.byte	0x68
 1272 07d5 1D080000 		.4byte	0x81d
 1273 07d9 1E       		.uleb128 0x1e
 1274 07da 80000000 		.4byte	.LASF118
 1275 07de 0D       		.byte	0xd
 1276 07df 6C       		.byte	0x6c
 1277 07e0 DF000000 		.4byte	0xdf
 1278 07e4 04       		.byte	0x4
 1279 07e5 03       		.byte	0x3
 1280 07e6 1D       		.byte	0x1d
 1281 07e7 00       		.byte	0
 1282 07e8 1E       		.uleb128 0x1e
 1283 07e9 A8010000 		.4byte	.LASF38
 1284 07ed 0D       		.byte	0xd
 1285 07ee 70       		.byte	0x70
 1286 07ef DF000000 		.4byte	0xdf
 1287 07f3 04       		.byte	0x4
 1288 07f4 05       		.byte	0x5
 1289 07f5 18       		.byte	0x18
 1290 07f6 00       		.byte	0
 1291 07f7 1E       		.uleb128 0x1e
 1292 07f8 7B040000 		.4byte	.LASF119
 1293 07fc 0D       		.byte	0xd
 1294 07fd 76       		.byte	0x76
 1295 07fe DF000000 		.4byte	0xdf
 1296 0802 04       		.byte	0x4
 1297 0803 18       		.byte	0x18
 1298 0804 00       		.byte	0
 1299 0805 00       		.byte	0
 1300 0806 08       		.uleb128 0x8
 1301 0807 A7050000 		.4byte	.LASF120
 1302 080b 0D       		.byte	0xd
 1303 080c 7A       		.byte	0x7a
 1304 080d AC040000 		.4byte	0x4ac
 1305 0811 04       		.byte	0x4
 1306 0812 09       		.uleb128 0x9
 1307 0813 7500     		.ascii	"u\000"
 1308 0815 0D       		.byte	0xd
ARM GAS  C:\Users\RAKIBU~1\AppData\Local\Temp\cc4wEajS.s 			page 24


 1309 0816 A8       		.byte	0xa8
 1310 0817 9D070000 		.4byte	0x79d
 1311 081b 08       		.byte	0x8
 1312 081c 00       		.byte	0
 1313 081d 03       		.uleb128 0x3
 1314 081e DF010000 		.4byte	.LASF121
 1315 0822 0D       		.byte	0xd
 1316 0823 A9       		.byte	0xa9
 1317 0824 D1070000 		.4byte	0x7d1
 1318 0828 1F       		.uleb128 0x1f
 1319 0829 0808     		.2byte	0x808
 1320 082b 0D       		.byte	0xd
 1321 082c AF       		.byte	0xaf
 1322 082d 62080000 		.4byte	0x862
 1323 0831 08       		.uleb128 0x8
 1324 0832 CC010000 		.4byte	.LASF122
 1325 0836 0D       		.byte	0xd
 1326 0837 B3       		.byte	0xb3
 1327 0838 C4000000 		.4byte	0xc4
 1328 083c 00       		.byte	0
 1329 083d 08       		.uleb128 0x8
 1330 083e 79010000 		.4byte	.LASF123
 1331 0842 0D       		.byte	0xd
 1332 0843 B7       		.byte	0xb7
 1333 0844 C4000000 		.4byte	0xc4
 1334 0848 02       		.byte	0x2
 1335 0849 09       		.uleb128 0x9
 1336 084a 70747200 		.ascii	"ptr\000"
 1337 084e 0D       		.byte	0xd
 1338 084f BB       		.byte	0xbb
 1339 0850 62080000 		.4byte	0x862
 1340 0854 04       		.byte	0x4
 1341 0855 08       		.uleb128 0x8
 1342 0856 25020000 		.4byte	.LASF124
 1343 085a 0D       		.byte	0xd
 1344 085b BF       		.byte	0xbf
 1345 085c 68080000 		.4byte	0x868
 1346 0860 08       		.byte	0x8
 1347 0861 00       		.byte	0
 1348 0862 0C       		.uleb128 0xc
 1349 0863 04       		.byte	0x4
 1350 0864 1D080000 		.4byte	0x81d
 1351 0868 14       		.uleb128 0x14
 1352 0869 1D080000 		.4byte	0x81d
 1353 086d 78080000 		.4byte	0x878
 1354 0871 15       		.uleb128 0x15
 1355 0872 37000000 		.4byte	0x37
 1356 0876 7F       		.byte	0x7f
 1357 0877 00       		.byte	0
 1358 0878 03       		.uleb128 0x3
 1359 0879 CB000000 		.4byte	.LASF125
 1360 087d 0D       		.byte	0xd
 1361 087e C0       		.byte	0xc0
 1362 087f 28080000 		.4byte	0x828
 1363 0883 1A       		.uleb128 0x1a
 1364 0884 04       		.byte	0x4
 1365 0885 0E       		.byte	0xe
ARM GAS  C:\Users\RAKIBU~1\AppData\Local\Temp\cc4wEajS.s 			page 25


 1366 0886 38       		.byte	0x38
 1367 0887 98080000 		.4byte	0x898
 1368 088b 08       		.uleb128 0x8
 1369 088c EB070000 		.4byte	.LASF126
 1370 0890 0E       		.byte	0xe
 1371 0891 3C       		.byte	0x3c
 1372 0892 FF000000 		.4byte	0xff
 1373 0896 00       		.byte	0
 1374 0897 00       		.byte	0
 1375 0898 03       		.uleb128 0x3
 1376 0899 E9040000 		.4byte	.LASF127
 1377 089d 0E       		.byte	0xe
 1378 089e 3D       		.byte	0x3d
 1379 089f 83080000 		.4byte	0x883
 1380 08a3 1A       		.uleb128 0x1a
 1381 08a4 18       		.byte	0x18
 1382 08a5 0E       		.byte	0xe
 1383 08a6 48       		.byte	0x48
 1384 08a7 E6080000 		.4byte	0x8e6
 1385 08ab 08       		.uleb128 0x8
 1386 08ac 29030000 		.4byte	.LASF128
 1387 08b0 0E       		.byte	0xe
 1388 08b1 49       		.byte	0x49
 1389 08b2 FF000000 		.4byte	0xff
 1390 08b6 00       		.byte	0
 1391 08b7 08       		.uleb128 0x8
 1392 08b8 9B000000 		.4byte	.LASF129
 1393 08bc 0E       		.byte	0xe
 1394 08bd 4A       		.byte	0x4a
 1395 08be FF000000 		.4byte	0xff
 1396 08c2 04       		.byte	0x4
 1397 08c3 08       		.uleb128 0x8
 1398 08c4 DC070000 		.4byte	.LASF130
 1399 08c8 0E       		.byte	0xe
 1400 08c9 4B       		.byte	0x4b
 1401 08ca FF000000 		.4byte	0xff
 1402 08ce 08       		.byte	0x8
 1403 08cf 09       		.uleb128 0x9
 1404 08d0 6E00     		.ascii	"n\000"
 1405 08d2 0E       		.byte	0xe
 1406 08d3 4C       		.byte	0x4c
 1407 08d4 62010000 		.4byte	0x162
 1408 08d8 0C       		.byte	0xc
 1409 08d9 08       		.uleb128 0x8
 1410 08da D7050000 		.4byte	.LASF131
 1411 08de 0E       		.byte	0xe
 1412 08df 4D       		.byte	0x4d
 1413 08e0 0A010000 		.4byte	0x10a
 1414 08e4 10       		.byte	0x10
 1415 08e5 00       		.byte	0
 1416 08e6 03       		.uleb128 0x3
 1417 08e7 A1000000 		.4byte	.LASF132
 1418 08eb 0E       		.byte	0xe
 1419 08ec 4E       		.byte	0x4e
 1420 08ed A3080000 		.4byte	0x8a3
 1421 08f1 1A       		.uleb128 0x1a
 1422 08f2 38       		.byte	0x38
ARM GAS  C:\Users\RAKIBU~1\AppData\Local\Temp\cc4wEajS.s 			page 26


 1423 08f3 0F       		.byte	0xf
 1424 08f4 38       		.byte	0x38
 1425 08f5 2A090000 		.4byte	0x92a
 1426 08f9 08       		.uleb128 0x8
 1427 08fa 17030000 		.4byte	.LASF133
 1428 08fe 0F       		.byte	0xf
 1429 08ff 39       		.byte	0x39
 1430 0900 62010000 		.4byte	0x162
 1431 0904 00       		.byte	0
 1432 0905 08       		.uleb128 0x8
 1433 0906 33060000 		.4byte	.LASF134
 1434 090a 0F       		.byte	0xf
 1435 090b 3A       		.byte	0x3a
 1436 090c 62010000 		.4byte	0x162
 1437 0910 04       		.byte	0x4
 1438 0911 08       		.uleb128 0x8
 1439 0912 39090000 		.4byte	.LASF135
 1440 0916 0F       		.byte	0xf
 1441 0917 3B       		.byte	0x3b
 1442 0918 E6080000 		.4byte	0x8e6
 1443 091c 08       		.byte	0x8
 1444 091d 08       		.uleb128 0x8
 1445 091e 0E040000 		.4byte	.LASF136
 1446 0922 0F       		.byte	0xf
 1447 0923 3D       		.byte	0x3d
 1448 0924 E6080000 		.4byte	0x8e6
 1449 0928 20       		.byte	0x20
 1450 0929 00       		.byte	0
 1451 092a 03       		.uleb128 0x3
 1452 092b AD030000 		.4byte	.LASF137
 1453 092f 0F       		.byte	0xf
 1454 0930 3F       		.byte	0x3f
 1455 0931 F1080000 		.4byte	0x8f1
 1456 0935 1B       		.uleb128 0x1b
 1457 0936 04       		.byte	0x4
 1458 0937 08       		.byte	0x8
 1459 0938 C6       		.byte	0xc6
 1460 0939 97090000 		.4byte	0x997
 1461 093d 1D       		.uleb128 0x1d
 1462 093e 1F000000 		.4byte	.LASF138
 1463 0942 08       		.byte	0x8
 1464 0943 CD       		.byte	0xcd
 1465 0944 41010000 		.4byte	0x141
 1466 0948 1D       		.uleb128 0x1d
 1467 0949 E8000000 		.4byte	.LASF139
 1468 094d 08       		.byte	0x8
 1469 094e D4       		.byte	0xd4
 1470 094f 41010000 		.4byte	0x141
 1471 0953 1D       		.uleb128 0x1d
 1472 0954 E0080000 		.4byte	.LASF113
 1473 0958 08       		.byte	0x8
 1474 0959 DB       		.byte	0xdb
 1475 095a 4B030000 		.4byte	0x34b
 1476 095e 1D       		.uleb128 0x1d
 1477 095f CD040000 		.4byte	.LASF140
 1478 0963 08       		.byte	0x8
 1479 0964 E2       		.byte	0xe2
ARM GAS  C:\Users\RAKIBU~1\AppData\Local\Temp\cc4wEajS.s 			page 27


 1480 0965 97090000 		.4byte	0x997
 1481 0969 1D       		.uleb128 0x1d
 1482 096a 31090000 		.4byte	.LASF141
 1483 096e 08       		.byte	0x8
 1484 096f E7       		.byte	0xe7
 1485 0970 41010000 		.4byte	0x141
 1486 0974 1D       		.uleb128 0x1d
 1487 0975 E6020000 		.4byte	.LASF142
 1488 0979 08       		.byte	0x8
 1489 097a F0       		.byte	0xf0
 1490 097b C2090000 		.4byte	0x9c2
 1491 097f 1D       		.uleb128 0x1d
 1492 0980 40070000 		.4byte	.LASF143
 1493 0984 08       		.byte	0x8
 1494 0985 F9       		.byte	0xf9
 1495 0986 F9090000 		.4byte	0x9f9
 1496 098a 20       		.uleb128 0x20
 1497 098b B8060000 		.4byte	.LASF144
 1498 098f 08       		.byte	0x8
 1499 0990 0101     		.2byte	0x101
 1500 0992 4C010000 		.4byte	0x14c
 1501 0996 00       		.byte	0
 1502 0997 0C       		.uleb128 0xc
 1503 0998 04       		.byte	0x4
 1504 0999 63020000 		.4byte	0x263
 1505 099d 07       		.uleb128 0x7
 1506 099e F5060000 		.4byte	.LASF145
 1507 09a2 0C       		.byte	0xc
 1508 09a3 10       		.byte	0x10
 1509 09a4 34       		.byte	0x34
 1510 09a5 C2090000 		.4byte	0x9c2
 1511 09a9 08       		.uleb128 0x8
 1512 09aa 1D030000 		.4byte	.LASF32
 1513 09ae 10       		.byte	0x10
 1514 09af 35       		.byte	0x35
 1515 09b0 98020000 		.4byte	0x298
 1516 09b4 00       		.byte	0
 1517 09b5 09       		.uleb128 0x9
 1518 09b6 636E7400 		.ascii	"cnt\000"
 1519 09ba 10       		.byte	0x10
 1520 09bb 37       		.byte	0x37
 1521 09bc 57010000 		.4byte	0x157
 1522 09c0 08       		.byte	0x8
 1523 09c1 00       		.byte	0
 1524 09c2 0C       		.uleb128 0xc
 1525 09c3 04       		.byte	0x4
 1526 09c4 9D090000 		.4byte	0x99d
 1527 09c8 07       		.uleb128 0x7
 1528 09c9 F2070000 		.4byte	.LASF146
 1529 09cd 10       		.byte	0x10
 1530 09ce 11       		.byte	0x11
 1531 09cf 39       		.byte	0x39
 1532 09d0 F9090000 		.4byte	0x9f9
 1533 09d4 08       		.uleb128 0x8
 1534 09d5 1D030000 		.4byte	.LASF32
 1535 09d9 11       		.byte	0x11
 1536 09da 3A       		.byte	0x3a
ARM GAS  C:\Users\RAKIBU~1\AppData\Local\Temp\cc4wEajS.s 			page 28


 1537 09db 98020000 		.4byte	0x298
 1538 09df 00       		.byte	0
 1539 09e0 08       		.uleb128 0x8
 1540 09e1 57070000 		.4byte	.LASF147
 1541 09e5 11       		.byte	0x11
 1542 09e6 3C       		.byte	0x3c
 1543 09e7 6E020000 		.4byte	0x26e
 1544 09eb 08       		.byte	0x8
 1545 09ec 08       		.uleb128 0x8
 1546 09ed 14000000 		.4byte	.LASF52
 1547 09f1 11       		.byte	0x11
 1548 09f2 3E       		.byte	0x3e
 1549 09f3 440B0000 		.4byte	0xb44
 1550 09f7 0C       		.byte	0xc
 1551 09f8 00       		.byte	0
 1552 09f9 0C       		.uleb128 0xc
 1553 09fa 04       		.byte	0x4
 1554 09fb C8090000 		.4byte	0x9c8
 1555 09ff 0C       		.uleb128 0xc
 1556 0a00 04       		.byte	0x4
 1557 0a01 75060000 		.4byte	0x675
 1558 0a05 0C       		.uleb128 0xc
 1559 0a06 04       		.byte	0x4
 1560 0a07 4D030000 		.4byte	0x34d
 1561 0a0b 21       		.uleb128 0x21
 1562 0a0c 636800   		.ascii	"ch\000"
 1563 0a0f 08       		.byte	0x8
 1564 0a10 C701     		.2byte	0x1c7
 1565 0a12 42040000 		.4byte	0x442
 1566 0a16 14       		.uleb128 0x14
 1567 0a17 75060000 		.4byte	0x675
 1568 0a1b 210A0000 		.4byte	0xa21
 1569 0a1f 22       		.uleb128 0x22
 1570 0a20 00       		.byte	0
 1571 0a21 18       		.uleb128 0x18
 1572 0a22 0B070000 		.4byte	.LASF148
 1573 0a26 12       		.byte	0x12
 1574 0a27 1701     		.2byte	0x117
 1575 0a29 160A0000 		.4byte	0xa16
 1576 0a2d 1A       		.uleb128 0x1a
 1577 0a2e 16       		.byte	0x16
 1578 0a2f 13       		.byte	0x13
 1579 0a30 34       		.byte	0x34
 1580 0a31 0E0B0000 		.4byte	0xb0e
 1581 0a35 08       		.uleb128 0x8
 1582 0a36 FB010000 		.4byte	.LASF149
 1583 0a3a 13       		.byte	0x13
 1584 0a3b 35       		.byte	0x35
 1585 0a3c 0E0B0000 		.4byte	0xb0e
 1586 0a40 00       		.byte	0
 1587 0a41 08       		.uleb128 0x8
 1588 0a42 84020000 		.4byte	.LASF150
 1589 0a46 13       		.byte	0x13
 1590 0a47 36       		.byte	0x36
 1591 0a48 B4000000 		.4byte	0xb4
 1592 0a4c 04       		.byte	0x4
 1593 0a4d 08       		.uleb128 0x8
ARM GAS  C:\Users\RAKIBU~1\AppData\Local\Temp\cc4wEajS.s 			page 29


 1594 0a4e 79010000 		.4byte	.LASF123
 1595 0a52 13       		.byte	0x13
 1596 0a53 37       		.byte	0x37
 1597 0a54 B4000000 		.4byte	0xb4
 1598 0a58 05       		.byte	0x5
 1599 0a59 08       		.uleb128 0x8
 1600 0a5a 93040000 		.4byte	.LASF151
 1601 0a5e 13       		.byte	0x13
 1602 0a5f 38       		.byte	0x38
 1603 0a60 C4000000 		.4byte	0xc4
 1604 0a64 06       		.byte	0x6
 1605 0a65 08       		.uleb128 0x8
 1606 0a66 3F080000 		.4byte	.LASF152
 1607 0a6a 13       		.byte	0x13
 1608 0a6b 39       		.byte	0x39
 1609 0a6c B4000000 		.4byte	0xb4
 1610 0a70 08       		.byte	0x8
 1611 0a71 08       		.uleb128 0x8
 1612 0a72 1D070000 		.4byte	.LASF153
 1613 0a76 13       		.byte	0x13
 1614 0a77 3A       		.byte	0x3a
 1615 0a78 B4000000 		.4byte	0xb4
 1616 0a7c 09       		.byte	0x9
 1617 0a7d 08       		.uleb128 0x8
 1618 0a7e DD000000 		.4byte	.LASF154
 1619 0a82 13       		.byte	0x13
 1620 0a83 3B       		.byte	0x3b
 1621 0a84 B4000000 		.4byte	0xb4
 1622 0a88 0A       		.byte	0xa
 1623 0a89 08       		.uleb128 0x8
 1624 0a8a 58060000 		.4byte	.LASF155
 1625 0a8e 13       		.byte	0x13
 1626 0a8f 3C       		.byte	0x3c
 1627 0a90 B4000000 		.4byte	0xb4
 1628 0a94 0B       		.byte	0xb
 1629 0a95 08       		.uleb128 0x8
 1630 0a96 FE030000 		.4byte	.LASF156
 1631 0a9a 13       		.byte	0x13
 1632 0a9b 3D       		.byte	0x3d
 1633 0a9c B4000000 		.4byte	0xb4
 1634 0aa0 0C       		.byte	0xc
 1635 0aa1 08       		.uleb128 0x8
 1636 0aa2 DF040000 		.4byte	.LASF157
 1637 0aa6 13       		.byte	0x13
 1638 0aa7 3E       		.byte	0x3e
 1639 0aa8 B4000000 		.4byte	0xb4
 1640 0aac 0D       		.byte	0xd
 1641 0aad 08       		.uleb128 0x8
 1642 0aae FB070000 		.4byte	.LASF158
 1643 0ab2 13       		.byte	0x13
 1644 0ab3 3F       		.byte	0x3f
 1645 0ab4 B4000000 		.4byte	0xb4
 1646 0ab8 0E       		.byte	0xe
 1647 0ab9 08       		.uleb128 0x8
 1648 0aba 7E080000 		.4byte	.LASF159
 1649 0abe 13       		.byte	0x13
 1650 0abf 40       		.byte	0x40
ARM GAS  C:\Users\RAKIBU~1\AppData\Local\Temp\cc4wEajS.s 			page 30


 1651 0ac0 B4000000 		.4byte	0xb4
 1652 0ac4 0F       		.byte	0xf
 1653 0ac5 08       		.uleb128 0x8
 1654 0ac6 8F080000 		.4byte	.LASF160
 1655 0aca 13       		.byte	0x13
 1656 0acb 41       		.byte	0x41
 1657 0acc B4000000 		.4byte	0xb4
 1658 0ad0 10       		.byte	0x10
 1659 0ad1 08       		.uleb128 0x8
 1660 0ad2 F6080000 		.4byte	.LASF161
 1661 0ad6 13       		.byte	0x13
 1662 0ad7 42       		.byte	0x42
 1663 0ad8 B4000000 		.4byte	0xb4
 1664 0adc 11       		.byte	0x11
 1665 0add 08       		.uleb128 0x8
 1666 0ade 1F090000 		.4byte	.LASF162
 1667 0ae2 13       		.byte	0x13
 1668 0ae3 43       		.byte	0x43
 1669 0ae4 B4000000 		.4byte	0xb4
 1670 0ae8 12       		.byte	0x12
 1671 0ae9 08       		.uleb128 0x8
 1672 0aea 2C020000 		.4byte	.LASF163
 1673 0aee 13       		.byte	0x13
 1674 0aef 44       		.byte	0x44
 1675 0af0 B4000000 		.4byte	0xb4
 1676 0af4 13       		.byte	0x13
 1677 0af5 08       		.uleb128 0x8
 1678 0af6 19020000 		.4byte	.LASF164
 1679 0afa 13       		.byte	0x13
 1680 0afb 45       		.byte	0x45
 1681 0afc B4000000 		.4byte	0xb4
 1682 0b00 14       		.byte	0x14
 1683 0b01 08       		.uleb128 0x8
 1684 0b02 02070000 		.4byte	.LASF165
 1685 0b06 13       		.byte	0x13
 1686 0b07 46       		.byte	0x46
 1687 0b08 B4000000 		.4byte	0xb4
 1688 0b0c 15       		.byte	0x15
 1689 0b0d 00       		.byte	0
 1690 0b0e 14       		.uleb128 0x14
 1691 0b0f 5B070000 		.4byte	0x75b
 1692 0b13 1E0B0000 		.4byte	0xb1e
 1693 0b17 15       		.uleb128 0x15
 1694 0b18 37000000 		.4byte	0x37
 1695 0b1c 03       		.byte	0x3
 1696 0b1d 00       		.byte	0
 1697 0b1e 03       		.uleb128 0x3
 1698 0b1f 0F020000 		.4byte	.LASF166
 1699 0b23 13       		.byte	0x13
 1700 0b24 47       		.byte	0x47
 1701 0b25 2D0A0000 		.4byte	0xa2d
 1702 0b29 05       		.uleb128 0x5
 1703 0b2a 1E0B0000 		.4byte	0xb1e
 1704 0b2e 19       		.uleb128 0x19
 1705 0b2f F6020000 		.4byte	.LASF167
 1706 0b33 13       		.byte	0x13
 1707 0b34 6C       		.byte	0x6c
ARM GAS  C:\Users\RAKIBU~1\AppData\Local\Temp\cc4wEajS.s 			page 31


 1708 0b35 290B0000 		.4byte	0xb29
 1709 0b39 03       		.uleb128 0x3
 1710 0b3a 89020000 		.4byte	.LASF168
 1711 0b3e 11       		.byte	0x11
 1712 0b3f 34       		.byte	0x34
 1713 0b40 C8090000 		.4byte	0x9c8
 1714 0b44 0C       		.uleb128 0xc
 1715 0b45 04       		.byte	0x4
 1716 0b46 390B0000 		.4byte	0xb39
 1717 0b4a 04       		.uleb128 0x4
 1718 0b4b 01       		.byte	0x1
 1719 0b4c 02       		.byte	0x2
 1720 0b4d 5D070000 		.4byte	.LASF169
 1721 0b51 03       		.uleb128 0x3
 1722 0b52 21080000 		.4byte	.LASF170
 1723 0b56 14       		.byte	0x14
 1724 0b57 47       		.byte	0x47
 1725 0b58 5C0B0000 		.4byte	0xb5c
 1726 0b5c 0C       		.uleb128 0xc
 1727 0b5d 04       		.byte	0x4
 1728 0b5e 620B0000 		.4byte	0xb62
 1729 0b62 23       		.uleb128 0x23
 1730 0b63 4B030000 		.4byte	0x34b
 1731 0b67 760B0000 		.4byte	0xb76
 1732 0b6b 0F       		.uleb128 0xf
 1733 0b6c 2C000000 		.4byte	0x2c
 1734 0b70 0F       		.uleb128 0xf
 1735 0b71 37000000 		.4byte	0x37
 1736 0b75 00       		.byte	0
 1737 0b76 1A       		.uleb128 0x1a
 1738 0b77 08       		.byte	0x8
 1739 0b78 14       		.byte	0x14
 1740 0b79 51       		.byte	0x51
 1741 0b7a 970B0000 		.4byte	0xb97
 1742 0b7e 08       		.uleb128 0x8
 1743 0b7f 44090000 		.4byte	.LASF171
 1744 0b83 14       		.byte	0x14
 1745 0b84 55       		.byte	0x55
 1746 0b85 970B0000 		.4byte	0xb97
 1747 0b89 00       		.byte	0
 1748 0b8a 08       		.uleb128 0x8
 1749 0b8b 41040000 		.4byte	.LASF172
 1750 0b8f 14       		.byte	0x14
 1751 0b90 59       		.byte	0x59
 1752 0b91 970B0000 		.4byte	0xb97
 1753 0b95 04       		.byte	0x4
 1754 0b96 00       		.byte	0
 1755 0b97 0C       		.uleb128 0xc
 1756 0b98 04       		.byte	0x4
 1757 0b99 B4000000 		.4byte	0xb4
 1758 0b9d 03       		.uleb128 0x3
 1759 0b9e CD050000 		.4byte	.LASF173
 1760 0ba2 14       		.byte	0x14
 1761 0ba3 5A       		.byte	0x5a
 1762 0ba4 760B0000 		.4byte	0xb76
 1763 0ba8 19       		.uleb128 0x19
 1764 0ba9 BE070000 		.4byte	.LASF174
ARM GAS  C:\Users\RAKIBU~1\AppData\Local\Temp\cc4wEajS.s 			page 32


 1765 0bad 14       		.byte	0x14
 1766 0bae 65       		.byte	0x65
 1767 0baf 9D0B0000 		.4byte	0xb9d
 1768 0bb3 07       		.uleb128 0x7
 1769 0bb4 6A080000 		.4byte	.LASF175
 1770 0bb8 04       		.byte	0x4
 1771 0bb9 15       		.byte	0x15
 1772 0bba 38       		.byte	0x38
 1773 0bbb CC0B0000 		.4byte	0xbcc
 1774 0bbf 08       		.uleb128 0x8
 1775 0bc0 14000000 		.4byte	.LASF52
 1776 0bc4 15       		.byte	0x15
 1777 0bc5 39       		.byte	0x39
 1778 0bc6 CC0B0000 		.4byte	0xbcc
 1779 0bca 00       		.byte	0
 1780 0bcb 00       		.byte	0
 1781 0bcc 0C       		.uleb128 0xc
 1782 0bcd 04       		.byte	0x4
 1783 0bce B30B0000 		.4byte	0xbb3
 1784 0bd2 1A       		.uleb128 0x1a
 1785 0bd3 10       		.byte	0x10
 1786 0bd4 15       		.byte	0x15
 1787 0bd5 40       		.byte	0x40
 1788 0bd6 0B0C0000 		.4byte	0xc0b
 1789 0bda 08       		.uleb128 0x8
 1790 0bdb 14000000 		.4byte	.LASF52
 1791 0bdf 15       		.byte	0x15
 1792 0be0 41       		.byte	0x41
 1793 0be1 CC0B0000 		.4byte	0xbcc
 1794 0be5 00       		.byte	0
 1795 0be6 08       		.uleb128 0x8
 1796 0be7 33080000 		.4byte	.LASF176
 1797 0beb 15       		.byte	0x15
 1798 0bec 42       		.byte	0x42
 1799 0bed 2C000000 		.4byte	0x2c
 1800 0bf1 04       		.byte	0x4
 1801 0bf2 08       		.uleb128 0x8
 1802 0bf3 37010000 		.4byte	.LASF177
 1803 0bf7 15       		.byte	0x15
 1804 0bf8 44       		.byte	0x44
 1805 0bf9 37000000 		.4byte	0x37
 1806 0bfd 08       		.byte	0x8
 1807 0bfe 08       		.uleb128 0x8
 1808 0bff 77000000 		.4byte	.LASF178
 1809 0c03 15       		.byte	0x15
 1810 0c04 45       		.byte	0x45
 1811 0c05 510B0000 		.4byte	0xb51
 1812 0c09 0C       		.byte	0xc
 1813 0c0a 00       		.byte	0
 1814 0c0b 03       		.uleb128 0x3
 1815 0c0c 09030000 		.4byte	.LASF179
 1816 0c10 15       		.byte	0x15
 1817 0c11 47       		.byte	0x47
 1818 0c12 D20B0000 		.4byte	0xbd2
 1819 0c16 07       		.uleb128 0x7
 1820 0c17 6A010000 		.4byte	.LASF180
 1821 0c1b 10       		.byte	0x10
ARM GAS  C:\Users\RAKIBU~1\AppData\Local\Temp\cc4wEajS.s 			page 33


 1822 0c1c 16       		.byte	0x16
 1823 0c1d A9       		.byte	0xa9
 1824 0c1e 470C0000 		.4byte	0xc47
 1825 0c22 08       		.uleb128 0x8
 1826 0c23 14000000 		.4byte	.LASF52
 1827 0c27 16       		.byte	0x16
 1828 0c28 AD       		.byte	0xad
 1829 0c29 470C0000 		.4byte	0xc47
 1830 0c2d 00       		.byte	0
 1831 0c2e 08       		.uleb128 0x8
 1832 0c2f 08060000 		.4byte	.LASF40
 1833 0c33 16       		.byte	0x16
 1834 0c34 B1       		.byte	0xb1
 1835 0c35 62010000 		.4byte	0x162
 1836 0c39 04       		.byte	0x4
 1837 0c3a 08       		.uleb128 0x8
 1838 0c3b BC030000 		.4byte	.LASF36
 1839 0c3f 16       		.byte	0x16
 1840 0c40 B3       		.byte	0xb3
 1841 0c41 4D0C0000 		.4byte	0xc4d
 1842 0c45 08       		.byte	0x8
 1843 0c46 00       		.byte	0
 1844 0c47 0C       		.uleb128 0xc
 1845 0c48 04       		.byte	0x4
 1846 0c49 160C0000 		.4byte	0xc16
 1847 0c4d 14       		.uleb128 0x14
 1848 0c4e 5B070000 		.4byte	0x75b
 1849 0c52 5D0C0000 		.4byte	0xc5d
 1850 0c56 15       		.uleb128 0x15
 1851 0c57 37000000 		.4byte	0x37
 1852 0c5b 07       		.byte	0x7
 1853 0c5c 00       		.byte	0
 1854 0c5d 03       		.uleb128 0x3
 1855 0c5e 29010000 		.4byte	.LASF181
 1856 0c62 16       		.byte	0x16
 1857 0c63 B7       		.byte	0xb7
 1858 0c64 160C0000 		.4byte	0xc16
 1859 0c68 07       		.uleb128 0x7
 1860 0c69 D3040000 		.4byte	.LASF182
 1861 0c6d 04       		.byte	0x4
 1862 0c6e 16       		.byte	0x16
 1863 0c6f BC       		.byte	0xbc
 1864 0c70 810C0000 		.4byte	0xc81
 1865 0c74 08       		.uleb128 0x8
 1866 0c75 14000000 		.4byte	.LASF52
 1867 0c79 16       		.byte	0x16
 1868 0c7a BD       		.byte	0xbd
 1869 0c7b 810C0000 		.4byte	0xc81
 1870 0c7f 00       		.byte	0
 1871 0c80 00       		.byte	0
 1872 0c81 0C       		.uleb128 0xc
 1873 0c82 04       		.byte	0x4
 1874 0c83 5D0C0000 		.4byte	0xc5d
 1875 0c87 03       		.uleb128 0x3
 1876 0c88 E7030000 		.4byte	.LASF183
 1877 0c8c 16       		.byte	0x16
 1878 0c8d BE       		.byte	0xbe
ARM GAS  C:\Users\RAKIBU~1\AppData\Local\Temp\cc4wEajS.s 			page 34


 1879 0c8e 680C0000 		.4byte	0xc68
 1880 0c92 0D       		.uleb128 0xd
 1881 0c93 47080000 		.4byte	.LASF184
 1882 0c97 48       		.byte	0x48
 1883 0c98 16       		.byte	0x16
 1884 0c99 3E01     		.2byte	0x13e
 1885 0c9b 150D0000 		.4byte	0xd15
 1886 0c9f 0A       		.uleb128 0xa
 1887 0ca0 6D747800 		.ascii	"mtx\000"
 1888 0ca4 16       		.byte	0x16
 1889 0ca5 4301     		.2byte	0x143
 1890 0ca7 390B0000 		.4byte	0xb39
 1891 0cab 00       		.byte	0
 1892 0cac 0B       		.uleb128 0xb
 1893 0cad 87070000 		.4byte	.LASF185
 1894 0cb1 16       		.byte	0x16
 1895 0cb2 4A01     		.2byte	0x14a
 1896 0cb4 870C0000 		.4byte	0xc87
 1897 0cb8 10       		.byte	0x10
 1898 0cb9 0B       		.uleb128 0xb
 1899 0cba D4060000 		.4byte	.LASF186
 1900 0cbe 16       		.byte	0x16
 1901 0cbf 4E01     		.2byte	0x14e
 1902 0cc1 0B0C0000 		.4byte	0xc0b
 1903 0cc5 14       		.byte	0x14
 1904 0cc6 0B       		.uleb128 0xb
 1905 0cc7 2A060000 		.4byte	.LASF187
 1906 0ccb 16       		.byte	0x16
 1907 0ccc 5301     		.2byte	0x153
 1908 0cce 870C0000 		.4byte	0xc87
 1909 0cd2 24       		.byte	0x24
 1910 0cd3 0B       		.uleb128 0xb
 1911 0cd4 85000000 		.4byte	.LASF188
 1912 0cd8 16       		.byte	0x16
 1913 0cd9 5901     		.2byte	0x159
 1914 0cdb 870C0000 		.4byte	0xc87
 1915 0cdf 28       		.byte	0x28
 1916 0ce0 0B       		.uleb128 0xb
 1917 0ce1 B1050000 		.4byte	.LASF189
 1918 0ce5 16       		.byte	0x16
 1919 0ce6 5D01     		.2byte	0x15d
 1920 0ce8 0B0C0000 		.4byte	0xc0b
 1921 0cec 2C       		.byte	0x2c
 1922 0ced 0B       		.uleb128 0xb
 1923 0cee 55020000 		.4byte	.LASF190
 1924 0cf2 16       		.byte	0x16
 1925 0cf3 6301     		.2byte	0x163
 1926 0cf5 870C0000 		.4byte	0xc87
 1927 0cf9 3C       		.byte	0x3c
 1928 0cfa 0B       		.uleb128 0xb
 1929 0cfb 61060000 		.4byte	.LASF191
 1930 0cff 16       		.byte	0x16
 1931 0d00 6901     		.2byte	0x169
 1932 0d02 870C0000 		.4byte	0xc87
 1933 0d06 40       		.byte	0x40
 1934 0d07 0B       		.uleb128 0xb
 1935 0d08 26070000 		.4byte	.LASF192
ARM GAS  C:\Users\RAKIBU~1\AppData\Local\Temp\cc4wEajS.s 			page 35


 1936 0d0c 16       		.byte	0x16
 1937 0d0d 6F01     		.2byte	0x16f
 1938 0d0f 870C0000 		.4byte	0xc87
 1939 0d13 44       		.byte	0x44
 1940 0d14 00       		.byte	0
 1941 0d15 17       		.uleb128 0x17
 1942 0d16 0D090000 		.4byte	.LASF193
 1943 0d1a 16       		.byte	0x16
 1944 0d1b 7101     		.2byte	0x171
 1945 0d1d 920C0000 		.4byte	0xc92
 1946 0d21 18       		.uleb128 0x18
 1947 0d22 C9060000 		.4byte	.LASF194
 1948 0d26 16       		.byte	0x16
 1949 0d27 7C01     		.2byte	0x17c
 1950 0d29 150D0000 		.4byte	0xd15
 1951 0d2d 24       		.uleb128 0x24
 1952 0d2e 52040000 		.4byte	.LASF197
 1953 0d32 01       		.byte	0x1
 1954 0d33 90       		.byte	0x90
 1955 0d34 B0000000 		.4byte	.LFB300
 1956 0d38 3C000000 		.4byte	.LFE300-.LFB300
 1957 0d3c 01       		.uleb128 0x1
 1958 0d3d 9C       		.byte	0x9c
 1959 0d3e 990D0000 		.4byte	0xd99
 1960 0d42 25       		.uleb128 0x25
 1961 0d43 46010000 		.4byte	.LASF195
 1962 0d47 01       		.byte	0x1
 1963 0d48 90       		.byte	0x90
 1964 0d49 990D0000 		.4byte	0xd99
 1965 0d4d 01       		.uleb128 0x1
 1966 0d4e 50       		.byte	0x50
 1967 0d4f 26       		.uleb128 0x26
 1968 0d50 4B010000 		.4byte	.LASF196
 1969 0d54 01       		.byte	0x1
 1970 0d55 91       		.byte	0x91
 1971 0d56 990D0000 		.4byte	0xd99
 1972 0d5a 00000000 		.4byte	.LLST2
 1973 0d5e 27       		.uleb128 0x27
 1974 0d5f D60E0000 		.4byte	0xed6
 1975 0d63 B2000000 		.4byte	.LBB18
 1976 0d67 04000000 		.4byte	.LBE18-.LBB18
 1977 0d6b 01       		.byte	0x1
 1978 0d6c 94       		.byte	0x94
 1979 0d6d 28       		.uleb128 0x28
 1980 0d6e A80E0000 		.4byte	0xea8
 1981 0d72 B8000000 		.4byte	.LBB20
 1982 0d76 2A000000 		.4byte	.LBE20-.LBB20
 1983 0d7a 01       		.byte	0x1
 1984 0d7b 97       		.byte	0x97
 1985 0d7c 29       		.uleb128 0x29
 1986 0d7d CA0E0000 		.4byte	0xeca
 1987 0d81 21000000 		.4byte	.LLST3
 1988 0d85 29       		.uleb128 0x29
 1989 0d86 BF0E0000 		.4byte	0xebf
 1990 0d8a 35000000 		.4byte	.LLST4
 1991 0d8e 29       		.uleb128 0x29
 1992 0d8f B40E0000 		.4byte	0xeb4
ARM GAS  C:\Users\RAKIBU~1\AppData\Local\Temp\cc4wEajS.s 			page 36


 1993 0d93 48000000 		.4byte	.LLST5
 1994 0d97 00       		.byte	0
 1995 0d98 00       		.byte	0
 1996 0d99 0C       		.uleb128 0xc
 1997 0d9a 04       		.byte	0x4
 1998 0d9b E6080000 		.4byte	0x8e6
 1999 0d9f 24       		.uleb128 0x24
 2000 0da0 AE010000 		.4byte	.LASF198
 2001 0da4 01       		.byte	0x1
 2002 0da5 7F       		.byte	0x7f
 2003 0da6 30000000 		.4byte	.LFB299
 2004 0daa 44000000 		.4byte	.LFE299-.LFB299
 2005 0dae 01       		.uleb128 0x1
 2006 0daf 9C       		.byte	0x9c
 2007 0db0 F80D0000 		.4byte	0xdf8
 2008 0db4 2A       		.uleb128 0x2a
 2009 0db5 746D7000 		.ascii	"tmp\000"
 2010 0db9 01       		.byte	0x1
 2011 0dba 7F       		.byte	0x7f
 2012 0dbb 990D0000 		.4byte	0xd99
 2013 0dbf 01       		.uleb128 0x1
 2014 0dc0 50       		.byte	0x50
 2015 0dc1 27       		.uleb128 0x27
 2016 0dc2 D60E0000 		.4byte	0xed6
 2017 0dc6 32000000 		.4byte	.LBB14
 2018 0dca 04000000 		.4byte	.LBE14-.LBB14
 2019 0dce 01       		.byte	0x1
 2020 0dcf 81       		.byte	0x81
 2021 0dd0 28       		.uleb128 0x28
 2022 0dd1 A80E0000 		.4byte	0xea8
 2023 0dd5 3C000000 		.4byte	.LBB16
 2024 0dd9 2C000000 		.4byte	.LBE16-.LBB16
 2025 0ddd 01       		.byte	0x1
 2026 0dde 81       		.byte	0x81
 2027 0ddf 29       		.uleb128 0x29
 2028 0de0 CA0E0000 		.4byte	0xeca
 2029 0de4 5B000000 		.4byte	.LLST0
 2030 0de8 2B       		.uleb128 0x2b
 2031 0de9 BF0E0000 		.4byte	0xebf
 2032 0ded 29       		.uleb128 0x29
 2033 0dee B40E0000 		.4byte	0xeb4
 2034 0df2 6E000000 		.4byte	.LLST1
 2035 0df6 00       		.byte	0
 2036 0df7 00       		.byte	0
 2037 0df8 24       		.uleb128 0x24
 2038 0df9 92010000 		.4byte	.LASF199
 2039 0dfd 01       		.byte	0x1
 2040 0dfe 72       		.byte	0x72
 2041 0dff 20000000 		.4byte	.LFB298
 2042 0e03 0C000000 		.4byte	.LFE298-.LFB298
 2043 0e07 01       		.uleb128 0x1
 2044 0e08 9C       		.byte	0x9c
 2045 0e09 2A0E0000 		.4byte	0xe2a
 2046 0e0d 2A       		.uleb128 0x2a
 2047 0e0e 746D7000 		.ascii	"tmp\000"
 2048 0e12 01       		.byte	0x1
 2049 0e13 72       		.byte	0x72
ARM GAS  C:\Users\RAKIBU~1\AppData\Local\Temp\cc4wEajS.s 			page 37


 2050 0e14 990D0000 		.4byte	0xd99
 2051 0e18 01       		.uleb128 0x1
 2052 0e19 50       		.byte	0x50
 2053 0e1a 27       		.uleb128 0x27
 2054 0e1b D60E0000 		.4byte	0xed6
 2055 0e1f 20000000 		.4byte	.LBB12
 2056 0e23 04000000 		.4byte	.LBE12-.LBB12
 2057 0e27 01       		.byte	0x1
 2058 0e28 74       		.byte	0x74
 2059 0e29 00       		.byte	0
 2060 0e2a 24       		.uleb128 0x24
 2061 0e2b 1A010000 		.4byte	.LASF200
 2062 0e2f 01       		.byte	0x1
 2063 0e30 61       		.byte	0x61
 2064 0e31 00000000 		.4byte	.LFB297
 2065 0e35 18000000 		.4byte	.LFE297-.LFB297
 2066 0e39 01       		.uleb128 0x1
 2067 0e3a 9C       		.byte	0x9c
 2068 0e3b 4D0E0000 		.4byte	0xe4d
 2069 0e3f 2A       		.uleb128 0x2a
 2070 0e40 746D7000 		.ascii	"tmp\000"
 2071 0e44 01       		.byte	0x1
 2072 0e45 61       		.byte	0x61
 2073 0e46 990D0000 		.4byte	0xd99
 2074 0e4a 01       		.uleb128 0x1
 2075 0e4b 50       		.byte	0x50
 2076 0e4c 00       		.byte	0
 2077 0e4d 24       		.uleb128 0x24
 2078 0e4e ED020000 		.4byte	.LASF201
 2079 0e52 01       		.byte	0x1
 2080 0e53 4D       		.byte	0x4d
 2081 0e54 80000000 		.4byte	.LFB296
 2082 0e58 2C000000 		.4byte	.LFE296-.LFB296
 2083 0e5c 01       		.uleb128 0x1
 2084 0e5d 9C       		.byte	0x9c
 2085 0e5e A80E0000 		.4byte	0xea8
 2086 0e62 2C       		.uleb128 0x2c
 2087 0e63 746D00   		.ascii	"tm\000"
 2088 0e66 01       		.byte	0x1
 2089 0e67 4E       		.byte	0x4e
 2090 0e68 E6080000 		.4byte	0x8e6
 2091 0e6c 02       		.uleb128 0x2
 2092 0e6d 91       		.byte	0x91
 2093 0e6e 60       		.sleb128 -32
 2094 0e6f 2D       		.uleb128 0x2d
 2095 0e70 92000000 		.4byte	.LVL6
 2096 0e74 2A0E0000 		.4byte	0xe2a
 2097 0e78 830E0000 		.4byte	0xe83
 2098 0e7c 2E       		.uleb128 0x2e
 2099 0e7d 01       		.uleb128 0x1
 2100 0e7e 50       		.byte	0x50
 2101 0e7f 02       		.uleb128 0x2
 2102 0e80 7D       		.byte	0x7d
 2103 0e81 00       		.sleb128 0
 2104 0e82 00       		.byte	0
 2105 0e83 2D       		.uleb128 0x2d
 2106 0e84 98000000 		.4byte	.LVL7
ARM GAS  C:\Users\RAKIBU~1\AppData\Local\Temp\cc4wEajS.s 			page 38


 2107 0e88 F80D0000 		.4byte	0xdf8
 2108 0e8c 970E0000 		.4byte	0xe97
 2109 0e90 2E       		.uleb128 0x2e
 2110 0e91 01       		.uleb128 0x1
 2111 0e92 50       		.byte	0x50
 2112 0e93 02       		.uleb128 0x2
 2113 0e94 7D       		.byte	0x7d
 2114 0e95 00       		.sleb128 0
 2115 0e96 00       		.byte	0
 2116 0e97 2F       		.uleb128 0x2f
 2117 0e98 9E000000 		.4byte	.LVL8
 2118 0e9c 9F0D0000 		.4byte	0xd9f
 2119 0ea0 2E       		.uleb128 0x2e
 2120 0ea1 01       		.uleb128 0x1
 2121 0ea2 50       		.byte	0x50
 2122 0ea3 02       		.uleb128 0x2
 2123 0ea4 7D       		.byte	0x7d
 2124 0ea5 00       		.sleb128 0
 2125 0ea6 00       		.byte	0
 2126 0ea7 00       		.byte	0
 2127 0ea8 30       		.uleb128 0x30
 2128 0ea9 FC000000 		.4byte	.LASF205
 2129 0ead 01       		.byte	0x1
 2130 0eae 35       		.byte	0x35
 2131 0eaf 03       		.byte	0x3
 2132 0eb0 D60E0000 		.4byte	0xed6
 2133 0eb4 31       		.uleb128 0x31
 2134 0eb5 746D7000 		.ascii	"tmp\000"
 2135 0eb9 01       		.byte	0x1
 2136 0eba 35       		.byte	0x35
 2137 0ebb 990D0000 		.4byte	0xd99
 2138 0ebf 31       		.uleb128 0x31
 2139 0ec0 6E6F7700 		.ascii	"now\000"
 2140 0ec4 01       		.byte	0x1
 2141 0ec5 36       		.byte	0x36
 2142 0ec6 FF000000 		.4byte	0xff
 2143 0eca 32       		.uleb128 0x32
 2144 0ecb EB070000 		.4byte	.LASF126
 2145 0ecf 01       		.byte	0x1
 2146 0ed0 37       		.byte	0x37
 2147 0ed1 FF000000 		.4byte	0xff
 2148 0ed5 00       		.byte	0
 2149 0ed6 33       		.uleb128 0x33
 2150 0ed7 A4070000 		.4byte	.LASF206
 2151 0edb 02       		.byte	0x2
 2152 0edc CD02     		.2byte	0x2cd
 2153 0ede FF000000 		.4byte	0xff
 2154 0ee2 03       		.byte	0x3
 2155 0ee3 00       		.byte	0
 2156              		.section	.debug_abbrev,"",%progbits
 2157              	.Ldebug_abbrev0:
 2158 0000 01       		.uleb128 0x1
 2159 0001 11       		.uleb128 0x11
 2160 0002 01       		.byte	0x1
 2161 0003 25       		.uleb128 0x25
 2162 0004 0E       		.uleb128 0xe
 2163 0005 13       		.uleb128 0x13
ARM GAS  C:\Users\RAKIBU~1\AppData\Local\Temp\cc4wEajS.s 			page 39


 2164 0006 0B       		.uleb128 0xb
 2165 0007 03       		.uleb128 0x3
 2166 0008 0E       		.uleb128 0xe
 2167 0009 1B       		.uleb128 0x1b
 2168 000a 0E       		.uleb128 0xe
 2169 000b 11       		.uleb128 0x11
 2170 000c 01       		.uleb128 0x1
 2171 000d 12       		.uleb128 0x12
 2172 000e 06       		.uleb128 0x6
 2173 000f 10       		.uleb128 0x10
 2174 0010 17       		.uleb128 0x17
 2175 0011 00       		.byte	0
 2176 0012 00       		.byte	0
 2177 0013 02       		.uleb128 0x2
 2178 0014 24       		.uleb128 0x24
 2179 0015 00       		.byte	0
 2180 0016 0B       		.uleb128 0xb
 2181 0017 0B       		.uleb128 0xb
 2182 0018 3E       		.uleb128 0x3e
 2183 0019 0B       		.uleb128 0xb
 2184 001a 03       		.uleb128 0x3
 2185 001b 08       		.uleb128 0x8
 2186 001c 00       		.byte	0
 2187 001d 00       		.byte	0
 2188 001e 03       		.uleb128 0x3
 2189 001f 16       		.uleb128 0x16
 2190 0020 00       		.byte	0
 2191 0021 03       		.uleb128 0x3
 2192 0022 0E       		.uleb128 0xe
 2193 0023 3A       		.uleb128 0x3a
 2194 0024 0B       		.uleb128 0xb
 2195 0025 3B       		.uleb128 0x3b
 2196 0026 0B       		.uleb128 0xb
 2197 0027 49       		.uleb128 0x49
 2198 0028 13       		.uleb128 0x13
 2199 0029 00       		.byte	0
 2200 002a 00       		.byte	0
 2201 002b 04       		.uleb128 0x4
 2202 002c 24       		.uleb128 0x24
 2203 002d 00       		.byte	0
 2204 002e 0B       		.uleb128 0xb
 2205 002f 0B       		.uleb128 0xb
 2206 0030 3E       		.uleb128 0x3e
 2207 0031 0B       		.uleb128 0xb
 2208 0032 03       		.uleb128 0x3
 2209 0033 0E       		.uleb128 0xe
 2210 0034 00       		.byte	0
 2211 0035 00       		.byte	0
 2212 0036 05       		.uleb128 0x5
 2213 0037 26       		.uleb128 0x26
 2214 0038 00       		.byte	0
 2215 0039 49       		.uleb128 0x49
 2216 003a 13       		.uleb128 0x13
 2217 003b 00       		.byte	0
 2218 003c 00       		.byte	0
 2219 003d 06       		.uleb128 0x6
 2220 003e 35       		.uleb128 0x35
ARM GAS  C:\Users\RAKIBU~1\AppData\Local\Temp\cc4wEajS.s 			page 40


 2221 003f 00       		.byte	0
 2222 0040 49       		.uleb128 0x49
 2223 0041 13       		.uleb128 0x13
 2224 0042 00       		.byte	0
 2225 0043 00       		.byte	0
 2226 0044 07       		.uleb128 0x7
 2227 0045 13       		.uleb128 0x13
 2228 0046 01       		.byte	0x1
 2229 0047 03       		.uleb128 0x3
 2230 0048 0E       		.uleb128 0xe
 2231 0049 0B       		.uleb128 0xb
 2232 004a 0B       		.uleb128 0xb
 2233 004b 3A       		.uleb128 0x3a
 2234 004c 0B       		.uleb128 0xb
 2235 004d 3B       		.uleb128 0x3b
 2236 004e 0B       		.uleb128 0xb
 2237 004f 01       		.uleb128 0x1
 2238 0050 13       		.uleb128 0x13
 2239 0051 00       		.byte	0
 2240 0052 00       		.byte	0
 2241 0053 08       		.uleb128 0x8
 2242 0054 0D       		.uleb128 0xd
 2243 0055 00       		.byte	0
 2244 0056 03       		.uleb128 0x3
 2245 0057 0E       		.uleb128 0xe
 2246 0058 3A       		.uleb128 0x3a
 2247 0059 0B       		.uleb128 0xb
 2248 005a 3B       		.uleb128 0x3b
 2249 005b 0B       		.uleb128 0xb
 2250 005c 49       		.uleb128 0x49
 2251 005d 13       		.uleb128 0x13
 2252 005e 38       		.uleb128 0x38
 2253 005f 0B       		.uleb128 0xb
 2254 0060 00       		.byte	0
 2255 0061 00       		.byte	0
 2256 0062 09       		.uleb128 0x9
 2257 0063 0D       		.uleb128 0xd
 2258 0064 00       		.byte	0
 2259 0065 03       		.uleb128 0x3
 2260 0066 08       		.uleb128 0x8
 2261 0067 3A       		.uleb128 0x3a
 2262 0068 0B       		.uleb128 0xb
 2263 0069 3B       		.uleb128 0x3b
 2264 006a 0B       		.uleb128 0xb
 2265 006b 49       		.uleb128 0x49
 2266 006c 13       		.uleb128 0x13
 2267 006d 38       		.uleb128 0x38
 2268 006e 0B       		.uleb128 0xb
 2269 006f 00       		.byte	0
 2270 0070 00       		.byte	0
 2271 0071 0A       		.uleb128 0xa
 2272 0072 0D       		.uleb128 0xd
 2273 0073 00       		.byte	0
 2274 0074 03       		.uleb128 0x3
 2275 0075 08       		.uleb128 0x8
 2276 0076 3A       		.uleb128 0x3a
 2277 0077 0B       		.uleb128 0xb
ARM GAS  C:\Users\RAKIBU~1\AppData\Local\Temp\cc4wEajS.s 			page 41


 2278 0078 3B       		.uleb128 0x3b
 2279 0079 05       		.uleb128 0x5
 2280 007a 49       		.uleb128 0x49
 2281 007b 13       		.uleb128 0x13
 2282 007c 38       		.uleb128 0x38
 2283 007d 0B       		.uleb128 0xb
 2284 007e 00       		.byte	0
 2285 007f 00       		.byte	0
 2286 0080 0B       		.uleb128 0xb
 2287 0081 0D       		.uleb128 0xd
 2288 0082 00       		.byte	0
 2289 0083 03       		.uleb128 0x3
 2290 0084 0E       		.uleb128 0xe
 2291 0085 3A       		.uleb128 0x3a
 2292 0086 0B       		.uleb128 0xb
 2293 0087 3B       		.uleb128 0x3b
 2294 0088 05       		.uleb128 0x5
 2295 0089 49       		.uleb128 0x49
 2296 008a 13       		.uleb128 0x13
 2297 008b 38       		.uleb128 0x38
 2298 008c 0B       		.uleb128 0xb
 2299 008d 00       		.byte	0
 2300 008e 00       		.byte	0
 2301 008f 0C       		.uleb128 0xc
 2302 0090 0F       		.uleb128 0xf
 2303 0091 00       		.byte	0
 2304 0092 0B       		.uleb128 0xb
 2305 0093 0B       		.uleb128 0xb
 2306 0094 49       		.uleb128 0x49
 2307 0095 13       		.uleb128 0x13
 2308 0096 00       		.byte	0
 2309 0097 00       		.byte	0
 2310 0098 0D       		.uleb128 0xd
 2311 0099 13       		.uleb128 0x13
 2312 009a 01       		.byte	0x1
 2313 009b 03       		.uleb128 0x3
 2314 009c 0E       		.uleb128 0xe
 2315 009d 0B       		.uleb128 0xb
 2316 009e 0B       		.uleb128 0xb
 2317 009f 3A       		.uleb128 0x3a
 2318 00a0 0B       		.uleb128 0xb
 2319 00a1 3B       		.uleb128 0x3b
 2320 00a2 05       		.uleb128 0x5
 2321 00a3 01       		.uleb128 0x1
 2322 00a4 13       		.uleb128 0x13
 2323 00a5 00       		.byte	0
 2324 00a6 00       		.byte	0
 2325 00a7 0E       		.uleb128 0xe
 2326 00a8 15       		.uleb128 0x15
 2327 00a9 01       		.byte	0x1
 2328 00aa 27       		.uleb128 0x27
 2329 00ab 19       		.uleb128 0x19
 2330 00ac 01       		.uleb128 0x1
 2331 00ad 13       		.uleb128 0x13
 2332 00ae 00       		.byte	0
 2333 00af 00       		.byte	0
 2334 00b0 0F       		.uleb128 0xf
ARM GAS  C:\Users\RAKIBU~1\AppData\Local\Temp\cc4wEajS.s 			page 42


 2335 00b1 05       		.uleb128 0x5
 2336 00b2 00       		.byte	0
 2337 00b3 49       		.uleb128 0x49
 2338 00b4 13       		.uleb128 0x13
 2339 00b5 00       		.byte	0
 2340 00b6 00       		.byte	0
 2341 00b7 10       		.uleb128 0x10
 2342 00b8 0F       		.uleb128 0xf
 2343 00b9 00       		.byte	0
 2344 00ba 0B       		.uleb128 0xb
 2345 00bb 0B       		.uleb128 0xb
 2346 00bc 00       		.byte	0
 2347 00bd 00       		.byte	0
 2348 00be 11       		.uleb128 0x11
 2349 00bf 13       		.uleb128 0x13
 2350 00c0 01       		.byte	0x1
 2351 00c1 03       		.uleb128 0x3
 2352 00c2 0E       		.uleb128 0xe
 2353 00c3 0B       		.uleb128 0xb
 2354 00c4 05       		.uleb128 0x5
 2355 00c5 3A       		.uleb128 0x3a
 2356 00c6 0B       		.uleb128 0xb
 2357 00c7 3B       		.uleb128 0x3b
 2358 00c8 05       		.uleb128 0x5
 2359 00c9 01       		.uleb128 0x1
 2360 00ca 13       		.uleb128 0x13
 2361 00cb 00       		.byte	0
 2362 00cc 00       		.byte	0
 2363 00cd 12       		.uleb128 0x12
 2364 00ce 0D       		.uleb128 0xd
 2365 00cf 00       		.byte	0
 2366 00d0 03       		.uleb128 0x3
 2367 00d1 0E       		.uleb128 0xe
 2368 00d2 3A       		.uleb128 0x3a
 2369 00d3 0B       		.uleb128 0xb
 2370 00d4 3B       		.uleb128 0x3b
 2371 00d5 05       		.uleb128 0x5
 2372 00d6 49       		.uleb128 0x49
 2373 00d7 13       		.uleb128 0x13
 2374 00d8 38       		.uleb128 0x38
 2375 00d9 05       		.uleb128 0x5
 2376 00da 00       		.byte	0
 2377 00db 00       		.byte	0
 2378 00dc 13       		.uleb128 0x13
 2379 00dd 0D       		.uleb128 0xd
 2380 00de 00       		.byte	0
 2381 00df 03       		.uleb128 0x3
 2382 00e0 08       		.uleb128 0x8
 2383 00e1 3A       		.uleb128 0x3a
 2384 00e2 0B       		.uleb128 0xb
 2385 00e3 3B       		.uleb128 0x3b
 2386 00e4 05       		.uleb128 0x5
 2387 00e5 49       		.uleb128 0x49
 2388 00e6 13       		.uleb128 0x13
 2389 00e7 38       		.uleb128 0x38
 2390 00e8 05       		.uleb128 0x5
 2391 00e9 00       		.byte	0
ARM GAS  C:\Users\RAKIBU~1\AppData\Local\Temp\cc4wEajS.s 			page 43


 2392 00ea 00       		.byte	0
 2393 00eb 14       		.uleb128 0x14
 2394 00ec 01       		.uleb128 0x1
 2395 00ed 01       		.byte	0x1
 2396 00ee 49       		.uleb128 0x49
 2397 00ef 13       		.uleb128 0x13
 2398 00f0 01       		.uleb128 0x1
 2399 00f1 13       		.uleb128 0x13
 2400 00f2 00       		.byte	0
 2401 00f3 00       		.byte	0
 2402 00f4 15       		.uleb128 0x15
 2403 00f5 21       		.uleb128 0x21
 2404 00f6 00       		.byte	0
 2405 00f7 49       		.uleb128 0x49
 2406 00f8 13       		.uleb128 0x13
 2407 00f9 2F       		.uleb128 0x2f
 2408 00fa 0B       		.uleb128 0xb
 2409 00fb 00       		.byte	0
 2410 00fc 00       		.byte	0
 2411 00fd 16       		.uleb128 0x16
 2412 00fe 13       		.uleb128 0x13
 2413 00ff 01       		.byte	0x1
 2414 0100 0B       		.uleb128 0xb
 2415 0101 0B       		.uleb128 0xb
 2416 0102 3A       		.uleb128 0x3a
 2417 0103 0B       		.uleb128 0xb
 2418 0104 3B       		.uleb128 0x3b
 2419 0105 05       		.uleb128 0x5
 2420 0106 01       		.uleb128 0x1
 2421 0107 13       		.uleb128 0x13
 2422 0108 00       		.byte	0
 2423 0109 00       		.byte	0
 2424 010a 17       		.uleb128 0x17
 2425 010b 16       		.uleb128 0x16
 2426 010c 00       		.byte	0
 2427 010d 03       		.uleb128 0x3
 2428 010e 0E       		.uleb128 0xe
 2429 010f 3A       		.uleb128 0x3a
 2430 0110 0B       		.uleb128 0xb
 2431 0111 3B       		.uleb128 0x3b
 2432 0112 05       		.uleb128 0x5
 2433 0113 49       		.uleb128 0x49
 2434 0114 13       		.uleb128 0x13
 2435 0115 00       		.byte	0
 2436 0116 00       		.byte	0
 2437 0117 18       		.uleb128 0x18
 2438 0118 34       		.uleb128 0x34
 2439 0119 00       		.byte	0
 2440 011a 03       		.uleb128 0x3
 2441 011b 0E       		.uleb128 0xe
 2442 011c 3A       		.uleb128 0x3a
 2443 011d 0B       		.uleb128 0xb
 2444 011e 3B       		.uleb128 0x3b
 2445 011f 05       		.uleb128 0x5
 2446 0120 49       		.uleb128 0x49
 2447 0121 13       		.uleb128 0x13
 2448 0122 3F       		.uleb128 0x3f
ARM GAS  C:\Users\RAKIBU~1\AppData\Local\Temp\cc4wEajS.s 			page 44


 2449 0123 19       		.uleb128 0x19
 2450 0124 3C       		.uleb128 0x3c
 2451 0125 19       		.uleb128 0x19
 2452 0126 00       		.byte	0
 2453 0127 00       		.byte	0
 2454 0128 19       		.uleb128 0x19
 2455 0129 34       		.uleb128 0x34
 2456 012a 00       		.byte	0
 2457 012b 03       		.uleb128 0x3
 2458 012c 0E       		.uleb128 0xe
 2459 012d 3A       		.uleb128 0x3a
 2460 012e 0B       		.uleb128 0xb
 2461 012f 3B       		.uleb128 0x3b
 2462 0130 0B       		.uleb128 0xb
 2463 0131 49       		.uleb128 0x49
 2464 0132 13       		.uleb128 0x13
 2465 0133 3F       		.uleb128 0x3f
 2466 0134 19       		.uleb128 0x19
 2467 0135 3C       		.uleb128 0x3c
 2468 0136 19       		.uleb128 0x19
 2469 0137 00       		.byte	0
 2470 0138 00       		.byte	0
 2471 0139 1A       		.uleb128 0x1a
 2472 013a 13       		.uleb128 0x13
 2473 013b 01       		.byte	0x1
 2474 013c 0B       		.uleb128 0xb
 2475 013d 0B       		.uleb128 0xb
 2476 013e 3A       		.uleb128 0x3a
 2477 013f 0B       		.uleb128 0xb
 2478 0140 3B       		.uleb128 0x3b
 2479 0141 0B       		.uleb128 0xb
 2480 0142 01       		.uleb128 0x1
 2481 0143 13       		.uleb128 0x13
 2482 0144 00       		.byte	0
 2483 0145 00       		.byte	0
 2484 0146 1B       		.uleb128 0x1b
 2485 0147 17       		.uleb128 0x17
 2486 0148 01       		.byte	0x1
 2487 0149 0B       		.uleb128 0xb
 2488 014a 0B       		.uleb128 0xb
 2489 014b 3A       		.uleb128 0x3a
 2490 014c 0B       		.uleb128 0xb
 2491 014d 3B       		.uleb128 0x3b
 2492 014e 0B       		.uleb128 0xb
 2493 014f 01       		.uleb128 0x1
 2494 0150 13       		.uleb128 0x13
 2495 0151 00       		.byte	0
 2496 0152 00       		.byte	0
 2497 0153 1C       		.uleb128 0x1c
 2498 0154 0D       		.uleb128 0xd
 2499 0155 00       		.byte	0
 2500 0156 03       		.uleb128 0x3
 2501 0157 08       		.uleb128 0x8
 2502 0158 3A       		.uleb128 0x3a
 2503 0159 0B       		.uleb128 0xb
 2504 015a 3B       		.uleb128 0x3b
 2505 015b 0B       		.uleb128 0xb
ARM GAS  C:\Users\RAKIBU~1\AppData\Local\Temp\cc4wEajS.s 			page 45


 2506 015c 49       		.uleb128 0x49
 2507 015d 13       		.uleb128 0x13
 2508 015e 00       		.byte	0
 2509 015f 00       		.byte	0
 2510 0160 1D       		.uleb128 0x1d
 2511 0161 0D       		.uleb128 0xd
 2512 0162 00       		.byte	0
 2513 0163 03       		.uleb128 0x3
 2514 0164 0E       		.uleb128 0xe
 2515 0165 3A       		.uleb128 0x3a
 2516 0166 0B       		.uleb128 0xb
 2517 0167 3B       		.uleb128 0x3b
 2518 0168 0B       		.uleb128 0xb
 2519 0169 49       		.uleb128 0x49
 2520 016a 13       		.uleb128 0x13
 2521 016b 00       		.byte	0
 2522 016c 00       		.byte	0
 2523 016d 1E       		.uleb128 0x1e
 2524 016e 0D       		.uleb128 0xd
 2525 016f 00       		.byte	0
 2526 0170 03       		.uleb128 0x3
 2527 0171 0E       		.uleb128 0xe
 2528 0172 3A       		.uleb128 0x3a
 2529 0173 0B       		.uleb128 0xb
 2530 0174 3B       		.uleb128 0x3b
 2531 0175 0B       		.uleb128 0xb
 2532 0176 49       		.uleb128 0x49
 2533 0177 13       		.uleb128 0x13
 2534 0178 0B       		.uleb128 0xb
 2535 0179 0B       		.uleb128 0xb
 2536 017a 0D       		.uleb128 0xd
 2537 017b 0B       		.uleb128 0xb
 2538 017c 0C       		.uleb128 0xc
 2539 017d 0B       		.uleb128 0xb
 2540 017e 38       		.uleb128 0x38
 2541 017f 0B       		.uleb128 0xb
 2542 0180 00       		.byte	0
 2543 0181 00       		.byte	0
 2544 0182 1F       		.uleb128 0x1f
 2545 0183 13       		.uleb128 0x13
 2546 0184 01       		.byte	0x1
 2547 0185 0B       		.uleb128 0xb
 2548 0186 05       		.uleb128 0x5
 2549 0187 3A       		.uleb128 0x3a
 2550 0188 0B       		.uleb128 0xb
 2551 0189 3B       		.uleb128 0x3b
 2552 018a 0B       		.uleb128 0xb
 2553 018b 01       		.uleb128 0x1
 2554 018c 13       		.uleb128 0x13
 2555 018d 00       		.byte	0
 2556 018e 00       		.byte	0
 2557 018f 20       		.uleb128 0x20
 2558 0190 0D       		.uleb128 0xd
 2559 0191 00       		.byte	0
 2560 0192 03       		.uleb128 0x3
 2561 0193 0E       		.uleb128 0xe
 2562 0194 3A       		.uleb128 0x3a
ARM GAS  C:\Users\RAKIBU~1\AppData\Local\Temp\cc4wEajS.s 			page 46


 2563 0195 0B       		.uleb128 0xb
 2564 0196 3B       		.uleb128 0x3b
 2565 0197 05       		.uleb128 0x5
 2566 0198 49       		.uleb128 0x49
 2567 0199 13       		.uleb128 0x13
 2568 019a 00       		.byte	0
 2569 019b 00       		.byte	0
 2570 019c 21       		.uleb128 0x21
 2571 019d 34       		.uleb128 0x34
 2572 019e 00       		.byte	0
 2573 019f 03       		.uleb128 0x3
 2574 01a0 08       		.uleb128 0x8
 2575 01a1 3A       		.uleb128 0x3a
 2576 01a2 0B       		.uleb128 0xb
 2577 01a3 3B       		.uleb128 0x3b
 2578 01a4 05       		.uleb128 0x5
 2579 01a5 49       		.uleb128 0x49
 2580 01a6 13       		.uleb128 0x13
 2581 01a7 3F       		.uleb128 0x3f
 2582 01a8 19       		.uleb128 0x19
 2583 01a9 3C       		.uleb128 0x3c
 2584 01aa 19       		.uleb128 0x19
 2585 01ab 00       		.byte	0
 2586 01ac 00       		.byte	0
 2587 01ad 22       		.uleb128 0x22
 2588 01ae 21       		.uleb128 0x21
 2589 01af 00       		.byte	0
 2590 01b0 00       		.byte	0
 2591 01b1 00       		.byte	0
 2592 01b2 23       		.uleb128 0x23
 2593 01b3 15       		.uleb128 0x15
 2594 01b4 01       		.byte	0x1
 2595 01b5 27       		.uleb128 0x27
 2596 01b6 19       		.uleb128 0x19
 2597 01b7 49       		.uleb128 0x49
 2598 01b8 13       		.uleb128 0x13
 2599 01b9 01       		.uleb128 0x1
 2600 01ba 13       		.uleb128 0x13
 2601 01bb 00       		.byte	0
 2602 01bc 00       		.byte	0
 2603 01bd 24       		.uleb128 0x24
 2604 01be 2E       		.uleb128 0x2e
 2605 01bf 01       		.byte	0x1
 2606 01c0 3F       		.uleb128 0x3f
 2607 01c1 19       		.uleb128 0x19
 2608 01c2 03       		.uleb128 0x3
 2609 01c3 0E       		.uleb128 0xe
 2610 01c4 3A       		.uleb128 0x3a
 2611 01c5 0B       		.uleb128 0xb
 2612 01c6 3B       		.uleb128 0x3b
 2613 01c7 0B       		.uleb128 0xb
 2614 01c8 27       		.uleb128 0x27
 2615 01c9 19       		.uleb128 0x19
 2616 01ca 11       		.uleb128 0x11
 2617 01cb 01       		.uleb128 0x1
 2618 01cc 12       		.uleb128 0x12
 2619 01cd 06       		.uleb128 0x6
ARM GAS  C:\Users\RAKIBU~1\AppData\Local\Temp\cc4wEajS.s 			page 47


 2620 01ce 40       		.uleb128 0x40
 2621 01cf 18       		.uleb128 0x18
 2622 01d0 9742     		.uleb128 0x2117
 2623 01d2 19       		.uleb128 0x19
 2624 01d3 01       		.uleb128 0x1
 2625 01d4 13       		.uleb128 0x13
 2626 01d5 00       		.byte	0
 2627 01d6 00       		.byte	0
 2628 01d7 25       		.uleb128 0x25
 2629 01d8 05       		.uleb128 0x5
 2630 01d9 00       		.byte	0
 2631 01da 03       		.uleb128 0x3
 2632 01db 0E       		.uleb128 0xe
 2633 01dc 3A       		.uleb128 0x3a
 2634 01dd 0B       		.uleb128 0xb
 2635 01de 3B       		.uleb128 0x3b
 2636 01df 0B       		.uleb128 0xb
 2637 01e0 49       		.uleb128 0x49
 2638 01e1 13       		.uleb128 0x13
 2639 01e2 02       		.uleb128 0x2
 2640 01e3 18       		.uleb128 0x18
 2641 01e4 00       		.byte	0
 2642 01e5 00       		.byte	0
 2643 01e6 26       		.uleb128 0x26
 2644 01e7 05       		.uleb128 0x5
 2645 01e8 00       		.byte	0
 2646 01e9 03       		.uleb128 0x3
 2647 01ea 0E       		.uleb128 0xe
 2648 01eb 3A       		.uleb128 0x3a
 2649 01ec 0B       		.uleb128 0xb
 2650 01ed 3B       		.uleb128 0x3b
 2651 01ee 0B       		.uleb128 0xb
 2652 01ef 49       		.uleb128 0x49
 2653 01f0 13       		.uleb128 0x13
 2654 01f1 02       		.uleb128 0x2
 2655 01f2 17       		.uleb128 0x17
 2656 01f3 00       		.byte	0
 2657 01f4 00       		.byte	0
 2658 01f5 27       		.uleb128 0x27
 2659 01f6 1D       		.uleb128 0x1d
 2660 01f7 00       		.byte	0
 2661 01f8 31       		.uleb128 0x31
 2662 01f9 13       		.uleb128 0x13
 2663 01fa 11       		.uleb128 0x11
 2664 01fb 01       		.uleb128 0x1
 2665 01fc 12       		.uleb128 0x12
 2666 01fd 06       		.uleb128 0x6
 2667 01fe 58       		.uleb128 0x58
 2668 01ff 0B       		.uleb128 0xb
 2669 0200 59       		.uleb128 0x59
 2670 0201 0B       		.uleb128 0xb
 2671 0202 00       		.byte	0
 2672 0203 00       		.byte	0
 2673 0204 28       		.uleb128 0x28
 2674 0205 1D       		.uleb128 0x1d
 2675 0206 01       		.byte	0x1
 2676 0207 31       		.uleb128 0x31
ARM GAS  C:\Users\RAKIBU~1\AppData\Local\Temp\cc4wEajS.s 			page 48


 2677 0208 13       		.uleb128 0x13
 2678 0209 11       		.uleb128 0x11
 2679 020a 01       		.uleb128 0x1
 2680 020b 12       		.uleb128 0x12
 2681 020c 06       		.uleb128 0x6
 2682 020d 58       		.uleb128 0x58
 2683 020e 0B       		.uleb128 0xb
 2684 020f 59       		.uleb128 0x59
 2685 0210 0B       		.uleb128 0xb
 2686 0211 00       		.byte	0
 2687 0212 00       		.byte	0
 2688 0213 29       		.uleb128 0x29
 2689 0214 05       		.uleb128 0x5
 2690 0215 00       		.byte	0
 2691 0216 31       		.uleb128 0x31
 2692 0217 13       		.uleb128 0x13
 2693 0218 02       		.uleb128 0x2
 2694 0219 17       		.uleb128 0x17
 2695 021a 00       		.byte	0
 2696 021b 00       		.byte	0
 2697 021c 2A       		.uleb128 0x2a
 2698 021d 05       		.uleb128 0x5
 2699 021e 00       		.byte	0
 2700 021f 03       		.uleb128 0x3
 2701 0220 08       		.uleb128 0x8
 2702 0221 3A       		.uleb128 0x3a
 2703 0222 0B       		.uleb128 0xb
 2704 0223 3B       		.uleb128 0x3b
 2705 0224 0B       		.uleb128 0xb
 2706 0225 49       		.uleb128 0x49
 2707 0226 13       		.uleb128 0x13
 2708 0227 02       		.uleb128 0x2
 2709 0228 18       		.uleb128 0x18
 2710 0229 00       		.byte	0
 2711 022a 00       		.byte	0
 2712 022b 2B       		.uleb128 0x2b
 2713 022c 05       		.uleb128 0x5
 2714 022d 00       		.byte	0
 2715 022e 31       		.uleb128 0x31
 2716 022f 13       		.uleb128 0x13
 2717 0230 00       		.byte	0
 2718 0231 00       		.byte	0
 2719 0232 2C       		.uleb128 0x2c
 2720 0233 34       		.uleb128 0x34
 2721 0234 00       		.byte	0
 2722 0235 03       		.uleb128 0x3
 2723 0236 08       		.uleb128 0x8
 2724 0237 3A       		.uleb128 0x3a
 2725 0238 0B       		.uleb128 0xb
 2726 0239 3B       		.uleb128 0x3b
 2727 023a 0B       		.uleb128 0xb
 2728 023b 49       		.uleb128 0x49
 2729 023c 13       		.uleb128 0x13
 2730 023d 02       		.uleb128 0x2
 2731 023e 18       		.uleb128 0x18
 2732 023f 00       		.byte	0
 2733 0240 00       		.byte	0
ARM GAS  C:\Users\RAKIBU~1\AppData\Local\Temp\cc4wEajS.s 			page 49


 2734 0241 2D       		.uleb128 0x2d
 2735 0242 898201   		.uleb128 0x4109
 2736 0245 01       		.byte	0x1
 2737 0246 11       		.uleb128 0x11
 2738 0247 01       		.uleb128 0x1
 2739 0248 31       		.uleb128 0x31
 2740 0249 13       		.uleb128 0x13
 2741 024a 01       		.uleb128 0x1
 2742 024b 13       		.uleb128 0x13
 2743 024c 00       		.byte	0
 2744 024d 00       		.byte	0
 2745 024e 2E       		.uleb128 0x2e
 2746 024f 8A8201   		.uleb128 0x410a
 2747 0252 00       		.byte	0
 2748 0253 02       		.uleb128 0x2
 2749 0254 18       		.uleb128 0x18
 2750 0255 9142     		.uleb128 0x2111
 2751 0257 18       		.uleb128 0x18
 2752 0258 00       		.byte	0
 2753 0259 00       		.byte	0
 2754 025a 2F       		.uleb128 0x2f
 2755 025b 898201   		.uleb128 0x4109
 2756 025e 01       		.byte	0x1
 2757 025f 11       		.uleb128 0x11
 2758 0260 01       		.uleb128 0x1
 2759 0261 31       		.uleb128 0x31
 2760 0262 13       		.uleb128 0x13
 2761 0263 00       		.byte	0
 2762 0264 00       		.byte	0
 2763 0265 30       		.uleb128 0x30
 2764 0266 2E       		.uleb128 0x2e
 2765 0267 01       		.byte	0x1
 2766 0268 03       		.uleb128 0x3
 2767 0269 0E       		.uleb128 0xe
 2768 026a 3A       		.uleb128 0x3a
 2769 026b 0B       		.uleb128 0xb
 2770 026c 3B       		.uleb128 0x3b
 2771 026d 0B       		.uleb128 0xb
 2772 026e 27       		.uleb128 0x27
 2773 026f 19       		.uleb128 0x19
 2774 0270 20       		.uleb128 0x20
 2775 0271 0B       		.uleb128 0xb
 2776 0272 01       		.uleb128 0x1
 2777 0273 13       		.uleb128 0x13
 2778 0274 00       		.byte	0
 2779 0275 00       		.byte	0
 2780 0276 31       		.uleb128 0x31
 2781 0277 05       		.uleb128 0x5
 2782 0278 00       		.byte	0
 2783 0279 03       		.uleb128 0x3
 2784 027a 08       		.uleb128 0x8
 2785 027b 3A       		.uleb128 0x3a
 2786 027c 0B       		.uleb128 0xb
 2787 027d 3B       		.uleb128 0x3b
 2788 027e 0B       		.uleb128 0xb
 2789 027f 49       		.uleb128 0x49
 2790 0280 13       		.uleb128 0x13
ARM GAS  C:\Users\RAKIBU~1\AppData\Local\Temp\cc4wEajS.s 			page 50


 2791 0281 00       		.byte	0
 2792 0282 00       		.byte	0
 2793 0283 32       		.uleb128 0x32
 2794 0284 05       		.uleb128 0x5
 2795 0285 00       		.byte	0
 2796 0286 03       		.uleb128 0x3
 2797 0287 0E       		.uleb128 0xe
 2798 0288 3A       		.uleb128 0x3a
 2799 0289 0B       		.uleb128 0xb
 2800 028a 3B       		.uleb128 0x3b
 2801 028b 0B       		.uleb128 0xb
 2802 028c 49       		.uleb128 0x49
 2803 028d 13       		.uleb128 0x13
 2804 028e 00       		.byte	0
 2805 028f 00       		.byte	0
 2806 0290 33       		.uleb128 0x33
 2807 0291 2E       		.uleb128 0x2e
 2808 0292 00       		.byte	0
 2809 0293 03       		.uleb128 0x3
 2810 0294 0E       		.uleb128 0xe
 2811 0295 3A       		.uleb128 0x3a
 2812 0296 0B       		.uleb128 0xb
 2813 0297 3B       		.uleb128 0x3b
 2814 0298 05       		.uleb128 0x5
 2815 0299 27       		.uleb128 0x27
 2816 029a 19       		.uleb128 0x19
 2817 029b 49       		.uleb128 0x49
 2818 029c 13       		.uleb128 0x13
 2819 029d 20       		.uleb128 0x20
 2820 029e 0B       		.uleb128 0xb
 2821 029f 00       		.byte	0
 2822 02a0 00       		.byte	0
 2823 02a1 00       		.byte	0
 2824              		.section	.debug_loc,"",%progbits
 2825              	.Ldebug_loc0:
 2826              	.LLST2:
 2827 0000 B0000000 		.4byte	.LVL9-.Ltext0
 2828 0004 CA000000 		.4byte	.LVL12-.Ltext0
 2829 0008 0100     		.2byte	0x1
 2830 000a 51       		.byte	0x51
 2831 000b CA000000 		.4byte	.LVL12-.Ltext0
 2832 000f EC000000 		.4byte	.LFE300-.Ltext0
 2833 0013 0400     		.2byte	0x4
 2834 0015 F3       		.byte	0xf3
 2835 0016 01       		.uleb128 0x1
 2836 0017 51       		.byte	0x51
 2837 0018 9F       		.byte	0x9f
 2838 0019 00000000 		.4byte	0
 2839 001d 00000000 		.4byte	0
 2840              	.LLST3:
 2841 0021 B8000000 		.4byte	.LVL10-.Ltext0
 2842 0025 E2000000 		.4byte	.LVL13-.Ltext0
 2843 0029 0200     		.2byte	0x2
 2844 002b 30       		.byte	0x30
 2845 002c 9F       		.byte	0x9f
 2846 002d 00000000 		.4byte	0
 2847 0031 00000000 		.4byte	0
ARM GAS  C:\Users\RAKIBU~1\AppData\Local\Temp\cc4wEajS.s 			page 51


 2848              	.LLST4:
 2849 0035 B8000000 		.4byte	.LVL10-.Ltext0
 2850 0039 C2000000 		.4byte	.LVL11-.Ltext0
 2851 003d 0100     		.2byte	0x1
 2852 003f 53       		.byte	0x53
 2853 0040 00000000 		.4byte	0
 2854 0044 00000000 		.4byte	0
 2855              	.LLST5:
 2856 0048 B8000000 		.4byte	.LVL10-.Ltext0
 2857 004c E2000000 		.4byte	.LVL13-.Ltext0
 2858 0050 0100     		.2byte	0x1
 2859 0052 50       		.byte	0x50
 2860 0053 00000000 		.4byte	0
 2861 0057 00000000 		.4byte	0
 2862              	.LLST0:
 2863 005b 3C000000 		.4byte	.LVL3-.Ltext0
 2864 005f 50000000 		.4byte	.LVL4-.Ltext0
 2865 0063 0100     		.2byte	0x1
 2866 0065 51       		.byte	0x51
 2867 0066 00000000 		.4byte	0
 2868 006a 00000000 		.4byte	0
 2869              	.LLST1:
 2870 006e 3C000000 		.4byte	.LVL3-.Ltext0
 2871 0072 68000000 		.4byte	.LVL5-.Ltext0
 2872 0076 0100     		.2byte	0x1
 2873 0078 50       		.byte	0x50
 2874 0079 00000000 		.4byte	0
 2875 007d 00000000 		.4byte	0
 2876              		.section	.debug_aranges,"",%progbits
 2877 0000 1C000000 		.4byte	0x1c
 2878 0004 0200     		.2byte	0x2
 2879 0006 00000000 		.4byte	.Ldebug_info0
 2880 000a 04       		.byte	0x4
 2881 000b 00       		.byte	0
 2882 000c 0000     		.2byte	0
 2883 000e 0000     		.2byte	0
 2884 0010 00000000 		.4byte	.Ltext0
 2885 0014 EC000000 		.4byte	.Letext0-.Ltext0
 2886 0018 00000000 		.4byte	0
 2887 001c 00000000 		.4byte	0
 2888              		.section	.debug_line,"",%progbits
 2889              	.Ldebug_line0:
 2890 0000 37040000 		.section	.debug_str,"MS",%progbits,1
 2890      0200C803 
 2890      00000201 
 2890      FB0E0D00 
 2890      01010101 
 2891              	.LASF56:
 2892 0000 72656164 		.ascii	"ready_list_t\000"
 2892      795F6C69 
 2892      73745F74 
 2892      00
 2893              	.LASF4:
 2894 000d 73697A65 		.ascii	"size_t\000"
 2894      5F7400
 2895              	.LASF52:
 2896 0014 6E657874 		.ascii	"next\000"
ARM GAS  C:\Users\RAKIBU~1\AppData\Local\Temp\cc4wEajS.s 			page 52


 2896      00
 2897              	.LASF62:
 2898 0019 64656C74 		.ascii	"delta\000"
 2898      6100
 2899              	.LASF138:
 2900 001f 7264796D 		.ascii	"rdymsg\000"
 2900      736700
 2901              	.LASF20:
 2902 0026 75696E74 		.ascii	"uint64_t\000"
 2902      36345F74 
 2902      00
 2903              	.LASF78:
 2904 002f 6B65726E 		.ascii	"kernel_stats\000"
 2904      656C5F73 
 2904      74617473 
 2904      00
 2905              	.LASF5:
 2906 003c 5F5F7569 		.ascii	"__uint8_t\000"
 2906      6E74385F 
 2906      7400
 2907              	.LASF55:
 2908 0046 70726576 		.ascii	"prev\000"
 2908      00
 2909              	.LASF112:
 2910 004b 706F7274 		.ascii	"port_intctx\000"
 2910      5F696E74 
 2910      63747800 
 2911              	.LASF54:
 2912 0057 63685F74 		.ascii	"ch_threads_queue\000"
 2912      68726561 
 2912      64735F71 
 2912      75657565 
 2912      00
 2913              	.LASF67:
 2914 0068 73797374 		.ascii	"system_debug_t\000"
 2914      656D5F64 
 2914      65627567 
 2914      5F7400
 2915              	.LASF178:
 2916 0077 70726F76 		.ascii	"provider\000"
 2916      69646572 
 2916      00
 2917              	.LASF118:
 2918 0080 74797065 		.ascii	"type\000"
 2918      00
 2919              	.LASF188:
 2920 0085 73656D5F 		.ascii	"sem_list\000"
 2920      6C697374 
 2920      00
 2921              	.LASF111:
 2922 008e 706F7274 		.ascii	"port_context\000"
 2922      5F636F6E 
 2922      74657874 
 2922      00
 2923              	.LASF129:
 2924 009b 776F7273 		.ascii	"worst\000"
 2924      7400
ARM GAS  C:\Users\RAKIBU~1\AppData\Local\Temp\cc4wEajS.s 			page 53


 2925              	.LASF132:
 2926 00a1 74696D65 		.ascii	"time_measurement_t\000"
 2926      5F6D6561 
 2926      73757265 
 2926      6D656E74 
 2926      5F7400
 2927              	.LASF15:
 2928 00b4 6C6F6E67 		.ascii	"long long unsigned int\000"
 2928      206C6F6E 
 2928      6720756E 
 2928      7369676E 
 2928      65642069 
 2929              	.LASF125:
 2930 00cb 63685F74 		.ascii	"ch_trace_buffer_t\000"
 2930      72616365 
 2930      5F627566 
 2930      6665725F 
 2930      7400
 2931              	.LASF154:
 2932 00dd 74687265 		.ascii	"threadsize\000"
 2932      61647369 
 2932      7A6500
 2933              	.LASF139:
 2934 00e8 65786974 		.ascii	"exitcode\000"
 2934      636F6465 
 2934      00
 2935              	.LASF77:
 2936 00f1 6D61696E 		.ascii	"mainthread\000"
 2936      74687265 
 2936      616400
 2937              	.LASF205:
 2938 00fc 746D5F73 		.ascii	"tm_stop\000"
 2938      746F7000 
 2939              	.LASF64:
 2940 0104 76697274 		.ascii	"virtual_timers_list_t\000"
 2940      75616C5F 
 2940      74696D65 
 2940      72735F6C 
 2940      6973745F 
 2941              	.LASF200:
 2942 011a 6368544D 		.ascii	"chTMObjectInit\000"
 2942      4F626A65 
 2942      6374496E 
 2942      697400
 2943              	.LASF181:
 2944 0129 64796E5F 		.ascii	"dyn_element_t\000"
 2944      656C656D 
 2944      656E745F 
 2944      7400
 2945              	.LASF177:
 2946 0137 616C6967 		.ascii	"align\000"
 2946      6E00
 2947              	.LASF22:
 2948 013d 72747469 		.ascii	"rttime_t\000"
 2948      6D655F74 
 2948      00
 2949              	.LASF195:
ARM GAS  C:\Users\RAKIBU~1\AppData\Local\Temp\cc4wEajS.s 			page 54


 2950 0146 746D7031 		.ascii	"tmp1\000"
 2950      00
 2951              	.LASF196:
 2952 014b 746D7032 		.ascii	"tmp2\000"
 2952      00
 2953              	.LASF1:
 2954 0150 6C6F6E67 		.ascii	"long long int\000"
 2954      206C6F6E 
 2954      6720696E 
 2954      7400
 2955              	.LASF3:
 2956 015e 7369676E 		.ascii	"signed char\000"
 2956      65642063 
 2956      68617200 
 2957              	.LASF180:
 2958 016a 63685F64 		.ascii	"ch_dyn_element\000"
 2958      796E5F65 
 2958      6C656D65 
 2958      6E7400
 2959              	.LASF123:
 2960 0179 73697A65 		.ascii	"size\000"
 2960      00
 2961              	.LASF83:
 2962 017e 43504943 		.ascii	"CPICNT\000"
 2962      4E5400
 2963              	.LASF75:
 2964 0185 726C6973 		.ascii	"rlist\000"
 2964      7400
 2965              	.LASF76:
 2966 018b 76746C69 		.ascii	"vtlist\000"
 2966      737400
 2967              	.LASF199:
 2968 0192 6368544D 		.ascii	"chTMStartMeasurementX\000"
 2968      53746172 
 2968      744D6561 
 2968      73757265 
 2968      6D656E74 
 2969              	.LASF38:
 2970 01a8 73746174 		.ascii	"state\000"
 2970      6500
 2971              	.LASF198:
 2972 01ae 6368544D 		.ascii	"chTMStopMeasurementX\000"
 2972      53746F70 
 2972      4D656173 
 2972      7572656D 
 2972      656E7458 
 2973              	.LASF11:
 2974 01c3 6C6F6E67 		.ascii	"long int\000"
 2974      20696E74 
 2974      00
 2975              	.LASF122:
 2976 01cc 73757370 		.ascii	"suspended\000"
 2976      656E6465 
 2976      6400
 2977              	.LASF24:
 2978 01d6 74737461 		.ascii	"tstate_t\000"
 2978      74655F74 
ARM GAS  C:\Users\RAKIBU~1\AppData\Local\Temp\cc4wEajS.s 			page 55


 2978      00
 2979              	.LASF121:
 2980 01df 63685F74 		.ascii	"ch_trace_event_t\000"
 2980      72616365 
 2980      5F657665 
 2980      6E745F74 
 2980      00
 2981              	.LASF63:
 2982 01f0 66756E63 		.ascii	"func\000"
 2982      00
 2983              	.LASF47:
 2984 01f5 73746174 		.ascii	"stats\000"
 2984      7300
 2985              	.LASF149:
 2986 01fb 6964656E 		.ascii	"identifier\000"
 2986      74696669 
 2986      657200
 2987              	.LASF17:
 2988 0206 75696E74 		.ascii	"uint16_t\000"
 2988      31365F74 
 2988      00
 2989              	.LASF166:
 2990 020f 63686465 		.ascii	"chdebug_t\000"
 2990      6275675F 
 2990      7400
 2991              	.LASF164:
 2992 0219 6F66665F 		.ascii	"off_preempt\000"
 2992      70726565 
 2992      6D707400 
 2993              	.LASF124:
 2994 0225 62756666 		.ascii	"buffer\000"
 2994      657200
 2995              	.LASF163:
 2996 022c 6F66665F 		.ascii	"off_refs\000"
 2996      72656673 
 2996      00
 2997              	.LASF2:
 2998 0235 6C6F6E67 		.ascii	"long double\000"
 2998      20646F75 
 2998      626C6500 
 2999              	.LASF12:
 3000 0241 5F5F7569 		.ascii	"__uint32_t\000"
 3000      6E743332 
 3000      5F7400
 3001              	.LASF109:
 3002 024c 72656761 		.ascii	"regarm_t\000"
 3002      726D5F74 
 3002      00
 3003              	.LASF190:
 3004 0255 6D62785F 		.ascii	"mbx_list\000"
 3004      6C697374 
 3004      00
 3005              	.LASF68:
 3006 025e 63685F73 		.ascii	"ch_system_debug\000"
 3006      79737465 
 3006      6D5F6465 
 3006      62756700 
ARM GAS  C:\Users\RAKIBU~1\AppData\Local\Temp\cc4wEajS.s 			page 56


 3007              	.LASF41:
 3008 026e 77616974 		.ascii	"waiting\000"
 3008      696E6700 
 3009              	.LASF108:
 3010 0276 41504250 		.ascii	"APBPrescTable\000"
 3010      72657363 
 3010      5461626C 
 3010      6500
 3011              	.LASF150:
 3012 0284 7A65726F 		.ascii	"zero\000"
 3012      00
 3013              	.LASF168:
 3014 0289 6D757465 		.ascii	"mutex_t\000"
 3014      785F7400 
 3015              	.LASF71:
 3016 0291 6C6F636B 		.ascii	"lock_cnt\000"
 3016      5F636E74 
 3016      00
 3017              	.LASF80:
 3018 029a 73797369 		.ascii	"sysinterval_t\000"
 3018      6E746572 
 3018      76616C5F 
 3018      7400
 3019              	.LASF29:
 3020 02a8 636E745F 		.ascii	"cnt_t\000"
 3020      7400
 3021              	.LASF42:
 3022 02ae 6D736771 		.ascii	"msgqueue\000"
 3022      75657565 
 3022      00
 3023              	.LASF90:
 3024 02b7 4D41534B 		.ascii	"MASK0\000"
 3024      3000
 3025              	.LASF0:
 3026 02bd 756E7369 		.ascii	"unsigned int\000"
 3026      676E6564 
 3026      20696E74 
 3026      00
 3027              	.LASF98:
 3028 02ca 4D41534B 		.ascii	"MASK2\000"
 3028      3200
 3029              	.LASF106:
 3030 02d0 53797374 		.ascii	"SystemCoreClock\000"
 3030      656D436F 
 3030      7265436C 
 3030      6F636B00 
 3031              	.LASF102:
 3032 02e0 4D41534B 		.ascii	"MASK3\000"
 3032      3300
 3033              	.LASF142:
 3034 02e6 77747365 		.ascii	"wtsemp\000"
 3034      6D7000
 3035              	.LASF201:
 3036 02ed 5F746D5F 		.ascii	"_tm_init\000"
 3036      696E6974 
 3036      00
 3037              	.LASF167:
ARM GAS  C:\Users\RAKIBU~1\AppData\Local\Temp\cc4wEajS.s 			page 57


 3038 02f6 63685F64 		.ascii	"ch_debug\000"
 3038      65627567 
 3038      00
 3039              	.LASF50:
 3040 02ff 63685F74 		.ascii	"ch_thread\000"
 3040      68726561 
 3040      6400
 3041              	.LASF179:
 3042 0309 6D656D6F 		.ascii	"memory_pool_t\000"
 3042      72795F70 
 3042      6F6F6C5F 
 3042      7400
 3043              	.LASF133:
 3044 0317 6E5F6972 		.ascii	"n_irq\000"
 3044      7100
 3045              	.LASF32:
 3046 031d 71756575 		.ascii	"queue\000"
 3046      6500
 3047              	.LASF46:
 3048 0323 6D706F6F 		.ascii	"mpool\000"
 3048      6C00
 3049              	.LASF128:
 3050 0329 62657374 		.ascii	"best\000"
 3050      00
 3051              	.LASF204:
 3052 032e 433A5C55 		.ascii	"C:\\Users\\RakibulChowdhury\\OneDrive - DIAS Geophy"
 3052      73657273 
 3052      5C52616B 
 3052      6962756C 
 3052      43686F77 
 3053 035e 73696361 		.ascii	"sical\\Dias32FirmwareDevelopment\\FirmwareRepo\\Dia"
 3053      6C5C4469 
 3053      61733332 
 3053      4669726D 
 3053      77617265 
 3054 038e 73333257 		.ascii	"s32Workspace\\DIAS-Gen2-Rakibul\000"
 3054      6F726B73 
 3054      70616365 
 3054      5C444941 
 3054      532D4765 
 3055              	.LASF137:
 3056 03ad 6B65726E 		.ascii	"kernel_stats_t\000"
 3056      656C5F73 
 3056      74617473 
 3056      5F7400
 3057              	.LASF36:
 3058 03bc 6E616D65 		.ascii	"name\000"
 3058      00
 3059              	.LASF85:
 3060 03c1 534C4545 		.ascii	"SLEEPCNT\000"
 3060      50434E54 
 3060      00
 3061              	.LASF84:
 3062 03ca 45584343 		.ascii	"EXCCNT\000"
 3062      4E5400
 3063              	.LASF27:
 3064 03d1 6D73675F 		.ascii	"msg_t\000"
ARM GAS  C:\Users\RAKIBU~1\AppData\Local\Temp\cc4wEajS.s 			page 58


 3064      7400
 3065              	.LASF30:
 3066 03d7 75636E74 		.ascii	"ucnt_t\000"
 3066      5F7400
 3067              	.LASF43:
 3068 03de 6570656E 		.ascii	"epending\000"
 3068      64696E67 
 3068      00
 3069              	.LASF183:
 3070 03e7 64796E5F 		.ascii	"dyn_list_t\000"
 3070      6C697374 
 3070      5F7400
 3071              	.LASF73:
 3072 03f2 63685F73 		.ascii	"ch_system_t\000"
 3072      79737465 
 3072      6D5F7400 
 3073              	.LASF156:
 3074 03fe 6F66665F 		.ascii	"off_ctx\000"
 3074      63747800 
 3075              	.LASF23:
 3076 0406 746D6F64 		.ascii	"tmode_t\000"
 3076      655F7400 
 3077              	.LASF136:
 3078 040e 6D5F6372 		.ascii	"m_crit_isr\000"
 3078      69745F69 
 3078      737200
 3079              	.LASF57:
 3080 0419 63685F72 		.ascii	"ch_ready_list\000"
 3080      65616479 
 3080      5F6C6973 
 3080      7400
 3081              	.LASF28:
 3082 0427 6576656E 		.ascii	"eventmask_t\000"
 3082      746D6173 
 3082      6B5F7400 
 3083              	.LASF107:
 3084 0433 41484250 		.ascii	"AHBPrescTable\000"
 3084      72657363 
 3084      5461626C 
 3084      6500
 3085              	.LASF172:
 3086 0441 656E646D 		.ascii	"endmem\000"
 3086      656D00
 3087              	.LASF10:
 3088 0448 5F5F696E 		.ascii	"__int32_t\000"
 3088      7433325F 
 3088      7400
 3089              	.LASF197:
 3090 0452 6368544D 		.ascii	"chTMChainMeasurementToX\000"
 3090      43686169 
 3090      6E4D6561 
 3090      73757265 
 3090      6D656E74 
 3091              	.LASF110:
 3092 046a 73746B61 		.ascii	"stkalign_t\000"
 3092      6C69676E 
 3092      5F7400
ARM GAS  C:\Users\RAKIBU~1\AppData\Local\Temp\cc4wEajS.s 			page 59


 3093              	.LASF34:
 3094 0475 6E657765 		.ascii	"newer\000"
 3094      7200
 3095              	.LASF119:
 3096 047b 72747374 		.ascii	"rtstamp\000"
 3096      616D7000 
 3097              	.LASF82:
 3098 0483 43594343 		.ascii	"CYCCNT\000"
 3098      4E5400
 3099              	.LASF45:
 3100 048a 7265616C 		.ascii	"realprio\000"
 3100      7072696F 
 3100      00
 3101              	.LASF151:
 3102 0493 76657273 		.ascii	"version\000"
 3102      696F6E00 
 3103              	.LASF21:
 3104 049b 7274636E 		.ascii	"rtcnt_t\000"
 3104      745F7400 
 3105              	.LASF48:
 3106 04a3 74687265 		.ascii	"thread_reference_t\000"
 3106      61645F72 
 3106      65666572 
 3106      656E6365 
 3106      5F7400
 3107              	.LASF65:
 3108 04b6 63685F76 		.ascii	"ch_virtual_timers_list\000"
 3108      69727475 
 3108      616C5F74 
 3108      696D6572 
 3108      735F6C69 
 3109              	.LASF140:
 3110 04cd 77747472 		.ascii	"wttrp\000"
 3110      7000
 3111              	.LASF182:
 3112 04d3 63685F64 		.ascii	"ch_dyn_list\000"
 3112      796E5F6C 
 3112      69737400 
 3113              	.LASF157:
 3114 04df 6F66665F 		.ascii	"off_newer\000"
 3114      6E657765 
 3114      7200
 3115              	.LASF127:
 3116 04e9 746D5F63 		.ascii	"tm_calibration_t\000"
 3116      616C6962 
 3116      72617469 
 3116      6F6E5F74 
 3116      00
 3117              	.LASF89:
 3118 04fa 434F4D50 		.ascii	"COMP0\000"
 3118      3000
 3119              	.LASF93:
 3120 0500 434F4D50 		.ascii	"COMP1\000"
 3120      3100
 3121              	.LASF97:
 3122 0506 434F4D50 		.ascii	"COMP2\000"
 3122      3200
ARM GAS  C:\Users\RAKIBU~1\AppData\Local\Temp\cc4wEajS.s 			page 60


 3123              	.LASF101:
 3124 050c 434F4D50 		.ascii	"COMP3\000"
 3124      3300
 3125              	.LASF202:
 3126 0512 474E5520 		.ascii	"GNU C11 7.2.1 20170904 (release) [ARM/embedded-7-br"
 3126      43313120 
 3126      372E322E 
 3126      31203230 
 3126      31373039 
 3127 0545 616E6368 		.ascii	"anch revision 255204] -mcpu=cortex-m4 -mthumb -ggdb"
 3127      20726576 
 3127      6973696F 
 3127      6E203235 
 3127      35323034 
 3128 0578 202D4F67 		.ascii	" -Og -fomit-frame-pointer -falign-functions=16\000"
 3128      202D666F 
 3128      6D69742D 
 3128      6672616D 
 3128      652D706F 
 3129              	.LASF120:
 3130 05a7 74696D65 		.ascii	"time\000"
 3130      00
 3131              	.LASF33:
 3132 05ac 7072696F 		.ascii	"prio\000"
 3132      00
 3133              	.LASF189:
 3134 05b1 73656D5F 		.ascii	"sem_pool\000"
 3134      706F6F6C 
 3134      00
 3135              	.LASF58:
 3136 05ba 63757272 		.ascii	"current\000"
 3136      656E7400 
 3137              	.LASF14:
 3138 05c2 5F5F7569 		.ascii	"__uint64_t\000"
 3138      6E743634 
 3138      5F7400
 3139              	.LASF173:
 3140 05cd 6D656D63 		.ascii	"memcore_t\000"
 3140      6F72655F 
 3140      7400
 3141              	.LASF131:
 3142 05d7 63756D75 		.ascii	"cumulative\000"
 3142      6C617469 
 3142      766500
 3143              	.LASF25:
 3144 05e2 74726566 		.ascii	"trefs_t\000"
 3144      735F7400 
 3145              	.LASF92:
 3146 05ea 52455345 		.ascii	"RESERVED0\000"
 3146      52564544 
 3146      3000
 3147              	.LASF96:
 3148 05f4 52455345 		.ascii	"RESERVED1\000"
 3148      52564544 
 3148      3100
 3149              	.LASF100:
 3150 05fe 52455345 		.ascii	"RESERVED2\000"
ARM GAS  C:\Users\RAKIBU~1\AppData\Local\Temp\cc4wEajS.s 			page 61


 3150      52564544 
 3150      3200
 3151              	.LASF40:
 3152 0608 72656673 		.ascii	"refs\000"
 3152      00
 3153              	.LASF60:
 3154 060d 76697274 		.ascii	"virtual_timer_t\000"
 3154      75616C5F 
 3154      74696D65 
 3154      725F7400 
 3155              	.LASF117:
 3156 061d 75736572 		.ascii	"user\000"
 3156      00
 3157              	.LASF26:
 3158 0622 74707269 		.ascii	"tprio_t\000"
 3158      6F5F7400 
 3159              	.LASF187:
 3160 062a 6275665F 		.ascii	"buf_list\000"
 3160      6C697374 
 3160      00
 3161              	.LASF134:
 3162 0633 6E5F6374 		.ascii	"n_ctxswc\000"
 3162      78737763 
 3162      00
 3163              	.LASF94:
 3164 063c 4D41534B 		.ascii	"MASK1\000"
 3164      3100
 3165              	.LASF18:
 3166 0642 696E7433 		.ascii	"int32_t\000"
 3166      325F7400 
 3167              	.LASF6:
 3168 064a 756E7369 		.ascii	"unsigned char\000"
 3168      676E6564 
 3168      20636861 
 3168      7200
 3169              	.LASF155:
 3170 0658 6F66665F 		.ascii	"off_prio\000"
 3170      7072696F 
 3170      00
 3171              	.LASF191:
 3172 0661 6669666F 		.ascii	"fifo_list\000"
 3172      5F6C6973 
 3172      7400
 3173              	.LASF105:
 3174 066b 49544D5F 		.ascii	"ITM_RxBuffer\000"
 3174      52784275 
 3174      66666572 
 3174      00
 3175              	.LASF91:
 3176 0678 46554E43 		.ascii	"FUNCTION0\000"
 3176      54494F4E 
 3176      3000
 3177              	.LASF95:
 3178 0682 46554E43 		.ascii	"FUNCTION1\000"
 3178      54494F4E 
 3178      3100
 3179              	.LASF99:
ARM GAS  C:\Users\RAKIBU~1\AppData\Local\Temp\cc4wEajS.s 			page 62


 3180 068c 46554E43 		.ascii	"FUNCTION2\000"
 3180      54494F4E 
 3180      3200
 3181              	.LASF103:
 3182 0696 46554E43 		.ascii	"FUNCTION3\000"
 3182      54494F4E 
 3182      3300
 3183              	.LASF7:
 3184 06a0 73686F72 		.ascii	"short int\000"
 3184      7420696E 
 3184      7400
 3185              	.LASF66:
 3186 06aa 6C617374 		.ascii	"lasttime\000"
 3186      74696D65 
 3186      00
 3187              	.LASF116:
 3188 06b3 68616C74 		.ascii	"halt\000"
 3188      00
 3189              	.LASF144:
 3190 06b8 65776D61 		.ascii	"ewmask\000"
 3190      736B00
 3191              	.LASF74:
 3192 06bf 63685F73 		.ascii	"ch_system\000"
 3192      79737465 
 3192      6D00
 3193              	.LASF194:
 3194 06c9 63685F66 		.ascii	"ch_factory\000"
 3194      6163746F 
 3194      727900
 3195              	.LASF186:
 3196 06d4 6F626A5F 		.ascii	"obj_pool\000"
 3196      706F6F6C 
 3196      00
 3197              	.LASF115:
 3198 06dd 72656173 		.ascii	"reason\000"
 3198      6F6E00
 3199              	.LASF61:
 3200 06e4 63685F76 		.ascii	"ch_virtual_timer\000"
 3200      69727475 
 3200      616C5F74 
 3200      696D6572 
 3200      00
 3201              	.LASF145:
 3202 06f5 63685F73 		.ascii	"ch_semaphore\000"
 3202      656D6170 
 3202      686F7265 
 3202      00
 3203              	.LASF165:
 3204 0702 6F66665F 		.ascii	"off_time\000"
 3204      74696D65 
 3204      00
 3205              	.LASF148:
 3206 070b 63685F69 		.ascii	"ch_idle_thread_wa\000"
 3206      646C655F 
 3206      74687265 
 3206      61645F77 
 3206      6100
ARM GAS  C:\Users\RAKIBU~1\AppData\Local\Temp\cc4wEajS.s 			page 63


 3207              	.LASF153:
 3208 071d 74696D65 		.ascii	"timesize\000"
 3208      73697A65 
 3208      00
 3209              	.LASF192:
 3210 0726 70697065 		.ascii	"pipe_list\000"
 3210      5F6C6973 
 3210      7400
 3211              	.LASF86:
 3212 0730 4C535543 		.ascii	"LSUCNT\000"
 3212      4E5400
 3213              	.LASF19:
 3214 0737 75696E74 		.ascii	"uint32_t\000"
 3214      33325F74 
 3214      00
 3215              	.LASF143:
 3216 0740 77746D74 		.ascii	"wtmtxp\000"
 3216      787000
 3217              	.LASF51:
 3218 0747 63685F74 		.ascii	"ch_threads_list\000"
 3218      68726561 
 3218      64735F6C 
 3218      69737400 
 3219              	.LASF147:
 3220 0757 6F776E65 		.ascii	"owner\000"
 3220      7200
 3221              	.LASF169:
 3222 075d 5F426F6F 		.ascii	"_Bool\000"
 3222      6C00
 3223              	.LASF13:
 3224 0763 6C6F6E67 		.ascii	"long unsigned int\000"
 3224      20756E73 
 3224      69676E65 
 3224      6420696E 
 3224      7400
 3225              	.LASF37:
 3226 0775 77616261 		.ascii	"wabase\000"
 3226      736500
 3227              	.LASF114:
 3228 077c 63686172 		.ascii	"char\000"
 3228      00
 3229              	.LASF35:
 3230 0781 6F6C6465 		.ascii	"older\000"
 3230      7200
 3231              	.LASF185:
 3232 0787 6F626A5F 		.ascii	"obj_list\000"
 3232      6C697374 
 3232      00
 3233              	.LASF8:
 3234 0790 5F5F7569 		.ascii	"__uint16_t\000"
 3234      6E743136 
 3234      5F7400
 3235              	.LASF31:
 3236 079b 74687265 		.ascii	"thread_t\000"
 3236      61645F74 
 3236      00
 3237              	.LASF206:
ARM GAS  C:\Users\RAKIBU~1\AppData\Local\Temp\cc4wEajS.s 			page 64


 3238 07a4 706F7274 		.ascii	"port_rt_get_counter_value\000"
 3238      5F72745F 
 3238      6765745F 
 3238      636F756E 
 3238      7465725F 
 3239              	.LASF174:
 3240 07be 63685F6D 		.ascii	"ch_memcore\000"
 3240      656D636F 
 3240      726500
 3241              	.LASF79:
 3242 07c9 73797374 		.ascii	"systime_t\000"
 3242      696D655F 
 3242      7400
 3243              	.LASF59:
 3244 07d3 76746675 		.ascii	"vtfunc_t\000"
 3244      6E635F74 
 3244      00
 3245              	.LASF130:
 3246 07dc 6C617374 		.ascii	"last\000"
 3246      00
 3247              	.LASF69:
 3248 07e1 70616E69 		.ascii	"panic_msg\000"
 3248      635F6D73 
 3248      6700
 3249              	.LASF126:
 3250 07eb 6F666673 		.ascii	"offset\000"
 3250      657400
 3251              	.LASF146:
 3252 07f2 63685F6D 		.ascii	"ch_mutex\000"
 3252      75746578 
 3252      00
 3253              	.LASF158:
 3254 07fb 6F66665F 		.ascii	"off_older\000"
 3254      6F6C6465 
 3254      7200
 3255              	.LASF9:
 3256 0805 73686F72 		.ascii	"short unsigned int\000"
 3256      7420756E 
 3256      7369676E 
 3256      65642069 
 3256      6E7400
 3257              	.LASF104:
 3258 0818 4457545F 		.ascii	"DWT_Type\000"
 3258      54797065 
 3258      00
 3259              	.LASF170:
 3260 0821 6D656D67 		.ascii	"memgetfunc_t\000"
 3260      65746675 
 3260      6E635F74 
 3260      00
 3261              	.LASF81:
 3262 082e 4354524C 		.ascii	"CTRL\000"
 3262      00
 3263              	.LASF176:
 3264 0833 6F626A65 		.ascii	"object_size\000"
 3264      63745F73 
 3264      697A6500 
ARM GAS  C:\Users\RAKIBU~1\AppData\Local\Temp\cc4wEajS.s 			page 65


 3265              	.LASF152:
 3266 083f 70747273 		.ascii	"ptrsize\000"
 3266      697A6500 
 3267              	.LASF184:
 3268 0847 63685F6F 		.ascii	"ch_objects_factory\000"
 3268      626A6563 
 3268      74735F66 
 3268      6163746F 
 3268      727900
 3269              	.LASF53:
 3270 085a 74687265 		.ascii	"threads_queue_t\000"
 3270      6164735F 
 3270      71756575 
 3270      655F7400 
 3271              	.LASF175:
 3272 086a 706F6F6C 		.ascii	"pool_header\000"
 3272      5F686561 
 3272      64657200 
 3273              	.LASF70:
 3274 0876 6973725F 		.ascii	"isr_cnt\000"
 3274      636E7400 
 3275              	.LASF159:
 3276 087e 6F66665F 		.ascii	"off_name\000"
 3276      6E616D65 
 3276      00
 3277              	.LASF16:
 3278 0887 75696E74 		.ascii	"uint8_t\000"
 3278      385F7400 
 3279              	.LASF160:
 3280 088f 6F66665F 		.ascii	"off_stklimit\000"
 3280      73746B6C 
 3280      696D6974 
 3280      00
 3281              	.LASF39:
 3282 089c 666C6167 		.ascii	"flags\000"
 3282      7300
 3283              	.LASF203:
 3284 08a2 2E2E2F2E 		.ascii	"../../../ChibiOSRepo/chibios191/os/rt/src/chtm.c\000"
 3284      2E2F2E2E 
 3284      2F436869 
 3284      62694F53 
 3284      5265706F 
 3285              	.LASF87:
 3286 08d3 464F4C44 		.ascii	"FOLDCNT\000"
 3286      434E5400 
 3287              	.LASF88:
 3288 08db 50435352 		.ascii	"PCSR\000"
 3288      00
 3289              	.LASF113:
 3290 08e0 77746F62 		.ascii	"wtobjp\000"
 3290      6A7000
 3291              	.LASF49:
 3292 08e7 74687265 		.ascii	"threads_list_t\000"
 3292      6164735F 
 3292      6C697374 
 3292      5F7400
 3293              	.LASF161:
ARM GAS  C:\Users\RAKIBU~1\AppData\Local\Temp\cc4wEajS.s 			page 66


 3294 08f6 6F66665F 		.ascii	"off_state\000"
 3294      73746174 
 3294      6500
 3295              	.LASF72:
 3296 0900 74726163 		.ascii	"trace_buffer\000"
 3296      655F6275 
 3296      66666572 
 3296      00
 3297              	.LASF193:
 3298 090d 6F626A65 		.ascii	"objects_factory_t\000"
 3298      6374735F 
 3298      66616374 
 3298      6F72795F 
 3298      7400
 3299              	.LASF162:
 3300 091f 6F66665F 		.ascii	"off_flags\000"
 3300      666C6167 
 3300      7300
 3301              	.LASF44:
 3302 0929 6D74786C 		.ascii	"mtxlist\000"
 3302      69737400 
 3303              	.LASF141:
 3304 0931 73656E74 		.ascii	"sentmsg\000"
 3304      6D736700 
 3305              	.LASF135:
 3306 0939 6D5F6372 		.ascii	"m_crit_thd\000"
 3306      69745F74 
 3306      686400
 3307              	.LASF171:
 3308 0944 6E657874 		.ascii	"nextmem\000"
 3308      6D656D00 
 3309              		.ident	"GCC: (GNU Tools for Arm Embedded Processors 7-2017-q4-major) 7.2.1 20170904 (release) [ARM
ARM GAS  C:\Users\RAKIBU~1\AppData\Local\Temp\cc4wEajS.s 			page 67


DEFINED SYMBOLS
                            *ABS*:00000000 chtm.c
C:\Users\RAKIBU~1\AppData\Local\Temp\cc4wEajS.s:15     .text:00000000 $t
C:\Users\RAKIBU~1\AppData\Local\Temp\cc4wEajS.s:23     .text:00000000 chTMObjectInit
C:\Users\RAKIBU~1\AppData\Local\Temp\cc4wEajS.s:59     .text:00000020 chTMStartMeasurementX
C:\Users\RAKIBU~1\AppData\Local\Temp\cc4wEajS.s:82     .text:00000028 $d
C:\Users\RAKIBU~1\AppData\Local\Temp\cc4wEajS.s:86     .text:0000002c $t
C:\Users\RAKIBU~1\AppData\Local\Temp\cc4wEajS.s:94     .text:00000030 chTMStopMeasurementX
C:\Users\RAKIBU~1\AppData\Local\Temp\cc4wEajS.s:160    .text:0000006c $d
C:\Users\RAKIBU~1\AppData\Local\Temp\cc4wEajS.s:165    .text:00000074 $t
C:\Users\RAKIBU~1\AppData\Local\Temp\cc4wEajS.s:173    .text:00000080 _tm_init
C:\Users\RAKIBU~1\AppData\Local\Temp\cc4wEajS.s:212    .text:000000a8 $d
C:\Users\RAKIBU~1\AppData\Local\Temp\cc4wEajS.s:216    .text:000000ac $t
C:\Users\RAKIBU~1\AppData\Local\Temp\cc4wEajS.s:224    .text:000000b0 chTMChainMeasurementToX
C:\Users\RAKIBU~1\AppData\Local\Temp\cc4wEajS.s:289    .text:000000e8 $d

UNDEFINED SYMBOLS
ch
