ARM GAS  C:\Users\RAKIBU~1\AppData\Local\Temp\cc4wEajS.s 			page 1


   1              		.cpu cortex-m4
   2              		.eabi_attribute 20, 1
   3              		.eabi_attribute 21, 1
   4              		.eabi_attribute 23, 3
   5              		.eabi_attribute 24, 1
   6              		.eabi_attribute 25, 1
   7              		.eabi_attribute 26, 1
   8              		.eabi_attribute 30, 1
   9              		.eabi_attribute 34, 1
  10              		.eabi_attribute 18, 4
  11              		.file	"chtm.c"
  12              		.text
  13              	.Ltext0:
  14              		.cfi_sections	.debug_frame
  15              		.align	1
  16              		.p2align 4,,15
  17              		.global	chTMObjectInit
  18              		.syntax unified
  19              		.thumb
  20              		.thumb_func
  21              		.fpu softvfp
  22              		.type	chTMObjectInit, %function
  23              	chTMObjectInit:
  24              	.LFB297:
  25              		.file 1 "../../../ChibiOSRepo/chibios191/os/rt/src/chtm.c"
  26              		.loc 1 97 0
  27              		.cfi_startproc
  28              		@ args = 0, pretend = 0, frame = 0
  29              		@ frame_needed = 0, uses_anonymous_args = 0
  30              		@ link register save eliminated.
  31              	.LVL0:
  32              		.loc 1 99 0
  33 0000 4FF0FF33 		mov	r3, #-1
  34 0004 0360     		str	r3, [r0]
  35              		.loc 1 100 0
  36 0006 0023     		movs	r3, #0
  37 0008 4360     		str	r3, [r0, #4]
  38              		.loc 1 101 0
  39 000a 8360     		str	r3, [r0, #8]
  40              		.loc 1 102 0
  41 000c C360     		str	r3, [r0, #12]
  42              		.loc 1 103 0
  43 000e 0022     		movs	r2, #0
  44 0010 0023     		movs	r3, #0
  45 0012 C0E90423 		strd	r2, [r0, #16]
  46              		.loc 1 104 0
  47 0016 7047     		bx	lr
  48              		.cfi_endproc
  49              	.LFE297:
  50              		.size	chTMObjectInit, .-chTMObjectInit
  51              		.align	1
  52 0018 AFF30080 		.p2align 4,,15
  52      AFF30080 
  53              		.global	chTMStartMeasurementX
  54              		.syntax unified
  55              		.thumb
  56              		.thumb_func
ARM GAS  C:\Users\RAKIBU~1\AppData\Local\Temp\cc4wEajS.s 			page 2


  57              		.fpu softvfp
  58              		.type	chTMStartMeasurementX, %function
  59              	chTMStartMeasurementX:
  60              	.LFB298:
  61              		.loc 1 114 0
  62              		.cfi_startproc
  63              		@ args = 0, pretend = 0, frame = 0
  64              		@ frame_needed = 0, uses_anonymous_args = 0
  65              		@ link register save eliminated.
  66              	.LVL1:
  67              	.LBB12:
  68              	.LBB13:
  69              		.file 2 "../../../ChibiOSRepo/chibios191/os/common/ports/ARMCMx/chcore_v7m.h"
  70              		.loc 2 719 0
  71 0020 014B     		ldr	r3, .L3
  72 0022 5B68     		ldr	r3, [r3, #4]
  73              	.LBE13:
  74              	.LBE12:
  75              		.loc 1 116 0
  76 0024 8360     		str	r3, [r0, #8]
  77              		.loc 1 117 0
  78 0026 7047     		bx	lr
  79              	.L4:
  80              		.align	2
  81              	.L3:
  82 0028 001000E0 		.word	-536866816
  83              		.cfi_endproc
  84              	.LFE298:
  85              		.size	chTMStartMeasurementX, .-chTMStartMeasurementX
  86              		.align	1
  87 002c AFF30080 		.p2align 4,,15
  88              		.global	chTMStopMeasurementX
  89              		.syntax unified
  90              		.thumb
  91              		.thumb_func
  92              		.fpu softvfp
  93              		.type	chTMStopMeasurementX, %function
  94              	chTMStopMeasurementX:
  95              	.LFB299:
  96              		.loc 1 127 0
  97              		.cfi_startproc
  98              		@ args = 0, pretend = 0, frame = 0
  99              		@ frame_needed = 0, uses_anonymous_args = 0
 100              		@ link register save eliminated.
 101              	.LVL2:
 102 0030 30B4     		push	{r4, r5}
 103              		.cfi_def_cfa_offset 8
 104              		.cfi_offset 4, -8
 105              		.cfi_offset 5, -4
 106              	.LBB14:
 107              	.LBB15:
 108              		.loc 2 719 0
 109 0032 0E4B     		ldr	r3, .L9
 110 0034 5B68     		ldr	r3, [r3, #4]
 111              	.LBE15:
 112              	.LBE14:
 113              		.loc 1 129 0
ARM GAS  C:\Users\RAKIBU~1\AppData\Local\Temp\cc4wEajS.s 			page 3


 114 0036 0E4A     		ldr	r2, .L9+4
 115 0038 D2F8B018 		ldr	r1, [r2, #2224]
 116              	.LVL3:
 117              	.LBB16:
 118              	.LBB17:
 119              		.loc 1 57 0
 120 003c C268     		ldr	r2, [r0, #12]
 121 003e 0132     		adds	r2, r2, #1
 122 0040 C260     		str	r2, [r0, #12]
 123              		.loc 1 58 0
 124 0042 8268     		ldr	r2, [r0, #8]
 125 0044 9B1A     		subs	r3, r3, r2
 126 0046 5B1A     		subs	r3, r3, r1
 127 0048 8360     		str	r3, [r0, #8]
 128              		.loc 1 59 0
 129 004a D0E90445 		ldrd	r4, [r0, #16]
 130 004e E118     		adds	r1, r4, r3
 131              	.LVL4:
 132 0050 45F10002 		adc	r2, r5, #0
 133 0054 C0E90412 		strd	r1, [r0, #16]
 134              		.loc 1 60 0
 135 0058 4268     		ldr	r2, [r0, #4]
 136 005a 9342     		cmp	r3, r2
 137 005c 00D9     		bls	.L6
 138              		.loc 1 61 0
 139 005e 4360     		str	r3, [r0, #4]
 140              	.L6:
 141              		.loc 1 63 0
 142 0060 0268     		ldr	r2, [r0]
 143 0062 9342     		cmp	r3, r2
 144 0064 00D2     		bcs	.L5
 145              		.loc 1 64 0
 146 0066 0360     		str	r3, [r0]
 147              	.LVL5:
 148              	.L5:
 149              	.LBE17:
 150              	.LBE16:
 151              		.loc 1 130 0
 152 0068 30BC     		pop	{r4, r5}
 153              		.cfi_restore 5
 154              		.cfi_restore 4
 155              		.cfi_def_cfa_offset 0
 156 006a 7047     		bx	lr
 157              	.L10:
 158              		.align	2
 159              	.L9:
 160 006c 001000E0 		.word	-536866816
 161 0070 00000000 		.word	ch
 162              		.cfi_endproc
 163              	.LFE299:
 164              		.size	chTMStopMeasurementX, .-chTMStopMeasurementX
 165              		.align	1
 166 0074 AFF30080 		.p2align 4,,15
 166      AFF30080 
 166      AFF30080 
 167              		.global	_tm_init
 168              		.syntax unified
ARM GAS  C:\Users\RAKIBU~1\AppData\Local\Temp\cc4wEajS.s 			page 4


 169              		.thumb
 170              		.thumb_func
 171              		.fpu softvfp
 172              		.type	_tm_init, %function
 173              	_tm_init:
 174              	.LFB296:
 175              		.loc 1 77 0
 176              		.cfi_startproc
 177              		@ args = 0, pretend = 0, frame = 24
 178              		@ frame_needed = 0, uses_anonymous_args = 0
 179 0080 10B5     		push	{r4, lr}
 180              		.cfi_def_cfa_offset 8
 181              		.cfi_offset 4, -8
 182              		.cfi_offset 14, -4
 183 0082 86B0     		sub	sp, sp, #24
 184              		.cfi_def_cfa_offset 32
 185              		.loc 1 83 0
 186 0084 084C     		ldr	r4, .L13
 187 0086 0023     		movs	r3, #0
 188 0088 C4F8B038 		str	r3, [r4, #2224]
 189              		.loc 1 84 0
 190 008c 6846     		mov	r0, sp
 191 008e FFF7FEFF 		bl	chTMObjectInit
 192              	.LVL6:
 193              		.loc 1 85 0
 194 0092 6846     		mov	r0, sp
 195 0094 FFF7FEFF 		bl	chTMStartMeasurementX
 196              	.LVL7:
 197              		.loc 1 86 0
 198 0098 6846     		mov	r0, sp
 199 009a FFF7FEFF 		bl	chTMStopMeasurementX
 200              	.LVL8:
 201              		.loc 1 87 0
 202 009e 029B     		ldr	r3, [sp, #8]
 203 00a0 C4F8B038 		str	r3, [r4, #2224]
 204              		.loc 1 88 0
 205 00a4 06B0     		add	sp, sp, #24
 206              		.cfi_def_cfa_offset 8
 207              		@ sp needed
 208 00a6 10BD     		pop	{r4, pc}
 209              	.L14:
 210              		.align	2
 211              	.L13:
 212 00a8 00000000 		.word	ch
 213              		.cfi_endproc
 214              	.LFE296:
 215              		.size	_tm_init, .-_tm_init
 216              		.align	1
 217 00ac AFF30080 		.p2align 4,,15
 218              		.global	chTMChainMeasurementToX
 219              		.syntax unified
 220              		.thumb
 221              		.thumb_func
 222              		.fpu softvfp
 223              		.type	chTMChainMeasurementToX, %function
 224              	chTMChainMeasurementToX:
 225              	.LFB300:
ARM GAS  C:\Users\RAKIBU~1\AppData\Local\Temp\cc4wEajS.s 			page 5


 226              		.loc 1 145 0
 227              		.cfi_startproc
 228              		@ args = 0, pretend = 0, frame = 0
 229              		@ frame_needed = 0, uses_anonymous_args = 0
 230              		@ link register save eliminated.
 231              	.LVL9:
 232 00b0 30B4     		push	{r4, r5}
 233              		.cfi_def_cfa_offset 8
 234              		.cfi_offset 4, -8
 235              		.cfi_offset 5, -4
 236              	.LBB18:
 237              	.LBB19:
 238              		.loc 2 719 0
 239 00b2 0D4B     		ldr	r3, .L19
 240 00b4 5B68     		ldr	r3, [r3, #4]
 241              	.LBE19:
 242              	.LBE18:
 243              		.loc 1 148 0
 244 00b6 8B60     		str	r3, [r1, #8]
 245              	.LVL10:
 246              	.LBB20:
 247              	.LBB21:
 248              		.loc 1 57 0
 249 00b8 C268     		ldr	r2, [r0, #12]
 250 00ba 0132     		adds	r2, r2, #1
 251 00bc C260     		str	r2, [r0, #12]
 252              		.loc 1 58 0
 253 00be 8268     		ldr	r2, [r0, #8]
 254 00c0 9B1A     		subs	r3, r3, r2
 255              	.LVL11:
 256 00c2 8360     		str	r3, [r0, #8]
 257              		.loc 1 59 0
 258 00c4 D0E90445 		ldrd	r4, [r0, #16]
 259 00c8 E118     		adds	r1, r4, r3
 260              	.LVL12:
 261 00ca 45F10002 		adc	r2, r5, #0
 262 00ce C0E90412 		strd	r1, [r0, #16]
 263              		.loc 1 60 0
 264 00d2 4268     		ldr	r2, [r0, #4]
 265 00d4 9342     		cmp	r3, r2
 266 00d6 00D9     		bls	.L16
 267              		.loc 1 61 0
 268 00d8 4360     		str	r3, [r0, #4]
 269              	.L16:
 270              		.loc 1 63 0
 271 00da 0268     		ldr	r2, [r0]
 272 00dc 9342     		cmp	r3, r2
 273 00de 00D2     		bcs	.L15
 274              		.loc 1 64 0
 275 00e0 0360     		str	r3, [r0]
 276              	.LVL13:
 277              	.L15:
 278              	.LBE21:
 279              	.LBE20:
 280              		.loc 1 152 0
 281 00e2 30BC     		pop	{r4, r5}
 282              		.cfi_restore 5
ARM GAS  C:\Users\RAKIBU~1\AppData\Local\Temp\cc4wEajS.s 			page 6


 283              		.cfi_restore 4
 284              		.cfi_def_cfa_offset 0
 285 00e4 7047     		bx	lr
 286              	.L20:
 287 00e6 00BF     		.align	2
 288              	.L19:
 289 00e8 001000E0 		.word	-536866816
 290              		.cfi_endproc
 291              	.LFE300:
 292              		.size	chTMChainMeasurementToX, .-chTMChainMeasurementToX
 293              	.Letext0:
 294              		.file 3 "c:\\chibistudio\\tools\\gnu tools arm embedded\\7.0 2017q4\\lib\\gcc\\arm-none-eabi\\7.2.
 295              		.file 4 "c:\\chibistudio\\tools\\gnu tools arm embedded\\7.0 2017q4\\arm-none-eabi\\include\\machi
 296              		.file 5 "c:\\chibistudio\\tools\\gnu tools arm embedded\\7.0 2017q4\\arm-none-eabi\\include\\sys\\
 297              		.file 6 "../../../ChibiOSRepo/chibios191/os/common/ports/ARMCMx/compilers/GCC/chtypes.h"
 298              		.file 7 "../../../ChibiOSRepo/chibios191/os/rt/include/chsystypes.h"
 299              		.file 8 "../../../ChibiOSRepo/chibios191/os/rt/include/chschd.h"
 300              		.file 9 "../../../ChibiOSRepo/chibios191/os/rt/include/chtime.h"
 301              		.file 10 "../../../ChibiOSRepo/chibios191/os/common/ext/ARM/CMSIS/Core/Include/core_cm4.h"
 302              		.file 11 "../../../ChibiOSRepo/chibios191/os/common/ext/ST/STM32F4xx/system_stm32f4xx.h"
 303              		.file 12 "../../../ChibiOSRepo/chibios191/os/common/ports/ARMCMx/chcore.h"
 304              		.file 13 "../../../ChibiOSRepo/chibios191/os/rt/include/chtrace.h"
 305              		.file 14 "../../../ChibiOSRepo/chibios191/os/rt/include/chtm.h"
 306              		.file 15 "../../../ChibiOSRepo/chibios191/os/rt/include/chstats.h"
 307              		.file 16 "../../../ChibiOSRepo/chibios191/os/rt/include/chsem.h"
 308              		.file 17 "../../../ChibiOSRepo/chibios191/os/rt/include/chmtx.h"
 309              		.file 18 "../../../ChibiOSRepo/chibios191/os/rt/include/chsys.h"
 310              		.file 19 "../../../ChibiOSRepo/chibios191/os/rt/include/chregistry.h"
 311              		.file 20 "../../../ChibiOSRepo/chibios191/os/oslib/include/chmemcore.h"
 312              		.file 21 "../../../ChibiOSRepo/chibios191/os/oslib/include/chmempools.h"
 313              		.file 22 "../../../ChibiOSRepo/chibios191/os/oslib/include/chfactory.h"