ARM GAS  C:\Users\RAKIBU~1\AppData\Local\Temp\cclagJ2i.s 			page 1


   1              		.cpu cortex-m4
   2              		.eabi_attribute 20, 1
   3              		.eabi_attribute 21, 1
   4              		.eabi_attribute 23, 3
   5              		.eabi_attribute 24, 1
   6              		.eabi_attribute 25, 1
   7              		.eabi_attribute 26, 1
   8              		.eabi_attribute 30, 1
   9              		.eabi_attribute 34, 1
  10              		.eabi_attribute 18, 4
  11              		.file	"chtrace.c"
  12              		.text
  13              	.Ltext0:
  14              		.cfi_sections	.debug_frame
  15              		.align	1
  16              		.p2align 4,,15
  17              		.syntax unified
  18              		.thumb
  19              		.thumb_func
  20              		.fpu softvfp
  21              		.type	trace_next, %function
  22              	trace_next:
  23              	.LFB295:
  24              		.file 1 "../../../ChibiOSRepo/chibios191/os/rt/src/chtrace.c"
  25              		.loc 1 57 0
  26              		.cfi_startproc
  27              		@ args = 0, pretend = 0, frame = 0
  28              		@ frame_needed = 0, uses_anonymous_args = 0
  29              		@ link register save eliminated.
  30              		.loc 1 59 0
  31 0000 0C4B     		ldr	r3, .L3
  32 0002 9A6C     		ldr	r2, [r3, #72]
  33              	.LBB70:
  34              	.LBB71:
  35              	.LBB72:
  36              	.LBB73:
  37              		.file 2 "../../../ChibiOSRepo/chibios191/os/hal/ports/STM32/LLD/TIMv1/hal_st_lld.h"
  38              		.loc 2 147 0
  39 0004 4FF08041 		mov	r1, #1073741824
  40 0008 496A     		ldr	r1, [r1, #36]
  41              	.LBE73:
  42              	.LBE72:
  43              	.LBE71:
  44              	.LBE70:
  45              		.loc 1 59 0
  46 000a 5160     		str	r1, [r2, #4]
  47              	.LBB74:
  48              	.LBB75:
  49              		.file 3 "../../../ChibiOSRepo/chibios191/os/common/ports/ARMCMx/chcore_v7m.h"
  50              		.loc 3 719 0
  51 000c 0A4A     		ldr	r2, .L3+4
  52 000e 5068     		ldr	r0, [r2, #4]
  53              	.LBE75:
  54              	.LBE74:
  55              		.loc 1 61 0
  56 0010 9A6C     		ldr	r2, [r3, #72]
  57 0012 1168     		ldr	r1, [r2]
ARM GAS  C:\Users\RAKIBU~1\AppData\Local\Temp\cclagJ2i.s 			page 2


  58 0014 60F31F21 		bfi	r1, r0, #8, #24
  59 0018 1160     		str	r1, [r2]
  60              		.loc 1 69 0
  61 001a 9A6C     		ldr	r2, [r3, #72]
  62 001c 1032     		adds	r2, r2, #16
  63 001e 9A64     		str	r2, [r3, #72]
  64 0020 03F64C03 		addw	r3, r3, #2124
  65 0024 9A42     		cmp	r2, r3
  66 0026 04D3     		bcc	.L1
  67              		.loc 1 71 0
  68 0028 A3F64C03 		subw	r3, r3, #2124
  69 002c 03F14C02 		add	r2, r3, #76
  70 0030 9A64     		str	r2, [r3, #72]
  71              	.L1:
  72              		.loc 1 73 0
  73 0032 7047     		bx	lr
  74              	.L4:
  75              		.align	2
  76              	.L3:
  77 0034 00000000 		.word	ch
  78 0038 001000E0 		.word	-536866816
  79              		.cfi_endproc
  80              	.LFE295:
  81              		.size	trace_next, .-trace_next
  82              		.align	1
  83 003c AFF30080 		.p2align 4,,15
  84              		.global	_trace_init
  85              		.syntax unified
  86              		.thumb
  87              		.thumb_func
  88              		.fpu softvfp
  89              		.type	_trace_init, %function
  90              	_trace_init:
  91              	.LFB296:
  92              		.loc 1 85 0
  93              		.cfi_startproc
  94              		@ args = 0, pretend = 0, frame = 0
  95              		@ frame_needed = 0, uses_anonymous_args = 0
  96              		@ link register save eliminated.
  97              		.loc 1 88 0
  98 0040 0D4B     		ldr	r3, .L8
  99 0042 4FF6F072 		movw	r2, #65520
 100 0046 A3F84420 		strh	r2, [r3, #68]	@ movhi
 101              		.loc 1 89 0
 102 004a 8022     		movs	r2, #128
 103 004c A3F84620 		strh	r2, [r3, #70]	@ movhi
 104              		.loc 1 90 0
 105 0050 03F14C02 		add	r2, r3, #76
 106 0054 9A64     		str	r2, [r3, #72]
 107              	.LVL0:
 108              		.loc 1 91 0
 109 0056 0023     		movs	r3, #0
 110 0058 0AE0     		b	.L6
 111              	.LVL1:
 112              	.L7:
 113              		.loc 1 92 0 discriminator 3
 114 005a 5A1C     		adds	r2, r3, #1
ARM GAS  C:\Users\RAKIBU~1\AppData\Local\Temp\cclagJ2i.s 			page 3


 115 005c 064B     		ldr	r3, .L8
 116              	.LVL2:
 117 005e 03EB0213 		add	r3, r3, r2, lsl #4
 118 0062 93F83C10 		ldrb	r1, [r3, #60]	@ zero_extendqisi2
 119 0066 6FF30201 		bfc	r1, #0, #3
 120 006a 83F83C10 		strb	r1, [r3, #60]
 121              		.loc 1 91 0 discriminator 3
 122 006e 1346     		mov	r3, r2
 123              	.LVL3:
 124              	.L6:
 125              		.loc 1 91 0 is_stmt 0 discriminator 1
 126 0070 7F2B     		cmp	r3, #127
 127 0072 F2D9     		bls	.L7
 128              		.loc 1 94 0 is_stmt 1
 129 0074 7047     		bx	lr
 130              	.L9:
 131 0076 00BF     		.align	2
 132              	.L8:
 133 0078 00000000 		.word	ch
 134              		.cfi_endproc
 135              	.LFE296:
 136              		.size	_trace_init, .-_trace_init
 137              		.align	1
 138 007c AFF30080 		.p2align 4,,15
 139              		.global	_trace_switch
 140              		.syntax unified
 141              		.thumb
 142              		.thumb_func
 143              		.fpu softvfp
 144              		.type	_trace_switch, %function
 145              	_trace_switch:
 146              	.LFB297:
 147              		.loc 1 104 0
 148              		.cfi_startproc
 149              		@ args = 0, pretend = 0, frame = 0
 150              		@ frame_needed = 0, uses_anonymous_args = 0
 151              	.LVL4:
 152              		.loc 1 108 0
 153 0080 0F4B     		ldr	r3, .L17
 154 0082 B3F84430 		ldrh	r3, [r3, #68]
 155 0086 13F0010F 		tst	r3, #1
 156 008a 00D0     		beq	.L16
 157 008c 7047     		bx	lr
 158              	.L16:
 159              		.loc 1 104 0
 160 008e 10B5     		push	{r4, lr}
 161              		.cfi_def_cfa_offset 8
 162              		.cfi_offset 4, -8
 163              		.cfi_offset 14, -4
 164              		.loc 1 109 0
 165 0090 0B4B     		ldr	r3, .L17
 166 0092 9A6C     		ldr	r2, [r3, #72]
 167 0094 1078     		ldrb	r0, [r2]	@ zero_extendqisi2
 168              	.LVL5:
 169 0096 0124     		movs	r4, #1
 170 0098 64F30200 		bfi	r0, r4, #0, #3
 171 009c 1070     		strb	r0, [r2]
ARM GAS  C:\Users\RAKIBU~1\AppData\Local\Temp\cclagJ2i.s 			page 4


 172              		.loc 1 110 0
 173 009e 91F82040 		ldrb	r4, [r1, #32]	@ zero_extendqisi2
 174 00a2 9A6C     		ldr	r2, [r3, #72]
 175 00a4 1078     		ldrb	r0, [r2]	@ zero_extendqisi2
 176 00a6 64F3C700 		bfi	r0, r4, #3, #5
 177 00aa 1070     		strb	r0, [r2]
 178              		.loc 1 111 0
 179 00ac 9A6C     		ldr	r2, [r3, #72]
 180 00ae 9869     		ldr	r0, [r3, #24]
 181 00b0 9060     		str	r0, [r2, #8]
 182              		.loc 1 112 0
 183 00b2 9B6C     		ldr	r3, [r3, #72]
 184 00b4 4A6A     		ldr	r2, [r1, #36]
 185 00b6 DA60     		str	r2, [r3, #12]
 186              		.loc 1 113 0
 187 00b8 FFF7A2FF 		bl	trace_next
 188              	.LVL6:
 189              		.loc 1 115 0
 190 00bc 10BD     		pop	{r4, pc}
 191              	.L18:
 192 00be 00BF     		.align	2
 193              	.L17:
 194 00c0 00000000 		.word	ch
 195              		.cfi_endproc
 196              	.LFE297:
 197              		.size	_trace_switch, .-_trace_switch
 198              		.align	1
 199 00c4 AFF30080 		.p2align 4,,15
 199      AFF30080 
 199      AFF30080 
 200              		.global	_trace_isr_enter
 201              		.syntax unified
 202              		.thumb
 203              		.thumb_func
 204              		.fpu softvfp
 205              		.type	_trace_isr_enter, %function
 206              	_trace_isr_enter:
 207              	.LFB298:
 208              		.loc 1 124 0
 209              		.cfi_startproc
 210              		@ args = 0, pretend = 0, frame = 0
 211              		@ frame_needed = 0, uses_anonymous_args = 0
 212              	.LVL7:
 213              		.loc 1 126 0
 214 00d0 0F4B     		ldr	r3, .L26
 215 00d2 B3F84430 		ldrh	r3, [r3, #68]
 216 00d6 13F0020F 		tst	r3, #2
 217 00da 00D0     		beq	.L25
 218 00dc 7047     		bx	lr
 219              	.L25:
 220              		.loc 1 124 0
 221 00de 10B5     		push	{r4, lr}
 222              		.cfi_def_cfa_offset 8
 223              		.cfi_offset 4, -8
 224              		.cfi_offset 14, -4
 225              	.LVL8:
 226              	.LBB76:
ARM GAS  C:\Users\RAKIBU~1\AppData\Local\Temp\cclagJ2i.s 			page 5


 227              	.LBB77:
 228              	.LBB78:
 229              	.LBB79:
 230              		.file 4 "../../../ChibiOSRepo/chibios191/os/common/ext/ARM/CMSIS/Core/Include/cmsis_gcc.h"
 231              		.loc 4 493 0
 232 00e0 2023     		movs	r3, #32
 233              		.syntax unified
 234              	@ 493 "../../../ChibiOSRepo/chibios191/os/common/ext/ARM/CMSIS/Core/Include/cmsis_gcc.h" 1
 235 00e2 83F31188 		MSR basepri, r3
 236              	@ 0 "" 2
 237              	.LVL9:
 238              		.thumb
 239              		.syntax unified
 240              	.LBE79:
 241              	.LBE78:
 242              	.LBE77:
 243              	.LBE76:
 244              		.loc 1 128 0
 245 00e6 0A4B     		ldr	r3, .L26
 246 00e8 9A6C     		ldr	r2, [r3, #72]
 247 00ea 1178     		ldrb	r1, [r2]	@ zero_extendqisi2
 248 00ec 0224     		movs	r4, #2
 249 00ee 64F30201 		bfi	r1, r4, #0, #3
 250 00f2 1170     		strb	r1, [r2]
 251              		.loc 1 129 0
 252 00f4 9A6C     		ldr	r2, [r3, #72]
 253 00f6 1178     		ldrb	r1, [r2]	@ zero_extendqisi2
 254 00f8 6FF3C701 		bfc	r1, #3, #5
 255 00fc 1170     		strb	r1, [r2]
 256              		.loc 1 130 0
 257 00fe 9B6C     		ldr	r3, [r3, #72]
 258 0100 9860     		str	r0, [r3, #8]
 259              		.loc 1 131 0
 260 0102 FFF77DFF 		bl	trace_next
 261              	.LVL10:
 262              	.LBB80:
 263              	.LBB81:
 264              	.LBB82:
 265              	.LBB83:
 266              		.loc 4 493 0
 267 0106 0023     		movs	r3, #0
 268              		.syntax unified
 269              	@ 493 "../../../ChibiOSRepo/chibios191/os/common/ext/ARM/CMSIS/Core/Include/cmsis_gcc.h" 1
 270 0108 83F31188 		MSR basepri, r3
 271              	@ 0 "" 2
 272              	.LVL11:
 273              		.thumb
 274              		.syntax unified
 275              	.LBE83:
 276              	.LBE82:
 277              	.LBE81:
 278              	.LBE80:
 279              		.loc 1 134 0
 280 010c 10BD     		pop	{r4, pc}
 281              	.L27:
 282 010e 00BF     		.align	2
 283              	.L26:
ARM GAS  C:\Users\RAKIBU~1\AppData\Local\Temp\cclagJ2i.s 			page 6


 284 0110 00000000 		.word	ch
 285              		.cfi_endproc
 286              	.LFE298:
 287              		.size	_trace_isr_enter, .-_trace_isr_enter
 288              		.align	1
 289 0114 AFF30080 		.p2align 4,,15
 289      AFF30080 
 289      AFF30080 
 290              		.global	_trace_isr_leave
 291              		.syntax unified
 292              		.thumb
 293              		.thumb_func
 294              		.fpu softvfp
 295              		.type	_trace_isr_leave, %function
 296              	_trace_isr_leave:
 297              	.LFB299:
 298              		.loc 1 143 0
 299              		.cfi_startproc
 300              		@ args = 0, pretend = 0, frame = 0
 301              		@ frame_needed = 0, uses_anonymous_args = 0
 302              	.LVL12:
 303              		.loc 1 145 0
 304 0120 0F4B     		ldr	r3, .L35
 305 0122 B3F84430 		ldrh	r3, [r3, #68]
 306 0126 13F0020F 		tst	r3, #2
 307 012a 00D0     		beq	.L34
 308 012c 7047     		bx	lr
 309              	.L34:
 310              		.loc 1 143 0
 311 012e 10B5     		push	{r4, lr}
 312              		.cfi_def_cfa_offset 8
 313              		.cfi_offset 4, -8
 314              		.cfi_offset 14, -4
 315              	.LVL13:
 316              	.LBB84:
 317              	.LBB85:
 318              	.LBB86:
 319              	.LBB87:
 320              		.loc 4 493 0
 321 0130 2023     		movs	r3, #32
 322              		.syntax unified
 323              	@ 493 "../../../ChibiOSRepo/chibios191/os/common/ext/ARM/CMSIS/Core/Include/cmsis_gcc.h" 1
 324 0132 83F31188 		MSR basepri, r3
 325              	@ 0 "" 2
 326              	.LVL14:
 327              		.thumb
 328              		.syntax unified
 329              	.LBE87:
 330              	.LBE86:
 331              	.LBE85:
 332              	.LBE84:
 333              		.loc 1 147 0
 334 0136 0A4B     		ldr	r3, .L35
 335 0138 9A6C     		ldr	r2, [r3, #72]
 336 013a 1178     		ldrb	r1, [r2]	@ zero_extendqisi2
 337 013c 0324     		movs	r4, #3
 338 013e 64F30201 		bfi	r1, r4, #0, #3
ARM GAS  C:\Users\RAKIBU~1\AppData\Local\Temp\cclagJ2i.s 			page 7


 339 0142 1170     		strb	r1, [r2]
 340              		.loc 1 148 0
 341 0144 9A6C     		ldr	r2, [r3, #72]
 342 0146 1178     		ldrb	r1, [r2]	@ zero_extendqisi2
 343 0148 6FF3C701 		bfc	r1, #3, #5
 344 014c 1170     		strb	r1, [r2]
 345              		.loc 1 149 0
 346 014e 9B6C     		ldr	r3, [r3, #72]
 347 0150 9860     		str	r0, [r3, #8]
 348              		.loc 1 150 0
 349 0152 FFF755FF 		bl	trace_next
 350              	.LVL15:
 351              	.LBB88:
 352              	.LBB89:
 353              	.LBB90:
 354              	.LBB91:
 355              		.loc 4 493 0
 356 0156 0023     		movs	r3, #0
 357              		.syntax unified
 358              	@ 493 "../../../ChibiOSRepo/chibios191/os/common/ext/ARM/CMSIS/Core/Include/cmsis_gcc.h" 1
 359 0158 83F31188 		MSR basepri, r3
 360              	@ 0 "" 2
 361              	.LVL16:
 362              		.thumb
 363              		.syntax unified
 364              	.LBE91:
 365              	.LBE90:
 366              	.LBE89:
 367              	.LBE88:
 368              		.loc 1 153 0
 369 015c 10BD     		pop	{r4, pc}
 370              	.L36:
 371 015e 00BF     		.align	2
 372              	.L35:
 373 0160 00000000 		.word	ch
 374              		.cfi_endproc
 375              	.LFE299:
 376              		.size	_trace_isr_leave, .-_trace_isr_leave
 377              		.align	1
 378 0164 AFF30080 		.p2align 4,,15
 378      AFF30080 
 378      AFF30080 
 379              		.global	_trace_halt
 380              		.syntax unified
 381              		.thumb
 382              		.thumb_func
 383              		.fpu softvfp
 384              		.type	_trace_halt, %function
 385              	_trace_halt:
 386              	.LFB300:
 387              		.loc 1 162 0
 388              		.cfi_startproc
 389              		@ args = 0, pretend = 0, frame = 0
 390              		@ frame_needed = 0, uses_anonymous_args = 0
 391              	.LVL17:
 392              		.loc 1 164 0
 393 0170 0C4B     		ldr	r3, .L44
ARM GAS  C:\Users\RAKIBU~1\AppData\Local\Temp\cclagJ2i.s 			page 8


 394 0172 B3F84430 		ldrh	r3, [r3, #68]
 395 0176 13F0040F 		tst	r3, #4
 396 017a 00D0     		beq	.L43
 397 017c 7047     		bx	lr
 398              	.L43:
 399              		.loc 1 162 0
 400 017e 10B5     		push	{r4, lr}
 401              		.cfi_def_cfa_offset 8
 402              		.cfi_offset 4, -8
 403              		.cfi_offset 14, -4
 404              		.loc 1 165 0
 405 0180 084B     		ldr	r3, .L44
 406 0182 9A6C     		ldr	r2, [r3, #72]
 407 0184 1178     		ldrb	r1, [r2]	@ zero_extendqisi2
 408 0186 0424     		movs	r4, #4
 409 0188 64F30201 		bfi	r1, r4, #0, #3
 410 018c 1170     		strb	r1, [r2]
 411              		.loc 1 166 0
 412 018e 9A6C     		ldr	r2, [r3, #72]
 413 0190 1178     		ldrb	r1, [r2]	@ zero_extendqisi2
 414 0192 6FF3C701 		bfc	r1, #3, #5
 415 0196 1170     		strb	r1, [r2]
 416              		.loc 1 167 0
 417 0198 9B6C     		ldr	r3, [r3, #72]
 418 019a 9860     		str	r0, [r3, #8]
 419              		.loc 1 168 0
 420 019c FFF730FF 		bl	trace_next
 421              	.LVL18:
 422              		.loc 1 170 0
 423 01a0 10BD     		pop	{r4, pc}
 424              	.L45:
 425 01a2 00BF     		.align	2
 426              	.L44:
 427 01a4 00000000 		.word	ch
 428              		.cfi_endproc
 429              	.LFE300:
 430              		.size	_trace_halt, .-_trace_halt
 431              		.align	1
 432 01a8 AFF30080 		.p2align 4,,15
 432      AFF30080 
 433              		.global	chDbgWriteTraceI
 434              		.syntax unified
 435              		.thumb
 436              		.thumb_func
 437              		.fpu softvfp
 438              		.type	chDbgWriteTraceI, %function
 439              	chDbgWriteTraceI:
 440              	.LFB301:
 441              		.loc 1 180 0
 442              		.cfi_startproc
 443              		@ args = 0, pretend = 0, frame = 0
 444              		@ frame_needed = 0, uses_anonymous_args = 0
 445              	.LVL19:
 446 01b0 38B5     		push	{r3, r4, r5, lr}
 447              		.cfi_def_cfa_offset 16
 448              		.cfi_offset 3, -16
 449              		.cfi_offset 4, -12
ARM GAS  C:\Users\RAKIBU~1\AppData\Local\Temp\cclagJ2i.s 			page 9


 450              		.cfi_offset 5, -8
 451              		.cfi_offset 14, -4
 452 01b2 0546     		mov	r5, r0
 453 01b4 0C46     		mov	r4, r1
 454              		.loc 1 182 0
 455 01b6 FFF7FEFF 		bl	chDbgCheckClassI
 456              	.LVL20:
 457              		.loc 1 184 0
 458 01ba 0D4B     		ldr	r3, .L50
 459 01bc B3F84430 		ldrh	r3, [r3, #68]
 460 01c0 13F0080F 		tst	r3, #8
 461 01c4 00D0     		beq	.L49
 462              	.L46:
 463              		.loc 1 191 0
 464 01c6 38BD     		pop	{r3, r4, r5, pc}
 465              	.LVL21:
 466              	.L49:
 467              		.loc 1 185 0
 468 01c8 094B     		ldr	r3, .L50
 469 01ca 9A6C     		ldr	r2, [r3, #72]
 470 01cc 1178     		ldrb	r1, [r2]	@ zero_extendqisi2
 471 01ce 0520     		movs	r0, #5
 472 01d0 60F30201 		bfi	r1, r0, #0, #3
 473 01d4 1170     		strb	r1, [r2]
 474              		.loc 1 186 0
 475 01d6 9A6C     		ldr	r2, [r3, #72]
 476 01d8 1178     		ldrb	r1, [r2]	@ zero_extendqisi2
 477 01da 6FF3C701 		bfc	r1, #3, #5
 478 01de 1170     		strb	r1, [r2]
 479              		.loc 1 187 0
 480 01e0 9A6C     		ldr	r2, [r3, #72]
 481 01e2 9560     		str	r5, [r2, #8]
 482              		.loc 1 188 0
 483 01e4 9B6C     		ldr	r3, [r3, #72]
 484 01e6 DC60     		str	r4, [r3, #12]
 485              		.loc 1 189 0
 486 01e8 FFF70AFF 		bl	trace_next
 487              	.LVL22:
 488              		.loc 1 191 0
 489 01ec EBE7     		b	.L46
 490              	.L51:
 491 01ee 00BF     		.align	2
 492              	.L50:
 493 01f0 00000000 		.word	ch
 494              		.cfi_endproc
 495              	.LFE301:
 496              		.size	chDbgWriteTraceI, .-chDbgWriteTraceI
 497              		.align	1
 498 01f4 AFF30080 		.p2align 4,,15
 498      AFF30080 
 498      AFF30080 
 499              		.global	chDbgWriteTrace
 500              		.syntax unified
 501              		.thumb
 502              		.thumb_func
 503              		.fpu softvfp
 504              		.type	chDbgWriteTrace, %function
ARM GAS  C:\Users\RAKIBU~1\AppData\Local\Temp\cclagJ2i.s 			page 10


 505              	chDbgWriteTrace:
 506              	.LFB302:
 507              		.loc 1 201 0
 508              		.cfi_startproc
 509              		@ args = 0, pretend = 0, frame = 0
 510              		@ frame_needed = 0, uses_anonymous_args = 0
 511              	.LVL23:
 512 0200 38B5     		push	{r3, r4, r5, lr}
 513              		.cfi_def_cfa_offset 16
 514              		.cfi_offset 3, -16
 515              		.cfi_offset 4, -12
 516              		.cfi_offset 5, -8
 517              		.cfi_offset 14, -4
 518 0202 0446     		mov	r4, r0
 519 0204 0D46     		mov	r5, r1
 520              	.LVL24:
 521              	.LBB102:
 522              	.LBB103:
 523              	.LBB104:
 524              	.LBB105:
 525              	.LBB106:
 526              		.loc 4 493 0
 527 0206 2023     		movs	r3, #32
 528              		.syntax unified
 529              	@ 493 "../../../ChibiOSRepo/chibios191/os/common/ext/ARM/CMSIS/Core/Include/cmsis_gcc.h" 1
 530 0208 83F31188 		MSR basepri, r3
 531              	@ 0 "" 2
 532              	.LVL25:
 533              		.thumb
 534              		.syntax unified
 535              	.LBE106:
 536              	.LBE105:
 537              	.LBE104:
 538              		.file 5 "../../../ChibiOSRepo/chibios191/os/rt/include/chsys.h"
 539              		.loc 5 356 0
 540 020c FFF7FEFF 		bl	_stats_start_measure_crit_thd
 541              	.LVL26:
 542              		.loc 5 357 0
 543 0210 FFF7FEFF 		bl	_dbg_check_lock
 544              	.LVL27:
 545              	.LBE103:
 546              	.LBE102:
 547              		.loc 1 204 0
 548 0214 2946     		mov	r1, r5
 549 0216 2046     		mov	r0, r4
 550 0218 FFF7FEFF 		bl	chDbgWriteTraceI
 551              	.LVL28:
 552              	.LBB107:
 553              	.LBB108:
 554              		.loc 5 367 0
 555 021c FFF7FEFF 		bl	_dbg_check_unlock
 556              	.LVL29:
 557              		.loc 5 368 0
 558 0220 FFF7FEFF 		bl	_stats_stop_measure_crit_thd
 559              	.LVL30:
 560              		.loc 5 374 0
 561 0224 084B     		ldr	r3, .L56
ARM GAS  C:\Users\RAKIBU~1\AppData\Local\Temp\cclagJ2i.s 			page 11


 562 0226 1A68     		ldr	r2, [r3]
 563 0228 9A42     		cmp	r2, r3
 564 022a 04D0     		beq	.L53
 565 022c 9B69     		ldr	r3, [r3, #24]
 566 022e 9968     		ldr	r1, [r3, #8]
 567 0230 9368     		ldr	r3, [r2, #8]
 568 0232 9942     		cmp	r1, r3
 569 0234 03D3     		bcc	.L55
 570              	.L53:
 571              	.LVL31:
 572              	.LBB109:
 573              	.LBB110:
 574              	.LBB111:
 575              		.loc 4 493 0
 576 0236 0023     		movs	r3, #0
 577              		.syntax unified
 578              	@ 493 "../../../ChibiOSRepo/chibios191/os/common/ext/ARM/CMSIS/Core/Include/cmsis_gcc.h" 1
 579 0238 83F31188 		MSR basepri, r3
 580              	@ 0 "" 2
 581              	.LVL32:
 582              		.thumb
 583              		.syntax unified
 584              	.LBE111:
 585              	.LBE110:
 586              	.LBE109:
 587              	.LBE108:
 588              	.LBE107:
 589              		.loc 1 206 0
 590 023c 38BD     		pop	{r3, r4, r5, pc}
 591              	.LVL33:
 592              	.L55:
 593              	.LBB113:
 594              	.LBB112:
 595              		.loc 5 374 0
 596 023e 0348     		ldr	r0, .L56+4
 597 0240 FFF7FEFF 		bl	chSysHalt
 598              	.LVL34:
 599 0244 F7E7     		b	.L53
 600              	.L57:
 601 0246 00BF     		.align	2
 602              	.L56:
 603 0248 00000000 		.word	ch
 604 024c 00000000 		.word	.LANCHOR0
 605              	.LBE112:
 606              	.LBE113:
 607              		.cfi_endproc
 608              	.LFE302:
 609              		.size	chDbgWriteTrace, .-chDbgWriteTrace
 610              		.align	1
 611              		.p2align 4,,15
 612              		.global	chDbgSuspendTraceI
 613              		.syntax unified
 614              		.thumb
 615              		.thumb_func
 616              		.fpu softvfp
 617              		.type	chDbgSuspendTraceI, %function
 618              	chDbgSuspendTraceI:
ARM GAS  C:\Users\RAKIBU~1\AppData\Local\Temp\cclagJ2i.s 			page 12


 619              	.LFB303:
 620              		.loc 1 215 0
 621              		.cfi_startproc
 622              		@ args = 0, pretend = 0, frame = 0
 623              		@ frame_needed = 0, uses_anonymous_args = 0
 624              	.LVL35:
 625 0250 10B5     		push	{r4, lr}
 626              		.cfi_def_cfa_offset 8
 627              		.cfi_offset 4, -8
 628              		.cfi_offset 14, -4
 629 0252 0446     		mov	r4, r0
 630              		.loc 1 217 0
 631 0254 FFF7FEFF 		bl	chDbgCheckClassI
 632              	.LVL36:
 633              		.loc 1 219 0
 634 0258 034B     		ldr	r3, .L60
 635 025a B3F84420 		ldrh	r2, [r3, #68]
 636 025e 1443     		orrs	r4, r4, r2
 637 0260 A3F84440 		strh	r4, [r3, #68]	@ movhi
 638              		.loc 1 220 0
 639 0264 10BD     		pop	{r4, pc}
 640              	.L61:
 641 0266 00BF     		.align	2
 642              	.L60:
 643 0268 00000000 		.word	ch
 644              		.cfi_endproc
 645              	.LFE303:
 646              		.size	chDbgSuspendTraceI, .-chDbgSuspendTraceI
 647              		.align	1
 648 026c AFF30080 		.p2align 4,,15
 649              		.global	chDbgSuspendTrace
 650              		.syntax unified
 651              		.thumb
 652              		.thumb_func
 653              		.fpu softvfp
 654              		.type	chDbgSuspendTrace, %function
 655              	chDbgSuspendTrace:
 656              	.LFB304:
 657              		.loc 1 229 0
 658              		.cfi_startproc
 659              		@ args = 0, pretend = 0, frame = 0
 660              		@ frame_needed = 0, uses_anonymous_args = 0
 661              	.LVL37:
 662 0270 10B5     		push	{r4, lr}
 663              		.cfi_def_cfa_offset 8
 664              		.cfi_offset 4, -8
 665              		.cfi_offset 14, -4
 666 0272 0446     		mov	r4, r0
 667              	.LVL38:
 668              	.LBB124:
 669              	.LBB125:
 670              	.LBB126:
 671              	.LBB127:
 672              	.LBB128:
 673              		.loc 4 493 0
 674 0274 2023     		movs	r3, #32
 675              		.syntax unified
ARM GAS  C:\Users\RAKIBU~1\AppData\Local\Temp\cclagJ2i.s 			page 13


 676              	@ 493 "../../../ChibiOSRepo/chibios191/os/common/ext/ARM/CMSIS/Core/Include/cmsis_gcc.h" 1
 677 0276 83F31188 		MSR basepri, r3
 678              	@ 0 "" 2
 679              	.LVL39:
 680              		.thumb
 681              		.syntax unified
 682              	.LBE128:
 683              	.LBE127:
 684              	.LBE126:
 685              		.loc 5 356 0
 686 027a FFF7FEFF 		bl	_stats_start_measure_crit_thd
 687              	.LVL40:
 688              		.loc 5 357 0
 689 027e FFF7FEFF 		bl	_dbg_check_lock
 690              	.LVL41:
 691              	.LBE125:
 692              	.LBE124:
 693              		.loc 1 232 0
 694 0282 2046     		mov	r0, r4
 695 0284 FFF7FEFF 		bl	chDbgSuspendTraceI
 696              	.LVL42:
 697              	.LBB129:
 698              	.LBB130:
 699              		.loc 5 367 0
 700 0288 FFF7FEFF 		bl	_dbg_check_unlock
 701              	.LVL43:
 702              		.loc 5 368 0
 703 028c FFF7FEFF 		bl	_stats_stop_measure_crit_thd
 704              	.LVL44:
 705              		.loc 5 374 0
 706 0290 084B     		ldr	r3, .L66
 707 0292 1A68     		ldr	r2, [r3]
 708 0294 9A42     		cmp	r2, r3
 709 0296 04D0     		beq	.L63
 710 0298 9B69     		ldr	r3, [r3, #24]
 711 029a 9968     		ldr	r1, [r3, #8]
 712 029c 9368     		ldr	r3, [r2, #8]
 713 029e 9942     		cmp	r1, r3
 714 02a0 03D3     		bcc	.L65
 715              	.L63:
 716              	.LVL45:
 717              	.LBB131:
 718              	.LBB132:
 719              	.LBB133:
 720              		.loc 4 493 0
 721 02a2 0023     		movs	r3, #0
 722              		.syntax unified
 723              	@ 493 "../../../ChibiOSRepo/chibios191/os/common/ext/ARM/CMSIS/Core/Include/cmsis_gcc.h" 1
 724 02a4 83F31188 		MSR basepri, r3
 725              	@ 0 "" 2
 726              	.LVL46:
 727              		.thumb
 728              		.syntax unified
 729              	.LBE133:
 730              	.LBE132:
 731              	.LBE131:
 732              	.LBE130:
ARM GAS  C:\Users\RAKIBU~1\AppData\Local\Temp\cclagJ2i.s 			page 14


 733              	.LBE129:
 734              		.loc 1 234 0
 735 02a8 10BD     		pop	{r4, pc}
 736              	.L65:
 737              	.LBB135:
 738              	.LBB134:
 739              		.loc 5 374 0
 740 02aa 0348     		ldr	r0, .L66+4
 741 02ac FFF7FEFF 		bl	chSysHalt
 742              	.LVL47:
 743 02b0 F7E7     		b	.L63
 744              	.L67:
 745 02b2 00BF     		.align	2
 746              	.L66:
 747 02b4 00000000 		.word	ch
 748 02b8 00000000 		.word	.LANCHOR0
 749              	.LBE134:
 750              	.LBE135:
 751              		.cfi_endproc
 752              	.LFE304:
 753              		.size	chDbgSuspendTrace, .-chDbgSuspendTrace
 754              		.align	1
 755 02bc AFF30080 		.p2align 4,,15
 756              		.global	chDbgResumeTraceI
 757              		.syntax unified
 758              		.thumb
 759              		.thumb_func
 760              		.fpu softvfp
 761              		.type	chDbgResumeTraceI, %function
 762              	chDbgResumeTraceI:
 763              	.LFB305:
 764              		.loc 1 243 0
 765              		.cfi_startproc
 766              		@ args = 0, pretend = 0, frame = 0
 767              		@ frame_needed = 0, uses_anonymous_args = 0
 768              	.LVL48:
 769 02c0 10B5     		push	{r4, lr}
 770              		.cfi_def_cfa_offset 8
 771              		.cfi_offset 4, -8
 772              		.cfi_offset 14, -4
 773 02c2 0446     		mov	r4, r0
 774              		.loc 1 245 0
 775 02c4 FFF7FEFF 		bl	chDbgCheckClassI
 776              	.LVL49:
 777              		.loc 1 247 0
 778 02c8 034B     		ldr	r3, .L70
 779 02ca B3F84400 		ldrh	r0, [r3, #68]
 780 02ce 20EA0400 		bic	r0, r0, r4
 781 02d2 A3F84400 		strh	r0, [r3, #68]	@ movhi
 782              		.loc 1 248 0
 783 02d6 10BD     		pop	{r4, pc}
 784              	.L71:
 785              		.align	2
 786              	.L70:
 787 02d8 00000000 		.word	ch
 788              		.cfi_endproc
 789              	.LFE305:
ARM GAS  C:\Users\RAKIBU~1\AppData\Local\Temp\cclagJ2i.s 			page 15


 790              		.size	chDbgResumeTraceI, .-chDbgResumeTraceI
 791              		.align	1
 792 02dc AFF30080 		.p2align 4,,15
 793              		.global	chDbgResumeTrace
 794              		.syntax unified
 795              		.thumb
 796              		.thumb_func
 797              		.fpu softvfp
 798              		.type	chDbgResumeTrace, %function
 799              	chDbgResumeTrace:
 800              	.LFB306:
 801              		.loc 1 257 0
 802              		.cfi_startproc
 803              		@ args = 0, pretend = 0, frame = 0
 804              		@ frame_needed = 0, uses_anonymous_args = 0
 805              	.LVL50:
 806 02e0 10B5     		push	{r4, lr}
 807              		.cfi_def_cfa_offset 8
 808              		.cfi_offset 4, -8
 809              		.cfi_offset 14, -4
 810 02e2 0446     		mov	r4, r0
 811              	.LVL51:
 812              	.LBB146:
 813              	.LBB147:
 814              	.LBB148:
 815              	.LBB149:
 816              	.LBB150:
 817              		.loc 4 493 0
 818 02e4 2023     		movs	r3, #32
 819              		.syntax unified
 820              	@ 493 "../../../ChibiOSRepo/chibios191/os/common/ext/ARM/CMSIS/Core/Include/cmsis_gcc.h" 1
 821 02e6 83F31188 		MSR basepri, r3
 822              	@ 0 "" 2
 823              	.LVL52:
 824              		.thumb
 825              		.syntax unified
 826              	.LBE150:
 827              	.LBE149:
 828              	.LBE148:
 829              		.loc 5 356 0
 830 02ea FFF7FEFF 		bl	_stats_start_measure_crit_thd
 831              	.LVL53:
 832              		.loc 5 357 0
 833 02ee FFF7FEFF 		bl	_dbg_check_lock
 834              	.LVL54:
 835              	.LBE147:
 836              	.LBE146:
 837              		.loc 1 260 0
 838 02f2 2046     		mov	r0, r4
 839 02f4 FFF7FEFF 		bl	chDbgResumeTraceI
 840              	.LVL55:
 841              	.LBB151:
 842              	.LBB152:
 843              		.loc 5 367 0
 844 02f8 FFF7FEFF 		bl	_dbg_check_unlock
 845              	.LVL56:
 846              		.loc 5 368 0
ARM GAS  C:\Users\RAKIBU~1\AppData\Local\Temp\cclagJ2i.s 			page 16


 847 02fc FFF7FEFF 		bl	_stats_stop_measure_crit_thd
 848              	.LVL57:
 849              		.loc 5 374 0
 850 0300 084B     		ldr	r3, .L76
 851 0302 1A68     		ldr	r2, [r3]
 852 0304 9A42     		cmp	r2, r3
 853 0306 04D0     		beq	.L73
 854 0308 9B69     		ldr	r3, [r3, #24]
 855 030a 9968     		ldr	r1, [r3, #8]
 856 030c 9368     		ldr	r3, [r2, #8]
 857 030e 9942     		cmp	r1, r3
 858 0310 03D3     		bcc	.L75
 859              	.L73:
 860              	.LVL58:
 861              	.LBB153:
 862              	.LBB154:
 863              	.LBB155:
 864              		.loc 4 493 0
 865 0312 0023     		movs	r3, #0
 866              		.syntax unified
 867              	@ 493 "../../../ChibiOSRepo/chibios191/os/common/ext/ARM/CMSIS/Core/Include/cmsis_gcc.h" 1
 868 0314 83F31188 		MSR basepri, r3
 869              	@ 0 "" 2
 870              	.LVL59:
 871              		.thumb
 872              		.syntax unified
 873              	.LBE155:
 874              	.LBE154:
 875              	.LBE153:
 876              	.LBE152:
 877              	.LBE151:
 878              		.loc 1 262 0
 879 0318 10BD     		pop	{r4, pc}
 880              	.L75:
 881              	.LBB157:
 882              	.LBB156:
 883              		.loc 5 374 0
 884 031a 0348     		ldr	r0, .L76+4
 885 031c FFF7FEFF 		bl	chSysHalt
 886              	.LVL60:
 887 0320 F7E7     		b	.L73
 888              	.L77:
 889 0322 00BF     		.align	2
 890              	.L76:
 891 0324 00000000 		.word	ch
 892 0328 00000000 		.word	.LANCHOR0
 893              	.LBE156:
 894              	.LBE157:
 895              		.cfi_endproc
 896              	.LFE306:
 897              		.size	chDbgResumeTrace, .-chDbgResumeTrace
 898              		.section	.rodata
 899              		.align	2
 900              		.set	.LANCHOR0,. + 0
 901              		.type	__func__.6118, %object
 902              		.size	__func__.6118, 12
 903              	__func__.6118:
ARM GAS  C:\Users\RAKIBU~1\AppData\Local\Temp\cclagJ2i.s 			page 17


 904 0000 63685379 		.ascii	"chSysUnlock\000"
 904      73556E6C 
 904      6F636B00 
 905              		.text
 906              	.Letext0:
 907              		.file 6 "c:\\chibistudio\\tools\\gnu tools arm embedded\\7.0 2017q4\\lib\\gcc\\arm-none-eabi\\7.2.
 908              		.file 7 "c:\\chibistudio\\tools\\gnu tools arm embedded\\7.0 2017q4\\arm-none-eabi\\include\\machi
 909              		.file 8 "c:\\chibistudio\\tools\\gnu tools arm embedded\\7.0 2017q4\\arm-none-eabi\\include\\sys\\
 910              		.file 9 "../../../ChibiOSRepo/chibios191/os/common/ports/ARMCMx/compilers/GCC/chtypes.h"
 911              		.file 10 "../../../ChibiOSRepo/chibios191/os/rt/include/chsystypes.h"
 912              		.file 11 "../../../ChibiOSRepo/chibios191/os/rt/include/chschd.h"
 913              		.file 12 "../../../ChibiOSRepo/chibios191/os/rt/include/chtime.h"
 914              		.file 13 "../../../ChibiOSRepo/chibios191/os/common/ext/ARM/CMSIS/Core/Include/core_cm4.h"
 915              		.file 14 "../../../ChibiOSRepo/chibios191/os/common/ext/ST/STM32F4xx/system_stm32f4xx.h"
 916              		.file 15 "../../../ChibiOSRepo/chibios191/os/common/ports/ARMCMx/chcore.h"
 917              		.file 16 "../../../ChibiOSRepo/chibios191/os/hal/ports/STM32/LLD/TIMv1/stm32_tim.h"
 918              		.file 17 "../../../ChibiOSRepo/chibios191/os/rt/include/chtrace.h"
 919              		.file 18 "../../../ChibiOSRepo/chibios191/os/rt/include/chtm.h"
 920              		.file 19 "../../../ChibiOSRepo/chibios191/os/rt/include/chstats.h"
 921              		.file 20 "../../../ChibiOSRepo/chibios191/os/rt/include/chsem.h"
 922              		.file 21 "../../../ChibiOSRepo/chibios191/os/rt/include/chmtx.h"
 923              		.file 22 "../../../ChibiOSRepo/chibios191/os/rt/include/chregistry.h"
 924              		.file 23 "../../../ChibiOSRepo/chibios191/os/oslib/include/chmemcore.h"
 925              		.file 24 "../../../ChibiOSRepo/chibios191/os/oslib/include/chmempools.h"
 926              		.file 25 "../../../ChibiOSRepo/chibios191/os/oslib/include/chfactory.h"
 927              		.file 26 "../../../ChibiOSRepo/chibios191/os/rt/include/chvt.h"
 928              		.file 27 "../../../ChibiOSRepo/chibios191/os/common/ports/ARMCMx/chcore_timer.h"
 929              		.file 28 "../../../ChibiOSRepo/chibios191/os/rt/include/chdebug.h"
 930              		.file 29 "../../../ChibiOSRepo/chibios191/os/rt/include/ch.h"
 931              		.section	.debug_info,"",%progbits
 932              	.Ldebug_info0:
 933 0000 46150000 		.4byte	0x1546
 934 0004 0400     		.2byte	0x4
 935 0006 00000000 		.4byte	.Ldebug_abbrev0
 936 000a 04       		.byte	0x4
 937 000b 01       		.uleb128 0x1
 938 000c 47040000 		.4byte	.LASF234
 939 0010 0C       		.byte	0xc
 940 0011 82080000 		.4byte	.LASF235
 941 0015 0C010000 		.4byte	.LASF236
 942 0019 00000000 		.4byte	.Ltext0
 943 001d 2C030000 		.4byte	.Letext0-.Ltext0
 944 0021 00000000 		.4byte	.Ldebug_line0
 945 0025 02       		.uleb128 0x2
 946 0026 04       		.byte	0x4
 947 0027 05       		.byte	0x5
 948 0028 696E7400 		.ascii	"int\000"
 949 002c 03       		.uleb128 0x3
 950 002d 08000000 		.4byte	.LASF4
 951 0031 06       		.byte	0x6
 952 0032 D8       		.byte	0xd8
 953 0033 37000000 		.4byte	0x37
 954 0037 04       		.uleb128 0x4
 955 0038 04       		.byte	0x4
 956 0039 07       		.byte	0x7
 957 003a DC060000 		.4byte	.LASF0
 958 003e 04       		.uleb128 0x4
ARM GAS  C:\Users\RAKIBU~1\AppData\Local\Temp\cclagJ2i.s 			page 18


 959 003f 08       		.byte	0x8
 960 0040 05       		.byte	0x5
 961 0041 49060000 		.4byte	.LASF1
 962 0045 04       		.uleb128 0x4
 963 0046 08       		.byte	0x8
 964 0047 04       		.byte	0x4
 965 0048 49070000 		.4byte	.LASF2
 966 004c 04       		.uleb128 0x4
 967 004d 01       		.byte	0x1
 968 004e 06       		.byte	0x6
 969 004f 45020000 		.4byte	.LASF3
 970 0053 03       		.uleb128 0x3
 971 0054 B5010000 		.4byte	.LASF5
 972 0058 07       		.byte	0x7
 973 0059 2B       		.byte	0x2b
 974 005a 5E000000 		.4byte	0x5e
 975 005e 04       		.uleb128 0x4
 976 005f 01       		.byte	0x1
 977 0060 08       		.byte	0x8
 978 0061 A0020000 		.4byte	.LASF6
 979 0065 04       		.uleb128 0x4
 980 0066 02       		.byte	0x2
 981 0067 05       		.byte	0x5
 982 0068 BC090000 		.4byte	.LASF7
 983 006c 03       		.uleb128 0x3
 984 006d 55030000 		.4byte	.LASF8
 985 0071 07       		.byte	0x7
 986 0072 39       		.byte	0x39
 987 0073 77000000 		.4byte	0x77
 988 0077 04       		.uleb128 0x4
 989 0078 02       		.byte	0x2
 990 0079 07       		.byte	0x7
 991 007a 8F0A0000 		.4byte	.LASF9
 992 007e 03       		.uleb128 0x3
 993 007f B70A0000 		.4byte	.LASF10
 994 0083 07       		.byte	0x7
 995 0084 4D       		.byte	0x4d
 996 0085 89000000 		.4byte	0x89
 997 0089 04       		.uleb128 0x4
 998 008a 04       		.byte	0x4
 999 008b 05       		.byte	0x5
 1000 008c BF010000 		.4byte	.LASF11
 1001 0090 03       		.uleb128 0x3
 1002 0091 36060000 		.4byte	.LASF12
 1003 0095 07       		.byte	0x7
 1004 0096 4F       		.byte	0x4f
 1005 0097 9B000000 		.4byte	0x9b
 1006 009b 04       		.uleb128 0x4
 1007 009c 04       		.byte	0x4
 1008 009d 07       		.byte	0x7
 1009 009e 08050000 		.4byte	.LASF13
 1010 00a2 03       		.uleb128 0x3
 1011 00a3 E7040000 		.4byte	.LASF14
 1012 00a7 07       		.byte	0x7
 1013 00a8 69       		.byte	0x69
 1014 00a9 AD000000 		.4byte	0xad
 1015 00ad 04       		.uleb128 0x4
ARM GAS  C:\Users\RAKIBU~1\AppData\Local\Temp\cclagJ2i.s 			page 19


 1016 00ae 08       		.byte	0x8
 1017 00af 07       		.byte	0x7
 1018 00b0 1D080000 		.4byte	.LASF15
 1019 00b4 03       		.uleb128 0x3
 1020 00b5 58020000 		.4byte	.LASF16
 1021 00b9 08       		.byte	0x8
 1022 00ba 18       		.byte	0x18
 1023 00bb 53000000 		.4byte	0x53
 1024 00bf 05       		.uleb128 0x5
 1025 00c0 B4000000 		.4byte	0xb4
 1026 00c4 03       		.uleb128 0x3
 1027 00c5 34080000 		.4byte	.LASF17
 1028 00c9 08       		.byte	0x8
 1029 00ca 24       		.byte	0x24
 1030 00cb 6C000000 		.4byte	0x6c
 1031 00cf 03       		.uleb128 0x3
 1032 00d0 74000000 		.4byte	.LASF18
 1033 00d4 08       		.byte	0x8
 1034 00d5 2C       		.byte	0x2c
 1035 00d6 7E000000 		.4byte	0x7e
 1036 00da 06       		.uleb128 0x6
 1037 00db CF000000 		.4byte	0xcf
 1038 00df 03       		.uleb128 0x3
 1039 00e0 7F0A0000 		.4byte	.LASF19
 1040 00e4 08       		.byte	0x8
 1041 00e5 30       		.byte	0x30
 1042 00e6 90000000 		.4byte	0x90
 1043 00ea 06       		.uleb128 0x6
 1044 00eb DF000000 		.4byte	0xdf
 1045 00ef 05       		.uleb128 0x5
 1046 00f0 EA000000 		.4byte	0xea
 1047 00f4 03       		.uleb128 0x3
 1048 00f5 DE090000 		.4byte	.LASF20
 1049 00f9 08       		.byte	0x8
 1050 00fa 3C       		.byte	0x3c
 1051 00fb A2000000 		.4byte	0xa2
 1052 00ff 03       		.uleb128 0x3
 1053 0100 EE060000 		.4byte	.LASF21
 1054 0104 09       		.byte	0x9
 1055 0105 27       		.byte	0x27
 1056 0106 DF000000 		.4byte	0xdf
 1057 010a 03       		.uleb128 0x3
 1058 010b E2010000 		.4byte	.LASF22
 1059 010f 09       		.byte	0x9
 1060 0110 28       		.byte	0x28
 1061 0111 F4000000 		.4byte	0xf4
 1062 0115 03       		.uleb128 0x3
 1063 0116 6B090000 		.4byte	.LASF23
 1064 011a 09       		.byte	0x9
 1065 011b 2A       		.byte	0x2a
 1066 011c B4000000 		.4byte	0xb4
 1067 0120 03       		.uleb128 0x3
 1068 0121 D9010000 		.4byte	.LASF24
 1069 0125 09       		.byte	0x9
 1070 0126 2B       		.byte	0x2b
 1071 0127 B4000000 		.4byte	0xb4
 1072 012b 03       		.uleb128 0x3
ARM GAS  C:\Users\RAKIBU~1\AppData\Local\Temp\cclagJ2i.s 			page 20


 1073 012c 460A0000 		.4byte	.LASF25
 1074 0130 09       		.byte	0x9
 1075 0131 2C       		.byte	0x2c
 1076 0132 B4000000 		.4byte	0xb4
 1077 0136 03       		.uleb128 0x3
 1078 0137 42000000 		.4byte	.LASF26
 1079 013b 09       		.byte	0x9
 1080 013c 2E       		.byte	0x2e
 1081 013d DF000000 		.4byte	0xdf
 1082 0141 03       		.uleb128 0x3
 1083 0142 46080000 		.4byte	.LASF27
 1084 0146 09       		.byte	0x9
 1085 0147 2F       		.byte	0x2f
 1086 0148 CF000000 		.4byte	0xcf
 1087 014c 03       		.uleb128 0x3
 1088 014d 7A020000 		.4byte	.LASF28
 1089 0151 09       		.byte	0x9
 1090 0152 31       		.byte	0x31
 1091 0153 DF000000 		.4byte	0xdf
 1092 0157 03       		.uleb128 0x3
 1093 0158 E3030000 		.4byte	.LASF29
 1094 015c 09       		.byte	0x9
 1095 015d 33       		.byte	0x33
 1096 015e CF000000 		.4byte	0xcf
 1097 0162 03       		.uleb128 0x3
 1098 0163 F8050000 		.4byte	.LASF30
 1099 0167 09       		.byte	0x9
 1100 0168 34       		.byte	0x34
 1101 0169 DF000000 		.4byte	0xdf
 1102 016d 03       		.uleb128 0x3
 1103 016e 40070000 		.4byte	.LASF31
 1104 0172 0A       		.byte	0xa
 1105 0173 34       		.byte	0x34
 1106 0174 78010000 		.4byte	0x178
 1107 0178 07       		.uleb128 0x7
 1108 0179 66050000 		.4byte	.LASF50
 1109 017d 60       		.byte	0x60
 1110 017e 0B       		.byte	0xb
 1111 017f 8E       		.byte	0x8e
 1112 0180 63020000 		.4byte	0x263
 1113 0184 08       		.uleb128 0x8
 1114 0185 CC080000 		.4byte	.LASF32
 1115 0189 0B       		.byte	0xb
 1116 018a 8F       		.byte	0x8f
 1117 018b 98020000 		.4byte	0x298
 1118 018f 00       		.byte	0
 1119 0190 08       		.uleb128 0x8
 1120 0191 95010000 		.4byte	.LASF33
 1121 0195 0B       		.byte	0xb
 1122 0196 90       		.byte	0x90
 1123 0197 36010000 		.4byte	0x136
 1124 019b 08       		.byte	0x8
 1125 019c 09       		.uleb128 0x9
 1126 019d 63747800 		.ascii	"ctx\000"
 1127 01a1 0B       		.byte	0xb
 1128 01a2 91       		.byte	0x91
 1129 01a3 AA060000 		.4byte	0x6aa
ARM GAS  C:\Users\RAKIBU~1\AppData\Local\Temp\cclagJ2i.s 			page 21


 1130 01a7 0C       		.byte	0xc
 1131 01a8 08       		.uleb128 0x8
 1132 01a9 740A0000 		.4byte	.LASF34
 1133 01ad 0B       		.byte	0xb
 1134 01ae 93       		.byte	0x93
 1135 01af 6E020000 		.4byte	0x26e
 1136 01b3 10       		.byte	0x10
 1137 01b4 08       		.uleb128 0x8
 1138 01b5 D1050000 		.4byte	.LASF35
 1139 01b9 0B       		.byte	0xb
 1140 01ba 94       		.byte	0x94
 1141 01bb 6E020000 		.4byte	0x26e
 1142 01bf 14       		.byte	0x14
 1143 01c0 08       		.uleb128 0x8
 1144 01c1 9F090000 		.4byte	.LASF36
 1145 01c5 0B       		.byte	0xb
 1146 01c6 9B       		.byte	0x9b
 1147 01c7 92080000 		.4byte	0x892
 1148 01cb 18       		.byte	0x18
 1149 01cc 08       		.uleb128 0x8
 1150 01cd 3B090000 		.4byte	.LASF37
 1151 01d1 0B       		.byte	0xb
 1152 01d2 A4       		.byte	0xa4
 1153 01d3 410B0000 		.4byte	0xb41
 1154 01d7 1C       		.byte	0x1c
 1155 01d8 08       		.uleb128 0x8
 1156 01d9 D5000000 		.4byte	.LASF38
 1157 01dd 0B       		.byte	0xb
 1158 01de A9       		.byte	0xa9
 1159 01df 20010000 		.4byte	0x120
 1160 01e3 20       		.byte	0x20
 1161 01e4 08       		.uleb128 0x8
 1162 01e5 8A030000 		.4byte	.LASF39
 1163 01e9 0B       		.byte	0xb
 1164 01ea AD       		.byte	0xad
 1165 01eb 15010000 		.4byte	0x115
 1166 01ef 21       		.byte	0x21
 1167 01f0 08       		.uleb128 0x8
 1168 01f1 C7080000 		.4byte	.LASF40
 1169 01f5 0B       		.byte	0xb
 1170 01f6 B2       		.byte	0xb2
 1171 01f7 2B010000 		.4byte	0x12b
 1172 01fb 22       		.byte	0x22
 1173 01fc 0A       		.uleb128 0xa
 1174 01fd 7500     		.ascii	"u\000"
 1175 01ff 0B       		.byte	0xb
 1176 0200 0301     		.2byte	0x103
 1177 0202 770A0000 		.4byte	0xa77
 1178 0206 24       		.byte	0x24
 1179 0207 0B       		.uleb128 0xb
 1180 0208 2C0A0000 		.4byte	.LASF41
 1181 020c 0B       		.byte	0xb
 1182 020d 0801     		.2byte	0x108
 1183 020f 74020000 		.4byte	0x274
 1184 0213 28       		.byte	0x28
 1185 0214 0B       		.uleb128 0xb
 1186 0215 F5090000 		.4byte	.LASF42
ARM GAS  C:\Users\RAKIBU~1\AppData\Local\Temp\cclagJ2i.s 			page 22


 1187 0219 0B       		.byte	0xb
 1188 021a 0E01     		.2byte	0x10e
 1189 021c 98020000 		.4byte	0x298
 1190 0220 2C       		.byte	0x2c
 1191 0221 0B       		.uleb128 0xb
 1192 0222 D2080000 		.4byte	.LASF43
 1193 0226 0B       		.byte	0xb
 1194 0227 1401     		.2byte	0x114
 1195 0229 4C010000 		.4byte	0x14c
 1196 022d 34       		.byte	0x34
 1197 022e 0B       		.uleb128 0xb
 1198 022f 41060000 		.4byte	.LASF44
 1199 0233 0B       		.byte	0xb
 1200 0234 1B01     		.2byte	0x11b
 1201 0236 3B0B0000 		.4byte	0xb3b
 1202 023a 38       		.byte	0x38
 1203 023b 0B       		.uleb128 0xb
 1204 023c D7050000 		.4byte	.LASF45
 1205 0240 0B       		.byte	0xb
 1206 0241 1F01     		.2byte	0x11f
 1207 0243 36010000 		.4byte	0x136
 1208 0247 3C       		.byte	0x3c
 1209 0248 0B       		.uleb128 0xb
 1210 0249 9B030000 		.4byte	.LASF46
 1211 024d 0B       		.byte	0xb
 1212 024e 2601     		.2byte	0x126
 1213 0250 4B030000 		.4byte	0x34b
 1214 0254 40       		.byte	0x40
 1215 0255 0B       		.uleb128 0xb
 1216 0256 E4000000 		.4byte	.LASF47
 1217 025a 0B       		.byte	0xb
 1218 025b 2C01     		.2byte	0x12c
 1219 025d 280A0000 		.4byte	0xa28
 1220 0261 48       		.byte	0x48
 1221 0262 00       		.byte	0
 1222 0263 03       		.uleb128 0x3
 1223 0264 55070000 		.4byte	.LASF48
 1224 0268 0A       		.byte	0xa
 1225 0269 39       		.byte	0x39
 1226 026a 6E020000 		.4byte	0x26e
 1227 026e 0C       		.uleb128 0xc
 1228 026f 04       		.byte	0x4
 1229 0270 6D010000 		.4byte	0x16d
 1230 0274 03       		.uleb128 0x3
 1231 0275 5B0A0000 		.4byte	.LASF49
 1232 0279 0A       		.byte	0xa
 1233 027a 3E       		.byte	0x3e
 1234 027b 7F020000 		.4byte	0x27f
 1235 027f 07       		.uleb128 0x7
 1236 0280 20060000 		.4byte	.LASF51
 1237 0284 04       		.byte	0x4
 1238 0285 0B       		.byte	0xb
 1239 0286 7C       		.byte	0x7c
 1240 0287 98020000 		.4byte	0x298
 1241 028b 08       		.uleb128 0x8
 1242 028c DE0A0000 		.4byte	.LASF52
 1243 0290 0B       		.byte	0xb
ARM GAS  C:\Users\RAKIBU~1\AppData\Local\Temp\cclagJ2i.s 			page 23


 1244 0291 7D       		.byte	0x7d
 1245 0292 6E020000 		.4byte	0x26e
 1246 0296 00       		.byte	0
 1247 0297 00       		.byte	0
 1248 0298 03       		.uleb128 0x3
 1249 0299 EB010000 		.4byte	.LASF53
 1250 029d 0A       		.byte	0xa
 1251 029e 45       		.byte	0x45
 1252 029f A3020000 		.4byte	0x2a3
 1253 02a3 07       		.uleb128 0x7
 1254 02a4 66080000 		.4byte	.LASF54
 1255 02a8 08       		.byte	0x8
 1256 02a9 0B       		.byte	0xb
 1257 02aa 83       		.byte	0x83
 1258 02ab C8020000 		.4byte	0x2c8
 1259 02af 08       		.uleb128 0x8
 1260 02b0 DE0A0000 		.4byte	.LASF52
 1261 02b4 0B       		.byte	0xb
 1262 02b5 84       		.byte	0x84
 1263 02b6 6E020000 		.4byte	0x26e
 1264 02ba 00       		.byte	0
 1265 02bb 08       		.uleb128 0x8
 1266 02bc E30A0000 		.4byte	.LASF55
 1267 02c0 0B       		.byte	0xb
 1268 02c1 85       		.byte	0x85
 1269 02c2 6E020000 		.4byte	0x26e
 1270 02c6 04       		.byte	0x4
 1271 02c7 00       		.byte	0
 1272 02c8 03       		.uleb128 0x3
 1273 02c9 C4050000 		.4byte	.LASF56
 1274 02cd 0A       		.byte	0xa
 1275 02ce 4C       		.byte	0x4c
 1276 02cf D3020000 		.4byte	0x2d3
 1277 02d3 0D       		.uleb128 0xd
 1278 02d4 21040000 		.4byte	.LASF57
 1279 02d8 1C       		.byte	0x1c
 1280 02d9 0B       		.byte	0xb
 1281 02da 5E01     		.2byte	0x15e
 1282 02dc 2F030000 		.4byte	0x32f
 1283 02e0 0B       		.uleb128 0xb
 1284 02e1 CC080000 		.4byte	.LASF32
 1285 02e5 0B       		.byte	0xb
 1286 02e6 5F01     		.2byte	0x15f
 1287 02e8 98020000 		.4byte	0x298
 1288 02ec 00       		.byte	0
 1289 02ed 0B       		.uleb128 0xb
 1290 02ee 95010000 		.4byte	.LASF33
 1291 02f2 0B       		.byte	0xb
 1292 02f3 6001     		.2byte	0x160
 1293 02f5 36010000 		.4byte	0x136
 1294 02f9 08       		.byte	0x8
 1295 02fa 0A       		.uleb128 0xa
 1296 02fb 63747800 		.ascii	"ctx\000"
 1297 02ff 0B       		.byte	0xb
 1298 0300 6201     		.2byte	0x162
 1299 0302 AA060000 		.4byte	0x6aa
 1300 0306 0C       		.byte	0xc
ARM GAS  C:\Users\RAKIBU~1\AppData\Local\Temp\cclagJ2i.s 			page 24


 1301 0307 0B       		.uleb128 0xb
 1302 0308 740A0000 		.4byte	.LASF34
 1303 030c 0B       		.byte	0xb
 1304 030d 6501     		.2byte	0x165
 1305 030f 6E020000 		.4byte	0x26e
 1306 0313 10       		.byte	0x10
 1307 0314 0B       		.uleb128 0xb
 1308 0315 D1050000 		.4byte	.LASF35
 1309 0319 0B       		.byte	0xb
 1310 031a 6601     		.2byte	0x166
 1311 031c 6E020000 		.4byte	0x26e
 1312 0320 14       		.byte	0x14
 1313 0321 0B       		.uleb128 0xb
 1314 0322 1D070000 		.4byte	.LASF58
 1315 0326 0B       		.byte	0xb
 1316 0327 6901     		.2byte	0x169
 1317 0329 6E020000 		.4byte	0x26e
 1318 032d 18       		.byte	0x18
 1319 032e 00       		.byte	0
 1320 032f 03       		.uleb128 0x3
 1321 0330 7C000000 		.4byte	.LASF59
 1322 0334 0A       		.byte	0xa
 1323 0335 51       		.byte	0x51
 1324 0336 3A030000 		.4byte	0x33a
 1325 033a 0C       		.uleb128 0xc
 1326 033b 04       		.byte	0x4
 1327 033c 40030000 		.4byte	0x340
 1328 0340 0E       		.uleb128 0xe
 1329 0341 4B030000 		.4byte	0x34b
 1330 0345 0F       		.uleb128 0xf
 1331 0346 4B030000 		.4byte	0x34b
 1332 034a 00       		.byte	0
 1333 034b 10       		.uleb128 0x10
 1334 034c 04       		.byte	0x4
 1335 034d 03       		.uleb128 0x3
 1336 034e B4050000 		.4byte	.LASF60
 1337 0352 0A       		.byte	0xa
 1338 0353 56       		.byte	0x56
 1339 0354 58030000 		.4byte	0x358
 1340 0358 0D       		.uleb128 0xd
 1341 0359 D5070000 		.4byte	.LASF61
 1342 035d 18       		.byte	0x18
 1343 035e 0B       		.byte	0xb
 1344 035f 3901     		.2byte	0x139
 1345 0361 A7030000 		.4byte	0x3a7
 1346 0365 0B       		.uleb128 0xb
 1347 0366 DE0A0000 		.4byte	.LASF52
 1348 036a 0B       		.byte	0xb
 1349 036b 3A01     		.2byte	0x13a
 1350 036d 470B0000 		.4byte	0xb47
 1351 0371 00       		.byte	0
 1352 0372 0B       		.uleb128 0xb
 1353 0373 E30A0000 		.4byte	.LASF55
 1354 0377 0B       		.byte	0xb
 1355 0378 3B01     		.2byte	0x13b
 1356 037a 470B0000 		.4byte	0xb47
 1357 037e 04       		.byte	0x4
ARM GAS  C:\Users\RAKIBU~1\AppData\Local\Temp\cclagJ2i.s 			page 25


 1358 037f 0B       		.uleb128 0xb
 1359 0380 7C080000 		.4byte	.LASF62
 1360 0384 0B       		.byte	0xb
 1361 0385 3C01     		.2byte	0x13c
 1362 0387 B7040000 		.4byte	0x4b7
 1363 038b 08       		.byte	0x8
 1364 038c 0B       		.uleb128 0xb
 1365 038d E7090000 		.4byte	.LASF63
 1366 0391 0B       		.byte	0xb
 1367 0392 3D01     		.2byte	0x13d
 1368 0394 2F030000 		.4byte	0x32f
 1369 0398 10       		.byte	0x10
 1370 0399 0A       		.uleb128 0xa
 1371 039a 70617200 		.ascii	"par\000"
 1372 039e 0B       		.byte	0xb
 1373 039f 3F01     		.2byte	0x13f
 1374 03a1 4B030000 		.4byte	0x34b
 1375 03a5 14       		.byte	0x14
 1376 03a6 00       		.byte	0
 1377 03a7 03       		.uleb128 0x3
 1378 03a8 70050000 		.4byte	.LASF64
 1379 03ac 0A       		.byte	0xa
 1380 03ad 5B       		.byte	0x5b
 1381 03ae B2030000 		.4byte	0x3b2
 1382 03b2 0D       		.uleb128 0xd
 1383 03b3 85000000 		.4byte	.LASF65
 1384 03b7 18       		.byte	0x18
 1385 03b8 0B       		.byte	0xb
 1386 03b9 4901     		.2byte	0x149
 1387 03bb F4030000 		.4byte	0x3f4
 1388 03bf 0B       		.uleb128 0xb
 1389 03c0 DE0A0000 		.4byte	.LASF52
 1390 03c4 0B       		.byte	0xb
 1391 03c5 4A01     		.2byte	0x14a
 1392 03c7 470B0000 		.4byte	0xb47
 1393 03cb 00       		.byte	0
 1394 03cc 0B       		.uleb128 0xb
 1395 03cd E30A0000 		.4byte	.LASF55
 1396 03d1 0B       		.byte	0xb
 1397 03d2 4C01     		.2byte	0x14c
 1398 03d4 470B0000 		.4byte	0xb47
 1399 03d8 04       		.byte	0x4
 1400 03d9 0B       		.uleb128 0xb
 1401 03da 7C080000 		.4byte	.LASF62
 1402 03de 0B       		.byte	0xb
 1403 03df 4E01     		.2byte	0x14e
 1404 03e1 B7040000 		.4byte	0x4b7
 1405 03e5 08       		.byte	0x8
 1406 03e6 0B       		.uleb128 0xb
 1407 03e7 AE020000 		.4byte	.LASF66
 1408 03eb 0B       		.byte	0xb
 1409 03ec 5601     		.2byte	0x156
 1410 03ee AC040000 		.4byte	0x4ac
 1411 03f2 10       		.byte	0x10
 1412 03f3 00       		.byte	0
 1413 03f4 03       		.uleb128 0x3
 1414 03f5 D9020000 		.4byte	.LASF67
ARM GAS  C:\Users\RAKIBU~1\AppData\Local\Temp\cclagJ2i.s 			page 26


 1415 03f9 0A       		.byte	0xa
 1416 03fa 60       		.byte	0x60
 1417 03fb FF030000 		.4byte	0x3ff
 1418 03ff 11       		.uleb128 0x11
 1419 0400 FE090000 		.4byte	.LASF68
 1420 0404 1408     		.2byte	0x814
 1421 0406 0B       		.byte	0xb
 1422 0407 7001     		.2byte	0x170
 1423 0409 42040000 		.4byte	0x442
 1424 040d 0B       		.uleb128 0xb
 1425 040e C2020000 		.4byte	.LASF69
 1426 0412 0B       		.byte	0xb
 1427 0413 7801     		.2byte	0x178
 1428 0415 98080000 		.4byte	0x898
 1429 0419 00       		.byte	0
 1430 041a 0B       		.uleb128 0xb
 1431 041b BF070000 		.4byte	.LASF70
 1432 041f 0B       		.byte	0xb
 1433 0420 7D01     		.2byte	0x17d
 1434 0422 57010000 		.4byte	0x157
 1435 0426 04       		.byte	0x4
 1436 0427 0B       		.uleb128 0xb
 1437 0428 DB000000 		.4byte	.LASF71
 1438 042c 0B       		.byte	0xb
 1439 042d 8101     		.2byte	0x181
 1440 042f 57010000 		.4byte	0x157
 1441 0433 08       		.byte	0x8
 1442 0434 0B       		.uleb128 0xb
 1443 0435 CC020000 		.4byte	.LASF72
 1444 0439 0B       		.byte	0xb
 1445 043a 8701     		.2byte	0x187
 1446 043c BA090000 		.4byte	0x9ba
 1447 0440 0C       		.byte	0xc
 1448 0441 00       		.byte	0
 1449 0442 03       		.uleb128 0x3
 1450 0443 A20A0000 		.4byte	.LASF73
 1451 0447 0A       		.byte	0xa
 1452 0448 65       		.byte	0x65
 1453 0449 4D040000 		.4byte	0x44d
 1454 044d 11       		.uleb128 0x11
 1455 044e 6A0A0000 		.4byte	.LASF74
 1456 0452 F008     		.2byte	0x8f0
 1457 0454 0B       		.byte	0xb
 1458 0455 9001     		.2byte	0x190
 1459 0457 AC040000 		.4byte	0x4ac
 1460 045b 0B       		.uleb128 0xb
 1461 045c 65090000 		.4byte	.LASF75
 1462 0460 0B       		.byte	0xb
 1463 0461 9401     		.2byte	0x194
 1464 0463 C8020000 		.4byte	0x2c8
 1465 0467 00       		.byte	0
 1466 0468 0B       		.uleb128 0xb
 1467 0469 250A0000 		.4byte	.LASF76
 1468 046d 0B       		.byte	0xb
 1469 046e 9801     		.2byte	0x198
 1470 0470 A7030000 		.4byte	0x3a7
 1471 0474 20       		.byte	0x20
ARM GAS  C:\Users\RAKIBU~1\AppData\Local\Temp\cclagJ2i.s 			page 27


 1472 0475 0A       		.uleb128 0xa
 1473 0476 64626700 		.ascii	"dbg\000"
 1474 047a 0B       		.byte	0xb
 1475 047b 9C01     		.2byte	0x19c
 1476 047d F4030000 		.4byte	0x3f4
 1477 0481 38       		.byte	0x38
 1478 0482 12       		.uleb128 0x12
 1479 0483 0B090000 		.4byte	.LASF77
 1480 0487 0B       		.byte	0xb
 1481 0488 A001     		.2byte	0x1a0
 1482 048a 6D010000 		.4byte	0x16d
 1483 048e 5008     		.2byte	0x850
 1484 0490 13       		.uleb128 0x13
 1485 0491 746D00   		.ascii	"tm\000"
 1486 0494 0B       		.byte	0xb
 1487 0495 A501     		.2byte	0x1a5
 1488 0497 DA090000 		.4byte	0x9da
 1489 049b B008     		.2byte	0x8b0
 1490 049d 12       		.uleb128 0x12
 1491 049e FF070000 		.4byte	.LASF78
 1492 04a2 0B       		.byte	0xb
 1493 04a3 AB01     		.2byte	0x1ab
 1494 04a5 6C0A0000 		.4byte	0xa6c
 1495 04a9 B808     		.2byte	0x8b8
 1496 04ab 00       		.byte	0
 1497 04ac 03       		.uleb128 0x3
 1498 04ad 26000000 		.4byte	.LASF79
 1499 04b1 0C       		.byte	0xc
 1500 04b2 6D       		.byte	0x6d
 1501 04b3 DF000000 		.4byte	0xdf
 1502 04b7 03       		.uleb128 0x3
 1503 04b8 57060000 		.4byte	.LASF80
 1504 04bc 0C       		.byte	0xc
 1505 04bd 77       		.byte	0x77
 1506 04be F4000000 		.4byte	0xf4
 1507 04c2 14       		.uleb128 0x14
 1508 04c3 DF000000 		.4byte	0xdf
 1509 04c7 D2040000 		.4byte	0x4d2
 1510 04cb 15       		.uleb128 0x15
 1511 04cc 37000000 		.4byte	0x37
 1512 04d0 00       		.byte	0
 1513 04d1 00       		.byte	0
 1514 04d2 16       		.uleb128 0x16
 1515 04d3 5C       		.byte	0x5c
 1516 04d4 0D       		.byte	0xd
 1517 04d5 9203     		.2byte	0x392
 1518 04d7 07060000 		.4byte	0x607
 1519 04db 0B       		.uleb128 0xb
 1520 04dc E9060000 		.4byte	.LASF81
 1521 04e0 0D       		.byte	0xd
 1522 04e1 9403     		.2byte	0x394
 1523 04e3 EA000000 		.4byte	0xea
 1524 04e7 00       		.byte	0
 1525 04e8 0B       		.uleb128 0xb
 1526 04e9 39070000 		.4byte	.LASF82
 1527 04ed 0D       		.byte	0xd
 1528 04ee 9503     		.2byte	0x395
ARM GAS  C:\Users\RAKIBU~1\AppData\Local\Temp\cclagJ2i.s 			page 28


 1529 04f0 EA000000 		.4byte	0xea
 1530 04f4 04       		.byte	0x4
 1531 04f5 0B       		.uleb128 0xb
 1532 04f6 71030000 		.4byte	.LASF83
 1533 04fa 0D       		.byte	0xd
 1534 04fb 9603     		.2byte	0x396
 1535 04fd EA000000 		.4byte	0xea
 1536 0501 08       		.byte	0x8
 1537 0502 0B       		.uleb128 0xb
 1538 0503 07070000 		.4byte	.LASF84
 1539 0507 0D       		.byte	0xd
 1540 0508 9703     		.2byte	0x397
 1541 050a EA000000 		.4byte	0xea
 1542 050e 0C       		.byte	0xc
 1543 050f 0B       		.uleb128 0xb
 1544 0510 71020000 		.4byte	.LASF85
 1545 0514 0D       		.byte	0xd
 1546 0515 9803     		.2byte	0x398
 1547 0517 EA000000 		.4byte	0xea
 1548 051b 10       		.byte	0x10
 1549 051c 0B       		.uleb128 0xb
 1550 051d 40040000 		.4byte	.LASF86
 1551 0521 0D       		.byte	0xd
 1552 0522 9903     		.2byte	0x399
 1553 0524 EA000000 		.4byte	0xea
 1554 0528 14       		.byte	0x14
 1555 0529 0B       		.uleb128 0xb
 1556 052a C10A0000 		.4byte	.LASF87
 1557 052e 0D       		.byte	0xd
 1558 052f 9A03     		.2byte	0x39a
 1559 0531 EA000000 		.4byte	0xea
 1560 0535 18       		.byte	0x18
 1561 0536 0B       		.uleb128 0xb
 1562 0537 FD080000 		.4byte	.LASF88
 1563 053b 0D       		.byte	0xd
 1564 053c 9B03     		.2byte	0x39b
 1565 053e EF000000 		.4byte	0xef
 1566 0542 1C       		.byte	0x1c
 1567 0543 0B       		.uleb128 0xb
 1568 0544 1D030000 		.4byte	.LASF89
 1569 0548 0D       		.byte	0xd
 1570 0549 9C03     		.2byte	0x39c
 1571 054b EA000000 		.4byte	0xea
 1572 054f 20       		.byte	0x20
 1573 0550 0B       		.uleb128 0xb
 1574 0551 F9070000 		.4byte	.LASF90
 1575 0555 0D       		.byte	0xd
 1576 0556 9D03     		.2byte	0x39d
 1577 0558 EA000000 		.4byte	0xea
 1578 055c 24       		.byte	0x24
 1579 055d 0B       		.uleb128 0xb
 1580 055e A5000000 		.4byte	.LASF91
 1581 0562 0D       		.byte	0xd
 1582 0563 9E03     		.2byte	0x39e
 1583 0565 EA000000 		.4byte	0xea
 1584 0569 28       		.byte	0x28
 1585 056a 0B       		.uleb128 0xb
ARM GAS  C:\Users\RAKIBU~1\AppData\Local\Temp\cclagJ2i.s 			page 29


 1586 056b 8C020000 		.4byte	.LASF92
 1587 056f 0D       		.byte	0xd
 1588 0570 9F03     		.2byte	0x39f
 1589 0572 C2040000 		.4byte	0x4c2
 1590 0576 2C       		.byte	0x2c
 1591 0577 0B       		.uleb128 0xb
 1592 0578 23030000 		.4byte	.LASF93
 1593 057c 0D       		.byte	0xd
 1594 057d A003     		.2byte	0x3a0
 1595 057f EA000000 		.4byte	0xea
 1596 0583 30       		.byte	0x30
 1597 0584 0B       		.uleb128 0xb
 1598 0585 04020000 		.4byte	.LASF94
 1599 0589 0D       		.byte	0xd
 1600 058a A103     		.2byte	0x3a1
 1601 058c EA000000 		.4byte	0xea
 1602 0590 34       		.byte	0x34
 1603 0591 0B       		.uleb128 0xb
 1604 0592 AF000000 		.4byte	.LASF95
 1605 0596 0D       		.byte	0xd
 1606 0597 A203     		.2byte	0x3a2
 1607 0599 EA000000 		.4byte	0xea
 1608 059d 38       		.byte	0x38
 1609 059e 0B       		.uleb128 0xb
 1610 059f 96020000 		.4byte	.LASF96
 1611 05a3 0D       		.byte	0xd
 1612 05a4 A303     		.2byte	0x3a3
 1613 05a6 C2040000 		.4byte	0x4c2
 1614 05aa 3C       		.byte	0x3c
 1615 05ab 0B       		.uleb128 0xb
 1616 05ac 29030000 		.4byte	.LASF97
 1617 05b0 0D       		.byte	0xd
 1618 05b1 A403     		.2byte	0x3a4
 1619 05b3 EA000000 		.4byte	0xea
 1620 05b7 40       		.byte	0x40
 1621 05b8 0B       		.uleb128 0xb
 1622 05b9 0C080000 		.4byte	.LASF98
 1623 05bd 0D       		.byte	0xd
 1624 05be A503     		.2byte	0x3a5
 1625 05c0 EA000000 		.4byte	0xea
 1626 05c4 44       		.byte	0x44
 1627 05c5 0B       		.uleb128 0xb
 1628 05c6 B9000000 		.4byte	.LASF99
 1629 05ca 0D       		.byte	0xd
 1630 05cb A603     		.2byte	0x3a6
 1631 05cd EA000000 		.4byte	0xea
 1632 05d1 48       		.byte	0x48
 1633 05d2 0B       		.uleb128 0xb
 1634 05d3 67030000 		.4byte	.LASF100
 1635 05d7 0D       		.byte	0xd
 1636 05d8 A703     		.2byte	0x3a7
 1637 05da C2040000 		.4byte	0x4c2
 1638 05de 4C       		.byte	0x4c
 1639 05df 0B       		.uleb128 0xb
 1640 05e0 2F030000 		.4byte	.LASF101
 1641 05e4 0D       		.byte	0xd
 1642 05e5 A803     		.2byte	0x3a8
ARM GAS  C:\Users\RAKIBU~1\AppData\Local\Temp\cclagJ2i.s 			page 30


 1643 05e7 EA000000 		.4byte	0xea
 1644 05eb 50       		.byte	0x50
 1645 05ec 0B       		.uleb128 0xb
 1646 05ed 12080000 		.4byte	.LASF102
 1647 05f1 0D       		.byte	0xd
 1648 05f2 A903     		.2byte	0x3a9
 1649 05f4 EA000000 		.4byte	0xea
 1650 05f8 54       		.byte	0x54
 1651 05f9 0B       		.uleb128 0xb
 1652 05fa C3000000 		.4byte	.LASF103
 1653 05fe 0D       		.byte	0xd
 1654 05ff AA03     		.2byte	0x3aa
 1655 0601 EA000000 		.4byte	0xea
 1656 0605 58       		.byte	0x58
 1657 0606 00       		.byte	0
 1658 0607 17       		.uleb128 0x17
 1659 0608 51050000 		.4byte	.LASF104
 1660 060c 0D       		.byte	0xd
 1661 060d AB03     		.2byte	0x3ab
 1662 060f D2040000 		.4byte	0x4d2
 1663 0613 18       		.uleb128 0x18
 1664 0614 A7060000 		.4byte	.LASF105
 1665 0618 0D       		.byte	0xd
 1666 0619 0408     		.2byte	0x804
 1667 061b DA000000 		.4byte	0xda
 1668 061f 19       		.uleb128 0x19
 1669 0620 34050000 		.4byte	.LASF106
 1670 0624 0E       		.byte	0xe
 1671 0625 4C       		.byte	0x4c
 1672 0626 DF000000 		.4byte	0xdf
 1673 062a 14       		.uleb128 0x14
 1674 062b BF000000 		.4byte	0xbf
 1675 062f 3A060000 		.4byte	0x63a
 1676 0633 15       		.uleb128 0x15
 1677 0634 37000000 		.4byte	0x37
 1678 0638 0F       		.byte	0xf
 1679 0639 00       		.byte	0
 1680 063a 05       		.uleb128 0x5
 1681 063b 2A060000 		.4byte	0x62a
 1682 063f 19       		.uleb128 0x19
 1683 0640 C7070000 		.4byte	.LASF107
 1684 0644 0E       		.byte	0xe
 1685 0645 4E       		.byte	0x4e
 1686 0646 3A060000 		.4byte	0x63a
 1687 064a 14       		.uleb128 0x14
 1688 064b BF000000 		.4byte	0xbf
 1689 064f 5A060000 		.4byte	0x65a
 1690 0653 15       		.uleb128 0x15
 1691 0654 37000000 		.4byte	0x37
 1692 0658 07       		.byte	0x7
 1693 0659 00       		.byte	0
 1694 065a 05       		.uleb128 0x5
 1695 065b 4A060000 		.4byte	0x64a
 1696 065f 19       		.uleb128 0x19
 1697 0660 AE090000 		.4byte	.LASF108
 1698 0664 0E       		.byte	0xe
 1699 0665 4F       		.byte	0x4f
ARM GAS  C:\Users\RAKIBU~1\AppData\Local\Temp\cclagJ2i.s 			page 31


 1700 0666 5A060000 		.4byte	0x65a
 1701 066a 14       		.uleb128 0x14
 1702 066b EA000000 		.4byte	0xea
 1703 066f 7A060000 		.4byte	0x67a
 1704 0673 15       		.uleb128 0x15
 1705 0674 37000000 		.4byte	0x37
 1706 0678 01       		.byte	0x1
 1707 0679 00       		.byte	0
 1708 067a 06       		.uleb128 0x6
 1709 067b 6A060000 		.4byte	0x66a
 1710 067f 14       		.uleb128 0x14
 1711 0680 EA000000 		.4byte	0xea
 1712 0684 8F060000 		.4byte	0x68f
 1713 0688 15       		.uleb128 0x15
 1714 0689 37000000 		.4byte	0x37
 1715 068d 03       		.byte	0x3
 1716 068e 00       		.byte	0
 1717 068f 06       		.uleb128 0x6
 1718 0690 7F060000 		.4byte	0x67f
 1719 0694 03       		.uleb128 0x3
 1720 0695 FB010000 		.4byte	.LASF109
 1721 0699 0F       		.byte	0xf
 1722 069a 65       		.byte	0x65
 1723 069b 4B030000 		.4byte	0x34b
 1724 069f 03       		.uleb128 0x3
 1725 06a0 90030000 		.4byte	.LASF110
 1726 06a4 0F       		.byte	0xf
 1727 06a5 6D       		.byte	0x6d
 1728 06a6 F4000000 		.4byte	0xf4
 1729 06aa 07       		.uleb128 0x7
 1730 06ab 4E0A0000 		.4byte	.LASF111
 1731 06af 04       		.byte	0x4
 1732 06b0 0F       		.byte	0xf
 1733 06b1 89       		.byte	0x89
 1734 06b2 C2060000 		.4byte	0x6c2
 1735 06b6 09       		.uleb128 0x9
 1736 06b7 737000   		.ascii	"sp\000"
 1737 06ba 0F       		.byte	0xf
 1738 06bb 8A       		.byte	0x8a
 1739 06bc 3E070000 		.4byte	0x73e
 1740 06c0 00       		.byte	0
 1741 06c1 00       		.byte	0
 1742 06c2 0D       		.uleb128 0xd
 1743 06c3 83070000 		.4byte	.LASF112
 1744 06c7 24       		.byte	0x24
 1745 06c8 03       		.byte	0x3
 1746 06c9 6001     		.2byte	0x160
 1747 06cb 3E070000 		.4byte	0x73e
 1748 06cf 0A       		.uleb128 0xa
 1749 06d0 723400   		.ascii	"r4\000"
 1750 06d3 03       		.byte	0x3
 1751 06d4 7301     		.2byte	0x173
 1752 06d6 94060000 		.4byte	0x694
 1753 06da 00       		.byte	0
 1754 06db 0A       		.uleb128 0xa
 1755 06dc 723500   		.ascii	"r5\000"
 1756 06df 03       		.byte	0x3
ARM GAS  C:\Users\RAKIBU~1\AppData\Local\Temp\cclagJ2i.s 			page 32


 1757 06e0 7401     		.2byte	0x174
 1758 06e2 94060000 		.4byte	0x694
 1759 06e6 04       		.byte	0x4
 1760 06e7 0A       		.uleb128 0xa
 1761 06e8 723600   		.ascii	"r6\000"
 1762 06eb 03       		.byte	0x3
 1763 06ec 7501     		.2byte	0x175
 1764 06ee 94060000 		.4byte	0x694
 1765 06f2 08       		.byte	0x8
 1766 06f3 0A       		.uleb128 0xa
 1767 06f4 723700   		.ascii	"r7\000"
 1768 06f7 03       		.byte	0x3
 1769 06f8 7601     		.2byte	0x176
 1770 06fa 94060000 		.4byte	0x694
 1771 06fe 0C       		.byte	0xc
 1772 06ff 0A       		.uleb128 0xa
 1773 0700 723800   		.ascii	"r8\000"
 1774 0703 03       		.byte	0x3
 1775 0704 7701     		.2byte	0x177
 1776 0706 94060000 		.4byte	0x694
 1777 070a 10       		.byte	0x10
 1778 070b 0A       		.uleb128 0xa
 1779 070c 723900   		.ascii	"r9\000"
 1780 070f 03       		.byte	0x3
 1781 0710 7801     		.2byte	0x178
 1782 0712 94060000 		.4byte	0x694
 1783 0716 14       		.byte	0x14
 1784 0717 0A       		.uleb128 0xa
 1785 0718 72313000 		.ascii	"r10\000"
 1786 071c 03       		.byte	0x3
 1787 071d 7901     		.2byte	0x179
 1788 071f 94060000 		.4byte	0x694
 1789 0723 18       		.byte	0x18
 1790 0724 0A       		.uleb128 0xa
 1791 0725 72313100 		.ascii	"r11\000"
 1792 0729 03       		.byte	0x3
 1793 072a 7A01     		.2byte	0x17a
 1794 072c 94060000 		.4byte	0x694
 1795 0730 1C       		.byte	0x1c
 1796 0731 0A       		.uleb128 0xa
 1797 0732 6C7200   		.ascii	"lr\000"
 1798 0735 03       		.byte	0x3
 1799 0736 7B01     		.2byte	0x17b
 1800 0738 94060000 		.4byte	0x694
 1801 073c 20       		.byte	0x20
 1802 073d 00       		.byte	0
 1803 073e 0C       		.uleb128 0xc
 1804 073f 04       		.byte	0x4
 1805 0740 C2060000 		.4byte	0x6c2
 1806 0744 16       		.uleb128 0x16
 1807 0745 60       		.byte	0x60
 1808 0746 10       		.byte	0x10
 1809 0747 F501     		.2byte	0x1f5
 1810 0749 50080000 		.4byte	0x850
 1811 074d 0A       		.uleb128 0xa
 1812 074e 43523100 		.ascii	"CR1\000"
 1813 0752 10       		.byte	0x10
ARM GAS  C:\Users\RAKIBU~1\AppData\Local\Temp\cclagJ2i.s 			page 33


 1814 0753 F601     		.2byte	0x1f6
 1815 0755 EA000000 		.4byte	0xea
 1816 0759 00       		.byte	0
 1817 075a 0A       		.uleb128 0xa
 1818 075b 43523200 		.ascii	"CR2\000"
 1819 075f 10       		.byte	0x10
 1820 0760 F701     		.2byte	0x1f7
 1821 0762 EA000000 		.4byte	0xea
 1822 0766 04       		.byte	0x4
 1823 0767 0B       		.uleb128 0xb
 1824 0768 16090000 		.4byte	.LASF113
 1825 076c 10       		.byte	0x10
 1826 076d F801     		.2byte	0x1f8
 1827 076f EA000000 		.4byte	0xea
 1828 0773 08       		.byte	0x8
 1829 0774 0B       		.uleb128 0xb
 1830 0775 2F050000 		.4byte	.LASF114
 1831 0779 10       		.byte	0x10
 1832 077a F901     		.2byte	0x1f9
 1833 077c EA000000 		.4byte	0xea
 1834 0780 0C       		.byte	0xc
 1835 0781 0A       		.uleb128 0xa
 1836 0782 535200   		.ascii	"SR\000"
 1837 0785 10       		.byte	0x10
 1838 0786 FA01     		.2byte	0x1fa
 1839 0788 EA000000 		.4byte	0xea
 1840 078c 10       		.byte	0x10
 1841 078d 0A       		.uleb128 0xa
 1842 078e 45475200 		.ascii	"EGR\000"
 1843 0792 10       		.byte	0x10
 1844 0793 FB01     		.2byte	0x1fb
 1845 0795 EA000000 		.4byte	0xea
 1846 0799 14       		.byte	0x14
 1847 079a 0B       		.uleb128 0xb
 1848 079b 35030000 		.4byte	.LASF115
 1849 079f 10       		.byte	0x10
 1850 07a0 FC01     		.2byte	0x1fc
 1851 07a2 EA000000 		.4byte	0xea
 1852 07a6 18       		.byte	0x18
 1853 07a7 0B       		.uleb128 0xb
 1854 07a8 3B030000 		.4byte	.LASF116
 1855 07ac 10       		.byte	0x10
 1856 07ad FD01     		.2byte	0x1fd
 1857 07af EA000000 		.4byte	0xea
 1858 07b3 1C       		.byte	0x1c
 1859 07b4 0B       		.uleb128 0xb
 1860 07b5 77080000 		.4byte	.LASF117
 1861 07b9 10       		.byte	0x10
 1862 07ba FE01     		.2byte	0x1fe
 1863 07bc EA000000 		.4byte	0xea
 1864 07c0 20       		.byte	0x20
 1865 07c1 0A       		.uleb128 0xa
 1866 07c2 434E5400 		.ascii	"CNT\000"
 1867 07c6 10       		.byte	0x10
 1868 07c7 FF01     		.2byte	0x1ff
 1869 07c9 EA000000 		.4byte	0xea
 1870 07cd 24       		.byte	0x24
ARM GAS  C:\Users\RAKIBU~1\AppData\Local\Temp\cclagJ2i.s 			page 34


 1871 07ce 0A       		.uleb128 0xa
 1872 07cf 50534300 		.ascii	"PSC\000"
 1873 07d3 10       		.byte	0x10
 1874 07d4 0002     		.2byte	0x200
 1875 07d6 EA000000 		.4byte	0xea
 1876 07da 28       		.byte	0x28
 1877 07db 0A       		.uleb128 0xa
 1878 07dc 41525200 		.ascii	"ARR\000"
 1879 07e0 10       		.byte	0x10
 1880 07e1 0102     		.2byte	0x201
 1881 07e3 EA000000 		.4byte	0xea
 1882 07e7 2C       		.byte	0x2c
 1883 07e8 0A       		.uleb128 0xa
 1884 07e9 52435200 		.ascii	"RCR\000"
 1885 07ed 10       		.byte	0x10
 1886 07ee 0202     		.2byte	0x202
 1887 07f0 EA000000 		.4byte	0xea
 1888 07f4 30       		.byte	0x30
 1889 07f5 0A       		.uleb128 0xa
 1890 07f6 43435200 		.ascii	"CCR\000"
 1891 07fa 10       		.byte	0x10
 1892 07fb 0302     		.2byte	0x203
 1893 07fd 8F060000 		.4byte	0x68f
 1894 0801 34       		.byte	0x34
 1895 0802 0B       		.uleb128 0xb
 1896 0803 7A0A0000 		.4byte	.LASF118
 1897 0807 10       		.byte	0x10
 1898 0808 0402     		.2byte	0x204
 1899 080a EA000000 		.4byte	0xea
 1900 080e 44       		.byte	0x44
 1901 080f 0A       		.uleb128 0xa
 1902 0810 44435200 		.ascii	"DCR\000"
 1903 0814 10       		.byte	0x10
 1904 0815 0502     		.2byte	0x205
 1905 0817 EA000000 		.4byte	0xea
 1906 081b 48       		.byte	0x48
 1907 081c 0B       		.uleb128 0xb
 1908 081d F8000000 		.4byte	.LASF119
 1909 0821 10       		.byte	0x10
 1910 0822 0602     		.2byte	0x206
 1911 0824 EA000000 		.4byte	0xea
 1912 0828 4C       		.byte	0x4c
 1913 0829 0A       		.uleb128 0xa
 1914 082a 4F5200   		.ascii	"OR\000"
 1915 082d 10       		.byte	0x10
 1916 082e 0702     		.2byte	0x207
 1917 0830 EA000000 		.4byte	0xea
 1918 0834 50       		.byte	0x50
 1919 0835 0B       		.uleb128 0xb
 1920 0836 41030000 		.4byte	.LASF120
 1921 083a 10       		.byte	0x10
 1922 083b 0802     		.2byte	0x208
 1923 083d EA000000 		.4byte	0xea
 1924 0841 54       		.byte	0x54
 1925 0842 0B       		.uleb128 0xb
 1926 0843 AF030000 		.4byte	.LASF121
 1927 0847 10       		.byte	0x10
ARM GAS  C:\Users\RAKIBU~1\AppData\Local\Temp\cclagJ2i.s 			page 35


 1928 0848 0902     		.2byte	0x209
 1929 084a 7A060000 		.4byte	0x67a
 1930 084e 58       		.byte	0x58
 1931 084f 00       		.byte	0
 1932 0850 17       		.uleb128 0x17
 1933 0851 E0050000 		.4byte	.LASF122
 1934 0855 10       		.byte	0x10
 1935 0856 0A02     		.2byte	0x20a
 1936 0858 44070000 		.4byte	0x744
 1937 085c 1A       		.uleb128 0x1a
 1938 085d 08       		.byte	0x8
 1939 085e 11       		.byte	0x11
 1940 085f 7F       		.byte	0x7f
 1941 0860 7D080000 		.4byte	0x87d
 1942 0864 09       		.uleb128 0x9
 1943 0865 6E747000 		.ascii	"ntp\000"
 1944 0869 11       		.byte	0x11
 1945 086a 83       		.byte	0x83
 1946 086b 6E020000 		.4byte	0x26e
 1947 086f 00       		.byte	0
 1948 0870 08       		.uleb128 0x8
 1949 0871 60030000 		.4byte	.LASF123
 1950 0875 11       		.byte	0x11
 1951 0876 87       		.byte	0x87
 1952 0877 4B030000 		.4byte	0x34b
 1953 087b 04       		.byte	0x4
 1954 087c 00       		.byte	0
 1955 087d 1A       		.uleb128 0x1a
 1956 087e 04       		.byte	0x4
 1957 087f 11       		.byte	0x11
 1958 0880 8C       		.byte	0x8c
 1959 0881 92080000 		.4byte	0x892
 1960 0885 08       		.uleb128 0x8
 1961 0886 9F090000 		.4byte	.LASF36
 1962 088a 11       		.byte	0x11
 1963 088b 90       		.byte	0x90
 1964 088c 92080000 		.4byte	0x892
 1965 0890 00       		.byte	0
 1966 0891 00       		.byte	0
 1967 0892 0C       		.uleb128 0xc
 1968 0893 04       		.byte	0x4
 1969 0894 A4080000 		.4byte	0x8a4
 1970 0898 06       		.uleb128 0x6
 1971 0899 92080000 		.4byte	0x892
 1972 089d 04       		.uleb128 0x4
 1973 089e 01       		.byte	0x1
 1974 089f 08       		.byte	0x8
 1975 08a0 47030000 		.4byte	.LASF124
 1976 08a4 05       		.uleb128 0x5
 1977 08a5 9D080000 		.4byte	0x89d
 1978 08a9 1A       		.uleb128 0x1a
 1979 08aa 04       		.byte	0x4
 1980 08ab 11       		.byte	0x11
 1981 08ac 95       		.byte	0x95
 1982 08ad BE080000 		.4byte	0x8be
 1983 08b1 08       		.uleb128 0x8
 1984 08b2 DB080000 		.4byte	.LASF125
ARM GAS  C:\Users\RAKIBU~1\AppData\Local\Temp\cclagJ2i.s 			page 36


 1985 08b6 11       		.byte	0x11
 1986 08b7 99       		.byte	0x99
 1987 08b8 92080000 		.4byte	0x892
 1988 08bc 00       		.byte	0
 1989 08bd 00       		.byte	0
 1990 08be 1A       		.uleb128 0x1a
 1991 08bf 08       		.byte	0x8
 1992 08c0 11       		.byte	0x11
 1993 08c1 9E       		.byte	0x9e
 1994 08c2 DF080000 		.4byte	0x8df
 1995 08c6 09       		.uleb128 0x9
 1996 08c7 75703100 		.ascii	"up1\000"
 1997 08cb 11       		.byte	0x11
 1998 08cc A2       		.byte	0xa2
 1999 08cd 4B030000 		.4byte	0x34b
 2000 08d1 00       		.byte	0
 2001 08d2 09       		.uleb128 0x9
 2002 08d3 75703200 		.ascii	"up2\000"
 2003 08d7 11       		.byte	0x11
 2004 08d8 A6       		.byte	0xa6
 2005 08d9 4B030000 		.4byte	0x34b
 2006 08dd 04       		.byte	0x4
 2007 08de 00       		.byte	0
 2008 08df 1B       		.uleb128 0x1b
 2009 08e0 08       		.byte	0x8
 2010 08e1 11       		.byte	0x11
 2011 08e2 7B       		.byte	0x7b
 2012 08e3 13090000 		.4byte	0x913
 2013 08e7 1C       		.uleb128 0x1c
 2014 08e8 737700   		.ascii	"sw\000"
 2015 08eb 11       		.byte	0x11
 2016 08ec 88       		.byte	0x88
 2017 08ed 5C080000 		.4byte	0x85c
 2018 08f1 1C       		.uleb128 0x1c
 2019 08f2 69737200 		.ascii	"isr\000"
 2020 08f6 11       		.byte	0x11
 2021 08f7 91       		.byte	0x91
 2022 08f8 7D080000 		.4byte	0x87d
 2023 08fc 1D       		.uleb128 0x1d
 2024 08fd 23090000 		.4byte	.LASF126
 2025 0901 11       		.byte	0x11
 2026 0902 9A       		.byte	0x9a
 2027 0903 A9080000 		.4byte	0x8a9
 2028 0907 1D       		.uleb128 0x1d
 2029 0908 6F000000 		.4byte	.LASF127
 2030 090c 11       		.byte	0x11
 2031 090d A7       		.byte	0xa7
 2032 090e BE080000 		.4byte	0x8be
 2033 0912 00       		.byte	0
 2034 0913 1A       		.uleb128 0x1a
 2035 0914 10       		.byte	0x10
 2036 0915 11       		.byte	0x11
 2037 0916 68       		.byte	0x68
 2038 0917 5F090000 		.4byte	0x95f
 2039 091b 1E       		.uleb128 0x1e
 2040 091c EA000000 		.4byte	.LASF128
 2041 0920 11       		.byte	0x11
ARM GAS  C:\Users\RAKIBU~1\AppData\Local\Temp\cclagJ2i.s 			page 37


 2042 0921 6C       		.byte	0x6c
 2043 0922 DF000000 		.4byte	0xdf
 2044 0926 04       		.byte	0x4
 2045 0927 03       		.byte	0x3
 2046 0928 1D       		.byte	0x1d
 2047 0929 00       		.byte	0
 2048 092a 1E       		.uleb128 0x1e
 2049 092b D5000000 		.4byte	.LASF38
 2050 092f 11       		.byte	0x11
 2051 0930 70       		.byte	0x70
 2052 0931 DF000000 		.4byte	0xdf
 2053 0935 04       		.byte	0x4
 2054 0936 05       		.byte	0x5
 2055 0937 18       		.byte	0x18
 2056 0938 00       		.byte	0
 2057 0939 1E       		.uleb128 0x1e
 2058 093a CD000000 		.4byte	.LASF129
 2059 093e 11       		.byte	0x11
 2060 093f 76       		.byte	0x76
 2061 0940 DF000000 		.4byte	0xdf
 2062 0944 04       		.byte	0x4
 2063 0945 18       		.byte	0x18
 2064 0946 00       		.byte	0
 2065 0947 00       		.byte	0
 2066 0948 08       		.uleb128 0x8
 2067 0949 60090000 		.4byte	.LASF130
 2068 094d 11       		.byte	0x11
 2069 094e 7A       		.byte	0x7a
 2070 094f AC040000 		.4byte	0x4ac
 2071 0953 04       		.byte	0x4
 2072 0954 09       		.uleb128 0x9
 2073 0955 7500     		.ascii	"u\000"
 2074 0957 11       		.byte	0x11
 2075 0958 A8       		.byte	0xa8
 2076 0959 DF080000 		.4byte	0x8df
 2077 095d 08       		.byte	0x8
 2078 095e 00       		.byte	0
 2079 095f 03       		.uleb128 0x3
 2080 0960 60020000 		.4byte	.LASF131
 2081 0964 11       		.byte	0x11
 2082 0965 A9       		.byte	0xa9
 2083 0966 13090000 		.4byte	0x913
 2084 096a 1F       		.uleb128 0x1f
 2085 096b 0808     		.2byte	0x808
 2086 096d 11       		.byte	0x11
 2087 096e AF       		.byte	0xaf
 2088 096f A4090000 		.4byte	0x9a4
 2089 0973 08       		.uleb128 0x8
 2090 0974 84090000 		.4byte	.LASF132
 2091 0978 11       		.byte	0x11
 2092 0979 B3       		.byte	0xb3
 2093 097a C4000000 		.4byte	0xc4
 2094 097e 00       		.byte	0
 2095 097f 08       		.uleb128 0x8
 2096 0980 18080000 		.4byte	.LASF133
 2097 0984 11       		.byte	0x11
 2098 0985 B7       		.byte	0xb7
ARM GAS  C:\Users\RAKIBU~1\AppData\Local\Temp\cclagJ2i.s 			page 38


 2099 0986 C4000000 		.4byte	0xc4
 2100 098a 02       		.byte	0x2
 2101 098b 09       		.uleb128 0x9
 2102 098c 70747200 		.ascii	"ptr\000"
 2103 0990 11       		.byte	0x11
 2104 0991 BB       		.byte	0xbb
 2105 0992 A4090000 		.4byte	0x9a4
 2106 0996 04       		.byte	0x4
 2107 0997 08       		.uleb128 0x8
 2108 0998 F3030000 		.4byte	.LASF134
 2109 099c 11       		.byte	0x11
 2110 099d BF       		.byte	0xbf
 2111 099e AA090000 		.4byte	0x9aa
 2112 09a2 08       		.byte	0x8
 2113 09a3 00       		.byte	0
 2114 09a4 0C       		.uleb128 0xc
 2115 09a5 04       		.byte	0x4
 2116 09a6 5F090000 		.4byte	0x95f
 2117 09aa 14       		.uleb128 0x14
 2118 09ab 5F090000 		.4byte	0x95f
 2119 09af BA090000 		.4byte	0x9ba
 2120 09b3 15       		.uleb128 0x15
 2121 09b4 37000000 		.4byte	0x37
 2122 09b8 7F       		.byte	0x7f
 2123 09b9 00       		.byte	0
 2124 09ba 03       		.uleb128 0x3
 2125 09bb 08040000 		.4byte	.LASF135
 2126 09bf 11       		.byte	0x11
 2127 09c0 C0       		.byte	0xc0
 2128 09c1 6A090000 		.4byte	0x96a
 2129 09c5 1A       		.uleb128 0x1a
 2130 09c6 04       		.byte	0x4
 2131 09c7 12       		.byte	0x12
 2132 09c8 38       		.byte	0x38
 2133 09c9 DA090000 		.4byte	0x9da
 2134 09cd 08       		.uleb128 0x8
 2135 09ce 25070000 		.4byte	.LASF136
 2136 09d2 12       		.byte	0x12
 2137 09d3 3C       		.byte	0x3c
 2138 09d4 FF000000 		.4byte	0xff
 2139 09d8 00       		.byte	0
 2140 09d9 00       		.byte	0
 2141 09da 03       		.uleb128 0x3
 2142 09db 8E090000 		.4byte	.LASF137
 2143 09df 12       		.byte	0x12
 2144 09e0 3D       		.byte	0x3d
 2145 09e1 C5090000 		.4byte	0x9c5
 2146 09e5 1A       		.uleb128 0x1a
 2147 09e6 18       		.byte	0x18
 2148 09e7 12       		.byte	0x12
 2149 09e8 48       		.byte	0x48
 2150 09e9 280A0000 		.4byte	0xa28
 2151 09ed 08       		.uleb128 0x8
 2152 09ee 36090000 		.4byte	.LASF138
 2153 09f2 12       		.byte	0x12
 2154 09f3 49       		.byte	0x49
 2155 09f4 FF000000 		.4byte	0xff
ARM GAS  C:\Users\RAKIBU~1\AppData\Local\Temp\cclagJ2i.s 			page 39


 2156 09f8 00       		.byte	0
 2157 09f9 08       		.uleb128 0x8
 2158 09fa A1030000 		.4byte	.LASF139
 2159 09fe 12       		.byte	0x12
 2160 09ff 4A       		.byte	0x4a
 2161 0a00 FF000000 		.4byte	0xff
 2162 0a04 04       		.byte	0x4
 2163 0a05 08       		.uleb128 0x8
 2164 0a06 FF0A0000 		.4byte	.LASF140
 2165 0a0a 12       		.byte	0x12
 2166 0a0b 4B       		.byte	0x4b
 2167 0a0c FF000000 		.4byte	0xff
 2168 0a10 08       		.byte	0x8
 2169 0a11 09       		.uleb128 0x9
 2170 0a12 6E00     		.ascii	"n\000"
 2171 0a14 12       		.byte	0x12
 2172 0a15 4C       		.byte	0x4c
 2173 0a16 62010000 		.4byte	0x162
 2174 0a1a 0C       		.byte	0xc
 2175 0a1b 08       		.uleb128 0x8
 2176 0a1c 30020000 		.4byte	.LASF141
 2177 0a20 12       		.byte	0x12
 2178 0a21 4D       		.byte	0x4d
 2179 0a22 0A010000 		.4byte	0x10a
 2180 0a26 10       		.byte	0x10
 2181 0a27 00       		.byte	0
 2182 0a28 03       		.uleb128 0x3
 2183 0a29 B4060000 		.4byte	.LASF142
 2184 0a2d 12       		.byte	0x12
 2185 0a2e 4E       		.byte	0x4e
 2186 0a2f E5090000 		.4byte	0x9e5
 2187 0a33 1A       		.uleb128 0x1a
 2188 0a34 38       		.byte	0x38
 2189 0a35 13       		.byte	0x13
 2190 0a36 38       		.byte	0x38
 2191 0a37 6C0A0000 		.4byte	0xa6c
 2192 0a3b 08       		.uleb128 0x8
 2193 0a3c 30060000 		.4byte	.LASF143
 2194 0a40 13       		.byte	0x13
 2195 0a41 39       		.byte	0x39
 2196 0a42 62010000 		.4byte	0x162
 2197 0a46 00       		.byte	0
 2198 0a47 08       		.uleb128 0x8
 2199 0a48 78030000 		.4byte	.LASF144
 2200 0a4c 13       		.byte	0x13
 2201 0a4d 3A       		.byte	0x3a
 2202 0a4e 62010000 		.4byte	0x162
 2203 0a52 04       		.byte	0x4
 2204 0a53 08       		.uleb128 0x8
 2205 0a54 DC040000 		.4byte	.LASF145
 2206 0a58 13       		.byte	0x13
 2207 0a59 3B       		.byte	0x3b
 2208 0a5a 280A0000 		.4byte	0xa28
 2209 0a5e 08       		.byte	0x8
 2210 0a5f 08       		.uleb128 0x8
 2211 0a60 D1060000 		.4byte	.LASF146
 2212 0a64 13       		.byte	0x13
ARM GAS  C:\Users\RAKIBU~1\AppData\Local\Temp\cclagJ2i.s 			page 40


 2213 0a65 3D       		.byte	0x3d
 2214 0a66 280A0000 		.4byte	0xa28
 2215 0a6a 20       		.byte	0x20
 2216 0a6b 00       		.byte	0
 2217 0a6c 03       		.uleb128 0x3
 2218 0a6d 0E070000 		.4byte	.LASF147
 2219 0a71 13       		.byte	0x13
 2220 0a72 3F       		.byte	0x3f
 2221 0a73 330A0000 		.4byte	0xa33
 2222 0a77 1B       		.uleb128 0x1b
 2223 0a78 04       		.byte	0x4
 2224 0a79 0B       		.byte	0xb
 2225 0a7a C6       		.byte	0xc6
 2226 0a7b D90A0000 		.4byte	0xad9
 2227 0a7f 1D       		.uleb128 0x1d
 2228 0a80 880A0000 		.4byte	.LASF148
 2229 0a84 0B       		.byte	0xb
 2230 0a85 CD       		.byte	0xcd
 2231 0a86 41010000 		.4byte	0x141
 2232 0a8a 1D       		.uleb128 0x1d
 2233 0a8b AC010000 		.4byte	.LASF149
 2234 0a8f 0B       		.byte	0xb
 2235 0a90 D4       		.byte	0xd4
 2236 0a91 41010000 		.4byte	0x141
 2237 0a95 1D       		.uleb128 0x1d
 2238 0a96 60030000 		.4byte	.LASF123
 2239 0a9a 0B       		.byte	0xb
 2240 0a9b DB       		.byte	0xdb
 2241 0a9c 4B030000 		.4byte	0x34b
 2242 0aa0 1D       		.uleb128 0x1d
 2243 0aa1 86020000 		.4byte	.LASF150
 2244 0aa5 0B       		.byte	0xb
 2245 0aa6 E2       		.byte	0xe2
 2246 0aa7 D90A0000 		.4byte	0xad9
 2247 0aab 1D       		.uleb128 0x1d
 2248 0aac 7B070000 		.4byte	.LASF151
 2249 0ab0 0B       		.byte	0xb
 2250 0ab1 E7       		.byte	0xe7
 2251 0ab2 41010000 		.4byte	0x141
 2252 0ab6 1D       		.uleb128 0x1d
 2253 0ab7 1F000000 		.4byte	.LASF152
 2254 0abb 0B       		.byte	0xb
 2255 0abc F0       		.byte	0xf0
 2256 0abd 040B0000 		.4byte	0xb04
 2257 0ac1 1D       		.uleb128 0x1d
 2258 0ac2 1A040000 		.4byte	.LASF153
 2259 0ac6 0B       		.byte	0xb
 2260 0ac7 F9       		.byte	0xf9
 2261 0ac8 3B0B0000 		.4byte	0xb3b
 2262 0acc 20       		.uleb128 0x20
 2263 0acd 51020000 		.4byte	.LASF154
 2264 0ad1 0B       		.byte	0xb
 2265 0ad2 0101     		.2byte	0x101
 2266 0ad4 4C010000 		.4byte	0x14c
 2267 0ad8 00       		.byte	0
 2268 0ad9 0C       		.uleb128 0xc
 2269 0ada 04       		.byte	0x4
ARM GAS  C:\Users\RAKIBU~1\AppData\Local\Temp\cclagJ2i.s 			page 41


 2270 0adb 63020000 		.4byte	0x263
 2271 0adf 07       		.uleb128 0x7
 2272 0ae0 44050000 		.4byte	.LASF155
 2273 0ae4 0C       		.byte	0xc
 2274 0ae5 14       		.byte	0x14
 2275 0ae6 34       		.byte	0x34
 2276 0ae7 040B0000 		.4byte	0xb04
 2277 0aeb 08       		.uleb128 0x8
 2278 0aec CC080000 		.4byte	.LASF32
 2279 0af0 14       		.byte	0x14
 2280 0af1 35       		.byte	0x35
 2281 0af2 98020000 		.4byte	0x298
 2282 0af6 00       		.byte	0
 2283 0af7 09       		.uleb128 0x9
 2284 0af8 636E7400 		.ascii	"cnt\000"
 2285 0afc 14       		.byte	0x14
 2286 0afd 37       		.byte	0x37
 2287 0afe 57010000 		.4byte	0x157
 2288 0b02 08       		.byte	0x8
 2289 0b03 00       		.byte	0
 2290 0b04 0C       		.uleb128 0xc
 2291 0b05 04       		.byte	0x4
 2292 0b06 DF0A0000 		.4byte	0xadf
 2293 0b0a 07       		.uleb128 0x7
 2294 0b0b EC090000 		.4byte	.LASF156
 2295 0b0f 10       		.byte	0x10
 2296 0b10 15       		.byte	0x15
 2297 0b11 39       		.byte	0x39
 2298 0b12 3B0B0000 		.4byte	0xb3b
 2299 0b16 08       		.uleb128 0x8
 2300 0b17 CC080000 		.4byte	.LASF32
 2301 0b1b 15       		.byte	0x15
 2302 0b1c 3A       		.byte	0x3a
 2303 0b1d 98020000 		.4byte	0x298
 2304 0b21 00       		.byte	0
 2305 0b22 08       		.uleb128 0x8
 2306 0b23 3C000000 		.4byte	.LASF157
 2307 0b27 15       		.byte	0x15
 2308 0b28 3C       		.byte	0x3c
 2309 0b29 6E020000 		.4byte	0x26e
 2310 0b2d 08       		.byte	0x8
 2311 0b2e 08       		.uleb128 0x8
 2312 0b2f DE0A0000 		.4byte	.LASF52
 2313 0b33 15       		.byte	0x15
 2314 0b34 3E       		.byte	0x3e
 2315 0b35 860C0000 		.4byte	0xc86
 2316 0b39 0C       		.byte	0xc
 2317 0b3a 00       		.byte	0
 2318 0b3b 0C       		.uleb128 0xc
 2319 0b3c 04       		.byte	0x4
 2320 0b3d 0A0B0000 		.4byte	0xb0a
 2321 0b41 0C       		.uleb128 0xc
 2322 0b42 04       		.byte	0x4
 2323 0b43 9F060000 		.4byte	0x69f
 2324 0b47 0C       		.uleb128 0xc
 2325 0b48 04       		.byte	0x4
 2326 0b49 4D030000 		.4byte	0x34d
ARM GAS  C:\Users\RAKIBU~1\AppData\Local\Temp\cclagJ2i.s 			page 42


 2327 0b4d 21       		.uleb128 0x21
 2328 0b4e 636800   		.ascii	"ch\000"
 2329 0b51 0B       		.byte	0xb
 2330 0b52 C701     		.2byte	0x1c7
 2331 0b54 42040000 		.4byte	0x442
 2332 0b58 14       		.uleb128 0x14
 2333 0b59 9F060000 		.4byte	0x69f
 2334 0b5d 630B0000 		.4byte	0xb63
 2335 0b61 22       		.uleb128 0x22
 2336 0b62 00       		.byte	0
 2337 0b63 18       		.uleb128 0x18
 2338 0b64 86050000 		.4byte	.LASF158
 2339 0b68 05       		.byte	0x5
 2340 0b69 1701     		.2byte	0x117
 2341 0b6b 580B0000 		.4byte	0xb58
 2342 0b6f 1A       		.uleb128 0x1a
 2343 0b70 16       		.byte	0x16
 2344 0b71 16       		.byte	0x16
 2345 0b72 34       		.byte	0x34
 2346 0b73 500C0000 		.4byte	0xc50
 2347 0b77 08       		.uleb128 0x8
 2348 0b78 F40A0000 		.4byte	.LASF159
 2349 0b7c 16       		.byte	0x16
 2350 0b7d 35       		.byte	0x35
 2351 0b7e 500C0000 		.4byte	0xc50
 2352 0b82 00       		.byte	0
 2353 0b83 08       		.uleb128 0x8
 2354 0b84 D4010000 		.4byte	.LASF160
 2355 0b88 16       		.byte	0x16
 2356 0b89 36       		.byte	0x36
 2357 0b8a B4000000 		.4byte	0xb4
 2358 0b8e 04       		.byte	0x4
 2359 0b8f 08       		.uleb128 0x8
 2360 0b90 18080000 		.4byte	.LASF133
 2361 0b94 16       		.byte	0x16
 2362 0b95 37       		.byte	0x37
 2363 0b96 B4000000 		.4byte	0xb4
 2364 0b9a 05       		.byte	0x5
 2365 0b9b 08       		.uleb128 0x8
 2366 0b9c 1B090000 		.4byte	.LASF161
 2367 0ba0 16       		.byte	0x16
 2368 0ba1 38       		.byte	0x38
 2369 0ba2 C4000000 		.4byte	0xc4
 2370 0ba6 06       		.byte	0x6
 2371 0ba7 08       		.uleb128 0x8
 2372 0ba8 A7030000 		.4byte	.LASF162
 2373 0bac 16       		.byte	0x16
 2374 0bad 39       		.byte	0x39
 2375 0bae B4000000 		.4byte	0xb4
 2376 0bb2 08       		.byte	0x8
 2377 0bb3 08       		.uleb128 0x8
 2378 0bb4 AE0A0000 		.4byte	.LASF163
 2379 0bb8 16       		.byte	0x16
 2380 0bb9 3A       		.byte	0x3a
 2381 0bba B4000000 		.4byte	0xb4
 2382 0bbe 09       		.byte	0x9
 2383 0bbf 08       		.uleb128 0x8
ARM GAS  C:\Users\RAKIBU~1\AppData\Local\Temp\cclagJ2i.s 			page 43


 2384 0bc0 1A050000 		.4byte	.LASF164
 2385 0bc4 16       		.byte	0x16
 2386 0bc5 3B       		.byte	0x3b
 2387 0bc6 B4000000 		.4byte	0xb4
 2388 0bca 0A       		.byte	0xa
 2389 0bcb 08       		.uleb128 0x8
 2390 0bcc 0F000000 		.4byte	.LASF165
 2391 0bd0 16       		.byte	0x16
 2392 0bd1 3C       		.byte	0x3c
 2393 0bd2 B4000000 		.4byte	0xb4
 2394 0bd6 0B       		.byte	0xb
 2395 0bd7 08       		.uleb128 0x8
 2396 0bd8 00000000 		.4byte	.LASF166
 2397 0bdc 16       		.byte	0x16
 2398 0bdd 3D       		.byte	0x3d
 2399 0bde B4000000 		.4byte	0xb4
 2400 0be2 0C       		.byte	0xc
 2401 0be3 08       		.uleb128 0x8
 2402 0be4 C7060000 		.4byte	.LASF167
 2403 0be8 16       		.byte	0x16
 2404 0be9 3E       		.byte	0x3e
 2405 0bea B4000000 		.4byte	0xb4
 2406 0bee 0D       		.byte	0xd
 2407 0bef 08       		.uleb128 0x8
 2408 0bf0 8B010000 		.4byte	.LASF168
 2409 0bf4 16       		.byte	0x16
 2410 0bf5 3F       		.byte	0x3f
 2411 0bf6 B4000000 		.4byte	0xb4
 2412 0bfa 0E       		.byte	0xe
 2413 0bfb 08       		.uleb128 0x8
 2414 0bfc 3D080000 		.4byte	.LASF169
 2415 0c00 16       		.byte	0x16
 2416 0c01 40       		.byte	0x40
 2417 0c02 B4000000 		.4byte	0xb4
 2418 0c06 0F       		.byte	0xf
 2419 0c07 08       		.uleb128 0x8
 2420 0c08 FF050000 		.4byte	.LASF170
 2421 0c0c 16       		.byte	0x16
 2422 0c0d 41       		.byte	0x41
 2423 0c0e B4000000 		.4byte	0xb4
 2424 0c12 10       		.byte	0x10
 2425 0c13 08       		.uleb128 0x8
 2426 0c14 F2040000 		.4byte	.LASF171
 2427 0c18 16       		.byte	0x16
 2428 0c19 42       		.byte	0x42
 2429 0c1a B4000000 		.4byte	0xb4
 2430 0c1e 11       		.byte	0x11
 2431 0c1f 08       		.uleb128 0x8
 2432 0c20 D40A0000 		.4byte	.LASF172
 2433 0c24 16       		.byte	0x16
 2434 0c25 43       		.byte	0x43
 2435 0c26 B4000000 		.4byte	0xb4
 2436 0c2a 12       		.byte	0x12
 2437 0c2b 08       		.uleb128 0x8
 2438 0c2c 81030000 		.4byte	.LASF173
 2439 0c30 16       		.byte	0x16
 2440 0c31 44       		.byte	0x44
ARM GAS  C:\Users\RAKIBU~1\AppData\Local\Temp\cclagJ2i.s 			page 44


 2441 0c32 B4000000 		.4byte	0xb4
 2442 0c36 13       		.byte	0x13
 2443 0c37 08       		.uleb128 0x8
 2444 0c38 30000000 		.4byte	.LASF174
 2445 0c3c 16       		.byte	0x16
 2446 0c3d 45       		.byte	0x45
 2447 0c3e B4000000 		.4byte	0xb4
 2448 0c42 14       		.byte	0x14
 2449 0c43 08       		.uleb128 0x8
 2450 0c44 C8030000 		.4byte	.LASF175
 2451 0c48 16       		.byte	0x16
 2452 0c49 46       		.byte	0x46
 2453 0c4a B4000000 		.4byte	0xb4
 2454 0c4e 15       		.byte	0x15
 2455 0c4f 00       		.byte	0
 2456 0c50 14       		.uleb128 0x14
 2457 0c51 9D080000 		.4byte	0x89d
 2458 0c55 600C0000 		.4byte	0xc60
 2459 0c59 15       		.uleb128 0x15
 2460 0c5a 37000000 		.4byte	0x37
 2461 0c5e 03       		.byte	0x3
 2462 0c5f 00       		.byte	0
 2463 0c60 03       		.uleb128 0x3
 2464 0c61 C6090000 		.4byte	.LASF176
 2465 0c65 16       		.byte	0x16
 2466 0c66 47       		.byte	0x47
 2467 0c67 6F0B0000 		.4byte	0xb6f
 2468 0c6b 05       		.uleb128 0x5
 2469 0c6c 600C0000 		.4byte	0xc60
 2470 0c70 19       		.uleb128 0x19
 2471 0c71 4A000000 		.4byte	.LASF177
 2472 0c75 16       		.byte	0x16
 2473 0c76 6C       		.byte	0x6c
 2474 0c77 6B0C0000 		.4byte	0xc6b
 2475 0c7b 03       		.uleb128 0x3
 2476 0c7c 3E0A0000 		.4byte	.LASF178
 2477 0c80 15       		.byte	0x15
 2478 0c81 34       		.byte	0x34
 2479 0c82 0A0B0000 		.4byte	0xb0a
 2480 0c86 0C       		.uleb128 0xc
 2481 0c87 04       		.byte	0x4
 2482 0c88 7B0C0000 		.4byte	0xc7b
 2483 0c8c 04       		.uleb128 0x4
 2484 0c8d 01       		.byte	0x1
 2485 0c8e 02       		.byte	0x2
 2486 0c8f 06030000 		.4byte	.LASF179
 2487 0c93 03       		.uleb128 0x3
 2488 0c94 2C070000 		.4byte	.LASF180
 2489 0c98 17       		.byte	0x17
 2490 0c99 47       		.byte	0x47
 2491 0c9a 9E0C0000 		.4byte	0xc9e
 2492 0c9e 0C       		.uleb128 0xc
 2493 0c9f 04       		.byte	0x4
 2494 0ca0 A40C0000 		.4byte	0xca4
 2495 0ca4 23       		.uleb128 0x23
 2496 0ca5 4B030000 		.4byte	0x34b
 2497 0ca9 B80C0000 		.4byte	0xcb8
ARM GAS  C:\Users\RAKIBU~1\AppData\Local\Temp\cclagJ2i.s 			page 45


 2498 0cad 0F       		.uleb128 0xf
 2499 0cae 2C000000 		.4byte	0x2c
 2500 0cb2 0F       		.uleb128 0xf
 2501 0cb3 37000000 		.4byte	0x37
 2502 0cb7 00       		.byte	0
 2503 0cb8 1A       		.uleb128 0x1a
 2504 0cb9 08       		.byte	0x8
 2505 0cba 17       		.byte	0x17
 2506 0cbb 51       		.byte	0x51
 2507 0cbc D90C0000 		.4byte	0xcd9
 2508 0cc0 08       		.uleb128 0x8
 2509 0cc1 38040000 		.4byte	.LASF181
 2510 0cc5 17       		.byte	0x17
 2511 0cc6 55       		.byte	0x55
 2512 0cc7 D90C0000 		.4byte	0xcd9
 2513 0ccb 00       		.byte	0
 2514 0ccc 08       		.uleb128 0x8
 2515 0ccd 18000000 		.4byte	.LASF182
 2516 0cd1 17       		.byte	0x17
 2517 0cd2 59       		.byte	0x59
 2518 0cd3 D90C0000 		.4byte	0xcd9
 2519 0cd7 04       		.byte	0x4
 2520 0cd8 00       		.byte	0
 2521 0cd9 0C       		.uleb128 0xc
 2522 0cda 04       		.byte	0x4
 2523 0cdb B4000000 		.4byte	0xb4
 2524 0cdf 03       		.uleb128 0x3
 2525 0ce0 3B020000 		.4byte	.LASF183
 2526 0ce4 17       		.byte	0x17
 2527 0ce5 5A       		.byte	0x5a
 2528 0ce6 B80C0000 		.4byte	0xcb8
 2529 0cea 19       		.uleb128 0x19
 2530 0ceb C90A0000 		.4byte	.LASF184
 2531 0cef 17       		.byte	0x17
 2532 0cf0 65       		.byte	0x65
 2533 0cf1 DF0C0000 		.4byte	0xcdf
 2534 0cf5 07       		.uleb128 0x7
 2535 0cf6 0C060000 		.4byte	.LASF185
 2536 0cfa 04       		.byte	0x4
 2537 0cfb 18       		.byte	0x18
 2538 0cfc 38       		.byte	0x38
 2539 0cfd 0E0D0000 		.4byte	0xd0e
 2540 0d01 08       		.uleb128 0x8
 2541 0d02 DE0A0000 		.4byte	.LASF52
 2542 0d06 18       		.byte	0x18
 2543 0d07 39       		.byte	0x39
 2544 0d08 0E0D0000 		.4byte	0xd0e
 2545 0d0c 00       		.byte	0
 2546 0d0d 00       		.byte	0
 2547 0d0e 0C       		.uleb128 0xc
 2548 0d0f 04       		.byte	0x4
 2549 0d10 F50C0000 		.4byte	0xcf5
 2550 0d14 1A       		.uleb128 0x1a
 2551 0d15 10       		.byte	0x10
 2552 0d16 18       		.byte	0x18
 2553 0d17 40       		.byte	0x40
 2554 0d18 4D0D0000 		.4byte	0xd4d
ARM GAS  C:\Users\RAKIBU~1\AppData\Local\Temp\cclagJ2i.s 			page 46


 2555 0d1c 08       		.uleb128 0x8
 2556 0d1d DE0A0000 		.4byte	.LASF52
 2557 0d21 18       		.byte	0x18
 2558 0d22 41       		.byte	0x41
 2559 0d23 0E0D0000 		.4byte	0xd0e
 2560 0d27 00       		.byte	0
 2561 0d28 08       		.uleb128 0x8
 2562 0d29 190A0000 		.4byte	.LASF186
 2563 0d2d 18       		.byte	0x18
 2564 0d2e 42       		.byte	0x42
 2565 0d2f 2C000000 		.4byte	0x2c
 2566 0d33 04       		.byte	0x4
 2567 0d34 08       		.uleb128 0x8
 2568 0d35 A1060000 		.4byte	.LASF187
 2569 0d39 18       		.byte	0x18
 2570 0d3a 44       		.byte	0x44
 2571 0d3b 37000000 		.4byte	0x37
 2572 0d3f 08       		.byte	0x8
 2573 0d40 08       		.uleb128 0x8
 2574 0d41 66000000 		.4byte	.LASF188
 2575 0d45 18       		.byte	0x18
 2576 0d46 45       		.byte	0x45
 2577 0d47 930C0000 		.4byte	0xc93
 2578 0d4b 0C       		.byte	0xc
 2579 0d4c 00       		.byte	0
 2580 0d4d 03       		.uleb128 0x3
 2581 0d4e 52090000 		.4byte	.LASF189
 2582 0d52 18       		.byte	0x18
 2583 0d53 47       		.byte	0x47
 2584 0d54 140D0000 		.4byte	0xd14
 2585 0d58 07       		.uleb128 0x7
 2586 0d59 FD000000 		.4byte	.LASF190
 2587 0d5d 10       		.byte	0x10
 2588 0d5e 19       		.byte	0x19
 2589 0d5f A9       		.byte	0xa9
 2590 0d60 890D0000 		.4byte	0xd89
 2591 0d64 08       		.uleb128 0x8
 2592 0d65 DE0A0000 		.4byte	.LASF52
 2593 0d69 19       		.byte	0x19
 2594 0d6a AD       		.byte	0xad
 2595 0d6b 890D0000 		.4byte	0xd89
 2596 0d6f 00       		.byte	0
 2597 0d70 08       		.uleb128 0x8
 2598 0d71 C7080000 		.4byte	.LASF40
 2599 0d75 19       		.byte	0x19
 2600 0d76 B1       		.byte	0xb1
 2601 0d77 62010000 		.4byte	0x162
 2602 0d7b 04       		.byte	0x4
 2603 0d7c 08       		.uleb128 0x8
 2604 0d7d 9F090000 		.4byte	.LASF36
 2605 0d81 19       		.byte	0x19
 2606 0d82 B3       		.byte	0xb3
 2607 0d83 8F0D0000 		.4byte	0xd8f
 2608 0d87 08       		.byte	0x8
 2609 0d88 00       		.byte	0
 2610 0d89 0C       		.uleb128 0xc
 2611 0d8a 04       		.byte	0x4
ARM GAS  C:\Users\RAKIBU~1\AppData\Local\Temp\cclagJ2i.s 			page 47


 2612 0d8b 580D0000 		.4byte	0xd58
 2613 0d8f 14       		.uleb128 0x14
 2614 0d90 9D080000 		.4byte	0x89d
 2615 0d94 9F0D0000 		.4byte	0xd9f
 2616 0d98 15       		.uleb128 0x15
 2617 0d99 37000000 		.4byte	0x37
 2618 0d9d 07       		.byte	0x7
 2619 0d9e 00       		.byte	0
 2620 0d9f 03       		.uleb128 0x3
 2621 0da0 FA030000 		.4byte	.LASF191
 2622 0da4 19       		.byte	0x19
 2623 0da5 B7       		.byte	0xb7
 2624 0da6 580D0000 		.4byte	0xd58
 2625 0daa 07       		.uleb128 0x7
 2626 0dab E80A0000 		.4byte	.LASF192
 2627 0daf 04       		.byte	0x4
 2628 0db0 19       		.byte	0x19
 2629 0db1 BC       		.byte	0xbc
 2630 0db2 C30D0000 		.4byte	0xdc3
 2631 0db6 08       		.uleb128 0x8
 2632 0db7 DE0A0000 		.4byte	.LASF52
 2633 0dbb 19       		.byte	0x19
 2634 0dbc BD       		.byte	0xbd
 2635 0dbd C30D0000 		.4byte	0xdc3
 2636 0dc1 00       		.byte	0
 2637 0dc2 00       		.byte	0
 2638 0dc3 0C       		.uleb128 0xc
 2639 0dc4 04       		.byte	0x4
 2640 0dc5 9F0D0000 		.4byte	0xd9f
 2641 0dc9 03       		.uleb128 0x3
 2642 0dca 0E0A0000 		.4byte	.LASF193
 2643 0dce 19       		.byte	0x19
 2644 0dcf BE       		.byte	0xbe
 2645 0dd0 AA0D0000 		.4byte	0xdaa
 2646 0dd4 0D       		.uleb128 0xd
 2647 0dd5 89060000 		.4byte	.LASF194
 2648 0dd9 48       		.byte	0x48
 2649 0dda 19       		.byte	0x19
 2650 0ddb 3E01     		.2byte	0x13e
 2651 0ddd 570E0000 		.4byte	0xe57
 2652 0de1 0A       		.uleb128 0xa
 2653 0de2 6D747800 		.ascii	"mtx\000"
 2654 0de6 19       		.byte	0x19
 2655 0de7 4301     		.2byte	0x143
 2656 0de9 7B0C0000 		.4byte	0xc7b
 2657 0ded 00       		.byte	0
 2658 0dee 0B       		.uleb128 0xb
 2659 0def EF000000 		.4byte	.LASF195
 2660 0df3 19       		.byte	0x19
 2661 0df4 4A01     		.2byte	0x14a
 2662 0df6 C90D0000 		.4byte	0xdc9
 2663 0dfa 10       		.byte	0x10
 2664 0dfb 0B       		.uleb128 0xb
 2665 0dfc 0A020000 		.4byte	.LASF196
 2666 0e00 19       		.byte	0x19
 2667 0e01 4E01     		.2byte	0x14e
 2668 0e03 4D0D0000 		.4byte	0xd4d
ARM GAS  C:\Users\RAKIBU~1\AppData\Local\Temp\cclagJ2i.s 			page 48


 2669 0e07 14       		.byte	0x14
 2670 0e08 0B       		.uleb128 0xb
 2671 0e09 A1070000 		.4byte	.LASF197
 2672 0e0d 19       		.byte	0x19
 2673 0e0e 5301     		.2byte	0x153
 2674 0e10 C90D0000 		.4byte	0xdc9
 2675 0e14 24       		.byte	0x24
 2676 0e15 0B       		.uleb128 0xb
 2677 0e16 4C030000 		.4byte	.LASF198
 2678 0e1a 19       		.byte	0x19
 2679 0e1b 5901     		.2byte	0x159
 2680 0e1d C90D0000 		.4byte	0xdc9
 2681 0e21 28       		.byte	0x28
 2682 0e22 0B       		.uleb128 0xb
 2683 0e23 2F040000 		.4byte	.LASF199
 2684 0e27 19       		.byte	0x19
 2685 0e28 5D01     		.2byte	0x15d
 2686 0e2a 4D0D0000 		.4byte	0xd4d
 2687 0e2e 2C       		.byte	0x2c
 2688 0e2f 0B       		.uleb128 0xb
 2689 0e30 02090000 		.4byte	.LASF200
 2690 0e34 19       		.byte	0x19
 2691 0e35 6301     		.2byte	0x163
 2692 0e37 C90D0000 		.4byte	0xdc9
 2693 0e3b 3C       		.byte	0x3c
 2694 0e3c 0B       		.uleb128 0xb
 2695 0e3d AA050000 		.4byte	.LASF201
 2696 0e41 19       		.byte	0x19
 2697 0e42 6901     		.2byte	0x169
 2698 0e44 C90D0000 		.4byte	0xdc9
 2699 0e48 40       		.byte	0x40
 2700 0e49 0B       		.uleb128 0xb
 2701 0e4a E9030000 		.4byte	.LASF202
 2702 0e4e 19       		.byte	0x19
 2703 0e4f 6F01     		.2byte	0x16f
 2704 0e51 C90D0000 		.4byte	0xdc9
 2705 0e55 44       		.byte	0x44
 2706 0e56 00       		.byte	0
 2707 0e57 17       		.uleb128 0x17
 2708 0e58 8F070000 		.4byte	.LASF203
 2709 0e5c 19       		.byte	0x19
 2710 0e5d 7101     		.2byte	0x171
 2711 0e5f D40D0000 		.4byte	0xdd4
 2712 0e63 18       		.uleb128 0x18
 2713 0e64 E2080000 		.4byte	.LASF204
 2714 0e68 19       		.byte	0x19
 2715 0e69 7C01     		.2byte	0x17c
 2716 0e6b 570E0000 		.4byte	0xe57
 2717 0e6f 24       		.uleb128 0x24
 2718 0e70 B6080000 		.4byte	.LASF205
 2719 0e74 01       		.byte	0x1
 2720 0e75 0101     		.2byte	0x101
 2721 0e77 E0020000 		.4byte	.LFB306
 2722 0e7b 4C000000 		.4byte	.LFE306-.LFB306
 2723 0e7f 01       		.uleb128 0x1
 2724 0e80 9C       		.byte	0x9c
 2725 0e81 700F0000 		.4byte	0xf70
ARM GAS  C:\Users\RAKIBU~1\AppData\Local\Temp\cclagJ2i.s 			page 49


 2726 0e85 25       		.uleb128 0x25
 2727 0e86 9C060000 		.4byte	.LASF207
 2728 0e8a 01       		.byte	0x1
 2729 0e8b 0101     		.2byte	0x101
 2730 0e8d C4000000 		.4byte	0xc4
 2731 0e91 00000000 		.4byte	.LLST21
 2732 0e95 26       		.uleb128 0x26
 2733 0e96 9B140000 		.4byte	0x149b
 2734 0e9a E4020000 		.4byte	.LBB146
 2735 0e9e 0E000000 		.4byte	.LBE146-.LBB146
 2736 0ea2 01       		.byte	0x1
 2737 0ea3 0301     		.2byte	0x103
 2738 0ea5 EB0E0000 		.4byte	0xeeb
 2739 0ea9 26       		.uleb128 0x26
 2740 0eaa E4140000 		.4byte	0x14e4
 2741 0eae E4020000 		.4byte	.LBB148
 2742 0eb2 06000000 		.4byte	.LBE148-.LBB148
 2743 0eb6 05       		.byte	0x5
 2744 0eb7 6301     		.2byte	0x163
 2745 0eb9 D80E0000 		.4byte	0xed8
 2746 0ebd 27       		.uleb128 0x27
 2747 0ebe ED140000 		.4byte	0x14ed
 2748 0ec2 E4020000 		.4byte	.LBB149
 2749 0ec6 06000000 		.4byte	.LBE149-.LBB149
 2750 0eca 03       		.byte	0x3
 2751 0ecb 6502     		.2byte	0x265
 2752 0ecd 28       		.uleb128 0x28
 2753 0ece FA140000 		.4byte	0x14fa
 2754 0ed2 21000000 		.4byte	.LLST22
 2755 0ed6 00       		.byte	0
 2756 0ed7 00       		.byte	0
 2757 0ed8 29       		.uleb128 0x29
 2758 0ed9 EE020000 		.4byte	.LVL53
 2759 0edd 07150000 		.4byte	0x1507
 2760 0ee1 29       		.uleb128 0x29
 2761 0ee2 F2020000 		.4byte	.LVL54
 2762 0ee6 12150000 		.4byte	0x1512
 2763 0eea 00       		.byte	0
 2764 0eeb 2A       		.uleb128 0x2a
 2765 0eec 6B140000 		.4byte	0x146b
 2766 0ef0 F8020000 		.4byte	.LBB151
 2767 0ef4 30000000 		.4byte	.Ldebug_ranges0+0x30
 2768 0ef8 01       		.byte	0x1
 2769 0ef9 0501     		.2byte	0x105
 2770 0efb 5F0F0000 		.4byte	0xf5f
 2771 0eff 2B       		.uleb128 0x2b
 2772 0f00 30000000 		.4byte	.Ldebug_ranges0+0x30
 2773 0f04 2C       		.uleb128 0x2c
 2774 0f05 78140000 		.4byte	0x1478
 2775 0f09 26       		.uleb128 0x26
 2776 0f0a DB140000 		.4byte	0x14db
 2777 0f0e 12030000 		.4byte	.LBB153
 2778 0f12 06000000 		.4byte	.LBE153-.LBB153
 2779 0f16 05       		.byte	0x5
 2780 0f17 7A01     		.2byte	0x17a
 2781 0f19 380F0000 		.4byte	0xf38
 2782 0f1d 27       		.uleb128 0x27
ARM GAS  C:\Users\RAKIBU~1\AppData\Local\Temp\cclagJ2i.s 			page 50


 2783 0f1e ED140000 		.4byte	0x14ed
 2784 0f22 12030000 		.4byte	.LBB154
 2785 0f26 06000000 		.4byte	.LBE154-.LBB154
 2786 0f2a 03       		.byte	0x3
 2787 0f2b 7802     		.2byte	0x278
 2788 0f2d 28       		.uleb128 0x28
 2789 0f2e FA140000 		.4byte	0x14fa
 2790 0f32 36000000 		.4byte	.LLST23
 2791 0f36 00       		.byte	0
 2792 0f37 00       		.byte	0
 2793 0f38 29       		.uleb128 0x29
 2794 0f39 FC020000 		.4byte	.LVL56
 2795 0f3d 1D150000 		.4byte	0x151d
 2796 0f41 29       		.uleb128 0x29
 2797 0f42 00030000 		.4byte	.LVL57
 2798 0f46 28150000 		.4byte	0x1528
 2799 0f4a 2D       		.uleb128 0x2d
 2800 0f4b 20030000 		.4byte	.LVL60
 2801 0f4f 33150000 		.4byte	0x1533
 2802 0f53 2E       		.uleb128 0x2e
 2803 0f54 01       		.uleb128 0x1
 2804 0f55 50       		.byte	0x50
 2805 0f56 05       		.uleb128 0x5
 2806 0f57 03       		.byte	0x3
 2807 0f58 00000000 		.4byte	.LANCHOR0
 2808 0f5c 00       		.byte	0
 2809 0f5d 00       		.byte	0
 2810 0f5e 00       		.byte	0
 2811 0f5f 2D       		.uleb128 0x2d
 2812 0f60 F8020000 		.4byte	.LVL55
 2813 0f64 700F0000 		.4byte	0xf70
 2814 0f68 2E       		.uleb128 0x2e
 2815 0f69 01       		.uleb128 0x1
 2816 0f6a 50       		.byte	0x50
 2817 0f6b 02       		.uleb128 0x2
 2818 0f6c 74       		.byte	0x74
 2819 0f6d 00       		.sleb128 0
 2820 0f6e 00       		.byte	0
 2821 0f6f 00       		.byte	0
 2822 0f70 2F       		.uleb128 0x2f
 2823 0f71 98050000 		.4byte	.LASF206
 2824 0f75 01       		.byte	0x1
 2825 0f76 F3       		.byte	0xf3
 2826 0f77 C0020000 		.4byte	.LFB305
 2827 0f7b 1C000000 		.4byte	.LFE305-.LFB305
 2828 0f7f 01       		.uleb128 0x1
 2829 0f80 9C       		.byte	0x9c
 2830 0f81 9E0F0000 		.4byte	0xf9e
 2831 0f85 30       		.uleb128 0x30
 2832 0f86 9C060000 		.4byte	.LASF207
 2833 0f8a 01       		.byte	0x1
 2834 0f8b F3       		.byte	0xf3
 2835 0f8c C4000000 		.4byte	0xc4
 2836 0f90 4A000000 		.4byte	.LLST20
 2837 0f94 29       		.uleb128 0x29
 2838 0f95 C8020000 		.4byte	.LVL49
 2839 0f99 3E150000 		.4byte	0x153e
ARM GAS  C:\Users\RAKIBU~1\AppData\Local\Temp\cclagJ2i.s 			page 51


 2840 0f9d 00       		.byte	0
 2841 0f9e 2F       		.uleb128 0x2f
 2842 0f9f D1030000 		.4byte	.LASF208
 2843 0fa3 01       		.byte	0x1
 2844 0fa4 E5       		.byte	0xe5
 2845 0fa5 70020000 		.4byte	.LFB304
 2846 0fa9 4C000000 		.4byte	.LFE304-.LFB304
 2847 0fad 01       		.uleb128 0x1
 2848 0fae 9C       		.byte	0x9c
 2849 0faf 9B100000 		.4byte	0x109b
 2850 0fb3 30       		.uleb128 0x30
 2851 0fb4 9C060000 		.4byte	.LASF207
 2852 0fb8 01       		.byte	0x1
 2853 0fb9 E5       		.byte	0xe5
 2854 0fba C4000000 		.4byte	0xc4
 2855 0fbe 6B000000 		.4byte	.LLST17
 2856 0fc2 31       		.uleb128 0x31
 2857 0fc3 9B140000 		.4byte	0x149b
 2858 0fc7 74020000 		.4byte	.LBB124
 2859 0fcb 0E000000 		.4byte	.LBE124-.LBB124
 2860 0fcf 01       		.byte	0x1
 2861 0fd0 E7       		.byte	0xe7
 2862 0fd1 17100000 		.4byte	0x1017
 2863 0fd5 26       		.uleb128 0x26
 2864 0fd6 E4140000 		.4byte	0x14e4
 2865 0fda 74020000 		.4byte	.LBB126
 2866 0fde 06000000 		.4byte	.LBE126-.LBB126
 2867 0fe2 05       		.byte	0x5
 2868 0fe3 6301     		.2byte	0x163
 2869 0fe5 04100000 		.4byte	0x1004
 2870 0fe9 27       		.uleb128 0x27
 2871 0fea ED140000 		.4byte	0x14ed
 2872 0fee 74020000 		.4byte	.LBB127
 2873 0ff2 06000000 		.4byte	.LBE127-.LBB127
 2874 0ff6 03       		.byte	0x3
 2875 0ff7 6502     		.2byte	0x265
 2876 0ff9 28       		.uleb128 0x28
 2877 0ffa FA140000 		.4byte	0x14fa
 2878 0ffe 8C000000 		.4byte	.LLST18
 2879 1002 00       		.byte	0
 2880 1003 00       		.byte	0
 2881 1004 29       		.uleb128 0x29
 2882 1005 7E020000 		.4byte	.LVL40
 2883 1009 07150000 		.4byte	0x1507
 2884 100d 29       		.uleb128 0x29
 2885 100e 82020000 		.4byte	.LVL41
 2886 1012 12150000 		.4byte	0x1512
 2887 1016 00       		.byte	0
 2888 1017 32       		.uleb128 0x32
 2889 1018 6B140000 		.4byte	0x146b
 2890 101c 88020000 		.4byte	.LBB129
 2891 1020 18000000 		.4byte	.Ldebug_ranges0+0x18
 2892 1024 01       		.byte	0x1
 2893 1025 E9       		.byte	0xe9
 2894 1026 8A100000 		.4byte	0x108a
 2895 102a 2B       		.uleb128 0x2b
 2896 102b 18000000 		.4byte	.Ldebug_ranges0+0x18
ARM GAS  C:\Users\RAKIBU~1\AppData\Local\Temp\cclagJ2i.s 			page 52


 2897 102f 2C       		.uleb128 0x2c
 2898 1030 78140000 		.4byte	0x1478
 2899 1034 26       		.uleb128 0x26
 2900 1035 DB140000 		.4byte	0x14db
 2901 1039 A2020000 		.4byte	.LBB131
 2902 103d 06000000 		.4byte	.LBE131-.LBB131
 2903 1041 05       		.byte	0x5
 2904 1042 7A01     		.2byte	0x17a
 2905 1044 63100000 		.4byte	0x1063
 2906 1048 27       		.uleb128 0x27
 2907 1049 ED140000 		.4byte	0x14ed
 2908 104d A2020000 		.4byte	.LBB132
 2909 1051 06000000 		.4byte	.LBE132-.LBB132
 2910 1055 03       		.byte	0x3
 2911 1056 7802     		.2byte	0x278
 2912 1058 28       		.uleb128 0x28
 2913 1059 FA140000 		.4byte	0x14fa
 2914 105d A1000000 		.4byte	.LLST19
 2915 1061 00       		.byte	0
 2916 1062 00       		.byte	0
 2917 1063 29       		.uleb128 0x29
 2918 1064 8C020000 		.4byte	.LVL43
 2919 1068 1D150000 		.4byte	0x151d
 2920 106c 29       		.uleb128 0x29
 2921 106d 90020000 		.4byte	.LVL44
 2922 1071 28150000 		.4byte	0x1528
 2923 1075 2D       		.uleb128 0x2d
 2924 1076 B0020000 		.4byte	.LVL47
 2925 107a 33150000 		.4byte	0x1533
 2926 107e 2E       		.uleb128 0x2e
 2927 107f 01       		.uleb128 0x1
 2928 1080 50       		.byte	0x50
 2929 1081 05       		.uleb128 0x5
 2930 1082 03       		.byte	0x3
 2931 1083 00000000 		.4byte	.LANCHOR0
 2932 1087 00       		.byte	0
 2933 1088 00       		.byte	0
 2934 1089 00       		.byte	0
 2935 108a 2D       		.uleb128 0x2d
 2936 108b 88020000 		.4byte	.LVL42
 2937 108f 9B100000 		.4byte	0x109b
 2938 1093 2E       		.uleb128 0x2e
 2939 1094 01       		.uleb128 0x1
 2940 1095 50       		.byte	0x50
 2941 1096 02       		.uleb128 0x2
 2942 1097 74       		.byte	0x74
 2943 1098 00       		.sleb128 0
 2944 1099 00       		.byte	0
 2945 109a 00       		.byte	0
 2946 109b 2F       		.uleb128 0x2f
 2947 109c 53000000 		.4byte	.LASF209
 2948 10a0 01       		.byte	0x1
 2949 10a1 D7       		.byte	0xd7
 2950 10a2 50020000 		.4byte	.LFB303
 2951 10a6 1C000000 		.4byte	.LFE303-.LFB303
 2952 10aa 01       		.uleb128 0x1
 2953 10ab 9C       		.byte	0x9c
ARM GAS  C:\Users\RAKIBU~1\AppData\Local\Temp\cclagJ2i.s 			page 53


 2954 10ac C9100000 		.4byte	0x10c9
 2955 10b0 30       		.uleb128 0x30
 2956 10b1 9C060000 		.4byte	.LASF207
 2957 10b5 01       		.byte	0x1
 2958 10b6 D7       		.byte	0xd7
 2959 10b7 C4000000 		.4byte	0xc4
 2960 10bb B5000000 		.4byte	.LLST16
 2961 10bf 29       		.uleb128 0x29
 2962 10c0 58020000 		.4byte	.LVL36
 2963 10c4 3E150000 		.4byte	0x153e
 2964 10c8 00       		.byte	0
 2965 10c9 2F       		.uleb128 0x2f
 2966 10ca 42090000 		.4byte	.LASF210
 2967 10ce 01       		.byte	0x1
 2968 10cf C9       		.byte	0xc9
 2969 10d0 00020000 		.4byte	.LFB302
 2970 10d4 50000000 		.4byte	.LFE302-.LFB302
 2971 10d8 01       		.uleb128 0x1
 2972 10d9 9C       		.byte	0x9c
 2973 10da DB110000 		.4byte	0x11db
 2974 10de 33       		.uleb128 0x33
 2975 10df 75703100 		.ascii	"up1\000"
 2976 10e3 01       		.byte	0x1
 2977 10e4 C9       		.byte	0xc9
 2978 10e5 4B030000 		.4byte	0x34b
 2979 10e9 D6000000 		.4byte	.LLST12
 2980 10ed 33       		.uleb128 0x33
 2981 10ee 75703200 		.ascii	"up2\000"
 2982 10f2 01       		.byte	0x1
 2983 10f3 C9       		.byte	0xc9
 2984 10f4 4B030000 		.4byte	0x34b
 2985 10f8 F4000000 		.4byte	.LLST13
 2986 10fc 31       		.uleb128 0x31
 2987 10fd 9B140000 		.4byte	0x149b
 2988 1101 06020000 		.4byte	.LBB102
 2989 1105 0E000000 		.4byte	.LBE102-.LBB102
 2990 1109 01       		.byte	0x1
 2991 110a CB       		.byte	0xcb
 2992 110b 51110000 		.4byte	0x1151
 2993 110f 26       		.uleb128 0x26
 2994 1110 E4140000 		.4byte	0x14e4
 2995 1114 06020000 		.4byte	.LBB104
 2996 1118 06000000 		.4byte	.LBE104-.LBB104
 2997 111c 05       		.byte	0x5
 2998 111d 6301     		.2byte	0x163
 2999 111f 3E110000 		.4byte	0x113e
 3000 1123 27       		.uleb128 0x27
 3001 1124 ED140000 		.4byte	0x14ed
 3002 1128 06020000 		.4byte	.LBB105
 3003 112c 06000000 		.4byte	.LBE105-.LBB105
 3004 1130 03       		.byte	0x3
 3005 1131 6502     		.2byte	0x265
 3006 1133 28       		.uleb128 0x28
 3007 1134 FA140000 		.4byte	0x14fa
 3008 1138 12010000 		.4byte	.LLST14
 3009 113c 00       		.byte	0
 3010 113d 00       		.byte	0
ARM GAS  C:\Users\RAKIBU~1\AppData\Local\Temp\cclagJ2i.s 			page 54


 3011 113e 29       		.uleb128 0x29
 3012 113f 10020000 		.4byte	.LVL26
 3013 1143 07150000 		.4byte	0x1507
 3014 1147 29       		.uleb128 0x29
 3015 1148 14020000 		.4byte	.LVL27
 3016 114c 12150000 		.4byte	0x1512
 3017 1150 00       		.byte	0
 3018 1151 32       		.uleb128 0x32
 3019 1152 6B140000 		.4byte	0x146b
 3020 1156 1C020000 		.4byte	.LBB107
 3021 115a 00000000 		.4byte	.Ldebug_ranges0+0
 3022 115e 01       		.byte	0x1
 3023 115f CD       		.byte	0xcd
 3024 1160 C4110000 		.4byte	0x11c4
 3025 1164 2B       		.uleb128 0x2b
 3026 1165 00000000 		.4byte	.Ldebug_ranges0+0
 3027 1169 2C       		.uleb128 0x2c
 3028 116a 78140000 		.4byte	0x1478
 3029 116e 26       		.uleb128 0x26
 3030 116f DB140000 		.4byte	0x14db
 3031 1173 36020000 		.4byte	.LBB109
 3032 1177 06000000 		.4byte	.LBE109-.LBB109
 3033 117b 05       		.byte	0x5
 3034 117c 7A01     		.2byte	0x17a
 3035 117e 9D110000 		.4byte	0x119d
 3036 1182 27       		.uleb128 0x27
 3037 1183 ED140000 		.4byte	0x14ed
 3038 1187 36020000 		.4byte	.LBB110
 3039 118b 06000000 		.4byte	.LBE110-.LBB110
 3040 118f 03       		.byte	0x3
 3041 1190 7802     		.2byte	0x278
 3042 1192 28       		.uleb128 0x28
 3043 1193 FA140000 		.4byte	0x14fa
 3044 1197 27010000 		.4byte	.LLST15
 3045 119b 00       		.byte	0
 3046 119c 00       		.byte	0
 3047 119d 29       		.uleb128 0x29
 3048 119e 20020000 		.4byte	.LVL29
 3049 11a2 1D150000 		.4byte	0x151d
 3050 11a6 29       		.uleb128 0x29
 3051 11a7 24020000 		.4byte	.LVL30
 3052 11ab 28150000 		.4byte	0x1528
 3053 11af 2D       		.uleb128 0x2d
 3054 11b0 44020000 		.4byte	.LVL34
 3055 11b4 33150000 		.4byte	0x1533
 3056 11b8 2E       		.uleb128 0x2e
 3057 11b9 01       		.uleb128 0x1
 3058 11ba 50       		.byte	0x50
 3059 11bb 05       		.uleb128 0x5
 3060 11bc 03       		.byte	0x3
 3061 11bd 00000000 		.4byte	.LANCHOR0
 3062 11c1 00       		.byte	0
 3063 11c2 00       		.byte	0
 3064 11c3 00       		.byte	0
 3065 11c4 2D       		.uleb128 0x2d
 3066 11c5 1C020000 		.4byte	.LVL28
 3067 11c9 DB110000 		.4byte	0x11db
ARM GAS  C:\Users\RAKIBU~1\AppData\Local\Temp\cclagJ2i.s 			page 55


 3068 11cd 2E       		.uleb128 0x2e
 3069 11ce 01       		.uleb128 0x1
 3070 11cf 50       		.byte	0x50
 3071 11d0 02       		.uleb128 0x2
 3072 11d1 74       		.byte	0x74
 3073 11d2 00       		.sleb128 0
 3074 11d3 2E       		.uleb128 0x2e
 3075 11d4 01       		.uleb128 0x1
 3076 11d5 51       		.byte	0x51
 3077 11d6 02       		.uleb128 0x2
 3078 11d7 75       		.byte	0x75
 3079 11d8 00       		.sleb128 0
 3080 11d9 00       		.byte	0
 3081 11da 00       		.byte	0
 3082 11db 2F       		.uleb128 0x2f
 3083 11dc 78060000 		.4byte	.LASF211
 3084 11e0 01       		.byte	0x1
 3085 11e1 B4       		.byte	0xb4
 3086 11e2 B0010000 		.4byte	.LFB301
 3087 11e6 44000000 		.4byte	.LFE301-.LFB301
 3088 11ea 01       		.uleb128 0x1
 3089 11eb 9C       		.byte	0x9c
 3090 11ec 21120000 		.4byte	0x1221
 3091 11f0 33       		.uleb128 0x33
 3092 11f1 75703100 		.ascii	"up1\000"
 3093 11f5 01       		.byte	0x1
 3094 11f6 B4       		.byte	0xb4
 3095 11f7 4B030000 		.4byte	0x34b
 3096 11fb 3B010000 		.4byte	.LLST10
 3097 11ff 33       		.uleb128 0x33
 3098 1200 75703200 		.ascii	"up2\000"
 3099 1204 01       		.byte	0x1
 3100 1205 B4       		.byte	0xb4
 3101 1206 4B030000 		.4byte	0x34b
 3102 120a 59010000 		.4byte	.LLST11
 3103 120e 29       		.uleb128 0x29
 3104 120f BA010000 		.4byte	.LVL20
 3105 1213 3E150000 		.4byte	0x153e
 3106 1217 29       		.uleb128 0x29
 3107 1218 EC010000 		.4byte	.LVL22
 3108 121c 07140000 		.4byte	0x1407
 3109 1220 00       		.byte	0
 3110 1221 2F       		.uleb128 0x2f
 3111 1222 5A050000 		.4byte	.LASF212
 3112 1226 01       		.byte	0x1
 3113 1227 A2       		.byte	0xa2
 3114 1228 70010000 		.4byte	.LFB300
 3115 122c 38000000 		.4byte	.LFE300-.LFB300
 3116 1230 01       		.uleb128 0x1
 3117 1231 9C       		.byte	0x9c
 3118 1232 4F120000 		.4byte	0x124f
 3119 1236 30       		.uleb128 0x30
 3120 1237 DB080000 		.4byte	.LASF125
 3121 123b 01       		.byte	0x1
 3122 123c A2       		.byte	0xa2
 3123 123d 92080000 		.4byte	0x892
 3124 1241 77010000 		.4byte	.LLST9
ARM GAS  C:\Users\RAKIBU~1\AppData\Local\Temp\cclagJ2i.s 			page 56


 3125 1245 29       		.uleb128 0x29
 3126 1246 A0010000 		.4byte	.LVL18
 3127 124a 07140000 		.4byte	0x1407
 3128 124e 00       		.byte	0
 3129 124f 2F       		.uleb128 0x2f
 3130 1250 73090000 		.4byte	.LASF213
 3131 1254 01       		.byte	0x1
 3132 1255 8F       		.byte	0x8f
 3133 1256 20010000 		.4byte	.LFB299
 3134 125a 44000000 		.4byte	.LFE299-.LFB299
 3135 125e 01       		.uleb128 0x1
 3136 125f 9C       		.byte	0x9c
 3137 1260 FB120000 		.4byte	0x12fb
 3138 1264 33       		.uleb128 0x33
 3139 1265 69737200 		.ascii	"isr\000"
 3140 1269 01       		.byte	0x1
 3141 126a 8F       		.byte	0x8f
 3142 126b 92080000 		.4byte	0x892
 3143 126f 98010000 		.4byte	.LLST6
 3144 1273 31       		.uleb128 0x31
 3145 1274 D2140000 		.4byte	0x14d2
 3146 1278 30010000 		.4byte	.LBB84
 3147 127c 06000000 		.4byte	.LBE84-.LBB84
 3148 1280 01       		.byte	0x1
 3149 1281 92       		.byte	0x92
 3150 1282 B2120000 		.4byte	0x12b2
 3151 1286 27       		.uleb128 0x27
 3152 1287 E4140000 		.4byte	0x14e4
 3153 128b 30010000 		.4byte	.LBB85
 3154 128f 06000000 		.4byte	.LBE85-.LBB85
 3155 1293 03       		.byte	0x3
 3156 1294 8602     		.2byte	0x286
 3157 1296 27       		.uleb128 0x27
 3158 1297 ED140000 		.4byte	0x14ed
 3159 129b 30010000 		.4byte	.LBB86
 3160 129f 06000000 		.4byte	.LBE86-.LBB86
 3161 12a3 03       		.byte	0x3
 3162 12a4 6502     		.2byte	0x265
 3163 12a6 28       		.uleb128 0x28
 3164 12a7 FA140000 		.4byte	0x14fa
 3165 12ab B9010000 		.4byte	.LLST7
 3166 12af 00       		.byte	0
 3167 12b0 00       		.byte	0
 3168 12b1 00       		.byte	0
 3169 12b2 31       		.uleb128 0x31
 3170 12b3 C9140000 		.4byte	0x14c9
 3171 12b7 56010000 		.4byte	.LBB88
 3172 12bb 06000000 		.4byte	.LBE88-.LBB88
 3173 12bf 01       		.byte	0x1
 3174 12c0 97       		.byte	0x97
 3175 12c1 F1120000 		.4byte	0x12f1
 3176 12c5 27       		.uleb128 0x27
 3177 12c6 DB140000 		.4byte	0x14db
 3178 12ca 56010000 		.4byte	.LBB89
 3179 12ce 06000000 		.4byte	.LBE89-.LBB89
 3180 12d2 03       		.byte	0x3
 3181 12d3 9102     		.2byte	0x291
ARM GAS  C:\Users\RAKIBU~1\AppData\Local\Temp\cclagJ2i.s 			page 57


 3182 12d5 27       		.uleb128 0x27
 3183 12d6 ED140000 		.4byte	0x14ed
 3184 12da 56010000 		.4byte	.LBB90
 3185 12de 06000000 		.4byte	.LBE90-.LBB90
 3186 12e2 03       		.byte	0x3
 3187 12e3 7802     		.2byte	0x278
 3188 12e5 28       		.uleb128 0x28
 3189 12e6 FA140000 		.4byte	0x14fa
 3190 12ea CE010000 		.4byte	.LLST8
 3191 12ee 00       		.byte	0
 3192 12ef 00       		.byte	0
 3193 12f0 00       		.byte	0
 3194 12f1 29       		.uleb128 0x29
 3195 12f2 56010000 		.4byte	.LVL15
 3196 12f6 07140000 		.4byte	0x1407
 3197 12fa 00       		.byte	0
 3198 12fb 2F       		.uleb128 0x2f
 3199 12fc F6060000 		.4byte	.LASF214
 3200 1300 01       		.byte	0x1
 3201 1301 7C       		.byte	0x7c
 3202 1302 D0000000 		.4byte	.LFB298
 3203 1306 44000000 		.4byte	.LFE298-.LFB298
 3204 130a 01       		.uleb128 0x1
 3205 130b 9C       		.byte	0x9c
 3206 130c A7130000 		.4byte	0x13a7
 3207 1310 33       		.uleb128 0x33
 3208 1311 69737200 		.ascii	"isr\000"
 3209 1315 01       		.byte	0x1
 3210 1316 7C       		.byte	0x7c
 3211 1317 92080000 		.4byte	0x892
 3212 131b E2010000 		.4byte	.LLST3
 3213 131f 31       		.uleb128 0x31
 3214 1320 D2140000 		.4byte	0x14d2
 3215 1324 E0000000 		.4byte	.LBB76
 3216 1328 06000000 		.4byte	.LBE76-.LBB76
 3217 132c 01       		.byte	0x1
 3218 132d 7F       		.byte	0x7f
 3219 132e 5E130000 		.4byte	0x135e
 3220 1332 27       		.uleb128 0x27
 3221 1333 E4140000 		.4byte	0x14e4
 3222 1337 E0000000 		.4byte	.LBB77
 3223 133b 06000000 		.4byte	.LBE77-.LBB77
 3224 133f 03       		.byte	0x3
 3225 1340 8602     		.2byte	0x286
 3226 1342 27       		.uleb128 0x27
 3227 1343 ED140000 		.4byte	0x14ed
 3228 1347 E0000000 		.4byte	.LBB78
 3229 134b 06000000 		.4byte	.LBE78-.LBB78
 3230 134f 03       		.byte	0x3
 3231 1350 6502     		.2byte	0x265
 3232 1352 28       		.uleb128 0x28
 3233 1353 FA140000 		.4byte	0x14fa
 3234 1357 03020000 		.4byte	.LLST4
 3235 135b 00       		.byte	0
 3236 135c 00       		.byte	0
 3237 135d 00       		.byte	0
 3238 135e 31       		.uleb128 0x31
ARM GAS  C:\Users\RAKIBU~1\AppData\Local\Temp\cclagJ2i.s 			page 58


 3239 135f C9140000 		.4byte	0x14c9
 3240 1363 06010000 		.4byte	.LBB80
 3241 1367 06000000 		.4byte	.LBE80-.LBB80
 3242 136b 01       		.byte	0x1
 3243 136c 84       		.byte	0x84
 3244 136d 9D130000 		.4byte	0x139d
 3245 1371 27       		.uleb128 0x27
 3246 1372 DB140000 		.4byte	0x14db
 3247 1376 06010000 		.4byte	.LBB81
 3248 137a 06000000 		.4byte	.LBE81-.LBB81
 3249 137e 03       		.byte	0x3
 3250 137f 9102     		.2byte	0x291
 3251 1381 27       		.uleb128 0x27
 3252 1382 ED140000 		.4byte	0x14ed
 3253 1386 06010000 		.4byte	.LBB82
 3254 138a 06000000 		.4byte	.LBE82-.LBB82
 3255 138e 03       		.byte	0x3
 3256 138f 7802     		.2byte	0x278
 3257 1391 28       		.uleb128 0x28
 3258 1392 FA140000 		.4byte	0x14fa
 3259 1396 18020000 		.4byte	.LLST5
 3260 139a 00       		.byte	0
 3261 139b 00       		.byte	0
 3262 139c 00       		.byte	0
 3263 139d 29       		.uleb128 0x29
 3264 139e 06010000 		.4byte	.LVL10
 3265 13a2 07140000 		.4byte	0x1407
 3266 13a6 00       		.byte	0
 3267 13a7 2F       		.uleb128 0x2f
 3268 13a8 D0090000 		.4byte	.LASF215
 3269 13ac 01       		.byte	0x1
 3270 13ad 68       		.byte	0x68
 3271 13ae 80000000 		.4byte	.LFB297
 3272 13b2 44000000 		.4byte	.LFE297-.LFB297
 3273 13b6 01       		.uleb128 0x1
 3274 13b7 9C       		.byte	0x9c
 3275 13b8 E4130000 		.4byte	0x13e4
 3276 13bc 33       		.uleb128 0x33
 3277 13bd 6E747000 		.ascii	"ntp\000"
 3278 13c1 01       		.byte	0x1
 3279 13c2 68       		.byte	0x68
 3280 13c3 6E020000 		.4byte	0x26e
 3281 13c7 2C020000 		.4byte	.LLST1
 3282 13cb 33       		.uleb128 0x33
 3283 13cc 6F747000 		.ascii	"otp\000"
 3284 13d0 01       		.byte	0x1
 3285 13d1 68       		.byte	0x68
 3286 13d2 6E020000 		.4byte	0x26e
 3287 13d6 4D020000 		.4byte	.LLST2
 3288 13da 29       		.uleb128 0x29
 3289 13db BC000000 		.4byte	.LVL6
 3290 13df 07140000 		.4byte	0x1407
 3291 13e3 00       		.byte	0
 3292 13e4 2F       		.uleb128 0x2f
 3293 13e5 EC050000 		.4byte	.LASF216
 3294 13e9 01       		.byte	0x1
 3295 13ea 55       		.byte	0x55
ARM GAS  C:\Users\RAKIBU~1\AppData\Local\Temp\cclagJ2i.s 			page 59


 3296 13eb 40000000 		.4byte	.LFB296
 3297 13ef 3C000000 		.4byte	.LFE296-.LFB296
 3298 13f3 01       		.uleb128 0x1
 3299 13f4 9C       		.byte	0x9c
 3300 13f5 07140000 		.4byte	0x1407
 3301 13f9 34       		.uleb128 0x34
 3302 13fa 6900     		.ascii	"i\000"
 3303 13fc 01       		.byte	0x1
 3304 13fd 56       		.byte	0x56
 3305 13fe 37000000 		.4byte	0x37
 3306 1402 6E020000 		.4byte	.LLST0
 3307 1406 00       		.byte	0
 3308 1407 35       		.uleb128 0x35
 3309 1408 B7020000 		.4byte	.LASF237
 3310 140c 01       		.byte	0x1
 3311 140d 39       		.byte	0x39
 3312 140e 00000000 		.4byte	.LFB295
 3313 1412 3C000000 		.4byte	.LFE295-.LFB295
 3314 1416 01       		.uleb128 0x1
 3315 1417 9C       		.byte	0x9c
 3316 1418 5F140000 		.4byte	0x145f
 3317 141c 31       		.uleb128 0x31
 3318 141d 5F140000 		.4byte	0x145f
 3319 1421 04000000 		.4byte	.LBB70
 3320 1425 06000000 		.4byte	.LBE70-.LBB70
 3321 1429 01       		.byte	0x1
 3322 142a 3B       		.byte	0x3b
 3323 142b 4F140000 		.4byte	0x144f
 3324 142f 36       		.uleb128 0x36
 3325 1430 A4140000 		.4byte	0x14a4
 3326 1434 04000000 		.4byte	.LBB71
 3327 1438 06000000 		.4byte	.LBE71-.LBB71
 3328 143c 1A       		.byte	0x1a
 3329 143d 78       		.byte	0x78
 3330 143e 37       		.uleb128 0x37
 3331 143f B0140000 		.4byte	0x14b0
 3332 1443 04000000 		.4byte	.LBB72
 3333 1447 06000000 		.4byte	.LBE72-.LBB72
 3334 144b 1B       		.byte	0x1b
 3335 144c 6B       		.byte	0x6b
 3336 144d 00       		.byte	0
 3337 144e 00       		.byte	0
 3338 144f 37       		.uleb128 0x37
 3339 1450 BC140000 		.4byte	0x14bc
 3340 1454 0C000000 		.4byte	.LBB74
 3341 1458 04000000 		.4byte	.LBE74-.LBB74
 3342 145c 01       		.byte	0x1
 3343 145d 3D       		.byte	0x3d
 3344 145e 00       		.byte	0
 3345 145f 38       		.uleb128 0x38
 3346 1460 68070000 		.4byte	.LASF217
 3347 1464 1A       		.byte	0x1a
 3348 1465 73       		.byte	0x73
 3349 1466 AC040000 		.4byte	0x4ac
 3350 146a 03       		.byte	0x3
 3351 146b 39       		.uleb128 0x39
 3352 146c FC040000 		.4byte	.LASF226
ARM GAS  C:\Users\RAKIBU~1\AppData\Local\Temp\cclagJ2i.s 			page 60


 3353 1470 05       		.byte	0x5
 3354 1471 6D01     		.2byte	0x16d
 3355 1473 03       		.byte	0x3
 3356 1474 86140000 		.4byte	0x1486
 3357 1478 3A       		.uleb128 0x3a
 3358 1479 9C000000 		.4byte	.LASF238
 3359 147d 96140000 		.4byte	0x1496
 3360 1481 FC040000 		.4byte	.LASF226
 3361 1485 00       		.byte	0
 3362 1486 14       		.uleb128 0x14
 3363 1487 A4080000 		.4byte	0x8a4
 3364 148b 96140000 		.4byte	0x1496
 3365 148f 15       		.uleb128 0x15
 3366 1490 37000000 		.4byte	0x37
 3367 1494 0B       		.byte	0xb
 3368 1495 00       		.byte	0
 3369 1496 05       		.uleb128 0x5
 3370 1497 86140000 		.4byte	0x1486
 3371 149b 3B       		.uleb128 0x3b
 3372 149c 25050000 		.4byte	.LASF221
 3373 14a0 05       		.byte	0x5
 3374 14a1 6101     		.2byte	0x161
 3375 14a3 03       		.byte	0x3
 3376 14a4 38       		.uleb128 0x38
 3377 14a5 B4030000 		.4byte	.LASF218
 3378 14a9 1B       		.byte	0x1b
 3379 14aa 69       		.byte	0x69
 3380 14ab AC040000 		.4byte	0x4ac
 3381 14af 03       		.byte	0x3
 3382 14b0 38       		.uleb128 0x38
 3383 14b1 E6070000 		.4byte	.LASF219
 3384 14b5 02       		.byte	0x2
 3385 14b6 91       		.byte	0x91
 3386 14b7 AC040000 		.4byte	0x4ac
 3387 14bb 03       		.byte	0x3
 3388 14bc 3C       		.uleb128 0x3c
 3389 14bd 4C080000 		.4byte	.LASF220
 3390 14c1 03       		.byte	0x3
 3391 14c2 CD02     		.2byte	0x2cd
 3392 14c4 FF000000 		.4byte	0xff
 3393 14c8 03       		.byte	0x3
 3394 14c9 3B       		.uleb128 0x3b
 3395 14ca AA070000 		.4byte	.LASF222
 3396 14ce 03       		.byte	0x3
 3397 14cf 8F02     		.2byte	0x28f
 3398 14d1 03       		.byte	0x3
 3399 14d2 3B       		.uleb128 0x3b
 3400 14d3 65060000 		.4byte	.LASF223
 3401 14d7 03       		.byte	0x3
 3402 14d8 8402     		.2byte	0x284
 3403 14da 03       		.byte	0x3
 3404 14db 3B       		.uleb128 0x3b
 3405 14dc C8010000 		.4byte	.LASF224
 3406 14e0 03       		.byte	0x3
 3407 14e1 7502     		.2byte	0x275
 3408 14e3 03       		.byte	0x3
 3409 14e4 3B       		.uleb128 0x3b
ARM GAS  C:\Users\RAKIBU~1\AppData\Local\Temp\cclagJ2i.s 			page 61


 3410 14e5 A4090000 		.4byte	.LASF225
 3411 14e9 03       		.byte	0x3
 3412 14ea 5D02     		.2byte	0x25d
 3413 14ec 03       		.byte	0x3
 3414 14ed 39       		.uleb128 0x39
 3415 14ee 28090000 		.4byte	.LASF227
 3416 14f2 04       		.byte	0x4
 3417 14f3 EB01     		.2byte	0x1eb
 3418 14f5 03       		.byte	0x3
 3419 14f6 07150000 		.4byte	0x1507
 3420 14fa 3D       		.uleb128 0x3d
 3421 14fb 18060000 		.4byte	.LASF239
 3422 14ff 04       		.byte	0x4
 3423 1500 EB01     		.2byte	0x1eb
 3424 1502 DF000000 		.4byte	0xdf
 3425 1506 00       		.byte	0
 3426 1507 3E       		.uleb128 0x3e
 3427 1508 E8020000 		.4byte	.LASF228
 3428 150c E8020000 		.4byte	.LASF228
 3429 1510 13       		.byte	0x13
 3430 1511 4F       		.byte	0x4f
 3431 1512 3E       		.uleb128 0x3e
 3432 1513 ED080000 		.4byte	.LASF229
 3433 1517 ED080000 		.4byte	.LASF229
 3434 151b 1C       		.byte	0x1c
 3435 151c 96       		.byte	0x96
 3436 151d 3E       		.uleb128 0x3e
 3437 151e 9A010000 		.4byte	.LASF230
 3438 1522 9A010000 		.4byte	.LASF230
 3439 1526 1C       		.byte	0x1c
 3440 1527 97       		.byte	0x97
 3441 1528 3E       		.uleb128 0x3e
 3442 1529 13020000 		.4byte	.LASF231
 3443 152d 13020000 		.4byte	.LASF231
 3444 1531 13       		.byte	0x13
 3445 1532 50       		.byte	0x50
 3446 1533 3E       		.uleb128 0x3e
 3447 1534 340A0000 		.4byte	.LASF232
 3448 1538 340A0000 		.4byte	.LASF232
 3449 153c 1D       		.byte	0x1d
 3450 153d 63       		.byte	0x63
 3451 153e 3E       		.uleb128 0x3e
 3452 153f 0C030000 		.4byte	.LASF233
 3453 1543 0C030000 		.4byte	.LASF233
 3454 1547 1C       		.byte	0x1c
 3455 1548 9C       		.byte	0x9c
 3456 1549 00       		.byte	0
 3457              		.section	.debug_abbrev,"",%progbits
 3458              	.Ldebug_abbrev0:
 3459 0000 01       		.uleb128 0x1
 3460 0001 11       		.uleb128 0x11
 3461 0002 01       		.byte	0x1
 3462 0003 25       		.uleb128 0x25
 3463 0004 0E       		.uleb128 0xe
 3464 0005 13       		.uleb128 0x13
 3465 0006 0B       		.uleb128 0xb
 3466 0007 03       		.uleb128 0x3
ARM GAS  C:\Users\RAKIBU~1\AppData\Local\Temp\cclagJ2i.s 			page 62


 3467 0008 0E       		.uleb128 0xe
 3468 0009 1B       		.uleb128 0x1b
 3469 000a 0E       		.uleb128 0xe
 3470 000b 11       		.uleb128 0x11
 3471 000c 01       		.uleb128 0x1
 3472 000d 12       		.uleb128 0x12
 3473 000e 06       		.uleb128 0x6
 3474 000f 10       		.uleb128 0x10
 3475 0010 17       		.uleb128 0x17
 3476 0011 00       		.byte	0
 3477 0012 00       		.byte	0
 3478 0013 02       		.uleb128 0x2
 3479 0014 24       		.uleb128 0x24
 3480 0015 00       		.byte	0
 3481 0016 0B       		.uleb128 0xb
 3482 0017 0B       		.uleb128 0xb
 3483 0018 3E       		.uleb128 0x3e
 3484 0019 0B       		.uleb128 0xb
 3485 001a 03       		.uleb128 0x3
 3486 001b 08       		.uleb128 0x8
 3487 001c 00       		.byte	0
 3488 001d 00       		.byte	0
 3489 001e 03       		.uleb128 0x3
 3490 001f 16       		.uleb128 0x16
 3491 0020 00       		.byte	0
 3492 0021 03       		.uleb128 0x3
 3493 0022 0E       		.uleb128 0xe
 3494 0023 3A       		.uleb128 0x3a
 3495 0024 0B       		.uleb128 0xb
 3496 0025 3B       		.uleb128 0x3b
 3497 0026 0B       		.uleb128 0xb
 3498 0027 49       		.uleb128 0x49
 3499 0028 13       		.uleb128 0x13
 3500 0029 00       		.byte	0
 3501 002a 00       		.byte	0
 3502 002b 04       		.uleb128 0x4
 3503 002c 24       		.uleb128 0x24
 3504 002d 00       		.byte	0
 3505 002e 0B       		.uleb128 0xb
 3506 002f 0B       		.uleb128 0xb
 3507 0030 3E       		.uleb128 0x3e
 3508 0031 0B       		.uleb128 0xb
 3509 0032 03       		.uleb128 0x3
 3510 0033 0E       		.uleb128 0xe
 3511 0034 00       		.byte	0
 3512 0035 00       		.byte	0
 3513 0036 05       		.uleb128 0x5
 3514 0037 26       		.uleb128 0x26
 3515 0038 00       		.byte	0
 3516 0039 49       		.uleb128 0x49
 3517 003a 13       		.uleb128 0x13
 3518 003b 00       		.byte	0
 3519 003c 00       		.byte	0
 3520 003d 06       		.uleb128 0x6
 3521 003e 35       		.uleb128 0x35
 3522 003f 00       		.byte	0
 3523 0040 49       		.uleb128 0x49
ARM GAS  C:\Users\RAKIBU~1\AppData\Local\Temp\cclagJ2i.s 			page 63


 3524 0041 13       		.uleb128 0x13
 3525 0042 00       		.byte	0
 3526 0043 00       		.byte	0
 3527 0044 07       		.uleb128 0x7
 3528 0045 13       		.uleb128 0x13
 3529 0046 01       		.byte	0x1
 3530 0047 03       		.uleb128 0x3
 3531 0048 0E       		.uleb128 0xe
 3532 0049 0B       		.uleb128 0xb
 3533 004a 0B       		.uleb128 0xb
 3534 004b 3A       		.uleb128 0x3a
 3535 004c 0B       		.uleb128 0xb
 3536 004d 3B       		.uleb128 0x3b
 3537 004e 0B       		.uleb128 0xb
 3538 004f 01       		.uleb128 0x1
 3539 0050 13       		.uleb128 0x13
 3540 0051 00       		.byte	0
 3541 0052 00       		.byte	0
 3542 0053 08       		.uleb128 0x8
 3543 0054 0D       		.uleb128 0xd
 3544 0055 00       		.byte	0
 3545 0056 03       		.uleb128 0x3
 3546 0057 0E       		.uleb128 0xe
 3547 0058 3A       		.uleb128 0x3a
 3548 0059 0B       		.uleb128 0xb
 3549 005a 3B       		.uleb128 0x3b
 3550 005b 0B       		.uleb128 0xb
 3551 005c 49       		.uleb128 0x49
 3552 005d 13       		.uleb128 0x13
 3553 005e 38       		.uleb128 0x38
 3554 005f 0B       		.uleb128 0xb
 3555 0060 00       		.byte	0
 3556 0061 00       		.byte	0
 3557 0062 09       		.uleb128 0x9
 3558 0063 0D       		.uleb128 0xd
 3559 0064 00       		.byte	0
 3560 0065 03       		.uleb128 0x3
 3561 0066 08       		.uleb128 0x8
 3562 0067 3A       		.uleb128 0x3a
 3563 0068 0B       		.uleb128 0xb
 3564 0069 3B       		.uleb128 0x3b
 3565 006a 0B       		.uleb128 0xb
 3566 006b 49       		.uleb128 0x49
 3567 006c 13       		.uleb128 0x13
 3568 006d 38       		.uleb128 0x38
 3569 006e 0B       		.uleb128 0xb
 3570 006f 00       		.byte	0
 3571 0070 00       		.byte	0
 3572 0071 0A       		.uleb128 0xa
 3573 0072 0D       		.uleb128 0xd
 3574 0073 00       		.byte	0
 3575 0074 03       		.uleb128 0x3
 3576 0075 08       		.uleb128 0x8
 3577 0076 3A       		.uleb128 0x3a
 3578 0077 0B       		.uleb128 0xb
 3579 0078 3B       		.uleb128 0x3b
 3580 0079 05       		.uleb128 0x5
ARM GAS  C:\Users\RAKIBU~1\AppData\Local\Temp\cclagJ2i.s 			page 64


 3581 007a 49       		.uleb128 0x49
 3582 007b 13       		.uleb128 0x13
 3583 007c 38       		.uleb128 0x38
 3584 007d 0B       		.uleb128 0xb
 3585 007e 00       		.byte	0
 3586 007f 00       		.byte	0
 3587 0080 0B       		.uleb128 0xb
 3588 0081 0D       		.uleb128 0xd
 3589 0082 00       		.byte	0
 3590 0083 03       		.uleb128 0x3
 3591 0084 0E       		.uleb128 0xe
 3592 0085 3A       		.uleb128 0x3a
 3593 0086 0B       		.uleb128 0xb
 3594 0087 3B       		.uleb128 0x3b
 3595 0088 05       		.uleb128 0x5
 3596 0089 49       		.uleb128 0x49
 3597 008a 13       		.uleb128 0x13
 3598 008b 38       		.uleb128 0x38
 3599 008c 0B       		.uleb128 0xb
 3600 008d 00       		.byte	0
 3601 008e 00       		.byte	0
 3602 008f 0C       		.uleb128 0xc
 3603 0090 0F       		.uleb128 0xf
 3604 0091 00       		.byte	0
 3605 0092 0B       		.uleb128 0xb
 3606 0093 0B       		.uleb128 0xb
 3607 0094 49       		.uleb128 0x49
 3608 0095 13       		.uleb128 0x13
 3609 0096 00       		.byte	0
 3610 0097 00       		.byte	0
 3611 0098 0D       		.uleb128 0xd
 3612 0099 13       		.uleb128 0x13
 3613 009a 01       		.byte	0x1
 3614 009b 03       		.uleb128 0x3
 3615 009c 0E       		.uleb128 0xe
 3616 009d 0B       		.uleb128 0xb
 3617 009e 0B       		.uleb128 0xb
 3618 009f 3A       		.uleb128 0x3a
 3619 00a0 0B       		.uleb128 0xb
 3620 00a1 3B       		.uleb128 0x3b
 3621 00a2 05       		.uleb128 0x5
 3622 00a3 01       		.uleb128 0x1
 3623 00a4 13       		.uleb128 0x13
 3624 00a5 00       		.byte	0
 3625 00a6 00       		.byte	0
 3626 00a7 0E       		.uleb128 0xe
 3627 00a8 15       		.uleb128 0x15
 3628 00a9 01       		.byte	0x1
 3629 00aa 27       		.uleb128 0x27
 3630 00ab 19       		.uleb128 0x19
 3631 00ac 01       		.uleb128 0x1
 3632 00ad 13       		.uleb128 0x13
 3633 00ae 00       		.byte	0
 3634 00af 00       		.byte	0
 3635 00b0 0F       		.uleb128 0xf
 3636 00b1 05       		.uleb128 0x5
 3637 00b2 00       		.byte	0
ARM GAS  C:\Users\RAKIBU~1\AppData\Local\Temp\cclagJ2i.s 			page 65


 3638 00b3 49       		.uleb128 0x49
 3639 00b4 13       		.uleb128 0x13
 3640 00b5 00       		.byte	0
 3641 00b6 00       		.byte	0
 3642 00b7 10       		.uleb128 0x10
 3643 00b8 0F       		.uleb128 0xf
 3644 00b9 00       		.byte	0
 3645 00ba 0B       		.uleb128 0xb
 3646 00bb 0B       		.uleb128 0xb
 3647 00bc 00       		.byte	0
 3648 00bd 00       		.byte	0
 3649 00be 11       		.uleb128 0x11
 3650 00bf 13       		.uleb128 0x13
 3651 00c0 01       		.byte	0x1
 3652 00c1 03       		.uleb128 0x3
 3653 00c2 0E       		.uleb128 0xe
 3654 00c3 0B       		.uleb128 0xb
 3655 00c4 05       		.uleb128 0x5
 3656 00c5 3A       		.uleb128 0x3a
 3657 00c6 0B       		.uleb128 0xb
 3658 00c7 3B       		.uleb128 0x3b
 3659 00c8 05       		.uleb128 0x5
 3660 00c9 01       		.uleb128 0x1
 3661 00ca 13       		.uleb128 0x13
 3662 00cb 00       		.byte	0
 3663 00cc 00       		.byte	0
 3664 00cd 12       		.uleb128 0x12
 3665 00ce 0D       		.uleb128 0xd
 3666 00cf 00       		.byte	0
 3667 00d0 03       		.uleb128 0x3
 3668 00d1 0E       		.uleb128 0xe
 3669 00d2 3A       		.uleb128 0x3a
 3670 00d3 0B       		.uleb128 0xb
 3671 00d4 3B       		.uleb128 0x3b
 3672 00d5 05       		.uleb128 0x5
 3673 00d6 49       		.uleb128 0x49
 3674 00d7 13       		.uleb128 0x13
 3675 00d8 38       		.uleb128 0x38
 3676 00d9 05       		.uleb128 0x5
 3677 00da 00       		.byte	0
 3678 00db 00       		.byte	0
 3679 00dc 13       		.uleb128 0x13
 3680 00dd 0D       		.uleb128 0xd
 3681 00de 00       		.byte	0
 3682 00df 03       		.uleb128 0x3
 3683 00e0 08       		.uleb128 0x8
 3684 00e1 3A       		.uleb128 0x3a
 3685 00e2 0B       		.uleb128 0xb
 3686 00e3 3B       		.uleb128 0x3b
 3687 00e4 05       		.uleb128 0x5
 3688 00e5 49       		.uleb128 0x49
 3689 00e6 13       		.uleb128 0x13
 3690 00e7 38       		.uleb128 0x38
 3691 00e8 05       		.uleb128 0x5
 3692 00e9 00       		.byte	0
 3693 00ea 00       		.byte	0
 3694 00eb 14       		.uleb128 0x14
ARM GAS  C:\Users\RAKIBU~1\AppData\Local\Temp\cclagJ2i.s 			page 66


 3695 00ec 01       		.uleb128 0x1
 3696 00ed 01       		.byte	0x1
 3697 00ee 49       		.uleb128 0x49
 3698 00ef 13       		.uleb128 0x13
 3699 00f0 01       		.uleb128 0x1
 3700 00f1 13       		.uleb128 0x13
 3701 00f2 00       		.byte	0
 3702 00f3 00       		.byte	0
 3703 00f4 15       		.uleb128 0x15
 3704 00f5 21       		.uleb128 0x21
 3705 00f6 00       		.byte	0
 3706 00f7 49       		.uleb128 0x49
 3707 00f8 13       		.uleb128 0x13
 3708 00f9 2F       		.uleb128 0x2f
 3709 00fa 0B       		.uleb128 0xb
 3710 00fb 00       		.byte	0
 3711 00fc 00       		.byte	0
 3712 00fd 16       		.uleb128 0x16
 3713 00fe 13       		.uleb128 0x13
 3714 00ff 01       		.byte	0x1
 3715 0100 0B       		.uleb128 0xb
 3716 0101 0B       		.uleb128 0xb
 3717 0102 3A       		.uleb128 0x3a
 3718 0103 0B       		.uleb128 0xb
 3719 0104 3B       		.uleb128 0x3b
 3720 0105 05       		.uleb128 0x5
 3721 0106 01       		.uleb128 0x1
 3722 0107 13       		.uleb128 0x13
 3723 0108 00       		.byte	0
 3724 0109 00       		.byte	0
 3725 010a 17       		.uleb128 0x17
 3726 010b 16       		.uleb128 0x16
 3727 010c 00       		.byte	0
 3728 010d 03       		.uleb128 0x3
 3729 010e 0E       		.uleb128 0xe
 3730 010f 3A       		.uleb128 0x3a
 3731 0110 0B       		.uleb128 0xb
 3732 0111 3B       		.uleb128 0x3b
 3733 0112 05       		.uleb128 0x5
 3734 0113 49       		.uleb128 0x49
 3735 0114 13       		.uleb128 0x13
 3736 0115 00       		.byte	0
 3737 0116 00       		.byte	0
 3738 0117 18       		.uleb128 0x18
 3739 0118 34       		.uleb128 0x34
 3740 0119 00       		.byte	0
 3741 011a 03       		.uleb128 0x3
 3742 011b 0E       		.uleb128 0xe
 3743 011c 3A       		.uleb128 0x3a
 3744 011d 0B       		.uleb128 0xb
 3745 011e 3B       		.uleb128 0x3b
 3746 011f 05       		.uleb128 0x5
 3747 0120 49       		.uleb128 0x49
 3748 0121 13       		.uleb128 0x13
 3749 0122 3F       		.uleb128 0x3f
 3750 0123 19       		.uleb128 0x19
 3751 0124 3C       		.uleb128 0x3c
ARM GAS  C:\Users\RAKIBU~1\AppData\Local\Temp\cclagJ2i.s 			page 67


 3752 0125 19       		.uleb128 0x19
 3753 0126 00       		.byte	0
 3754 0127 00       		.byte	0
 3755 0128 19       		.uleb128 0x19
 3756 0129 34       		.uleb128 0x34
 3757 012a 00       		.byte	0
 3758 012b 03       		.uleb128 0x3
 3759 012c 0E       		.uleb128 0xe
 3760 012d 3A       		.uleb128 0x3a
 3761 012e 0B       		.uleb128 0xb
 3762 012f 3B       		.uleb128 0x3b
 3763 0130 0B       		.uleb128 0xb
 3764 0131 49       		.uleb128 0x49
 3765 0132 13       		.uleb128 0x13
 3766 0133 3F       		.uleb128 0x3f
 3767 0134 19       		.uleb128 0x19
 3768 0135 3C       		.uleb128 0x3c
 3769 0136 19       		.uleb128 0x19
 3770 0137 00       		.byte	0
 3771 0138 00       		.byte	0
 3772 0139 1A       		.uleb128 0x1a
 3773 013a 13       		.uleb128 0x13
 3774 013b 01       		.byte	0x1
 3775 013c 0B       		.uleb128 0xb
 3776 013d 0B       		.uleb128 0xb
 3777 013e 3A       		.uleb128 0x3a
 3778 013f 0B       		.uleb128 0xb
 3779 0140 3B       		.uleb128 0x3b
 3780 0141 0B       		.uleb128 0xb
 3781 0142 01       		.uleb128 0x1
 3782 0143 13       		.uleb128 0x13
 3783 0144 00       		.byte	0
 3784 0145 00       		.byte	0
 3785 0146 1B       		.uleb128 0x1b
 3786 0147 17       		.uleb128 0x17
 3787 0148 01       		.byte	0x1
 3788 0149 0B       		.uleb128 0xb
 3789 014a 0B       		.uleb128 0xb
 3790 014b 3A       		.uleb128 0x3a
 3791 014c 0B       		.uleb128 0xb
 3792 014d 3B       		.uleb128 0x3b
 3793 014e 0B       		.uleb128 0xb
 3794 014f 01       		.uleb128 0x1
 3795 0150 13       		.uleb128 0x13
 3796 0151 00       		.byte	0
 3797 0152 00       		.byte	0
 3798 0153 1C       		.uleb128 0x1c
 3799 0154 0D       		.uleb128 0xd
 3800 0155 00       		.byte	0
 3801 0156 03       		.uleb128 0x3
 3802 0157 08       		.uleb128 0x8
 3803 0158 3A       		.uleb128 0x3a
 3804 0159 0B       		.uleb128 0xb
 3805 015a 3B       		.uleb128 0x3b
 3806 015b 0B       		.uleb128 0xb
 3807 015c 49       		.uleb128 0x49
 3808 015d 13       		.uleb128 0x13
ARM GAS  C:\Users\RAKIBU~1\AppData\Local\Temp\cclagJ2i.s 			page 68


 3809 015e 00       		.byte	0
 3810 015f 00       		.byte	0
 3811 0160 1D       		.uleb128 0x1d
 3812 0161 0D       		.uleb128 0xd
 3813 0162 00       		.byte	0
 3814 0163 03       		.uleb128 0x3
 3815 0164 0E       		.uleb128 0xe
 3816 0165 3A       		.uleb128 0x3a
 3817 0166 0B       		.uleb128 0xb
 3818 0167 3B       		.uleb128 0x3b
 3819 0168 0B       		.uleb128 0xb
 3820 0169 49       		.uleb128 0x49
 3821 016a 13       		.uleb128 0x13
 3822 016b 00       		.byte	0
 3823 016c 00       		.byte	0
 3824 016d 1E       		.uleb128 0x1e
 3825 016e 0D       		.uleb128 0xd
 3826 016f 00       		.byte	0
 3827 0170 03       		.uleb128 0x3
 3828 0171 0E       		.uleb128 0xe
 3829 0172 3A       		.uleb128 0x3a
 3830 0173 0B       		.uleb128 0xb
 3831 0174 3B       		.uleb128 0x3b
 3832 0175 0B       		.uleb128 0xb
 3833 0176 49       		.uleb128 0x49
 3834 0177 13       		.uleb128 0x13
 3835 0178 0B       		.uleb128 0xb
 3836 0179 0B       		.uleb128 0xb
 3837 017a 0D       		.uleb128 0xd
 3838 017b 0B       		.uleb128 0xb
 3839 017c 0C       		.uleb128 0xc
 3840 017d 0B       		.uleb128 0xb
 3841 017e 38       		.uleb128 0x38
 3842 017f 0B       		.uleb128 0xb
 3843 0180 00       		.byte	0
 3844 0181 00       		.byte	0
 3845 0182 1F       		.uleb128 0x1f
 3846 0183 13       		.uleb128 0x13
 3847 0184 01       		.byte	0x1
 3848 0185 0B       		.uleb128 0xb
 3849 0186 05       		.uleb128 0x5
 3850 0187 3A       		.uleb128 0x3a
 3851 0188 0B       		.uleb128 0xb
 3852 0189 3B       		.uleb128 0x3b
 3853 018a 0B       		.uleb128 0xb
 3854 018b 01       		.uleb128 0x1
 3855 018c 13       		.uleb128 0x13
 3856 018d 00       		.byte	0
 3857 018e 00       		.byte	0
 3858 018f 20       		.uleb128 0x20
 3859 0190 0D       		.uleb128 0xd
 3860 0191 00       		.byte	0
 3861 0192 03       		.uleb128 0x3
 3862 0193 0E       		.uleb128 0xe
 3863 0194 3A       		.uleb128 0x3a
 3864 0195 0B       		.uleb128 0xb
 3865 0196 3B       		.uleb128 0x3b
ARM GAS  C:\Users\RAKIBU~1\AppData\Local\Temp\cclagJ2i.s 			page 69


 3866 0197 05       		.uleb128 0x5
 3867 0198 49       		.uleb128 0x49
 3868 0199 13       		.uleb128 0x13
 3869 019a 00       		.byte	0
 3870 019b 00       		.byte	0
 3871 019c 21       		.uleb128 0x21
 3872 019d 34       		.uleb128 0x34
 3873 019e 00       		.byte	0
 3874 019f 03       		.uleb128 0x3
 3875 01a0 08       		.uleb128 0x8
 3876 01a1 3A       		.uleb128 0x3a
 3877 01a2 0B       		.uleb128 0xb
 3878 01a3 3B       		.uleb128 0x3b
 3879 01a4 05       		.uleb128 0x5
 3880 01a5 49       		.uleb128 0x49
 3881 01a6 13       		.uleb128 0x13
 3882 01a7 3F       		.uleb128 0x3f
 3883 01a8 19       		.uleb128 0x19
 3884 01a9 3C       		.uleb128 0x3c
 3885 01aa 19       		.uleb128 0x19
 3886 01ab 00       		.byte	0
 3887 01ac 00       		.byte	0
 3888 01ad 22       		.uleb128 0x22
 3889 01ae 21       		.uleb128 0x21
 3890 01af 00       		.byte	0
 3891 01b0 00       		.byte	0
 3892 01b1 00       		.byte	0
 3893 01b2 23       		.uleb128 0x23
 3894 01b3 15       		.uleb128 0x15
 3895 01b4 01       		.byte	0x1
 3896 01b5 27       		.uleb128 0x27
 3897 01b6 19       		.uleb128 0x19
 3898 01b7 49       		.uleb128 0x49
 3899 01b8 13       		.uleb128 0x13
 3900 01b9 01       		.uleb128 0x1
 3901 01ba 13       		.uleb128 0x13
 3902 01bb 00       		.byte	0
 3903 01bc 00       		.byte	0
 3904 01bd 24       		.uleb128 0x24
 3905 01be 2E       		.uleb128 0x2e
 3906 01bf 01       		.byte	0x1
 3907 01c0 3F       		.uleb128 0x3f
 3908 01c1 19       		.uleb128 0x19
 3909 01c2 03       		.uleb128 0x3
 3910 01c3 0E       		.uleb128 0xe
 3911 01c4 3A       		.uleb128 0x3a
 3912 01c5 0B       		.uleb128 0xb
 3913 01c6 3B       		.uleb128 0x3b
 3914 01c7 05       		.uleb128 0x5
 3915 01c8 27       		.uleb128 0x27
 3916 01c9 19       		.uleb128 0x19
 3917 01ca 11       		.uleb128 0x11
 3918 01cb 01       		.uleb128 0x1
 3919 01cc 12       		.uleb128 0x12
 3920 01cd 06       		.uleb128 0x6
 3921 01ce 40       		.uleb128 0x40
 3922 01cf 18       		.uleb128 0x18
ARM GAS  C:\Users\RAKIBU~1\AppData\Local\Temp\cclagJ2i.s 			page 70


 3923 01d0 9742     		.uleb128 0x2117
 3924 01d2 19       		.uleb128 0x19
 3925 01d3 01       		.uleb128 0x1
 3926 01d4 13       		.uleb128 0x13
 3927 01d5 00       		.byte	0
 3928 01d6 00       		.byte	0
 3929 01d7 25       		.uleb128 0x25
 3930 01d8 05       		.uleb128 0x5
 3931 01d9 00       		.byte	0
 3932 01da 03       		.uleb128 0x3
 3933 01db 0E       		.uleb128 0xe
 3934 01dc 3A       		.uleb128 0x3a
 3935 01dd 0B       		.uleb128 0xb
 3936 01de 3B       		.uleb128 0x3b
 3937 01df 05       		.uleb128 0x5
 3938 01e0 49       		.uleb128 0x49
 3939 01e1 13       		.uleb128 0x13
 3940 01e2 02       		.uleb128 0x2
 3941 01e3 17       		.uleb128 0x17
 3942 01e4 00       		.byte	0
 3943 01e5 00       		.byte	0
 3944 01e6 26       		.uleb128 0x26
 3945 01e7 1D       		.uleb128 0x1d
 3946 01e8 01       		.byte	0x1
 3947 01e9 31       		.uleb128 0x31
 3948 01ea 13       		.uleb128 0x13
 3949 01eb 11       		.uleb128 0x11
 3950 01ec 01       		.uleb128 0x1
 3951 01ed 12       		.uleb128 0x12
 3952 01ee 06       		.uleb128 0x6
 3953 01ef 58       		.uleb128 0x58
 3954 01f0 0B       		.uleb128 0xb
 3955 01f1 59       		.uleb128 0x59
 3956 01f2 05       		.uleb128 0x5
 3957 01f3 01       		.uleb128 0x1
 3958 01f4 13       		.uleb128 0x13
 3959 01f5 00       		.byte	0
 3960 01f6 00       		.byte	0
 3961 01f7 27       		.uleb128 0x27
 3962 01f8 1D       		.uleb128 0x1d
 3963 01f9 01       		.byte	0x1
 3964 01fa 31       		.uleb128 0x31
 3965 01fb 13       		.uleb128 0x13
 3966 01fc 11       		.uleb128 0x11
 3967 01fd 01       		.uleb128 0x1
 3968 01fe 12       		.uleb128 0x12
 3969 01ff 06       		.uleb128 0x6
 3970 0200 58       		.uleb128 0x58
 3971 0201 0B       		.uleb128 0xb
 3972 0202 59       		.uleb128 0x59
 3973 0203 05       		.uleb128 0x5
 3974 0204 00       		.byte	0
 3975 0205 00       		.byte	0
 3976 0206 28       		.uleb128 0x28
 3977 0207 05       		.uleb128 0x5
 3978 0208 00       		.byte	0
 3979 0209 31       		.uleb128 0x31
ARM GAS  C:\Users\RAKIBU~1\AppData\Local\Temp\cclagJ2i.s 			page 71


 3980 020a 13       		.uleb128 0x13
 3981 020b 02       		.uleb128 0x2
 3982 020c 17       		.uleb128 0x17
 3983 020d 00       		.byte	0
 3984 020e 00       		.byte	0
 3985 020f 29       		.uleb128 0x29
 3986 0210 898201   		.uleb128 0x4109
 3987 0213 00       		.byte	0
 3988 0214 11       		.uleb128 0x11
 3989 0215 01       		.uleb128 0x1
 3990 0216 31       		.uleb128 0x31
 3991 0217 13       		.uleb128 0x13
 3992 0218 00       		.byte	0
 3993 0219 00       		.byte	0
 3994 021a 2A       		.uleb128 0x2a
 3995 021b 1D       		.uleb128 0x1d
 3996 021c 01       		.byte	0x1
 3997 021d 31       		.uleb128 0x31
 3998 021e 13       		.uleb128 0x13
 3999 021f 52       		.uleb128 0x52
 4000 0220 01       		.uleb128 0x1
 4001 0221 55       		.uleb128 0x55
 4002 0222 17       		.uleb128 0x17
 4003 0223 58       		.uleb128 0x58
 4004 0224 0B       		.uleb128 0xb
 4005 0225 59       		.uleb128 0x59
 4006 0226 05       		.uleb128 0x5
 4007 0227 01       		.uleb128 0x1
 4008 0228 13       		.uleb128 0x13
 4009 0229 00       		.byte	0
 4010 022a 00       		.byte	0
 4011 022b 2B       		.uleb128 0x2b
 4012 022c 0B       		.uleb128 0xb
 4013 022d 01       		.byte	0x1
 4014 022e 55       		.uleb128 0x55
 4015 022f 17       		.uleb128 0x17
 4016 0230 00       		.byte	0
 4017 0231 00       		.byte	0
 4018 0232 2C       		.uleb128 0x2c
 4019 0233 34       		.uleb128 0x34
 4020 0234 00       		.byte	0
 4021 0235 31       		.uleb128 0x31
 4022 0236 13       		.uleb128 0x13
 4023 0237 00       		.byte	0
 4024 0238 00       		.byte	0
 4025 0239 2D       		.uleb128 0x2d
 4026 023a 898201   		.uleb128 0x4109
 4027 023d 01       		.byte	0x1
 4028 023e 11       		.uleb128 0x11
 4029 023f 01       		.uleb128 0x1
 4030 0240 31       		.uleb128 0x31
 4031 0241 13       		.uleb128 0x13
 4032 0242 00       		.byte	0
 4033 0243 00       		.byte	0
 4034 0244 2E       		.uleb128 0x2e
 4035 0245 8A8201   		.uleb128 0x410a
 4036 0248 00       		.byte	0
ARM GAS  C:\Users\RAKIBU~1\AppData\Local\Temp\cclagJ2i.s 			page 72


 4037 0249 02       		.uleb128 0x2
 4038 024a 18       		.uleb128 0x18
 4039 024b 9142     		.uleb128 0x2111
 4040 024d 18       		.uleb128 0x18
 4041 024e 00       		.byte	0
 4042 024f 00       		.byte	0
 4043 0250 2F       		.uleb128 0x2f
 4044 0251 2E       		.uleb128 0x2e
 4045 0252 01       		.byte	0x1
 4046 0253 3F       		.uleb128 0x3f
 4047 0254 19       		.uleb128 0x19
 4048 0255 03       		.uleb128 0x3
 4049 0256 0E       		.uleb128 0xe
 4050 0257 3A       		.uleb128 0x3a
 4051 0258 0B       		.uleb128 0xb
 4052 0259 3B       		.uleb128 0x3b
 4053 025a 0B       		.uleb128 0xb
 4054 025b 27       		.uleb128 0x27
 4055 025c 19       		.uleb128 0x19
 4056 025d 11       		.uleb128 0x11
 4057 025e 01       		.uleb128 0x1
 4058 025f 12       		.uleb128 0x12
 4059 0260 06       		.uleb128 0x6
 4060 0261 40       		.uleb128 0x40
 4061 0262 18       		.uleb128 0x18
 4062 0263 9742     		.uleb128 0x2117
 4063 0265 19       		.uleb128 0x19
 4064 0266 01       		.uleb128 0x1
 4065 0267 13       		.uleb128 0x13
 4066 0268 00       		.byte	0
 4067 0269 00       		.byte	0
 4068 026a 30       		.uleb128 0x30
 4069 026b 05       		.uleb128 0x5
 4070 026c 00       		.byte	0
 4071 026d 03       		.uleb128 0x3
 4072 026e 0E       		.uleb128 0xe
 4073 026f 3A       		.uleb128 0x3a
 4074 0270 0B       		.uleb128 0xb
 4075 0271 3B       		.uleb128 0x3b
 4076 0272 0B       		.uleb128 0xb
 4077 0273 49       		.uleb128 0x49
 4078 0274 13       		.uleb128 0x13
 4079 0275 02       		.uleb128 0x2
 4080 0276 17       		.uleb128 0x17
 4081 0277 00       		.byte	0
 4082 0278 00       		.byte	0
 4083 0279 31       		.uleb128 0x31
 4084 027a 1D       		.uleb128 0x1d
 4085 027b 01       		.byte	0x1
 4086 027c 31       		.uleb128 0x31
 4087 027d 13       		.uleb128 0x13
 4088 027e 11       		.uleb128 0x11
 4089 027f 01       		.uleb128 0x1
 4090 0280 12       		.uleb128 0x12
 4091 0281 06       		.uleb128 0x6
 4092 0282 58       		.uleb128 0x58
 4093 0283 0B       		.uleb128 0xb
ARM GAS  C:\Users\RAKIBU~1\AppData\Local\Temp\cclagJ2i.s 			page 73


 4094 0284 59       		.uleb128 0x59
 4095 0285 0B       		.uleb128 0xb
 4096 0286 01       		.uleb128 0x1
 4097 0287 13       		.uleb128 0x13
 4098 0288 00       		.byte	0
 4099 0289 00       		.byte	0
 4100 028a 32       		.uleb128 0x32
 4101 028b 1D       		.uleb128 0x1d
 4102 028c 01       		.byte	0x1
 4103 028d 31       		.uleb128 0x31
 4104 028e 13       		.uleb128 0x13
 4105 028f 52       		.uleb128 0x52
 4106 0290 01       		.uleb128 0x1
 4107 0291 55       		.uleb128 0x55
 4108 0292 17       		.uleb128 0x17
 4109 0293 58       		.uleb128 0x58
 4110 0294 0B       		.uleb128 0xb
 4111 0295 59       		.uleb128 0x59
 4112 0296 0B       		.uleb128 0xb
 4113 0297 01       		.uleb128 0x1
 4114 0298 13       		.uleb128 0x13
 4115 0299 00       		.byte	0
 4116 029a 00       		.byte	0
 4117 029b 33       		.uleb128 0x33
 4118 029c 05       		.uleb128 0x5
 4119 029d 00       		.byte	0
 4120 029e 03       		.uleb128 0x3
 4121 029f 08       		.uleb128 0x8
 4122 02a0 3A       		.uleb128 0x3a
 4123 02a1 0B       		.uleb128 0xb
 4124 02a2 3B       		.uleb128 0x3b
 4125 02a3 0B       		.uleb128 0xb
 4126 02a4 49       		.uleb128 0x49
 4127 02a5 13       		.uleb128 0x13
 4128 02a6 02       		.uleb128 0x2
 4129 02a7 17       		.uleb128 0x17
 4130 02a8 00       		.byte	0
 4131 02a9 00       		.byte	0
 4132 02aa 34       		.uleb128 0x34
 4133 02ab 34       		.uleb128 0x34
 4134 02ac 00       		.byte	0
 4135 02ad 03       		.uleb128 0x3
 4136 02ae 08       		.uleb128 0x8
 4137 02af 3A       		.uleb128 0x3a
 4138 02b0 0B       		.uleb128 0xb
 4139 02b1 3B       		.uleb128 0x3b
 4140 02b2 0B       		.uleb128 0xb
 4141 02b3 49       		.uleb128 0x49
 4142 02b4 13       		.uleb128 0x13
 4143 02b5 02       		.uleb128 0x2
 4144 02b6 17       		.uleb128 0x17
 4145 02b7 00       		.byte	0
 4146 02b8 00       		.byte	0
 4147 02b9 35       		.uleb128 0x35
 4148 02ba 2E       		.uleb128 0x2e
 4149 02bb 01       		.byte	0x1
 4150 02bc 03       		.uleb128 0x3
ARM GAS  C:\Users\RAKIBU~1\AppData\Local\Temp\cclagJ2i.s 			page 74


 4151 02bd 0E       		.uleb128 0xe
 4152 02be 3A       		.uleb128 0x3a
 4153 02bf 0B       		.uleb128 0xb
 4154 02c0 3B       		.uleb128 0x3b
 4155 02c1 0B       		.uleb128 0xb
 4156 02c2 27       		.uleb128 0x27
 4157 02c3 19       		.uleb128 0x19
 4158 02c4 11       		.uleb128 0x11
 4159 02c5 01       		.uleb128 0x1
 4160 02c6 12       		.uleb128 0x12
 4161 02c7 06       		.uleb128 0x6
 4162 02c8 40       		.uleb128 0x40
 4163 02c9 18       		.uleb128 0x18
 4164 02ca 9742     		.uleb128 0x2117
 4165 02cc 19       		.uleb128 0x19
 4166 02cd 01       		.uleb128 0x1
 4167 02ce 13       		.uleb128 0x13
 4168 02cf 00       		.byte	0
 4169 02d0 00       		.byte	0
 4170 02d1 36       		.uleb128 0x36
 4171 02d2 1D       		.uleb128 0x1d
 4172 02d3 01       		.byte	0x1
 4173 02d4 31       		.uleb128 0x31
 4174 02d5 13       		.uleb128 0x13
 4175 02d6 11       		.uleb128 0x11
 4176 02d7 01       		.uleb128 0x1
 4177 02d8 12       		.uleb128 0x12
 4178 02d9 06       		.uleb128 0x6
 4179 02da 58       		.uleb128 0x58
 4180 02db 0B       		.uleb128 0xb
 4181 02dc 59       		.uleb128 0x59
 4182 02dd 0B       		.uleb128 0xb
 4183 02de 00       		.byte	0
 4184 02df 00       		.byte	0
 4185 02e0 37       		.uleb128 0x37
 4186 02e1 1D       		.uleb128 0x1d
 4187 02e2 00       		.byte	0
 4188 02e3 31       		.uleb128 0x31
 4189 02e4 13       		.uleb128 0x13
 4190 02e5 11       		.uleb128 0x11
 4191 02e6 01       		.uleb128 0x1
 4192 02e7 12       		.uleb128 0x12
 4193 02e8 06       		.uleb128 0x6
 4194 02e9 58       		.uleb128 0x58
 4195 02ea 0B       		.uleb128 0xb
 4196 02eb 59       		.uleb128 0x59
 4197 02ec 0B       		.uleb128 0xb
 4198 02ed 00       		.byte	0
 4199 02ee 00       		.byte	0
 4200 02ef 38       		.uleb128 0x38
 4201 02f0 2E       		.uleb128 0x2e
 4202 02f1 00       		.byte	0
 4203 02f2 03       		.uleb128 0x3
 4204 02f3 0E       		.uleb128 0xe
 4205 02f4 3A       		.uleb128 0x3a
 4206 02f5 0B       		.uleb128 0xb
 4207 02f6 3B       		.uleb128 0x3b
ARM GAS  C:\Users\RAKIBU~1\AppData\Local\Temp\cclagJ2i.s 			page 75


 4208 02f7 0B       		.uleb128 0xb
 4209 02f8 27       		.uleb128 0x27
 4210 02f9 19       		.uleb128 0x19
 4211 02fa 49       		.uleb128 0x49
 4212 02fb 13       		.uleb128 0x13
 4213 02fc 20       		.uleb128 0x20
 4214 02fd 0B       		.uleb128 0xb
 4215 02fe 00       		.byte	0
 4216 02ff 00       		.byte	0
 4217 0300 39       		.uleb128 0x39
 4218 0301 2E       		.uleb128 0x2e
 4219 0302 01       		.byte	0x1
 4220 0303 03       		.uleb128 0x3
 4221 0304 0E       		.uleb128 0xe
 4222 0305 3A       		.uleb128 0x3a
 4223 0306 0B       		.uleb128 0xb
 4224 0307 3B       		.uleb128 0x3b
 4225 0308 05       		.uleb128 0x5
 4226 0309 27       		.uleb128 0x27
 4227 030a 19       		.uleb128 0x19
 4228 030b 20       		.uleb128 0x20
 4229 030c 0B       		.uleb128 0xb
 4230 030d 01       		.uleb128 0x1
 4231 030e 13       		.uleb128 0x13
 4232 030f 00       		.byte	0
 4233 0310 00       		.byte	0
 4234 0311 3A       		.uleb128 0x3a
 4235 0312 34       		.uleb128 0x34
 4236 0313 00       		.byte	0
 4237 0314 03       		.uleb128 0x3
 4238 0315 0E       		.uleb128 0xe
 4239 0316 49       		.uleb128 0x49
 4240 0317 13       		.uleb128 0x13
 4241 0318 34       		.uleb128 0x34
 4242 0319 19       		.uleb128 0x19
 4243 031a 1C       		.uleb128 0x1c
 4244 031b 0E       		.uleb128 0xe
 4245 031c 00       		.byte	0
 4246 031d 00       		.byte	0
 4247 031e 3B       		.uleb128 0x3b
 4248 031f 2E       		.uleb128 0x2e
 4249 0320 00       		.byte	0
 4250 0321 03       		.uleb128 0x3
 4251 0322 0E       		.uleb128 0xe
 4252 0323 3A       		.uleb128 0x3a
 4253 0324 0B       		.uleb128 0xb
 4254 0325 3B       		.uleb128 0x3b
 4255 0326 05       		.uleb128 0x5
 4256 0327 27       		.uleb128 0x27
 4257 0328 19       		.uleb128 0x19
 4258 0329 20       		.uleb128 0x20
 4259 032a 0B       		.uleb128 0xb
 4260 032b 00       		.byte	0
 4261 032c 00       		.byte	0
 4262 032d 3C       		.uleb128 0x3c
 4263 032e 2E       		.uleb128 0x2e
 4264 032f 00       		.byte	0
ARM GAS  C:\Users\RAKIBU~1\AppData\Local\Temp\cclagJ2i.s 			page 76


 4265 0330 03       		.uleb128 0x3
 4266 0331 0E       		.uleb128 0xe
 4267 0332 3A       		.uleb128 0x3a
 4268 0333 0B       		.uleb128 0xb
 4269 0334 3B       		.uleb128 0x3b
 4270 0335 05       		.uleb128 0x5
 4271 0336 27       		.uleb128 0x27
 4272 0337 19       		.uleb128 0x19
 4273 0338 49       		.uleb128 0x49
 4274 0339 13       		.uleb128 0x13
 4275 033a 20       		.uleb128 0x20
 4276 033b 0B       		.uleb128 0xb
 4277 033c 00       		.byte	0
 4278 033d 00       		.byte	0
 4279 033e 3D       		.uleb128 0x3d
 4280 033f 05       		.uleb128 0x5
 4281 0340 00       		.byte	0
 4282 0341 03       		.uleb128 0x3
 4283 0342 0E       		.uleb128 0xe
 4284 0343 3A       		.uleb128 0x3a
 4285 0344 0B       		.uleb128 0xb
 4286 0345 3B       		.uleb128 0x3b
 4287 0346 05       		.uleb128 0x5
 4288 0347 49       		.uleb128 0x49
 4289 0348 13       		.uleb128 0x13
 4290 0349 00       		.byte	0
 4291 034a 00       		.byte	0
 4292 034b 3E       		.uleb128 0x3e
 4293 034c 2E       		.uleb128 0x2e
 4294 034d 00       		.byte	0
 4295 034e 3F       		.uleb128 0x3f
 4296 034f 19       		.uleb128 0x19
 4297 0350 3C       		.uleb128 0x3c
 4298 0351 19       		.uleb128 0x19
 4299 0352 6E       		.uleb128 0x6e
 4300 0353 0E       		.uleb128 0xe
 4301 0354 03       		.uleb128 0x3
 4302 0355 0E       		.uleb128 0xe
 4303 0356 3A       		.uleb128 0x3a
 4304 0357 0B       		.uleb128 0xb
 4305 0358 3B       		.uleb128 0x3b
 4306 0359 0B       		.uleb128 0xb
 4307 035a 00       		.byte	0
 4308 035b 00       		.byte	0
 4309 035c 00       		.byte	0
 4310              		.section	.debug_loc,"",%progbits
 4311              	.Ldebug_loc0:
 4312              	.LLST21:
 4313 0000 E0020000 		.4byte	.LVL50-.Ltext0
 4314 0004 ED020000 		.4byte	.LVL53-1-.Ltext0
 4315 0008 0100     		.2byte	0x1
 4316 000a 50       		.byte	0x50
 4317 000b ED020000 		.4byte	.LVL53-1-.Ltext0
 4318 000f 2C030000 		.4byte	.LFE306-.Ltext0
 4319 0013 0400     		.2byte	0x4
 4320 0015 F3       		.byte	0xf3
 4321 0016 01       		.uleb128 0x1
ARM GAS  C:\Users\RAKIBU~1\AppData\Local\Temp\cclagJ2i.s 			page 77


 4322 0017 50       		.byte	0x50
 4323 0018 9F       		.byte	0x9f
 4324 0019 00000000 		.4byte	0
 4325 001d 00000000 		.4byte	0
 4326              	.LLST22:
 4327 0021 E4020000 		.4byte	.LVL51-.Ltext0
 4328 0025 EA020000 		.4byte	.LVL52-.Ltext0
 4329 0029 0300     		.2byte	0x3
 4330 002b 08       		.byte	0x8
 4331 002c 20       		.byte	0x20
 4332 002d 9F       		.byte	0x9f
 4333 002e 00000000 		.4byte	0
 4334 0032 00000000 		.4byte	0
 4335              	.LLST23:
 4336 0036 12030000 		.4byte	.LVL58-.Ltext0
 4337 003a 18030000 		.4byte	.LVL59-.Ltext0
 4338 003e 0200     		.2byte	0x2
 4339 0040 30       		.byte	0x30
 4340 0041 9F       		.byte	0x9f
 4341 0042 00000000 		.4byte	0
 4342 0046 00000000 		.4byte	0
 4343              	.LLST20:
 4344 004a C0020000 		.4byte	.LVL48-.Ltext0
 4345 004e C7020000 		.4byte	.LVL49-1-.Ltext0
 4346 0052 0100     		.2byte	0x1
 4347 0054 50       		.byte	0x50
 4348 0055 C7020000 		.4byte	.LVL49-1-.Ltext0
 4349 0059 DC020000 		.4byte	.LFE305-.Ltext0
 4350 005d 0400     		.2byte	0x4
 4351 005f F3       		.byte	0xf3
 4352 0060 01       		.uleb128 0x1
 4353 0061 50       		.byte	0x50
 4354 0062 9F       		.byte	0x9f
 4355 0063 00000000 		.4byte	0
 4356 0067 00000000 		.4byte	0
 4357              	.LLST17:
 4358 006b 70020000 		.4byte	.LVL37-.Ltext0
 4359 006f 7D020000 		.4byte	.LVL40-1-.Ltext0
 4360 0073 0100     		.2byte	0x1
 4361 0075 50       		.byte	0x50
 4362 0076 7D020000 		.4byte	.LVL40-1-.Ltext0
 4363 007a BC020000 		.4byte	.LFE304-.Ltext0
 4364 007e 0400     		.2byte	0x4
 4365 0080 F3       		.byte	0xf3
 4366 0081 01       		.uleb128 0x1
 4367 0082 50       		.byte	0x50
 4368 0083 9F       		.byte	0x9f
 4369 0084 00000000 		.4byte	0
 4370 0088 00000000 		.4byte	0
 4371              	.LLST18:
 4372 008c 74020000 		.4byte	.LVL38-.Ltext0
 4373 0090 7A020000 		.4byte	.LVL39-.Ltext0
 4374 0094 0300     		.2byte	0x3
 4375 0096 08       		.byte	0x8
 4376 0097 20       		.byte	0x20
 4377 0098 9F       		.byte	0x9f
 4378 0099 00000000 		.4byte	0
ARM GAS  C:\Users\RAKIBU~1\AppData\Local\Temp\cclagJ2i.s 			page 78


 4379 009d 00000000 		.4byte	0
 4380              	.LLST19:
 4381 00a1 A2020000 		.4byte	.LVL45-.Ltext0
 4382 00a5 A8020000 		.4byte	.LVL46-.Ltext0
 4383 00a9 0200     		.2byte	0x2
 4384 00ab 30       		.byte	0x30
 4385 00ac 9F       		.byte	0x9f
 4386 00ad 00000000 		.4byte	0
 4387 00b1 00000000 		.4byte	0
 4388              	.LLST16:
 4389 00b5 50020000 		.4byte	.LVL35-.Ltext0
 4390 00b9 57020000 		.4byte	.LVL36-1-.Ltext0
 4391 00bd 0100     		.2byte	0x1
 4392 00bf 50       		.byte	0x50
 4393 00c0 57020000 		.4byte	.LVL36-1-.Ltext0
 4394 00c4 6C020000 		.4byte	.LFE303-.Ltext0
 4395 00c8 0400     		.2byte	0x4
 4396 00ca F3       		.byte	0xf3
 4397 00cb 01       		.uleb128 0x1
 4398 00cc 50       		.byte	0x50
 4399 00cd 9F       		.byte	0x9f
 4400 00ce 00000000 		.4byte	0
 4401 00d2 00000000 		.4byte	0
 4402              	.LLST12:
 4403 00d6 00020000 		.4byte	.LVL23-.Ltext0
 4404 00da 0F020000 		.4byte	.LVL26-1-.Ltext0
 4405 00de 0100     		.2byte	0x1
 4406 00e0 50       		.byte	0x50
 4407 00e1 0F020000 		.4byte	.LVL26-1-.Ltext0
 4408 00e5 50020000 		.4byte	.LFE302-.Ltext0
 4409 00e9 0100     		.2byte	0x1
 4410 00eb 54       		.byte	0x54
 4411 00ec 00000000 		.4byte	0
 4412 00f0 00000000 		.4byte	0
 4413              	.LLST13:
 4414 00f4 00020000 		.4byte	.LVL23-.Ltext0
 4415 00f8 0F020000 		.4byte	.LVL26-1-.Ltext0
 4416 00fc 0100     		.2byte	0x1
 4417 00fe 51       		.byte	0x51
 4418 00ff 0F020000 		.4byte	.LVL26-1-.Ltext0
 4419 0103 50020000 		.4byte	.LFE302-.Ltext0
 4420 0107 0100     		.2byte	0x1
 4421 0109 55       		.byte	0x55
 4422 010a 00000000 		.4byte	0
 4423 010e 00000000 		.4byte	0
 4424              	.LLST14:
 4425 0112 06020000 		.4byte	.LVL24-.Ltext0
 4426 0116 0C020000 		.4byte	.LVL25-.Ltext0
 4427 011a 0300     		.2byte	0x3
 4428 011c 08       		.byte	0x8
 4429 011d 20       		.byte	0x20
 4430 011e 9F       		.byte	0x9f
 4431 011f 00000000 		.4byte	0
 4432 0123 00000000 		.4byte	0
 4433              	.LLST15:
 4434 0127 36020000 		.4byte	.LVL31-.Ltext0
 4435 012b 3C020000 		.4byte	.LVL32-.Ltext0
ARM GAS  C:\Users\RAKIBU~1\AppData\Local\Temp\cclagJ2i.s 			page 79


 4436 012f 0200     		.2byte	0x2
 4437 0131 30       		.byte	0x30
 4438 0132 9F       		.byte	0x9f
 4439 0133 00000000 		.4byte	0
 4440 0137 00000000 		.4byte	0
 4441              	.LLST10:
 4442 013b B0010000 		.4byte	.LVL19-.Ltext0
 4443 013f B9010000 		.4byte	.LVL20-1-.Ltext0
 4444 0143 0100     		.2byte	0x1
 4445 0145 50       		.byte	0x50
 4446 0146 B9010000 		.4byte	.LVL20-1-.Ltext0
 4447 014a F4010000 		.4byte	.LFE301-.Ltext0
 4448 014e 0100     		.2byte	0x1
 4449 0150 55       		.byte	0x55
 4450 0151 00000000 		.4byte	0
 4451 0155 00000000 		.4byte	0
 4452              	.LLST11:
 4453 0159 B0010000 		.4byte	.LVL19-.Ltext0
 4454 015d B9010000 		.4byte	.LVL20-1-.Ltext0
 4455 0161 0100     		.2byte	0x1
 4456 0163 51       		.byte	0x51
 4457 0164 B9010000 		.4byte	.LVL20-1-.Ltext0
 4458 0168 F4010000 		.4byte	.LFE301-.Ltext0
 4459 016c 0100     		.2byte	0x1
 4460 016e 54       		.byte	0x54
 4461 016f 00000000 		.4byte	0
 4462 0173 00000000 		.4byte	0
 4463              	.LLST9:
 4464 0177 70010000 		.4byte	.LVL17-.Ltext0
 4465 017b 9F010000 		.4byte	.LVL18-1-.Ltext0
 4466 017f 0100     		.2byte	0x1
 4467 0181 50       		.byte	0x50
 4468 0182 9F010000 		.4byte	.LVL18-1-.Ltext0
 4469 0186 A8010000 		.4byte	.LFE300-.Ltext0
 4470 018a 0400     		.2byte	0x4
 4471 018c F3       		.byte	0xf3
 4472 018d 01       		.uleb128 0x1
 4473 018e 50       		.byte	0x50
 4474 018f 9F       		.byte	0x9f
 4475 0190 00000000 		.4byte	0
 4476 0194 00000000 		.4byte	0
 4477              	.LLST6:
 4478 0198 20010000 		.4byte	.LVL12-.Ltext0
 4479 019c 55010000 		.4byte	.LVL15-1-.Ltext0
 4480 01a0 0100     		.2byte	0x1
 4481 01a2 50       		.byte	0x50
 4482 01a3 55010000 		.4byte	.LVL15-1-.Ltext0
 4483 01a7 64010000 		.4byte	.LFE299-.Ltext0
 4484 01ab 0400     		.2byte	0x4
 4485 01ad F3       		.byte	0xf3
 4486 01ae 01       		.uleb128 0x1
 4487 01af 50       		.byte	0x50
 4488 01b0 9F       		.byte	0x9f
 4489 01b1 00000000 		.4byte	0
 4490 01b5 00000000 		.4byte	0
 4491              	.LLST7:
 4492 01b9 30010000 		.4byte	.LVL13-.Ltext0
ARM GAS  C:\Users\RAKIBU~1\AppData\Local\Temp\cclagJ2i.s 			page 80


 4493 01bd 36010000 		.4byte	.LVL14-.Ltext0
 4494 01c1 0300     		.2byte	0x3
 4495 01c3 08       		.byte	0x8
 4496 01c4 20       		.byte	0x20
 4497 01c5 9F       		.byte	0x9f
 4498 01c6 00000000 		.4byte	0
 4499 01ca 00000000 		.4byte	0
 4500              	.LLST8:
 4501 01ce 56010000 		.4byte	.LVL15-.Ltext0
 4502 01d2 5C010000 		.4byte	.LVL16-.Ltext0
 4503 01d6 0200     		.2byte	0x2
 4504 01d8 30       		.byte	0x30
 4505 01d9 9F       		.byte	0x9f
 4506 01da 00000000 		.4byte	0
 4507 01de 00000000 		.4byte	0
 4508              	.LLST3:
 4509 01e2 D0000000 		.4byte	.LVL7-.Ltext0
 4510 01e6 05010000 		.4byte	.LVL10-1-.Ltext0
 4511 01ea 0100     		.2byte	0x1
 4512 01ec 50       		.byte	0x50
 4513 01ed 05010000 		.4byte	.LVL10-1-.Ltext0
 4514 01f1 14010000 		.4byte	.LFE298-.Ltext0
 4515 01f5 0400     		.2byte	0x4
 4516 01f7 F3       		.byte	0xf3
 4517 01f8 01       		.uleb128 0x1
 4518 01f9 50       		.byte	0x50
 4519 01fa 9F       		.byte	0x9f
 4520 01fb 00000000 		.4byte	0
 4521 01ff 00000000 		.4byte	0
 4522              	.LLST4:
 4523 0203 E0000000 		.4byte	.LVL8-.Ltext0
 4524 0207 E6000000 		.4byte	.LVL9-.Ltext0
 4525 020b 0300     		.2byte	0x3
 4526 020d 08       		.byte	0x8
 4527 020e 20       		.byte	0x20
 4528 020f 9F       		.byte	0x9f
 4529 0210 00000000 		.4byte	0
 4530 0214 00000000 		.4byte	0
 4531              	.LLST5:
 4532 0218 06010000 		.4byte	.LVL10-.Ltext0
 4533 021c 0C010000 		.4byte	.LVL11-.Ltext0
 4534 0220 0200     		.2byte	0x2
 4535 0222 30       		.byte	0x30
 4536 0223 9F       		.byte	0x9f
 4537 0224 00000000 		.4byte	0
 4538 0228 00000000 		.4byte	0
 4539              	.LLST1:
 4540 022c 80000000 		.4byte	.LVL4-.Ltext0
 4541 0230 96000000 		.4byte	.LVL5-.Ltext0
 4542 0234 0100     		.2byte	0x1
 4543 0236 50       		.byte	0x50
 4544 0237 96000000 		.4byte	.LVL5-.Ltext0
 4545 023b C4000000 		.4byte	.LFE297-.Ltext0
 4546 023f 0400     		.2byte	0x4
 4547 0241 F3       		.byte	0xf3
 4548 0242 01       		.uleb128 0x1
 4549 0243 50       		.byte	0x50
ARM GAS  C:\Users\RAKIBU~1\AppData\Local\Temp\cclagJ2i.s 			page 81


 4550 0244 9F       		.byte	0x9f
 4551 0245 00000000 		.4byte	0
 4552 0249 00000000 		.4byte	0
 4553              	.LLST2:
 4554 024d 80000000 		.4byte	.LVL4-.Ltext0
 4555 0251 BB000000 		.4byte	.LVL6-1-.Ltext0
 4556 0255 0100     		.2byte	0x1
 4557 0257 51       		.byte	0x51
 4558 0258 BB000000 		.4byte	.LVL6-1-.Ltext0
 4559 025c C4000000 		.4byte	.LFE297-.Ltext0
 4560 0260 0400     		.2byte	0x4
 4561 0262 F3       		.byte	0xf3
 4562 0263 01       		.uleb128 0x1
 4563 0264 51       		.byte	0x51
 4564 0265 9F       		.byte	0x9f
 4565 0266 00000000 		.4byte	0
 4566 026a 00000000 		.4byte	0
 4567              	.LLST0:
 4568 026e 56000000 		.4byte	.LVL0-.Ltext0
 4569 0272 5A000000 		.4byte	.LVL1-.Ltext0
 4570 0276 0200     		.2byte	0x2
 4571 0278 30       		.byte	0x30
 4572 0279 9F       		.byte	0x9f
 4573 027a 5A000000 		.4byte	.LVL1-.Ltext0
 4574 027e 5E000000 		.4byte	.LVL2-.Ltext0
 4575 0282 0100     		.2byte	0x1
 4576 0284 53       		.byte	0x53
 4577 0285 5E000000 		.4byte	.LVL2-.Ltext0
 4578 0289 70000000 		.4byte	.LVL3-.Ltext0
 4579 028d 0300     		.2byte	0x3
 4580 028f 72       		.byte	0x72
 4581 0290 7F       		.sleb128 -1
 4582 0291 9F       		.byte	0x9f
 4583 0292 70000000 		.4byte	.LVL3-.Ltext0
 4584 0296 7C000000 		.4byte	.LFE296-.Ltext0
 4585 029a 0100     		.2byte	0x1
 4586 029c 53       		.byte	0x53
 4587 029d 00000000 		.4byte	0
 4588 02a1 00000000 		.4byte	0
 4589              		.section	.debug_aranges,"",%progbits
 4590 0000 1C000000 		.4byte	0x1c
 4591 0004 0200     		.2byte	0x2
 4592 0006 00000000 		.4byte	.Ldebug_info0
 4593 000a 04       		.byte	0x4
 4594 000b 00       		.byte	0
 4595 000c 0000     		.2byte	0
 4596 000e 0000     		.2byte	0
 4597 0010 00000000 		.4byte	.Ltext0
 4598 0014 2C030000 		.4byte	.Letext0-.Ltext0
 4599 0018 00000000 		.4byte	0
 4600 001c 00000000 		.4byte	0
 4601              		.section	.debug_ranges,"",%progbits
 4602              	.Ldebug_ranges0:
 4603 0000 1C020000 		.4byte	.LBB107-.Ltext0
 4604 0004 3C020000 		.4byte	.LBE107-.Ltext0
 4605 0008 3E020000 		.4byte	.LBB113-.Ltext0
 4606 000c 50020000 		.4byte	.LBE113-.Ltext0
ARM GAS  C:\Users\RAKIBU~1\AppData\Local\Temp\cclagJ2i.s 			page 82


 4607 0010 00000000 		.4byte	0
 4608 0014 00000000 		.4byte	0
 4609 0018 88020000 		.4byte	.LBB129-.Ltext0
 4610 001c A8020000 		.4byte	.LBE129-.Ltext0
 4611 0020 AA020000 		.4byte	.LBB135-.Ltext0
 4612 0024 BC020000 		.4byte	.LBE135-.Ltext0
 4613 0028 00000000 		.4byte	0
 4614 002c 00000000 		.4byte	0
 4615 0030 F8020000 		.4byte	.LBB151-.Ltext0
 4616 0034 18030000 		.4byte	.LBE151-.Ltext0
 4617 0038 1A030000 		.4byte	.LBB157-.Ltext0
 4618 003c 2C030000 		.4byte	.LBE157-.Ltext0
 4619 0040 00000000 		.4byte	0
 4620 0044 00000000 		.4byte	0
 4621              		.section	.debug_line,"",%progbits
 4622              	.Ldebug_line0:
 4623 0000 B6050000 		.section	.debug_str,"MS",%progbits,1
 4623      02006704 
 4623      00000201 
 4623      FB0E0D00 
 4623      01010101 
 4624              	.LASF166:
 4625 0000 6F66665F 		.ascii	"off_ctx\000"
 4625      63747800 
 4626              	.LASF4:
 4627 0008 73697A65 		.ascii	"size_t\000"
 4627      5F7400
 4628              	.LASF165:
 4629 000f 6F66665F 		.ascii	"off_prio\000"
 4629      7072696F 
 4629      00
 4630              	.LASF182:
 4631 0018 656E646D 		.ascii	"endmem\000"
 4631      656D00
 4632              	.LASF152:
 4633 001f 77747365 		.ascii	"wtsemp\000"
 4633      6D7000
 4634              	.LASF79:
 4635 0026 73797374 		.ascii	"systime_t\000"
 4635      696D655F 
 4635      7400
 4636              	.LASF174:
 4637 0030 6F66665F 		.ascii	"off_preempt\000"
 4637      70726565 
 4637      6D707400 
 4638              	.LASF157:
 4639 003c 6F776E65 		.ascii	"owner\000"
 4639      7200
 4640              	.LASF26:
 4641 0042 74707269 		.ascii	"tprio_t\000"
 4641      6F5F7400 
 4642              	.LASF177:
 4643 004a 63685F64 		.ascii	"ch_debug\000"
 4643      65627567 
 4643      00
 4644              	.LASF209:
 4645 0053 63684462 		.ascii	"chDbgSuspendTraceI\000"
ARM GAS  C:\Users\RAKIBU~1\AppData\Local\Temp\cclagJ2i.s 			page 83


 4645      67537573 
 4645      70656E64 
 4645      54726163 
 4645      654900
 4646              	.LASF188:
 4647 0066 70726F76 		.ascii	"provider\000"
 4647      69646572 
 4647      00
 4648              	.LASF127:
 4649 006f 75736572 		.ascii	"user\000"
 4649      00
 4650              	.LASF18:
 4651 0074 696E7433 		.ascii	"int32_t\000"
 4651      325F7400 
 4652              	.LASF59:
 4653 007c 76746675 		.ascii	"vtfunc_t\000"
 4653      6E635F74 
 4653      00
 4654              	.LASF65:
 4655 0085 63685F76 		.ascii	"ch_virtual_timers_list\000"
 4655      69727475 
 4655      616C5F74 
 4655      696D6572 
 4655      735F6C69 
 4656              	.LASF238:
 4657 009c 5F5F6675 		.ascii	"__func__\000"
 4657      6E635F5F 
 4657      00
 4658              	.LASF91:
 4659 00a5 46554E43 		.ascii	"FUNCTION0\000"
 4659      54494F4E 
 4659      3000
 4660              	.LASF95:
 4661 00af 46554E43 		.ascii	"FUNCTION1\000"
 4661      54494F4E 
 4661      3100
 4662              	.LASF99:
 4663 00b9 46554E43 		.ascii	"FUNCTION2\000"
 4663      54494F4E 
 4663      3200
 4664              	.LASF103:
 4665 00c3 46554E43 		.ascii	"FUNCTION3\000"
 4665      54494F4E 
 4665      3300
 4666              	.LASF129:
 4667 00cd 72747374 		.ascii	"rtstamp\000"
 4667      616D7000 
 4668              	.LASF38:
 4669 00d5 73746174 		.ascii	"state\000"
 4669      6500
 4670              	.LASF71:
 4671 00db 6C6F636B 		.ascii	"lock_cnt\000"
 4671      5F636E74 
 4671      00
 4672              	.LASF47:
 4673 00e4 73746174 		.ascii	"stats\000"
 4673      7300
ARM GAS  C:\Users\RAKIBU~1\AppData\Local\Temp\cclagJ2i.s 			page 84


 4674              	.LASF128:
 4675 00ea 74797065 		.ascii	"type\000"
 4675      00
 4676              	.LASF195:
 4677 00ef 6F626A5F 		.ascii	"obj_list\000"
 4677      6C697374 
 4677      00
 4678              	.LASF119:
 4679 00f8 444D4152 		.ascii	"DMAR\000"
 4679      00
 4680              	.LASF190:
 4681 00fd 63685F64 		.ascii	"ch_dyn_element\000"
 4681      796E5F65 
 4681      6C656D65 
 4681      6E7400
 4682              	.LASF236:
 4683 010c 433A5C55 		.ascii	"C:\\Users\\RakibulChowdhury\\OneDrive - DIAS Geophy"
 4683      73657273 
 4683      5C52616B 
 4683      6962756C 
 4683      43686F77 
 4684 013c 73696361 		.ascii	"sical\\Dias32FirmwareDevelopment\\FirmwareRepo\\Dia"
 4684      6C5C4469 
 4684      61733332 
 4684      4669726D 
 4684      77617265 
 4685 016c 73333257 		.ascii	"s32Workspace\\DIAS-Gen2-Rakibul\000"
 4685      6F726B73 
 4685      70616365 
 4685      5C444941 
 4685      532D4765 
 4686              	.LASF168:
 4687 018b 6F66665F 		.ascii	"off_older\000"
 4687      6F6C6465 
 4687      7200
 4688              	.LASF33:
 4689 0195 7072696F 		.ascii	"prio\000"
 4689      00
 4690              	.LASF230:
 4691 019a 5F646267 		.ascii	"_dbg_check_unlock\000"
 4691      5F636865 
 4691      636B5F75 
 4691      6E6C6F63 
 4691      6B00
 4692              	.LASF149:
 4693 01ac 65786974 		.ascii	"exitcode\000"
 4693      636F6465 
 4693      00
 4694              	.LASF5:
 4695 01b5 5F5F7569 		.ascii	"__uint8_t\000"
 4695      6E74385F 
 4695      7400
 4696              	.LASF11:
 4697 01bf 6C6F6E67 		.ascii	"long int\000"
 4697      20696E74 
 4697      00
 4698              	.LASF224:
ARM GAS  C:\Users\RAKIBU~1\AppData\Local\Temp\cclagJ2i.s 			page 85


 4699 01c8 706F7274 		.ascii	"port_unlock\000"
 4699      5F756E6C 
 4699      6F636B00 
 4700              	.LASF160:
 4701 01d4 7A65726F 		.ascii	"zero\000"
 4701      00
 4702              	.LASF24:
 4703 01d9 74737461 		.ascii	"tstate_t\000"
 4703      74655F74 
 4703      00
 4704              	.LASF22:
 4705 01e2 72747469 		.ascii	"rttime_t\000"
 4705      6D655F74 
 4705      00
 4706              	.LASF53:
 4707 01eb 74687265 		.ascii	"threads_queue_t\000"
 4707      6164735F 
 4707      71756575 
 4707      655F7400 
 4708              	.LASF109:
 4709 01fb 72656761 		.ascii	"regarm_t\000"
 4709      726D5F74 
 4709      00
 4710              	.LASF94:
 4711 0204 4D41534B 		.ascii	"MASK1\000"
 4711      3100
 4712              	.LASF196:
 4713 020a 6F626A5F 		.ascii	"obj_pool\000"
 4713      706F6F6C 
 4713      00
 4714              	.LASF231:
 4715 0213 5F737461 		.ascii	"_stats_stop_measure_crit_thd\000"
 4715      74735F73 
 4715      746F705F 
 4715      6D656173 
 4715      7572655F 
 4716              	.LASF141:
 4717 0230 63756D75 		.ascii	"cumulative\000"
 4717      6C617469 
 4717      766500
 4718              	.LASF183:
 4719 023b 6D656D63 		.ascii	"memcore_t\000"
 4719      6F72655F 
 4719      7400
 4720              	.LASF3:
 4721 0245 7369676E 		.ascii	"signed char\000"
 4721      65642063 
 4721      68617200 
 4722              	.LASF154:
 4723 0251 65776D61 		.ascii	"ewmask\000"
 4723      736B00
 4724              	.LASF16:
 4725 0258 75696E74 		.ascii	"uint8_t\000"
 4725      385F7400 
 4726              	.LASF131:
 4727 0260 63685F74 		.ascii	"ch_trace_event_t\000"
 4727      72616365 
ARM GAS  C:\Users\RAKIBU~1\AppData\Local\Temp\cclagJ2i.s 			page 86


 4727      5F657665 
 4727      6E745F74 
 4727      00
 4728              	.LASF85:
 4729 0271 534C4545 		.ascii	"SLEEPCNT\000"
 4729      50434E54 
 4729      00
 4730              	.LASF28:
 4731 027a 6576656E 		.ascii	"eventmask_t\000"
 4731      746D6173 
 4731      6B5F7400 
 4732              	.LASF150:
 4733 0286 77747472 		.ascii	"wttrp\000"
 4733      7000
 4734              	.LASF92:
 4735 028c 52455345 		.ascii	"RESERVED0\000"
 4735      52564544 
 4735      3000
 4736              	.LASF96:
 4737 0296 52455345 		.ascii	"RESERVED1\000"
 4737      52564544 
 4737      3100
 4738              	.LASF6:
 4739 02a0 756E7369 		.ascii	"unsigned char\000"
 4739      676E6564 
 4739      20636861 
 4739      7200
 4740              	.LASF66:
 4741 02ae 6C617374 		.ascii	"lasttime\000"
 4741      74696D65 
 4741      00
 4742              	.LASF237:
 4743 02b7 74726163 		.ascii	"trace_next\000"
 4743      655F6E65 
 4743      787400
 4744              	.LASF69:
 4745 02c2 70616E69 		.ascii	"panic_msg\000"
 4745      635F6D73 
 4745      6700
 4746              	.LASF72:
 4747 02cc 74726163 		.ascii	"trace_buffer\000"
 4747      655F6275 
 4747      66666572 
 4747      00
 4748              	.LASF67:
 4749 02d9 73797374 		.ascii	"system_debug_t\000"
 4749      656D5F64 
 4749      65627567 
 4749      5F7400
 4750              	.LASF228:
 4751 02e8 5F737461 		.ascii	"_stats_start_measure_crit_thd\000"
 4751      74735F73 
 4751      74617274 
 4751      5F6D6561 
 4751      73757265 
 4752              	.LASF179:
 4753 0306 5F426F6F 		.ascii	"_Bool\000"
ARM GAS  C:\Users\RAKIBU~1\AppData\Local\Temp\cclagJ2i.s 			page 87


 4753      6C00
 4754              	.LASF233:
 4755 030c 63684462 		.ascii	"chDbgCheckClassI\000"
 4755      67436865 
 4755      636B436C 
 4755      61737349 
 4755      00
 4756              	.LASF89:
 4757 031d 434F4D50 		.ascii	"COMP0\000"
 4757      3000
 4758              	.LASF93:
 4759 0323 434F4D50 		.ascii	"COMP1\000"
 4759      3100
 4760              	.LASF97:
 4761 0329 434F4D50 		.ascii	"COMP2\000"
 4761      3200
 4762              	.LASF101:
 4763 032f 434F4D50 		.ascii	"COMP3\000"
 4763      3300
 4764              	.LASF115:
 4765 0335 43434D52 		.ascii	"CCMR1\000"
 4765      3100
 4766              	.LASF116:
 4767 033b 43434D52 		.ascii	"CCMR2\000"
 4767      3200
 4768              	.LASF120:
 4769 0341 43434D52 		.ascii	"CCMR3\000"
 4769      3300
 4770              	.LASF124:
 4771 0347 63686172 		.ascii	"char\000"
 4771      00
 4772              	.LASF198:
 4773 034c 73656D5F 		.ascii	"sem_list\000"
 4773      6C697374 
 4773      00
 4774              	.LASF8:
 4775 0355 5F5F7569 		.ascii	"__uint16_t\000"
 4775      6E743136 
 4775      5F7400
 4776              	.LASF123:
 4777 0360 77746F62 		.ascii	"wtobjp\000"
 4777      6A7000
 4778              	.LASF100:
 4779 0367 52455345 		.ascii	"RESERVED2\000"
 4779      52564544 
 4779      3200
 4780              	.LASF83:
 4781 0371 43504943 		.ascii	"CPICNT\000"
 4781      4E5400
 4782              	.LASF144:
 4783 0378 6E5F6374 		.ascii	"n_ctxswc\000"
 4783      78737763 
 4783      00
 4784              	.LASF173:
 4785 0381 6F66665F 		.ascii	"off_refs\000"
 4785      72656673 
 4785      00
ARM GAS  C:\Users\RAKIBU~1\AppData\Local\Temp\cclagJ2i.s 			page 88


 4786              	.LASF39:
 4787 038a 666C6167 		.ascii	"flags\000"
 4787      7300
 4788              	.LASF110:
 4789 0390 73746B61 		.ascii	"stkalign_t\000"
 4789      6C69676E 
 4789      5F7400
 4790              	.LASF46:
 4791 039b 6D706F6F 		.ascii	"mpool\000"
 4791      6C00
 4792              	.LASF139:
 4793 03a1 776F7273 		.ascii	"worst\000"
 4793      7400
 4794              	.LASF162:
 4795 03a7 70747273 		.ascii	"ptrsize\000"
 4795      697A6500 
 4796              	.LASF121:
 4797 03af 43435852 		.ascii	"CCXR\000"
 4797      00
 4798              	.LASF218:
 4799 03b4 706F7274 		.ascii	"port_timer_get_time\000"
 4799      5F74696D 
 4799      65725F67 
 4799      65745F74 
 4799      696D6500 
 4800              	.LASF175:
 4801 03c8 6F66665F 		.ascii	"off_time\000"
 4801      74696D65 
 4801      00
 4802              	.LASF208:
 4803 03d1 63684462 		.ascii	"chDbgSuspendTrace\000"
 4803      67537573 
 4803      70656E64 
 4803      54726163 
 4803      6500
 4804              	.LASF29:
 4805 03e3 636E745F 		.ascii	"cnt_t\000"
 4805      7400
 4806              	.LASF202:
 4807 03e9 70697065 		.ascii	"pipe_list\000"
 4807      5F6C6973 
 4807      7400
 4808              	.LASF134:
 4809 03f3 62756666 		.ascii	"buffer\000"
 4809      657200
 4810              	.LASF191:
 4811 03fa 64796E5F 		.ascii	"dyn_element_t\000"
 4811      656C656D 
 4811      656E745F 
 4811      7400
 4812              	.LASF135:
 4813 0408 63685F74 		.ascii	"ch_trace_buffer_t\000"
 4813      72616365 
 4813      5F627566 
 4813      6665725F 
 4813      7400
 4814              	.LASF153:
ARM GAS  C:\Users\RAKIBU~1\AppData\Local\Temp\cclagJ2i.s 			page 89


 4815 041a 77746D74 		.ascii	"wtmtxp\000"
 4815      787000
 4816              	.LASF57:
 4817 0421 63685F72 		.ascii	"ch_ready_list\000"
 4817      65616479 
 4817      5F6C6973 
 4817      7400
 4818              	.LASF199:
 4819 042f 73656D5F 		.ascii	"sem_pool\000"
 4819      706F6F6C 
 4819      00
 4820              	.LASF181:
 4821 0438 6E657874 		.ascii	"nextmem\000"
 4821      6D656D00 
 4822              	.LASF86:
 4823 0440 4C535543 		.ascii	"LSUCNT\000"
 4823      4E5400
 4824              	.LASF234:
 4825 0447 474E5520 		.ascii	"GNU C11 7.2.1 20170904 (release) [ARM/embedded-7-br"
 4825      43313120 
 4825      372E322E 
 4825      31203230 
 4825      31373039 
 4826 047a 616E6368 		.ascii	"anch revision 255204] -mcpu=cortex-m4 -mthumb -ggdb"
 4826      20726576 
 4826      6973696F 
 4826      6E203235 
 4826      35323034 
 4827 04ad 202D4F67 		.ascii	" -Og -fomit-frame-pointer -falign-functions=16\000"
 4827      202D666F 
 4827      6D69742D 
 4827      6672616D 
 4827      652D706F 
 4828              	.LASF145:
 4829 04dc 6D5F6372 		.ascii	"m_crit_thd\000"
 4829      69745F74 
 4829      686400
 4830              	.LASF14:
 4831 04e7 5F5F7569 		.ascii	"__uint64_t\000"
 4831      6E743634 
 4831      5F7400
 4832              	.LASF171:
 4833 04f2 6F66665F 		.ascii	"off_state\000"
 4833      73746174 
 4833      6500
 4834              	.LASF226:
 4835 04fc 63685379 		.ascii	"chSysUnlock\000"
 4835      73556E6C 
 4835      6F636B00 
 4836              	.LASF13:
 4837 0508 6C6F6E67 		.ascii	"long unsigned int\000"
 4837      20756E73 
 4837      69676E65 
 4837      6420696E 
 4837      7400
 4838              	.LASF164:
 4839 051a 74687265 		.ascii	"threadsize\000"
ARM GAS  C:\Users\RAKIBU~1\AppData\Local\Temp\cclagJ2i.s 			page 90


 4839      61647369 
 4839      7A6500
 4840              	.LASF221:
 4841 0525 63685379 		.ascii	"chSysLock\000"
 4841      734C6F63 
 4841      6B00
 4842              	.LASF114:
 4843 052f 44494552 		.ascii	"DIER\000"
 4843      00
 4844              	.LASF106:
 4845 0534 53797374 		.ascii	"SystemCoreClock\000"
 4845      656D436F 
 4845      7265436C 
 4845      6F636B00 
 4846              	.LASF155:
 4847 0544 63685F73 		.ascii	"ch_semaphore\000"
 4847      656D6170 
 4847      686F7265 
 4847      00
 4848              	.LASF104:
 4849 0551 4457545F 		.ascii	"DWT_Type\000"
 4849      54797065 
 4849      00
 4850              	.LASF212:
 4851 055a 5F747261 		.ascii	"_trace_halt\000"
 4851      63655F68 
 4851      616C7400 
 4852              	.LASF50:
 4853 0566 63685F74 		.ascii	"ch_thread\000"
 4853      68726561 
 4853      6400
 4854              	.LASF64:
 4855 0570 76697274 		.ascii	"virtual_timers_list_t\000"
 4855      75616C5F 
 4855      74696D65 
 4855      72735F6C 
 4855      6973745F 
 4856              	.LASF158:
 4857 0586 63685F69 		.ascii	"ch_idle_thread_wa\000"
 4857      646C655F 
 4857      74687265 
 4857      61645F77 
 4857      6100
 4858              	.LASF206:
 4859 0598 63684462 		.ascii	"chDbgResumeTraceI\000"
 4859      67526573 
 4859      756D6554 
 4859      72616365 
 4859      4900
 4860              	.LASF201:
 4861 05aa 6669666F 		.ascii	"fifo_list\000"
 4861      5F6C6973 
 4861      7400
 4862              	.LASF60:
 4863 05b4 76697274 		.ascii	"virtual_timer_t\000"
 4863      75616C5F 
 4863      74696D65 
ARM GAS  C:\Users\RAKIBU~1\AppData\Local\Temp\cclagJ2i.s 			page 91


 4863      725F7400 
 4864              	.LASF56:
 4865 05c4 72656164 		.ascii	"ready_list_t\000"
 4865      795F6C69 
 4865      73745F74 
 4865      00
 4866              	.LASF35:
 4867 05d1 6F6C6465 		.ascii	"older\000"
 4867      7200
 4868              	.LASF45:
 4869 05d7 7265616C 		.ascii	"realprio\000"
 4869      7072696F 
 4869      00
 4870              	.LASF122:
 4871 05e0 73746D33 		.ascii	"stm32_tim_t\000"
 4871      325F7469 
 4871      6D5F7400 
 4872              	.LASF216:
 4873 05ec 5F747261 		.ascii	"_trace_init\000"
 4873      63655F69 
 4873      6E697400 
 4874              	.LASF30:
 4875 05f8 75636E74 		.ascii	"ucnt_t\000"
 4875      5F7400
 4876              	.LASF170:
 4877 05ff 6F66665F 		.ascii	"off_stklimit\000"
 4877      73746B6C 
 4877      696D6974 
 4877      00
 4878              	.LASF185:
 4879 060c 706F6F6C 		.ascii	"pool_header\000"
 4879      5F686561 
 4879      64657200 
 4880              	.LASF239:
 4881 0618 62617365 		.ascii	"basePri\000"
 4881      50726900 
 4882              	.LASF51:
 4883 0620 63685F74 		.ascii	"ch_threads_list\000"
 4883      68726561 
 4883      64735F6C 
 4883      69737400 
 4884              	.LASF143:
 4885 0630 6E5F6972 		.ascii	"n_irq\000"
 4885      7100
 4886              	.LASF12:
 4887 0636 5F5F7569 		.ascii	"__uint32_t\000"
 4887      6E743332 
 4887      5F7400
 4888              	.LASF44:
 4889 0641 6D74786C 		.ascii	"mtxlist\000"
 4889      69737400 
 4890              	.LASF1:
 4891 0649 6C6F6E67 		.ascii	"long long int\000"
 4891      206C6F6E 
 4891      6720696E 
 4891      7400
 4892              	.LASF80:
ARM GAS  C:\Users\RAKIBU~1\AppData\Local\Temp\cclagJ2i.s 			page 92


 4893 0657 73797369 		.ascii	"sysinterval_t\000"
 4893      6E746572 
 4893      76616C5F 
 4893      7400
 4894              	.LASF223:
 4895 0665 706F7274 		.ascii	"port_lock_from_isr\000"
 4895      5F6C6F63 
 4895      6B5F6672 
 4895      6F6D5F69 
 4895      737200
 4896              	.LASF211:
 4897 0678 63684462 		.ascii	"chDbgWriteTraceI\000"
 4897      67577269 
 4897      74655472 
 4897      61636549 
 4897      00
 4898              	.LASF194:
 4899 0689 63685F6F 		.ascii	"ch_objects_factory\000"
 4899      626A6563 
 4899      74735F66 
 4899      6163746F 
 4899      727900
 4900              	.LASF207:
 4901 069c 6D61736B 		.ascii	"mask\000"
 4901      00
 4902              	.LASF187:
 4903 06a1 616C6967 		.ascii	"align\000"
 4903      6E00
 4904              	.LASF105:
 4905 06a7 49544D5F 		.ascii	"ITM_RxBuffer\000"
 4905      52784275 
 4905      66666572 
 4905      00
 4906              	.LASF142:
 4907 06b4 74696D65 		.ascii	"time_measurement_t\000"
 4907      5F6D6561 
 4907      73757265 
 4907      6D656E74 
 4907      5F7400
 4908              	.LASF167:
 4909 06c7 6F66665F 		.ascii	"off_newer\000"
 4909      6E657765 
 4909      7200
 4910              	.LASF146:
 4911 06d1 6D5F6372 		.ascii	"m_crit_isr\000"
 4911      69745F69 
 4911      737200
 4912              	.LASF0:
 4913 06dc 756E7369 		.ascii	"unsigned int\000"
 4913      676E6564 
 4913      20696E74 
 4913      00
 4914              	.LASF81:
 4915 06e9 4354524C 		.ascii	"CTRL\000"
 4915      00
 4916              	.LASF21:
 4917 06ee 7274636E 		.ascii	"rtcnt_t\000"
ARM GAS  C:\Users\RAKIBU~1\AppData\Local\Temp\cclagJ2i.s 			page 93


 4917      745F7400 
 4918              	.LASF214:
 4919 06f6 5F747261 		.ascii	"_trace_isr_enter\000"
 4919      63655F69 
 4919      73725F65 
 4919      6E746572 
 4919      00
 4920              	.LASF84:
 4921 0707 45584343 		.ascii	"EXCCNT\000"
 4921      4E5400
 4922              	.LASF147:
 4923 070e 6B65726E 		.ascii	"kernel_stats_t\000"
 4923      656C5F73 
 4923      74617473 
 4923      5F7400
 4924              	.LASF58:
 4925 071d 63757272 		.ascii	"current\000"
 4925      656E7400 
 4926              	.LASF136:
 4927 0725 6F666673 		.ascii	"offset\000"
 4927      657400
 4928              	.LASF180:
 4929 072c 6D656D67 		.ascii	"memgetfunc_t\000"
 4929      65746675 
 4929      6E635F74 
 4929      00
 4930              	.LASF82:
 4931 0739 43594343 		.ascii	"CYCCNT\000"
 4931      4E5400
 4932              	.LASF31:
 4933 0740 74687265 		.ascii	"thread_t\000"
 4933      61645F74 
 4933      00
 4934              	.LASF2:
 4935 0749 6C6F6E67 		.ascii	"long double\000"
 4935      20646F75 
 4935      626C6500 
 4936              	.LASF48:
 4937 0755 74687265 		.ascii	"thread_reference_t\000"
 4937      61645F72 
 4937      65666572 
 4937      656E6365 
 4937      5F7400
 4938              	.LASF217:
 4939 0768 63685654 		.ascii	"chVTGetSystemTimeX\000"
 4939      47657453 
 4939      79737465 
 4939      6D54696D 
 4939      655800
 4940              	.LASF151:
 4941 077b 73656E74 		.ascii	"sentmsg\000"
 4941      6D736700 
 4942              	.LASF112:
 4943 0783 706F7274 		.ascii	"port_intctx\000"
 4943      5F696E74 
 4943      63747800 
 4944              	.LASF203:
ARM GAS  C:\Users\RAKIBU~1\AppData\Local\Temp\cclagJ2i.s 			page 94


 4945 078f 6F626A65 		.ascii	"objects_factory_t\000"
 4945      6374735F 
 4945      66616374 
 4945      6F72795F 
 4945      7400
 4946              	.LASF197:
 4947 07a1 6275665F 		.ascii	"buf_list\000"
 4947      6C697374 
 4947      00
 4948              	.LASF222:
 4949 07aa 706F7274 		.ascii	"port_unlock_from_isr\000"
 4949      5F756E6C 
 4949      6F636B5F 
 4949      66726F6D 
 4949      5F697372 
 4950              	.LASF70:
 4951 07bf 6973725F 		.ascii	"isr_cnt\000"
 4951      636E7400 
 4952              	.LASF107:
 4953 07c7 41484250 		.ascii	"AHBPrescTable\000"
 4953      72657363 
 4953      5461626C 
 4953      6500
 4954              	.LASF61:
 4955 07d5 63685F76 		.ascii	"ch_virtual_timer\000"
 4955      69727475 
 4955      616C5F74 
 4955      696D6572 
 4955      00
 4956              	.LASF219:
 4957 07e6 73745F6C 		.ascii	"st_lld_get_counter\000"
 4957      6C645F67 
 4957      65745F63 
 4957      6F756E74 
 4957      657200
 4958              	.LASF90:
 4959 07f9 4D41534B 		.ascii	"MASK0\000"
 4959      3000
 4960              	.LASF78:
 4961 07ff 6B65726E 		.ascii	"kernel_stats\000"
 4961      656C5F73 
 4961      74617473 
 4961      00
 4962              	.LASF98:
 4963 080c 4D41534B 		.ascii	"MASK2\000"
 4963      3200
 4964              	.LASF102:
 4965 0812 4D41534B 		.ascii	"MASK3\000"
 4965      3300
 4966              	.LASF133:
 4967 0818 73697A65 		.ascii	"size\000"
 4967      00
 4968              	.LASF15:
 4969 081d 6C6F6E67 		.ascii	"long long unsigned int\000"
 4969      206C6F6E 
 4969      6720756E 
 4969      7369676E 
ARM GAS  C:\Users\RAKIBU~1\AppData\Local\Temp\cclagJ2i.s 			page 95


 4969      65642069 
 4970              	.LASF17:
 4971 0834 75696E74 		.ascii	"uint16_t\000"
 4971      31365F74 
 4971      00
 4972              	.LASF169:
 4973 083d 6F66665F 		.ascii	"off_name\000"
 4973      6E616D65 
 4973      00
 4974              	.LASF27:
 4975 0846 6D73675F 		.ascii	"msg_t\000"
 4975      7400
 4976              	.LASF220:
 4977 084c 706F7274 		.ascii	"port_rt_get_counter_value\000"
 4977      5F72745F 
 4977      6765745F 
 4977      636F756E 
 4977      7465725F 
 4978              	.LASF54:
 4979 0866 63685F74 		.ascii	"ch_threads_queue\000"
 4979      68726561 
 4979      64735F71 
 4979      75657565 
 4979      00
 4980              	.LASF117:
 4981 0877 43434552 		.ascii	"CCER\000"
 4981      00
 4982              	.LASF62:
 4983 087c 64656C74 		.ascii	"delta\000"
 4983      6100
 4984              	.LASF235:
 4985 0882 2E2E2F2E 		.ascii	"../../../ChibiOSRepo/chibios191/os/rt/src/chtrace.c"
 4985      2E2F2E2E 
 4985      2F436869 
 4985      62694F53 
 4985      5265706F 
 4986 08b5 00       		.ascii	"\000"
 4987              	.LASF205:
 4988 08b6 63684462 		.ascii	"chDbgResumeTrace\000"
 4988      67526573 
 4988      756D6554 
 4988      72616365 
 4988      00
 4989              	.LASF40:
 4990 08c7 72656673 		.ascii	"refs\000"
 4990      00
 4991              	.LASF32:
 4992 08cc 71756575 		.ascii	"queue\000"
 4992      6500
 4993              	.LASF43:
 4994 08d2 6570656E 		.ascii	"epending\000"
 4994      64696E67 
 4994      00
 4995              	.LASF125:
 4996 08db 72656173 		.ascii	"reason\000"
 4996      6F6E00
 4997              	.LASF204:
ARM GAS  C:\Users\RAKIBU~1\AppData\Local\Temp\cclagJ2i.s 			page 96


 4998 08e2 63685F66 		.ascii	"ch_factory\000"
 4998      6163746F 
 4998      727900
 4999              	.LASF229:
 5000 08ed 5F646267 		.ascii	"_dbg_check_lock\000"
 5000      5F636865 
 5000      636B5F6C 
 5000      6F636B00 
 5001              	.LASF88:
 5002 08fd 50435352 		.ascii	"PCSR\000"
 5002      00
 5003              	.LASF200:
 5004 0902 6D62785F 		.ascii	"mbx_list\000"
 5004      6C697374 
 5004      00
 5005              	.LASF77:
 5006 090b 6D61696E 		.ascii	"mainthread\000"
 5006      74687265 
 5006      616400
 5007              	.LASF113:
 5008 0916 534D4352 		.ascii	"SMCR\000"
 5008      00
 5009              	.LASF161:
 5010 091b 76657273 		.ascii	"version\000"
 5010      696F6E00 
 5011              	.LASF126:
 5012 0923 68616C74 		.ascii	"halt\000"
 5012      00
 5013              	.LASF227:
 5014 0928 5F5F7365 		.ascii	"__set_BASEPRI\000"
 5014      745F4241 
 5014      53455052 
 5014      4900
 5015              	.LASF138:
 5016 0936 62657374 		.ascii	"best\000"
 5016      00
 5017              	.LASF37:
 5018 093b 77616261 		.ascii	"wabase\000"
 5018      736500
 5019              	.LASF210:
 5020 0942 63684462 		.ascii	"chDbgWriteTrace\000"
 5020      67577269 
 5020      74655472 
 5020      61636500 
 5021              	.LASF189:
 5022 0952 6D656D6F 		.ascii	"memory_pool_t\000"
 5022      72795F70 
 5022      6F6F6C5F 
 5022      7400
 5023              	.LASF130:
 5024 0960 74696D65 		.ascii	"time\000"
 5024      00
 5025              	.LASF75:
 5026 0965 726C6973 		.ascii	"rlist\000"
 5026      7400
 5027              	.LASF23:
 5028 096b 746D6F64 		.ascii	"tmode_t\000"
ARM GAS  C:\Users\RAKIBU~1\AppData\Local\Temp\cclagJ2i.s 			page 97


 5028      655F7400 
 5029              	.LASF213:
 5030 0973 5F747261 		.ascii	"_trace_isr_leave\000"
 5030      63655F69 
 5030      73725F6C 
 5030      65617665 
 5030      00
 5031              	.LASF132:
 5032 0984 73757370 		.ascii	"suspended\000"
 5032      656E6465 
 5032      6400
 5033              	.LASF137:
 5034 098e 746D5F63 		.ascii	"tm_calibration_t\000"
 5034      616C6962 
 5034      72617469 
 5034      6F6E5F74 
 5034      00
 5035              	.LASF36:
 5036 099f 6E616D65 		.ascii	"name\000"
 5036      00
 5037              	.LASF225:
 5038 09a4 706F7274 		.ascii	"port_lock\000"
 5038      5F6C6F63 
 5038      6B00
 5039              	.LASF108:
 5040 09ae 41504250 		.ascii	"APBPrescTable\000"
 5040      72657363 
 5040      5461626C 
 5040      6500
 5041              	.LASF7:
 5042 09bc 73686F72 		.ascii	"short int\000"
 5042      7420696E 
 5042      7400
 5043              	.LASF176:
 5044 09c6 63686465 		.ascii	"chdebug_t\000"
 5044      6275675F 
 5044      7400
 5045              	.LASF215:
 5046 09d0 5F747261 		.ascii	"_trace_switch\000"
 5046      63655F73 
 5046      77697463 
 5046      6800
 5047              	.LASF20:
 5048 09de 75696E74 		.ascii	"uint64_t\000"
 5048      36345F74 
 5048      00
 5049              	.LASF63:
 5050 09e7 66756E63 		.ascii	"func\000"
 5050      00
 5051              	.LASF156:
 5052 09ec 63685F6D 		.ascii	"ch_mutex\000"
 5052      75746578 
 5052      00
 5053              	.LASF42:
 5054 09f5 6D736771 		.ascii	"msgqueue\000"
 5054      75657565 
 5054      00
ARM GAS  C:\Users\RAKIBU~1\AppData\Local\Temp\cclagJ2i.s 			page 98


 5055              	.LASF68:
 5056 09fe 63685F73 		.ascii	"ch_system_debug\000"
 5056      79737465 
 5056      6D5F6465 
 5056      62756700 
 5057              	.LASF193:
 5058 0a0e 64796E5F 		.ascii	"dyn_list_t\000"
 5058      6C697374 
 5058      5F7400
 5059              	.LASF186:
 5060 0a19 6F626A65 		.ascii	"object_size\000"
 5060      63745F73 
 5060      697A6500 
 5061              	.LASF76:
 5062 0a25 76746C69 		.ascii	"vtlist\000"
 5062      737400
 5063              	.LASF41:
 5064 0a2c 77616974 		.ascii	"waiting\000"
 5064      696E6700 
 5065              	.LASF232:
 5066 0a34 63685379 		.ascii	"chSysHalt\000"
 5066      7348616C 
 5066      7400
 5067              	.LASF178:
 5068 0a3e 6D757465 		.ascii	"mutex_t\000"
 5068      785F7400 
 5069              	.LASF25:
 5070 0a46 74726566 		.ascii	"trefs_t\000"
 5070      735F7400 
 5071              	.LASF111:
 5072 0a4e 706F7274 		.ascii	"port_context\000"
 5072      5F636F6E 
 5072      74657874 
 5072      00
 5073              	.LASF49:
 5074 0a5b 74687265 		.ascii	"threads_list_t\000"
 5074      6164735F 
 5074      6C697374 
 5074      5F7400
 5075              	.LASF74:
 5076 0a6a 63685F73 		.ascii	"ch_system\000"
 5076      79737465 
 5076      6D00
 5077              	.LASF34:
 5078 0a74 6E657765 		.ascii	"newer\000"
 5078      7200
 5079              	.LASF118:
 5080 0a7a 42445452 		.ascii	"BDTR\000"
 5080      00
 5081              	.LASF19:
 5082 0a7f 75696E74 		.ascii	"uint32_t\000"
 5082      33325F74 
 5082      00
 5083              	.LASF148:
 5084 0a88 7264796D 		.ascii	"rdymsg\000"
 5084      736700
 5085              	.LASF9:
ARM GAS  C:\Users\RAKIBU~1\AppData\Local\Temp\cclagJ2i.s 			page 99


 5086 0a8f 73686F72 		.ascii	"short unsigned int\000"
 5086      7420756E 
 5086      7369676E 
 5086      65642069 
 5086      6E7400
 5087              	.LASF73:
 5088 0aa2 63685F73 		.ascii	"ch_system_t\000"
 5088      79737465 
 5088      6D5F7400 
 5089              	.LASF163:
 5090 0aae 74696D65 		.ascii	"timesize\000"
 5090      73697A65 
 5090      00
 5091              	.LASF10:
 5092 0ab7 5F5F696E 		.ascii	"__int32_t\000"
 5092      7433325F 
 5092      7400
 5093              	.LASF87:
 5094 0ac1 464F4C44 		.ascii	"FOLDCNT\000"
 5094      434E5400 
 5095              	.LASF184:
 5096 0ac9 63685F6D 		.ascii	"ch_memcore\000"
 5096      656D636F 
 5096      726500
 5097              	.LASF172:
 5098 0ad4 6F66665F 		.ascii	"off_flags\000"
 5098      666C6167 
 5098      7300
 5099              	.LASF52:
 5100 0ade 6E657874 		.ascii	"next\000"
 5100      00
 5101              	.LASF55:
 5102 0ae3 70726576 		.ascii	"prev\000"
 5102      00
 5103              	.LASF192:
 5104 0ae8 63685F64 		.ascii	"ch_dyn_list\000"
 5104      796E5F6C 
 5104      69737400 
 5105              	.LASF159:
 5106 0af4 6964656E 		.ascii	"identifier\000"
 5106      74696669 
 5106      657200
 5107              	.LASF140:
 5108 0aff 6C617374 		.ascii	"last\000"
 5108      00
 5109              		.ident	"GCC: (GNU Tools for Arm Embedded Processors 7-2017-q4-major) 7.2.1 20170904 (release) [ARM
ARM GAS  C:\Users\RAKIBU~1\AppData\Local\Temp\cclagJ2i.s 			page 100


DEFINED SYMBOLS
                            *ABS*:00000000 chtrace.c
C:\Users\RAKIBU~1\AppData\Local\Temp\cclagJ2i.s:15     .text:00000000 $t
C:\Users\RAKIBU~1\AppData\Local\Temp\cclagJ2i.s:22     .text:00000000 trace_next
C:\Users\RAKIBU~1\AppData\Local\Temp\cclagJ2i.s:77     .text:00000034 $d
C:\Users\RAKIBU~1\AppData\Local\Temp\cclagJ2i.s:82     .text:0000003c $t
C:\Users\RAKIBU~1\AppData\Local\Temp\cclagJ2i.s:90     .text:00000040 _trace_init
C:\Users\RAKIBU~1\AppData\Local\Temp\cclagJ2i.s:133    .text:00000078 $d
C:\Users\RAKIBU~1\AppData\Local\Temp\cclagJ2i.s:137    .text:0000007c $t
C:\Users\RAKIBU~1\AppData\Local\Temp\cclagJ2i.s:145    .text:00000080 _trace_switch
C:\Users\RAKIBU~1\AppData\Local\Temp\cclagJ2i.s:194    .text:000000c0 $d
C:\Users\RAKIBU~1\AppData\Local\Temp\cclagJ2i.s:198    .text:000000c4 $t
C:\Users\RAKIBU~1\AppData\Local\Temp\cclagJ2i.s:206    .text:000000d0 _trace_isr_enter
C:\Users\RAKIBU~1\AppData\Local\Temp\cclagJ2i.s:284    .text:00000110 $d
C:\Users\RAKIBU~1\AppData\Local\Temp\cclagJ2i.s:288    .text:00000114 $t
C:\Users\RAKIBU~1\AppData\Local\Temp\cclagJ2i.s:296    .text:00000120 _trace_isr_leave
C:\Users\RAKIBU~1\AppData\Local\Temp\cclagJ2i.s:373    .text:00000160 $d
C:\Users\RAKIBU~1\AppData\Local\Temp\cclagJ2i.s:377    .text:00000164 $t
C:\Users\RAKIBU~1\AppData\Local\Temp\cclagJ2i.s:385    .text:00000170 _trace_halt
C:\Users\RAKIBU~1\AppData\Local\Temp\cclagJ2i.s:427    .text:000001a4 $d
C:\Users\RAKIBU~1\AppData\Local\Temp\cclagJ2i.s:431    .text:000001a8 $t
C:\Users\RAKIBU~1\AppData\Local\Temp\cclagJ2i.s:439    .text:000001b0 chDbgWriteTraceI
C:\Users\RAKIBU~1\AppData\Local\Temp\cclagJ2i.s:493    .text:000001f0 $d
C:\Users\RAKIBU~1\AppData\Local\Temp\cclagJ2i.s:497    .text:000001f4 $t
C:\Users\RAKIBU~1\AppData\Local\Temp\cclagJ2i.s:505    .text:00000200 chDbgWriteTrace
C:\Users\RAKIBU~1\AppData\Local\Temp\cclagJ2i.s:603    .text:00000248 $d
C:\Users\RAKIBU~1\AppData\Local\Temp\cclagJ2i.s:610    .text:00000250 $t
C:\Users\RAKIBU~1\AppData\Local\Temp\cclagJ2i.s:618    .text:00000250 chDbgSuspendTraceI
C:\Users\RAKIBU~1\AppData\Local\Temp\cclagJ2i.s:643    .text:00000268 $d
C:\Users\RAKIBU~1\AppData\Local\Temp\cclagJ2i.s:647    .text:0000026c $t
C:\Users\RAKIBU~1\AppData\Local\Temp\cclagJ2i.s:655    .text:00000270 chDbgSuspendTrace
C:\Users\RAKIBU~1\AppData\Local\Temp\cclagJ2i.s:747    .text:000002b4 $d
C:\Users\RAKIBU~1\AppData\Local\Temp\cclagJ2i.s:754    .text:000002bc $t
C:\Users\RAKIBU~1\AppData\Local\Temp\cclagJ2i.s:762    .text:000002c0 chDbgResumeTraceI
C:\Users\RAKIBU~1\AppData\Local\Temp\cclagJ2i.s:787    .text:000002d8 $d
C:\Users\RAKIBU~1\AppData\Local\Temp\cclagJ2i.s:791    .text:000002dc $t
C:\Users\RAKIBU~1\AppData\Local\Temp\cclagJ2i.s:799    .text:000002e0 chDbgResumeTrace
C:\Users\RAKIBU~1\AppData\Local\Temp\cclagJ2i.s:891    .text:00000324 $d
C:\Users\RAKIBU~1\AppData\Local\Temp\cclagJ2i.s:899    .rodata:00000000 $d
C:\Users\RAKIBU~1\AppData\Local\Temp\cclagJ2i.s:903    .rodata:00000000 __func__.6118

UNDEFINED SYMBOLS
ch
chDbgCheckClassI
_stats_start_measure_crit_thd
_dbg_check_lock
_dbg_check_unlock
_stats_stop_measure_crit_thd
chSysHalt
