ARM GAS  C:\Users\RAKIBU~1\AppData\Local\Temp\cclagJ2i.s 			page 1


   1              		.cpu cortex-m4
   2              		.eabi_attribute 20, 1
   3              		.eabi_attribute 21, 1
   4              		.eabi_attribute 23, 3
   5              		.eabi_attribute 24, 1
   6              		.eabi_attribute 25, 1
   7              		.eabi_attribute 26, 1
   8              		.eabi_attribute 30, 1
   9              		.eabi_attribute 34, 1
  10              		.eabi_attribute 18, 4
  11              		.file	"chtrace.c"
  12              		.text
  13              	.Ltext0:
  14              		.cfi_sections	.debug_frame
  15              		.align	1
  16              		.p2align 4,,15
  17              		.syntax unified
  18              		.thumb
  19              		.thumb_func
  20              		.fpu softvfp
  21              		.type	trace_next, %function
  22              	trace_next:
  23              	.LFB295:
  24              		.file 1 "../../../ChibiOSRepo/chibios191/os/rt/src/chtrace.c"
  25              		.loc 1 57 0
  26              		.cfi_startproc
  27              		@ args = 0, pretend = 0, frame = 0
  28              		@ frame_needed = 0, uses_anonymous_args = 0
  29              		@ link register save eliminated.
  30              		.loc 1 59 0
  31 0000 0C4B     		ldr	r3, .L3
  32 0002 9A6C     		ldr	r2, [r3, #72]
  33              	.LBB70:
  34              	.LBB71:
  35              	.LBB72:
  36              	.LBB73:
  37              		.file 2 "../../../ChibiOSRepo/chibios191/os/hal/ports/STM32/LLD/TIMv1/hal_st_lld.h"
  38              		.loc 2 147 0
  39 0004 4FF08041 		mov	r1, #1073741824
  40 0008 496A     		ldr	r1, [r1, #36]
  41              	.LBE73:
  42              	.LBE72:
  43              	.LBE71:
  44              	.LBE70:
  45              		.loc 1 59 0
  46 000a 5160     		str	r1, [r2, #4]
  47              	.LBB74:
  48              	.LBB75:
  49              		.file 3 "../../../ChibiOSRepo/chibios191/os/common/ports/ARMCMx/chcore_v7m.h"
  50              		.loc 3 719 0
  51 000c 0A4A     		ldr	r2, .L3+4
  52 000e 5068     		ldr	r0, [r2, #4]
  53              	.LBE75:
  54              	.LBE74:
  55              		.loc 1 61 0
  56 0010 9A6C     		ldr	r2, [r3, #72]
  57 0012 1168     		ldr	r1, [r2]
ARM GAS  C:\Users\RAKIBU~1\AppData\Local\Temp\cclagJ2i.s 			page 2


  58 0014 60F31F21 		bfi	r1, r0, #8, #24
  59 0018 1160     		str	r1, [r2]
  60              		.loc 1 69 0
  61 001a 9A6C     		ldr	r2, [r3, #72]
  62 001c 1032     		adds	r2, r2, #16
  63 001e 9A64     		str	r2, [r3, #72]
  64 0020 03F64C03 		addw	r3, r3, #2124
  65 0024 9A42     		cmp	r2, r3
  66 0026 04D3     		bcc	.L1
  67              		.loc 1 71 0
  68 0028 A3F64C03 		subw	r3, r3, #2124
  69 002c 03F14C02 		add	r2, r3, #76
  70 0030 9A64     		str	r2, [r3, #72]
  71              	.L1:
  72              		.loc 1 73 0
  73 0032 7047     		bx	lr
  74              	.L4:
  75              		.align	2
  76              	.L3:
  77 0034 00000000 		.word	ch
  78 0038 001000E0 		.word	-536866816
  79              		.cfi_endproc
  80              	.LFE295:
  81              		.size	trace_next, .-trace_next
  82              		.align	1
  83 003c AFF30080 		.p2align 4,,15
  84              		.global	_trace_init
  85              		.syntax unified
  86              		.thumb
  87              		.thumb_func
  88              		.fpu softvfp
  89              		.type	_trace_init, %function
  90              	_trace_init:
  91              	.LFB296:
  92              		.loc 1 85 0
  93              		.cfi_startproc
  94              		@ args = 0, pretend = 0, frame = 0
  95              		@ frame_needed = 0, uses_anonymous_args = 0
  96              		@ link register save eliminated.
  97              		.loc 1 88 0
  98 0040 0D4B     		ldr	r3, .L8
  99 0042 4FF6F072 		movw	r2, #65520
 100 0046 A3F84420 		strh	r2, [r3, #68]	@ movhi
 101              		.loc 1 89 0
 102 004a 8022     		movs	r2, #128
 103 004c A3F84620 		strh	r2, [r3, #70]	@ movhi
 104              		.loc 1 90 0
 105 0050 03F14C02 		add	r2, r3, #76
 106 0054 9A64     		str	r2, [r3, #72]
 107              	.LVL0:
 108              		.loc 1 91 0
 109 0056 0023     		movs	r3, #0
 110 0058 0AE0     		b	.L6
 111              	.LVL1:
 112              	.L7:
 113              		.loc 1 92 0 discriminator 3
 114 005a 5A1C     		adds	r2, r3, #1
ARM GAS  C:\Users\RAKIBU~1\AppData\Local\Temp\cclagJ2i.s 			page 3


 115 005c 064B     		ldr	r3, .L8
 116              	.LVL2:
 117 005e 03EB0213 		add	r3, r3, r2, lsl #4
 118 0062 93F83C10 		ldrb	r1, [r3, #60]	@ zero_extendqisi2
 119 0066 6FF30201 		bfc	r1, #0, #3
 120 006a 83F83C10 		strb	r1, [r3, #60]
 121              		.loc 1 91 0 discriminator 3
 122 006e 1346     		mov	r3, r2
 123              	.LVL3:
 124              	.L6:
 125              		.loc 1 91 0 is_stmt 0 discriminator 1
 126 0070 7F2B     		cmp	r3, #127
 127 0072 F2D9     		bls	.L7
 128              		.loc 1 94 0 is_stmt 1
 129 0074 7047     		bx	lr
 130              	.L9:
 131 0076 00BF     		.align	2
 132              	.L8:
 133 0078 00000000 		.word	ch
 134              		.cfi_endproc
 135              	.LFE296:
 136              		.size	_trace_init, .-_trace_init
 137              		.align	1
 138 007c AFF30080 		.p2align 4,,15
 139              		.global	_trace_switch
 140              		.syntax unified
 141              		.thumb
 142              		.thumb_func
 143              		.fpu softvfp
 144              		.type	_trace_switch, %function
 145              	_trace_switch:
 146              	.LFB297:
 147              		.loc 1 104 0
 148              		.cfi_startproc
 149              		@ args = 0, pretend = 0, frame = 0
 150              		@ frame_needed = 0, uses_anonymous_args = 0
 151              	.LVL4:
 152              		.loc 1 108 0
 153 0080 0F4B     		ldr	r3, .L17
 154 0082 B3F84430 		ldrh	r3, [r3, #68]
 155 0086 13F0010F 		tst	r3, #1
 156 008a 00D0     		beq	.L16
 157 008c 7047     		bx	lr
 158              	.L16:
 159              		.loc 1 104 0
 160 008e 10B5     		push	{r4, lr}
 161              		.cfi_def_cfa_offset 8
 162              		.cfi_offset 4, -8
 163              		.cfi_offset 14, -4
 164              		.loc 1 109 0
 165 0090 0B4B     		ldr	r3, .L17
 166 0092 9A6C     		ldr	r2, [r3, #72]
 167 0094 1078     		ldrb	r0, [r2]	@ zero_extendqisi2
 168              	.LVL5:
 169 0096 0124     		movs	r4, #1
 170 0098 64F30200 		bfi	r0, r4, #0, #3
 171 009c 1070     		strb	r0, [r2]
ARM GAS  C:\Users\RAKIBU~1\AppData\Local\Temp\cclagJ2i.s 			page 4


 172              		.loc 1 110 0
 173 009e 91F82040 		ldrb	r4, [r1, #32]	@ zero_extendqisi2
 174 00a2 9A6C     		ldr	r2, [r3, #72]
 175 00a4 1078     		ldrb	r0, [r2]	@ zero_extendqisi2
 176 00a6 64F3C700 		bfi	r0, r4, #3, #5
 177 00aa 1070     		strb	r0, [r2]
 178              		.loc 1 111 0
 179 00ac 9A6C     		ldr	r2, [r3, #72]
 180 00ae 9869     		ldr	r0, [r3, #24]
 181 00b0 9060     		str	r0, [r2, #8]
 182              		.loc 1 112 0
 183 00b2 9B6C     		ldr	r3, [r3, #72]
 184 00b4 4A6A     		ldr	r2, [r1, #36]
 185 00b6 DA60     		str	r2, [r3, #12]
 186              		.loc 1 113 0
 187 00b8 FFF7A2FF 		bl	trace_next
 188              	.LVL6:
 189              		.loc 1 115 0
 190 00bc 10BD     		pop	{r4, pc}
 191              	.L18:
 192 00be 00BF     		.align	2
 193              	.L17:
 194 00c0 00000000 		.word	ch
 195              		.cfi_endproc
 196              	.LFE297:
 197              		.size	_trace_switch, .-_trace_switch
 198              		.align	1
 199 00c4 AFF30080 		.p2align 4,,15
 199      AFF30080 
 199      AFF30080 
 200              		.global	_trace_isr_enter
 201              		.syntax unified
 202              		.thumb
 203              		.thumb_func
 204              		.fpu softvfp
 205              		.type	_trace_isr_enter, %function
 206              	_trace_isr_enter:
 207              	.LFB298:
 208              		.loc 1 124 0
 209              		.cfi_startproc
 210              		@ args = 0, pretend = 0, frame = 0
 211              		@ frame_needed = 0, uses_anonymous_args = 0
 212              	.LVL7:
 213              		.loc 1 126 0
 214 00d0 0F4B     		ldr	r3, .L26
 215 00d2 B3F84430 		ldrh	r3, [r3, #68]
 216 00d6 13F0020F 		tst	r3, #2
 217 00da 00D0     		beq	.L25
 218 00dc 7047     		bx	lr
 219              	.L25:
 220              		.loc 1 124 0
 221 00de 10B5     		push	{r4, lr}
 222              		.cfi_def_cfa_offset 8
 223              		.cfi_offset 4, -8
 224              		.cfi_offset 14, -4
 225              	.LVL8:
 226              	.LBB76:
ARM GAS  C:\Users\RAKIBU~1\AppData\Local\Temp\cclagJ2i.s 			page 5


 227              	.LBB77:
 228              	.LBB78:
 229              	.LBB79:
 230              		.file 4 "../../../ChibiOSRepo/chibios191/os/common/ext/ARM/CMSIS/Core/Include/cmsis_gcc.h"
 231              		.loc 4 493 0
 232 00e0 2023     		movs	r3, #32
 233              		.syntax unified
 234              	@ 493 "../../../ChibiOSRepo/chibios191/os/common/ext/ARM/CMSIS/Core/Include/cmsis_gcc.h" 1
 235 00e2 83F31188 		MSR basepri, r3
 236              	@ 0 "" 2
 237              	.LVL9:
 238              		.thumb
 239              		.syntax unified
 240              	.LBE79:
 241              	.LBE78:
 242              	.LBE77:
 243              	.LBE76:
 244              		.loc 1 128 0
 245 00e6 0A4B     		ldr	r3, .L26
 246 00e8 9A6C     		ldr	r2, [r3, #72]
 247 00ea 1178     		ldrb	r1, [r2]	@ zero_extendqisi2
 248 00ec 0224     		movs	r4, #2
 249 00ee 64F30201 		bfi	r1, r4, #0, #3
 250 00f2 1170     		strb	r1, [r2]
 251              		.loc 1 129 0
 252 00f4 9A6C     		ldr	r2, [r3, #72]
 253 00f6 1178     		ldrb	r1, [r2]	@ zero_extendqisi2
 254 00f8 6FF3C701 		bfc	r1, #3, #5
 255 00fc 1170     		strb	r1, [r2]
 256              		.loc 1 130 0
 257 00fe 9B6C     		ldr	r3, [r3, #72]
 258 0100 9860     		str	r0, [r3, #8]
 259              		.loc 1 131 0
 260 0102 FFF77DFF 		bl	trace_next
 261              	.LVL10:
 262              	.LBB80:
 263              	.LBB81:
 264              	.LBB82:
 265              	.LBB83:
 266              		.loc 4 493 0
 267 0106 0023     		movs	r3, #0
 268              		.syntax unified
 269              	@ 493 "../../../ChibiOSRepo/chibios191/os/common/ext/ARM/CMSIS/Core/Include/cmsis_gcc.h" 1
 270 0108 83F31188 		MSR basepri, r3
 271              	@ 0 "" 2
 272              	.LVL11:
 273              		.thumb
 274              		.syntax unified
 275              	.LBE83:
 276              	.LBE82:
 277              	.LBE81:
 278              	.LBE80:
 279              		.loc 1 134 0
 280 010c 10BD     		pop	{r4, pc}
 281              	.L27:
 282 010e 00BF     		.align	2
 283              	.L26:
ARM GAS  C:\Users\RAKIBU~1\AppData\Local\Temp\cclagJ2i.s 			page 6


 284 0110 00000000 		.word	ch
 285              		.cfi_endproc
 286              	.LFE298:
 287              		.size	_trace_isr_enter, .-_trace_isr_enter
 288              		.align	1
 289 0114 AFF30080 		.p2align 4,,15
 289      AFF30080 
 289      AFF30080 
 290              		.global	_trace_isr_leave
 291              		.syntax unified
 292              		.thumb
 293              		.thumb_func
 294              		.fpu softvfp
 295              		.type	_trace_isr_leave, %function
 296              	_trace_isr_leave:
 297              	.LFB299:
 298              		.loc 1 143 0
 299              		.cfi_startproc
 300              		@ args = 0, pretend = 0, frame = 0
 301              		@ frame_needed = 0, uses_anonymous_args = 0
 302              	.LVL12:
 303              		.loc 1 145 0
 304 0120 0F4B     		ldr	r3, .L35
 305 0122 B3F84430 		ldrh	r3, [r3, #68]
 306 0126 13F0020F 		tst	r3, #2
 307 012a 00D0     		beq	.L34
 308 012c 7047     		bx	lr
 309              	.L34:
 310              		.loc 1 143 0
 311 012e 10B5     		push	{r4, lr}
 312              		.cfi_def_cfa_offset 8
 313              		.cfi_offset 4, -8
 314              		.cfi_offset 14, -4
 315              	.LVL13:
 316              	.LBB84:
 317              	.LBB85:
 318              	.LBB86:
 319              	.LBB87:
 320              		.loc 4 493 0
 321 0130 2023     		movs	r3, #32
 322              		.syntax unified
 323              	@ 493 "../../../ChibiOSRepo/chibios191/os/common/ext/ARM/CMSIS/Core/Include/cmsis_gcc.h" 1
 324 0132 83F31188 		MSR basepri, r3
 325              	@ 0 "" 2
 326              	.LVL14:
 327              		.thumb
 328              		.syntax unified
 329              	.LBE87:
 330              	.LBE86:
 331              	.LBE85:
 332              	.LBE84:
 333              		.loc 1 147 0
 334 0136 0A4B     		ldr	r3, .L35
 335 0138 9A6C     		ldr	r2, [r3, #72]
 336 013a 1178     		ldrb	r1, [r2]	@ zero_extendqisi2
 337 013c 0324     		movs	r4, #3
 338 013e 64F30201 		bfi	r1, r4, #0, #3
ARM GAS  C:\Users\RAKIBU~1\AppData\Local\Temp\cclagJ2i.s 			page 7


 339 0142 1170     		strb	r1, [r2]
 340              		.loc 1 148 0
 341 0144 9A6C     		ldr	r2, [r3, #72]
 342 0146 1178     		ldrb	r1, [r2]	@ zero_extendqisi2
 343 0148 6FF3C701 		bfc	r1, #3, #5
 344 014c 1170     		strb	r1, [r2]
 345              		.loc 1 149 0
 346 014e 9B6C     		ldr	r3, [r3, #72]
 347 0150 9860     		str	r0, [r3, #8]
 348              		.loc 1 150 0
 349 0152 FFF755FF 		bl	trace_next
 350              	.LVL15:
 351              	.LBB88:
 352              	.LBB89:
 353              	.LBB90:
 354              	.LBB91:
 355              		.loc 4 493 0
 356 0156 0023     		movs	r3, #0
 357              		.syntax unified
 358              	@ 493 "../../../ChibiOSRepo/chibios191/os/common/ext/ARM/CMSIS/Core/Include/cmsis_gcc.h" 1
 359 0158 83F31188 		MSR basepri, r3
 360              	@ 0 "" 2
 361              	.LVL16:
 362              		.thumb
 363              		.syntax unified
 364              	.LBE91:
 365              	.LBE90:
 366              	.LBE89:
 367              	.LBE88:
 368              		.loc 1 153 0
 369 015c 10BD     		pop	{r4, pc}
 370              	.L36:
 371 015e 00BF     		.align	2
 372              	.L35:
 373 0160 00000000 		.word	ch
 374              		.cfi_endproc
 375              	.LFE299:
 376              		.size	_trace_isr_leave, .-_trace_isr_leave
 377              		.align	1
 378 0164 AFF30080 		.p2align 4,,15
 378      AFF30080 
 378      AFF30080 
 379              		.global	_trace_halt
 380              		.syntax unified
 381              		.thumb
 382              		.thumb_func
 383              		.fpu softvfp
 384              		.type	_trace_halt, %function
 385              	_trace_halt:
 386              	.LFB300:
 387              		.loc 1 162 0
 388              		.cfi_startproc
 389              		@ args = 0, pretend = 0, frame = 0
 390              		@ frame_needed = 0, uses_anonymous_args = 0
 391              	.LVL17:
 392              		.loc 1 164 0
 393 0170 0C4B     		ldr	r3, .L44
ARM GAS  C:\Users\RAKIBU~1\AppData\Local\Temp\cclagJ2i.s 			page 8


 394 0172 B3F84430 		ldrh	r3, [r3, #68]
 395 0176 13F0040F 		tst	r3, #4
 396 017a 00D0     		beq	.L43
 397 017c 7047     		bx	lr
 398              	.L43:
 399              		.loc 1 162 0
 400 017e 10B5     		push	{r4, lr}
 401              		.cfi_def_cfa_offset 8
 402              		.cfi_offset 4, -8
 403              		.cfi_offset 14, -4
 404              		.loc 1 165 0
 405 0180 084B     		ldr	r3, .L44
 406 0182 9A6C     		ldr	r2, [r3, #72]
 407 0184 1178     		ldrb	r1, [r2]	@ zero_extendqisi2
 408 0186 0424     		movs	r4, #4
 409 0188 64F30201 		bfi	r1, r4, #0, #3
 410 018c 1170     		strb	r1, [r2]
 411              		.loc 1 166 0
 412 018e 9A6C     		ldr	r2, [r3, #72]
 413 0190 1178     		ldrb	r1, [r2]	@ zero_extendqisi2
 414 0192 6FF3C701 		bfc	r1, #3, #5
 415 0196 1170     		strb	r1, [r2]
 416              		.loc 1 167 0
 417 0198 9B6C     		ldr	r3, [r3, #72]
 418 019a 9860     		str	r0, [r3, #8]
 419              		.loc 1 168 0
 420 019c FFF730FF 		bl	trace_next
 421              	.LVL18:
 422              		.loc 1 170 0
 423 01a0 10BD     		pop	{r4, pc}
 424              	.L45:
 425 01a2 00BF     		.align	2
 426              	.L44:
 427 01a4 00000000 		.word	ch
 428              		.cfi_endproc
 429              	.LFE300:
 430              		.size	_trace_halt, .-_trace_halt
 431              		.align	1
 432 01a8 AFF30080 		.p2align 4,,15
 432      AFF30080 
 433              		.global	chDbgWriteTraceI
 434              		.syntax unified
 435              		.thumb
 436              		.thumb_func
 437              		.fpu softvfp
 438              		.type	chDbgWriteTraceI, %function
 439              	chDbgWriteTraceI:
 440              	.LFB301:
 441              		.loc 1 180 0
 442              		.cfi_startproc
 443              		@ args = 0, pretend = 0, frame = 0
 444              		@ frame_needed = 0, uses_anonymous_args = 0
 445              	.LVL19:
 446 01b0 38B5     		push	{r3, r4, r5, lr}
 447              		.cfi_def_cfa_offset 16
 448              		.cfi_offset 3, -16
 449              		.cfi_offset 4, -12
ARM GAS  C:\Users\RAKIBU~1\AppData\Local\Temp\cclagJ2i.s 			page 9


 450              		.cfi_offset 5, -8
 451              		.cfi_offset 14, -4
 452 01b2 0546     		mov	r5, r0
 453 01b4 0C46     		mov	r4, r1
 454              		.loc 1 182 0
 455 01b6 FFF7FEFF 		bl	chDbgCheckClassI
 456              	.LVL20:
 457              		.loc 1 184 0
 458 01ba 0D4B     		ldr	r3, .L50
 459 01bc B3F84430 		ldrh	r3, [r3, #68]
 460 01c0 13F0080F 		tst	r3, #8
 461 01c4 00D0     		beq	.L49
 462              	.L46:
 463              		.loc 1 191 0
 464 01c6 38BD     		pop	{r3, r4, r5, pc}
 465              	.LVL21:
 466              	.L49:
 467              		.loc 1 185 0
 468 01c8 094B     		ldr	r3, .L50
 469 01ca 9A6C     		ldr	r2, [r3, #72]
 470 01cc 1178     		ldrb	r1, [r2]	@ zero_extendqisi2
 471 01ce 0520     		movs	r0, #5
 472 01d0 60F30201 		bfi	r1, r0, #0, #3
 473 01d4 1170     		strb	r1, [r2]
 474              		.loc 1 186 0
 475 01d6 9A6C     		ldr	r2, [r3, #72]
 476 01d8 1178     		ldrb	r1, [r2]	@ zero_extendqisi2
 477 01da 6FF3C701 		bfc	r1, #3, #5
 478 01de 1170     		strb	r1, [r2]
 479              		.loc 1 187 0
 480 01e0 9A6C     		ldr	r2, [r3, #72]
 481 01e2 9560     		str	r5, [r2, #8]
 482              		.loc 1 188 0
 483 01e4 9B6C     		ldr	r3, [r3, #72]
 484 01e6 DC60     		str	r4, [r3, #12]
 485              		.loc 1 189 0
 486 01e8 FFF70AFF 		bl	trace_next
 487              	.LVL22:
 488              		.loc 1 191 0
 489 01ec EBE7     		b	.L46
 490              	.L51:
 491 01ee 00BF     		.align	2
 492              	.L50:
 493 01f0 00000000 		.word	ch
 494              		.cfi_endproc
 495              	.LFE301:
 496              		.size	chDbgWriteTraceI, .-chDbgWriteTraceI
 497              		.align	1
 498 01f4 AFF30080 		.p2align 4,,15
 498      AFF30080 
 498      AFF30080 
 499              		.global	chDbgWriteTrace
 500              		.syntax unified
 501              		.thumb
 502              		.thumb_func
 503              		.fpu softvfp
 504              		.type	chDbgWriteTrace, %function
ARM GAS  C:\Users\RAKIBU~1\AppData\Local\Temp\cclagJ2i.s 			page 10


 505              	chDbgWriteTrace:
 506              	.LFB302:
 507              		.loc 1 201 0
 508              		.cfi_startproc
 509              		@ args = 0, pretend = 0, frame = 0
 510              		@ frame_needed = 0, uses_anonymous_args = 0
 511              	.LVL23:
 512 0200 38B5     		push	{r3, r4, r5, lr}
 513              		.cfi_def_cfa_offset 16
 514              		.cfi_offset 3, -16
 515              		.cfi_offset 4, -12
 516              		.cfi_offset 5, -8
 517              		.cfi_offset 14, -4
 518 0202 0446     		mov	r4, r0
 519 0204 0D46     		mov	r5, r1
 520              	.LVL24:
 521              	.LBB102:
 522              	.LBB103:
 523              	.LBB104:
 524              	.LBB105:
 525              	.LBB106:
 526              		.loc 4 493 0
 527 0206 2023     		movs	r3, #32
 528              		.syntax unified
 529              	@ 493 "../../../ChibiOSRepo/chibios191/os/common/ext/ARM/CMSIS/Core/Include/cmsis_gcc.h" 1
 530 0208 83F31188 		MSR basepri, r3
 531              	@ 0 "" 2
 532              	.LVL25:
 533              		.thumb
 534              		.syntax unified
 535              	.LBE106:
 536              	.LBE105:
 537              	.LBE104:
 538              		.file 5 "../../../ChibiOSRepo/chibios191/os/rt/include/chsys.h"
 539              		.loc 5 356 0
 540 020c FFF7FEFF 		bl	_stats_start_measure_crit_thd
 541              	.LVL26:
 542              		.loc 5 357 0
 543 0210 FFF7FEFF 		bl	_dbg_check_lock
 544              	.LVL27:
 545              	.LBE103:
 546              	.LBE102:
 547              		.loc 1 204 0
 548 0214 2946     		mov	r1, r5
 549 0216 2046     		mov	r0, r4
 550 0218 FFF7FEFF 		bl	chDbgWriteTraceI
 551              	.LVL28:
 552              	.LBB107:
 553              	.LBB108:
 554              		.loc 5 367 0
 555 021c FFF7FEFF 		bl	_dbg_check_unlock
 556              	.LVL29:
 557              		.loc 5 368 0
 558 0220 FFF7FEFF 		bl	_stats_stop_measure_crit_thd
 559              	.LVL30:
 560              		.loc 5 374 0
 561 0224 084B     		ldr	r3, .L56
ARM GAS  C:\Users\RAKIBU~1\AppData\Local\Temp\cclagJ2i.s 			page 11


 562 0226 1A68     		ldr	r2, [r3]
 563 0228 9A42     		cmp	r2, r3
 564 022a 04D0     		beq	.L53
 565 022c 9B69     		ldr	r3, [r3, #24]
 566 022e 9968     		ldr	r1, [r3, #8]
 567 0230 9368     		ldr	r3, [r2, #8]
 568 0232 9942     		cmp	r1, r3
 569 0234 03D3     		bcc	.L55
 570              	.L53:
 571              	.LVL31:
 572              	.LBB109:
 573              	.LBB110:
 574              	.LBB111:
 575              		.loc 4 493 0
 576 0236 0023     		movs	r3, #0
 577              		.syntax unified
 578              	@ 493 "../../../ChibiOSRepo/chibios191/os/common/ext/ARM/CMSIS/Core/Include/cmsis_gcc.h" 1
 579 0238 83F31188 		MSR basepri, r3
 580              	@ 0 "" 2
 581              	.LVL32:
 582              		.thumb
 583              		.syntax unified
 584              	.LBE111:
 585              	.LBE110:
 586              	.LBE109:
 587              	.LBE108:
 588              	.LBE107:
 589              		.loc 1 206 0
 590 023c 38BD     		pop	{r3, r4, r5, pc}
 591              	.LVL33:
 592              	.L55:
 593              	.LBB113:
 594              	.LBB112:
 595              		.loc 5 374 0
 596 023e 0348     		ldr	r0, .L56+4
 597 0240 FFF7FEFF 		bl	chSysHalt
 598              	.LVL34:
 599 0244 F7E7     		b	.L53
 600              	.L57:
 601 0246 00BF     		.align	2
 602              	.L56:
 603 0248 00000000 		.word	ch
 604 024c 00000000 		.word	.LANCHOR0
 605              	.LBE112:
 606              	.LBE113:
 607              		.cfi_endproc
 608              	.LFE302:
 609              		.size	chDbgWriteTrace, .-chDbgWriteTrace
 610              		.align	1
 611              		.p2align 4,,15
 612              		.global	chDbgSuspendTraceI
 613              		.syntax unified
 614              		.thumb
 615              		.thumb_func
 616              		.fpu softvfp
 617              		.type	chDbgSuspendTraceI, %function
 618              	chDbgSuspendTraceI:
ARM GAS  C:\Users\RAKIBU~1\AppData\Local\Temp\cclagJ2i.s 			page 12


 619              	.LFB303:
 620              		.loc 1 215 0
 621              		.cfi_startproc
 622              		@ args = 0, pretend = 0, frame = 0
 623              		@ frame_needed = 0, uses_anonymous_args = 0
 624              	.LVL35:
 625 0250 10B5     		push	{r4, lr}
 626              		.cfi_def_cfa_offset 8
 627              		.cfi_offset 4, -8
 628              		.cfi_offset 14, -4
 629 0252 0446     		mov	r4, r0
 630              		.loc 1 217 0
 631 0254 FFF7FEFF 		bl	chDbgCheckClassI
 632              	.LVL36:
 633              		.loc 1 219 0
 634 0258 034B     		ldr	r3, .L60
 635 025a B3F84420 		ldrh	r2, [r3, #68]
 636 025e 1443     		orrs	r4, r4, r2
 637 0260 A3F84440 		strh	r4, [r3, #68]	@ movhi
 638              		.loc 1 220 0
 639 0264 10BD     		pop	{r4, pc}
 640              	.L61:
 641 0266 00BF     		.align	2
 642              	.L60:
 643 0268 00000000 		.word	ch
 644              		.cfi_endproc
 645              	.LFE303:
 646              		.size	chDbgSuspendTraceI, .-chDbgSuspendTraceI
 647              		.align	1
 648 026c AFF30080 		.p2align 4,,15
 649              		.global	chDbgSuspendTrace
 650              		.syntax unified
 651              		.thumb
 652              		.thumb_func
 653              		.fpu softvfp
 654              		.type	chDbgSuspendTrace, %function
 655              	chDbgSuspendTrace:
 656              	.LFB304:
 657              		.loc 1 229 0
 658              		.cfi_startproc
 659              		@ args = 0, pretend = 0, frame = 0
 660              		@ frame_needed = 0, uses_anonymous_args = 0
 661              	.LVL37:
 662 0270 10B5     		push	{r4, lr}
 663              		.cfi_def_cfa_offset 8
 664              		.cfi_offset 4, -8
 665              		.cfi_offset 14, -4
 666 0272 0446     		mov	r4, r0
 667              	.LVL38:
 668              	.LBB124:
 669              	.LBB125:
 670              	.LBB126:
 671              	.LBB127:
 672              	.LBB128:
 673              		.loc 4 493 0
 674 0274 2023     		movs	r3, #32
 675              		.syntax unified
ARM GAS  C:\Users\RAKIBU~1\AppData\Local\Temp\cclagJ2i.s 			page 13


 676              	@ 493 "../../../ChibiOSRepo/chibios191/os/common/ext/ARM/CMSIS/Core/Include/cmsis_gcc.h" 1
 677 0276 83F31188 		MSR basepri, r3
 678              	@ 0 "" 2
 679              	.LVL39:
 680              		.thumb
 681              		.syntax unified
 682              	.LBE128:
 683              	.LBE127:
 684              	.LBE126:
 685              		.loc 5 356 0
 686 027a FFF7FEFF 		bl	_stats_start_measure_crit_thd
 687              	.LVL40:
 688              		.loc 5 357 0
 689 027e FFF7FEFF 		bl	_dbg_check_lock
 690              	.LVL41:
 691              	.LBE125:
 692              	.LBE124:
 693              		.loc 1 232 0
 694 0282 2046     		mov	r0, r4
 695 0284 FFF7FEFF 		bl	chDbgSuspendTraceI
 696              	.LVL42:
 697              	.LBB129:
 698              	.LBB130:
 699              		.loc 5 367 0
 700 0288 FFF7FEFF 		bl	_dbg_check_unlock
 701              	.LVL43:
 702              		.loc 5 368 0
 703 028c FFF7FEFF 		bl	_stats_stop_measure_crit_thd
 704              	.LVL44:
 705              		.loc 5 374 0
 706 0290 084B     		ldr	r3, .L66
 707 0292 1A68     		ldr	r2, [r3]
 708 0294 9A42     		cmp	r2, r3
 709 0296 04D0     		beq	.L63
 710 0298 9B69     		ldr	r3, [r3, #24]
 711 029a 9968     		ldr	r1, [r3, #8]
 712 029c 9368     		ldr	r3, [r2, #8]
 713 029e 9942     		cmp	r1, r3
 714 02a0 03D3     		bcc	.L65
 715              	.L63:
 716              	.LVL45:
 717              	.LBB131:
 718              	.LBB132:
 719              	.LBB133:
 720              		.loc 4 493 0
 721 02a2 0023     		movs	r3, #0
 722              		.syntax unified
 723              	@ 493 "../../../ChibiOSRepo/chibios191/os/common/ext/ARM/CMSIS/Core/Include/cmsis_gcc.h" 1
 724 02a4 83F31188 		MSR basepri, r3
 725              	@ 0 "" 2
 726              	.LVL46:
 727              		.thumb
 728              		.syntax unified
 729              	.LBE133:
 730              	.LBE132:
 731              	.LBE131:
 732              	.LBE130:
ARM GAS  C:\Users\RAKIBU~1\AppData\Local\Temp\cclagJ2i.s 			page 14


 733              	.LBE129:
 734              		.loc 1 234 0
 735 02a8 10BD     		pop	{r4, pc}
 736              	.L65:
 737              	.LBB135:
 738              	.LBB134:
 739              		.loc 5 374 0
 740 02aa 0348     		ldr	r0, .L66+4
 741 02ac FFF7FEFF 		bl	chSysHalt
 742              	.LVL47:
 743 02b0 F7E7     		b	.L63
 744              	.L67:
 745 02b2 00BF     		.align	2
 746              	.L66:
 747 02b4 00000000 		.word	ch
 748 02b8 00000000 		.word	.LANCHOR0
 749              	.LBE134:
 750              	.LBE135:
 751              		.cfi_endproc
 752              	.LFE304:
 753              		.size	chDbgSuspendTrace, .-chDbgSuspendTrace
 754              		.align	1
 755 02bc AFF30080 		.p2align 4,,15
 756              		.global	chDbgResumeTraceI
 757              		.syntax unified
 758              		.thumb
 759              		.thumb_func
 760              		.fpu softvfp
 761              		.type	chDbgResumeTraceI, %function
 762              	chDbgResumeTraceI:
 763              	.LFB305:
 764              		.loc 1 243 0
 765              		.cfi_startproc
 766              		@ args = 0, pretend = 0, frame = 0
 767              		@ frame_needed = 0, uses_anonymous_args = 0
 768              	.LVL48:
 769 02c0 10B5     		push	{r4, lr}
 770              		.cfi_def_cfa_offset 8
 771              		.cfi_offset 4, -8
 772              		.cfi_offset 14, -4
 773 02c2 0446     		mov	r4, r0
 774              		.loc 1 245 0
 775 02c4 FFF7FEFF 		bl	chDbgCheckClassI
 776              	.LVL49:
 777              		.loc 1 247 0
 778 02c8 034B     		ldr	r3, .L70
 779 02ca B3F84400 		ldrh	r0, [r3, #68]
 780 02ce 20EA0400 		bic	r0, r0, r4
 781 02d2 A3F84400 		strh	r0, [r3, #68]	@ movhi
 782              		.loc 1 248 0
 783 02d6 10BD     		pop	{r4, pc}
 784              	.L71:
 785              		.align	2
 786              	.L70:
 787 02d8 00000000 		.word	ch
 788              		.cfi_endproc
 789              	.LFE305:
ARM GAS  C:\Users\RAKIBU~1\AppData\Local\Temp\cclagJ2i.s 			page 15


 790              		.size	chDbgResumeTraceI, .-chDbgResumeTraceI
 791              		.align	1
 792 02dc AFF30080 		.p2align 4,,15
 793              		.global	chDbgResumeTrace
 794              		.syntax unified
 795              		.thumb
 796              		.thumb_func
 797              		.fpu softvfp
 798              		.type	chDbgResumeTrace, %function
 799              	chDbgResumeTrace:
 800              	.LFB306:
 801              		.loc 1 257 0
 802              		.cfi_startproc
 803              		@ args = 0, pretend = 0, frame = 0
 804              		@ frame_needed = 0, uses_anonymous_args = 0
 805              	.LVL50:
 806 02e0 10B5     		push	{r4, lr}
 807              		.cfi_def_cfa_offset 8
 808              		.cfi_offset 4, -8
 809              		.cfi_offset 14, -4
 810 02e2 0446     		mov	r4, r0
 811              	.LVL51:
 812              	.LBB146:
 813              	.LBB147:
 814              	.LBB148:
 815              	.LBB149:
 816              	.LBB150:
 817              		.loc 4 493 0
 818 02e4 2023     		movs	r3, #32
 819              		.syntax unified
 820              	@ 493 "../../../ChibiOSRepo/chibios191/os/common/ext/ARM/CMSIS/Core/Include/cmsis_gcc.h" 1
 821 02e6 83F31188 		MSR basepri, r3
 822              	@ 0 "" 2
 823              	.LVL52:
 824              		.thumb
 825              		.syntax unified
 826              	.LBE150:
 827              	.LBE149:
 828              	.LBE148:
 829              		.loc 5 356 0
 830 02ea FFF7FEFF 		bl	_stats_start_measure_crit_thd
 831              	.LVL53:
 832              		.loc 5 357 0
 833 02ee FFF7FEFF 		bl	_dbg_check_lock
 834              	.LVL54:
 835              	.LBE147:
 836              	.LBE146:
 837              		.loc 1 260 0
 838 02f2 2046     		mov	r0, r4
 839 02f4 FFF7FEFF 		bl	chDbgResumeTraceI
 840              	.LVL55:
 841              	.LBB151:
 842              	.LBB152:
 843              		.loc 5 367 0
 844 02f8 FFF7FEFF 		bl	_dbg_check_unlock
 845              	.LVL56:
 846              		.loc 5 368 0
ARM GAS  C:\Users\RAKIBU~1\AppData\Local\Temp\cclagJ2i.s 			page 16


 847 02fc FFF7FEFF 		bl	_stats_stop_measure_crit_thd
 848              	.LVL57:
 849              		.loc 5 374 0
 850 0300 084B     		ldr	r3, .L76
 851 0302 1A68     		ldr	r2, [r3]
 852 0304 9A42     		cmp	r2, r3
 853 0306 04D0     		beq	.L73
 854 0308 9B69     		ldr	r3, [r3, #24]
 855 030a 9968     		ldr	r1, [r3, #8]
 856 030c 9368     		ldr	r3, [r2, #8]
 857 030e 9942     		cmp	r1, r3
 858 0310 03D3     		bcc	.L75
 859              	.L73:
 860              	.LVL58:
 861              	.LBB153:
 862              	.LBB154:
 863              	.LBB155:
 864              		.loc 4 493 0
 865 0312 0023     		movs	r3, #0
 866              		.syntax unified
 867              	@ 493 "../../../ChibiOSRepo/chibios191/os/common/ext/ARM/CMSIS/Core/Include/cmsis_gcc.h" 1
 868 0314 83F31188 		MSR basepri, r3
 869              	@ 0 "" 2
 870              	.LVL59:
 871              		.thumb
 872              		.syntax unified
 873              	.LBE155:
 874              	.LBE154:
 875              	.LBE153:
 876              	.LBE152:
 877              	.LBE151:
 878              		.loc 1 262 0
 879 0318 10BD     		pop	{r4, pc}
 880              	.L75:
 881              	.LBB157:
 882              	.LBB156:
 883              		.loc 5 374 0
 884 031a 0348     		ldr	r0, .L76+4
 885 031c FFF7FEFF 		bl	chSysHalt
 886              	.LVL60:
 887 0320 F7E7     		b	.L73
 888              	.L77:
 889 0322 00BF     		.align	2
 890              	.L76:
 891 0324 00000000 		.word	ch
 892 0328 00000000 		.word	.LANCHOR0
 893              	.LBE156:
 894              	.LBE157:
 895              		.cfi_endproc
 896              	.LFE306:
 897              		.size	chDbgResumeTrace, .-chDbgResumeTrace
 898              		.section	.rodata
 899              		.align	2
 900              		.set	.LANCHOR0,. + 0
 901              		.type	__func__.6118, %object
 902              		.size	__func__.6118, 12
 903              	__func__.6118:
ARM GAS  C:\Users\RAKIBU~1\AppData\Local\Temp\cclagJ2i.s 			page 17


 904 0000 63685379 		.ascii	"chSysUnlock\000"
 904      73556E6C 
 904      6F636B00 
 905              		.text
 906              	.Letext0:
 907              		.file 6 "c:\\chibistudio\\tools\\gnu tools arm embedded\\7.0 2017q4\\lib\\gcc\\arm-none-eabi\\7.2.
 908              		.file 7 "c:\\chibistudio\\tools\\gnu tools arm embedded\\7.0 2017q4\\arm-none-eabi\\include\\machi
 909              		.file 8 "c:\\chibistudio\\tools\\gnu tools arm embedded\\7.0 2017q4\\arm-none-eabi\\include\\sys\\
 910              		.file 9 "../../../ChibiOSRepo/chibios191/os/common/ports/ARMCMx/compilers/GCC/chtypes.h"
 911              		.file 10 "../../../ChibiOSRepo/chibios191/os/rt/include/chsystypes.h"
 912              		.file 11 "../../../ChibiOSRepo/chibios191/os/rt/include/chschd.h"
 913              		.file 12 "../../../ChibiOSRepo/chibios191/os/rt/include/chtime.h"
 914              		.file 13 "../../../ChibiOSRepo/chibios191/os/common/ext/ARM/CMSIS/Core/Include/core_cm4.h"
 915              		.file 14 "../../../ChibiOSRepo/chibios191/os/common/ext/ST/STM32F4xx/system_stm32f4xx.h"
 916              		.file 15 "../../../ChibiOSRepo/chibios191/os/common/ports/ARMCMx/chcore.h"
 917              		.file 16 "../../../ChibiOSRepo/chibios191/os/hal/ports/STM32/LLD/TIMv1/stm32_tim.h"
 918              		.file 17 "../../../ChibiOSRepo/chibios191/os/rt/include/chtrace.h"
 919              		.file 18 "../../../ChibiOSRepo/chibios191/os/rt/include/chtm.h"
 920              		.file 19 "../../../ChibiOSRepo/chibios191/os/rt/include/chstats.h"
 921              		.file 20 "../../../ChibiOSRepo/chibios191/os/rt/include/chsem.h"
 922              		.file 21 "../../../ChibiOSRepo/chibios191/os/rt/include/chmtx.h"
 923              		.file 22 "../../../ChibiOSRepo/chibios191/os/rt/include/chregistry.h"
 924              		.file 23 "../../../ChibiOSRepo/chibios191/os/oslib/include/chmemcore.h"
 925              		.file 24 "../../../ChibiOSRepo/chibios191/os/oslib/include/chmempools.h"
 926              		.file 25 "../../../ChibiOSRepo/chibios191/os/oslib/include/chfactory.h"
 927              		.file 26 "../../../ChibiOSRepo/chibios191/os/rt/include/chvt.h"
 928              		.file 27 "../../../ChibiOSRepo/chibios191/os/common/ports/ARMCMx/chcore_timer.h"
 929              		.file 28 "../../../ChibiOSRepo/chibios191/os/rt/include/chdebug.h"
 930              		.file 29 "../../../ChibiOSRepo/chibios191/os/rt/include/ch.h"