ARM GAS  C:\Users\RAKIBU~1\AppData\Local\Temp\cc8iSkFL.s 			page 1


   1              		.cpu cortex-m4
   2              		.eabi_attribute 20, 1
   3              		.eabi_attribute 21, 1
   4              		.eabi_attribute 23, 3
   5              		.eabi_attribute 24, 1
   6              		.eabi_attribute 25, 1
   7              		.eabi_attribute 26, 1
   8              		.eabi_attribute 30, 1
   9              		.eabi_attribute 34, 1
  10              		.eabi_attribute 18, 4
  11              		.file	"chvt.c"
  12              		.text
  13              	.Ltext0:
  14              		.cfi_sections	.debug_frame
  15              		.align	1
  16              		.p2align 4,,15
  17              		.global	_vt_init
  18              		.syntax unified
  19              		.thumb
  20              		.thumb_func
  21              		.fpu softvfp
  22              		.type	_vt_init, %function
  23              	_vt_init:
  24              	.LFB295:
  25              		.file 1 "../../../ChibiOSRepo/chibios191/os/rt/src/chvt.c"
  26              		.loc 1 61 0
  27              		.cfi_startproc
  28              		@ args = 0, pretend = 0, frame = 0
  29              		@ frame_needed = 0, uses_anonymous_args = 0
  30              		@ link register save eliminated.
  31              		.loc 1 63 0
  32 0000 064B     		ldr	r3, .L2
  33 0002 03F12002 		add	r2, r3, #32
  34 0006 1A62     		str	r2, [r3, #32]
  35              		.loc 1 64 0
  36 0008 5A62     		str	r2, [r3, #36]
  37              		.loc 1 65 0
  38 000a 4FF0FF30 		mov	r0, #-1
  39 000e 4FF0FF31 		mov	r1, #-1
  40 0012 C3E90A01 		strd	r0, [r3, #40]
  41              		.loc 1 69 0
  42 0016 0022     		movs	r2, #0
  43 0018 1A63     		str	r2, [r3, #48]
  44              		.loc 1 71 0
  45 001a 7047     		bx	lr
  46              	.L3:
  47              		.align	2
  48              	.L2:
  49 001c 00000000 		.word	ch
  50              		.cfi_endproc
  51              	.LFE295:
  52              		.size	_vt_init, .-_vt_init
  53              		.align	1
  54              		.p2align 4,,15
  55              		.global	chVTDoSetI
  56              		.syntax unified
  57              		.thumb
ARM GAS  C:\Users\RAKIBU~1\AppData\Local\Temp\cc8iSkFL.s 			page 2


  58              		.thumb_func
  59              		.fpu softvfp
  60              		.type	chVTDoSetI, %function
  61              	chVTDoSetI:
  62              	.LFB296:
  63              		.loc 1 96 0
  64              		.cfi_startproc
  65              		@ args = 8, pretend = 0, frame = 0
  66              		@ frame_needed = 0, uses_anonymous_args = 0
  67              	.LVL0:
  68 0020 2DE9F843 		push	{r3, r4, r5, r6, r7, r8, r9, lr}
  69              		.cfi_def_cfa_offset 32
  70              		.cfi_offset 3, -32
  71              		.cfi_offset 4, -28
  72              		.cfi_offset 5, -24
  73              		.cfi_offset 6, -20
  74              		.cfi_offset 7, -16
  75              		.cfi_offset 8, -12
  76              		.cfi_offset 9, -8
  77              		.cfi_offset 14, -4
  78 0024 0546     		mov	r5, r0
  79 0026 1646     		mov	r6, r2
  80 0028 1F46     		mov	r7, r3
  81 002a 089C     		ldr	r4, [sp, #32]
  82              		.loc 1 100 0
  83 002c FFF7FEFF 		bl	chDbgCheckClassI
  84              	.LVL1:
  85              		.loc 1 101 0
  86 0030 1DB1     		cbz	r5, .L5
  87              		.loc 1 101 0 is_stmt 0 discriminator 3
  88 0032 14B1     		cbz	r4, .L5
  89              		.loc 1 101 0 discriminator 5
  90 0034 56EA0703 		orrs	r3, r6, r7
  91 0038 02D1     		bne	.L6
  92              	.L5:
  93              		.loc 1 101 0 discriminator 6
  94 003a 4148     		ldr	r0, .L24
  95 003c FFF7FEFF 		bl	chSysHalt
  96              	.LVL2:
  97              	.L6:
  98              		.loc 1 103 0 is_stmt 1
  99 0040 099B     		ldr	r3, [sp, #36]
 100 0042 6B61     		str	r3, [r5, #20]
 101              		.loc 1 104 0
 102 0044 2C61     		str	r4, [r5, #16]
 103              	.LBB40:
 104              	.LBB41:
 105              	.LBB42:
 106              	.LBB43:
 107              	.LBB44:
 108              		.file 2 "../../../ChibiOSRepo/chibios191/os/hal/ports/STM32/LLD/TIMv1/hal_st_lld.h"
 109              		.loc 2 147 0
 110 0046 4FF08043 		mov	r3, #1073741824
 111 004a 5A6A     		ldr	r2, [r3, #36]
 112              	.LBE44:
 113              	.LBE43:
 114              	.LBE42:
ARM GAS  C:\Users\RAKIBU~1\AppData\Local\Temp\cc8iSkFL.s 			page 3


 115              	.LBE41:
 116              		.loc 1 112 0
 117 004c 002F     		cmp	r7, #0
 118 004e 08BF     		it	eq
 119 0050 022E     		cmpeq	r6, #2
 120 0052 18D3     		bcc	.L21
 121              	.L7:
 122              	.LVL3:
 123              		.loc 1 117 0
 124 0054 3B4B     		ldr	r3, .L24+4
 125 0056 53F8204F 		ldr	r4, [r3, #32]!
 126 005a 9C42     		cmp	r4, r3
 127 005c 16D0     		beq	.L22
 128              	.LVL4:
 129              		.loc 1 146 0
 130 005e 394B     		ldr	r3, .L24+4
 131 0060 196B     		ldr	r1, [r3, #48]
 132              	.LVL5:
 133              	.LBB45:
 134              	.LBB46:
 135              		.file 3 "../../../ChibiOSRepo/chibios191/os/rt/include/chtime.h"
 136              		.loc 3 463 0
 137 0062 521A     		subs	r2, r2, r1
 138              	.LVL6:
 139 0064 0023     		movs	r3, #0
 140              	.LVL7:
 141              	.LBE46:
 142              	.LBE45:
 143              		.loc 1 146 0
 144 0066 16EB0208 		adds	r8, r6, r2
 145 006a 47EB0309 		adc	r9, r7, r3
 146              	.LVL8:
 147              		.loc 1 148 0
 148 006e 9945     		cmp	r9, r3
 149 0070 08BF     		it	eq
 150 0072 9045     		cmpeq	r8, r2
 151 0074 22D2     		bcs	.L12
 152              		.loc 1 152 0
 153 0076 D4E90223 		ldrd	r2, [r4, #8]
 154 007a B8EB0208 		subs	r8, r8, r2
 155              	.LVL9:
 156 007e 69EB0309 		sbc	r9, r9, r3
 157              	.LVL10:
 158              		.loc 1 153 0
 159 0082 2468     		ldr	r4, [r4]
 160              	.LVL11:
 161 0084 35E0     		b	.L16
 162              	.LVL12:
 163              	.L21:
 164              		.loc 1 113 0
 165 0086 0226     		movs	r6, #2
 166 0088 0027     		movs	r7, #0
 167 008a E3E7     		b	.L7
 168              	.LVL13:
 169              	.L22:
 170              		.loc 1 121 0
 171 008c 2D4B     		ldr	r3, .L24+4
ARM GAS  C:\Users\RAKIBU~1\AppData\Local\Temp\cc8iSkFL.s 			page 4


 172 008e 1A63     		str	r2, [r3, #48]
 173              		.loc 1 122 0
 174 0090 1D62     		str	r5, [r3, #32]
 175              		.loc 1 123 0
 176 0092 5D62     		str	r5, [r3, #36]
 177              		.loc 1 124 0
 178 0094 2033     		adds	r3, r3, #32
 179 0096 2B60     		str	r3, [r5]
 180              		.loc 1 125 0
 181 0098 6B60     		str	r3, [r5, #4]
 182              		.loc 1 126 0
 183 009a C5E90267 		strd	r6, [r5, #8]
 184              		.loc 1 130 0
 185 009e 012F     		cmp	r7, #1
 186 00a0 08BF     		it	eq
 187 00a2 002E     		cmpeq	r6, #0
 188 00a4 07D3     		bcc	.L9
 189              	.LVL14:
 190              		.loc 1 136 0
 191 00a6 203B     		subs	r3, r3, #32
 192 00a8 186B     		ldr	r0, [r3, #48]
 193              	.LVL15:
 194              		.loc 1 131 0
 195 00aa 4FF0FF36 		mov	r6, #-1
 196              	.LVL16:
 197              	.L10:
 198              	.LBB47:
 199              	.LBB48:
 200              		.file 4 "../../../ChibiOSRepo/chibios191/os/common/ports/ARMCMx/chcore_timer.h"
 201              		.loc 4 73 0
 202 00ae 3044     		add	r0, r0, r6
 203 00b0 FFF7FEFF 		bl	stStartAlarm
 204              	.LVL17:
 205 00b4 41E0     		b	.L4
 206              	.LVL18:
 207              	.L9:
 208              	.LBE48:
 209              	.LBE47:
 210              		.loc 1 136 0
 211 00b6 234B     		ldr	r3, .L24+4
 212 00b8 186B     		ldr	r0, [r3, #48]
 213              	.LVL19:
 214 00ba F8E7     		b	.L10
 215              	.LVL20:
 216              	.L12:
 217              		.loc 1 155 0
 218 00bc D4E90223 		ldrd	r2, [r4, #8]
 219 00c0 9945     		cmp	r9, r3
 220 00c2 08BF     		it	eq
 221 00c4 9045     		cmpeq	r8, r2
 222 00c6 14D2     		bcs	.L16
 223              	.LVL21:
 224              	.LBB49:
 225              		.loc 1 163 0
 226 00c8 B9F1010F 		cmp	r9, #1
 227 00cc 08BF     		it	eq
 228 00ce B8F1000F 		cmpeq	r8, #0
ARM GAS  C:\Users\RAKIBU~1\AppData\Local\Temp\cc8iSkFL.s 			page 5


 229 00d2 05D3     		bcc	.L19
 230              		.loc 1 164 0
 231 00d4 4FF0FF30 		mov	r0, #-1
 232              	.L14:
 233              	.LBB50:
 234              	.LBB51:
 235              		.loc 4 95 0
 236 00d8 0844     		add	r0, r0, r1
 237 00da FFF7FEFF 		bl	stSetAlarm
 238              	.LVL22:
 239 00de 08E0     		b	.L16
 240              	.L19:
 241              	.LBE51:
 242              	.LBE50:
 243              		.loc 1 160 0
 244 00e0 4046     		mov	r0, r8
 245 00e2 F9E7     		b	.L14
 246              	.LVL23:
 247              	.L15:
 248              	.LBE49:
 249              	.LBE40:
 250              		.loc 1 184 0
 251 00e4 D4E90223 		ldrd	r2, [r4, #8]
 252 00e8 B8EB0208 		subs	r8, r8, r2
 253              	.LVL24:
 254 00ec 69EB0309 		sbc	r9, r9, r3
 255              	.LVL25:
 256              		.loc 1 185 0
 257 00f0 2468     		ldr	r4, [r4]
 258              	.LVL26:
 259              	.L16:
 260              		.loc 1 180 0
 261 00f2 D4E90223 		ldrd	r2, [r4, #8]
 262 00f6 4B45     		cmp	r3, r9
 263 00f8 08BF     		it	eq
 264 00fa 4245     		cmpeq	r2, r8
 265 00fc 05D2     		bcs	.L23
 266              		.loc 1 182 0 discriminator 1
 267 00fe AC42     		cmp	r4, r5
 268 0100 F0D1     		bne	.L15
 269              		.loc 1 182 0 is_stmt 0 discriminator 2
 270 0102 0F48     		ldr	r0, .L24
 271 0104 FFF7FEFF 		bl	chSysHalt
 272              	.LVL27:
 273 0108 ECE7     		b	.L15
 274              	.L23:
 275              		.loc 1 189 0 is_stmt 1
 276 010a 2C60     		str	r4, [r5]
 277              		.loc 1 190 0
 278 010c 6368     		ldr	r3, [r4, #4]
 279 010e 6B60     		str	r3, [r5, #4]
 280              		.loc 1 191 0
 281 0110 1D60     		str	r5, [r3]
 282              		.loc 1 192 0
 283 0112 6560     		str	r5, [r4, #4]
 284              		.loc 1 193 0
 285 0114 C5E90289 		strd	r8, [r5, #8]
ARM GAS  C:\Users\RAKIBU~1\AppData\Local\Temp\cc8iSkFL.s 			page 6


 286              		.loc 1 196 0
 287 0118 D4E90223 		ldrd	r2, [r4, #8]
 288 011c B2EB0802 		subs	r2, r2, r8
 289 0120 63EB0903 		sbc	r3, r3, r9
 290 0124 1646     		mov	r6, r2
 291              	.LVL28:
 292 0126 1F46     		mov	r7, r3
 293 0128 C4E90267 		strd	r6, [r4, #8]
 294              		.loc 1 200 0
 295 012c 054B     		ldr	r3, .L24+4
 296 012e 4FF0FF30 		mov	r0, #-1
 297 0132 4FF0FF31 		mov	r1, #-1
 298 0136 C3E90A01 		strd	r0, [r3, #40]
 299              	.LVL29:
 300              	.L4:
 301              		.loc 1 201 0
 302 013a BDE8F883 		pop	{r3, r4, r5, r6, r7, r8, r9, pc}
 303              	.LVL30:
 304              	.L25:
 305 013e 00BF     		.align	2
 306              	.L24:
 307 0140 00000000 		.word	.LANCHOR0
 308 0144 00000000 		.word	ch
 309              		.cfi_endproc
 310              	.LFE296:
 311              		.size	chVTDoSetI, .-chVTDoSetI
 312              		.align	1
 313 0148 AFF30080 		.p2align 4,,15
 313      AFF30080 
 314              		.global	chVTDoResetI
 315              		.syntax unified
 316              		.thumb
 317              		.thumb_func
 318              		.fpu softvfp
 319              		.type	chVTDoResetI, %function
 320              	chVTDoResetI:
 321              	.LFB297:
 322              		.loc 1 211 0
 323              		.cfi_startproc
 324              		@ args = 0, pretend = 0, frame = 0
 325              		@ frame_needed = 0, uses_anonymous_args = 0
 326              	.LVL31:
 327 0150 F8B5     		push	{r3, r4, r5, r6, r7, lr}
 328              		.cfi_def_cfa_offset 24
 329              		.cfi_offset 3, -24
 330              		.cfi_offset 4, -20
 331              		.cfi_offset 5, -16
 332              		.cfi_offset 6, -12
 333              		.cfi_offset 7, -8
 334              		.cfi_offset 14, -4
 335 0152 0446     		mov	r4, r0
 336              		.loc 1 213 0
 337 0154 FFF7FEFF 		bl	chDbgCheckClassI
 338              	.LVL32:
 339              		.loc 1 214 0
 340 0158 DCB1     		cbz	r4, .L37
 341              	.L27:
ARM GAS  C:\Users\RAKIBU~1\AppData\Local\Temp\cc8iSkFL.s 			page 7


 342              		.loc 1 215 0 discriminator 1
 343 015a 2369     		ldr	r3, [r4, #16]
 344 015c EBB1     		cbz	r3, .L38
 345              	.L28:
 346              		.loc 1 235 0
 347 015e 324B     		ldr	r3, .L42
 348 0160 1B6A     		ldr	r3, [r3, #32]
 349 0162 A342     		cmp	r3, r4
 350 0164 1DD0     		beq	.L29
 351              		.loc 1 237 0
 352 0166 6368     		ldr	r3, [r4, #4]
 353 0168 2268     		ldr	r2, [r4]
 354 016a 1A60     		str	r2, [r3]
 355              		.loc 1 238 0
 356 016c 2368     		ldr	r3, [r4]
 357 016e 6268     		ldr	r2, [r4, #4]
 358 0170 5A60     		str	r2, [r3, #4]
 359              		.loc 1 239 0
 360 0172 0023     		movs	r3, #0
 361 0174 2361     		str	r3, [r4, #16]
 362              		.loc 1 242 0
 363 0176 2368     		ldr	r3, [r4]
 364 0178 2C4A     		ldr	r2, .L42+4
 365 017a 9342     		cmp	r3, r2
 366 017c 08D0     		beq	.L26
 367              		.loc 1 243 0
 368 017e D4E90245 		ldrd	r4, [r4, #8]
 369              	.LVL33:
 370 0182 D3E90201 		ldrd	r0, [r3, #8]
 371 0186 0619     		adds	r6, r0, r4
 372 0188 41EB0507 		adc	r7, r1, r5
 373 018c C3E90267 		strd	r6, [r3, #8]
 374              	.L26:
 375              		.loc 1 297 0
 376 0190 F8BD     		pop	{r3, r4, r5, r6, r7, pc}
 377              	.LVL34:
 378              	.L37:
 379              		.loc 1 214 0 discriminator 2
 380 0192 2748     		ldr	r0, .L42+8
 381 0194 FFF7FEFF 		bl	chSysHalt
 382              	.LVL35:
 383 0198 DFE7     		b	.L27
 384              	.L38:
 385              		.loc 1 215 0 discriminator 2
 386 019a 2548     		ldr	r0, .L42+8
 387 019c FFF7FEFF 		bl	chSysHalt
 388              	.LVL36:
 389 01a0 DDE7     		b	.L28
 390              	.L29:
 391              		.loc 1 249 0
 392 01a2 2168     		ldr	r1, [r4]
 393 01a4 204A     		ldr	r2, .L42
 394 01a6 1346     		mov	r3, r2
 395 01a8 43F8201F 		str	r1, [r3, #32]!
 396              		.loc 1 250 0
 397 01ac 4B60     		str	r3, [r1, #4]
 398              		.loc 1 251 0
ARM GAS  C:\Users\RAKIBU~1\AppData\Local\Temp\cc8iSkFL.s 			page 8


 399 01ae 0021     		movs	r1, #0
 400 01b0 2161     		str	r1, [r4, #16]
 401              		.loc 1 254 0
 402 01b2 126A     		ldr	r2, [r2, #32]
 403 01b4 9A42     		cmp	r2, r3
 404 01b6 24D0     		beq	.L39
 405              		.loc 1 261 0
 406 01b8 D4E90245 		ldrd	r4, [r4, #8]
 407              	.LVL37:
 408 01bc D2E90201 		ldrd	r0, [r2, #8]
 409 01c0 0619     		adds	r6, r0, r4
 410 01c2 41EB0507 		adc	r7, r1, r5
 411 01c6 C2E90267 		strd	r6, [r2, #8]
 412              		.loc 1 270 0
 413 01ca 1749     		ldr	r1, .L42
 414 01cc 0E6B     		ldr	r6, [r1, #48]
 415              	.LBB52:
 416              	.LBB53:
 417              	.LBB54:
 418              	.LBB55:
 419              		.loc 2 147 0
 420 01ce 4FF08043 		mov	r3, #1073741824
 421 01d2 5A6A     		ldr	r2, [r3, #36]
 422              	.LVL38:
 423              	.LBE55:
 424              	.LBE54:
 425              	.LBE53:
 426              	.LBE52:
 427              	.LBB56:
 428              	.LBB57:
 429              		.loc 3 463 0
 430 01d4 921B     		subs	r2, r2, r6
 431 01d6 0023     		movs	r3, #0
 432              	.LVL39:
 433              	.LBE57:
 434              	.LBE56:
 435              		.loc 1 274 0
 436 01d8 096A     		ldr	r1, [r1, #32]
 437 01da D1E90245 		ldrd	r4, [r1, #8]
 438 01de AB42     		cmp	r3, r5
 439 01e0 08BF     		it	eq
 440 01e2 A242     		cmpeq	r2, r4
 441 01e4 D4D2     		bcs	.L26
 442              		.loc 1 279 0
 443 01e6 A01A     		subs	r0, r4, r2
 444 01e8 65EB0301 		sbc	r1, r5, r3
 445              	.LVL40:
 446              		.loc 1 283 0
 447 01ec 0029     		cmp	r1, #0
 448 01ee 08BF     		it	eq
 449 01f0 0228     		cmpeq	r0, #2
 450 01f2 09D3     		bcc	.L40
 451              	.LVL41:
 452              		.loc 1 290 0
 453 01f4 012D     		cmp	r5, #1
 454 01f6 08BF     		it	eq
 455 01f8 002C     		cmpeq	r4, #0
ARM GAS  C:\Users\RAKIBU~1\AppData\Local\Temp\cc8iSkFL.s 			page 9


 456 01fa 08D3     		bcc	.L33
 457              		.loc 1 291 0
 458 01fc 4FF0FF34 		mov	r4, #-1
 459              	.LVL42:
 460 0200 09E0     		b	.L34
 461              	.LVL43:
 462              	.L39:
 463              	.LBB58:
 464              	.LBB59:
 465              		.loc 4 83 0
 466 0202 FFF7FEFF 		bl	stStopAlarm
 467              	.LVL44:
 468 0206 C3E7     		b	.L26
 469              	.LVL45:
 470              	.L40:
 471              	.LBE59:
 472              	.LBE58:
 473              		.loc 1 284 0
 474 0208 941C     		adds	r4, r2, #2
 475 020a 43F10005 		adc	r5, r3, #0
 476              	.LVL46:
 477              	.L33:
 478              	.LBB60:
 479              	.LBB61:
 480              		.loc 3 444 0
 481 020e 012D     		cmp	r5, #1
 482 0210 08BF     		it	eq
 483 0212 002C     		cmpeq	r4, #0
 484 0214 03D2     		bcs	.L41
 485              	.LVL47:
 486              	.L34:
 487              	.LBE61:
 488              	.LBE60:
 489              	.LBB63:
 490              	.LBB64:
 491              		.loc 4 95 0
 492 0216 3019     		adds	r0, r6, r4
 493 0218 FFF7FEFF 		bl	stSetAlarm
 494              	.LVL48:
 495 021c B8E7     		b	.L26
 496              	.LVL49:
 497              	.L41:
 498              	.LBE64:
 499              	.LBE63:
 500              	.LBB65:
 501              	.LBB62:
 502              		.loc 3 444 0
 503 021e 0548     		ldr	r0, .L42+12
 504 0220 FFF7FEFF 		bl	chSysHalt
 505              	.LVL50:
 506 0224 F7E7     		b	.L34
 507              	.L43:
 508 0226 00BF     		.align	2
 509              	.L42:
 510 0228 00000000 		.word	ch
 511 022c 20000000 		.word	ch+32
 512 0230 0C000000 		.word	.LANCHOR0+12
ARM GAS  C:\Users\RAKIBU~1\AppData\Local\Temp\cc8iSkFL.s 			page 10


 513 0234 1C000000 		.word	.LANCHOR0+28
 514              	.LBE62:
 515              	.LBE65:
 516              		.cfi_endproc
 517              	.LFE297:
 518              		.size	chVTDoResetI, .-chVTDoResetI
 519              		.section	.rodata
 520              		.align	2
 521              		.set	.LANCHOR0,. + 0
 522              		.type	__func__.7114, %object
 523              		.size	__func__.7114, 11
 524              	__func__.7114:
 525 0000 63685654 		.ascii	"chVTDoSetI\000"
 525      446F5365 
 525      744900
 526 000b 00       		.space	1
 527              		.type	__func__.7123, %object
 528              		.size	__func__.7123, 13
 529              	__func__.7123:
 530 000c 63685654 		.ascii	"chVTDoResetI\000"
 530      446F5265 
 530      73657449 
 530      00
 531 0019 000000   		.space	3
 532              		.type	__func__.4250, %object
 533              		.size	__func__.4250, 11
 534              	__func__.4250:
 535 001c 63685469 		.ascii	"chTimeAddX\000"
 535      6D654164 
 535      645800
 536              		.text
 537              	.Letext0:
 538              		.file 5 "c:\\chibistudio\\tools\\gnu tools arm embedded\\7.0 2017q4\\lib\\gcc\\arm-none-eabi\\7.2.
 539              		.file 6 "c:\\chibistudio\\tools\\gnu tools arm embedded\\7.0 2017q4\\arm-none-eabi\\include\\machi
 540              		.file 7 "c:\\chibistudio\\tools\\gnu tools arm embedded\\7.0 2017q4\\arm-none-eabi\\include\\sys\\
 541              		.file 8 "../../../ChibiOSRepo/chibios191/os/common/ports/ARMCMx/compilers/GCC/chtypes.h"
 542              		.file 9 "../../../ChibiOSRepo/chibios191/os/rt/include/chsystypes.h"
 543              		.file 10 "../../../ChibiOSRepo/chibios191/os/rt/include/chschd.h"
 544              		.file 11 "../../../ChibiOSRepo/chibios191/os/common/ext/ARM/CMSIS/Core/Include/core_cm4.h"
 545              		.file 12 "../../../ChibiOSRepo/chibios191/os/common/ext/ST/STM32F4xx/system_stm32f4xx.h"
 546              		.file 13 "../../../ChibiOSRepo/chibios191/os/common/ports/ARMCMx/chcore.h"
 547              		.file 14 "../../../ChibiOSRepo/chibios191/os/common/ports/ARMCMx/chcore_v7m.h"
 548              		.file 15 "../../../ChibiOSRepo/chibios191/os/hal/ports/STM32/LLD/TIMv1/stm32_tim.h"
 549              		.file 16 "../../../ChibiOSRepo/chibios191/os/rt/include/chtrace.h"
 550              		.file 17 "../../../ChibiOSRepo/chibios191/os/rt/include/chtm.h"
 551              		.file 18 "../../../ChibiOSRepo/chibios191/os/rt/include/chstats.h"
 552              		.file 19 "../../../ChibiOSRepo/chibios191/os/rt/include/chsem.h"
 553              		.file 20 "../../../ChibiOSRepo/chibios191/os/rt/include/chmtx.h"
 554              		.file 21 "../../../ChibiOSRepo/chibios191/os/rt/include/chsys.h"
 555              		.file 22 "../../../ChibiOSRepo/chibios191/os/rt/include/chregistry.h"
 556              		.file 23 "../../../ChibiOSRepo/chibios191/os/oslib/include/chmemcore.h"
 557              		.file 24 "../../../ChibiOSRepo/chibios191/os/oslib/include/chmempools.h"
 558              		.file 25 "../../../ChibiOSRepo/chibios191/os/oslib/include/chfactory.h"
 559              		.file 26 "../../../ChibiOSRepo/chibios191/os/rt/include/chvt.h"
 560              		.file 27 "../../../ChibiOSRepo/chibios191/os/hal/include/hal_st.h"
 561              		.file 28 "../../../ChibiOSRepo/chibios191/os/rt/include/ch.h"
 562              		.file 29 "../../../ChibiOSRepo/chibios191/os/rt/include/chdebug.h"
ARM GAS  C:\Users\RAKIBU~1\AppData\Local\Temp\cc8iSkFL.s 			page 11


 563              		.section	.debug_info,"",%progbits
 564              	.Ldebug_info0:
 565 0000 27110000 		.4byte	0x1127
 566 0004 0400     		.2byte	0x4
 567 0006 00000000 		.4byte	.Ldebug_abbrev0
 568 000a 04       		.byte	0x4
 569 000b 01       		.uleb128 0x1
 570 000c 3E050000 		.4byte	.LASF203
 571 0010 0C       		.byte	0xc
 572 0011 13040000 		.4byte	.LASF204
 573 0015 2A030000 		.4byte	.LASF205
 574 0019 00000000 		.4byte	.Ltext0
 575 001d 38020000 		.4byte	.Letext0-.Ltext0
 576 0021 00000000 		.4byte	.Ldebug_line0
 577 0025 02       		.uleb128 0x2
 578 0026 08       		.byte	0x8
 579 0027 07       		.byte	0x7
 580 0028 D6000000 		.4byte	.LASF0
 581 002c 03       		.uleb128 0x3
 582 002d 04       		.byte	0x4
 583 002e 05       		.byte	0x5
 584 002f 696E7400 		.ascii	"int\000"
 585 0033 04       		.uleb128 0x4
 586 0034 12000000 		.4byte	.LASF5
 587 0038 05       		.byte	0x5
 588 0039 D8       		.byte	0xd8
 589 003a 3E000000 		.4byte	0x3e
 590 003e 02       		.uleb128 0x2
 591 003f 04       		.byte	0x4
 592 0040 07       		.byte	0x7
 593 0041 DD010000 		.4byte	.LASF1
 594 0045 02       		.uleb128 0x2
 595 0046 08       		.byte	0x8
 596 0047 05       		.byte	0x5
 597 0048 F5010000 		.4byte	.LASF2
 598 004c 02       		.uleb128 0x2
 599 004d 08       		.byte	0x8
 600 004e 04       		.byte	0x4
 601 004f 00050000 		.4byte	.LASF3
 602 0053 02       		.uleb128 0x2
 603 0054 01       		.byte	0x1
 604 0055 06       		.byte	0x6
 605 0056 74010000 		.4byte	.LASF4
 606 005a 04       		.uleb128 0x4
 607 005b 58000000 		.4byte	.LASF6
 608 005f 06       		.byte	0x6
 609 0060 2B       		.byte	0x2b
 610 0061 65000000 		.4byte	0x65
 611 0065 02       		.uleb128 0x2
 612 0066 01       		.byte	0x1
 613 0067 08       		.byte	0x8
 614 0068 6E060000 		.4byte	.LASF7
 615 006c 02       		.uleb128 0x2
 616 006d 02       		.byte	0x2
 617 006e 05       		.byte	0x5
 618 006f 9E060000 		.4byte	.LASF8
 619 0073 04       		.uleb128 0x4
ARM GAS  C:\Users\RAKIBU~1\AppData\Local\Temp\cc8iSkFL.s 			page 12


 620 0074 93070000 		.4byte	.LASF9
 621 0078 06       		.byte	0x6
 622 0079 39       		.byte	0x39
 623 007a 7E000000 		.4byte	0x7e
 624 007e 02       		.uleb128 0x2
 625 007f 02       		.byte	0x2
 626 0080 07       		.byte	0x7
 627 0081 18080000 		.4byte	.LASF10
 628 0085 04       		.uleb128 0x4
 629 0086 83040000 		.4byte	.LASF11
 630 008a 06       		.byte	0x6
 631 008b 4D       		.byte	0x4d
 632 008c 90000000 		.4byte	0x90
 633 0090 02       		.uleb128 0x2
 634 0091 04       		.byte	0x4
 635 0092 05       		.byte	0x5
 636 0093 A8010000 		.4byte	.LASF12
 637 0097 04       		.uleb128 0x4
 638 0098 41020000 		.4byte	.LASF13
 639 009c 06       		.byte	0x6
 640 009d 4F       		.byte	0x4f
 641 009e A2000000 		.4byte	0xa2
 642 00a2 02       		.uleb128 0x2
 643 00a3 04       		.byte	0x4
 644 00a4 07       		.byte	0x7
 645 00a5 69070000 		.4byte	.LASF14
 646 00a9 04       		.uleb128 0x4
 647 00aa F9050000 		.4byte	.LASF15
 648 00ae 06       		.byte	0x6
 649 00af 69       		.byte	0x69
 650 00b0 25000000 		.4byte	0x25
 651 00b4 04       		.uleb128 0x4
 652 00b5 C7060000 		.4byte	.LASF16
 653 00b9 07       		.byte	0x7
 654 00ba 18       		.byte	0x18
 655 00bb 5A000000 		.4byte	0x5a
 656 00bf 05       		.uleb128 0x5
 657 00c0 B4000000 		.4byte	0xb4
 658 00c4 04       		.uleb128 0x4
 659 00c5 03020000 		.4byte	.LASF17
 660 00c9 07       		.byte	0x7
 661 00ca 24       		.byte	0x24
 662 00cb 73000000 		.4byte	0x73
 663 00cf 04       		.uleb128 0x4
 664 00d0 66060000 		.4byte	.LASF18
 665 00d4 07       		.byte	0x7
 666 00d5 2C       		.byte	0x2c
 667 00d6 85000000 		.4byte	0x85
 668 00da 06       		.uleb128 0x6
 669 00db CF000000 		.4byte	0xcf
 670 00df 04       		.uleb128 0x4
 671 00e0 43070000 		.4byte	.LASF19
 672 00e4 07       		.byte	0x7
 673 00e5 30       		.byte	0x30
 674 00e6 97000000 		.4byte	0x97
 675 00ea 06       		.uleb128 0x6
 676 00eb DF000000 		.4byte	0xdf
ARM GAS  C:\Users\RAKIBU~1\AppData\Local\Temp\cc8iSkFL.s 			page 13


 677 00ef 04       		.uleb128 0x4
 678 00f0 2B000000 		.4byte	.LASF20
 679 00f4 07       		.byte	0x7
 680 00f5 3C       		.byte	0x3c
 681 00f6 A9000000 		.4byte	0xa9
 682 00fa 04       		.uleb128 0x4
 683 00fb D3040000 		.4byte	.LASF21
 684 00ff 08       		.byte	0x8
 685 0100 27       		.byte	0x27
 686 0101 DF000000 		.4byte	0xdf
 687 0105 04       		.uleb128 0x4
 688 0106 56010000 		.4byte	.LASF22
 689 010a 08       		.byte	0x8
 690 010b 28       		.byte	0x28
 691 010c EF000000 		.4byte	0xef
 692 0110 04       		.uleb128 0x4
 693 0111 BB010000 		.4byte	.LASF23
 694 0115 08       		.byte	0x8
 695 0116 2A       		.byte	0x2a
 696 0117 B4000000 		.4byte	0xb4
 697 011b 04       		.uleb128 0x4
 698 011c C3010000 		.4byte	.LASF24
 699 0120 08       		.byte	0x8
 700 0121 2B       		.byte	0x2b
 701 0122 B4000000 		.4byte	0xb4
 702 0126 04       		.uleb128 0x4
 703 0127 19060000 		.4byte	.LASF25
 704 012b 08       		.byte	0x8
 705 012c 2C       		.byte	0x2c
 706 012d B4000000 		.4byte	0xb4
 707 0131 04       		.uleb128 0x4
 708 0132 46060000 		.4byte	.LASF26
 709 0136 08       		.byte	0x8
 710 0137 2E       		.byte	0x2e
 711 0138 DF000000 		.4byte	0xdf
 712 013c 04       		.uleb128 0x4
 713 013d 3F080000 		.4byte	.LASF27
 714 0141 08       		.byte	0x8
 715 0142 2F       		.byte	0x2f
 716 0143 CF000000 		.4byte	0xcf
 717 0147 04       		.uleb128 0x4
 718 0148 4C000000 		.4byte	.LASF28
 719 014c 08       		.byte	0x8
 720 014d 31       		.byte	0x31
 721 014e DF000000 		.4byte	0xdf
 722 0152 04       		.uleb128 0x4
 723 0153 A8020000 		.4byte	.LASF29
 724 0157 08       		.byte	0x8
 725 0158 33       		.byte	0x33
 726 0159 CF000000 		.4byte	0xcf
 727 015d 04       		.uleb128 0x4
 728 015e DE030000 		.4byte	.LASF30
 729 0162 08       		.byte	0x8
 730 0163 34       		.byte	0x34
 731 0164 DF000000 		.4byte	0xdf
 732 0168 04       		.uleb128 0x4
 733 0169 B1070000 		.4byte	.LASF31
ARM GAS  C:\Users\RAKIBU~1\AppData\Local\Temp\cc8iSkFL.s 			page 14


 734 016d 09       		.byte	0x9
 735 016e 34       		.byte	0x34
 736 016f 73010000 		.4byte	0x173
 737 0173 07       		.uleb128 0x7
 738 0174 BD030000 		.4byte	.LASF50
 739 0178 60       		.byte	0x60
 740 0179 0A       		.byte	0xa
 741 017a 8E       		.byte	0x8e
 742 017b 5E020000 		.4byte	0x25e
 743 017f 08       		.uleb128 0x8
 744 0180 1E030000 		.4byte	.LASF32
 745 0184 0A       		.byte	0xa
 746 0185 8F       		.byte	0x8f
 747 0186 93020000 		.4byte	0x293
 748 018a 00       		.byte	0
 749 018b 08       		.uleb128 0x8
 750 018c D8050000 		.4byte	.LASF33
 751 0190 0A       		.byte	0xa
 752 0191 90       		.byte	0x90
 753 0192 31010000 		.4byte	0x131
 754 0196 08       		.byte	0x8
 755 0197 09       		.uleb128 0x9
 756 0198 63747800 		.ascii	"ctx\000"
 757 019c 0A       		.byte	0xa
 758 019d 91       		.byte	0x91
 759 019e 54050000 		.4byte	0x554
 760 01a2 0C       		.byte	0xc
 761 01a3 08       		.uleb128 0x8
 762 01a4 A1040000 		.4byte	.LASF34
 763 01a8 0A       		.byte	0xa
 764 01a9 93       		.byte	0x93
 765 01aa 69020000 		.4byte	0x269
 766 01ae 10       		.byte	0x10
 767 01af 08       		.uleb128 0x8
 768 01b0 29020000 		.4byte	.LASF35
 769 01b4 0A       		.byte	0xa
 770 01b5 94       		.byte	0x94
 771 01b6 69020000 		.4byte	0x269
 772 01ba 14       		.byte	0x14
 773 01bb 08       		.uleb128 0x8
 774 01bc B8030000 		.4byte	.LASF36
 775 01c0 0A       		.byte	0xa
 776 01c1 9B       		.byte	0x9b
 777 01c2 3C070000 		.4byte	0x73c
 778 01c6 18       		.byte	0x18
 779 01c7 08       		.uleb128 0x8
 780 01c8 7B070000 		.4byte	.LASF37
 781 01cc 0A       		.byte	0xa
 782 01cd A4       		.byte	0xa4
 783 01ce EB090000 		.4byte	0x9eb
 784 01d2 1C       		.byte	0x1c
 785 01d3 08       		.uleb128 0x8
 786 01d4 A2010000 		.4byte	.LASF38
 787 01d8 0A       		.byte	0xa
 788 01d9 A9       		.byte	0xa9
 789 01da 1B010000 		.4byte	0x11b
 790 01de 20       		.byte	0x20
ARM GAS  C:\Users\RAKIBU~1\AppData\Local\Temp\cc8iSkFL.s 			page 15


 791 01df 08       		.uleb128 0x8
 792 01e0 D6080000 		.4byte	.LASF39
 793 01e4 0A       		.byte	0xa
 794 01e5 AD       		.byte	0xad
 795 01e6 10010000 		.4byte	0x110
 796 01ea 21       		.byte	0x21
 797 01eb 08       		.uleb128 0x8
 798 01ec 2C060000 		.4byte	.LASF40
 799 01f0 0A       		.byte	0xa
 800 01f1 B2       		.byte	0xb2
 801 01f2 26010000 		.4byte	0x126
 802 01f6 22       		.byte	0x22
 803 01f7 0A       		.uleb128 0xa
 804 01f8 7500     		.ascii	"u\000"
 805 01fa 0A       		.byte	0xa
 806 01fb 0301     		.2byte	0x103
 807 01fd 21090000 		.4byte	0x921
 808 0201 24       		.byte	0x24
 809 0202 0B       		.uleb128 0xb
 810 0203 6E020000 		.4byte	.LASF41
 811 0207 0A       		.byte	0xa
 812 0208 0801     		.2byte	0x108
 813 020a 6F020000 		.4byte	0x26f
 814 020e 28       		.byte	0x28
 815 020f 0B       		.uleb128 0xb
 816 0210 8D040000 		.4byte	.LASF42
 817 0214 0A       		.byte	0xa
 818 0215 0E01     		.2byte	0x10e
 819 0217 93020000 		.4byte	0x293
 820 021b 2C       		.byte	0x2c
 821 021c 0B       		.uleb128 0xb
 822 021d E5030000 		.4byte	.LASF43
 823 0221 0A       		.byte	0xa
 824 0222 1401     		.2byte	0x114
 825 0224 47010000 		.4byte	0x147
 826 0228 34       		.byte	0x34
 827 0229 0B       		.uleb128 0xb
 828 022a 68090000 		.4byte	.LASF44
 829 022e 0A       		.byte	0xa
 830 022f 1B01     		.2byte	0x11b
 831 0231 E5090000 		.4byte	0x9e5
 832 0235 38       		.byte	0x38
 833 0236 0B       		.uleb128 0xb
 834 0237 B8040000 		.4byte	.LASF45
 835 023b 0A       		.byte	0xa
 836 023c 1F01     		.2byte	0x11f
 837 023e 31010000 		.4byte	0x131
 838 0242 3C       		.byte	0x3c
 839 0243 0B       		.uleb128 0xb
 840 0244 24030000 		.4byte	.LASF46
 841 0248 0A       		.byte	0xa
 842 0249 2601     		.2byte	0x126
 843 024b 46030000 		.4byte	0x346
 844 024f 40       		.byte	0x40
 845 0250 0B       		.uleb128 0xb
 846 0251 EA010000 		.4byte	.LASF47
 847 0255 0A       		.byte	0xa
ARM GAS  C:\Users\RAKIBU~1\AppData\Local\Temp\cc8iSkFL.s 			page 16


 848 0256 2C01     		.2byte	0x12c
 849 0258 D2080000 		.4byte	0x8d2
 850 025c 48       		.byte	0x48
 851 025d 00       		.byte	0
 852 025e 04       		.uleb128 0x4
 853 025f F2080000 		.4byte	.LASF48
 854 0263 09       		.byte	0x9
 855 0264 39       		.byte	0x39
 856 0265 69020000 		.4byte	0x269
 857 0269 0C       		.uleb128 0xc
 858 026a 04       		.byte	0x4
 859 026b 68010000 		.4byte	0x168
 860 026f 04       		.uleb128 0x4
 861 0270 26090000 		.4byte	.LASF49
 862 0274 09       		.byte	0x9
 863 0275 3E       		.byte	0x3e
 864 0276 7A020000 		.4byte	0x27a
 865 027a 07       		.uleb128 0x7
 866 027b 53070000 		.4byte	.LASF51
 867 027f 04       		.byte	0x4
 868 0280 0A       		.byte	0xa
 869 0281 7C       		.byte	0x7c
 870 0282 93020000 		.4byte	0x293
 871 0286 08       		.uleb128 0x8
 872 0287 19000000 		.4byte	.LASF52
 873 028b 0A       		.byte	0xa
 874 028c 7D       		.byte	0x7d
 875 028d 69020000 		.4byte	0x269
 876 0291 00       		.byte	0
 877 0292 00       		.byte	0
 878 0293 04       		.uleb128 0x4
 879 0294 85080000 		.4byte	.LASF53
 880 0298 09       		.byte	0x9
 881 0299 45       		.byte	0x45
 882 029a 9E020000 		.4byte	0x29e
 883 029e 07       		.uleb128 0x7
 884 029f 73000000 		.4byte	.LASF54
 885 02a3 08       		.byte	0x8
 886 02a4 0A       		.byte	0xa
 887 02a5 83       		.byte	0x83
 888 02a6 C3020000 		.4byte	0x2c3
 889 02aa 08       		.uleb128 0x8
 890 02ab 19000000 		.4byte	.LASF52
 891 02af 0A       		.byte	0xa
 892 02b0 84       		.byte	0x84
 893 02b1 69020000 		.4byte	0x269
 894 02b5 00       		.byte	0
 895 02b6 08       		.uleb128 0x8
 896 02b7 62000000 		.4byte	.LASF55
 897 02bb 0A       		.byte	0xa
 898 02bc 85       		.byte	0x85
 899 02bd 69020000 		.4byte	0x269
 900 02c1 04       		.byte	0x4
 901 02c2 00       		.byte	0
 902 02c3 04       		.uleb128 0x4
 903 02c4 00000000 		.4byte	.LASF56
 904 02c8 09       		.byte	0x9
ARM GAS  C:\Users\RAKIBU~1\AppData\Local\Temp\cc8iSkFL.s 			page 17


 905 02c9 4C       		.byte	0x4c
 906 02ca CE020000 		.4byte	0x2ce
 907 02ce 0D       		.uleb128 0xd
 908 02cf 63040000 		.4byte	.LASF57
 909 02d3 1C       		.byte	0x1c
 910 02d4 0A       		.byte	0xa
 911 02d5 5E01     		.2byte	0x15e
 912 02d7 2A030000 		.4byte	0x32a
 913 02db 0B       		.uleb128 0xb
 914 02dc 1E030000 		.4byte	.LASF32
 915 02e0 0A       		.byte	0xa
 916 02e1 5F01     		.2byte	0x15f
 917 02e3 93020000 		.4byte	0x293
 918 02e7 00       		.byte	0
 919 02e8 0B       		.uleb128 0xb
 920 02e9 D8050000 		.4byte	.LASF33
 921 02ed 0A       		.byte	0xa
 922 02ee 6001     		.2byte	0x160
 923 02f0 31010000 		.4byte	0x131
 924 02f4 08       		.byte	0x8
 925 02f5 0A       		.uleb128 0xa
 926 02f6 63747800 		.ascii	"ctx\000"
 927 02fa 0A       		.byte	0xa
 928 02fb 6201     		.2byte	0x162
 929 02fd 54050000 		.4byte	0x554
 930 0301 0C       		.byte	0xc
 931 0302 0B       		.uleb128 0xb
 932 0303 A1040000 		.4byte	.LASF34
 933 0307 0A       		.byte	0xa
 934 0308 6501     		.2byte	0x165
 935 030a 69020000 		.4byte	0x269
 936 030e 10       		.byte	0x10
 937 030f 0B       		.uleb128 0xb
 938 0310 29020000 		.4byte	.LASF35
 939 0314 0A       		.byte	0xa
 940 0315 6601     		.2byte	0x166
 941 0317 69020000 		.4byte	0x269
 942 031b 14       		.byte	0x14
 943 031c 0B       		.uleb128 0xb
 944 031d E6050000 		.4byte	.LASF58
 945 0321 0A       		.byte	0xa
 946 0322 6901     		.2byte	0x169
 947 0324 69020000 		.4byte	0x269
 948 0328 18       		.byte	0x18
 949 0329 00       		.byte	0
 950 032a 04       		.uleb128 0x4
 951 032b D4070000 		.4byte	.LASF59
 952 032f 09       		.byte	0x9
 953 0330 51       		.byte	0x51
 954 0331 35030000 		.4byte	0x335
 955 0335 0C       		.uleb128 0xc
 956 0336 04       		.byte	0x4
 957 0337 3B030000 		.4byte	0x33b
 958 033b 0E       		.uleb128 0xe
 959 033c 46030000 		.4byte	0x346
 960 0340 0F       		.uleb128 0xf
 961 0341 46030000 		.4byte	0x346
ARM GAS  C:\Users\RAKIBU~1\AppData\Local\Temp\cc8iSkFL.s 			page 18


 962 0345 00       		.byte	0
 963 0346 10       		.uleb128 0x10
 964 0347 04       		.byte	0x4
 965 0348 04       		.uleb128 0x4
 966 0349 31060000 		.4byte	.LASF60
 967 034d 09       		.byte	0x9
 968 034e 56       		.byte	0x56
 969 034f 53030000 		.4byte	0x353
 970 0353 0D       		.uleb128 0xd
 971 0354 E8060000 		.4byte	.LASF61
 972 0358 18       		.byte	0x18
 973 0359 0A       		.byte	0xa
 974 035a 3901     		.2byte	0x139
 975 035c A2030000 		.4byte	0x3a2
 976 0360 0B       		.uleb128 0xb
 977 0361 19000000 		.4byte	.LASF52
 978 0365 0A       		.byte	0xa
 979 0366 3A01     		.2byte	0x13a
 980 0368 F1090000 		.4byte	0x9f1
 981 036c 00       		.byte	0
 982 036d 0B       		.uleb128 0xb
 983 036e 62000000 		.4byte	.LASF55
 984 0372 0A       		.byte	0xa
 985 0373 3B01     		.2byte	0x13b
 986 0375 F1090000 		.4byte	0x9f1
 987 0379 04       		.byte	0x4
 988 037a 0B       		.uleb128 0xb
 989 037b 1E000000 		.4byte	.LASF62
 990 037f 0A       		.byte	0xa
 991 0380 3C01     		.2byte	0x13c
 992 0382 B2040000 		.4byte	0x4b2
 993 0386 08       		.byte	0x8
 994 0387 0B       		.uleb128 0xb
 995 0388 4B010000 		.4byte	.LASF63
 996 038c 0A       		.byte	0xa
 997 038d 3D01     		.2byte	0x13d
 998 038f 2A030000 		.4byte	0x32a
 999 0393 10       		.byte	0x10
 1000 0394 0A       		.uleb128 0xa
 1001 0395 70617200 		.ascii	"par\000"
 1002 0399 0A       		.byte	0xa
 1003 039a 3F01     		.2byte	0x13f
 1004 039c 46030000 		.4byte	0x346
 1005 03a0 14       		.byte	0x14
 1006 03a1 00       		.byte	0
 1007 03a2 04       		.uleb128 0x4
 1008 03a3 28010000 		.4byte	.LASF64
 1009 03a7 09       		.byte	0x9
 1010 03a8 5B       		.byte	0x5b
 1011 03a9 AD030000 		.4byte	0x3ad
 1012 03ad 0D       		.uleb128 0xd
 1013 03ae E9040000 		.4byte	.LASF65
 1014 03b2 18       		.byte	0x18
 1015 03b3 0A       		.byte	0xa
 1016 03b4 4901     		.2byte	0x149
 1017 03b6 EF030000 		.4byte	0x3ef
 1018 03ba 0B       		.uleb128 0xb
ARM GAS  C:\Users\RAKIBU~1\AppData\Local\Temp\cc8iSkFL.s 			page 19


 1019 03bb 19000000 		.4byte	.LASF52
 1020 03bf 0A       		.byte	0xa
 1021 03c0 4A01     		.2byte	0x14a
 1022 03c2 F1090000 		.4byte	0x9f1
 1023 03c6 00       		.byte	0
 1024 03c7 0B       		.uleb128 0xb
 1025 03c8 62000000 		.4byte	.LASF55
 1026 03cc 0A       		.byte	0xa
 1027 03cd 4C01     		.2byte	0x14c
 1028 03cf F1090000 		.4byte	0x9f1
 1029 03d3 04       		.byte	0x4
 1030 03d4 0B       		.uleb128 0xb
 1031 03d5 1E000000 		.4byte	.LASF62
 1032 03d9 0A       		.byte	0xa
 1033 03da 4E01     		.2byte	0x14e
 1034 03dc B2040000 		.4byte	0x4b2
 1035 03e0 08       		.byte	0x8
 1036 03e1 0B       		.uleb128 0xb
 1037 03e2 A8060000 		.4byte	.LASF66
 1038 03e6 0A       		.byte	0xa
 1039 03e7 5601     		.2byte	0x156
 1040 03e9 A7040000 		.4byte	0x4a7
 1041 03ed 10       		.byte	0x10
 1042 03ee 00       		.byte	0
 1043 03ef 04       		.uleb128 0x4
 1044 03f0 84000000 		.4byte	.LASF67
 1045 03f4 09       		.byte	0x9
 1046 03f5 60       		.byte	0x60
 1047 03f6 FA030000 		.4byte	0x3fa
 1048 03fa 11       		.uleb128 0x11
 1049 03fb 5E020000 		.4byte	.LASF68
 1050 03ff 1408     		.2byte	0x814
 1051 0401 0A       		.byte	0xa
 1052 0402 7001     		.2byte	0x170
 1053 0404 3D040000 		.4byte	0x43d
 1054 0408 0B       		.uleb128 0xb
 1055 0409 F0070000 		.4byte	.LASF69
 1056 040d 0A       		.byte	0xa
 1057 040e 7801     		.2byte	0x178
 1058 0410 42070000 		.4byte	0x742
 1059 0414 00       		.byte	0
 1060 0415 0B       		.uleb128 0xb
 1061 0416 A1080000 		.4byte	.LASF70
 1062 041a 0A       		.byte	0xa
 1063 041b 7D01     		.2byte	0x17d
 1064 041d 52010000 		.4byte	0x152
 1065 0421 04       		.byte	0x4
 1066 0422 0B       		.uleb128 0xb
 1067 0423 91020000 		.4byte	.LASF71
 1068 0427 0A       		.byte	0xa
 1069 0428 8101     		.2byte	0x181
 1070 042a 52010000 		.4byte	0x152
 1071 042e 08       		.byte	0x8
 1072 042f 0B       		.uleb128 0xb
 1073 0430 3F090000 		.4byte	.LASF72
 1074 0434 0A       		.byte	0xa
 1075 0435 8701     		.2byte	0x187
ARM GAS  C:\Users\RAKIBU~1\AppData\Local\Temp\cc8iSkFL.s 			page 20


 1076 0437 64080000 		.4byte	0x864
 1077 043b 0C       		.byte	0xc
 1078 043c 00       		.byte	0
 1079 043d 04       		.uleb128 0x4
 1080 043e FF030000 		.4byte	.LASF73
 1081 0442 09       		.byte	0x9
 1082 0443 65       		.byte	0x65
 1083 0444 48040000 		.4byte	0x448
 1084 0448 11       		.uleb128 0x11
 1085 0449 BD060000 		.4byte	.LASF74
 1086 044d F008     		.2byte	0x8f0
 1087 044f 0A       		.byte	0xa
 1088 0450 9001     		.2byte	0x190
 1089 0452 A7040000 		.4byte	0x4a7
 1090 0456 0B       		.uleb128 0xb
 1091 0457 8F010000 		.4byte	.LASF75
 1092 045b 0A       		.byte	0xa
 1093 045c 9401     		.2byte	0x194
 1094 045e C3020000 		.4byte	0x2c3
 1095 0462 00       		.byte	0
 1096 0463 0B       		.uleb128 0xb
 1097 0464 9B010000 		.4byte	.LASF76
 1098 0468 0A       		.byte	0xa
 1099 0469 9801     		.2byte	0x198
 1100 046b A2030000 		.4byte	0x3a2
 1101 046f 20       		.byte	0x20
 1102 0470 0A       		.uleb128 0xa
 1103 0471 64626700 		.ascii	"dbg\000"
 1104 0475 0A       		.byte	0xa
 1105 0476 9C01     		.2byte	0x19c
 1106 0478 EF030000 		.4byte	0x3ef
 1107 047c 38       		.byte	0x38
 1108 047d 12       		.uleb128 0x12
 1109 047e 15010000 		.4byte	.LASF77
 1110 0482 0A       		.byte	0xa
 1111 0483 A001     		.2byte	0x1a0
 1112 0485 68010000 		.4byte	0x168
 1113 0489 5008     		.2byte	0x850
 1114 048b 13       		.uleb128 0x13
 1115 048c 746D00   		.ascii	"tm\000"
 1116 048f 0A       		.byte	0xa
 1117 0490 A501     		.2byte	0x1a5
 1118 0492 84080000 		.4byte	0x884
 1119 0496 B008     		.2byte	0x8b0
 1120 0498 12       		.uleb128 0x12
 1121 0499 34000000 		.4byte	.LASF78
 1122 049d 0A       		.byte	0xa
 1123 049e AB01     		.2byte	0x1ab
 1124 04a0 16090000 		.4byte	0x916
 1125 04a4 B808     		.2byte	0x8b8
 1126 04a6 00       		.byte	0
 1127 04a7 04       		.uleb128 0x4
 1128 04a8 CA070000 		.4byte	.LASF79
 1129 04ac 03       		.byte	0x3
 1130 04ad 6D       		.byte	0x6d
 1131 04ae DF000000 		.4byte	0xdf
 1132 04b2 04       		.uleb128 0x4
ARM GAS  C:\Users\RAKIBU~1\AppData\Local\Temp\cc8iSkFL.s 			page 21


 1133 04b3 9A020000 		.4byte	.LASF80
 1134 04b7 03       		.byte	0x3
 1135 04b8 77       		.byte	0x77
 1136 04b9 EF000000 		.4byte	0xef
 1137 04bd 14       		.uleb128 0x14
 1138 04be 3E010000 		.4byte	.LASF81
 1139 04c2 0B       		.byte	0xb
 1140 04c3 0408     		.2byte	0x804
 1141 04c5 DA000000 		.4byte	0xda
 1142 04c9 15       		.uleb128 0x15
 1143 04ca D9020000 		.4byte	.LASF82
 1144 04ce 0C       		.byte	0xc
 1145 04cf 4C       		.byte	0x4c
 1146 04d0 DF000000 		.4byte	0xdf
 1147 04d4 16       		.uleb128 0x16
 1148 04d5 BF000000 		.4byte	0xbf
 1149 04d9 E4040000 		.4byte	0x4e4
 1150 04dd 17       		.uleb128 0x17
 1151 04de 3E000000 		.4byte	0x3e
 1152 04e2 0F       		.byte	0xf
 1153 04e3 00       		.byte	0
 1154 04e4 05       		.uleb128 0x5
 1155 04e5 D4040000 		.4byte	0x4d4
 1156 04e9 15       		.uleb128 0x15
 1157 04ea DD070000 		.4byte	.LASF83
 1158 04ee 0C       		.byte	0xc
 1159 04ef 4E       		.byte	0x4e
 1160 04f0 E4040000 		.4byte	0x4e4
 1161 04f4 16       		.uleb128 0x16
 1162 04f5 BF000000 		.4byte	0xbf
 1163 04f9 04050000 		.4byte	0x504
 1164 04fd 17       		.uleb128 0x17
 1165 04fe 3E000000 		.4byte	0x3e
 1166 0502 07       		.byte	0x7
 1167 0503 00       		.byte	0
 1168 0504 05       		.uleb128 0x5
 1169 0505 F4040000 		.4byte	0x4f4
 1170 0509 15       		.uleb128 0x15
 1171 050a 76020000 		.4byte	.LASF84
 1172 050e 0C       		.byte	0xc
 1173 050f 4F       		.byte	0x4f
 1174 0510 04050000 		.4byte	0x504
 1175 0514 16       		.uleb128 0x16
 1176 0515 EA000000 		.4byte	0xea
 1177 0519 24050000 		.4byte	0x524
 1178 051d 17       		.uleb128 0x17
 1179 051e 3E000000 		.4byte	0x3e
 1180 0522 01       		.byte	0x1
 1181 0523 00       		.byte	0
 1182 0524 06       		.uleb128 0x6
 1183 0525 14050000 		.4byte	0x514
 1184 0529 16       		.uleb128 0x16
 1185 052a EA000000 		.4byte	0xea
 1186 052e 39050000 		.4byte	0x539
 1187 0532 17       		.uleb128 0x17
 1188 0533 3E000000 		.4byte	0x3e
 1189 0537 03       		.byte	0x3
ARM GAS  C:\Users\RAKIBU~1\AppData\Local\Temp\cc8iSkFL.s 			page 22


 1190 0538 00       		.byte	0
 1191 0539 06       		.uleb128 0x6
 1192 053a 29050000 		.4byte	0x529
 1193 053e 04       		.uleb128 0x4
 1194 053f 4C020000 		.4byte	.LASF85
 1195 0543 0D       		.byte	0xd
 1196 0544 65       		.byte	0x65
 1197 0545 46030000 		.4byte	0x346
 1198 0549 04       		.uleb128 0x4
 1199 054a 96040000 		.4byte	.LASF86
 1200 054e 0D       		.byte	0xd
 1201 054f 6D       		.byte	0x6d
 1202 0550 EF000000 		.4byte	0xef
 1203 0554 07       		.uleb128 0x7
 1204 0555 B0000000 		.4byte	.LASF87
 1205 0559 04       		.byte	0x4
 1206 055a 0D       		.byte	0xd
 1207 055b 89       		.byte	0x89
 1208 055c 6C050000 		.4byte	0x56c
 1209 0560 09       		.uleb128 0x9
 1210 0561 737000   		.ascii	"sp\000"
 1211 0564 0D       		.byte	0xd
 1212 0565 8A       		.byte	0x8a
 1213 0566 E8050000 		.4byte	0x5e8
 1214 056a 00       		.byte	0
 1215 056b 00       		.byte	0
 1216 056c 0D       		.uleb128 0xd
 1217 056d 67000000 		.4byte	.LASF88
 1218 0571 24       		.byte	0x24
 1219 0572 0E       		.byte	0xe
 1220 0573 6001     		.2byte	0x160
 1221 0575 E8050000 		.4byte	0x5e8
 1222 0579 0A       		.uleb128 0xa
 1223 057a 723400   		.ascii	"r4\000"
 1224 057d 0E       		.byte	0xe
 1225 057e 7301     		.2byte	0x173
 1226 0580 3E050000 		.4byte	0x53e
 1227 0584 00       		.byte	0
 1228 0585 0A       		.uleb128 0xa
 1229 0586 723500   		.ascii	"r5\000"
 1230 0589 0E       		.byte	0xe
 1231 058a 7401     		.2byte	0x174
 1232 058c 3E050000 		.4byte	0x53e
 1233 0590 04       		.byte	0x4
 1234 0591 0A       		.uleb128 0xa
 1235 0592 723600   		.ascii	"r6\000"
 1236 0595 0E       		.byte	0xe
 1237 0596 7501     		.2byte	0x175
 1238 0598 3E050000 		.4byte	0x53e
 1239 059c 08       		.byte	0x8
 1240 059d 0A       		.uleb128 0xa
 1241 059e 723700   		.ascii	"r7\000"
 1242 05a1 0E       		.byte	0xe
 1243 05a2 7601     		.2byte	0x176
 1244 05a4 3E050000 		.4byte	0x53e
 1245 05a8 0C       		.byte	0xc
 1246 05a9 0A       		.uleb128 0xa
ARM GAS  C:\Users\RAKIBU~1\AppData\Local\Temp\cc8iSkFL.s 			page 23


 1247 05aa 723800   		.ascii	"r8\000"
 1248 05ad 0E       		.byte	0xe
 1249 05ae 7701     		.2byte	0x177
 1250 05b0 3E050000 		.4byte	0x53e
 1251 05b4 10       		.byte	0x10
 1252 05b5 0A       		.uleb128 0xa
 1253 05b6 723900   		.ascii	"r9\000"
 1254 05b9 0E       		.byte	0xe
 1255 05ba 7801     		.2byte	0x178
 1256 05bc 3E050000 		.4byte	0x53e
 1257 05c0 14       		.byte	0x14
 1258 05c1 0A       		.uleb128 0xa
 1259 05c2 72313000 		.ascii	"r10\000"
 1260 05c6 0E       		.byte	0xe
 1261 05c7 7901     		.2byte	0x179
 1262 05c9 3E050000 		.4byte	0x53e
 1263 05cd 18       		.byte	0x18
 1264 05ce 0A       		.uleb128 0xa
 1265 05cf 72313100 		.ascii	"r11\000"
 1266 05d3 0E       		.byte	0xe
 1267 05d4 7A01     		.2byte	0x17a
 1268 05d6 3E050000 		.4byte	0x53e
 1269 05da 1C       		.byte	0x1c
 1270 05db 0A       		.uleb128 0xa
 1271 05dc 6C7200   		.ascii	"lr\000"
 1272 05df 0E       		.byte	0xe
 1273 05e0 7B01     		.2byte	0x17b
 1274 05e2 3E050000 		.4byte	0x53e
 1275 05e6 20       		.byte	0x20
 1276 05e7 00       		.byte	0
 1277 05e8 0C       		.uleb128 0xc
 1278 05e9 04       		.byte	0x4
 1279 05ea 6C050000 		.4byte	0x56c
 1280 05ee 18       		.uleb128 0x18
 1281 05ef 60       		.byte	0x60
 1282 05f0 0F       		.byte	0xf
 1283 05f1 F501     		.2byte	0x1f5
 1284 05f3 FA060000 		.4byte	0x6fa
 1285 05f7 0A       		.uleb128 0xa
 1286 05f8 43523100 		.ascii	"CR1\000"
 1287 05fc 0F       		.byte	0xf
 1288 05fd F601     		.2byte	0x1f6
 1289 05ff EA000000 		.4byte	0xea
 1290 0603 00       		.byte	0
 1291 0604 0A       		.uleb128 0xa
 1292 0605 43523200 		.ascii	"CR2\000"
 1293 0609 0F       		.byte	0xf
 1294 060a F701     		.2byte	0x1f7
 1295 060c EA000000 		.4byte	0xea
 1296 0610 04       		.byte	0x4
 1297 0611 0B       		.uleb128 0xb
 1298 0612 9E070000 		.4byte	.LASF89
 1299 0616 0F       		.byte	0xf
 1300 0617 F801     		.2byte	0x1f8
 1301 0619 EA000000 		.4byte	0xea
 1302 061d 08       		.byte	0x8
 1303 061e 0B       		.uleb128 0xb
ARM GAS  C:\Users\RAKIBU~1\AppData\Local\Temp\cc8iSkFL.s 			page 24


 1304 061f 0D000000 		.4byte	.LASF90
 1305 0623 0F       		.byte	0xf
 1306 0624 F901     		.2byte	0x1f9
 1307 0626 EA000000 		.4byte	0xea
 1308 062a 0C       		.byte	0xc
 1309 062b 0A       		.uleb128 0xa
 1310 062c 535200   		.ascii	"SR\000"
 1311 062f 0F       		.byte	0xf
 1312 0630 FA01     		.2byte	0x1fa
 1313 0632 EA000000 		.4byte	0xea
 1314 0636 10       		.byte	0x10
 1315 0637 0A       		.uleb128 0xa
 1316 0638 45475200 		.ascii	"EGR\000"
 1317 063c 0F       		.byte	0xf
 1318 063d FB01     		.2byte	0x1fb
 1319 063f EA000000 		.4byte	0xea
 1320 0643 14       		.byte	0x14
 1321 0644 0B       		.uleb128 0xb
 1322 0645 5F010000 		.4byte	.LASF91
 1323 0649 0F       		.byte	0xf
 1324 064a FC01     		.2byte	0x1fc
 1325 064c EA000000 		.4byte	0xea
 1326 0650 18       		.byte	0x18
 1327 0651 0B       		.uleb128 0xb
 1328 0652 93000000 		.4byte	.LASF92
 1329 0656 0F       		.byte	0xf
 1330 0657 FD01     		.2byte	0x1fd
 1331 0659 EA000000 		.4byte	0xea
 1332 065d 1C       		.byte	0x1c
 1333 065e 0B       		.uleb128 0xb
 1334 065f F0010000 		.4byte	.LASF93
 1335 0663 0F       		.byte	0xf
 1336 0664 FE01     		.2byte	0x1fe
 1337 0666 EA000000 		.4byte	0xea
 1338 066a 20       		.byte	0x20
 1339 066b 0A       		.uleb128 0xa
 1340 066c 434E5400 		.ascii	"CNT\000"
 1341 0670 0F       		.byte	0xf
 1342 0671 FF01     		.2byte	0x1ff
 1343 0673 EA000000 		.4byte	0xea
 1344 0677 24       		.byte	0x24
 1345 0678 0A       		.uleb128 0xa
 1346 0679 50534300 		.ascii	"PSC\000"
 1347 067d 0F       		.byte	0xf
 1348 067e 0002     		.2byte	0x200
 1349 0680 EA000000 		.4byte	0xea
 1350 0684 28       		.byte	0x28
 1351 0685 0A       		.uleb128 0xa
 1352 0686 41525200 		.ascii	"ARR\000"
 1353 068a 0F       		.byte	0xf
 1354 068b 0102     		.2byte	0x201
 1355 068d EA000000 		.4byte	0xea
 1356 0691 2C       		.byte	0x2c
 1357 0692 0A       		.uleb128 0xa
 1358 0693 52435200 		.ascii	"RCR\000"
 1359 0697 0F       		.byte	0xf
 1360 0698 0202     		.2byte	0x202
ARM GAS  C:\Users\RAKIBU~1\AppData\Local\Temp\cc8iSkFL.s 			page 25


 1361 069a EA000000 		.4byte	0xea
 1362 069e 30       		.byte	0x30
 1363 069f 0A       		.uleb128 0xa
 1364 06a0 43435200 		.ascii	"CCR\000"
 1365 06a4 0F       		.byte	0xf
 1366 06a5 0302     		.2byte	0x203
 1367 06a7 39050000 		.4byte	0x539
 1368 06ab 34       		.byte	0x34
 1369 06ac 0B       		.uleb128 0xb
 1370 06ad 52080000 		.4byte	.LASF94
 1371 06b1 0F       		.byte	0xf
 1372 06b2 0402     		.2byte	0x204
 1373 06b4 EA000000 		.4byte	0xea
 1374 06b8 44       		.byte	0x44
 1375 06b9 0A       		.uleb128 0xa
 1376 06ba 44435200 		.ascii	"DCR\000"
 1377 06be 0F       		.byte	0xf
 1378 06bf 0502     		.2byte	0x205
 1379 06c1 EA000000 		.4byte	0xea
 1380 06c5 48       		.byte	0x48
 1381 06c6 0B       		.uleb128 0xb
 1382 06c7 AC070000 		.4byte	.LASF95
 1383 06cb 0F       		.byte	0xf
 1384 06cc 0602     		.2byte	0x206
 1385 06ce EA000000 		.4byte	0xea
 1386 06d2 4C       		.byte	0x4c
 1387 06d3 0A       		.uleb128 0xa
 1388 06d4 4F5200   		.ascii	"OR\000"
 1389 06d7 0F       		.byte	0xf
 1390 06d8 0702     		.2byte	0x207
 1391 06da EA000000 		.4byte	0xea
 1392 06de 50       		.byte	0x50
 1393 06df 0B       		.uleb128 0xb
 1394 06e0 6E010000 		.4byte	.LASF96
 1395 06e4 0F       		.byte	0xf
 1396 06e5 0802     		.2byte	0x208
 1397 06e7 EA000000 		.4byte	0xea
 1398 06eb 54       		.byte	0x54
 1399 06ec 0B       		.uleb128 0xb
 1400 06ed 06070000 		.4byte	.LASF97
 1401 06f1 0F       		.byte	0xf
 1402 06f2 0902     		.2byte	0x209
 1403 06f4 24050000 		.4byte	0x524
 1404 06f8 58       		.byte	0x58
 1405 06f9 00       		.byte	0
 1406 06fa 19       		.uleb128 0x19
 1407 06fb 44040000 		.4byte	.LASF98
 1408 06ff 0F       		.byte	0xf
 1409 0700 0A02     		.2byte	0x20a
 1410 0702 EE050000 		.4byte	0x5ee
 1411 0706 1A       		.uleb128 0x1a
 1412 0707 08       		.byte	0x8
 1413 0708 10       		.byte	0x10
 1414 0709 7F       		.byte	0x7f
 1415 070a 27070000 		.4byte	0x727
 1416 070e 09       		.uleb128 0x9
 1417 070f 6E747000 		.ascii	"ntp\000"
ARM GAS  C:\Users\RAKIBU~1\AppData\Local\Temp\cc8iSkFL.s 			page 26


 1418 0713 10       		.byte	0x10
 1419 0714 83       		.byte	0x83
 1420 0715 69020000 		.4byte	0x269
 1421 0719 00       		.byte	0
 1422 071a 08       		.uleb128 0x8
 1423 071b 1A090000 		.4byte	.LASF99
 1424 071f 10       		.byte	0x10
 1425 0720 87       		.byte	0x87
 1426 0721 46030000 		.4byte	0x346
 1427 0725 04       		.byte	0x4
 1428 0726 00       		.byte	0
 1429 0727 1A       		.uleb128 0x1a
 1430 0728 04       		.byte	0x4
 1431 0729 10       		.byte	0x10
 1432 072a 8C       		.byte	0x8c
 1433 072b 3C070000 		.4byte	0x73c
 1434 072f 08       		.uleb128 0x8
 1435 0730 B8030000 		.4byte	.LASF36
 1436 0734 10       		.byte	0x10
 1437 0735 90       		.byte	0x90
 1438 0736 3C070000 		.4byte	0x73c
 1439 073a 00       		.byte	0
 1440 073b 00       		.byte	0
 1441 073c 0C       		.uleb128 0xc
 1442 073d 04       		.byte	0x4
 1443 073e 4E070000 		.4byte	0x74e
 1444 0742 06       		.uleb128 0x6
 1445 0743 3C070000 		.4byte	0x73c
 1446 0747 02       		.uleb128 0x2
 1447 0748 01       		.byte	0x1
 1448 0749 08       		.byte	0x8
 1449 074a 8E070000 		.4byte	.LASF100
 1450 074e 05       		.uleb128 0x5
 1451 074f 47070000 		.4byte	0x747
 1452 0753 1A       		.uleb128 0x1a
 1453 0754 04       		.byte	0x4
 1454 0755 10       		.byte	0x10
 1455 0756 95       		.byte	0x95
 1456 0757 68070000 		.4byte	0x768
 1457 075b 08       		.uleb128 0x8
 1458 075c E1060000 		.4byte	.LASF101
 1459 0760 10       		.byte	0x10
 1460 0761 99       		.byte	0x99
 1461 0762 3C070000 		.4byte	0x73c
 1462 0766 00       		.byte	0
 1463 0767 00       		.byte	0
 1464 0768 1A       		.uleb128 0x1a
 1465 0769 08       		.byte	0x8
 1466 076a 10       		.byte	0x10
 1467 076b 9E       		.byte	0x9e
 1468 076c 89070000 		.4byte	0x789
 1469 0770 09       		.uleb128 0x9
 1470 0771 75703100 		.ascii	"up1\000"
 1471 0775 10       		.byte	0x10
 1472 0776 A2       		.byte	0xa2
 1473 0777 46030000 		.4byte	0x346
 1474 077b 00       		.byte	0
ARM GAS  C:\Users\RAKIBU~1\AppData\Local\Temp\cc8iSkFL.s 			page 27


 1475 077c 09       		.uleb128 0x9
 1476 077d 75703200 		.ascii	"up2\000"
 1477 0781 10       		.byte	0x10
 1478 0782 A6       		.byte	0xa6
 1479 0783 46030000 		.4byte	0x346
 1480 0787 04       		.byte	0x4
 1481 0788 00       		.byte	0
 1482 0789 1B       		.uleb128 0x1b
 1483 078a 08       		.byte	0x8
 1484 078b 10       		.byte	0x10
 1485 078c 7B       		.byte	0x7b
 1486 078d BD070000 		.4byte	0x7bd
 1487 0791 1C       		.uleb128 0x1c
 1488 0792 737700   		.ascii	"sw\000"
 1489 0795 10       		.byte	0x10
 1490 0796 88       		.byte	0x88
 1491 0797 06070000 		.4byte	0x706
 1492 079b 1C       		.uleb128 0x1c
 1493 079c 69737200 		.ascii	"isr\000"
 1494 07a0 10       		.byte	0x10
 1495 07a1 91       		.byte	0x91
 1496 07a2 27070000 		.4byte	0x727
 1497 07a6 1D       		.uleb128 0x1d
 1498 07a7 B1060000 		.4byte	.LASF102
 1499 07ab 10       		.byte	0x10
 1500 07ac 9A       		.byte	0x9a
 1501 07ad 53070000 		.4byte	0x753
 1502 07b1 1D       		.uleb128 0x1d
 1503 07b2 41060000 		.4byte	.LASF103
 1504 07b6 10       		.byte	0x10
 1505 07b7 A7       		.byte	0xa7
 1506 07b8 68070000 		.4byte	0x768
 1507 07bc 00       		.byte	0
 1508 07bd 1A       		.uleb128 0x1a
 1509 07be 10       		.byte	0x10
 1510 07bf 10       		.byte	0x10
 1511 07c0 68       		.byte	0x68
 1512 07c1 09080000 		.4byte	0x809
 1513 07c5 1E       		.uleb128 0x1e
 1514 07c6 A2000000 		.4byte	.LASF104
 1515 07ca 10       		.byte	0x10
 1516 07cb 6C       		.byte	0x6c
 1517 07cc DF000000 		.4byte	0xdf
 1518 07d0 04       		.byte	0x4
 1519 07d1 03       		.byte	0x3
 1520 07d2 1D       		.byte	0x1d
 1521 07d3 00       		.byte	0
 1522 07d4 1E       		.uleb128 0x1e
 1523 07d5 A2010000 		.4byte	.LASF38
 1524 07d9 10       		.byte	0x10
 1525 07da 70       		.byte	0x70
 1526 07db DF000000 		.4byte	0xdf
 1527 07df 04       		.byte	0x4
 1528 07e0 05       		.byte	0x5
 1529 07e1 18       		.byte	0x18
 1530 07e2 00       		.byte	0
 1531 07e3 1E       		.uleb128 0x1e
ARM GAS  C:\Users\RAKIBU~1\AppData\Local\Temp\cc8iSkFL.s 			page 28


 1532 07e4 A7040000 		.4byte	.LASF105
 1533 07e8 10       		.byte	0x10
 1534 07e9 76       		.byte	0x76
 1535 07ea DF000000 		.4byte	0xdf
 1536 07ee 04       		.byte	0x4
 1537 07ef 18       		.byte	0x18
 1538 07f0 00       		.byte	0
 1539 07f1 00       		.byte	0
 1540 07f2 08       		.uleb128 0x8
 1541 07f3 D3050000 		.4byte	.LASF106
 1542 07f7 10       		.byte	0x10
 1543 07f8 7A       		.byte	0x7a
 1544 07f9 A7040000 		.4byte	0x4a7
 1545 07fd 04       		.byte	0x4
 1546 07fe 09       		.uleb128 0x9
 1547 07ff 7500     		.ascii	"u\000"
 1548 0801 10       		.byte	0x10
 1549 0802 A8       		.byte	0xa8
 1550 0803 89070000 		.4byte	0x789
 1551 0807 08       		.byte	0x8
 1552 0808 00       		.byte	0
 1553 0809 04       		.uleb128 0x4
 1554 080a CC010000 		.4byte	.LASF107
 1555 080e 10       		.byte	0x10
 1556 080f A9       		.byte	0xa9
 1557 0810 BD070000 		.4byte	0x7bd
 1558 0814 1F       		.uleb128 0x1f
 1559 0815 0808     		.2byte	0x808
 1560 0817 10       		.byte	0x10
 1561 0818 AF       		.byte	0xaf
 1562 0819 4E080000 		.4byte	0x84e
 1563 081d 08       		.uleb128 0x8
 1564 081e B1010000 		.4byte	.LASF108
 1565 0822 10       		.byte	0x10
 1566 0823 B3       		.byte	0xb3
 1567 0824 C4000000 		.4byte	0xc4
 1568 0828 00       		.byte	0
 1569 0829 08       		.uleb128 0x8
 1570 082a 21090000 		.4byte	.LASF109
 1571 082e 10       		.byte	0x10
 1572 082f B7       		.byte	0xb7
 1573 0830 C4000000 		.4byte	0xc4
 1574 0834 02       		.byte	0x2
 1575 0835 09       		.uleb128 0x9
 1576 0836 70747200 		.ascii	"ptr\000"
 1577 083a 10       		.byte	0x10
 1578 083b BB       		.byte	0xbb
 1579 083c 4E080000 		.4byte	0x84e
 1580 0840 04       		.byte	0x4
 1581 0841 08       		.uleb128 0x8
 1582 0842 22020000 		.4byte	.LASF110
 1583 0846 10       		.byte	0x10
 1584 0847 BF       		.byte	0xbf
 1585 0848 54080000 		.4byte	0x854
 1586 084c 08       		.byte	0x8
 1587 084d 00       		.byte	0
 1588 084e 0C       		.uleb128 0xc
ARM GAS  C:\Users\RAKIBU~1\AppData\Local\Temp\cc8iSkFL.s 			page 29


 1589 084f 04       		.byte	0x4
 1590 0850 09080000 		.4byte	0x809
 1591 0854 16       		.uleb128 0x16
 1592 0855 09080000 		.4byte	0x809
 1593 0859 64080000 		.4byte	0x864
 1594 085d 17       		.uleb128 0x17
 1595 085e 3E000000 		.4byte	0x3e
 1596 0862 7F       		.byte	0x7f
 1597 0863 00       		.byte	0
 1598 0864 04       		.uleb128 0x4
 1599 0865 ED000000 		.4byte	.LASF111
 1600 0869 10       		.byte	0x10
 1601 086a C0       		.byte	0xc0
 1602 086b 14080000 		.4byte	0x814
 1603 086f 1A       		.uleb128 0x1a
 1604 0870 04       		.byte	0x4
 1605 0871 11       		.byte	0x11
 1606 0872 38       		.byte	0x38
 1607 0873 84080000 		.4byte	0x884
 1608 0877 08       		.uleb128 0x8
 1609 0878 FA070000 		.4byte	.LASF112
 1610 087c 11       		.byte	0x11
 1611 087d 3C       		.byte	0x3c
 1612 087e FA000000 		.4byte	0xfa
 1613 0882 00       		.byte	0
 1614 0883 00       		.byte	0
 1615 0884 04       		.uleb128 0x4
 1616 0885 2D050000 		.4byte	.LASF113
 1617 0889 11       		.byte	0x11
 1618 088a 3D       		.byte	0x3d
 1619 088b 6F080000 		.4byte	0x86f
 1620 088f 1A       		.uleb128 0x1a
 1621 0890 18       		.byte	0x18
 1622 0891 11       		.byte	0x11
 1623 0892 48       		.byte	0x48
 1624 0893 D2080000 		.4byte	0x8d2
 1625 0897 08       		.uleb128 0x8
 1626 0898 BA070000 		.4byte	.LASF114
 1627 089c 11       		.byte	0x11
 1628 089d 49       		.byte	0x49
 1629 089e FA000000 		.4byte	0xfa
 1630 08a2 00       		.byte	0
 1631 08a3 08       		.uleb128 0x8
 1632 08a4 BD000000 		.4byte	.LASF115
 1633 08a8 11       		.byte	0x11
 1634 08a9 4A       		.byte	0x4a
 1635 08aa FA000000 		.4byte	0xfa
 1636 08ae 04       		.byte	0x4
 1637 08af 08       		.uleb128 0x8
 1638 08b0 EB070000 		.4byte	.LASF116
 1639 08b4 11       		.byte	0x11
 1640 08b5 4B       		.byte	0x4b
 1641 08b6 FA000000 		.4byte	0xfa
 1642 08ba 08       		.byte	0x8
 1643 08bb 09       		.uleb128 0x9
 1644 08bc 6E00     		.ascii	"n\000"
 1645 08be 11       		.byte	0x11
ARM GAS  C:\Users\RAKIBU~1\AppData\Local\Temp\cc8iSkFL.s 			page 30


 1646 08bf 4C       		.byte	0x4c
 1647 08c0 5D010000 		.4byte	0x15d
 1648 08c4 0C       		.byte	0xc
 1649 08c5 08       		.uleb128 0x8
 1650 08c6 0E060000 		.4byte	.LASF117
 1651 08ca 11       		.byte	0x11
 1652 08cb 4D       		.byte	0x4d
 1653 08cc 05010000 		.4byte	0x105
 1654 08d0 10       		.byte	0x10
 1655 08d1 00       		.byte	0
 1656 08d2 04       		.uleb128 0x4
 1657 08d3 C3000000 		.4byte	.LASF118
 1658 08d7 11       		.byte	0x11
 1659 08d8 4E       		.byte	0x4e
 1660 08d9 8F080000 		.4byte	0x88f
 1661 08dd 1A       		.uleb128 0x1a
 1662 08de 38       		.byte	0x38
 1663 08df 12       		.byte	0x12
 1664 08e0 38       		.byte	0x38
 1665 08e1 16090000 		.4byte	0x916
 1666 08e5 08       		.uleb128 0x8
 1667 08e6 18030000 		.4byte	.LASF119
 1668 08ea 12       		.byte	0x12
 1669 08eb 39       		.byte	0x39
 1670 08ec 5D010000 		.4byte	0x15d
 1671 08f0 00       		.byte	0
 1672 08f1 08       		.uleb128 0x8
 1673 08f2 57060000 		.4byte	.LASF120
 1674 08f6 12       		.byte	0x12
 1675 08f7 3A       		.byte	0x3a
 1676 08f8 5D010000 		.4byte	0x15d
 1677 08fc 04       		.byte	0x4
 1678 08fd 08       		.uleb128 0x8
 1679 08fe 70090000 		.4byte	.LASF121
 1680 0902 12       		.byte	0x12
 1681 0903 3B       		.byte	0x3b
 1682 0904 D2080000 		.4byte	0x8d2
 1683 0908 08       		.byte	0x8
 1684 0909 08       		.uleb128 0x8
 1685 090a 58040000 		.4byte	.LASF122
 1686 090e 12       		.byte	0x12
 1687 090f 3D       		.byte	0x3d
 1688 0910 D2080000 		.4byte	0x8d2
 1689 0914 20       		.byte	0x20
 1690 0915 00       		.byte	0
 1691 0916 04       		.uleb128 0x4
 1692 0917 A9030000 		.4byte	.LASF123
 1693 091b 12       		.byte	0x12
 1694 091c 3F       		.byte	0x3f
 1695 091d DD080000 		.4byte	0x8dd
 1696 0921 1B       		.uleb128 0x1b
 1697 0922 04       		.byte	0x4
 1698 0923 0A       		.byte	0xa
 1699 0924 C6       		.byte	0xc6
 1700 0925 83090000 		.4byte	0x983
 1701 0929 1D       		.uleb128 0x1d
 1702 092a 24000000 		.4byte	.LASF124
ARM GAS  C:\Users\RAKIBU~1\AppData\Local\Temp\cc8iSkFL.s 			page 31


 1703 092e 0A       		.byte	0xa
 1704 092f CD       		.byte	0xcd
 1705 0930 3C010000 		.4byte	0x13c
 1706 0934 1D       		.uleb128 0x1d
 1707 0935 0C010000 		.4byte	.LASF125
 1708 0939 0A       		.byte	0xa
 1709 093a D4       		.byte	0xd4
 1710 093b 3C010000 		.4byte	0x13c
 1711 093f 1D       		.uleb128 0x1d
 1712 0940 1A090000 		.4byte	.LASF99
 1713 0944 0A       		.byte	0xa
 1714 0945 DB       		.byte	0xdb
 1715 0946 46030000 		.4byte	0x346
 1716 094a 1D       		.uleb128 0x1d
 1717 094b F0020000 		.4byte	.LASF126
 1718 094f 0A       		.byte	0xa
 1719 0950 E2       		.byte	0xe2
 1720 0951 83090000 		.4byte	0x983
 1721 0955 1D       		.uleb128 0x1d
 1722 0956 20010000 		.4byte	.LASF127
 1723 095a 0A       		.byte	0xa
 1724 095b E7       		.byte	0xe7
 1725 095c 3C010000 		.4byte	0x13c
 1726 0960 1D       		.uleb128 0x1d
 1727 0961 E9020000 		.4byte	.LASF128
 1728 0965 0A       		.byte	0xa
 1729 0966 F0       		.byte	0xf0
 1730 0967 AE090000 		.4byte	0x9ae
 1731 096b 1D       		.uleb128 0x1d
 1732 096c 4C070000 		.4byte	.LASF129
 1733 0970 0A       		.byte	0xa
 1734 0971 F9       		.byte	0xf9
 1735 0972 E5090000 		.4byte	0x9e5
 1736 0976 20       		.uleb128 0x20
 1737 0977 B6060000 		.4byte	.LASF130
 1738 097b 0A       		.byte	0xa
 1739 097c 0101     		.2byte	0x101
 1740 097e 47010000 		.4byte	0x147
 1741 0982 00       		.byte	0
 1742 0983 0C       		.uleb128 0xc
 1743 0984 04       		.byte	0x4
 1744 0985 5E020000 		.4byte	0x25e
 1745 0989 07       		.uleb128 0x7
 1746 098a F9060000 		.4byte	.LASF131
 1747 098e 0C       		.byte	0xc
 1748 098f 13       		.byte	0x13
 1749 0990 34       		.byte	0x34
 1750 0991 AE090000 		.4byte	0x9ae
 1751 0995 08       		.uleb128 0x8
 1752 0996 1E030000 		.4byte	.LASF32
 1753 099a 13       		.byte	0x13
 1754 099b 35       		.byte	0x35
 1755 099c 93020000 		.4byte	0x293
 1756 09a0 00       		.byte	0
 1757 09a1 09       		.uleb128 0x9
 1758 09a2 636E7400 		.ascii	"cnt\000"
 1759 09a6 13       		.byte	0x13
ARM GAS  C:\Users\RAKIBU~1\AppData\Local\Temp\cc8iSkFL.s 			page 32


 1760 09a7 37       		.byte	0x37
 1761 09a8 52010000 		.4byte	0x152
 1762 09ac 08       		.byte	0x8
 1763 09ad 00       		.byte	0
 1764 09ae 0C       		.uleb128 0xc
 1765 09af 04       		.byte	0x4
 1766 09b0 89090000 		.4byte	0x989
 1767 09b4 07       		.uleb128 0x7
 1768 09b5 8F060000 		.4byte	.LASF132
 1769 09b9 10       		.byte	0x10
 1770 09ba 14       		.byte	0x14
 1771 09bb 39       		.byte	0x39
 1772 09bc E5090000 		.4byte	0x9e5
 1773 09c0 08       		.uleb128 0x8
 1774 09c1 1E030000 		.4byte	.LASF32
 1775 09c5 14       		.byte	0x14
 1776 09c6 3A       		.byte	0x3a
 1777 09c7 93020000 		.4byte	0x293
 1778 09cb 00       		.byte	0
 1779 09cc 08       		.uleb128 0x8
 1780 09cd 63070000 		.4byte	.LASF133
 1781 09d1 14       		.byte	0x14
 1782 09d2 3C       		.byte	0x3c
 1783 09d3 69020000 		.4byte	0x269
 1784 09d7 08       		.byte	0x8
 1785 09d8 08       		.uleb128 0x8
 1786 09d9 19000000 		.4byte	.LASF52
 1787 09dd 14       		.byte	0x14
 1788 09de 3E       		.byte	0x3e
 1789 09df 300B0000 		.4byte	0xb30
 1790 09e3 0C       		.byte	0xc
 1791 09e4 00       		.byte	0
 1792 09e5 0C       		.uleb128 0xc
 1793 09e6 04       		.byte	0x4
 1794 09e7 B4090000 		.4byte	0x9b4
 1795 09eb 0C       		.uleb128 0xc
 1796 09ec 04       		.byte	0x4
 1797 09ed 49050000 		.4byte	0x549
 1798 09f1 0C       		.uleb128 0xc
 1799 09f2 04       		.byte	0x4
 1800 09f3 48030000 		.4byte	0x348
 1801 09f7 21       		.uleb128 0x21
 1802 09f8 636800   		.ascii	"ch\000"
 1803 09fb 0A       		.byte	0xa
 1804 09fc C701     		.2byte	0x1c7
 1805 09fe 3D040000 		.4byte	0x43d
 1806 0a02 16       		.uleb128 0x16
 1807 0a03 49050000 		.4byte	0x549
 1808 0a07 0D0A0000 		.4byte	0xa0d
 1809 0a0b 22       		.uleb128 0x22
 1810 0a0c 00       		.byte	0
 1811 0a0d 14       		.uleb128 0x14
 1812 0a0e 0B070000 		.4byte	.LASF134
 1813 0a12 15       		.byte	0x15
 1814 0a13 1701     		.2byte	0x117
 1815 0a15 020A0000 		.4byte	0xa02
 1816 0a19 1A       		.uleb128 0x1a
ARM GAS  C:\Users\RAKIBU~1\AppData\Local\Temp\cc8iSkFL.s 			page 33


 1817 0a1a 16       		.byte	0x16
 1818 0a1b 16       		.byte	0x16
 1819 0a1c 34       		.byte	0x34
 1820 0a1d FA0A0000 		.4byte	0xafa
 1821 0a21 08       		.uleb128 0x8
 1822 0a22 41000000 		.4byte	.LASF135
 1823 0a26 16       		.byte	0x16
 1824 0a27 35       		.byte	0x35
 1825 0a28 FA0A0000 		.4byte	0xafa
 1826 0a2c 00       		.byte	0
 1827 0a2d 08       		.uleb128 0x8
 1828 0a2e 84020000 		.4byte	.LASF136
 1829 0a32 16       		.byte	0x16
 1830 0a33 36       		.byte	0x36
 1831 0a34 B4000000 		.4byte	0xb4
 1832 0a38 04       		.byte	0x4
 1833 0a39 08       		.uleb128 0x8
 1834 0a3a 21090000 		.4byte	.LASF109
 1835 0a3e 16       		.byte	0x16
 1836 0a3f 37       		.byte	0x37
 1837 0a40 B4000000 		.4byte	0xb4
 1838 0a44 05       		.byte	0x5
 1839 0a45 08       		.uleb128 0x8
 1840 0a46 C1040000 		.4byte	.LASF137
 1841 0a4a 16       		.byte	0x16
 1842 0a4b 38       		.byte	0x38
 1843 0a4c C4000000 		.4byte	0xc4
 1844 0a50 06       		.byte	0x6
 1845 0a51 08       		.uleb128 0x8
 1846 0a52 6A080000 		.4byte	.LASF138
 1847 0a56 16       		.byte	0x16
 1848 0a57 39       		.byte	0x39
 1849 0a58 B4000000 		.4byte	0xb4
 1850 0a5c 08       		.byte	0x8
 1851 0a5d 08       		.uleb128 0x8
 1852 0a5e 1D070000 		.4byte	.LASF139
 1853 0a62 16       		.byte	0x16
 1854 0a63 3A       		.byte	0x3a
 1855 0a64 B4000000 		.4byte	0xb4
 1856 0a68 09       		.byte	0x9
 1857 0a69 08       		.uleb128 0x8
 1858 0a6a 21060000 		.4byte	.LASF140
 1859 0a6e 16       		.byte	0x16
 1860 0a6f 3B       		.byte	0x3b
 1861 0a70 B4000000 		.4byte	0xb4
 1862 0a74 0A       		.byte	0xa
 1863 0a75 08       		.uleb128 0x8
 1864 0a76 7C060000 		.4byte	.LASF141
 1865 0a7a 16       		.byte	0x16
 1866 0a7b 3C       		.byte	0x3c
 1867 0a7c B4000000 		.4byte	0xb4
 1868 0a80 0B       		.byte	0xb
 1869 0a81 08       		.uleb128 0x8
 1870 0a82 0B040000 		.4byte	.LASF142
 1871 0a86 16       		.byte	0x16
 1872 0a87 3D       		.byte	0x3d
 1873 0a88 B4000000 		.4byte	0xb4
ARM GAS  C:\Users\RAKIBU~1\AppData\Local\Temp\cc8iSkFL.s 			page 34


 1874 0a8c 0C       		.byte	0xc
 1875 0a8d 08       		.uleb128 0x8
 1876 0a8e 18050000 		.4byte	.LASF143
 1877 0a92 16       		.byte	0x16
 1878 0a93 3E       		.byte	0x3e
 1879 0a94 B4000000 		.4byte	0xb4
 1880 0a98 0D       		.byte	0xd
 1881 0a99 08       		.uleb128 0x8
 1882 0a9a 0E080000 		.4byte	.LASF144
 1883 0a9e 16       		.byte	0x16
 1884 0a9f 3F       		.byte	0x3f
 1885 0aa0 B4000000 		.4byte	0xb4
 1886 0aa4 0E       		.byte	0xe
 1887 0aa5 08       		.uleb128 0x8
 1888 0aa6 B5080000 		.4byte	.LASF145
 1889 0aaa 16       		.byte	0x16
 1890 0aab 40       		.byte	0x40
 1891 0aac B4000000 		.4byte	0xb4
 1892 0ab0 0F       		.byte	0xf
 1893 0ab1 08       		.uleb128 0x8
 1894 0ab2 C9080000 		.4byte	.LASF146
 1895 0ab6 16       		.byte	0x16
 1896 0ab7 41       		.byte	0x41
 1897 0ab8 B4000000 		.4byte	0xb4
 1898 0abc 10       		.byte	0x10
 1899 0abd 08       		.uleb128 0x8
 1900 0abe 35090000 		.4byte	.LASF147
 1901 0ac2 16       		.byte	0x16
 1902 0ac3 42       		.byte	0x42
 1903 0ac4 B4000000 		.4byte	0xb4
 1904 0ac8 11       		.byte	0x11
 1905 0ac9 08       		.uleb128 0x8
 1906 0aca 5E090000 		.4byte	.LASF148
 1907 0ace 16       		.byte	0x16
 1908 0acf 43       		.byte	0x43
 1909 0ad0 B4000000 		.4byte	0xb4
 1910 0ad4 12       		.byte	0x12
 1911 0ad5 08       		.uleb128 0x8
 1912 0ad6 2F020000 		.4byte	.LASF149
 1913 0ada 16       		.byte	0x16
 1914 0adb 44       		.byte	0x44
 1915 0adc B4000000 		.4byte	0xb4
 1916 0ae0 13       		.byte	0x13
 1917 0ae1 08       		.uleb128 0x8
 1918 0ae2 16020000 		.4byte	.LASF150
 1919 0ae6 16       		.byte	0x16
 1920 0ae7 45       		.byte	0x45
 1921 0ae8 B4000000 		.4byte	0xb4
 1922 0aec 14       		.byte	0x14
 1923 0aed 08       		.uleb128 0x8
 1924 0aee AF040000 		.4byte	.LASF151
 1925 0af2 16       		.byte	0x16
 1926 0af3 46       		.byte	0x46
 1927 0af4 B4000000 		.4byte	0xb4
 1928 0af8 15       		.byte	0x15
 1929 0af9 00       		.byte	0
 1930 0afa 16       		.uleb128 0x16
ARM GAS  C:\Users\RAKIBU~1\AppData\Local\Temp\cc8iSkFL.s 			page 35


 1931 0afb 47070000 		.4byte	0x747
 1932 0aff 0A0B0000 		.4byte	0xb0a
 1933 0b03 17       		.uleb128 0x17
 1934 0b04 3E000000 		.4byte	0x3e
 1935 0b08 03       		.byte	0x3
 1936 0b09 00       		.byte	0
 1937 0b0a 04       		.uleb128 0x4
 1938 0b0b 0C020000 		.4byte	.LASF152
 1939 0b0f 16       		.byte	0x16
 1940 0b10 47       		.byte	0x47
 1941 0b11 190A0000 		.4byte	0xa19
 1942 0b15 05       		.uleb128 0x5
 1943 0b16 0A0B0000 		.4byte	0xb0a
 1944 0b1a 15       		.uleb128 0x15
 1945 0b1b F6020000 		.4byte	.LASF153
 1946 0b1f 16       		.byte	0x16
 1947 0b20 6C       		.byte	0x6c
 1948 0b21 150B0000 		.4byte	0xb15
 1949 0b25 04       		.uleb128 0x4
 1950 0b26 89020000 		.4byte	.LASF154
 1951 0b2a 14       		.byte	0x14
 1952 0b2b 34       		.byte	0x34
 1953 0b2c B4090000 		.4byte	0x9b4
 1954 0b30 0C       		.uleb128 0xc
 1955 0b31 04       		.byte	0x4
 1956 0b32 250B0000 		.4byte	0xb25
 1957 0b36 02       		.uleb128 0x2
 1958 0b37 01       		.byte	0x1
 1959 0b38 02       		.byte	0x2
 1960 0b39 60060000 		.4byte	.LASF155
 1961 0b3d 04       		.uleb128 0x4
 1962 0b3e 45080000 		.4byte	.LASF156
 1963 0b42 17       		.byte	0x17
 1964 0b43 47       		.byte	0x47
 1965 0b44 480B0000 		.4byte	0xb48
 1966 0b48 0C       		.uleb128 0xc
 1967 0b49 04       		.byte	0x4
 1968 0b4a 4E0B0000 		.4byte	0xb4e
 1969 0b4e 23       		.uleb128 0x23
 1970 0b4f 46030000 		.4byte	0x346
 1971 0b53 620B0000 		.4byte	0xb62
 1972 0b57 0F       		.uleb128 0xf
 1973 0b58 33000000 		.4byte	0x33
 1974 0b5c 0F       		.uleb128 0xf
 1975 0b5d 3E000000 		.4byte	0x3e
 1976 0b61 00       		.byte	0
 1977 0b62 1A       		.uleb128 0x1a
 1978 0b63 08       		.byte	0x8
 1979 0b64 17       		.byte	0x17
 1980 0b65 51       		.byte	0x51
 1981 0b66 830B0000 		.4byte	0xb83
 1982 0b6a 08       		.uleb128 0x8
 1983 0b6b 7B090000 		.4byte	.LASF157
 1984 0b6f 17       		.byte	0x17
 1985 0b70 55       		.byte	0x55
 1986 0b71 830B0000 		.4byte	0xb83
 1987 0b75 00       		.byte	0
ARM GAS  C:\Users\RAKIBU~1\AppData\Local\Temp\cc8iSkFL.s 			page 36


 1988 0b76 08       		.uleb128 0x8
 1989 0b77 7C040000 		.4byte	.LASF158
 1990 0b7b 17       		.byte	0x17
 1991 0b7c 59       		.byte	0x59
 1992 0b7d 830B0000 		.4byte	0xb83
 1993 0b81 04       		.byte	0x4
 1994 0b82 00       		.byte	0
 1995 0b83 0C       		.uleb128 0xc
 1996 0b84 04       		.byte	0x4
 1997 0b85 B4000000 		.4byte	0xb4
 1998 0b89 04       		.uleb128 0x4
 1999 0b8a 04060000 		.4byte	.LASF159
 2000 0b8e 17       		.byte	0x17
 2001 0b8f 5A       		.byte	0x5a
 2002 0b90 620B0000 		.4byte	0xb62
 2003 0b94 15       		.uleb128 0x15
 2004 0b95 BF070000 		.4byte	.LASF160
 2005 0b99 17       		.byte	0x17
 2006 0b9a 65       		.byte	0x65
 2007 0b9b 890B0000 		.4byte	0xb89
 2008 0b9f 07       		.uleb128 0x7
 2009 0ba0 95080000 		.4byte	.LASF161
 2010 0ba4 04       		.byte	0x4
 2011 0ba5 18       		.byte	0x18
 2012 0ba6 38       		.byte	0x38
 2013 0ba7 B80B0000 		.4byte	0xbb8
 2014 0bab 08       		.uleb128 0x8
 2015 0bac 19000000 		.4byte	.LASF52
 2016 0bb0 18       		.byte	0x18
 2017 0bb1 39       		.byte	0x39
 2018 0bb2 B80B0000 		.4byte	0xbb8
 2019 0bb6 00       		.byte	0
 2020 0bb7 00       		.byte	0
 2021 0bb8 0C       		.uleb128 0xc
 2022 0bb9 04       		.byte	0x4
 2023 0bba 9F0B0000 		.4byte	0xb9f
 2024 0bbe 1A       		.uleb128 0x1a
 2025 0bbf 10       		.byte	0x10
 2026 0bc0 18       		.byte	0x18
 2027 0bc1 40       		.byte	0x40
 2028 0bc2 F70B0000 		.4byte	0xbf7
 2029 0bc6 08       		.uleb128 0x8
 2030 0bc7 19000000 		.4byte	.LASF52
 2031 0bcb 18       		.byte	0x18
 2032 0bcc 41       		.byte	0x41
 2033 0bcd B80B0000 		.4byte	0xbb8
 2034 0bd1 00       		.byte	0
 2035 0bd2 08       		.uleb128 0x8
 2036 0bd3 57080000 		.4byte	.LASF162
 2037 0bd7 18       		.byte	0x18
 2038 0bd8 42       		.byte	0x42
 2039 0bd9 33000000 		.4byte	0x33
 2040 0bdd 04       		.byte	0x4
 2041 0bde 08       		.uleb128 0x8
 2042 0bdf 50010000 		.4byte	.LASF163
 2043 0be3 18       		.byte	0x18
 2044 0be4 44       		.byte	0x44
ARM GAS  C:\Users\RAKIBU~1\AppData\Local\Temp\cc8iSkFL.s 			page 37


 2045 0be5 3E000000 		.4byte	0x3e
 2046 0be9 08       		.byte	0x8
 2047 0bea 08       		.uleb128 0x8
 2048 0beb 99000000 		.4byte	.LASF164
 2049 0bef 18       		.byte	0x18
 2050 0bf0 45       		.byte	0x45
 2051 0bf1 3D0B0000 		.4byte	0xb3d
 2052 0bf5 0C       		.byte	0xc
 2053 0bf6 00       		.byte	0
 2054 0bf7 04       		.uleb128 0x4
 2055 0bf8 0A030000 		.4byte	.LASF165
 2056 0bfc 18       		.byte	0x18
 2057 0bfd 47       		.byte	0x47
 2058 0bfe BE0B0000 		.4byte	0xbbe
 2059 0c02 07       		.uleb128 0x7
 2060 0c03 80010000 		.4byte	.LASF166
 2061 0c07 10       		.byte	0x10
 2062 0c08 19       		.byte	0x19
 2063 0c09 A9       		.byte	0xa9
 2064 0c0a 330C0000 		.4byte	0xc33
 2065 0c0e 08       		.uleb128 0x8
 2066 0c0f 19000000 		.4byte	.LASF52
 2067 0c13 19       		.byte	0x19
 2068 0c14 AD       		.byte	0xad
 2069 0c15 330C0000 		.4byte	0xc33
 2070 0c19 00       		.byte	0
 2071 0c1a 08       		.uleb128 0x8
 2072 0c1b 2C060000 		.4byte	.LASF40
 2073 0c1f 19       		.byte	0x19
 2074 0c20 B1       		.byte	0xb1
 2075 0c21 5D010000 		.4byte	0x15d
 2076 0c25 04       		.byte	0x4
 2077 0c26 08       		.uleb128 0x8
 2078 0c27 B8030000 		.4byte	.LASF36
 2079 0c2b 19       		.byte	0x19
 2080 0c2c B3       		.byte	0xb3
 2081 0c2d 390C0000 		.4byte	0xc39
 2082 0c31 08       		.byte	0x8
 2083 0c32 00       		.byte	0
 2084 0c33 0C       		.uleb128 0xc
 2085 0c34 04       		.byte	0x4
 2086 0c35 020C0000 		.4byte	0xc02
 2087 0c39 16       		.uleb128 0x16
 2088 0c3a 47070000 		.4byte	0x747
 2089 0c3e 490C0000 		.4byte	0xc49
 2090 0c42 17       		.uleb128 0x17
 2091 0c43 3E000000 		.4byte	0x3e
 2092 0c47 07       		.byte	0x7
 2093 0c48 00       		.byte	0
 2094 0c49 04       		.uleb128 0x4
 2095 0c4a DB040000 		.4byte	.LASF167
 2096 0c4e 19       		.byte	0x19
 2097 0c4f B7       		.byte	0xb7
 2098 0c50 020C0000 		.4byte	0xc02
 2099 0c54 07       		.uleb128 0x7
 2100 0c55 0C050000 		.4byte	.LASF168
 2101 0c59 04       		.byte	0x4
ARM GAS  C:\Users\RAKIBU~1\AppData\Local\Temp\cc8iSkFL.s 			page 38


 2102 0c5a 19       		.byte	0x19
 2103 0c5b BC       		.byte	0xbc
 2104 0c5c 6D0C0000 		.4byte	0xc6d
 2105 0c60 08       		.uleb128 0x8
 2106 0c61 19000000 		.4byte	.LASF52
 2107 0c65 19       		.byte	0x19
 2108 0c66 BD       		.byte	0xbd
 2109 0c67 6D0C0000 		.4byte	0xc6d
 2110 0c6b 00       		.byte	0
 2111 0c6c 00       		.byte	0
 2112 0c6d 0C       		.uleb128 0xc
 2113 0c6e 04       		.byte	0x4
 2114 0c6f 490C0000 		.4byte	0xc49
 2115 0c73 04       		.uleb128 0x4
 2116 0c74 22050000 		.4byte	.LASF169
 2117 0c78 19       		.byte	0x19
 2118 0c79 BE       		.byte	0xbe
 2119 0c7a 540C0000 		.4byte	0xc54
 2120 0c7e 0D       		.uleb128 0xd
 2121 0c7f 72080000 		.4byte	.LASF170
 2122 0c83 48       		.byte	0x48
 2123 0c84 19       		.byte	0x19
 2124 0c85 3E01     		.2byte	0x13e
 2125 0c87 010D0000 		.4byte	0xd01
 2126 0c8b 0A       		.uleb128 0xa
 2127 0c8c 6D747800 		.ascii	"mtx\000"
 2128 0c90 19       		.byte	0x19
 2129 0c91 4301     		.2byte	0x143
 2130 0c93 250B0000 		.4byte	0xb25
 2131 0c97 00       		.byte	0
 2132 0c98 0B       		.uleb128 0xb
 2133 0c99 A3070000 		.4byte	.LASF171
 2134 0c9d 19       		.byte	0x19
 2135 0c9e 4A01     		.2byte	0x14a
 2136 0ca0 730C0000 		.4byte	0xc73
 2137 0ca4 10       		.byte	0x10
 2138 0ca5 0B       		.uleb128 0xb
 2139 0ca6 D8060000 		.4byte	.LASF172
 2140 0caa 19       		.byte	0x19
 2141 0cab 4E01     		.2byte	0x14e
 2142 0cad F70B0000 		.4byte	0xbf7
 2143 0cb1 14       		.byte	0x14
 2144 0cb2 0B       		.uleb128 0xb
 2145 0cb3 4E060000 		.4byte	.LASF173
 2146 0cb7 19       		.byte	0x19
 2147 0cb8 5301     		.2byte	0x153
 2148 0cba 730C0000 		.4byte	0xc73
 2149 0cbe 24       		.byte	0x24
 2150 0cbf 0B       		.uleb128 0xb
 2151 0cc0 A7000000 		.4byte	.LASF174
 2152 0cc4 19       		.byte	0x19
 2153 0cc5 5901     		.2byte	0x159
 2154 0cc7 730C0000 		.4byte	0xc73
 2155 0ccb 28       		.byte	0x28
 2156 0ccc 0B       		.uleb128 0xb
 2157 0ccd DD050000 		.4byte	.LASF175
 2158 0cd1 19       		.byte	0x19
ARM GAS  C:\Users\RAKIBU~1\AppData\Local\Temp\cc8iSkFL.s 			page 39


 2159 0cd2 5D01     		.2byte	0x15d
 2160 0cd4 F70B0000 		.4byte	0xbf7
 2161 0cd8 2C       		.byte	0x2c
 2162 0cd9 0B       		.uleb128 0xb
 2163 0cda 55020000 		.4byte	.LASF176
 2164 0cde 19       		.byte	0x19
 2165 0cdf 6301     		.2byte	0x163
 2166 0ce1 730C0000 		.4byte	0xc73
 2167 0ce5 3C       		.byte	0x3c
 2168 0ce6 0B       		.uleb128 0xb
 2169 0ce7 85060000 		.4byte	.LASF177
 2170 0ceb 19       		.byte	0x19
 2171 0cec 6901     		.2byte	0x169
 2172 0cee 730C0000 		.4byte	0xc73
 2173 0cf2 40       		.byte	0x40
 2174 0cf3 0B       		.uleb128 0xb
 2175 0cf4 39070000 		.4byte	.LASF178
 2176 0cf8 19       		.byte	0x19
 2177 0cf9 6F01     		.2byte	0x16f
 2178 0cfb 730C0000 		.4byte	0xc73
 2179 0cff 44       		.byte	0x44
 2180 0d00 00       		.byte	0
 2181 0d01 19       		.uleb128 0x19
 2182 0d02 4C090000 		.4byte	.LASF179
 2183 0d06 19       		.byte	0x19
 2184 0d07 7101     		.2byte	0x171
 2185 0d09 7E0C0000 		.4byte	0xc7e
 2186 0d0d 14       		.uleb128 0x14
 2187 0d0e FF020000 		.4byte	.LASF180
 2188 0d12 19       		.byte	0x19
 2189 0d13 7C01     		.2byte	0x17c
 2190 0d15 010D0000 		.4byte	0xd01
 2191 0d19 24       		.uleb128 0x24
 2192 0d1a FF000000 		.4byte	.LASF183
 2193 0d1e 01       		.byte	0x1
 2194 0d1f D3       		.byte	0xd3
 2195 0d20 50010000 		.4byte	.LFB297
 2196 0d24 E8000000 		.4byte	.LFE297-.LFB297
 2197 0d28 01       		.uleb128 0x1
 2198 0d29 9C       		.byte	0x9c
 2199 0d2a 800E0000 		.4byte	0xe80
 2200 0d2e 25       		.uleb128 0x25
 2201 0d2f 76747000 		.ascii	"vtp\000"
 2202 0d33 01       		.byte	0x1
 2203 0d34 D3       		.byte	0xd3
 2204 0d35 F1090000 		.4byte	0x9f1
 2205 0d39 00000000 		.4byte	.LLST9
 2206 0d3d 26       		.uleb128 0x26
 2207 0d3e CF060000 		.4byte	.LASF181
 2208 0d42 900E0000 		.4byte	0xe90
 2209 0d46 05       		.uleb128 0x5
 2210 0d47 03       		.byte	0x3
 2211 0d48 0C000000 		.4byte	__func__.7123
 2212 0d4c 27       		.uleb128 0x27
 2213 0d4d C1020000 		.4byte	.LASF182
 2214 0d51 01       		.byte	0x1
 2215 0d52 E7       		.byte	0xe7
ARM GAS  C:\Users\RAKIBU~1\AppData\Local\Temp\cc8iSkFL.s 			page 40


 2216 0d53 B2040000 		.4byte	0x4b2
 2217 0d57 28       		.uleb128 0x28
 2218 0d58 1E000000 		.4byte	.LASF62
 2219 0d5c 01       		.byte	0x1
 2220 0d5d E7       		.byte	0xe7
 2221 0d5e B2040000 		.4byte	0x4b2
 2222 0d62 5E000000 		.4byte	.LLST10
 2223 0d66 29       		.uleb128 0x29
 2224 0d67 36100000 		.4byte	0x1036
 2225 0d6b CE010000 		.4byte	.LBB52
 2226 0d6f 06000000 		.4byte	.LBE52-.LBB52
 2227 0d73 01       		.byte	0x1
 2228 0d74 0E01     		.2byte	0x10e
 2229 0d76 9A0D0000 		.4byte	0xd9a
 2230 0d7a 2A       		.uleb128 0x2a
 2231 0d7b 42100000 		.4byte	0x1042
 2232 0d7f CE010000 		.4byte	.LBB53
 2233 0d83 06000000 		.4byte	.LBE53-.LBB53
 2234 0d87 1A       		.byte	0x1a
 2235 0d88 78       		.byte	0x78
 2236 0d89 2B       		.uleb128 0x2b
 2237 0d8a 86100000 		.4byte	0x1086
 2238 0d8e CE010000 		.4byte	.LBB54
 2239 0d92 06000000 		.4byte	.LBE54-.LBB54
 2240 0d96 04       		.byte	0x4
 2241 0d97 6B       		.byte	0x6b
 2242 0d98 00       		.byte	0
 2243 0d99 00       		.byte	0
 2244 0d9a 29       		.uleb128 0x29
 2245 0d9b 92100000 		.4byte	0x1092
 2246 0d9f D4010000 		.4byte	.LBB56
 2247 0da3 04000000 		.4byte	.LBE56-.LBB56
 2248 0da7 01       		.byte	0x1
 2249 0da8 0E01     		.2byte	0x10e
 2250 0daa BD0D0000 		.4byte	0xdbd
 2251 0dae 2C       		.uleb128 0x2c
 2252 0daf AF100000 		.4byte	0x10af
 2253 0db3 2D       		.uleb128 0x2d
 2254 0db4 A3100000 		.4byte	0x10a3
 2255 0db8 B6000000 		.4byte	.LLST11
 2256 0dbc 00       		.byte	0
 2257 0dbd 2E       		.uleb128 0x2e
 2258 0dbe 66100000 		.4byte	0x1066
 2259 0dc2 02020000 		.4byte	.LBB58
 2260 0dc6 06000000 		.4byte	.LBE58-.LBB58
 2261 0dca 01       		.byte	0x1
 2262 0dcb FF       		.byte	0xff
 2263 0dcc DA0D0000 		.4byte	0xdda
 2264 0dd0 2F       		.uleb128 0x2f
 2265 0dd1 06020000 		.4byte	.LVL44
 2266 0dd5 F3100000 		.4byte	0x10f3
 2267 0dd9 00       		.byte	0
 2268 0dda 30       		.uleb128 0x30
 2269 0ddb BC100000 		.4byte	0x10bc
 2270 0ddf 0E020000 		.4byte	.LBB60
 2271 0de3 00000000 		.4byte	.Ldebug_ranges0+0
 2272 0de7 01       		.byte	0x1
ARM GAS  C:\Users\RAKIBU~1\AppData\Local\Temp\cc8iSkFL.s 			page 41


 2273 0de8 2701     		.2byte	0x127
 2274 0dea 1F0E0000 		.4byte	0xe1f
 2275 0dee 2D       		.uleb128 0x2d
 2276 0def D9100000 		.4byte	0x10d9
 2277 0df3 C9000000 		.4byte	.LLST12
 2278 0df7 2D       		.uleb128 0x2d
 2279 0df8 CD100000 		.4byte	0x10cd
 2280 0dfc F1000000 		.4byte	.LLST13
 2281 0e00 31       		.uleb128 0x31
 2282 0e01 00000000 		.4byte	.Ldebug_ranges0+0
 2283 0e05 32       		.uleb128 0x32
 2284 0e06 E5100000 		.4byte	0x10e5
 2285 0e0a 33       		.uleb128 0x33
 2286 0e0b 24020000 		.4byte	.LVL50
 2287 0e0f FE100000 		.4byte	0x10fe
 2288 0e13 34       		.uleb128 0x34
 2289 0e14 01       		.uleb128 0x1
 2290 0e15 50       		.byte	0x50
 2291 0e16 05       		.uleb128 0x5
 2292 0e17 03       		.byte	0x3
 2293 0e18 1C000000 		.4byte	.LANCHOR0+28
 2294 0e1c 00       		.byte	0
 2295 0e1d 00       		.byte	0
 2296 0e1e 00       		.byte	0
 2297 0e1f 29       		.uleb128 0x29
 2298 0e20 4E100000 		.4byte	0x104e
 2299 0e24 16020000 		.4byte	.LBB63
 2300 0e28 08000000 		.4byte	.LBE63-.LBB63
 2301 0e2c 01       		.byte	0x1
 2302 0e2d 2701     		.2byte	0x127
 2303 0e2f 4C0E0000 		.4byte	0xe4c
 2304 0e33 2C       		.uleb128 0x2c
 2305 0e34 5A100000 		.4byte	0x105a
 2306 0e38 33       		.uleb128 0x33
 2307 0e39 1C020000 		.4byte	.LVL48
 2308 0e3d 09110000 		.4byte	0x1109
 2309 0e41 34       		.uleb128 0x34
 2310 0e42 01       		.uleb128 0x1
 2311 0e43 50       		.byte	0x50
 2312 0e44 05       		.uleb128 0x5
 2313 0e45 76       		.byte	0x76
 2314 0e46 00       		.sleb128 0
 2315 0e47 74       		.byte	0x74
 2316 0e48 00       		.sleb128 0
 2317 0e49 22       		.byte	0x22
 2318 0e4a 00       		.byte	0
 2319 0e4b 00       		.byte	0
 2320 0e4c 2F       		.uleb128 0x2f
 2321 0e4d 58010000 		.4byte	.LVL32
 2322 0e51 14110000 		.4byte	0x1114
 2323 0e55 35       		.uleb128 0x35
 2324 0e56 98010000 		.4byte	.LVL35
 2325 0e5a FE100000 		.4byte	0x10fe
 2326 0e5e 6C0E0000 		.4byte	0xe6c
 2327 0e62 34       		.uleb128 0x34
 2328 0e63 01       		.uleb128 0x1
 2329 0e64 50       		.byte	0x50
ARM GAS  C:\Users\RAKIBU~1\AppData\Local\Temp\cc8iSkFL.s 			page 42


 2330 0e65 05       		.uleb128 0x5
 2331 0e66 03       		.byte	0x3
 2332 0e67 0C000000 		.4byte	.LANCHOR0+12
 2333 0e6b 00       		.byte	0
 2334 0e6c 33       		.uleb128 0x33
 2335 0e6d A0010000 		.4byte	.LVL36
 2336 0e71 FE100000 		.4byte	0x10fe
 2337 0e75 34       		.uleb128 0x34
 2338 0e76 01       		.uleb128 0x1
 2339 0e77 50       		.byte	0x50
 2340 0e78 05       		.uleb128 0x5
 2341 0e79 03       		.byte	0x3
 2342 0e7a 0C000000 		.4byte	.LANCHOR0+12
 2343 0e7e 00       		.byte	0
 2344 0e7f 00       		.byte	0
 2345 0e80 16       		.uleb128 0x16
 2346 0e81 4E070000 		.4byte	0x74e
 2347 0e85 900E0000 		.4byte	0xe90
 2348 0e89 17       		.uleb128 0x17
 2349 0e8a 3E000000 		.4byte	0x3e
 2350 0e8e 0C       		.byte	0xc
 2351 0e8f 00       		.byte	0
 2352 0e90 05       		.uleb128 0x5
 2353 0e91 800E0000 		.4byte	0xe80
 2354 0e95 24       		.uleb128 0x24
 2355 0e96 71040000 		.4byte	.LASF184
 2356 0e9a 01       		.byte	0x1
 2357 0e9b 5F       		.byte	0x5f
 2358 0e9c 20000000 		.4byte	.LFB296
 2359 0ea0 28010000 		.4byte	.LFE296-.LFB296
 2360 0ea4 01       		.uleb128 0x1
 2361 0ea5 9C       		.byte	0x9c
 2362 0ea6 10100000 		.4byte	0x1010
 2363 0eaa 25       		.uleb128 0x25
 2364 0eab 76747000 		.ascii	"vtp\000"
 2365 0eaf 01       		.byte	0x1
 2366 0eb0 5F       		.byte	0x5f
 2367 0eb1 F1090000 		.4byte	0x9f1
 2368 0eb5 0F010000 		.4byte	.LLST0
 2369 0eb9 36       		.uleb128 0x36
 2370 0eba 98060000 		.4byte	.LASF185
 2371 0ebe 01       		.byte	0x1
 2372 0ebf 5F       		.byte	0x5f
 2373 0ec0 B2040000 		.4byte	0x4b2
 2374 0ec4 3B010000 		.4byte	.LLST1
 2375 0ec8 36       		.uleb128 0x36
 2376 0ec9 63080000 		.4byte	.LASF186
 2377 0ecd 01       		.byte	0x1
 2378 0ece 60       		.byte	0x60
 2379 0ecf 2A030000 		.4byte	0x32a
 2380 0ed3 B7010000 		.4byte	.LLST2
 2381 0ed7 25       		.uleb128 0x25
 2382 0ed8 70617200 		.ascii	"par\000"
 2383 0edc 01       		.byte	0x1
 2384 0edd 60       		.byte	0x60
 2385 0ede 46030000 		.4byte	0x346
 2386 0ee2 D7010000 		.4byte	.LLST3
ARM GAS  C:\Users\RAKIBU~1\AppData\Local\Temp\cc8iSkFL.s 			page 43


 2387 0ee6 37       		.uleb128 0x37
 2388 0ee7 7000     		.ascii	"p\000"
 2389 0ee9 01       		.byte	0x1
 2390 0eea 61       		.byte	0x61
 2391 0eeb F1090000 		.4byte	0x9f1
 2392 0eef F7010000 		.4byte	.LLST4
 2393 0ef3 28       		.uleb128 0x28
 2394 0ef4 1E000000 		.4byte	.LASF62
 2395 0ef8 01       		.byte	0x1
 2396 0ef9 62       		.byte	0x62
 2397 0efa B2040000 		.4byte	0x4b2
 2398 0efe 15020000 		.4byte	.LLST5
 2399 0f02 26       		.uleb128 0x26
 2400 0f03 CF060000 		.4byte	.LASF181
 2401 0f07 20100000 		.4byte	0x1020
 2402 0f0b 05       		.uleb128 0x5
 2403 0f0c 03       		.byte	0x3
 2404 0f0d 00000000 		.4byte	__func__.7114
 2405 0f11 38       		.uleb128 0x38
 2406 0f12 46000000 		.4byte	.LBB40
 2407 0f16 9E000000 		.4byte	.LBE40-.LBB40
 2408 0f1a DC0F0000 		.4byte	0xfdc
 2409 0f1e 39       		.uleb128 0x39
 2410 0f1f 6E6F7700 		.ascii	"now\000"
 2411 0f23 01       		.byte	0x1
 2412 0f24 6C       		.byte	0x6c
 2413 0f25 A7040000 		.4byte	0x4a7
 2414 0f29 38       		.uleb128 0x38
 2415 0f2a C8000000 		.4byte	.LBB49
 2416 0f2e 1C000000 		.4byte	.LBE49-.LBB49
 2417 0f32 640F0000 		.4byte	0xf64
 2418 0f36 28       		.uleb128 0x28
 2419 0f37 CA020000 		.4byte	.LASF187
 2420 0f3b 01       		.byte	0x1
 2421 0f3c 9C       		.byte	0x9c
 2422 0f3d B2040000 		.4byte	0x4b2
 2423 0f41 5D020000 		.4byte	.LLST8
 2424 0f45 2A       		.uleb128 0x2a
 2425 0f46 4E100000 		.4byte	0x104e
 2426 0f4a D8000000 		.4byte	.LBB50
 2427 0f4e 08000000 		.4byte	.LBE50-.LBB50
 2428 0f52 01       		.byte	0x1
 2429 0f53 A7       		.byte	0xa7
 2430 0f54 2C       		.uleb128 0x2c
 2431 0f55 5A100000 		.4byte	0x105a
 2432 0f59 2F       		.uleb128 0x2f
 2433 0f5a DE000000 		.4byte	.LVL22
 2434 0f5e 09110000 		.4byte	0x1109
 2435 0f62 00       		.byte	0
 2436 0f63 00       		.byte	0
 2437 0f64 2E       		.uleb128 0x2e
 2438 0f65 36100000 		.4byte	0x1036
 2439 0f69 46000000 		.4byte	.LBB41
 2440 0f6d 06000000 		.4byte	.LBE41-.LBB41
 2441 0f71 01       		.byte	0x1
 2442 0f72 6C       		.byte	0x6c
 2443 0f73 970F0000 		.4byte	0xf97
ARM GAS  C:\Users\RAKIBU~1\AppData\Local\Temp\cc8iSkFL.s 			page 44


 2444 0f77 2A       		.uleb128 0x2a
 2445 0f78 42100000 		.4byte	0x1042
 2446 0f7c 46000000 		.4byte	.LBB42
 2447 0f80 06000000 		.4byte	.LBE42-.LBB42
 2448 0f84 1A       		.byte	0x1a
 2449 0f85 78       		.byte	0x78
 2450 0f86 2B       		.uleb128 0x2b
 2451 0f87 86100000 		.4byte	0x1086
 2452 0f8b 46000000 		.4byte	.LBB43
 2453 0f8f 06000000 		.4byte	.LBE43-.LBB43
 2454 0f93 04       		.byte	0x4
 2455 0f94 6B       		.byte	0x6b
 2456 0f95 00       		.byte	0
 2457 0f96 00       		.byte	0
 2458 0f97 2E       		.uleb128 0x2e
 2459 0f98 92100000 		.4byte	0x1092
 2460 0f9c 62000000 		.4byte	.LBB45
 2461 0fa0 04000000 		.4byte	.LBE45-.LBB45
 2462 0fa4 01       		.byte	0x1
 2463 0fa5 92       		.byte	0x92
 2464 0fa6 BD0F0000 		.4byte	0xfbd
 2465 0faa 2D       		.uleb128 0x2d
 2466 0fab AF100000 		.4byte	0x10af
 2467 0faf 75020000 		.4byte	.LLST6
 2468 0fb3 2D       		.uleb128 0x2d
 2469 0fb4 A3100000 		.4byte	0x10a3
 2470 0fb8 88020000 		.4byte	.LLST7
 2471 0fbc 00       		.byte	0
 2472 0fbd 2A       		.uleb128 0x2a
 2473 0fbe 6E100000 		.4byte	0x106e
 2474 0fc2 AE000000 		.4byte	.LBB47
 2475 0fc6 08000000 		.4byte	.LBE47-.LBB47
 2476 0fca 01       		.byte	0x1
 2477 0fcb 88       		.byte	0x88
 2478 0fcc 2C       		.uleb128 0x2c
 2479 0fcd 7A100000 		.4byte	0x107a
 2480 0fd1 2F       		.uleb128 0x2f
 2481 0fd2 B4000000 		.4byte	.LVL17
 2482 0fd6 1F110000 		.4byte	0x111f
 2483 0fda 00       		.byte	0
 2484 0fdb 00       		.byte	0
 2485 0fdc 2F       		.uleb128 0x2f
 2486 0fdd 30000000 		.4byte	.LVL1
 2487 0fe1 14110000 		.4byte	0x1114
 2488 0fe5 35       		.uleb128 0x35
 2489 0fe6 40000000 		.4byte	.LVL2
 2490 0fea FE100000 		.4byte	0x10fe
 2491 0fee FC0F0000 		.4byte	0xffc
 2492 0ff2 34       		.uleb128 0x34
 2493 0ff3 01       		.uleb128 0x1
 2494 0ff4 50       		.byte	0x50
 2495 0ff5 05       		.uleb128 0x5
 2496 0ff6 03       		.byte	0x3
 2497 0ff7 00000000 		.4byte	.LANCHOR0
 2498 0ffb 00       		.byte	0
 2499 0ffc 33       		.uleb128 0x33
 2500 0ffd 08010000 		.4byte	.LVL27
ARM GAS  C:\Users\RAKIBU~1\AppData\Local\Temp\cc8iSkFL.s 			page 45


 2501 1001 FE100000 		.4byte	0x10fe
 2502 1005 34       		.uleb128 0x34
 2503 1006 01       		.uleb128 0x1
 2504 1007 50       		.byte	0x50
 2505 1008 05       		.uleb128 0x5
 2506 1009 03       		.byte	0x3
 2507 100a 00000000 		.4byte	.LANCHOR0
 2508 100e 00       		.byte	0
 2509 100f 00       		.byte	0
 2510 1010 16       		.uleb128 0x16
 2511 1011 4E070000 		.4byte	0x74e
 2512 1015 20100000 		.4byte	0x1020
 2513 1019 17       		.uleb128 0x17
 2514 101a 3E000000 		.4byte	0x3e
 2515 101e 0A       		.byte	0xa
 2516 101f 00       		.byte	0
 2517 1020 05       		.uleb128 0x5
 2518 1021 10100000 		.4byte	0x1010
 2519 1025 3A       		.uleb128 0x3a
 2520 1026 65010000 		.4byte	.LASF206
 2521 102a 01       		.byte	0x1
 2522 102b 3D       		.byte	0x3d
 2523 102c 00000000 		.4byte	.LFB295
 2524 1030 20000000 		.4byte	.LFE295-.LFB295
 2525 1034 01       		.uleb128 0x1
 2526 1035 9C       		.byte	0x9c
 2527 1036 3B       		.uleb128 0x3b
 2528 1037 AE020000 		.4byte	.LASF188
 2529 103b 1A       		.byte	0x1a
 2530 103c 73       		.byte	0x73
 2531 103d A7040000 		.4byte	0x4a7
 2532 1041 03       		.byte	0x3
 2533 1042 3B       		.uleb128 0x3b
 2534 1043 2B080000 		.4byte	.LASF189
 2535 1047 04       		.byte	0x4
 2536 1048 69       		.byte	0x69
 2537 1049 A7040000 		.4byte	0x4a7
 2538 104d 03       		.byte	0x3
 2539 104e 3C       		.uleb128 0x3c
 2540 104f 05090000 		.4byte	.LASF190
 2541 1053 04       		.byte	0x4
 2542 1054 5D       		.byte	0x5d
 2543 1055 03       		.byte	0x3
 2544 1056 66100000 		.4byte	0x1066
 2545 105a 3D       		.uleb128 0x3d
 2546 105b D3050000 		.4byte	.LASF106
 2547 105f 04       		.byte	0x4
 2548 1060 5D       		.byte	0x5d
 2549 1061 A7040000 		.4byte	0x4a7
 2550 1065 00       		.byte	0
 2551 1066 3E       		.uleb128 0x3e
 2552 1067 DC080000 		.4byte	.LASF207
 2553 106b 04       		.byte	0x4
 2554 106c 51       		.byte	0x51
 2555 106d 03       		.byte	0x3
 2556 106e 3C       		.uleb128 0x3c
 2557 106f C7030000 		.4byte	.LASF191
ARM GAS  C:\Users\RAKIBU~1\AppData\Local\Temp\cc8iSkFL.s 			page 46


 2558 1073 04       		.byte	0x4
 2559 1074 47       		.byte	0x47
 2560 1075 03       		.byte	0x3
 2561 1076 86100000 		.4byte	0x1086
 2562 107a 3D       		.uleb128 0x3d
 2563 107b D3050000 		.4byte	.LASF106
 2564 107f 04       		.byte	0x4
 2565 1080 47       		.byte	0x47
 2566 1081 A7040000 		.4byte	0x4a7
 2567 1085 00       		.byte	0
 2568 1086 3B       		.uleb128 0x3b
 2569 1087 26070000 		.4byte	.LASF192
 2570 108b 02       		.byte	0x2
 2571 108c 91       		.byte	0x91
 2572 108d A7040000 		.4byte	0x4a7
 2573 1091 03       		.byte	0x3
 2574 1092 3F       		.uleb128 0x3f
 2575 1093 A9080000 		.4byte	.LASF194
 2576 1097 03       		.byte	0x3
 2577 1098 CB01     		.2byte	0x1cb
 2578 109a B2040000 		.4byte	0x4b2
 2579 109e 03       		.byte	0x3
 2580 109f BC100000 		.4byte	0x10bc
 2581 10a3 40       		.uleb128 0x40
 2582 10a4 95010000 		.4byte	.LASF193
 2583 10a8 03       		.byte	0x3
 2584 10a9 CB01     		.2byte	0x1cb
 2585 10ab A7040000 		.4byte	0x4a7
 2586 10af 41       		.uleb128 0x41
 2587 10b0 656E6400 		.ascii	"end\000"
 2588 10b4 03       		.byte	0x3
 2589 10b5 CB01     		.2byte	0x1cb
 2590 10b7 A7040000 		.4byte	0x4a7
 2591 10bb 00       		.byte	0
 2592 10bc 3F       		.uleb128 0x3f
 2593 10bd EE050000 		.4byte	.LASF195
 2594 10c1 03       		.byte	0x3
 2595 10c2 B801     		.2byte	0x1b8
 2596 10c4 A7040000 		.4byte	0x4a7
 2597 10c8 03       		.byte	0x3
 2598 10c9 F3100000 		.4byte	0x10f3
 2599 10cd 40       		.uleb128 0x40
 2600 10ce 50040000 		.4byte	.LASF196
 2601 10d2 03       		.byte	0x3
 2602 10d3 B801     		.2byte	0x1b8
 2603 10d5 A7040000 		.4byte	0x4a7
 2604 10d9 40       		.uleb128 0x40
 2605 10da 38020000 		.4byte	.LASF197
 2606 10de 03       		.byte	0x3
 2607 10df B901     		.2byte	0x1b9
 2608 10e1 B2040000 		.4byte	0x4b2
 2609 10e5 42       		.uleb128 0x42
 2610 10e6 CF060000 		.4byte	.LASF181
 2611 10ea 20100000 		.4byte	0x1020
 2612 10ee EE050000 		.4byte	.LASF195
 2613 10f2 00       		.byte	0
 2614 10f3 43       		.uleb128 0x43
ARM GAS  C:\Users\RAKIBU~1\AppData\Local\Temp\cc8iSkFL.s 			page 47


 2615 10f4 82070000 		.4byte	.LASF198
 2616 10f8 82070000 		.4byte	.LASF198
 2617 10fc 1B       		.byte	0x1b
 2618 10fd 58       		.byte	0x58
 2619 10fe 43       		.uleb128 0x43
 2620 10ff C9040000 		.4byte	.LASF199
 2621 1103 C9040000 		.4byte	.LASF199
 2622 1107 1C       		.byte	0x1c
 2623 1108 63       		.byte	0x63
 2624 1109 43       		.uleb128 0x43
 2625 110a BE080000 		.4byte	.LASF200
 2626 110e BE080000 		.4byte	.LASF200
 2627 1112 1B       		.byte	0x1b
 2628 1113 59       		.byte	0x59
 2629 1114 43       		.uleb128 0x43
 2630 1115 EE030000 		.4byte	.LASF201
 2631 1119 EE030000 		.4byte	.LASF201
 2632 111d 1D       		.byte	0x1d
 2633 111e 9C       		.byte	0x9c
 2634 111f 43       		.uleb128 0x43
 2635 1120 01080000 		.4byte	.LASF202
 2636 1124 01080000 		.4byte	.LASF202
 2637 1128 1B       		.byte	0x1b
 2638 1129 57       		.byte	0x57
 2639 112a 00       		.byte	0
 2640              		.section	.debug_abbrev,"",%progbits
 2641              	.Ldebug_abbrev0:
 2642 0000 01       		.uleb128 0x1
 2643 0001 11       		.uleb128 0x11
 2644 0002 01       		.byte	0x1
 2645 0003 25       		.uleb128 0x25
 2646 0004 0E       		.uleb128 0xe
 2647 0005 13       		.uleb128 0x13
 2648 0006 0B       		.uleb128 0xb
 2649 0007 03       		.uleb128 0x3
 2650 0008 0E       		.uleb128 0xe
 2651 0009 1B       		.uleb128 0x1b
 2652 000a 0E       		.uleb128 0xe
 2653 000b 11       		.uleb128 0x11
 2654 000c 01       		.uleb128 0x1
 2655 000d 12       		.uleb128 0x12
 2656 000e 06       		.uleb128 0x6
 2657 000f 10       		.uleb128 0x10
 2658 0010 17       		.uleb128 0x17
 2659 0011 00       		.byte	0
 2660 0012 00       		.byte	0
 2661 0013 02       		.uleb128 0x2
 2662 0014 24       		.uleb128 0x24
 2663 0015 00       		.byte	0
 2664 0016 0B       		.uleb128 0xb
 2665 0017 0B       		.uleb128 0xb
 2666 0018 3E       		.uleb128 0x3e
 2667 0019 0B       		.uleb128 0xb
 2668 001a 03       		.uleb128 0x3
 2669 001b 0E       		.uleb128 0xe
 2670 001c 00       		.byte	0
 2671 001d 00       		.byte	0
ARM GAS  C:\Users\RAKIBU~1\AppData\Local\Temp\cc8iSkFL.s 			page 48


 2672 001e 03       		.uleb128 0x3
 2673 001f 24       		.uleb128 0x24
 2674 0020 00       		.byte	0
 2675 0021 0B       		.uleb128 0xb
 2676 0022 0B       		.uleb128 0xb
 2677 0023 3E       		.uleb128 0x3e
 2678 0024 0B       		.uleb128 0xb
 2679 0025 03       		.uleb128 0x3
 2680 0026 08       		.uleb128 0x8
 2681 0027 00       		.byte	0
 2682 0028 00       		.byte	0
 2683 0029 04       		.uleb128 0x4
 2684 002a 16       		.uleb128 0x16
 2685 002b 00       		.byte	0
 2686 002c 03       		.uleb128 0x3
 2687 002d 0E       		.uleb128 0xe
 2688 002e 3A       		.uleb128 0x3a
 2689 002f 0B       		.uleb128 0xb
 2690 0030 3B       		.uleb128 0x3b
 2691 0031 0B       		.uleb128 0xb
 2692 0032 49       		.uleb128 0x49
 2693 0033 13       		.uleb128 0x13
 2694 0034 00       		.byte	0
 2695 0035 00       		.byte	0
 2696 0036 05       		.uleb128 0x5
 2697 0037 26       		.uleb128 0x26
 2698 0038 00       		.byte	0
 2699 0039 49       		.uleb128 0x49
 2700 003a 13       		.uleb128 0x13
 2701 003b 00       		.byte	0
 2702 003c 00       		.byte	0
 2703 003d 06       		.uleb128 0x6
 2704 003e 35       		.uleb128 0x35
 2705 003f 00       		.byte	0
 2706 0040 49       		.uleb128 0x49
 2707 0041 13       		.uleb128 0x13
 2708 0042 00       		.byte	0
 2709 0043 00       		.byte	0
 2710 0044 07       		.uleb128 0x7
 2711 0045 13       		.uleb128 0x13
 2712 0046 01       		.byte	0x1
 2713 0047 03       		.uleb128 0x3
 2714 0048 0E       		.uleb128 0xe
 2715 0049 0B       		.uleb128 0xb
 2716 004a 0B       		.uleb128 0xb
 2717 004b 3A       		.uleb128 0x3a
 2718 004c 0B       		.uleb128 0xb
 2719 004d 3B       		.uleb128 0x3b
 2720 004e 0B       		.uleb128 0xb
 2721 004f 01       		.uleb128 0x1
 2722 0050 13       		.uleb128 0x13
 2723 0051 00       		.byte	0
 2724 0052 00       		.byte	0
 2725 0053 08       		.uleb128 0x8
 2726 0054 0D       		.uleb128 0xd
 2727 0055 00       		.byte	0
 2728 0056 03       		.uleb128 0x3
ARM GAS  C:\Users\RAKIBU~1\AppData\Local\Temp\cc8iSkFL.s 			page 49


 2729 0057 0E       		.uleb128 0xe
 2730 0058 3A       		.uleb128 0x3a
 2731 0059 0B       		.uleb128 0xb
 2732 005a 3B       		.uleb128 0x3b
 2733 005b 0B       		.uleb128 0xb
 2734 005c 49       		.uleb128 0x49
 2735 005d 13       		.uleb128 0x13
 2736 005e 38       		.uleb128 0x38
 2737 005f 0B       		.uleb128 0xb
 2738 0060 00       		.byte	0
 2739 0061 00       		.byte	0
 2740 0062 09       		.uleb128 0x9
 2741 0063 0D       		.uleb128 0xd
 2742 0064 00       		.byte	0
 2743 0065 03       		.uleb128 0x3
 2744 0066 08       		.uleb128 0x8
 2745 0067 3A       		.uleb128 0x3a
 2746 0068 0B       		.uleb128 0xb
 2747 0069 3B       		.uleb128 0x3b
 2748 006a 0B       		.uleb128 0xb
 2749 006b 49       		.uleb128 0x49
 2750 006c 13       		.uleb128 0x13
 2751 006d 38       		.uleb128 0x38
 2752 006e 0B       		.uleb128 0xb
 2753 006f 00       		.byte	0
 2754 0070 00       		.byte	0
 2755 0071 0A       		.uleb128 0xa
 2756 0072 0D       		.uleb128 0xd
 2757 0073 00       		.byte	0
 2758 0074 03       		.uleb128 0x3
 2759 0075 08       		.uleb128 0x8
 2760 0076 3A       		.uleb128 0x3a
 2761 0077 0B       		.uleb128 0xb
 2762 0078 3B       		.uleb128 0x3b
 2763 0079 05       		.uleb128 0x5
 2764 007a 49       		.uleb128 0x49
 2765 007b 13       		.uleb128 0x13
 2766 007c 38       		.uleb128 0x38
 2767 007d 0B       		.uleb128 0xb
 2768 007e 00       		.byte	0
 2769 007f 00       		.byte	0
 2770 0080 0B       		.uleb128 0xb
 2771 0081 0D       		.uleb128 0xd
 2772 0082 00       		.byte	0
 2773 0083 03       		.uleb128 0x3
 2774 0084 0E       		.uleb128 0xe
 2775 0085 3A       		.uleb128 0x3a
 2776 0086 0B       		.uleb128 0xb
 2777 0087 3B       		.uleb128 0x3b
 2778 0088 05       		.uleb128 0x5
 2779 0089 49       		.uleb128 0x49
 2780 008a 13       		.uleb128 0x13
 2781 008b 38       		.uleb128 0x38
 2782 008c 0B       		.uleb128 0xb
 2783 008d 00       		.byte	0
 2784 008e 00       		.byte	0
 2785 008f 0C       		.uleb128 0xc
ARM GAS  C:\Users\RAKIBU~1\AppData\Local\Temp\cc8iSkFL.s 			page 50


 2786 0090 0F       		.uleb128 0xf
 2787 0091 00       		.byte	0
 2788 0092 0B       		.uleb128 0xb
 2789 0093 0B       		.uleb128 0xb
 2790 0094 49       		.uleb128 0x49
 2791 0095 13       		.uleb128 0x13
 2792 0096 00       		.byte	0
 2793 0097 00       		.byte	0
 2794 0098 0D       		.uleb128 0xd
 2795 0099 13       		.uleb128 0x13
 2796 009a 01       		.byte	0x1
 2797 009b 03       		.uleb128 0x3
 2798 009c 0E       		.uleb128 0xe
 2799 009d 0B       		.uleb128 0xb
 2800 009e 0B       		.uleb128 0xb
 2801 009f 3A       		.uleb128 0x3a
 2802 00a0 0B       		.uleb128 0xb
 2803 00a1 3B       		.uleb128 0x3b
 2804 00a2 05       		.uleb128 0x5
 2805 00a3 01       		.uleb128 0x1
 2806 00a4 13       		.uleb128 0x13
 2807 00a5 00       		.byte	0
 2808 00a6 00       		.byte	0
 2809 00a7 0E       		.uleb128 0xe
 2810 00a8 15       		.uleb128 0x15
 2811 00a9 01       		.byte	0x1
 2812 00aa 27       		.uleb128 0x27
 2813 00ab 19       		.uleb128 0x19
 2814 00ac 01       		.uleb128 0x1
 2815 00ad 13       		.uleb128 0x13
 2816 00ae 00       		.byte	0
 2817 00af 00       		.byte	0
 2818 00b0 0F       		.uleb128 0xf
 2819 00b1 05       		.uleb128 0x5
 2820 00b2 00       		.byte	0
 2821 00b3 49       		.uleb128 0x49
 2822 00b4 13       		.uleb128 0x13
 2823 00b5 00       		.byte	0
 2824 00b6 00       		.byte	0
 2825 00b7 10       		.uleb128 0x10
 2826 00b8 0F       		.uleb128 0xf
 2827 00b9 00       		.byte	0
 2828 00ba 0B       		.uleb128 0xb
 2829 00bb 0B       		.uleb128 0xb
 2830 00bc 00       		.byte	0
 2831 00bd 00       		.byte	0
 2832 00be 11       		.uleb128 0x11
 2833 00bf 13       		.uleb128 0x13
 2834 00c0 01       		.byte	0x1
 2835 00c1 03       		.uleb128 0x3
 2836 00c2 0E       		.uleb128 0xe
 2837 00c3 0B       		.uleb128 0xb
 2838 00c4 05       		.uleb128 0x5
 2839 00c5 3A       		.uleb128 0x3a
 2840 00c6 0B       		.uleb128 0xb
 2841 00c7 3B       		.uleb128 0x3b
 2842 00c8 05       		.uleb128 0x5
ARM GAS  C:\Users\RAKIBU~1\AppData\Local\Temp\cc8iSkFL.s 			page 51


 2843 00c9 01       		.uleb128 0x1
 2844 00ca 13       		.uleb128 0x13
 2845 00cb 00       		.byte	0
 2846 00cc 00       		.byte	0
 2847 00cd 12       		.uleb128 0x12
 2848 00ce 0D       		.uleb128 0xd
 2849 00cf 00       		.byte	0
 2850 00d0 03       		.uleb128 0x3
 2851 00d1 0E       		.uleb128 0xe
 2852 00d2 3A       		.uleb128 0x3a
 2853 00d3 0B       		.uleb128 0xb
 2854 00d4 3B       		.uleb128 0x3b
 2855 00d5 05       		.uleb128 0x5
 2856 00d6 49       		.uleb128 0x49
 2857 00d7 13       		.uleb128 0x13
 2858 00d8 38       		.uleb128 0x38
 2859 00d9 05       		.uleb128 0x5
 2860 00da 00       		.byte	0
 2861 00db 00       		.byte	0
 2862 00dc 13       		.uleb128 0x13
 2863 00dd 0D       		.uleb128 0xd
 2864 00de 00       		.byte	0
 2865 00df 03       		.uleb128 0x3
 2866 00e0 08       		.uleb128 0x8
 2867 00e1 3A       		.uleb128 0x3a
 2868 00e2 0B       		.uleb128 0xb
 2869 00e3 3B       		.uleb128 0x3b
 2870 00e4 05       		.uleb128 0x5
 2871 00e5 49       		.uleb128 0x49
 2872 00e6 13       		.uleb128 0x13
 2873 00e7 38       		.uleb128 0x38
 2874 00e8 05       		.uleb128 0x5
 2875 00e9 00       		.byte	0
 2876 00ea 00       		.byte	0
 2877 00eb 14       		.uleb128 0x14
 2878 00ec 34       		.uleb128 0x34
 2879 00ed 00       		.byte	0
 2880 00ee 03       		.uleb128 0x3
 2881 00ef 0E       		.uleb128 0xe
 2882 00f0 3A       		.uleb128 0x3a
 2883 00f1 0B       		.uleb128 0xb
 2884 00f2 3B       		.uleb128 0x3b
 2885 00f3 05       		.uleb128 0x5
 2886 00f4 49       		.uleb128 0x49
 2887 00f5 13       		.uleb128 0x13
 2888 00f6 3F       		.uleb128 0x3f
 2889 00f7 19       		.uleb128 0x19
 2890 00f8 3C       		.uleb128 0x3c
 2891 00f9 19       		.uleb128 0x19
 2892 00fa 00       		.byte	0
 2893 00fb 00       		.byte	0
 2894 00fc 15       		.uleb128 0x15
 2895 00fd 34       		.uleb128 0x34
 2896 00fe 00       		.byte	0
 2897 00ff 03       		.uleb128 0x3
 2898 0100 0E       		.uleb128 0xe
 2899 0101 3A       		.uleb128 0x3a
ARM GAS  C:\Users\RAKIBU~1\AppData\Local\Temp\cc8iSkFL.s 			page 52


 2900 0102 0B       		.uleb128 0xb
 2901 0103 3B       		.uleb128 0x3b
 2902 0104 0B       		.uleb128 0xb
 2903 0105 49       		.uleb128 0x49
 2904 0106 13       		.uleb128 0x13
 2905 0107 3F       		.uleb128 0x3f
 2906 0108 19       		.uleb128 0x19
 2907 0109 3C       		.uleb128 0x3c
 2908 010a 19       		.uleb128 0x19
 2909 010b 00       		.byte	0
 2910 010c 00       		.byte	0
 2911 010d 16       		.uleb128 0x16
 2912 010e 01       		.uleb128 0x1
 2913 010f 01       		.byte	0x1
 2914 0110 49       		.uleb128 0x49
 2915 0111 13       		.uleb128 0x13
 2916 0112 01       		.uleb128 0x1
 2917 0113 13       		.uleb128 0x13
 2918 0114 00       		.byte	0
 2919 0115 00       		.byte	0
 2920 0116 17       		.uleb128 0x17
 2921 0117 21       		.uleb128 0x21
 2922 0118 00       		.byte	0
 2923 0119 49       		.uleb128 0x49
 2924 011a 13       		.uleb128 0x13
 2925 011b 2F       		.uleb128 0x2f
 2926 011c 0B       		.uleb128 0xb
 2927 011d 00       		.byte	0
 2928 011e 00       		.byte	0
 2929 011f 18       		.uleb128 0x18
 2930 0120 13       		.uleb128 0x13
 2931 0121 01       		.byte	0x1
 2932 0122 0B       		.uleb128 0xb
 2933 0123 0B       		.uleb128 0xb
 2934 0124 3A       		.uleb128 0x3a
 2935 0125 0B       		.uleb128 0xb
 2936 0126 3B       		.uleb128 0x3b
 2937 0127 05       		.uleb128 0x5
 2938 0128 01       		.uleb128 0x1
 2939 0129 13       		.uleb128 0x13
 2940 012a 00       		.byte	0
 2941 012b 00       		.byte	0
 2942 012c 19       		.uleb128 0x19
 2943 012d 16       		.uleb128 0x16
 2944 012e 00       		.byte	0
 2945 012f 03       		.uleb128 0x3
 2946 0130 0E       		.uleb128 0xe
 2947 0131 3A       		.uleb128 0x3a
 2948 0132 0B       		.uleb128 0xb
 2949 0133 3B       		.uleb128 0x3b
 2950 0134 05       		.uleb128 0x5
 2951 0135 49       		.uleb128 0x49
 2952 0136 13       		.uleb128 0x13
 2953 0137 00       		.byte	0
 2954 0138 00       		.byte	0
 2955 0139 1A       		.uleb128 0x1a
 2956 013a 13       		.uleb128 0x13
ARM GAS  C:\Users\RAKIBU~1\AppData\Local\Temp\cc8iSkFL.s 			page 53


 2957 013b 01       		.byte	0x1
 2958 013c 0B       		.uleb128 0xb
 2959 013d 0B       		.uleb128 0xb
 2960 013e 3A       		.uleb128 0x3a
 2961 013f 0B       		.uleb128 0xb
 2962 0140 3B       		.uleb128 0x3b
 2963 0141 0B       		.uleb128 0xb
 2964 0142 01       		.uleb128 0x1
 2965 0143 13       		.uleb128 0x13
 2966 0144 00       		.byte	0
 2967 0145 00       		.byte	0
 2968 0146 1B       		.uleb128 0x1b
 2969 0147 17       		.uleb128 0x17
 2970 0148 01       		.byte	0x1
 2971 0149 0B       		.uleb128 0xb
 2972 014a 0B       		.uleb128 0xb
 2973 014b 3A       		.uleb128 0x3a
 2974 014c 0B       		.uleb128 0xb
 2975 014d 3B       		.uleb128 0x3b
 2976 014e 0B       		.uleb128 0xb
 2977 014f 01       		.uleb128 0x1
 2978 0150 13       		.uleb128 0x13
 2979 0151 00       		.byte	0
 2980 0152 00       		.byte	0
 2981 0153 1C       		.uleb128 0x1c
 2982 0154 0D       		.uleb128 0xd
 2983 0155 00       		.byte	0
 2984 0156 03       		.uleb128 0x3
 2985 0157 08       		.uleb128 0x8
 2986 0158 3A       		.uleb128 0x3a
 2987 0159 0B       		.uleb128 0xb
 2988 015a 3B       		.uleb128 0x3b
 2989 015b 0B       		.uleb128 0xb
 2990 015c 49       		.uleb128 0x49
 2991 015d 13       		.uleb128 0x13
 2992 015e 00       		.byte	0
 2993 015f 00       		.byte	0
 2994 0160 1D       		.uleb128 0x1d
 2995 0161 0D       		.uleb128 0xd
 2996 0162 00       		.byte	0
 2997 0163 03       		.uleb128 0x3
 2998 0164 0E       		.uleb128 0xe
 2999 0165 3A       		.uleb128 0x3a
 3000 0166 0B       		.uleb128 0xb
 3001 0167 3B       		.uleb128 0x3b
 3002 0168 0B       		.uleb128 0xb
 3003 0169 49       		.uleb128 0x49
 3004 016a 13       		.uleb128 0x13
 3005 016b 00       		.byte	0
 3006 016c 00       		.byte	0
 3007 016d 1E       		.uleb128 0x1e
 3008 016e 0D       		.uleb128 0xd
 3009 016f 00       		.byte	0
 3010 0170 03       		.uleb128 0x3
 3011 0171 0E       		.uleb128 0xe
 3012 0172 3A       		.uleb128 0x3a
 3013 0173 0B       		.uleb128 0xb
ARM GAS  C:\Users\RAKIBU~1\AppData\Local\Temp\cc8iSkFL.s 			page 54


 3014 0174 3B       		.uleb128 0x3b
 3015 0175 0B       		.uleb128 0xb
 3016 0176 49       		.uleb128 0x49
 3017 0177 13       		.uleb128 0x13
 3018 0178 0B       		.uleb128 0xb
 3019 0179 0B       		.uleb128 0xb
 3020 017a 0D       		.uleb128 0xd
 3021 017b 0B       		.uleb128 0xb
 3022 017c 0C       		.uleb128 0xc
 3023 017d 0B       		.uleb128 0xb
 3024 017e 38       		.uleb128 0x38
 3025 017f 0B       		.uleb128 0xb
 3026 0180 00       		.byte	0
 3027 0181 00       		.byte	0
 3028 0182 1F       		.uleb128 0x1f
 3029 0183 13       		.uleb128 0x13
 3030 0184 01       		.byte	0x1
 3031 0185 0B       		.uleb128 0xb
 3032 0186 05       		.uleb128 0x5
 3033 0187 3A       		.uleb128 0x3a
 3034 0188 0B       		.uleb128 0xb
 3035 0189 3B       		.uleb128 0x3b
 3036 018a 0B       		.uleb128 0xb
 3037 018b 01       		.uleb128 0x1
 3038 018c 13       		.uleb128 0x13
 3039 018d 00       		.byte	0
 3040 018e 00       		.byte	0
 3041 018f 20       		.uleb128 0x20
 3042 0190 0D       		.uleb128 0xd
 3043 0191 00       		.byte	0
 3044 0192 03       		.uleb128 0x3
 3045 0193 0E       		.uleb128 0xe
 3046 0194 3A       		.uleb128 0x3a
 3047 0195 0B       		.uleb128 0xb
 3048 0196 3B       		.uleb128 0x3b
 3049 0197 05       		.uleb128 0x5
 3050 0198 49       		.uleb128 0x49
 3051 0199 13       		.uleb128 0x13
 3052 019a 00       		.byte	0
 3053 019b 00       		.byte	0
 3054 019c 21       		.uleb128 0x21
 3055 019d 34       		.uleb128 0x34
 3056 019e 00       		.byte	0
 3057 019f 03       		.uleb128 0x3
 3058 01a0 08       		.uleb128 0x8
 3059 01a1 3A       		.uleb128 0x3a
 3060 01a2 0B       		.uleb128 0xb
 3061 01a3 3B       		.uleb128 0x3b
 3062 01a4 05       		.uleb128 0x5
 3063 01a5 49       		.uleb128 0x49
 3064 01a6 13       		.uleb128 0x13
 3065 01a7 3F       		.uleb128 0x3f
 3066 01a8 19       		.uleb128 0x19
 3067 01a9 3C       		.uleb128 0x3c
 3068 01aa 19       		.uleb128 0x19
 3069 01ab 00       		.byte	0
 3070 01ac 00       		.byte	0
ARM GAS  C:\Users\RAKIBU~1\AppData\Local\Temp\cc8iSkFL.s 			page 55


 3071 01ad 22       		.uleb128 0x22
 3072 01ae 21       		.uleb128 0x21
 3073 01af 00       		.byte	0
 3074 01b0 00       		.byte	0
 3075 01b1 00       		.byte	0
 3076 01b2 23       		.uleb128 0x23
 3077 01b3 15       		.uleb128 0x15
 3078 01b4 01       		.byte	0x1
 3079 01b5 27       		.uleb128 0x27
 3080 01b6 19       		.uleb128 0x19
 3081 01b7 49       		.uleb128 0x49
 3082 01b8 13       		.uleb128 0x13
 3083 01b9 01       		.uleb128 0x1
 3084 01ba 13       		.uleb128 0x13
 3085 01bb 00       		.byte	0
 3086 01bc 00       		.byte	0
 3087 01bd 24       		.uleb128 0x24
 3088 01be 2E       		.uleb128 0x2e
 3089 01bf 01       		.byte	0x1
 3090 01c0 3F       		.uleb128 0x3f
 3091 01c1 19       		.uleb128 0x19
 3092 01c2 03       		.uleb128 0x3
 3093 01c3 0E       		.uleb128 0xe
 3094 01c4 3A       		.uleb128 0x3a
 3095 01c5 0B       		.uleb128 0xb
 3096 01c6 3B       		.uleb128 0x3b
 3097 01c7 0B       		.uleb128 0xb
 3098 01c8 27       		.uleb128 0x27
 3099 01c9 19       		.uleb128 0x19
 3100 01ca 11       		.uleb128 0x11
 3101 01cb 01       		.uleb128 0x1
 3102 01cc 12       		.uleb128 0x12
 3103 01cd 06       		.uleb128 0x6
 3104 01ce 40       		.uleb128 0x40
 3105 01cf 18       		.uleb128 0x18
 3106 01d0 9742     		.uleb128 0x2117
 3107 01d2 19       		.uleb128 0x19
 3108 01d3 01       		.uleb128 0x1
 3109 01d4 13       		.uleb128 0x13
 3110 01d5 00       		.byte	0
 3111 01d6 00       		.byte	0
 3112 01d7 25       		.uleb128 0x25
 3113 01d8 05       		.uleb128 0x5
 3114 01d9 00       		.byte	0
 3115 01da 03       		.uleb128 0x3
 3116 01db 08       		.uleb128 0x8
 3117 01dc 3A       		.uleb128 0x3a
 3118 01dd 0B       		.uleb128 0xb
 3119 01de 3B       		.uleb128 0x3b
 3120 01df 0B       		.uleb128 0xb
 3121 01e0 49       		.uleb128 0x49
 3122 01e1 13       		.uleb128 0x13
 3123 01e2 02       		.uleb128 0x2
 3124 01e3 17       		.uleb128 0x17
 3125 01e4 00       		.byte	0
 3126 01e5 00       		.byte	0
 3127 01e6 26       		.uleb128 0x26
ARM GAS  C:\Users\RAKIBU~1\AppData\Local\Temp\cc8iSkFL.s 			page 56


 3128 01e7 34       		.uleb128 0x34
 3129 01e8 00       		.byte	0
 3130 01e9 03       		.uleb128 0x3
 3131 01ea 0E       		.uleb128 0xe
 3132 01eb 49       		.uleb128 0x49
 3133 01ec 13       		.uleb128 0x13
 3134 01ed 34       		.uleb128 0x34
 3135 01ee 19       		.uleb128 0x19
 3136 01ef 02       		.uleb128 0x2
 3137 01f0 18       		.uleb128 0x18
 3138 01f1 00       		.byte	0
 3139 01f2 00       		.byte	0
 3140 01f3 27       		.uleb128 0x27
 3141 01f4 34       		.uleb128 0x34
 3142 01f5 00       		.byte	0
 3143 01f6 03       		.uleb128 0x3
 3144 01f7 0E       		.uleb128 0xe
 3145 01f8 3A       		.uleb128 0x3a
 3146 01f9 0B       		.uleb128 0xb
 3147 01fa 3B       		.uleb128 0x3b
 3148 01fb 0B       		.uleb128 0xb
 3149 01fc 49       		.uleb128 0x49
 3150 01fd 13       		.uleb128 0x13
 3151 01fe 00       		.byte	0
 3152 01ff 00       		.byte	0
 3153 0200 28       		.uleb128 0x28
 3154 0201 34       		.uleb128 0x34
 3155 0202 00       		.byte	0
 3156 0203 03       		.uleb128 0x3
 3157 0204 0E       		.uleb128 0xe
 3158 0205 3A       		.uleb128 0x3a
 3159 0206 0B       		.uleb128 0xb
 3160 0207 3B       		.uleb128 0x3b
 3161 0208 0B       		.uleb128 0xb
 3162 0209 49       		.uleb128 0x49
 3163 020a 13       		.uleb128 0x13
 3164 020b 02       		.uleb128 0x2
 3165 020c 17       		.uleb128 0x17
 3166 020d 00       		.byte	0
 3167 020e 00       		.byte	0
 3168 020f 29       		.uleb128 0x29
 3169 0210 1D       		.uleb128 0x1d
 3170 0211 01       		.byte	0x1
 3171 0212 31       		.uleb128 0x31
 3172 0213 13       		.uleb128 0x13
 3173 0214 11       		.uleb128 0x11
 3174 0215 01       		.uleb128 0x1
 3175 0216 12       		.uleb128 0x12
 3176 0217 06       		.uleb128 0x6
 3177 0218 58       		.uleb128 0x58
 3178 0219 0B       		.uleb128 0xb
 3179 021a 59       		.uleb128 0x59
 3180 021b 05       		.uleb128 0x5
 3181 021c 01       		.uleb128 0x1
 3182 021d 13       		.uleb128 0x13
 3183 021e 00       		.byte	0
 3184 021f 00       		.byte	0
ARM GAS  C:\Users\RAKIBU~1\AppData\Local\Temp\cc8iSkFL.s 			page 57


 3185 0220 2A       		.uleb128 0x2a
 3186 0221 1D       		.uleb128 0x1d
 3187 0222 01       		.byte	0x1
 3188 0223 31       		.uleb128 0x31
 3189 0224 13       		.uleb128 0x13
 3190 0225 11       		.uleb128 0x11
 3191 0226 01       		.uleb128 0x1
 3192 0227 12       		.uleb128 0x12
 3193 0228 06       		.uleb128 0x6
 3194 0229 58       		.uleb128 0x58
 3195 022a 0B       		.uleb128 0xb
 3196 022b 59       		.uleb128 0x59
 3197 022c 0B       		.uleb128 0xb
 3198 022d 00       		.byte	0
 3199 022e 00       		.byte	0
 3200 022f 2B       		.uleb128 0x2b
 3201 0230 1D       		.uleb128 0x1d
 3202 0231 00       		.byte	0
 3203 0232 31       		.uleb128 0x31
 3204 0233 13       		.uleb128 0x13
 3205 0234 11       		.uleb128 0x11
 3206 0235 01       		.uleb128 0x1
 3207 0236 12       		.uleb128 0x12
 3208 0237 06       		.uleb128 0x6
 3209 0238 58       		.uleb128 0x58
 3210 0239 0B       		.uleb128 0xb
 3211 023a 59       		.uleb128 0x59
 3212 023b 0B       		.uleb128 0xb
 3213 023c 00       		.byte	0
 3214 023d 00       		.byte	0
 3215 023e 2C       		.uleb128 0x2c
 3216 023f 05       		.uleb128 0x5
 3217 0240 00       		.byte	0
 3218 0241 31       		.uleb128 0x31
 3219 0242 13       		.uleb128 0x13
 3220 0243 00       		.byte	0
 3221 0244 00       		.byte	0
 3222 0245 2D       		.uleb128 0x2d
 3223 0246 05       		.uleb128 0x5
 3224 0247 00       		.byte	0
 3225 0248 31       		.uleb128 0x31
 3226 0249 13       		.uleb128 0x13
 3227 024a 02       		.uleb128 0x2
 3228 024b 17       		.uleb128 0x17
 3229 024c 00       		.byte	0
 3230 024d 00       		.byte	0
 3231 024e 2E       		.uleb128 0x2e
 3232 024f 1D       		.uleb128 0x1d
 3233 0250 01       		.byte	0x1
 3234 0251 31       		.uleb128 0x31
 3235 0252 13       		.uleb128 0x13
 3236 0253 11       		.uleb128 0x11
 3237 0254 01       		.uleb128 0x1
 3238 0255 12       		.uleb128 0x12
 3239 0256 06       		.uleb128 0x6
 3240 0257 58       		.uleb128 0x58
 3241 0258 0B       		.uleb128 0xb
ARM GAS  C:\Users\RAKIBU~1\AppData\Local\Temp\cc8iSkFL.s 			page 58


 3242 0259 59       		.uleb128 0x59
 3243 025a 0B       		.uleb128 0xb
 3244 025b 01       		.uleb128 0x1
 3245 025c 13       		.uleb128 0x13
 3246 025d 00       		.byte	0
 3247 025e 00       		.byte	0
 3248 025f 2F       		.uleb128 0x2f
 3249 0260 898201   		.uleb128 0x4109
 3250 0263 00       		.byte	0
 3251 0264 11       		.uleb128 0x11
 3252 0265 01       		.uleb128 0x1
 3253 0266 31       		.uleb128 0x31
 3254 0267 13       		.uleb128 0x13
 3255 0268 00       		.byte	0
 3256 0269 00       		.byte	0
 3257 026a 30       		.uleb128 0x30
 3258 026b 1D       		.uleb128 0x1d
 3259 026c 01       		.byte	0x1
 3260 026d 31       		.uleb128 0x31
 3261 026e 13       		.uleb128 0x13
 3262 026f 52       		.uleb128 0x52
 3263 0270 01       		.uleb128 0x1
 3264 0271 55       		.uleb128 0x55
 3265 0272 17       		.uleb128 0x17
 3266 0273 58       		.uleb128 0x58
 3267 0274 0B       		.uleb128 0xb
 3268 0275 59       		.uleb128 0x59
 3269 0276 05       		.uleb128 0x5
 3270 0277 01       		.uleb128 0x1
 3271 0278 13       		.uleb128 0x13
 3272 0279 00       		.byte	0
 3273 027a 00       		.byte	0
 3274 027b 31       		.uleb128 0x31
 3275 027c 0B       		.uleb128 0xb
 3276 027d 01       		.byte	0x1
 3277 027e 55       		.uleb128 0x55
 3278 027f 17       		.uleb128 0x17
 3279 0280 00       		.byte	0
 3280 0281 00       		.byte	0
 3281 0282 32       		.uleb128 0x32
 3282 0283 34       		.uleb128 0x34
 3283 0284 00       		.byte	0
 3284 0285 31       		.uleb128 0x31
 3285 0286 13       		.uleb128 0x13
 3286 0287 00       		.byte	0
 3287 0288 00       		.byte	0
 3288 0289 33       		.uleb128 0x33
 3289 028a 898201   		.uleb128 0x4109
 3290 028d 01       		.byte	0x1
 3291 028e 11       		.uleb128 0x11
 3292 028f 01       		.uleb128 0x1
 3293 0290 31       		.uleb128 0x31
 3294 0291 13       		.uleb128 0x13
 3295 0292 00       		.byte	0
 3296 0293 00       		.byte	0
 3297 0294 34       		.uleb128 0x34
 3298 0295 8A8201   		.uleb128 0x410a
ARM GAS  C:\Users\RAKIBU~1\AppData\Local\Temp\cc8iSkFL.s 			page 59


 3299 0298 00       		.byte	0
 3300 0299 02       		.uleb128 0x2
 3301 029a 18       		.uleb128 0x18
 3302 029b 9142     		.uleb128 0x2111
 3303 029d 18       		.uleb128 0x18
 3304 029e 00       		.byte	0
 3305 029f 00       		.byte	0
 3306 02a0 35       		.uleb128 0x35
 3307 02a1 898201   		.uleb128 0x4109
 3308 02a4 01       		.byte	0x1
 3309 02a5 11       		.uleb128 0x11
 3310 02a6 01       		.uleb128 0x1
 3311 02a7 31       		.uleb128 0x31
 3312 02a8 13       		.uleb128 0x13
 3313 02a9 01       		.uleb128 0x1
 3314 02aa 13       		.uleb128 0x13
 3315 02ab 00       		.byte	0
 3316 02ac 00       		.byte	0
 3317 02ad 36       		.uleb128 0x36
 3318 02ae 05       		.uleb128 0x5
 3319 02af 00       		.byte	0
 3320 02b0 03       		.uleb128 0x3
 3321 02b1 0E       		.uleb128 0xe
 3322 02b2 3A       		.uleb128 0x3a
 3323 02b3 0B       		.uleb128 0xb
 3324 02b4 3B       		.uleb128 0x3b
 3325 02b5 0B       		.uleb128 0xb
 3326 02b6 49       		.uleb128 0x49
 3327 02b7 13       		.uleb128 0x13
 3328 02b8 02       		.uleb128 0x2
 3329 02b9 17       		.uleb128 0x17
 3330 02ba 00       		.byte	0
 3331 02bb 00       		.byte	0
 3332 02bc 37       		.uleb128 0x37
 3333 02bd 34       		.uleb128 0x34
 3334 02be 00       		.byte	0
 3335 02bf 03       		.uleb128 0x3
 3336 02c0 08       		.uleb128 0x8
 3337 02c1 3A       		.uleb128 0x3a
 3338 02c2 0B       		.uleb128 0xb
 3339 02c3 3B       		.uleb128 0x3b
 3340 02c4 0B       		.uleb128 0xb
 3341 02c5 49       		.uleb128 0x49
 3342 02c6 13       		.uleb128 0x13
 3343 02c7 02       		.uleb128 0x2
 3344 02c8 17       		.uleb128 0x17
 3345 02c9 00       		.byte	0
 3346 02ca 00       		.byte	0
 3347 02cb 38       		.uleb128 0x38
 3348 02cc 0B       		.uleb128 0xb
 3349 02cd 01       		.byte	0x1
 3350 02ce 11       		.uleb128 0x11
 3351 02cf 01       		.uleb128 0x1
 3352 02d0 12       		.uleb128 0x12
 3353 02d1 06       		.uleb128 0x6
 3354 02d2 01       		.uleb128 0x1
 3355 02d3 13       		.uleb128 0x13
ARM GAS  C:\Users\RAKIBU~1\AppData\Local\Temp\cc8iSkFL.s 			page 60


 3356 02d4 00       		.byte	0
 3357 02d5 00       		.byte	0
 3358 02d6 39       		.uleb128 0x39
 3359 02d7 34       		.uleb128 0x34
 3360 02d8 00       		.byte	0
 3361 02d9 03       		.uleb128 0x3
 3362 02da 08       		.uleb128 0x8
 3363 02db 3A       		.uleb128 0x3a
 3364 02dc 0B       		.uleb128 0xb
 3365 02dd 3B       		.uleb128 0x3b
 3366 02de 0B       		.uleb128 0xb
 3367 02df 49       		.uleb128 0x49
 3368 02e0 13       		.uleb128 0x13
 3369 02e1 00       		.byte	0
 3370 02e2 00       		.byte	0
 3371 02e3 3A       		.uleb128 0x3a
 3372 02e4 2E       		.uleb128 0x2e
 3373 02e5 00       		.byte	0
 3374 02e6 3F       		.uleb128 0x3f
 3375 02e7 19       		.uleb128 0x19
 3376 02e8 03       		.uleb128 0x3
 3377 02e9 0E       		.uleb128 0xe
 3378 02ea 3A       		.uleb128 0x3a
 3379 02eb 0B       		.uleb128 0xb
 3380 02ec 3B       		.uleb128 0x3b
 3381 02ed 0B       		.uleb128 0xb
 3382 02ee 27       		.uleb128 0x27
 3383 02ef 19       		.uleb128 0x19
 3384 02f0 11       		.uleb128 0x11
 3385 02f1 01       		.uleb128 0x1
 3386 02f2 12       		.uleb128 0x12
 3387 02f3 06       		.uleb128 0x6
 3388 02f4 40       		.uleb128 0x40
 3389 02f5 18       		.uleb128 0x18
 3390 02f6 9742     		.uleb128 0x2117
 3391 02f8 19       		.uleb128 0x19
 3392 02f9 00       		.byte	0
 3393 02fa 00       		.byte	0
 3394 02fb 3B       		.uleb128 0x3b
 3395 02fc 2E       		.uleb128 0x2e
 3396 02fd 00       		.byte	0
 3397 02fe 03       		.uleb128 0x3
 3398 02ff 0E       		.uleb128 0xe
 3399 0300 3A       		.uleb128 0x3a
 3400 0301 0B       		.uleb128 0xb
 3401 0302 3B       		.uleb128 0x3b
 3402 0303 0B       		.uleb128 0xb
 3403 0304 27       		.uleb128 0x27
 3404 0305 19       		.uleb128 0x19
 3405 0306 49       		.uleb128 0x49
 3406 0307 13       		.uleb128 0x13
 3407 0308 20       		.uleb128 0x20
 3408 0309 0B       		.uleb128 0xb
 3409 030a 00       		.byte	0
 3410 030b 00       		.byte	0
 3411 030c 3C       		.uleb128 0x3c
 3412 030d 2E       		.uleb128 0x2e
ARM GAS  C:\Users\RAKIBU~1\AppData\Local\Temp\cc8iSkFL.s 			page 61


 3413 030e 01       		.byte	0x1
 3414 030f 03       		.uleb128 0x3
 3415 0310 0E       		.uleb128 0xe
 3416 0311 3A       		.uleb128 0x3a
 3417 0312 0B       		.uleb128 0xb
 3418 0313 3B       		.uleb128 0x3b
 3419 0314 0B       		.uleb128 0xb
 3420 0315 27       		.uleb128 0x27
 3421 0316 19       		.uleb128 0x19
 3422 0317 20       		.uleb128 0x20
 3423 0318 0B       		.uleb128 0xb
 3424 0319 01       		.uleb128 0x1
 3425 031a 13       		.uleb128 0x13
 3426 031b 00       		.byte	0
 3427 031c 00       		.byte	0
 3428 031d 3D       		.uleb128 0x3d
 3429 031e 05       		.uleb128 0x5
 3430 031f 00       		.byte	0
 3431 0320 03       		.uleb128 0x3
 3432 0321 0E       		.uleb128 0xe
 3433 0322 3A       		.uleb128 0x3a
 3434 0323 0B       		.uleb128 0xb
 3435 0324 3B       		.uleb128 0x3b
 3436 0325 0B       		.uleb128 0xb
 3437 0326 49       		.uleb128 0x49
 3438 0327 13       		.uleb128 0x13
 3439 0328 00       		.byte	0
 3440 0329 00       		.byte	0
 3441 032a 3E       		.uleb128 0x3e
 3442 032b 2E       		.uleb128 0x2e
 3443 032c 00       		.byte	0
 3444 032d 03       		.uleb128 0x3
 3445 032e 0E       		.uleb128 0xe
 3446 032f 3A       		.uleb128 0x3a
 3447 0330 0B       		.uleb128 0xb
 3448 0331 3B       		.uleb128 0x3b
 3449 0332 0B       		.uleb128 0xb
 3450 0333 27       		.uleb128 0x27
 3451 0334 19       		.uleb128 0x19
 3452 0335 20       		.uleb128 0x20
 3453 0336 0B       		.uleb128 0xb
 3454 0337 00       		.byte	0
 3455 0338 00       		.byte	0
 3456 0339 3F       		.uleb128 0x3f
 3457 033a 2E       		.uleb128 0x2e
 3458 033b 01       		.byte	0x1
 3459 033c 03       		.uleb128 0x3
 3460 033d 0E       		.uleb128 0xe
 3461 033e 3A       		.uleb128 0x3a
 3462 033f 0B       		.uleb128 0xb
 3463 0340 3B       		.uleb128 0x3b
 3464 0341 05       		.uleb128 0x5
 3465 0342 27       		.uleb128 0x27
 3466 0343 19       		.uleb128 0x19
 3467 0344 49       		.uleb128 0x49
 3468 0345 13       		.uleb128 0x13
 3469 0346 20       		.uleb128 0x20
ARM GAS  C:\Users\RAKIBU~1\AppData\Local\Temp\cc8iSkFL.s 			page 62


 3470 0347 0B       		.uleb128 0xb
 3471 0348 01       		.uleb128 0x1
 3472 0349 13       		.uleb128 0x13
 3473 034a 00       		.byte	0
 3474 034b 00       		.byte	0
 3475 034c 40       		.uleb128 0x40
 3476 034d 05       		.uleb128 0x5
 3477 034e 00       		.byte	0
 3478 034f 03       		.uleb128 0x3
 3479 0350 0E       		.uleb128 0xe
 3480 0351 3A       		.uleb128 0x3a
 3481 0352 0B       		.uleb128 0xb
 3482 0353 3B       		.uleb128 0x3b
 3483 0354 05       		.uleb128 0x5
 3484 0355 49       		.uleb128 0x49
 3485 0356 13       		.uleb128 0x13
 3486 0357 00       		.byte	0
 3487 0358 00       		.byte	0
 3488 0359 41       		.uleb128 0x41
 3489 035a 05       		.uleb128 0x5
 3490 035b 00       		.byte	0
 3491 035c 03       		.uleb128 0x3
 3492 035d 08       		.uleb128 0x8
 3493 035e 3A       		.uleb128 0x3a
 3494 035f 0B       		.uleb128 0xb
 3495 0360 3B       		.uleb128 0x3b
 3496 0361 05       		.uleb128 0x5
 3497 0362 49       		.uleb128 0x49
 3498 0363 13       		.uleb128 0x13
 3499 0364 00       		.byte	0
 3500 0365 00       		.byte	0
 3501 0366 42       		.uleb128 0x42
 3502 0367 34       		.uleb128 0x34
 3503 0368 00       		.byte	0
 3504 0369 03       		.uleb128 0x3
 3505 036a 0E       		.uleb128 0xe
 3506 036b 49       		.uleb128 0x49
 3507 036c 13       		.uleb128 0x13
 3508 036d 34       		.uleb128 0x34
 3509 036e 19       		.uleb128 0x19
 3510 036f 1C       		.uleb128 0x1c
 3511 0370 0E       		.uleb128 0xe
 3512 0371 00       		.byte	0
 3513 0372 00       		.byte	0
 3514 0373 43       		.uleb128 0x43
 3515 0374 2E       		.uleb128 0x2e
 3516 0375 00       		.byte	0
 3517 0376 3F       		.uleb128 0x3f
 3518 0377 19       		.uleb128 0x19
 3519 0378 3C       		.uleb128 0x3c
 3520 0379 19       		.uleb128 0x19
 3521 037a 6E       		.uleb128 0x6e
 3522 037b 0E       		.uleb128 0xe
 3523 037c 03       		.uleb128 0x3
 3524 037d 0E       		.uleb128 0xe
 3525 037e 3A       		.uleb128 0x3a
 3526 037f 0B       		.uleb128 0xb
ARM GAS  C:\Users\RAKIBU~1\AppData\Local\Temp\cc8iSkFL.s 			page 63


 3527 0380 3B       		.uleb128 0x3b
 3528 0381 0B       		.uleb128 0xb
 3529 0382 00       		.byte	0
 3530 0383 00       		.byte	0
 3531 0384 00       		.byte	0
 3532              		.section	.debug_loc,"",%progbits
 3533              	.Ldebug_loc0:
 3534              	.LLST9:
 3535 0000 50010000 		.4byte	.LVL31-.Ltext0
 3536 0004 57010000 		.4byte	.LVL32-1-.Ltext0
 3537 0008 0100     		.2byte	0x1
 3538 000a 50       		.byte	0x50
 3539 000b 57010000 		.4byte	.LVL32-1-.Ltext0
 3540 000f 82010000 		.4byte	.LVL33-.Ltext0
 3541 0013 0100     		.2byte	0x1
 3542 0015 54       		.byte	0x54
 3543 0016 82010000 		.4byte	.LVL33-.Ltext0
 3544 001a 92010000 		.4byte	.LVL34-.Ltext0
 3545 001e 0400     		.2byte	0x4
 3546 0020 F3       		.byte	0xf3
 3547 0021 01       		.uleb128 0x1
 3548 0022 50       		.byte	0x50
 3549 0023 9F       		.byte	0x9f
 3550 0024 92010000 		.4byte	.LVL34-.Ltext0
 3551 0028 BC010000 		.4byte	.LVL37-.Ltext0
 3552 002c 0100     		.2byte	0x1
 3553 002e 54       		.byte	0x54
 3554 002f BC010000 		.4byte	.LVL37-.Ltext0
 3555 0033 02020000 		.4byte	.LVL43-.Ltext0
 3556 0037 0400     		.2byte	0x4
 3557 0039 F3       		.byte	0xf3
 3558 003a 01       		.uleb128 0x1
 3559 003b 50       		.byte	0x50
 3560 003c 9F       		.byte	0x9f
 3561 003d 02020000 		.4byte	.LVL43-.Ltext0
 3562 0041 08020000 		.4byte	.LVL45-.Ltext0
 3563 0045 0100     		.2byte	0x1
 3564 0047 54       		.byte	0x54
 3565 0048 08020000 		.4byte	.LVL45-.Ltext0
 3566 004c 38020000 		.4byte	.LFE297-.Ltext0
 3567 0050 0400     		.2byte	0x4
 3568 0052 F3       		.byte	0xf3
 3569 0053 01       		.uleb128 0x1
 3570 0054 50       		.byte	0x50
 3571 0055 9F       		.byte	0x9f
 3572 0056 00000000 		.4byte	0
 3573 005a 00000000 		.4byte	0
 3574              	.LLST10:
 3575 005e EC010000 		.4byte	.LVL40-.Ltext0
 3576 0062 F4010000 		.4byte	.LVL41-.Ltext0
 3577 0066 0600     		.2byte	0x6
 3578 0068 50       		.byte	0x50
 3579 0069 93       		.byte	0x93
 3580 006a 04       		.uleb128 0x4
 3581 006b 51       		.byte	0x51
 3582 006c 93       		.byte	0x93
 3583 006d 04       		.uleb128 0x4
ARM GAS  C:\Users\RAKIBU~1\AppData\Local\Temp\cc8iSkFL.s 			page 64


 3584 006e F4010000 		.4byte	.LVL41-.Ltext0
 3585 0072 00020000 		.4byte	.LVL42-.Ltext0
 3586 0076 0600     		.2byte	0x6
 3587 0078 54       		.byte	0x54
 3588 0079 93       		.byte	0x93
 3589 007a 04       		.uleb128 0x4
 3590 007b 55       		.byte	0x55
 3591 007c 93       		.byte	0x93
 3592 007d 04       		.uleb128 0x4
 3593 007e 08020000 		.4byte	.LVL45-.Ltext0
 3594 0082 0E020000 		.4byte	.LVL46-.Ltext0
 3595 0086 0600     		.2byte	0x6
 3596 0088 50       		.byte	0x50
 3597 0089 93       		.byte	0x93
 3598 008a 04       		.uleb128 0x4
 3599 008b 51       		.byte	0x51
 3600 008c 93       		.byte	0x93
 3601 008d 04       		.uleb128 0x4
 3602 008e 0E020000 		.4byte	.LVL46-.Ltext0
 3603 0092 16020000 		.4byte	.LVL47-.Ltext0
 3604 0096 0600     		.2byte	0x6
 3605 0098 54       		.byte	0x54
 3606 0099 93       		.byte	0x93
 3607 009a 04       		.uleb128 0x4
 3608 009b 55       		.byte	0x55
 3609 009c 93       		.byte	0x93
 3610 009d 04       		.uleb128 0x4
 3611 009e 1E020000 		.4byte	.LVL49-.Ltext0
 3612 00a2 38020000 		.4byte	.LFE297-.Ltext0
 3613 00a6 0600     		.2byte	0x6
 3614 00a8 54       		.byte	0x54
 3615 00a9 93       		.byte	0x93
 3616 00aa 04       		.uleb128 0x4
 3617 00ab 55       		.byte	0x55
 3618 00ac 93       		.byte	0x93
 3619 00ad 04       		.uleb128 0x4
 3620 00ae 00000000 		.4byte	0
 3621 00b2 00000000 		.4byte	0
 3622              	.LLST11:
 3623 00b6 D4010000 		.4byte	.LVL38-.Ltext0
 3624 00ba D8010000 		.4byte	.LVL39-.Ltext0
 3625 00be 0100     		.2byte	0x1
 3626 00c0 56       		.byte	0x56
 3627 00c1 00000000 		.4byte	0
 3628 00c5 00000000 		.4byte	0
 3629              	.LLST12:
 3630 00c9 0E020000 		.4byte	.LVL46-.Ltext0
 3631 00cd 16020000 		.4byte	.LVL47-.Ltext0
 3632 00d1 0600     		.2byte	0x6
 3633 00d3 54       		.byte	0x54
 3634 00d4 93       		.byte	0x93
 3635 00d5 04       		.uleb128 0x4
 3636 00d6 55       		.byte	0x55
 3637 00d7 93       		.byte	0x93
 3638 00d8 04       		.uleb128 0x4
 3639 00d9 1E020000 		.4byte	.LVL49-.Ltext0
 3640 00dd 38020000 		.4byte	.LFE297-.Ltext0
ARM GAS  C:\Users\RAKIBU~1\AppData\Local\Temp\cc8iSkFL.s 			page 65


 3641 00e1 0600     		.2byte	0x6
 3642 00e3 54       		.byte	0x54
 3643 00e4 93       		.byte	0x93
 3644 00e5 04       		.uleb128 0x4
 3645 00e6 55       		.byte	0x55
 3646 00e7 93       		.byte	0x93
 3647 00e8 04       		.uleb128 0x4
 3648 00e9 00000000 		.4byte	0
 3649 00ed 00000000 		.4byte	0
 3650              	.LLST13:
 3651 00f1 0E020000 		.4byte	.LVL46-.Ltext0
 3652 00f5 16020000 		.4byte	.LVL47-.Ltext0
 3653 00f9 0100     		.2byte	0x1
 3654 00fb 56       		.byte	0x56
 3655 00fc 1E020000 		.4byte	.LVL49-.Ltext0
 3656 0100 38020000 		.4byte	.LFE297-.Ltext0
 3657 0104 0100     		.2byte	0x1
 3658 0106 56       		.byte	0x56
 3659 0107 00000000 		.4byte	0
 3660 010b 00000000 		.4byte	0
 3661              	.LLST0:
 3662 010f 20000000 		.4byte	.LVL0-.Ltext0
 3663 0113 2F000000 		.4byte	.LVL1-1-.Ltext0
 3664 0117 0100     		.2byte	0x1
 3665 0119 50       		.byte	0x50
 3666 011a 2F000000 		.4byte	.LVL1-1-.Ltext0
 3667 011e 3E010000 		.4byte	.LVL30-.Ltext0
 3668 0122 0100     		.2byte	0x1
 3669 0124 55       		.byte	0x55
 3670 0125 3E010000 		.4byte	.LVL30-.Ltext0
 3671 0129 48010000 		.4byte	.LFE296-.Ltext0
 3672 012d 0400     		.2byte	0x4
 3673 012f F3       		.byte	0xf3
 3674 0130 01       		.uleb128 0x1
 3675 0131 50       		.byte	0x50
 3676 0132 9F       		.byte	0x9f
 3677 0133 00000000 		.4byte	0
 3678 0137 00000000 		.4byte	0
 3679              	.LLST1:
 3680 013b 20000000 		.4byte	.LVL0-.Ltext0
 3681 013f 2F000000 		.4byte	.LVL1-1-.Ltext0
 3682 0143 0600     		.2byte	0x6
 3683 0145 52       		.byte	0x52
 3684 0146 93       		.byte	0x93
 3685 0147 04       		.uleb128 0x4
 3686 0148 53       		.byte	0x53
 3687 0149 93       		.byte	0x93
 3688 014a 04       		.uleb128 0x4
 3689 014b 2F000000 		.4byte	.LVL1-1-.Ltext0
 3690 014f 54000000 		.4byte	.LVL3-.Ltext0
 3691 0153 0600     		.2byte	0x6
 3692 0155 F3       		.byte	0xf3
 3693 0156 03       		.uleb128 0x3
 3694 0157 F5       		.byte	0xf5
 3695 0158 02       		.uleb128 0x2
 3696 0159 25       		.uleb128 0x25
 3697 015a 9F       		.byte	0x9f
ARM GAS  C:\Users\RAKIBU~1\AppData\Local\Temp\cc8iSkFL.s 			page 66


 3698 015b 54000000 		.4byte	.LVL3-.Ltext0
 3699 015f 86000000 		.4byte	.LVL12-.Ltext0
 3700 0163 0600     		.2byte	0x6
 3701 0165 56       		.byte	0x56
 3702 0166 93       		.byte	0x93
 3703 0167 04       		.uleb128 0x4
 3704 0168 57       		.byte	0x57
 3705 0169 93       		.byte	0x93
 3706 016a 04       		.uleb128 0x4
 3707 016b 86000000 		.4byte	.LVL12-.Ltext0
 3708 016f 8C000000 		.4byte	.LVL13-.Ltext0
 3709 0173 0600     		.2byte	0x6
 3710 0175 F3       		.byte	0xf3
 3711 0176 03       		.uleb128 0x3
 3712 0177 F5       		.byte	0xf5
 3713 0178 02       		.uleb128 0x2
 3714 0179 25       		.uleb128 0x25
 3715 017a 9F       		.byte	0x9f
 3716 017b 8C000000 		.4byte	.LVL13-.Ltext0
 3717 017f A6000000 		.4byte	.LVL14-.Ltext0
 3718 0183 0600     		.2byte	0x6
 3719 0185 56       		.byte	0x56
 3720 0186 93       		.byte	0x93
 3721 0187 04       		.uleb128 0x4
 3722 0188 57       		.byte	0x57
 3723 0189 93       		.byte	0x93
 3724 018a 04       		.uleb128 0x4
 3725 018b A6000000 		.4byte	.LVL14-.Ltext0
 3726 018f AE000000 		.4byte	.LVL16-.Ltext0
 3727 0193 0A00     		.2byte	0xa
 3728 0195 9E       		.byte	0x9e
 3729 0196 08       		.uleb128 0x8
 3730 0197 FFFFFFFF 		.8byte	0xffffffff
 3730      00000000 
 3731 019f BC000000 		.4byte	.LVL20-.Ltext0
 3732 01a3 26010000 		.4byte	.LVL28-.Ltext0
 3733 01a7 0600     		.2byte	0x6
 3734 01a9 56       		.byte	0x56
 3735 01aa 93       		.byte	0x93
 3736 01ab 04       		.uleb128 0x4
 3737 01ac 57       		.byte	0x57
 3738 01ad 93       		.byte	0x93
 3739 01ae 04       		.uleb128 0x4
 3740 01af 00000000 		.4byte	0
 3741 01b3 00000000 		.4byte	0
 3742              	.LLST2:
 3743 01b7 20000000 		.4byte	.LVL0-.Ltext0
 3744 01bb 3E010000 		.4byte	.LVL30-.Ltext0
 3745 01bf 0200     		.2byte	0x2
 3746 01c1 91       		.byte	0x91
 3747 01c2 00       		.sleb128 0
 3748 01c3 3E010000 		.4byte	.LVL30-.Ltext0
 3749 01c7 48010000 		.4byte	.LFE296-.Ltext0
 3750 01cb 0200     		.2byte	0x2
 3751 01cd 7D       		.byte	0x7d
 3752 01ce 00       		.sleb128 0
 3753 01cf 00000000 		.4byte	0
ARM GAS  C:\Users\RAKIBU~1\AppData\Local\Temp\cc8iSkFL.s 			page 67


 3754 01d3 00000000 		.4byte	0
 3755              	.LLST3:
 3756 01d7 20000000 		.4byte	.LVL0-.Ltext0
 3757 01db 3E010000 		.4byte	.LVL30-.Ltext0
 3758 01df 0200     		.2byte	0x2
 3759 01e1 91       		.byte	0x91
 3760 01e2 04       		.sleb128 4
 3761 01e3 3E010000 		.4byte	.LVL30-.Ltext0
 3762 01e7 48010000 		.4byte	.LFE296-.Ltext0
 3763 01eb 0200     		.2byte	0x2
 3764 01ed 7D       		.byte	0x7d
 3765 01ee 04       		.sleb128 4
 3766 01ef 00000000 		.4byte	0
 3767 01f3 00000000 		.4byte	0
 3768              	.LLST4:
 3769 01f7 5E000000 		.4byte	.LVL4-.Ltext0
 3770 01fb 86000000 		.4byte	.LVL12-.Ltext0
 3771 01ff 0100     		.2byte	0x1
 3772 0201 54       		.byte	0x54
 3773 0202 BC000000 		.4byte	.LVL20-.Ltext0
 3774 0206 3A010000 		.4byte	.LVL29-.Ltext0
 3775 020a 0100     		.2byte	0x1
 3776 020c 54       		.byte	0x54
 3777 020d 00000000 		.4byte	0
 3778 0211 00000000 		.4byte	0
 3779              	.LLST5:
 3780 0215 6E000000 		.4byte	.LVL8-.Ltext0
 3781 0219 7E000000 		.4byte	.LVL9-.Ltext0
 3782 021d 0600     		.2byte	0x6
 3783 021f 58       		.byte	0x58
 3784 0220 93       		.byte	0x93
 3785 0221 04       		.uleb128 0x4
 3786 0222 59       		.byte	0x59
 3787 0223 93       		.byte	0x93
 3788 0224 04       		.uleb128 0x4
 3789 0225 82000000 		.4byte	.LVL10-.Ltext0
 3790 0229 86000000 		.4byte	.LVL12-.Ltext0
 3791 022d 0600     		.2byte	0x6
 3792 022f 58       		.byte	0x58
 3793 0230 93       		.byte	0x93
 3794 0231 04       		.uleb128 0x4
 3795 0232 59       		.byte	0x59
 3796 0233 93       		.byte	0x93
 3797 0234 04       		.uleb128 0x4
 3798 0235 BC000000 		.4byte	.LVL20-.Ltext0
 3799 0239 EC000000 		.4byte	.LVL24-.Ltext0
 3800 023d 0600     		.2byte	0x6
 3801 023f 58       		.byte	0x58
 3802 0240 93       		.byte	0x93
 3803 0241 04       		.uleb128 0x4
 3804 0242 59       		.byte	0x59
 3805 0243 93       		.byte	0x93
 3806 0244 04       		.uleb128 0x4
 3807 0245 F0000000 		.4byte	.LVL25-.Ltext0
 3808 0249 3A010000 		.4byte	.LVL29-.Ltext0
 3809 024d 0600     		.2byte	0x6
 3810 024f 58       		.byte	0x58
ARM GAS  C:\Users\RAKIBU~1\AppData\Local\Temp\cc8iSkFL.s 			page 68


 3811 0250 93       		.byte	0x93
 3812 0251 04       		.uleb128 0x4
 3813 0252 59       		.byte	0x59
 3814 0253 93       		.byte	0x93
 3815 0254 04       		.uleb128 0x4
 3816 0255 00000000 		.4byte	0
 3817 0259 00000000 		.4byte	0
 3818              	.LLST8:
 3819 025d C8000000 		.4byte	.LVL21-.Ltext0
 3820 0261 E4000000 		.4byte	.LVL23-.Ltext0
 3821 0265 0600     		.2byte	0x6
 3822 0267 58       		.byte	0x58
 3823 0268 93       		.byte	0x93
 3824 0269 04       		.uleb128 0x4
 3825 026a 59       		.byte	0x59
 3826 026b 93       		.byte	0x93
 3827 026c 04       		.uleb128 0x4
 3828 026d 00000000 		.4byte	0
 3829 0271 00000000 		.4byte	0
 3830              	.LLST6:
 3831 0275 62000000 		.4byte	.LVL5-.Ltext0
 3832 0279 64000000 		.4byte	.LVL6-.Ltext0
 3833 027d 0100     		.2byte	0x1
 3834 027f 52       		.byte	0x52
 3835 0280 00000000 		.4byte	0
 3836 0284 00000000 		.4byte	0
 3837              	.LLST7:
 3838 0288 62000000 		.4byte	.LVL5-.Ltext0
 3839 028c 66000000 		.4byte	.LVL7-.Ltext0
 3840 0290 0100     		.2byte	0x1
 3841 0292 51       		.byte	0x51
 3842 0293 00000000 		.4byte	0
 3843 0297 00000000 		.4byte	0
 3844              		.section	.debug_aranges,"",%progbits
 3845 0000 1C000000 		.4byte	0x1c
 3846 0004 0200     		.2byte	0x2
 3847 0006 00000000 		.4byte	.Ldebug_info0
 3848 000a 04       		.byte	0x4
 3849 000b 00       		.byte	0
 3850 000c 0000     		.2byte	0
 3851 000e 0000     		.2byte	0
 3852 0010 00000000 		.4byte	.Ltext0
 3853 0014 38020000 		.4byte	.Letext0-.Ltext0
 3854 0018 00000000 		.4byte	0
 3855 001c 00000000 		.4byte	0
 3856              		.section	.debug_ranges,"",%progbits
 3857              	.Ldebug_ranges0:
 3858 0000 0E020000 		.4byte	.LBB60-.Ltext0
 3859 0004 16020000 		.4byte	.LBE60-.Ltext0
 3860 0008 1E020000 		.4byte	.LBB65-.Ltext0
 3861 000c 38020000 		.4byte	.LBE65-.Ltext0
 3862 0010 00000000 		.4byte	0
 3863 0014 00000000 		.4byte	0
 3864              		.section	.debug_line,"",%progbits
 3865              	.Ldebug_line0:
 3866 0000 7F050000 		.section	.debug_str,"MS",%progbits,1
 3866      02009004 
ARM GAS  C:\Users\RAKIBU~1\AppData\Local\Temp\cc8iSkFL.s 			page 69


 3866      00000201 
 3866      FB0E0D00 
 3866      01010101 
 3867              	.LASF56:
 3868 0000 72656164 		.ascii	"ready_list_t\000"
 3868      795F6C69 
 3868      73745F74 
 3868      00
 3869              	.LASF90:
 3870 000d 44494552 		.ascii	"DIER\000"
 3870      00
 3871              	.LASF5:
 3872 0012 73697A65 		.ascii	"size_t\000"
 3872      5F7400
 3873              	.LASF52:
 3874 0019 6E657874 		.ascii	"next\000"
 3874      00
 3875              	.LASF62:
 3876 001e 64656C74 		.ascii	"delta\000"
 3876      6100
 3877              	.LASF124:
 3878 0024 7264796D 		.ascii	"rdymsg\000"
 3878      736700
 3879              	.LASF20:
 3880 002b 75696E74 		.ascii	"uint64_t\000"
 3880      36345F74 
 3880      00
 3881              	.LASF78:
 3882 0034 6B65726E 		.ascii	"kernel_stats\000"
 3882      656C5F73 
 3882      74617473 
 3882      00
 3883              	.LASF135:
 3884 0041 6964656E 		.ascii	"identifier\000"
 3884      74696669 
 3884      657200
 3885              	.LASF28:
 3886 004c 6576656E 		.ascii	"eventmask_t\000"
 3886      746D6173 
 3886      6B5F7400 
 3887              	.LASF6:
 3888 0058 5F5F7569 		.ascii	"__uint8_t\000"
 3888      6E74385F 
 3888      7400
 3889              	.LASF55:
 3890 0062 70726576 		.ascii	"prev\000"
 3890      00
 3891              	.LASF88:
 3892 0067 706F7274 		.ascii	"port_intctx\000"
 3892      5F696E74 
 3892      63747800 
 3893              	.LASF54:
 3894 0073 63685F74 		.ascii	"ch_threads_queue\000"
 3894      68726561 
 3894      64735F71 
 3894      75657565 
 3894      00
ARM GAS  C:\Users\RAKIBU~1\AppData\Local\Temp\cc8iSkFL.s 			page 70


 3895              	.LASF67:
 3896 0084 73797374 		.ascii	"system_debug_t\000"
 3896      656D5F64 
 3896      65627567 
 3896      5F7400
 3897              	.LASF92:
 3898 0093 43434D52 		.ascii	"CCMR2\000"
 3898      3200
 3899              	.LASF164:
 3900 0099 70726F76 		.ascii	"provider\000"
 3900      69646572 
 3900      00
 3901              	.LASF104:
 3902 00a2 74797065 		.ascii	"type\000"
 3902      00
 3903              	.LASF174:
 3904 00a7 73656D5F 		.ascii	"sem_list\000"
 3904      6C697374 
 3904      00
 3905              	.LASF87:
 3906 00b0 706F7274 		.ascii	"port_context\000"
 3906      5F636F6E 
 3906      74657874 
 3906      00
 3907              	.LASF115:
 3908 00bd 776F7273 		.ascii	"worst\000"
 3908      7400
 3909              	.LASF118:
 3910 00c3 74696D65 		.ascii	"time_measurement_t\000"
 3910      5F6D6561 
 3910      73757265 
 3910      6D656E74 
 3910      5F7400
 3911              	.LASF0:
 3912 00d6 6C6F6E67 		.ascii	"long long unsigned int\000"
 3912      206C6F6E 
 3912      6720756E 
 3912      7369676E 
 3912      65642069 
 3913              	.LASF111:
 3914 00ed 63685F74 		.ascii	"ch_trace_buffer_t\000"
 3914      72616365 
 3914      5F627566 
 3914      6665725F 
 3914      7400
 3915              	.LASF183:
 3916 00ff 63685654 		.ascii	"chVTDoResetI\000"
 3916      446F5265 
 3916      73657449 
 3916      00
 3917              	.LASF125:
 3918 010c 65786974 		.ascii	"exitcode\000"
 3918      636F6465 
 3918      00
 3919              	.LASF77:
 3920 0115 6D61696E 		.ascii	"mainthread\000"
 3920      74687265 
ARM GAS  C:\Users\RAKIBU~1\AppData\Local\Temp\cc8iSkFL.s 			page 71


 3920      616400
 3921              	.LASF127:
 3922 0120 73656E74 		.ascii	"sentmsg\000"
 3922      6D736700 
 3923              	.LASF64:
 3924 0128 76697274 		.ascii	"virtual_timers_list_t\000"
 3924      75616C5F 
 3924      74696D65 
 3924      72735F6C 
 3924      6973745F 
 3925              	.LASF81:
 3926 013e 49544D5F 		.ascii	"ITM_RxBuffer\000"
 3926      52784275 
 3926      66666572 
 3926      00
 3927              	.LASF63:
 3928 014b 66756E63 		.ascii	"func\000"
 3928      00
 3929              	.LASF163:
 3930 0150 616C6967 		.ascii	"align\000"
 3930      6E00
 3931              	.LASF22:
 3932 0156 72747469 		.ascii	"rttime_t\000"
 3932      6D655F74 
 3932      00
 3933              	.LASF91:
 3934 015f 43434D52 		.ascii	"CCMR1\000"
 3934      3100
 3935              	.LASF206:
 3936 0165 5F76745F 		.ascii	"_vt_init\000"
 3936      696E6974 
 3936      00
 3937              	.LASF96:
 3938 016e 43434D52 		.ascii	"CCMR3\000"
 3938      3300
 3939              	.LASF4:
 3940 0174 7369676E 		.ascii	"signed char\000"
 3940      65642063 
 3940      68617200 
 3941              	.LASF166:
 3942 0180 63685F64 		.ascii	"ch_dyn_element\000"
 3942      796E5F65 
 3942      6C656D65 
 3942      6E7400
 3943              	.LASF75:
 3944 018f 726C6973 		.ascii	"rlist\000"
 3944      7400
 3945              	.LASF193:
 3946 0195 73746172 		.ascii	"start\000"
 3946      7400
 3947              	.LASF76:
 3948 019b 76746C69 		.ascii	"vtlist\000"
 3948      737400
 3949              	.LASF38:
 3950 01a2 73746174 		.ascii	"state\000"
 3950      6500
 3951              	.LASF12:
ARM GAS  C:\Users\RAKIBU~1\AppData\Local\Temp\cc8iSkFL.s 			page 72


 3952 01a8 6C6F6E67 		.ascii	"long int\000"
 3952      20696E74 
 3952      00
 3953              	.LASF108:
 3954 01b1 73757370 		.ascii	"suspended\000"
 3954      656E6465 
 3954      6400
 3955              	.LASF23:
 3956 01bb 746D6F64 		.ascii	"tmode_t\000"
 3956      655F7400 
 3957              	.LASF24:
 3958 01c3 74737461 		.ascii	"tstate_t\000"
 3958      74655F74 
 3958      00
 3959              	.LASF107:
 3960 01cc 63685F74 		.ascii	"ch_trace_event_t\000"
 3960      72616365 
 3960      5F657665 
 3960      6E745F74 
 3960      00
 3961              	.LASF1:
 3962 01dd 756E7369 		.ascii	"unsigned int\000"
 3962      676E6564 
 3962      20696E74 
 3962      00
 3963              	.LASF47:
 3964 01ea 73746174 		.ascii	"stats\000"
 3964      7300
 3965              	.LASF93:
 3966 01f0 43434552 		.ascii	"CCER\000"
 3966      00
 3967              	.LASF2:
 3968 01f5 6C6F6E67 		.ascii	"long long int\000"
 3968      206C6F6E 
 3968      6720696E 
 3968      7400
 3969              	.LASF17:
 3970 0203 75696E74 		.ascii	"uint16_t\000"
 3970      31365F74 
 3970      00
 3971              	.LASF152:
 3972 020c 63686465 		.ascii	"chdebug_t\000"
 3972      6275675F 
 3972      7400
 3973              	.LASF150:
 3974 0216 6F66665F 		.ascii	"off_preempt\000"
 3974      70726565 
 3974      6D707400 
 3975              	.LASF110:
 3976 0222 62756666 		.ascii	"buffer\000"
 3976      657200
 3977              	.LASF35:
 3978 0229 6F6C6465 		.ascii	"older\000"
 3978      7200
 3979              	.LASF149:
 3980 022f 6F66665F 		.ascii	"off_refs\000"
 3980      72656673 
ARM GAS  C:\Users\RAKIBU~1\AppData\Local\Temp\cc8iSkFL.s 			page 73


 3980      00
 3981              	.LASF197:
 3982 0238 696E7465 		.ascii	"interval\000"
 3982      7276616C 
 3982      00
 3983              	.LASF13:
 3984 0241 5F5F7569 		.ascii	"__uint32_t\000"
 3984      6E743332 
 3984      5F7400
 3985              	.LASF85:
 3986 024c 72656761 		.ascii	"regarm_t\000"
 3986      726D5F74 
 3986      00
 3987              	.LASF176:
 3988 0255 6D62785F 		.ascii	"mbx_list\000"
 3988      6C697374 
 3988      00
 3989              	.LASF68:
 3990 025e 63685F73 		.ascii	"ch_system_debug\000"
 3990      79737465 
 3990      6D5F6465 
 3990      62756700 
 3991              	.LASF41:
 3992 026e 77616974 		.ascii	"waiting\000"
 3992      696E6700 
 3993              	.LASF84:
 3994 0276 41504250 		.ascii	"APBPrescTable\000"
 3994      72657363 
 3994      5461626C 
 3994      6500
 3995              	.LASF136:
 3996 0284 7A65726F 		.ascii	"zero\000"
 3996      00
 3997              	.LASF154:
 3998 0289 6D757465 		.ascii	"mutex_t\000"
 3998      785F7400 
 3999              	.LASF71:
 4000 0291 6C6F636B 		.ascii	"lock_cnt\000"
 4000      5F636E74 
 4000      00
 4001              	.LASF80:
 4002 029a 73797369 		.ascii	"sysinterval_t\000"
 4002      6E746572 
 4002      76616C5F 
 4002      7400
 4003              	.LASF29:
 4004 02a8 636E745F 		.ascii	"cnt_t\000"
 4004      7400
 4005              	.LASF188:
 4006 02ae 63685654 		.ascii	"chVTGetSystemTimeX\000"
 4006      47657453 
 4006      79737465 
 4006      6D54696D 
 4006      655800
 4007              	.LASF182:
 4008 02c1 6E6F7764 		.ascii	"nowdelta\000"
 4008      656C7461 
ARM GAS  C:\Users\RAKIBU~1\AppData\Local\Temp\cc8iSkFL.s 			page 74


 4008      00
 4009              	.LASF187:
 4010 02ca 64656164 		.ascii	"deadline_delta\000"
 4010      6C696E65 
 4010      5F64656C 
 4010      746100
 4011              	.LASF82:
 4012 02d9 53797374 		.ascii	"SystemCoreClock\000"
 4012      656D436F 
 4012      7265436C 
 4012      6F636B00 
 4013              	.LASF128:
 4014 02e9 77747365 		.ascii	"wtsemp\000"
 4014      6D7000
 4015              	.LASF126:
 4016 02f0 77747472 		.ascii	"wttrp\000"
 4016      7000
 4017              	.LASF153:
 4018 02f6 63685F64 		.ascii	"ch_debug\000"
 4018      65627567 
 4018      00
 4019              	.LASF180:
 4020 02ff 63685F66 		.ascii	"ch_factory\000"
 4020      6163746F 
 4020      727900
 4021              	.LASF165:
 4022 030a 6D656D6F 		.ascii	"memory_pool_t\000"
 4022      72795F70 
 4022      6F6F6C5F 
 4022      7400
 4023              	.LASF119:
 4024 0318 6E5F6972 		.ascii	"n_irq\000"
 4024      7100
 4025              	.LASF32:
 4026 031e 71756575 		.ascii	"queue\000"
 4026      6500
 4027              	.LASF46:
 4028 0324 6D706F6F 		.ascii	"mpool\000"
 4028      6C00
 4029              	.LASF205:
 4030 032a 433A5C55 		.ascii	"C:\\Users\\RakibulChowdhury\\OneDrive - DIAS Geophy"
 4030      73657273 
 4030      5C52616B 
 4030      6962756C 
 4030      43686F77 
 4031 035a 73696361 		.ascii	"sical\\Dias32FirmwareDevelopment\\FirmwareRepo\\Dia"
 4031      6C5C4469 
 4031      61733332 
 4031      4669726D 
 4031      77617265 
 4032 038a 73333257 		.ascii	"s32Workspace\\DIAS-Gen2-Rakibul\000"
 4032      6F726B73 
 4032      70616365 
 4032      5C444941 
 4032      532D4765 
 4033              	.LASF123:
 4034 03a9 6B65726E 		.ascii	"kernel_stats_t\000"
ARM GAS  C:\Users\RAKIBU~1\AppData\Local\Temp\cc8iSkFL.s 			page 75


 4034      656C5F73 
 4034      74617473 
 4034      5F7400
 4035              	.LASF36:
 4036 03b8 6E616D65 		.ascii	"name\000"
 4036      00
 4037              	.LASF50:
 4038 03bd 63685F74 		.ascii	"ch_thread\000"
 4038      68726561 
 4038      6400
 4039              	.LASF191:
 4040 03c7 706F7274 		.ascii	"port_timer_start_alarm\000"
 4040      5F74696D 
 4040      65725F73 
 4040      74617274 
 4040      5F616C61 
 4041              	.LASF30:
 4042 03de 75636E74 		.ascii	"ucnt_t\000"
 4042      5F7400
 4043              	.LASF43:
 4044 03e5 6570656E 		.ascii	"epending\000"
 4044      64696E67 
 4044      00
 4045              	.LASF201:
 4046 03ee 63684462 		.ascii	"chDbgCheckClassI\000"
 4046      67436865 
 4046      636B436C 
 4046      61737349 
 4046      00
 4047              	.LASF73:
 4048 03ff 63685F73 		.ascii	"ch_system_t\000"
 4048      79737465 
 4048      6D5F7400 
 4049              	.LASF142:
 4050 040b 6F66665F 		.ascii	"off_ctx\000"
 4050      63747800 
 4051              	.LASF204:
 4052 0413 2E2E2F2E 		.ascii	"../../../ChibiOSRepo/chibios191/os/rt/src/chvt.c\000"
 4052      2E2F2E2E 
 4052      2F436869 
 4052      62694F53 
 4052      5265706F 
 4053              	.LASF98:
 4054 0444 73746D33 		.ascii	"stm32_tim_t\000"
 4054      325F7469 
 4054      6D5F7400 
 4055              	.LASF196:
 4056 0450 73797374 		.ascii	"systime\000"
 4056      696D6500 
 4057              	.LASF122:
 4058 0458 6D5F6372 		.ascii	"m_crit_isr\000"
 4058      69745F69 
 4058      737200
 4059              	.LASF57:
 4060 0463 63685F72 		.ascii	"ch_ready_list\000"
 4060      65616479 
 4060      5F6C6973 
ARM GAS  C:\Users\RAKIBU~1\AppData\Local\Temp\cc8iSkFL.s 			page 76


 4060      7400
 4061              	.LASF184:
 4062 0471 63685654 		.ascii	"chVTDoSetI\000"
 4062      446F5365 
 4062      744900
 4063              	.LASF158:
 4064 047c 656E646D 		.ascii	"endmem\000"
 4064      656D00
 4065              	.LASF11:
 4066 0483 5F5F696E 		.ascii	"__int32_t\000"
 4066      7433325F 
 4066      7400
 4067              	.LASF42:
 4068 048d 6D736771 		.ascii	"msgqueue\000"
 4068      75657565 
 4068      00
 4069              	.LASF86:
 4070 0496 73746B61 		.ascii	"stkalign_t\000"
 4070      6C69676E 
 4070      5F7400
 4071              	.LASF34:
 4072 04a1 6E657765 		.ascii	"newer\000"
 4072      7200
 4073              	.LASF105:
 4074 04a7 72747374 		.ascii	"rtstamp\000"
 4074      616D7000 
 4075              	.LASF151:
 4076 04af 6F66665F 		.ascii	"off_time\000"
 4076      74696D65 
 4076      00
 4077              	.LASF45:
 4078 04b8 7265616C 		.ascii	"realprio\000"
 4078      7072696F 
 4078      00
 4079              	.LASF137:
 4080 04c1 76657273 		.ascii	"version\000"
 4080      696F6E00 
 4081              	.LASF199:
 4082 04c9 63685379 		.ascii	"chSysHalt\000"
 4082      7348616C 
 4082      7400
 4083              	.LASF21:
 4084 04d3 7274636E 		.ascii	"rtcnt_t\000"
 4084      745F7400 
 4085              	.LASF167:
 4086 04db 64796E5F 		.ascii	"dyn_element_t\000"
 4086      656C656D 
 4086      656E745F 
 4086      7400
 4087              	.LASF65:
 4088 04e9 63685F76 		.ascii	"ch_virtual_timers_list\000"
 4088      69727475 
 4088      616C5F74 
 4088      696D6572 
 4088      735F6C69 
 4089              	.LASF3:
 4090 0500 6C6F6E67 		.ascii	"long double\000"
ARM GAS  C:\Users\RAKIBU~1\AppData\Local\Temp\cc8iSkFL.s 			page 77


 4090      20646F75 
 4090      626C6500 
 4091              	.LASF168:
 4092 050c 63685F64 		.ascii	"ch_dyn_list\000"
 4092      796E5F6C 
 4092      69737400 
 4093              	.LASF143:
 4094 0518 6F66665F 		.ascii	"off_newer\000"
 4094      6E657765 
 4094      7200
 4095              	.LASF169:
 4096 0522 64796E5F 		.ascii	"dyn_list_t\000"
 4096      6C697374 
 4096      5F7400
 4097              	.LASF113:
 4098 052d 746D5F63 		.ascii	"tm_calibration_t\000"
 4098      616C6962 
 4098      72617469 
 4098      6F6E5F74 
 4098      00
 4099              	.LASF203:
 4100 053e 474E5520 		.ascii	"GNU C11 7.2.1 20170904 (release) [ARM/embedded-7-br"
 4100      43313120 
 4100      372E322E 
 4100      31203230 
 4100      31373039 
 4101 0571 616E6368 		.ascii	"anch revision 255204] -mcpu=cortex-m4 -mthumb -ggdb"
 4101      20726576 
 4101      6973696F 
 4101      6E203235 
 4101      35323034 
 4102 05a4 202D4F67 		.ascii	" -Og -fomit-frame-pointer -falign-functions=16\000"
 4102      202D666F 
 4102      6D69742D 
 4102      6672616D 
 4102      652D706F 
 4103              	.LASF106:
 4104 05d3 74696D65 		.ascii	"time\000"
 4104      00
 4105              	.LASF33:
 4106 05d8 7072696F 		.ascii	"prio\000"
 4106      00
 4107              	.LASF175:
 4108 05dd 73656D5F 		.ascii	"sem_pool\000"
 4108      706F6F6C 
 4108      00
 4109              	.LASF58:
 4110 05e6 63757272 		.ascii	"current\000"
 4110      656E7400 
 4111              	.LASF195:
 4112 05ee 63685469 		.ascii	"chTimeAddX\000"
 4112      6D654164 
 4112      645800
 4113              	.LASF15:
 4114 05f9 5F5F7569 		.ascii	"__uint64_t\000"
 4114      6E743634 
 4114      5F7400
ARM GAS  C:\Users\RAKIBU~1\AppData\Local\Temp\cc8iSkFL.s 			page 78


 4115              	.LASF159:
 4116 0604 6D656D63 		.ascii	"memcore_t\000"
 4116      6F72655F 
 4116      7400
 4117              	.LASF117:
 4118 060e 63756D75 		.ascii	"cumulative\000"
 4118      6C617469 
 4118      766500
 4119              	.LASF25:
 4120 0619 74726566 		.ascii	"trefs_t\000"
 4120      735F7400 
 4121              	.LASF140:
 4122 0621 74687265 		.ascii	"threadsize\000"
 4122      61647369 
 4122      7A6500
 4123              	.LASF40:
 4124 062c 72656673 		.ascii	"refs\000"
 4124      00
 4125              	.LASF60:
 4126 0631 76697274 		.ascii	"virtual_timer_t\000"
 4126      75616C5F 
 4126      74696D65 
 4126      725F7400 
 4127              	.LASF103:
 4128 0641 75736572 		.ascii	"user\000"
 4128      00
 4129              	.LASF26:
 4130 0646 74707269 		.ascii	"tprio_t\000"
 4130      6F5F7400 
 4131              	.LASF173:
 4132 064e 6275665F 		.ascii	"buf_list\000"
 4132      6C697374 
 4132      00
 4133              	.LASF120:
 4134 0657 6E5F6374 		.ascii	"n_ctxswc\000"
 4134      78737763 
 4134      00
 4135              	.LASF155:
 4136 0660 5F426F6F 		.ascii	"_Bool\000"
 4136      6C00
 4137              	.LASF18:
 4138 0666 696E7433 		.ascii	"int32_t\000"
 4138      325F7400 
 4139              	.LASF7:
 4140 066e 756E7369 		.ascii	"unsigned char\000"
 4140      676E6564 
 4140      20636861 
 4140      7200
 4141              	.LASF141:
 4142 067c 6F66665F 		.ascii	"off_prio\000"
 4142      7072696F 
 4142      00
 4143              	.LASF177:
 4144 0685 6669666F 		.ascii	"fifo_list\000"
 4144      5F6C6973 
 4144      7400
 4145              	.LASF132:
ARM GAS  C:\Users\RAKIBU~1\AppData\Local\Temp\cc8iSkFL.s 			page 79


 4146 068f 63685F6D 		.ascii	"ch_mutex\000"
 4146      75746578 
 4146      00
 4147              	.LASF185:
 4148 0698 64656C61 		.ascii	"delay\000"
 4148      7900
 4149              	.LASF8:
 4150 069e 73686F72 		.ascii	"short int\000"
 4150      7420696E 
 4150      7400
 4151              	.LASF66:
 4152 06a8 6C617374 		.ascii	"lasttime\000"
 4152      74696D65 
 4152      00
 4153              	.LASF102:
 4154 06b1 68616C74 		.ascii	"halt\000"
 4154      00
 4155              	.LASF130:
 4156 06b6 65776D61 		.ascii	"ewmask\000"
 4156      736B00
 4157              	.LASF74:
 4158 06bd 63685F73 		.ascii	"ch_system\000"
 4158      79737465 
 4158      6D00
 4159              	.LASF16:
 4160 06c7 75696E74 		.ascii	"uint8_t\000"
 4160      385F7400 
 4161              	.LASF181:
 4162 06cf 5F5F6675 		.ascii	"__func__\000"
 4162      6E635F5F 
 4162      00
 4163              	.LASF172:
 4164 06d8 6F626A5F 		.ascii	"obj_pool\000"
 4164      706F6F6C 
 4164      00
 4165              	.LASF101:
 4166 06e1 72656173 		.ascii	"reason\000"
 4166      6F6E00
 4167              	.LASF61:
 4168 06e8 63685F76 		.ascii	"ch_virtual_timer\000"
 4168      69727475 
 4168      616C5F74 
 4168      696D6572 
 4168      00
 4169              	.LASF131:
 4170 06f9 63685F73 		.ascii	"ch_semaphore\000"
 4170      656D6170 
 4170      686F7265 
 4170      00
 4171              	.LASF97:
 4172 0706 43435852 		.ascii	"CCXR\000"
 4172      00
 4173              	.LASF134:
 4174 070b 63685F69 		.ascii	"ch_idle_thread_wa\000"
 4174      646C655F 
 4174      74687265 
 4174      61645F77 
ARM GAS  C:\Users\RAKIBU~1\AppData\Local\Temp\cc8iSkFL.s 			page 80


 4174      6100
 4175              	.LASF139:
 4176 071d 74696D65 		.ascii	"timesize\000"
 4176      73697A65 
 4176      00
 4177              	.LASF192:
 4178 0726 73745F6C 		.ascii	"st_lld_get_counter\000"
 4178      6C645F67 
 4178      65745F63 
 4178      6F756E74 
 4178      657200
 4179              	.LASF178:
 4180 0739 70697065 		.ascii	"pipe_list\000"
 4180      5F6C6973 
 4180      7400
 4181              	.LASF19:
 4182 0743 75696E74 		.ascii	"uint32_t\000"
 4182      33325F74 
 4182      00
 4183              	.LASF129:
 4184 074c 77746D74 		.ascii	"wtmtxp\000"
 4184      787000
 4185              	.LASF51:
 4186 0753 63685F74 		.ascii	"ch_threads_list\000"
 4186      68726561 
 4186      64735F6C 
 4186      69737400 
 4187              	.LASF133:
 4188 0763 6F776E65 		.ascii	"owner\000"
 4188      7200
 4189              	.LASF14:
 4190 0769 6C6F6E67 		.ascii	"long unsigned int\000"
 4190      20756E73 
 4190      69676E65 
 4190      6420696E 
 4190      7400
 4191              	.LASF37:
 4192 077b 77616261 		.ascii	"wabase\000"
 4192      736500
 4193              	.LASF198:
 4194 0782 73745374 		.ascii	"stStopAlarm\000"
 4194      6F70416C 
 4194      61726D00 
 4195              	.LASF100:
 4196 078e 63686172 		.ascii	"char\000"
 4196      00
 4197              	.LASF9:
 4198 0793 5F5F7569 		.ascii	"__uint16_t\000"
 4198      6E743136 
 4198      5F7400
 4199              	.LASF89:
 4200 079e 534D4352 		.ascii	"SMCR\000"
 4200      00
 4201              	.LASF171:
 4202 07a3 6F626A5F 		.ascii	"obj_list\000"
 4202      6C697374 
 4202      00
ARM GAS  C:\Users\RAKIBU~1\AppData\Local\Temp\cc8iSkFL.s 			page 81


 4203              	.LASF95:
 4204 07ac 444D4152 		.ascii	"DMAR\000"
 4204      00
 4205              	.LASF31:
 4206 07b1 74687265 		.ascii	"thread_t\000"
 4206      61645F74 
 4206      00
 4207              	.LASF114:
 4208 07ba 62657374 		.ascii	"best\000"
 4208      00
 4209              	.LASF160:
 4210 07bf 63685F6D 		.ascii	"ch_memcore\000"
 4210      656D636F 
 4210      726500
 4211              	.LASF79:
 4212 07ca 73797374 		.ascii	"systime_t\000"
 4212      696D655F 
 4212      7400
 4213              	.LASF59:
 4214 07d4 76746675 		.ascii	"vtfunc_t\000"
 4214      6E635F74 
 4214      00
 4215              	.LASF83:
 4216 07dd 41484250 		.ascii	"AHBPrescTable\000"
 4216      72657363 
 4216      5461626C 
 4216      6500
 4217              	.LASF116:
 4218 07eb 6C617374 		.ascii	"last\000"
 4218      00
 4219              	.LASF69:
 4220 07f0 70616E69 		.ascii	"panic_msg\000"
 4220      635F6D73 
 4220      6700
 4221              	.LASF112:
 4222 07fa 6F666673 		.ascii	"offset\000"
 4222      657400
 4223              	.LASF202:
 4224 0801 73745374 		.ascii	"stStartAlarm\000"
 4224      61727441 
 4224      6C61726D 
 4224      00
 4225              	.LASF144:
 4226 080e 6F66665F 		.ascii	"off_older\000"
 4226      6F6C6465 
 4226      7200
 4227              	.LASF10:
 4228 0818 73686F72 		.ascii	"short unsigned int\000"
 4228      7420756E 
 4228      7369676E 
 4228      65642069 
 4228      6E7400
 4229              	.LASF189:
 4230 082b 706F7274 		.ascii	"port_timer_get_time\000"
 4230      5F74696D 
 4230      65725F67 
 4230      65745F74 
ARM GAS  C:\Users\RAKIBU~1\AppData\Local\Temp\cc8iSkFL.s 			page 82


 4230      696D6500 
 4231              	.LASF27:
 4232 083f 6D73675F 		.ascii	"msg_t\000"
 4232      7400
 4233              	.LASF156:
 4234 0845 6D656D67 		.ascii	"memgetfunc_t\000"
 4234      65746675 
 4234      6E635F74 
 4234      00
 4235              	.LASF94:
 4236 0852 42445452 		.ascii	"BDTR\000"
 4236      00
 4237              	.LASF162:
 4238 0857 6F626A65 		.ascii	"object_size\000"
 4238      63745F73 
 4238      697A6500 
 4239              	.LASF186:
 4240 0863 76746675 		.ascii	"vtfunc\000"
 4240      6E6300
 4241              	.LASF138:
 4242 086a 70747273 		.ascii	"ptrsize\000"
 4242      697A6500 
 4243              	.LASF170:
 4244 0872 63685F6F 		.ascii	"ch_objects_factory\000"
 4244      626A6563 
 4244      74735F66 
 4244      6163746F 
 4244      727900
 4245              	.LASF53:
 4246 0885 74687265 		.ascii	"threads_queue_t\000"
 4246      6164735F 
 4246      71756575 
 4246      655F7400 
 4247              	.LASF161:
 4248 0895 706F6F6C 		.ascii	"pool_header\000"
 4248      5F686561 
 4248      64657200 
 4249              	.LASF70:
 4250 08a1 6973725F 		.ascii	"isr_cnt\000"
 4250      636E7400 
 4251              	.LASF194:
 4252 08a9 63685469 		.ascii	"chTimeDiffX\000"
 4252      6D654469 
 4252      66665800 
 4253              	.LASF145:
 4254 08b5 6F66665F 		.ascii	"off_name\000"
 4254      6E616D65 
 4254      00
 4255              	.LASF200:
 4256 08be 73745365 		.ascii	"stSetAlarm\000"
 4256      74416C61 
 4256      726D00
 4257              	.LASF146:
 4258 08c9 6F66665F 		.ascii	"off_stklimit\000"
 4258      73746B6C 
 4258      696D6974 
 4258      00
ARM GAS  C:\Users\RAKIBU~1\AppData\Local\Temp\cc8iSkFL.s 			page 83


 4259              	.LASF39:
 4260 08d6 666C6167 		.ascii	"flags\000"
 4260      7300
 4261              	.LASF207:
 4262 08dc 706F7274 		.ascii	"port_timer_stop_alarm\000"
 4262      5F74696D 
 4262      65725F73 
 4262      746F705F 
 4262      616C6172 
 4263              	.LASF48:
 4264 08f2 74687265 		.ascii	"thread_reference_t\000"
 4264      61645F72 
 4264      65666572 
 4264      656E6365 
 4264      5F7400
 4265              	.LASF190:
 4266 0905 706F7274 		.ascii	"port_timer_set_alarm\000"
 4266      5F74696D 
 4266      65725F73 
 4266      65745F61 
 4266      6C61726D 
 4267              	.LASF99:
 4268 091a 77746F62 		.ascii	"wtobjp\000"
 4268      6A7000
 4269              	.LASF109:
 4270 0921 73697A65 		.ascii	"size\000"
 4270      00
 4271              	.LASF49:
 4272 0926 74687265 		.ascii	"threads_list_t\000"
 4272      6164735F 
 4272      6C697374 
 4272      5F7400
 4273              	.LASF147:
 4274 0935 6F66665F 		.ascii	"off_state\000"
 4274      73746174 
 4274      6500
 4275              	.LASF72:
 4276 093f 74726163 		.ascii	"trace_buffer\000"
 4276      655F6275 
 4276      66666572 
 4276      00
 4277              	.LASF179:
 4278 094c 6F626A65 		.ascii	"objects_factory_t\000"
 4278      6374735F 
 4278      66616374 
 4278      6F72795F 
 4278      7400
 4279              	.LASF148:
 4280 095e 6F66665F 		.ascii	"off_flags\000"
 4280      666C6167 
 4280      7300
 4281              	.LASF44:
 4282 0968 6D74786C 		.ascii	"mtxlist\000"
 4282      69737400 
 4283              	.LASF121:
 4284 0970 6D5F6372 		.ascii	"m_crit_thd\000"
 4284      69745F74 
ARM GAS  C:\Users\RAKIBU~1\AppData\Local\Temp\cc8iSkFL.s 			page 84


 4284      686400
 4285              	.LASF157:
 4286 097b 6E657874 		.ascii	"nextmem\000"
 4286      6D656D00 
 4287              		.ident	"GCC: (GNU Tools for Arm Embedded Processors 7-2017-q4-major) 7.2.1 20170904 (release) [ARM
ARM GAS  C:\Users\RAKIBU~1\AppData\Local\Temp\cc8iSkFL.s 			page 85


DEFINED SYMBOLS
                            *ABS*:00000000 chvt.c
C:\Users\RAKIBU~1\AppData\Local\Temp\cc8iSkFL.s:15     .text:00000000 $t
C:\Users\RAKIBU~1\AppData\Local\Temp\cc8iSkFL.s:23     .text:00000000 _vt_init
C:\Users\RAKIBU~1\AppData\Local\Temp\cc8iSkFL.s:49     .text:0000001c $d
C:\Users\RAKIBU~1\AppData\Local\Temp\cc8iSkFL.s:53     .text:00000020 $t
C:\Users\RAKIBU~1\AppData\Local\Temp\cc8iSkFL.s:61     .text:00000020 chVTDoSetI
C:\Users\RAKIBU~1\AppData\Local\Temp\cc8iSkFL.s:307    .text:00000140 $d
C:\Users\RAKIBU~1\AppData\Local\Temp\cc8iSkFL.s:312    .text:00000148 $t
C:\Users\RAKIBU~1\AppData\Local\Temp\cc8iSkFL.s:320    .text:00000150 chVTDoResetI
C:\Users\RAKIBU~1\AppData\Local\Temp\cc8iSkFL.s:510    .text:00000228 $d
C:\Users\RAKIBU~1\AppData\Local\Temp\cc8iSkFL.s:520    .rodata:00000000 $d
C:\Users\RAKIBU~1\AppData\Local\Temp\cc8iSkFL.s:524    .rodata:00000000 __func__.7114
C:\Users\RAKIBU~1\AppData\Local\Temp\cc8iSkFL.s:529    .rodata:0000000c __func__.7123
C:\Users\RAKIBU~1\AppData\Local\Temp\cc8iSkFL.s:534    .rodata:0000001c __func__.4250

UNDEFINED SYMBOLS
ch
chDbgCheckClassI
chSysHalt
stStartAlarm
stSetAlarm
stStopAlarm
