ARM GAS  C:\Users\RAKIBU~1\AppData\Local\Temp\cc8iSkFL.s 			page 1


   1              		.cpu cortex-m4
   2              		.eabi_attribute 20, 1
   3              		.eabi_attribute 21, 1
   4              		.eabi_attribute 23, 3
   5              		.eabi_attribute 24, 1
   6              		.eabi_attribute 25, 1
   7              		.eabi_attribute 26, 1
   8              		.eabi_attribute 30, 1
   9              		.eabi_attribute 34, 1
  10              		.eabi_attribute 18, 4
  11              		.file	"chvt.c"
  12              		.text
  13              	.Ltext0:
  14              		.cfi_sections	.debug_frame
  15              		.align	1
  16              		.p2align 4,,15
  17              		.global	_vt_init
  18              		.syntax unified
  19              		.thumb
  20              		.thumb_func
  21              		.fpu softvfp
  22              		.type	_vt_init, %function
  23              	_vt_init:
  24              	.LFB295:
  25              		.file 1 "../../../ChibiOSRepo/chibios191/os/rt/src/chvt.c"
  26              		.loc 1 61 0
  27              		.cfi_startproc
  28              		@ args = 0, pretend = 0, frame = 0
  29              		@ frame_needed = 0, uses_anonymous_args = 0
  30              		@ link register save eliminated.
  31              		.loc 1 63 0
  32 0000 064B     		ldr	r3, .L2
  33 0002 03F12002 		add	r2, r3, #32
  34 0006 1A62     		str	r2, [r3, #32]
  35              		.loc 1 64 0
  36 0008 5A62     		str	r2, [r3, #36]
  37              		.loc 1 65 0
  38 000a 4FF0FF30 		mov	r0, #-1
  39 000e 4FF0FF31 		mov	r1, #-1
  40 0012 C3E90A01 		strd	r0, [r3, #40]
  41              		.loc 1 69 0
  42 0016 0022     		movs	r2, #0
  43 0018 1A63     		str	r2, [r3, #48]
  44              		.loc 1 71 0
  45 001a 7047     		bx	lr
  46              	.L3:
  47              		.align	2
  48              	.L2:
  49 001c 00000000 		.word	ch
  50              		.cfi_endproc
  51              	.LFE295:
  52              		.size	_vt_init, .-_vt_init
  53              		.align	1
  54              		.p2align 4,,15
  55              		.global	chVTDoSetI
  56              		.syntax unified
  57              		.thumb
ARM GAS  C:\Users\RAKIBU~1\AppData\Local\Temp\cc8iSkFL.s 			page 2


  58              		.thumb_func
  59              		.fpu softvfp
  60              		.type	chVTDoSetI, %function
  61              	chVTDoSetI:
  62              	.LFB296:
  63              		.loc 1 96 0
  64              		.cfi_startproc
  65              		@ args = 8, pretend = 0, frame = 0
  66              		@ frame_needed = 0, uses_anonymous_args = 0
  67              	.LVL0:
  68 0020 2DE9F843 		push	{r3, r4, r5, r6, r7, r8, r9, lr}
  69              		.cfi_def_cfa_offset 32
  70              		.cfi_offset 3, -32
  71              		.cfi_offset 4, -28
  72              		.cfi_offset 5, -24
  73              		.cfi_offset 6, -20
  74              		.cfi_offset 7, -16
  75              		.cfi_offset 8, -12
  76              		.cfi_offset 9, -8
  77              		.cfi_offset 14, -4
  78 0024 0546     		mov	r5, r0
  79 0026 1646     		mov	r6, r2
  80 0028 1F46     		mov	r7, r3
  81 002a 089C     		ldr	r4, [sp, #32]
  82              		.loc 1 100 0
  83 002c FFF7FEFF 		bl	chDbgCheckClassI
  84              	.LVL1:
  85              		.loc 1 101 0
  86 0030 1DB1     		cbz	r5, .L5
  87              		.loc 1 101 0 is_stmt 0 discriminator 3
  88 0032 14B1     		cbz	r4, .L5
  89              		.loc 1 101 0 discriminator 5
  90 0034 56EA0703 		orrs	r3, r6, r7
  91 0038 02D1     		bne	.L6
  92              	.L5:
  93              		.loc 1 101 0 discriminator 6
  94 003a 4148     		ldr	r0, .L24
  95 003c FFF7FEFF 		bl	chSysHalt
  96              	.LVL2:
  97              	.L6:
  98              		.loc 1 103 0 is_stmt 1
  99 0040 099B     		ldr	r3, [sp, #36]
 100 0042 6B61     		str	r3, [r5, #20]
 101              		.loc 1 104 0
 102 0044 2C61     		str	r4, [r5, #16]
 103              	.LBB40:
 104              	.LBB41:
 105              	.LBB42:
 106              	.LBB43:
 107              	.LBB44:
 108              		.file 2 "../../../ChibiOSRepo/chibios191/os/hal/ports/STM32/LLD/TIMv1/hal_st_lld.h"
 109              		.loc 2 147 0
 110 0046 4FF08043 		mov	r3, #1073741824
 111 004a 5A6A     		ldr	r2, [r3, #36]
 112              	.LBE44:
 113              	.LBE43:
 114              	.LBE42:
ARM GAS  C:\Users\RAKIBU~1\AppData\Local\Temp\cc8iSkFL.s 			page 3


 115              	.LBE41:
 116              		.loc 1 112 0
 117 004c 002F     		cmp	r7, #0
 118 004e 08BF     		it	eq
 119 0050 022E     		cmpeq	r6, #2
 120 0052 18D3     		bcc	.L21
 121              	.L7:
 122              	.LVL3:
 123              		.loc 1 117 0
 124 0054 3B4B     		ldr	r3, .L24+4
 125 0056 53F8204F 		ldr	r4, [r3, #32]!
 126 005a 9C42     		cmp	r4, r3
 127 005c 16D0     		beq	.L22
 128              	.LVL4:
 129              		.loc 1 146 0
 130 005e 394B     		ldr	r3, .L24+4
 131 0060 196B     		ldr	r1, [r3, #48]
 132              	.LVL5:
 133              	.LBB45:
 134              	.LBB46:
 135              		.file 3 "../../../ChibiOSRepo/chibios191/os/rt/include/chtime.h"
 136              		.loc 3 463 0
 137 0062 521A     		subs	r2, r2, r1
 138              	.LVL6:
 139 0064 0023     		movs	r3, #0
 140              	.LVL7:
 141              	.LBE46:
 142              	.LBE45:
 143              		.loc 1 146 0
 144 0066 16EB0208 		adds	r8, r6, r2
 145 006a 47EB0309 		adc	r9, r7, r3
 146              	.LVL8:
 147              		.loc 1 148 0
 148 006e 9945     		cmp	r9, r3
 149 0070 08BF     		it	eq
 150 0072 9045     		cmpeq	r8, r2
 151 0074 22D2     		bcs	.L12
 152              		.loc 1 152 0
 153 0076 D4E90223 		ldrd	r2, [r4, #8]
 154 007a B8EB0208 		subs	r8, r8, r2
 155              	.LVL9:
 156 007e 69EB0309 		sbc	r9, r9, r3
 157              	.LVL10:
 158              		.loc 1 153 0
 159 0082 2468     		ldr	r4, [r4]
 160              	.LVL11:
 161 0084 35E0     		b	.L16
 162              	.LVL12:
 163              	.L21:
 164              		.loc 1 113 0
 165 0086 0226     		movs	r6, #2
 166 0088 0027     		movs	r7, #0
 167 008a E3E7     		b	.L7
 168              	.LVL13:
 169              	.L22:
 170              		.loc 1 121 0
 171 008c 2D4B     		ldr	r3, .L24+4
ARM GAS  C:\Users\RAKIBU~1\AppData\Local\Temp\cc8iSkFL.s 			page 4


 172 008e 1A63     		str	r2, [r3, #48]
 173              		.loc 1 122 0
 174 0090 1D62     		str	r5, [r3, #32]
 175              		.loc 1 123 0
 176 0092 5D62     		str	r5, [r3, #36]
 177              		.loc 1 124 0
 178 0094 2033     		adds	r3, r3, #32
 179 0096 2B60     		str	r3, [r5]
 180              		.loc 1 125 0
 181 0098 6B60     		str	r3, [r5, #4]
 182              		.loc 1 126 0
 183 009a C5E90267 		strd	r6, [r5, #8]
 184              		.loc 1 130 0
 185 009e 012F     		cmp	r7, #1
 186 00a0 08BF     		it	eq
 187 00a2 002E     		cmpeq	r6, #0
 188 00a4 07D3     		bcc	.L9
 189              	.LVL14:
 190              		.loc 1 136 0
 191 00a6 203B     		subs	r3, r3, #32
 192 00a8 186B     		ldr	r0, [r3, #48]
 193              	.LVL15:
 194              		.loc 1 131 0
 195 00aa 4FF0FF36 		mov	r6, #-1
 196              	.LVL16:
 197              	.L10:
 198              	.LBB47:
 199              	.LBB48:
 200              		.file 4 "../../../ChibiOSRepo/chibios191/os/common/ports/ARMCMx/chcore_timer.h"
 201              		.loc 4 73 0
 202 00ae 3044     		add	r0, r0, r6
 203 00b0 FFF7FEFF 		bl	stStartAlarm
 204              	.LVL17:
 205 00b4 41E0     		b	.L4
 206              	.LVL18:
 207              	.L9:
 208              	.LBE48:
 209              	.LBE47:
 210              		.loc 1 136 0
 211 00b6 234B     		ldr	r3, .L24+4
 212 00b8 186B     		ldr	r0, [r3, #48]
 213              	.LVL19:
 214 00ba F8E7     		b	.L10
 215              	.LVL20:
 216              	.L12:
 217              		.loc 1 155 0
 218 00bc D4E90223 		ldrd	r2, [r4, #8]
 219 00c0 9945     		cmp	r9, r3
 220 00c2 08BF     		it	eq
 221 00c4 9045     		cmpeq	r8, r2
 222 00c6 14D2     		bcs	.L16
 223              	.LVL21:
 224              	.LBB49:
 225              		.loc 1 163 0
 226 00c8 B9F1010F 		cmp	r9, #1
 227 00cc 08BF     		it	eq
 228 00ce B8F1000F 		cmpeq	r8, #0
ARM GAS  C:\Users\RAKIBU~1\AppData\Local\Temp\cc8iSkFL.s 			page 5


 229 00d2 05D3     		bcc	.L19
 230              		.loc 1 164 0
 231 00d4 4FF0FF30 		mov	r0, #-1
 232              	.L14:
 233              	.LBB50:
 234              	.LBB51:
 235              		.loc 4 95 0
 236 00d8 0844     		add	r0, r0, r1
 237 00da FFF7FEFF 		bl	stSetAlarm
 238              	.LVL22:
 239 00de 08E0     		b	.L16
 240              	.L19:
 241              	.LBE51:
 242              	.LBE50:
 243              		.loc 1 160 0
 244 00e0 4046     		mov	r0, r8
 245 00e2 F9E7     		b	.L14
 246              	.LVL23:
 247              	.L15:
 248              	.LBE49:
 249              	.LBE40:
 250              		.loc 1 184 0
 251 00e4 D4E90223 		ldrd	r2, [r4, #8]
 252 00e8 B8EB0208 		subs	r8, r8, r2
 253              	.LVL24:
 254 00ec 69EB0309 		sbc	r9, r9, r3
 255              	.LVL25:
 256              		.loc 1 185 0
 257 00f0 2468     		ldr	r4, [r4]
 258              	.LVL26:
 259              	.L16:
 260              		.loc 1 180 0
 261 00f2 D4E90223 		ldrd	r2, [r4, #8]
 262 00f6 4B45     		cmp	r3, r9
 263 00f8 08BF     		it	eq
 264 00fa 4245     		cmpeq	r2, r8
 265 00fc 05D2     		bcs	.L23
 266              		.loc 1 182 0 discriminator 1
 267 00fe AC42     		cmp	r4, r5
 268 0100 F0D1     		bne	.L15
 269              		.loc 1 182 0 is_stmt 0 discriminator 2
 270 0102 0F48     		ldr	r0, .L24
 271 0104 FFF7FEFF 		bl	chSysHalt
 272              	.LVL27:
 273 0108 ECE7     		b	.L15
 274              	.L23:
 275              		.loc 1 189 0 is_stmt 1
 276 010a 2C60     		str	r4, [r5]
 277              		.loc 1 190 0
 278 010c 6368     		ldr	r3, [r4, #4]
 279 010e 6B60     		str	r3, [r5, #4]
 280              		.loc 1 191 0
 281 0110 1D60     		str	r5, [r3]
 282              		.loc 1 192 0
 283 0112 6560     		str	r5, [r4, #4]
 284              		.loc 1 193 0
 285 0114 C5E90289 		strd	r8, [r5, #8]
ARM GAS  C:\Users\RAKIBU~1\AppData\Local\Temp\cc8iSkFL.s 			page 6


 286              		.loc 1 196 0
 287 0118 D4E90223 		ldrd	r2, [r4, #8]
 288 011c B2EB0802 		subs	r2, r2, r8
 289 0120 63EB0903 		sbc	r3, r3, r9
 290 0124 1646     		mov	r6, r2
 291              	.LVL28:
 292 0126 1F46     		mov	r7, r3
 293 0128 C4E90267 		strd	r6, [r4, #8]
 294              		.loc 1 200 0
 295 012c 054B     		ldr	r3, .L24+4
 296 012e 4FF0FF30 		mov	r0, #-1
 297 0132 4FF0FF31 		mov	r1, #-1
 298 0136 C3E90A01 		strd	r0, [r3, #40]
 299              	.LVL29:
 300              	.L4:
 301              		.loc 1 201 0
 302 013a BDE8F883 		pop	{r3, r4, r5, r6, r7, r8, r9, pc}
 303              	.LVL30:
 304              	.L25:
 305 013e 00BF     		.align	2
 306              	.L24:
 307 0140 00000000 		.word	.LANCHOR0
 308 0144 00000000 		.word	ch
 309              		.cfi_endproc
 310              	.LFE296:
 311              		.size	chVTDoSetI, .-chVTDoSetI
 312              		.align	1
 313 0148 AFF30080 		.p2align 4,,15
 313      AFF30080 
 314              		.global	chVTDoResetI
 315              		.syntax unified
 316              		.thumb
 317              		.thumb_func
 318              		.fpu softvfp
 319              		.type	chVTDoResetI, %function
 320              	chVTDoResetI:
 321              	.LFB297:
 322              		.loc 1 211 0
 323              		.cfi_startproc
 324              		@ args = 0, pretend = 0, frame = 0
 325              		@ frame_needed = 0, uses_anonymous_args = 0
 326              	.LVL31:
 327 0150 F8B5     		push	{r3, r4, r5, r6, r7, lr}
 328              		.cfi_def_cfa_offset 24
 329              		.cfi_offset 3, -24
 330              		.cfi_offset 4, -20
 331              		.cfi_offset 5, -16
 332              		.cfi_offset 6, -12
 333              		.cfi_offset 7, -8
 334              		.cfi_offset 14, -4
 335 0152 0446     		mov	r4, r0
 336              		.loc 1 213 0
 337 0154 FFF7FEFF 		bl	chDbgCheckClassI
 338              	.LVL32:
 339              		.loc 1 214 0
 340 0158 DCB1     		cbz	r4, .L37
 341              	.L27:
ARM GAS  C:\Users\RAKIBU~1\AppData\Local\Temp\cc8iSkFL.s 			page 7


 342              		.loc 1 215 0 discriminator 1
 343 015a 2369     		ldr	r3, [r4, #16]
 344 015c EBB1     		cbz	r3, .L38
 345              	.L28:
 346              		.loc 1 235 0
 347 015e 324B     		ldr	r3, .L42
 348 0160 1B6A     		ldr	r3, [r3, #32]
 349 0162 A342     		cmp	r3, r4
 350 0164 1DD0     		beq	.L29
 351              		.loc 1 237 0
 352 0166 6368     		ldr	r3, [r4, #4]
 353 0168 2268     		ldr	r2, [r4]
 354 016a 1A60     		str	r2, [r3]
 355              		.loc 1 238 0
 356 016c 2368     		ldr	r3, [r4]
 357 016e 6268     		ldr	r2, [r4, #4]
 358 0170 5A60     		str	r2, [r3, #4]
 359              		.loc 1 239 0
 360 0172 0023     		movs	r3, #0
 361 0174 2361     		str	r3, [r4, #16]
 362              		.loc 1 242 0
 363 0176 2368     		ldr	r3, [r4]
 364 0178 2C4A     		ldr	r2, .L42+4
 365 017a 9342     		cmp	r3, r2
 366 017c 08D0     		beq	.L26
 367              		.loc 1 243 0
 368 017e D4E90245 		ldrd	r4, [r4, #8]
 369              	.LVL33:
 370 0182 D3E90201 		ldrd	r0, [r3, #8]
 371 0186 0619     		adds	r6, r0, r4
 372 0188 41EB0507 		adc	r7, r1, r5
 373 018c C3E90267 		strd	r6, [r3, #8]
 374              	.L26:
 375              		.loc 1 297 0
 376 0190 F8BD     		pop	{r3, r4, r5, r6, r7, pc}
 377              	.LVL34:
 378              	.L37:
 379              		.loc 1 214 0 discriminator 2
 380 0192 2748     		ldr	r0, .L42+8
 381 0194 FFF7FEFF 		bl	chSysHalt
 382              	.LVL35:
 383 0198 DFE7     		b	.L27
 384              	.L38:
 385              		.loc 1 215 0 discriminator 2
 386 019a 2548     		ldr	r0, .L42+8
 387 019c FFF7FEFF 		bl	chSysHalt
 388              	.LVL36:
 389 01a0 DDE7     		b	.L28
 390              	.L29:
 391              		.loc 1 249 0
 392 01a2 2168     		ldr	r1, [r4]
 393 01a4 204A     		ldr	r2, .L42
 394 01a6 1346     		mov	r3, r2
 395 01a8 43F8201F 		str	r1, [r3, #32]!
 396              		.loc 1 250 0
 397 01ac 4B60     		str	r3, [r1, #4]
 398              		.loc 1 251 0
ARM GAS  C:\Users\RAKIBU~1\AppData\Local\Temp\cc8iSkFL.s 			page 8


 399 01ae 0021     		movs	r1, #0
 400 01b0 2161     		str	r1, [r4, #16]
 401              		.loc 1 254 0
 402 01b2 126A     		ldr	r2, [r2, #32]
 403 01b4 9A42     		cmp	r2, r3
 404 01b6 24D0     		beq	.L39
 405              		.loc 1 261 0
 406 01b8 D4E90245 		ldrd	r4, [r4, #8]
 407              	.LVL37:
 408 01bc D2E90201 		ldrd	r0, [r2, #8]
 409 01c0 0619     		adds	r6, r0, r4
 410 01c2 41EB0507 		adc	r7, r1, r5
 411 01c6 C2E90267 		strd	r6, [r2, #8]
 412              		.loc 1 270 0
 413 01ca 1749     		ldr	r1, .L42
 414 01cc 0E6B     		ldr	r6, [r1, #48]
 415              	.LBB52:
 416              	.LBB53:
 417              	.LBB54:
 418              	.LBB55:
 419              		.loc 2 147 0
 420 01ce 4FF08043 		mov	r3, #1073741824
 421 01d2 5A6A     		ldr	r2, [r3, #36]
 422              	.LVL38:
 423              	.LBE55:
 424              	.LBE54:
 425              	.LBE53:
 426              	.LBE52:
 427              	.LBB56:
 428              	.LBB57:
 429              		.loc 3 463 0
 430 01d4 921B     		subs	r2, r2, r6
 431 01d6 0023     		movs	r3, #0
 432              	.LVL39:
 433              	.LBE57:
 434              	.LBE56:
 435              		.loc 1 274 0
 436 01d8 096A     		ldr	r1, [r1, #32]
 437 01da D1E90245 		ldrd	r4, [r1, #8]
 438 01de AB42     		cmp	r3, r5
 439 01e0 08BF     		it	eq
 440 01e2 A242     		cmpeq	r2, r4
 441 01e4 D4D2     		bcs	.L26
 442              		.loc 1 279 0
 443 01e6 A01A     		subs	r0, r4, r2
 444 01e8 65EB0301 		sbc	r1, r5, r3
 445              	.LVL40:
 446              		.loc 1 283 0
 447 01ec 0029     		cmp	r1, #0
 448 01ee 08BF     		it	eq
 449 01f0 0228     		cmpeq	r0, #2
 450 01f2 09D3     		bcc	.L40
 451              	.LVL41:
 452              		.loc 1 290 0
 453 01f4 012D     		cmp	r5, #1
 454 01f6 08BF     		it	eq
 455 01f8 002C     		cmpeq	r4, #0
ARM GAS  C:\Users\RAKIBU~1\AppData\Local\Temp\cc8iSkFL.s 			page 9


 456 01fa 08D3     		bcc	.L33
 457              		.loc 1 291 0
 458 01fc 4FF0FF34 		mov	r4, #-1
 459              	.LVL42:
 460 0200 09E0     		b	.L34
 461              	.LVL43:
 462              	.L39:
 463              	.LBB58:
 464              	.LBB59:
 465              		.loc 4 83 0
 466 0202 FFF7FEFF 		bl	stStopAlarm
 467              	.LVL44:
 468 0206 C3E7     		b	.L26
 469              	.LVL45:
 470              	.L40:
 471              	.LBE59:
 472              	.LBE58:
 473              		.loc 1 284 0
 474 0208 941C     		adds	r4, r2, #2
 475 020a 43F10005 		adc	r5, r3, #0
 476              	.LVL46:
 477              	.L33:
 478              	.LBB60:
 479              	.LBB61:
 480              		.loc 3 444 0
 481 020e 012D     		cmp	r5, #1
 482 0210 08BF     		it	eq
 483 0212 002C     		cmpeq	r4, #0
 484 0214 03D2     		bcs	.L41
 485              	.LVL47:
 486              	.L34:
 487              	.LBE61:
 488              	.LBE60:
 489              	.LBB63:
 490              	.LBB64:
 491              		.loc 4 95 0
 492 0216 3019     		adds	r0, r6, r4
 493 0218 FFF7FEFF 		bl	stSetAlarm
 494              	.LVL48:
 495 021c B8E7     		b	.L26
 496              	.LVL49:
 497              	.L41:
 498              	.LBE64:
 499              	.LBE63:
 500              	.LBB65:
 501              	.LBB62:
 502              		.loc 3 444 0
 503 021e 0548     		ldr	r0, .L42+12
 504 0220 FFF7FEFF 		bl	chSysHalt
 505              	.LVL50:
 506 0224 F7E7     		b	.L34
 507              	.L43:
 508 0226 00BF     		.align	2
 509              	.L42:
 510 0228 00000000 		.word	ch
 511 022c 20000000 		.word	ch+32
 512 0230 0C000000 		.word	.LANCHOR0+12
ARM GAS  C:\Users\RAKIBU~1\AppData\Local\Temp\cc8iSkFL.s 			page 10


 513 0234 1C000000 		.word	.LANCHOR0+28
 514              	.LBE62:
 515              	.LBE65:
 516              		.cfi_endproc
 517              	.LFE297:
 518              		.size	chVTDoResetI, .-chVTDoResetI
 519              		.section	.rodata
 520              		.align	2
 521              		.set	.LANCHOR0,. + 0
 522              		.type	__func__.7114, %object
 523              		.size	__func__.7114, 11
 524              	__func__.7114:
 525 0000 63685654 		.ascii	"chVTDoSetI\000"
 525      446F5365 
 525      744900
 526 000b 00       		.space	1
 527              		.type	__func__.7123, %object
 528              		.size	__func__.7123, 13
 529              	__func__.7123:
 530 000c 63685654 		.ascii	"chVTDoResetI\000"
 530      446F5265 
 530      73657449 
 530      00
 531 0019 000000   		.space	3
 532              		.type	__func__.4250, %object
 533              		.size	__func__.4250, 11
 534              	__func__.4250:
 535 001c 63685469 		.ascii	"chTimeAddX\000"
 535      6D654164 
 535      645800
 536              		.text
 537              	.Letext0:
 538              		.file 5 "c:\\chibistudio\\tools\\gnu tools arm embedded\\7.0 2017q4\\lib\\gcc\\arm-none-eabi\\7.2.
 539              		.file 6 "c:\\chibistudio\\tools\\gnu tools arm embedded\\7.0 2017q4\\arm-none-eabi\\include\\machi
 540              		.file 7 "c:\\chibistudio\\tools\\gnu tools arm embedded\\7.0 2017q4\\arm-none-eabi\\include\\sys\\
 541              		.file 8 "../../../ChibiOSRepo/chibios191/os/common/ports/ARMCMx/compilers/GCC/chtypes.h"
 542              		.file 9 "../../../ChibiOSRepo/chibios191/os/rt/include/chsystypes.h"
 543              		.file 10 "../../../ChibiOSRepo/chibios191/os/rt/include/chschd.h"
 544              		.file 11 "../../../ChibiOSRepo/chibios191/os/common/ext/ARM/CMSIS/Core/Include/core_cm4.h"
 545              		.file 12 "../../../ChibiOSRepo/chibios191/os/common/ext/ST/STM32F4xx/system_stm32f4xx.h"
 546              		.file 13 "../../../ChibiOSRepo/chibios191/os/common/ports/ARMCMx/chcore.h"
 547              		.file 14 "../../../ChibiOSRepo/chibios191/os/common/ports/ARMCMx/chcore_v7m.h"
 548              		.file 15 "../../../ChibiOSRepo/chibios191/os/hal/ports/STM32/LLD/TIMv1/stm32_tim.h"
 549              		.file 16 "../../../ChibiOSRepo/chibios191/os/rt/include/chtrace.h"
 550              		.file 17 "../../../ChibiOSRepo/chibios191/os/rt/include/chtm.h"
 551              		.file 18 "../../../ChibiOSRepo/chibios191/os/rt/include/chstats.h"
 552              		.file 19 "../../../ChibiOSRepo/chibios191/os/rt/include/chsem.h"
 553              		.file 20 "../../../ChibiOSRepo/chibios191/os/rt/include/chmtx.h"
 554              		.file 21 "../../../ChibiOSRepo/chibios191/os/rt/include/chsys.h"
 555              		.file 22 "../../../ChibiOSRepo/chibios191/os/rt/include/chregistry.h"
 556              		.file 23 "../../../ChibiOSRepo/chibios191/os/oslib/include/chmemcore.h"
 557              		.file 24 "../../../ChibiOSRepo/chibios191/os/oslib/include/chmempools.h"
 558              		.file 25 "../../../ChibiOSRepo/chibios191/os/oslib/include/chfactory.h"
 559              		.file 26 "../../../ChibiOSRepo/chibios191/os/rt/include/chvt.h"
 560              		.file 27 "../../../ChibiOSRepo/chibios191/os/hal/include/hal_st.h"
 561              		.file 28 "../../../ChibiOSRepo/chibios191/os/rt/include/ch.h"
 562              		.file 29 "../../../ChibiOSRepo/chibios191/os/rt/include/chdebug.h"
ARM GAS  C:\Users\RAKIBU~1\AppData\Local\Temp\cc8iSkFL.s 			page 11

