ARM GAS  C:\Users\RAKIBU~1\AppData\Local\Temp\ccje4zNc.s 			page 1


   1              		.cpu cortex-m4
   2              		.eabi_attribute 20, 1
   3              		.eabi_attribute 21, 1
   4              		.eabi_attribute 23, 3
   5              		.eabi_attribute 24, 1
   6              		.eabi_attribute 25, 1
   7              		.eabi_attribute 26, 1
   8              		.eabi_attribute 30, 1
   9              		.eabi_attribute 34, 1
  10              		.eabi_attribute 18, 4
  11              		.file	"ffunicode.c"
  12              		.text
  13              	.Ltext0:
  14              		.cfi_sections	.debug_frame
  15              		.align	1
  16              		.p2align 4,,15
  17              		.global	ff_uni2oem
  18              		.syntax unified
  19              		.thumb
  20              		.thumb_func
  21              		.fpu softvfp
  22              		.type	ff_uni2oem, %function
  23              	ff_uni2oem:
  24              	.LFB295:
  25              		.file 1 "../../../ChibiOSRepo/chibios191/ext/fatfs/src/ffunicode.c"
  26              		.loc 1 15251 0
  27              		.cfi_startproc
  28              		@ args = 0, pretend = 0, frame = 0
  29              		@ frame_needed = 0, uses_anonymous_args = 0
  30              		@ link register save eliminated.
  31              	.LVL0:
  32              		.loc 1 15256 0
  33 0000 7F28     		cmp	r0, #127
  34 0002 11D9     		bls	.L2
  35              		.loc 1 15260 0
  36 0004 40F25233 		movw	r3, #850
  37 0008 9942     		cmp	r1, r3
  38 000a 0ED0     		beq	.L7
  39              		.loc 1 15252 0
  40 000c 0020     		movs	r0, #0
  41              	.LVL1:
  42 000e 7047     		bx	lr
  43              	.LVL2:
  44              	.L5:
  45              		.loc 1 15261 0 discriminator 4
  46 0010 0133     		adds	r3, r3, #1
  47              	.LVL3:
  48 0012 9BB2     		uxth	r3, r3
  49              	.LVL4:
  50              	.L3:
  51              		.loc 1 15261 0 is_stmt 0 discriminator 1
  52 0014 7F2B     		cmp	r3, #127
  53 0016 04D8     		bhi	.L4
  54              		.loc 1 15261 0 discriminator 3
  55 0018 054A     		ldr	r2, .L8
  56 001a 32F81320 		ldrh	r2, [r2, r3, lsl #1]
  57 001e 8242     		cmp	r2, r0
ARM GAS  C:\Users\RAKIBU~1\AppData\Local\Temp\ccje4zNc.s 			page 2


  58 0020 F6D1     		bne	.L5
  59              	.L4:
  60              		.loc 1 15262 0 is_stmt 1
  61 0022 03F18000 		add	r0, r3, #128
  62              	.LVL5:
  63 0026 C0B2     		uxtb	r0, r0
  64              	.LVL6:
  65              	.L2:
  66              		.loc 1 15266 0
  67 0028 7047     		bx	lr
  68              	.LVL7:
  69              	.L7:
  70              		.loc 1 15261 0
  71 002a 0023     		movs	r3, #0
  72 002c F2E7     		b	.L3
  73              	.L9:
  74 002e 00BF     		.align	2
  75              	.L8:
  76 0030 00000000 		.word	.LANCHOR0
  77              		.cfi_endproc
  78              	.LFE295:
  79              		.size	ff_uni2oem, .-ff_uni2oem
  80              		.align	1
  81 0034 AFF30080 		.p2align 4,,15
  81      AFF30080 
  81      AFF30080 
  82              		.global	ff_oem2uni
  83              		.syntax unified
  84              		.thumb
  85              		.thumb_func
  86              		.fpu softvfp
  87              		.type	ff_oem2uni, %function
  88              	ff_oem2uni:
  89              	.LFB296:
  90              		.loc 1 15272 0
  91              		.cfi_startproc
  92              		@ args = 0, pretend = 0, frame = 0
  93              		@ frame_needed = 0, uses_anonymous_args = 0
  94              		@ link register save eliminated.
  95              	.LVL8:
  96              		.loc 1 15277 0
  97 0040 7F28     		cmp	r0, #127
  98 0042 0FD9     		bls	.L11
  99              		.loc 1 15281 0
 100 0044 40F25233 		movw	r3, #850
 101 0048 9942     		cmp	r1, r3
 102 004a 01D0     		beq	.L15
 103              		.loc 1 15273 0
 104 004c 0020     		movs	r0, #0
 105              	.LVL9:
 106 004e 7047     		bx	lr
 107              	.LVL10:
 108              	.L15:
 109              		.loc 1 15282 0
 110 0050 FF28     		cmp	r0, #255
 111 0052 06D8     		bhi	.L14
 112              		.loc 1 15282 0 is_stmt 0 discriminator 1
ARM GAS  C:\Users\RAKIBU~1\AppData\Local\Temp\ccje4zNc.s 			page 3


 113 0054 00F10040 		add	r0, r0, #-2147483648
 114              	.LVL11:
 115 0058 8038     		subs	r0, r0, #128
 116 005a 034B     		ldr	r3, .L16
 117 005c 33F81000 		ldrh	r0, [r3, r0, lsl #1]
 118              	.LVL12:
 119 0060 7047     		bx	lr
 120              	.LVL13:
 121              	.L14:
 122              		.loc 1 15273 0 is_stmt 1
 123 0062 0020     		movs	r0, #0
 124              	.LVL14:
 125              	.L11:
 126              		.loc 1 15286 0
 127 0064 7047     		bx	lr
 128              	.L17:
 129 0066 00BF     		.align	2
 130              	.L16:
 131 0068 00000000 		.word	.LANCHOR0
 132              		.cfi_endproc
 133              	.LFE296:
 134              		.size	ff_oem2uni, .-ff_oem2uni
 135              		.align	1
 136 006c AFF30080 		.p2align 4,,15
 137              		.global	ff_wtoupper
 138              		.syntax unified
 139              		.thumb
 140              		.thumb_func
 141              		.fpu softvfp
 142              		.type	ff_wtoupper, %function
 143              	ff_wtoupper:
 144              	.LFB297:
 145              		.loc 1 15482 0
 146              		.cfi_startproc
 147              		@ args = 0, pretend = 0, frame = 0
 148              		@ frame_needed = 0, uses_anonymous_args = 0
 149              		@ link register save eliminated.
 150              	.LVL15:
 151              		.loc 1 15540 0
 152 0070 B0F5805F 		cmp	r0, #4096
 153 0074 07D2     		bcs	.L34
 154 0076 234B     		ldr	r3, .L43
 155              	.L37:
 156              	.LVL16:
 157              		.loc 1 15542 0
 158 0078 1A88     		ldrh	r2, [r3]
 159              	.LVL17:
 160              		.loc 1 15543 0
 161 007a 002A     		cmp	r2, #0
 162 007c 40D0     		beq	.L38
 163 007e 9042     		cmp	r0, r2
 164 0080 3ED3     		bcc	.L38
 165              		.loc 1 15482 0
 166 0082 F0B4     		push	{r4, r5, r6, r7}
 167              		.cfi_def_cfa_offset 16
 168              		.cfi_offset 4, -16
 169              		.cfi_offset 5, -12
ARM GAS  C:\Users\RAKIBU~1\AppData\Local\Temp\ccje4zNc.s 			page 4


 170              		.cfi_offset 6, -8
 171              		.cfi_offset 7, -4
 172 0084 06E0     		b	.L40
 173              	.LVL18:
 174              	.L34:
 175              		.cfi_def_cfa_offset 0
 176              		.cfi_restore 4
 177              		.cfi_restore 5
 178              		.cfi_restore 6
 179              		.cfi_restore 7
 180              		.loc 1 15540 0
 181 0086 204B     		ldr	r3, .L43+4
 182 0088 F6E7     		b	.L37
 183              	.LVL19:
 184              	.L35:
 185              		.cfi_def_cfa_offset 16
 186              		.cfi_offset 4, -16
 187              		.cfi_offset 5, -12
 188              		.cfi_offset 6, -8
 189              		.cfi_offset 7, -4
 190              		.loc 1 15544 0
 191 008a 2B46     		mov	r3, r5
 192              	.LVL20:
 193              	.L32:
 194              		.loc 1 15542 0
 195 008c 1A88     		ldrh	r2, [r3]
 196              	.LVL21:
 197              		.loc 1 15543 0
 198 008e CAB1     		cbz	r2, .L20
 199              		.loc 1 15543 0 is_stmt 0 discriminator 1
 200 0090 9042     		cmp	r0, r2
 201 0092 17D3     		bcc	.L20
 202              	.LVL22:
 203              	.L40:
 204              		.loc 1 15544 0 is_stmt 1
 205 0094 1D1D     		adds	r5, r3, #4
 206              	.LVL23:
 207 0096 5B88     		ldrh	r3, [r3, #2]
 208              	.LVL24:
 209 0098 190A     		lsrs	r1, r3, #8
 210              	.LVL25:
 211 009a DBB2     		uxtb	r3, r3
 212              	.LVL26:
 213              		.loc 1 15545 0
 214 009c 9C18     		adds	r4, r3, r2
 215 009e A042     		cmp	r0, r4
 216 00a0 04DB     		blt	.L42
 217              		.loc 1 15559 0
 218 00a2 0029     		cmp	r1, #0
 219 00a4 F1D1     		bne	.L35
 220              		.loc 1 15559 0 is_stmt 0 discriminator 1
 221 00a6 05EB4303 		add	r3, r5, r3, lsl #1
 222              	.LVL27:
 223 00aa EFE7     		b	.L32
 224              	.LVL28:
 225              	.L42:
 226              		.loc 1 15546 0 is_stmt 1
ARM GAS  C:\Users\RAKIBU~1\AppData\Local\Temp\ccje4zNc.s 			page 5


 227 00ac 0829     		cmp	r1, #8
 228 00ae 09D8     		bhi	.L20
 229 00b0 DFE801F0 		tbb	[pc, r1]
 230              	.LVL29:
 231              	.L23:
 232 00b4 05       		.byte	(.L22-.L23)/2
 233 00b5 0A       		.byte	(.L24-.L23)/2
 234 00b6 10       		.byte	(.L25-.L23)/2
 235 00b7 13       		.byte	(.L26-.L23)/2
 236 00b8 16       		.byte	(.L27-.L23)/2
 237 00b9 19       		.byte	(.L28-.L23)/2
 238 00ba 1C       		.byte	(.L29-.L23)/2
 239 00bb 1F       		.byte	(.L30-.L23)/2
 240 00bc 22       		.byte	(.L31-.L23)/2
 241 00bd 00       		.p2align 1
 242              	.L22:
 243              		.loc 1 15547 0
 244 00be 861A     		subs	r6, r0, r2
 245 00c0 35F81600 		ldrh	r0, [r5, r6, lsl #1]
 246              	.LVL30:
 247              	.L20:
 248              		.loc 1 15563 0
 249 00c4 F0BC     		pop	{r4, r5, r6, r7}
 250              		.cfi_remember_state
 251              		.cfi_restore 7
 252              		.cfi_restore 6
 253              		.cfi_restore 5
 254              		.cfi_restore 4
 255              		.cfi_def_cfa_offset 0
 256              	.LVL31:
 257 00c6 7047     		bx	lr
 258              	.LVL32:
 259              	.L24:
 260              		.cfi_restore_state
 261              		.loc 1 15548 0
 262 00c8 821A     		subs	r2, r0, r2
 263              	.LVL33:
 264 00ca 02F00103 		and	r3, r2, #1
 265 00ce C01A     		subs	r0, r0, r3
 266              	.LVL34:
 267 00d0 80B2     		uxth	r0, r0
 268              	.LVL35:
 269 00d2 F7E7     		b	.L20
 270              	.LVL36:
 271              	.L25:
 272              		.loc 1 15549 0
 273 00d4 1038     		subs	r0, r0, #16
 274              	.LVL37:
 275 00d6 80B2     		uxth	r0, r0
 276              	.LVL38:
 277 00d8 F4E7     		b	.L20
 278              	.L26:
 279              		.loc 1 15550 0
 280 00da 2038     		subs	r0, r0, #32
 281              	.LVL39:
 282 00dc 80B2     		uxth	r0, r0
 283              	.LVL40:
ARM GAS  C:\Users\RAKIBU~1\AppData\Local\Temp\ccje4zNc.s 			page 6


 284 00de F1E7     		b	.L20
 285              	.L27:
 286              		.loc 1 15551 0
 287 00e0 3038     		subs	r0, r0, #48
 288              	.LVL41:
 289 00e2 80B2     		uxth	r0, r0
 290              	.LVL42:
 291 00e4 EEE7     		b	.L20
 292              	.L28:
 293              		.loc 1 15552 0
 294 00e6 1A38     		subs	r0, r0, #26
 295              	.LVL43:
 296 00e8 80B2     		uxth	r0, r0
 297              	.LVL44:
 298 00ea EBE7     		b	.L20
 299              	.L29:
 300              		.loc 1 15553 0
 301 00ec 0830     		adds	r0, r0, #8
 302              	.LVL45:
 303 00ee 80B2     		uxth	r0, r0
 304              	.LVL46:
 305 00f0 E8E7     		b	.L20
 306              	.L30:
 307              		.loc 1 15554 0
 308 00f2 5038     		subs	r0, r0, #80
 309              	.LVL47:
 310 00f4 80B2     		uxth	r0, r0
 311              	.LVL48:
 312 00f6 E5E7     		b	.L20
 313              	.L31:
 314              		.loc 1 15555 0
 315 00f8 A0F5E350 		sub	r0, r0, #7264
 316              	.LVL49:
 317 00fc 80B2     		uxth	r0, r0
 318              	.LVL50:
 319 00fe E1E7     		b	.L20
 320              	.LVL51:
 321              	.L38:
 322              		.cfi_def_cfa_offset 0
 323              		.cfi_restore 4
 324              		.cfi_restore 5
 325              		.cfi_restore 6
 326              		.cfi_restore 7
 327              		.loc 1 15563 0
 328 0100 7047     		bx	lr
 329              	.L44:
 330 0102 00BF     		.align	2
 331              	.L43:
 332 0104 BC010000 		.word	.LANCHOR0+444
 333 0108 00010000 		.word	.LANCHOR0+256
 334              		.cfi_endproc
 335              	.LFE297:
 336              		.size	ff_wtoupper, .-ff_wtoupper
 337              		.section	.rodata
 338              		.align	2
 339              		.set	.LANCHOR0,. + 0
 340              		.type	uc850, %object
ARM GAS  C:\Users\RAKIBU~1\AppData\Local\Temp\ccje4zNc.s 			page 7


 341              		.size	uc850, 256
 342              	uc850:
 343 0000 C700     		.short	199
 344 0002 FC00     		.short	252
 345 0004 E900     		.short	233
 346 0006 E200     		.short	226
 347 0008 E400     		.short	228
 348 000a E000     		.short	224
 349 000c E500     		.short	229
 350 000e E700     		.short	231
 351 0010 EA00     		.short	234
 352 0012 EB00     		.short	235
 353 0014 E800     		.short	232
 354 0016 EF00     		.short	239
 355 0018 EE00     		.short	238
 356 001a EC00     		.short	236
 357 001c C400     		.short	196
 358 001e C500     		.short	197
 359 0020 C900     		.short	201
 360 0022 E600     		.short	230
 361 0024 C600     		.short	198
 362 0026 F400     		.short	244
 363 0028 F600     		.short	246
 364 002a F200     		.short	242
 365 002c FB00     		.short	251
 366 002e F900     		.short	249
 367 0030 FF00     		.short	255
 368 0032 D600     		.short	214
 369 0034 DC00     		.short	220
 370 0036 F800     		.short	248
 371 0038 A300     		.short	163
 372 003a D800     		.short	216
 373 003c D700     		.short	215
 374 003e 9201     		.short	402
 375 0040 E100     		.short	225
 376 0042 ED00     		.short	237
 377 0044 F300     		.short	243
 378 0046 FA00     		.short	250
 379 0048 F100     		.short	241
 380 004a D100     		.short	209
 381 004c AA00     		.short	170
 382 004e BA00     		.short	186
 383 0050 BF00     		.short	191
 384 0052 AE00     		.short	174
 385 0054 AC00     		.short	172
 386 0056 BD00     		.short	189
 387 0058 BC00     		.short	188
 388 005a A100     		.short	161
 389 005c AB00     		.short	171
 390 005e BB00     		.short	187
 391 0060 9125     		.short	9617
 392 0062 9225     		.short	9618
 393 0064 9325     		.short	9619
 394 0066 0225     		.short	9474
 395 0068 2425     		.short	9508
 396 006a C100     		.short	193
 397 006c C200     		.short	194
ARM GAS  C:\Users\RAKIBU~1\AppData\Local\Temp\ccje4zNc.s 			page 8


 398 006e C000     		.short	192
 399 0070 A900     		.short	169
 400 0072 6325     		.short	9571
 401 0074 5125     		.short	9553
 402 0076 5725     		.short	9559
 403 0078 5D25     		.short	9565
 404 007a A200     		.short	162
 405 007c A500     		.short	165
 406 007e 1025     		.short	9488
 407 0080 1425     		.short	9492
 408 0082 3425     		.short	9524
 409 0084 2C25     		.short	9516
 410 0086 1C25     		.short	9500
 411 0088 0025     		.short	9472
 412 008a 3C25     		.short	9532
 413 008c E300     		.short	227
 414 008e C300     		.short	195
 415 0090 5A25     		.short	9562
 416 0092 5425     		.short	9556
 417 0094 6925     		.short	9577
 418 0096 6625     		.short	9574
 419 0098 6025     		.short	9568
 420 009a 5025     		.short	9552
 421 009c 6C25     		.short	9580
 422 009e A400     		.short	164
 423 00a0 F000     		.short	240
 424 00a2 D000     		.short	208
 425 00a4 CA00     		.short	202
 426 00a6 CB00     		.short	203
 427 00a8 C800     		.short	200
 428 00aa 3101     		.short	305
 429 00ac CD00     		.short	205
 430 00ae CE00     		.short	206
 431 00b0 CF00     		.short	207
 432 00b2 1825     		.short	9496
 433 00b4 0C25     		.short	9484
 434 00b6 8825     		.short	9608
 435 00b8 8425     		.short	9604
 436 00ba A600     		.short	166
 437 00bc CC00     		.short	204
 438 00be 8025     		.short	9600
 439 00c0 D300     		.short	211
 440 00c2 DF00     		.short	223
 441 00c4 D400     		.short	212
 442 00c6 D200     		.short	210
 443 00c8 F500     		.short	245
 444 00ca D500     		.short	213
 445 00cc B500     		.short	181
 446 00ce FE00     		.short	254
 447 00d0 DE00     		.short	222
 448 00d2 DA00     		.short	218
 449 00d4 DB00     		.short	219
 450 00d6 D900     		.short	217
 451 00d8 FD00     		.short	253
 452 00da DD00     		.short	221
 453 00dc AF00     		.short	175
 454 00de B400     		.short	180
ARM GAS  C:\Users\RAKIBU~1\AppData\Local\Temp\ccje4zNc.s 			page 9


 455 00e0 AD00     		.short	173
 456 00e2 B100     		.short	177
 457 00e4 1720     		.short	8215
 458 00e6 BE00     		.short	190
 459 00e8 B600     		.short	182
 460 00ea A700     		.short	167
 461 00ec F700     		.short	247
 462 00ee B800     		.short	184
 463 00f0 B000     		.short	176
 464 00f2 A800     		.short	168
 465 00f4 B700     		.short	183
 466 00f6 B900     		.short	185
 467 00f8 B300     		.short	179
 468 00fa B200     		.short	178
 469 00fc A025     		.short	9632
 470 00fe A000     		.short	160
 471              		.type	cvt2.7347, %object
 472              		.size	cvt2.7347, 188
 473              	cvt2.7347:
 474 0100 7D1D     		.short	7549
 475 0102 0100     		.short	1
 476 0104 632C     		.short	11363
 477 0106 001E     		.short	7680
 478 0108 9601     		.short	406
 479 010a A01E     		.short	7840
 480 010c 5A01     		.short	346
 481 010e 001F     		.short	7936
 482 0110 0806     		.short	1544
 483 0112 101F     		.short	7952
 484 0114 0606     		.short	1542
 485 0116 201F     		.short	7968
 486 0118 0806     		.short	1544
 487 011a 301F     		.short	7984
 488 011c 0806     		.short	1544
 489 011e 401F     		.short	8000
 490 0120 0606     		.short	1542
 491 0122 511F     		.short	8017
 492 0124 0700     		.short	7
 493 0126 591F     		.short	8025
 494 0128 521F     		.short	8018
 495 012a 5B1F     		.short	8027
 496 012c 541F     		.short	8020
 497 012e 5D1F     		.short	8029
 498 0130 561F     		.short	8022
 499 0132 5F1F     		.short	8031
 500 0134 601F     		.short	8032
 501 0136 0806     		.short	1544
 502 0138 701F     		.short	8048
 503 013a 0E00     		.short	14
 504 013c BA1F     		.short	8122
 505 013e BB1F     		.short	8123
 506 0140 C81F     		.short	8136
 507 0142 C91F     		.short	8137
 508 0144 CA1F     		.short	8138
 509 0146 CB1F     		.short	8139
 510 0148 DA1F     		.short	8154
 511 014a DB1F     		.short	8155
ARM GAS  C:\Users\RAKIBU~1\AppData\Local\Temp\ccje4zNc.s 			page 10


 512 014c F81F     		.short	8184
 513 014e F91F     		.short	8185
 514 0150 EA1F     		.short	8170
 515 0152 EB1F     		.short	8171
 516 0154 FA1F     		.short	8186
 517 0156 FB1F     		.short	8187
 518 0158 801F     		.short	8064
 519 015a 0806     		.short	1544
 520 015c 901F     		.short	8080
 521 015e 0806     		.short	1544
 522 0160 A01F     		.short	8096
 523 0162 0806     		.short	1544
 524 0164 B01F     		.short	8112
 525 0166 0400     		.short	4
 526 0168 B81F     		.short	8120
 527 016a B91F     		.short	8121
 528 016c B21F     		.short	8114
 529 016e BC1F     		.short	8124
 530 0170 CC1F     		.short	8140
 531 0172 0100     		.short	1
 532 0174 C31F     		.short	8131
 533 0176 D01F     		.short	8144
 534 0178 0206     		.short	1538
 535 017a E01F     		.short	8160
 536 017c 0206     		.short	1538
 537 017e E51F     		.short	8165
 538 0180 0100     		.short	1
 539 0182 EC1F     		.short	8172
 540 0184 F31F     		.short	8179
 541 0186 0100     		.short	1
 542 0188 FC1F     		.short	8188
 543 018a 4E21     		.short	8526
 544 018c 0100     		.short	1
 545 018e 3221     		.short	8498
 546 0190 7021     		.short	8560
 547 0192 1002     		.short	528
 548 0194 8421     		.short	8580
 549 0196 0100     		.short	1
 550 0198 8321     		.short	8579
 551 019a D024     		.short	9424
 552 019c 1A05     		.short	1306
 553 019e 302C     		.short	11312
 554 01a0 2F04     		.short	1071
 555 01a2 602C     		.short	11360
 556 01a4 0201     		.short	258
 557 01a6 672C     		.short	11367
 558 01a8 0601     		.short	262
 559 01aa 752C     		.short	11381
 560 01ac 0201     		.short	258
 561 01ae 802C     		.short	11392
 562 01b0 6401     		.short	356
 563 01b2 002D     		.short	11520
 564 01b4 2608     		.short	2086
 565 01b6 41FF     		.short	-191
 566 01b8 1A03     		.short	794
 567 01ba 0000     		.short	0
 568              		.type	cvt1.7346, %object
ARM GAS  C:\Users\RAKIBU~1\AppData\Local\Temp\ccje4zNc.s 			page 11


 569              		.size	cvt1.7346, 498
 570              	cvt1.7346:
 571 01bc 6100     		.short	97
 572 01be 1A03     		.short	794
 573 01c0 E000     		.short	224
 574 01c2 1703     		.short	791
 575 01c4 F800     		.short	248
 576 01c6 0703     		.short	775
 577 01c8 FF00     		.short	255
 578 01ca 0100     		.short	1
 579 01cc 7801     		.short	376
 580 01ce 0001     		.short	256
 581 01d0 3001     		.short	304
 582 01d2 3201     		.short	306
 583 01d4 0601     		.short	262
 584 01d6 3901     		.short	313
 585 01d8 1001     		.short	272
 586 01da 4A01     		.short	330
 587 01dc 2E01     		.short	302
 588 01de 7901     		.short	377
 589 01e0 0601     		.short	262
 590 01e2 8001     		.short	384
 591 01e4 4D00     		.short	77
 592 01e6 4302     		.short	579
 593 01e8 8101     		.short	385
 594 01ea 8201     		.short	386
 595 01ec 8201     		.short	386
 596 01ee 8401     		.short	388
 597 01f0 8401     		.short	388
 598 01f2 8601     		.short	390
 599 01f4 8701     		.short	391
 600 01f6 8701     		.short	391
 601 01f8 8901     		.short	393
 602 01fa 8A01     		.short	394
 603 01fc 8B01     		.short	395
 604 01fe 8B01     		.short	395
 605 0200 8D01     		.short	397
 606 0202 8E01     		.short	398
 607 0204 8F01     		.short	399
 608 0206 9001     		.short	400
 609 0208 9101     		.short	401
 610 020a 9101     		.short	401
 611 020c 9301     		.short	403
 612 020e 9401     		.short	404
 613 0210 F601     		.short	502
 614 0212 9601     		.short	406
 615 0214 9701     		.short	407
 616 0216 9801     		.short	408
 617 0218 9801     		.short	408
 618 021a 3D02     		.short	573
 619 021c 9B01     		.short	411
 620 021e 9C01     		.short	412
 621 0220 9D01     		.short	413
 622 0222 2002     		.short	544
 623 0224 9F01     		.short	415
 624 0226 A001     		.short	416
 625 0228 A001     		.short	416
ARM GAS  C:\Users\RAKIBU~1\AppData\Local\Temp\ccje4zNc.s 			page 12


 626 022a A201     		.short	418
 627 022c A201     		.short	418
 628 022e A401     		.short	420
 629 0230 A401     		.short	420
 630 0232 A601     		.short	422
 631 0234 A701     		.short	423
 632 0236 A701     		.short	423
 633 0238 A901     		.short	425
 634 023a AA01     		.short	426
 635 023c AB01     		.short	427
 636 023e AC01     		.short	428
 637 0240 AC01     		.short	428
 638 0242 AE01     		.short	430
 639 0244 AF01     		.short	431
 640 0246 AF01     		.short	431
 641 0248 B101     		.short	433
 642 024a B201     		.short	434
 643 024c B301     		.short	435
 644 024e B301     		.short	435
 645 0250 B501     		.short	437
 646 0252 B501     		.short	437
 647 0254 B701     		.short	439
 648 0256 B801     		.short	440
 649 0258 B801     		.short	440
 650 025a BA01     		.short	442
 651 025c BB01     		.short	443
 652 025e BC01     		.short	444
 653 0260 BC01     		.short	444
 654 0262 BE01     		.short	446
 655 0264 F701     		.short	503
 656 0266 C001     		.short	448
 657 0268 C101     		.short	449
 658 026a C201     		.short	450
 659 026c C301     		.short	451
 660 026e C401     		.short	452
 661 0270 C501     		.short	453
 662 0272 C401     		.short	452
 663 0274 C701     		.short	455
 664 0276 C801     		.short	456
 665 0278 C701     		.short	455
 666 027a CA01     		.short	458
 667 027c CB01     		.short	459
 668 027e CA01     		.short	458
 669 0280 CD01     		.short	461
 670 0282 1001     		.short	272
 671 0284 DD01     		.short	477
 672 0286 0100     		.short	1
 673 0288 8E01     		.short	398
 674 028a DE01     		.short	478
 675 028c 1201     		.short	274
 676 028e F301     		.short	499
 677 0290 0300     		.short	3
 678 0292 F101     		.short	497
 679 0294 F401     		.short	500
 680 0296 F401     		.short	500
 681 0298 F801     		.short	504
 682 029a 2801     		.short	296
ARM GAS  C:\Users\RAKIBU~1\AppData\Local\Temp\ccje4zNc.s 			page 13


 683 029c 2202     		.short	546
 684 029e 1201     		.short	274
 685 02a0 3A02     		.short	570
 686 02a2 0900     		.short	9
 687 02a4 652C     		.short	11365
 688 02a6 3B02     		.short	571
 689 02a8 3B02     		.short	571
 690 02aa 3D02     		.short	573
 691 02ac 662C     		.short	11366
 692 02ae 3F02     		.short	575
 693 02b0 4002     		.short	576
 694 02b2 4102     		.short	577
 695 02b4 4102     		.short	577
 696 02b6 4602     		.short	582
 697 02b8 0A01     		.short	266
 698 02ba 5302     		.short	595
 699 02bc 4000     		.short	64
 700 02be 8101     		.short	385
 701 02c0 8601     		.short	390
 702 02c2 5502     		.short	597
 703 02c4 8901     		.short	393
 704 02c6 8A01     		.short	394
 705 02c8 5802     		.short	600
 706 02ca 8F01     		.short	399
 707 02cc 5A02     		.short	602
 708 02ce 9001     		.short	400
 709 02d0 5C02     		.short	604
 710 02d2 5D02     		.short	605
 711 02d4 5E02     		.short	606
 712 02d6 5F02     		.short	607
 713 02d8 9301     		.short	403
 714 02da 6102     		.short	609
 715 02dc 6202     		.short	610
 716 02de 9401     		.short	404
 717 02e0 6402     		.short	612
 718 02e2 6502     		.short	613
 719 02e4 6602     		.short	614
 720 02e6 6702     		.short	615
 721 02e8 9701     		.short	407
 722 02ea 9601     		.short	406
 723 02ec 6A02     		.short	618
 724 02ee 622C     		.short	11362
 725 02f0 6C02     		.short	620
 726 02f2 6D02     		.short	621
 727 02f4 6E02     		.short	622
 728 02f6 9C01     		.short	412
 729 02f8 7002     		.short	624
 730 02fa 7102     		.short	625
 731 02fc 9D01     		.short	413
 732 02fe 7302     		.short	627
 733 0300 7402     		.short	628
 734 0302 9F01     		.short	415
 735 0304 7602     		.short	630
 736 0306 7702     		.short	631
 737 0308 7802     		.short	632
 738 030a 7902     		.short	633
 739 030c 7A02     		.short	634
ARM GAS  C:\Users\RAKIBU~1\AppData\Local\Temp\ccje4zNc.s 			page 14


 740 030e 7B02     		.short	635
 741 0310 7C02     		.short	636
 742 0312 642C     		.short	11364
 743 0314 7E02     		.short	638
 744 0316 7F02     		.short	639
 745 0318 A601     		.short	422
 746 031a 8102     		.short	641
 747 031c 8202     		.short	642
 748 031e A901     		.short	425
 749 0320 8402     		.short	644
 750 0322 8502     		.short	645
 751 0324 8602     		.short	646
 752 0326 8702     		.short	647
 753 0328 AE01     		.short	430
 754 032a 4402     		.short	580
 755 032c B101     		.short	433
 756 032e B201     		.short	434
 757 0330 4502     		.short	581
 758 0332 8D02     		.short	653
 759 0334 8E02     		.short	654
 760 0336 8F02     		.short	655
 761 0338 9002     		.short	656
 762 033a 9102     		.short	657
 763 033c B701     		.short	439
 764 033e 7B03     		.short	891
 765 0340 0300     		.short	3
 766 0342 FD03     		.short	1021
 767 0344 FE03     		.short	1022
 768 0346 FF03     		.short	1023
 769 0348 AC03     		.short	940
 770 034a 0400     		.short	4
 771 034c 8603     		.short	902
 772 034e 8803     		.short	904
 773 0350 8903     		.short	905
 774 0352 8A03     		.short	906
 775 0354 B103     		.short	945
 776 0356 1103     		.short	785
 777 0358 C203     		.short	962
 778 035a 0200     		.short	2
 779 035c A303     		.short	931
 780 035e A303     		.short	931
 781 0360 C403     		.short	964
 782 0362 0803     		.short	776
 783 0364 CC03     		.short	972
 784 0366 0300     		.short	3
 785 0368 8C03     		.short	908
 786 036a 8E03     		.short	910
 787 036c 8F03     		.short	911
 788 036e D803     		.short	984
 789 0370 1801     		.short	280
 790 0372 F203     		.short	1010
 791 0374 0A00     		.short	10
 792 0376 F903     		.short	1017
 793 0378 F303     		.short	1011
 794 037a F403     		.short	1012
 795 037c F503     		.short	1013
 796 037e F603     		.short	1014
ARM GAS  C:\Users\RAKIBU~1\AppData\Local\Temp\ccje4zNc.s 			page 15


 797 0380 F703     		.short	1015
 798 0382 F703     		.short	1015
 799 0384 F903     		.short	1017
 800 0386 FA03     		.short	1018
 801 0388 FA03     		.short	1018
 802 038a 3004     		.short	1072
 803 038c 2003     		.short	800
 804 038e 5004     		.short	1104
 805 0390 1007     		.short	1808
 806 0392 6004     		.short	1120
 807 0394 2201     		.short	290
 808 0396 8A04     		.short	1162
 809 0398 3601     		.short	310
 810 039a C104     		.short	1217
 811 039c 0E01     		.short	270
 812 039e CF04     		.short	1231
 813 03a0 0100     		.short	1
 814 03a2 C004     		.short	1216
 815 03a4 D004     		.short	1232
 816 03a6 4401     		.short	324
 817 03a8 6105     		.short	1377
 818 03aa 2604     		.short	1062
 819 03ac 0000     		.short	0
 820              		.text
 821              	.Letext0:
 822              		.file 2 "../../../ChibiOSRepo/chibios191/ext/fatfs/src/integer.h"
 823              		.file 3 "c:\\chibistudio\\tools\\gnu tools arm embedded\\7.0 2017q4\\lib\\gcc\\arm-none-eabi\\7.2.
 824              		.file 4 "c:\\chibistudio\\tools\\gnu tools arm embedded\\7.0 2017q4\\arm-none-eabi\\include\\machi
 825              		.file 5 "c:\\chibistudio\\tools\\gnu tools arm embedded\\7.0 2017q4\\arm-none-eabi\\include\\sys\\
 826              		.file 6 "../../../ChibiOSRepo/chibios191/os/common/ports/ARMCMx/compilers/GCC/chtypes.h"
 827              		.file 7 "../../../ChibiOSRepo/chibios191/os/rt/include/chsystypes.h"
 828              		.file 8 "../../../ChibiOSRepo/chibios191/os/rt/include/chschd.h"
 829              		.file 9 "../../../ChibiOSRepo/chibios191/os/rt/include/chtime.h"
 830              		.file 10 "../../../ChibiOSRepo/chibios191/os/common/ext/ARM/CMSIS/Core/Include/core_cm4.h"
 831              		.file 11 "../../../ChibiOSRepo/chibios191/os/common/ext/ST/STM32F4xx/system_stm32f4xx.h"
 832              		.file 12 "../../../ChibiOSRepo/chibios191/os/common/ports/ARMCMx/chcore.h"
 833              		.file 13 "../../../ChibiOSRepo/chibios191/os/common/ports/ARMCMx/chcore_v7m.h"
 834              		.file 14 "../../../ChibiOSRepo/chibios191/os/rt/include/chtrace.h"
 835              		.file 15 "../../../ChibiOSRepo/chibios191/os/rt/include/chtm.h"
 836              		.file 16 "../../../ChibiOSRepo/chibios191/os/rt/include/chstats.h"
 837              		.file 17 "../../../ChibiOSRepo/chibios191/os/rt/include/chsem.h"
 838              		.file 18 "../../../ChibiOSRepo/chibios191/os/rt/include/chmtx.h"
 839              		.file 19 "../../../ChibiOSRepo/chibios191/os/rt/include/chsys.h"
 840              		.file 20 "../../../ChibiOSRepo/chibios191/os/rt/include/chregistry.h"
 841              		.file 21 "../../../ChibiOSRepo/chibios191/os/oslib/include/chmemcore.h"
 842              		.file 22 "../../../ChibiOSRepo/chibios191/os/oslib/include/chmempools.h"
 843              		.file 23 "../../../ChibiOSRepo/chibios191/os/oslib/include/chfactory.h"
 844              		.section	.debug_info,"",%progbits
 845              	.Ldebug_info0:
 846 0000 760D0000 		.4byte	0xd76
 847 0004 0400     		.2byte	0x4
 848 0006 00000000 		.4byte	.Ldebug_abbrev0
 849 000a 04       		.byte	0x4
 850 000b 01       		.uleb128 0x1
 851 000c C9040000 		.4byte	.LASF178
 852 0010 0C       		.byte	0xc
 853 0011 C5010000 		.4byte	.LASF179
ARM GAS  C:\Users\RAKIBU~1\AppData\Local\Temp\ccje4zNc.s 			page 16


 854 0015 FF020000 		.4byte	.LASF180
 855 0019 00000000 		.4byte	.Ltext0
 856 001d 0C010000 		.4byte	.Letext0-.Ltext0
 857 0021 00000000 		.4byte	.Ldebug_line0
 858 0025 02       		.uleb128 0x2
 859 0026 04       		.byte	0x4
 860 0027 05       		.byte	0x5
 861 0028 696E7400 		.ascii	"int\000"
 862 002c 03       		.uleb128 0x3
 863 002d 04       		.byte	0x4
 864 002e 07       		.byte	0x7
 865 002f 9B020000 		.4byte	.LASF0
 866 0033 03       		.uleb128 0x3
 867 0034 01       		.byte	0x1
 868 0035 08       		.byte	0x8
 869 0036 F8050000 		.4byte	.LASF1
 870 003a 03       		.uleb128 0x3
 871 003b 02       		.byte	0x2
 872 003c 05       		.byte	0x5
 873 003d 1C060000 		.4byte	.LASF2
 874 0041 04       		.uleb128 0x4
 875 0042 A6040000 		.4byte	.LASF4
 876 0046 02       		.byte	0x2
 877 0047 1A       		.byte	0x1a
 878 0048 4C000000 		.4byte	0x4c
 879 004c 03       		.uleb128 0x3
 880 004d 02       		.byte	0x2
 881 004e 07       		.byte	0x7
 882 004f 54070000 		.4byte	.LASF3
 883 0053 04       		.uleb128 0x4
 884 0054 F2070000 		.4byte	.LASF5
 885 0058 02       		.byte	0x2
 886 0059 1B       		.byte	0x1b
 887 005a 4C000000 		.4byte	0x4c
 888 005e 05       		.uleb128 0x5
 889 005f 53000000 		.4byte	0x53
 890 0063 03       		.uleb128 0x3
 891 0064 04       		.byte	0x4
 892 0065 05       		.byte	0x5
 893 0066 79010000 		.4byte	.LASF6
 894 006a 03       		.uleb128 0x3
 895 006b 04       		.byte	0x4
 896 006c 07       		.byte	0x7
 897 006d C7060000 		.4byte	.LASF7
 898 0071 03       		.uleb128 0x3
 899 0072 08       		.byte	0x8
 900 0073 07       		.byte	0x7
 901 0074 A7000000 		.4byte	.LASF8
 902 0078 04       		.uleb128 0x4
 903 0079 0D000000 		.4byte	.LASF9
 904 007d 03       		.byte	0x3
 905 007e D8       		.byte	0xd8
 906 007f 2C000000 		.4byte	0x2c
 907 0083 03       		.uleb128 0x3
 908 0084 08       		.byte	0x8
 909 0085 05       		.byte	0x5
 910 0086 2C010000 		.4byte	.LASF10
ARM GAS  C:\Users\RAKIBU~1\AppData\Local\Temp\ccje4zNc.s 			page 17


 911 008a 03       		.uleb128 0x3
 912 008b 08       		.byte	0x8
 913 008c 04       		.byte	0x4
 914 008d 79040000 		.4byte	.LASF11
 915 0091 03       		.uleb128 0x3
 916 0092 01       		.byte	0x1
 917 0093 06       		.byte	0x6
 918 0094 3A010000 		.4byte	.LASF12
 919 0098 04       		.uleb128 0x4
 920 0099 3C000000 		.4byte	.LASF13
 921 009d 04       		.byte	0x4
 922 009e 2B       		.byte	0x2b
 923 009f 33000000 		.4byte	0x33
 924 00a3 04       		.uleb128 0x4
 925 00a4 F4060000 		.4byte	.LASF14
 926 00a8 04       		.byte	0x4
 927 00a9 39       		.byte	0x39
 928 00aa 4C000000 		.4byte	0x4c
 929 00ae 04       		.uleb128 0x4
 930 00af 13040000 		.4byte	.LASF15
 931 00b3 04       		.byte	0x4
 932 00b4 4D       		.byte	0x4d
 933 00b5 63000000 		.4byte	0x63
 934 00b9 04       		.uleb128 0x4
 935 00ba 25020000 		.4byte	.LASF16
 936 00be 04       		.byte	0x4
 937 00bf 4F       		.byte	0x4f
 938 00c0 6A000000 		.4byte	0x6a
 939 00c4 04       		.uleb128 0x4
 940 00c5 79050000 		.4byte	.LASF17
 941 00c9 04       		.byte	0x4
 942 00ca 69       		.byte	0x69
 943 00cb 71000000 		.4byte	0x71
 944 00cf 04       		.uleb128 0x4
 945 00d0 D3070000 		.4byte	.LASF18
 946 00d4 05       		.byte	0x5
 947 00d5 18       		.byte	0x18
 948 00d6 98000000 		.4byte	0x98
 949 00da 05       		.uleb128 0x5
 950 00db CF000000 		.4byte	0xcf
 951 00df 04       		.uleb128 0x4
 952 00e0 BC010000 		.4byte	.LASF19
 953 00e4 05       		.byte	0x5
 954 00e5 24       		.byte	0x24
 955 00e6 A3000000 		.4byte	0xa3
 956 00ea 04       		.uleb128 0x4
 957 00eb F0050000 		.4byte	.LASF20
 958 00ef 05       		.byte	0x5
 959 00f0 2C       		.byte	0x2c
 960 00f1 AE000000 		.4byte	0xae
 961 00f5 06       		.uleb128 0x6
 962 00f6 EA000000 		.4byte	0xea
 963 00fa 04       		.uleb128 0x4
 964 00fb A1060000 		.4byte	.LASF21
 965 00ff 05       		.byte	0x5
 966 0100 30       		.byte	0x30
 967 0101 B9000000 		.4byte	0xb9
ARM GAS  C:\Users\RAKIBU~1\AppData\Local\Temp\ccje4zNc.s 			page 18


 968 0105 04       		.uleb128 0x4
 969 0106 26000000 		.4byte	.LASF22
 970 010a 05       		.byte	0x5
 971 010b 3C       		.byte	0x3c
 972 010c C4000000 		.4byte	0xc4
 973 0110 04       		.uleb128 0x4
 974 0111 47040000 		.4byte	.LASF23
 975 0115 06       		.byte	0x6
 976 0116 27       		.byte	0x27
 977 0117 FA000000 		.4byte	0xfa
 978 011b 04       		.uleb128 0x4
 979 011c 23010000 		.4byte	.LASF24
 980 0120 06       		.byte	0x6
 981 0121 28       		.byte	0x28
 982 0122 05010000 		.4byte	0x105
 983 0126 04       		.uleb128 0x4
 984 0127 D1030000 		.4byte	.LASF25
 985 012b 06       		.byte	0x6
 986 012c 2A       		.byte	0x2a
 987 012d CF000000 		.4byte	0xcf
 988 0131 04       		.uleb128 0x4
 989 0132 8C010000 		.4byte	.LASF26
 990 0136 06       		.byte	0x6
 991 0137 2B       		.byte	0x2b
 992 0138 CF000000 		.4byte	0xcf
 993 013c 04       		.uleb128 0x4
 994 013d A3050000 		.4byte	.LASF27
 995 0141 06       		.byte	0x6
 996 0142 2C       		.byte	0x2c
 997 0143 CF000000 		.4byte	0xcf
 998 0147 04       		.uleb128 0x4
 999 0148 D0050000 		.4byte	.LASF28
 1000 014c 06       		.byte	0x6
 1001 014d 2E       		.byte	0x2e
 1002 014e FA000000 		.4byte	0xfa
 1003 0152 04       		.uleb128 0x4
 1004 0153 9C030000 		.4byte	.LASF29
 1005 0157 06       		.byte	0x6
 1006 0158 2F       		.byte	0x2f
 1007 0159 EA000000 		.4byte	0xea
 1008 015d 04       		.uleb128 0x4
 1009 015e F2030000 		.4byte	.LASF30
 1010 0162 06       		.byte	0x6
 1011 0163 31       		.byte	0x31
 1012 0164 FA000000 		.4byte	0xfa
 1013 0168 04       		.uleb128 0x4
 1014 0169 8C020000 		.4byte	.LASF31
 1015 016d 06       		.byte	0x6
 1016 016e 33       		.byte	0x33
 1017 016f EA000000 		.4byte	0xea
 1018 0173 04       		.uleb128 0x4
 1019 0174 A2030000 		.4byte	.LASF32
 1020 0178 06       		.byte	0x6
 1021 0179 34       		.byte	0x34
 1022 017a FA000000 		.4byte	0xfa
 1023 017e 04       		.uleb128 0x4
 1024 017f FF060000 		.4byte	.LASF33
ARM GAS  C:\Users\RAKIBU~1\AppData\Local\Temp\ccje4zNc.s 			page 19


 1025 0183 07       		.byte	0x7
 1026 0184 34       		.byte	0x34
 1027 0185 89010000 		.4byte	0x189
 1028 0189 07       		.uleb128 0x7
 1029 018a 92030000 		.4byte	.LASF52
 1030 018e 60       		.byte	0x60
 1031 018f 08       		.byte	0x8
 1032 0190 8E       		.byte	0x8e
 1033 0191 74020000 		.4byte	0x274
 1034 0195 08       		.uleb128 0x8
 1035 0196 F3020000 		.4byte	.LASF34
 1036 019a 08       		.byte	0x8
 1037 019b 8F       		.byte	0x8f
 1038 019c A9020000 		.4byte	0x2a9
 1039 01a0 00       		.byte	0
 1040 01a1 08       		.uleb128 0x8
 1041 01a2 63050000 		.4byte	.LASF35
 1042 01a6 08       		.byte	0x8
 1043 01a7 90       		.byte	0x90
 1044 01a8 47010000 		.4byte	0x147
 1045 01ac 08       		.byte	0x8
 1046 01ad 09       		.uleb128 0x9
 1047 01ae 63747800 		.ascii	"ctx\000"
 1048 01b2 08       		.byte	0x8
 1049 01b3 91       		.byte	0x91
 1050 01b4 40050000 		.4byte	0x540
 1051 01b8 0C       		.byte	0xc
 1052 01b9 08       		.uleb128 0x8
 1053 01ba 28040000 		.4byte	.LASF36
 1054 01be 08       		.byte	0x8
 1055 01bf 93       		.byte	0x93
 1056 01c0 7F020000 		.4byte	0x27f
 1057 01c4 10       		.byte	0x10
 1058 01c5 08       		.uleb128 0x8
 1059 01c6 E5060000 		.4byte	.LASF37
 1060 01ca 08       		.byte	0x8
 1061 01cb 94       		.byte	0x94
 1062 01cc 7F020000 		.4byte	0x27f
 1063 01d0 14       		.byte	0x14
 1064 01d1 08       		.uleb128 0x8
 1065 01d2 8D030000 		.4byte	.LASF38
 1066 01d6 08       		.byte	0x8
 1067 01d7 9B       		.byte	0x9b
 1068 01d8 10060000 		.4byte	0x610
 1069 01dc 18       		.byte	0x18
 1070 01dd 08       		.uleb128 0x8
 1071 01de D9060000 		.4byte	.LASF39
 1072 01e2 08       		.byte	0x8
 1073 01e3 A4       		.byte	0xa4
 1074 01e4 BF080000 		.4byte	0x8bf
 1075 01e8 1C       		.byte	0x1c
 1076 01e9 08       		.uleb128 0x8
 1077 01ea 73010000 		.4byte	.LASF40
 1078 01ee 08       		.byte	0x8
 1079 01ef A9       		.byte	0xa9
 1080 01f0 31010000 		.4byte	0x131
 1081 01f4 20       		.byte	0x20
ARM GAS  C:\Users\RAKIBU~1\AppData\Local\Temp\ccje4zNc.s 			page 20


 1082 01f5 08       		.uleb128 0x8
 1083 01f6 DB070000 		.4byte	.LASF41
 1084 01fa 08       		.byte	0x8
 1085 01fb AD       		.byte	0xad
 1086 01fc 26010000 		.4byte	0x126
 1087 0200 21       		.byte	0x21
 1088 0201 08       		.uleb128 0x8
 1089 0202 B6050000 		.4byte	.LASF42
 1090 0206 08       		.byte	0x8
 1091 0207 B2       		.byte	0xb2
 1092 0208 3C010000 		.4byte	0x13c
 1093 020c 22       		.byte	0x22
 1094 020d 0A       		.uleb128 0xa
 1095 020e 7500     		.ascii	"u\000"
 1096 0210 08       		.byte	0x8
 1097 0211 0301     		.2byte	0x103
 1098 0213 F5070000 		.4byte	0x7f5
 1099 0217 24       		.byte	0x24
 1100 0218 0B       		.uleb128 0xb
 1101 0219 52020000 		.4byte	.LASF43
 1102 021d 08       		.byte	0x8
 1103 021e 0801     		.2byte	0x108
 1104 0220 85020000 		.4byte	0x285
 1105 0224 28       		.byte	0x28
 1106 0225 0B       		.uleb128 0xb
 1107 0226 92020000 		.4byte	.LASF44
 1108 022a 08       		.byte	0x8
 1109 022b 0E01     		.2byte	0x10e
 1110 022d A9020000 		.4byte	0x2a9
 1111 0231 2C       		.byte	0x2c
 1112 0232 0B       		.uleb128 0xb
 1113 0233 A9030000 		.4byte	.LASF45
 1114 0237 08       		.byte	0x8
 1115 0238 1401     		.2byte	0x114
 1116 023a 5D010000 		.4byte	0x15d
 1117 023e 34       		.byte	0x34
 1118 023f 0B       		.uleb128 0xb
 1119 0240 3A080000 		.4byte	.LASF46
 1120 0244 08       		.byte	0x8
 1121 0245 1B01     		.2byte	0x11b
 1122 0247 B9080000 		.4byte	0x8b9
 1123 024b 38       		.byte	0x38
 1124 024c 0B       		.uleb128 0xb
 1125 024d 36040000 		.4byte	.LASF47
 1126 0251 08       		.byte	0x8
 1127 0252 1F01     		.2byte	0x11f
 1128 0254 47010000 		.4byte	0x147
 1129 0258 3C       		.byte	0x3c
 1130 0259 0B       		.uleb128 0xb
 1131 025a F9020000 		.4byte	.LASF48
 1132 025e 08       		.byte	0x8
 1133 025f 2601     		.2byte	0x126
 1134 0261 5C030000 		.4byte	0x35c
 1135 0265 40       		.byte	0x40
 1136 0266 0B       		.uleb128 0xb
 1137 0267 AB010000 		.4byte	.LASF49
 1138 026b 08       		.byte	0x8
ARM GAS  C:\Users\RAKIBU~1\AppData\Local\Temp\ccje4zNc.s 			page 21


 1139 026c 2C01     		.2byte	0x12c
 1140 026e A6070000 		.4byte	0x7a6
 1141 0272 48       		.byte	0x48
 1142 0273 00       		.byte	0
 1143 0274 04       		.uleb128 0x4
 1144 0275 4F040000 		.4byte	.LASF50
 1145 0279 07       		.byte	0x7
 1146 027a 39       		.byte	0x39
 1147 027b 7F020000 		.4byte	0x27f
 1148 027f 0C       		.uleb128 0xc
 1149 0280 04       		.byte	0x4
 1150 0281 7E010000 		.4byte	0x17e
 1151 0285 04       		.uleb128 0x4
 1152 0286 F8070000 		.4byte	.LASF51
 1153 028a 07       		.byte	0x7
 1154 028b 3E       		.byte	0x3e
 1155 028c 90020000 		.4byte	0x290
 1156 0290 07       		.uleb128 0x7
 1157 0291 B1060000 		.4byte	.LASF53
 1158 0295 04       		.byte	0x4
 1159 0296 08       		.byte	0x8
 1160 0297 7C       		.byte	0x7c
 1161 0298 A9020000 		.4byte	0x2a9
 1162 029c 08       		.uleb128 0x8
 1163 029d 14000000 		.4byte	.LASF54
 1164 02a1 08       		.byte	0x8
 1165 02a2 7D       		.byte	0x7d
 1166 02a3 7F020000 		.4byte	0x27f
 1167 02a7 00       		.byte	0
 1168 02a8 00       		.byte	0
 1169 02a9 04       		.uleb128 0x4
 1170 02aa 9B070000 		.4byte	.LASF55
 1171 02ae 07       		.byte	0x7
 1172 02af 45       		.byte	0x45
 1173 02b0 B4020000 		.4byte	0x2b4
 1174 02b4 07       		.uleb128 0x7
 1175 02b5 57000000 		.4byte	.LASF56
 1176 02b9 08       		.byte	0x8
 1177 02ba 08       		.byte	0x8
 1178 02bb 83       		.byte	0x83
 1179 02bc D9020000 		.4byte	0x2d9
 1180 02c0 08       		.uleb128 0x8
 1181 02c1 14000000 		.4byte	.LASF54
 1182 02c5 08       		.byte	0x8
 1183 02c6 84       		.byte	0x84
 1184 02c7 7F020000 		.4byte	0x27f
 1185 02cb 00       		.byte	0
 1186 02cc 08       		.uleb128 0x8
 1187 02cd 46000000 		.4byte	.LASF57
 1188 02d1 08       		.byte	0x8
 1189 02d2 85       		.byte	0x85
 1190 02d3 7F020000 		.4byte	0x27f
 1191 02d7 04       		.byte	0x4
 1192 02d8 00       		.byte	0
 1193 02d9 04       		.uleb128 0x4
 1194 02da 00000000 		.4byte	.LASF58
 1195 02de 07       		.byte	0x7
ARM GAS  C:\Users\RAKIBU~1\AppData\Local\Temp\ccje4zNc.s 			page 22


 1196 02df 4C       		.byte	0x4c
 1197 02e0 E4020000 		.4byte	0x2e4
 1198 02e4 0D       		.uleb128 0xd
 1199 02e5 E4030000 		.4byte	.LASF59
 1200 02e9 1C       		.byte	0x1c
 1201 02ea 08       		.byte	0x8
 1202 02eb 5E01     		.2byte	0x15e
 1203 02ed 40030000 		.4byte	0x340
 1204 02f1 0B       		.uleb128 0xb
 1205 02f2 F3020000 		.4byte	.LASF34
 1206 02f6 08       		.byte	0x8
 1207 02f7 5F01     		.2byte	0x15f
 1208 02f9 A9020000 		.4byte	0x2a9
 1209 02fd 00       		.byte	0
 1210 02fe 0B       		.uleb128 0xb
 1211 02ff 63050000 		.4byte	.LASF35
 1212 0303 08       		.byte	0x8
 1213 0304 6001     		.2byte	0x160
 1214 0306 47010000 		.4byte	0x147
 1215 030a 08       		.byte	0x8
 1216 030b 0A       		.uleb128 0xa
 1217 030c 63747800 		.ascii	"ctx\000"
 1218 0310 08       		.byte	0x8
 1219 0311 6201     		.2byte	0x162
 1220 0313 40050000 		.4byte	0x540
 1221 0317 0C       		.byte	0xc
 1222 0318 0B       		.uleb128 0xb
 1223 0319 28040000 		.4byte	.LASF36
 1224 031d 08       		.byte	0x8
 1225 031e 6501     		.2byte	0x165
 1226 0320 7F020000 		.4byte	0x27f
 1227 0324 10       		.byte	0x10
 1228 0325 0B       		.uleb128 0xb
 1229 0326 E5060000 		.4byte	.LASF37
 1230 032a 08       		.byte	0x8
 1231 032b 6601     		.2byte	0x166
 1232 032d 7F020000 		.4byte	0x27f
 1233 0331 14       		.byte	0x14
 1234 0332 0B       		.uleb128 0xb
 1235 0333 71050000 		.4byte	.LASF60
 1236 0337 08       		.byte	0x8
 1237 0338 6901     		.2byte	0x169
 1238 033a 7F020000 		.4byte	0x27f
 1239 033e 18       		.byte	0x18
 1240 033f 00       		.byte	0
 1241 0340 04       		.uleb128 0x4
 1242 0341 22070000 		.4byte	.LASF61
 1243 0345 07       		.byte	0x7
 1244 0346 51       		.byte	0x51
 1245 0347 4B030000 		.4byte	0x34b
 1246 034b 0C       		.uleb128 0xc
 1247 034c 04       		.byte	0x4
 1248 034d 51030000 		.4byte	0x351
 1249 0351 0E       		.uleb128 0xe
 1250 0352 5C030000 		.4byte	0x35c
 1251 0356 0F       		.uleb128 0xf
 1252 0357 5C030000 		.4byte	0x35c
ARM GAS  C:\Users\RAKIBU~1\AppData\Local\Temp\ccje4zNc.s 			page 23


 1253 035b 00       		.byte	0
 1254 035c 10       		.uleb128 0x10
 1255 035d 04       		.byte	0x4
 1256 035e 04       		.uleb128 0x4
 1257 035f BB050000 		.4byte	.LASF62
 1258 0363 07       		.byte	0x7
 1259 0364 56       		.byte	0x56
 1260 0365 69030000 		.4byte	0x369
 1261 0369 0D       		.uleb128 0xd
 1262 036a 55060000 		.4byte	.LASF63
 1263 036e 18       		.byte	0x18
 1264 036f 08       		.byte	0x8
 1265 0370 3901     		.2byte	0x139
 1266 0372 B8030000 		.4byte	0x3b8
 1267 0376 0B       		.uleb128 0xb
 1268 0377 14000000 		.4byte	.LASF54
 1269 037b 08       		.byte	0x8
 1270 037c 3A01     		.2byte	0x13a
 1271 037e C5080000 		.4byte	0x8c5
 1272 0382 00       		.byte	0
 1273 0383 0B       		.uleb128 0xb
 1274 0384 46000000 		.4byte	.LASF57
 1275 0388 08       		.byte	0x8
 1276 0389 3B01     		.2byte	0x13b
 1277 038b C5080000 		.4byte	0x8c5
 1278 038f 04       		.byte	0x4
 1279 0390 0B       		.uleb128 0xb
 1280 0391 19000000 		.4byte	.LASF64
 1281 0395 08       		.byte	0x8
 1282 0396 3C01     		.2byte	0x13c
 1283 0398 C8040000 		.4byte	0x4c8
 1284 039c 08       		.byte	0x8
 1285 039d 0B       		.uleb128 0xb
 1286 039e A6010000 		.4byte	.LASF65
 1287 03a2 08       		.byte	0x8
 1288 03a3 3D01     		.2byte	0x13d
 1289 03a5 40030000 		.4byte	0x340
 1290 03a9 10       		.byte	0x10
 1291 03aa 0A       		.uleb128 0xa
 1292 03ab 70617200 		.ascii	"par\000"
 1293 03af 08       		.byte	0x8
 1294 03b0 3F01     		.2byte	0x13f
 1295 03b2 5C030000 		.4byte	0x35c
 1296 03b6 14       		.byte	0x14
 1297 03b7 00       		.byte	0
 1298 03b8 04       		.uleb128 0x4
 1299 03b9 EC000000 		.4byte	.LASF66
 1300 03bd 07       		.byte	0x7
 1301 03be 5B       		.byte	0x5b
 1302 03bf C3030000 		.4byte	0x3c3
 1303 03c3 0D       		.uleb128 0xd
 1304 03c4 62040000 		.4byte	.LASF67
 1305 03c8 18       		.byte	0x18
 1306 03c9 08       		.byte	0x8
 1307 03ca 4901     		.2byte	0x149
 1308 03cc 05040000 		.4byte	0x405
 1309 03d0 0B       		.uleb128 0xb
ARM GAS  C:\Users\RAKIBU~1\AppData\Local\Temp\ccje4zNc.s 			page 24


 1310 03d1 14000000 		.4byte	.LASF54
 1311 03d5 08       		.byte	0x8
 1312 03d6 4A01     		.2byte	0x14a
 1313 03d8 C5080000 		.4byte	0x8c5
 1314 03dc 00       		.byte	0
 1315 03dd 0B       		.uleb128 0xb
 1316 03de 46000000 		.4byte	.LASF57
 1317 03e2 08       		.byte	0x8
 1318 03e3 4C01     		.2byte	0x14c
 1319 03e5 C5080000 		.4byte	0x8c5
 1320 03e9 04       		.byte	0x4
 1321 03ea 0B       		.uleb128 0xb
 1322 03eb 19000000 		.4byte	.LASF64
 1323 03ef 08       		.byte	0x8
 1324 03f0 4E01     		.2byte	0x14e
 1325 03f2 C8040000 		.4byte	0x4c8
 1326 03f6 08       		.byte	0x8
 1327 03f7 0B       		.uleb128 0xb
 1328 03f8 26060000 		.4byte	.LASF68
 1329 03fc 08       		.byte	0x8
 1330 03fd 5601     		.2byte	0x156
 1331 03ff BD040000 		.4byte	0x4bd
 1332 0403 10       		.byte	0x10
 1333 0404 00       		.byte	0
 1334 0405 04       		.uleb128 0x4
 1335 0406 68000000 		.4byte	.LASF69
 1336 040a 07       		.byte	0x7
 1337 040b 60       		.byte	0x60
 1338 040c 10040000 		.4byte	0x410
 1339 0410 11       		.uleb128 0x11
 1340 0411 42020000 		.4byte	.LASF70
 1341 0415 1408     		.2byte	0x814
 1342 0417 08       		.byte	0x8
 1343 0418 7001     		.2byte	0x170
 1344 041a 53040000 		.4byte	0x453
 1345 041e 0B       		.uleb128 0xb
 1346 041f 30070000 		.4byte	.LASF71
 1347 0423 08       		.byte	0x8
 1348 0424 7801     		.2byte	0x178
 1349 0426 16060000 		.4byte	0x616
 1350 042a 00       		.byte	0
 1351 042b 0B       		.uleb128 0xb
 1352 042c B7070000 		.4byte	.LASF72
 1353 0430 08       		.byte	0x8
 1354 0431 7D01     		.2byte	0x17d
 1355 0433 68010000 		.4byte	0x168
 1356 0437 04       		.byte	0x4
 1357 0438 0B       		.uleb128 0xb
 1358 0439 75020000 		.4byte	.LASF73
 1359 043d 08       		.byte	0x8
 1360 043e 8101     		.2byte	0x181
 1361 0440 68010000 		.4byte	0x168
 1362 0444 08       		.byte	0x8
 1363 0445 0B       		.uleb128 0xb
 1364 0446 11080000 		.4byte	.LASF74
 1365 044a 08       		.byte	0x8
 1366 044b 8701     		.2byte	0x187
ARM GAS  C:\Users\RAKIBU~1\AppData\Local\Temp\ccje4zNc.s 			page 25


 1367 044d 38070000 		.4byte	0x738
 1368 0451 0C       		.byte	0xc
 1369 0452 00       		.byte	0
 1370 0453 04       		.uleb128 0x4
 1371 0454 BD030000 		.4byte	.LASF75
 1372 0458 07       		.byte	0x7
 1373 0459 65       		.byte	0x65
 1374 045a 5E040000 		.4byte	0x45e
 1375 045e 11       		.uleb128 0x11
 1376 045f 3B060000 		.4byte	.LASF76
 1377 0463 F008     		.2byte	0x8f0
 1378 0465 08       		.byte	0x8
 1379 0466 9001     		.2byte	0x190
 1380 0468 BD040000 		.4byte	0x4bd
 1381 046c 0B       		.uleb128 0xb
 1382 046d 66010000 		.4byte	.LASF77
 1383 0471 08       		.byte	0x8
 1384 0472 9401     		.2byte	0x194
 1385 0474 D9020000 		.4byte	0x2d9
 1386 0478 00       		.byte	0
 1387 0479 0B       		.uleb128 0xb
 1388 047a 6C010000 		.4byte	.LASF78
 1389 047e 08       		.byte	0x8
 1390 047f 9801     		.2byte	0x198
 1391 0481 B8030000 		.4byte	0x3b8
 1392 0485 20       		.byte	0x20
 1393 0486 0A       		.uleb128 0xa
 1394 0487 64626700 		.ascii	"dbg\000"
 1395 048b 08       		.byte	0x8
 1396 048c 9C01     		.2byte	0x19c
 1397 048e 05040000 		.4byte	0x405
 1398 0492 38       		.byte	0x38
 1399 0493 12       		.uleb128 0x12
 1400 0494 D9000000 		.4byte	.LASF79
 1401 0498 08       		.byte	0x8
 1402 0499 A001     		.2byte	0x1a0
 1403 049b 7E010000 		.4byte	0x17e
 1404 049f 5008     		.2byte	0x850
 1405 04a1 13       		.uleb128 0x13
 1406 04a2 746D00   		.ascii	"tm\000"
 1407 04a5 08       		.byte	0x8
 1408 04a6 A501     		.2byte	0x1a5
 1409 04a8 58070000 		.4byte	0x758
 1410 04ac B008     		.2byte	0x8b0
 1411 04ae 12       		.uleb128 0x12
 1412 04af 2F000000 		.4byte	.LASF80
 1413 04b3 08       		.byte	0x8
 1414 04b4 AB01     		.2byte	0x1ab
 1415 04b6 EA070000 		.4byte	0x7ea
 1416 04ba B808     		.2byte	0x8b8
 1417 04bc 00       		.byte	0
 1418 04bd 04       		.uleb128 0x4
 1419 04be 18070000 		.4byte	.LASF81
 1420 04c2 09       		.byte	0x9
 1421 04c3 6D       		.byte	0x6d
 1422 04c4 FA000000 		.4byte	0xfa
 1423 04c8 04       		.uleb128 0x4
ARM GAS  C:\Users\RAKIBU~1\AppData\Local\Temp\ccje4zNc.s 			page 26


 1424 04c9 7E020000 		.4byte	.LASF82
 1425 04cd 09       		.byte	0x9
 1426 04ce 77       		.byte	0x77
 1427 04cf 05010000 		.4byte	0x105
 1428 04d3 14       		.uleb128 0x14
 1429 04d4 02010000 		.4byte	.LASF83
 1430 04d8 0A       		.byte	0xa
 1431 04d9 0408     		.2byte	0x804
 1432 04db F5000000 		.4byte	0xf5
 1433 04df 15       		.uleb128 0x15
 1434 04e0 AE020000 		.4byte	.LASF84
 1435 04e4 0B       		.byte	0xb
 1436 04e5 4C       		.byte	0x4c
 1437 04e6 FA000000 		.4byte	0xfa
 1438 04ea 16       		.uleb128 0x16
 1439 04eb DA000000 		.4byte	0xda
 1440 04ef FA040000 		.4byte	0x4fa
 1441 04f3 17       		.uleb128 0x17
 1442 04f4 2C000000 		.4byte	0x2c
 1443 04f8 0F       		.byte	0xf
 1444 04f9 00       		.byte	0
 1445 04fa 05       		.uleb128 0x5
 1446 04fb EA040000 		.4byte	0x4ea
 1447 04ff 15       		.uleb128 0x15
 1448 0500 FE030000 		.4byte	.LASF85
 1449 0504 0B       		.byte	0xb
 1450 0505 4E       		.byte	0x4e
 1451 0506 FA040000 		.4byte	0x4fa
 1452 050a 16       		.uleb128 0x16
 1453 050b DA000000 		.4byte	0xda
 1454 050f 1A050000 		.4byte	0x51a
 1455 0513 17       		.uleb128 0x17
 1456 0514 2C000000 		.4byte	0x2c
 1457 0518 07       		.byte	0x7
 1458 0519 00       		.byte	0
 1459 051a 05       		.uleb128 0x5
 1460 051b 0A050000 		.4byte	0x50a
 1461 051f 15       		.uleb128 0x15
 1462 0520 5A020000 		.4byte	.LASF86
 1463 0524 0B       		.byte	0xb
 1464 0525 4F       		.byte	0x4f
 1465 0526 1A050000 		.4byte	0x51a
 1466 052a 04       		.uleb128 0x4
 1467 052b 30020000 		.4byte	.LASF87
 1468 052f 0C       		.byte	0xc
 1469 0530 65       		.byte	0x65
 1470 0531 5C030000 		.4byte	0x35c
 1471 0535 04       		.uleb128 0x4
 1472 0536 1D040000 		.4byte	.LASF88
 1473 053a 0C       		.byte	0xc
 1474 053b 6D       		.byte	0x6d
 1475 053c 05010000 		.4byte	0x105
 1476 0540 07       		.uleb128 0x7
 1477 0541 AB040000 		.4byte	.LASF89
 1478 0545 04       		.byte	0x4
 1479 0546 0C       		.byte	0xc
 1480 0547 89       		.byte	0x89
ARM GAS  C:\Users\RAKIBU~1\AppData\Local\Temp\ccje4zNc.s 			page 27


 1481 0548 58050000 		.4byte	0x558
 1482 054c 09       		.uleb128 0x9
 1483 054d 737000   		.ascii	"sp\000"
 1484 0550 0C       		.byte	0xc
 1485 0551 8A       		.byte	0x8a
 1486 0552 D4050000 		.4byte	0x5d4
 1487 0556 00       		.byte	0
 1488 0557 00       		.byte	0
 1489 0558 0D       		.uleb128 0xd
 1490 0559 4B000000 		.4byte	.LASF90
 1491 055d 24       		.byte	0x24
 1492 055e 0D       		.byte	0xd
 1493 055f 6001     		.2byte	0x160
 1494 0561 D4050000 		.4byte	0x5d4
 1495 0565 0A       		.uleb128 0xa
 1496 0566 723400   		.ascii	"r4\000"
 1497 0569 0D       		.byte	0xd
 1498 056a 7301     		.2byte	0x173
 1499 056c 2A050000 		.4byte	0x52a
 1500 0570 00       		.byte	0
 1501 0571 0A       		.uleb128 0xa
 1502 0572 723500   		.ascii	"r5\000"
 1503 0575 0D       		.byte	0xd
 1504 0576 7401     		.2byte	0x174
 1505 0578 2A050000 		.4byte	0x52a
 1506 057c 04       		.byte	0x4
 1507 057d 0A       		.uleb128 0xa
 1508 057e 723600   		.ascii	"r6\000"
 1509 0581 0D       		.byte	0xd
 1510 0582 7501     		.2byte	0x175
 1511 0584 2A050000 		.4byte	0x52a
 1512 0588 08       		.byte	0x8
 1513 0589 0A       		.uleb128 0xa
 1514 058a 723700   		.ascii	"r7\000"
 1515 058d 0D       		.byte	0xd
 1516 058e 7601     		.2byte	0x176
 1517 0590 2A050000 		.4byte	0x52a
 1518 0594 0C       		.byte	0xc
 1519 0595 0A       		.uleb128 0xa
 1520 0596 723800   		.ascii	"r8\000"
 1521 0599 0D       		.byte	0xd
 1522 059a 7701     		.2byte	0x177
 1523 059c 2A050000 		.4byte	0x52a
 1524 05a0 10       		.byte	0x10
 1525 05a1 0A       		.uleb128 0xa
 1526 05a2 723900   		.ascii	"r9\000"
 1527 05a5 0D       		.byte	0xd
 1528 05a6 7801     		.2byte	0x178
 1529 05a8 2A050000 		.4byte	0x52a
 1530 05ac 14       		.byte	0x14
 1531 05ad 0A       		.uleb128 0xa
 1532 05ae 72313000 		.ascii	"r10\000"
 1533 05b2 0D       		.byte	0xd
 1534 05b3 7901     		.2byte	0x179
 1535 05b5 2A050000 		.4byte	0x52a
 1536 05b9 18       		.byte	0x18
 1537 05ba 0A       		.uleb128 0xa
ARM GAS  C:\Users\RAKIBU~1\AppData\Local\Temp\ccje4zNc.s 			page 28


 1538 05bb 72313100 		.ascii	"r11\000"
 1539 05bf 0D       		.byte	0xd
 1540 05c0 7A01     		.2byte	0x17a
 1541 05c2 2A050000 		.4byte	0x52a
 1542 05c6 1C       		.byte	0x1c
 1543 05c7 0A       		.uleb128 0xa
 1544 05c8 6C7200   		.ascii	"lr\000"
 1545 05cb 0D       		.byte	0xd
 1546 05cc 7B01     		.2byte	0x17b
 1547 05ce 2A050000 		.4byte	0x52a
 1548 05d2 20       		.byte	0x20
 1549 05d3 00       		.byte	0
 1550 05d4 0C       		.uleb128 0xc
 1551 05d5 04       		.byte	0x4
 1552 05d6 58050000 		.4byte	0x558
 1553 05da 18       		.uleb128 0x18
 1554 05db 08       		.byte	0x8
 1555 05dc 0E       		.byte	0xe
 1556 05dd 7F       		.byte	0x7f
 1557 05de FB050000 		.4byte	0x5fb
 1558 05e2 09       		.uleb128 0x9
 1559 05e3 6E747000 		.ascii	"ntp\000"
 1560 05e7 0E       		.byte	0xe
 1561 05e8 83       		.byte	0x83
 1562 05e9 7F020000 		.4byte	0x27f
 1563 05ed 00       		.byte	0
 1564 05ee 08       		.uleb128 0x8
 1565 05ef EB070000 		.4byte	.LASF91
 1566 05f3 0E       		.byte	0xe
 1567 05f4 87       		.byte	0x87
 1568 05f5 5C030000 		.4byte	0x35c
 1569 05f9 04       		.byte	0x4
 1570 05fa 00       		.byte	0
 1571 05fb 18       		.uleb128 0x18
 1572 05fc 04       		.byte	0x4
 1573 05fd 0E       		.byte	0xe
 1574 05fe 8C       		.byte	0x8c
 1575 05ff 10060000 		.4byte	0x610
 1576 0603 08       		.uleb128 0x8
 1577 0604 8D030000 		.4byte	.LASF38
 1578 0608 0E       		.byte	0xe
 1579 0609 90       		.byte	0x90
 1580 060a 10060000 		.4byte	0x610
 1581 060e 00       		.byte	0
 1582 060f 00       		.byte	0
 1583 0610 0C       		.uleb128 0xc
 1584 0611 04       		.byte	0x4
 1585 0612 22060000 		.4byte	0x622
 1586 0616 06       		.uleb128 0x6
 1587 0617 10060000 		.4byte	0x610
 1588 061b 03       		.uleb128 0x3
 1589 061c 01       		.byte	0x1
 1590 061d 08       		.byte	0x8
 1591 061e E0060000 		.4byte	.LASF92
 1592 0622 05       		.uleb128 0x5
 1593 0623 1B060000 		.4byte	0x61b
 1594 0627 18       		.uleb128 0x18
ARM GAS  C:\Users\RAKIBU~1\AppData\Local\Temp\ccje4zNc.s 			page 29


 1595 0628 04       		.byte	0x4
 1596 0629 0E       		.byte	0xe
 1597 062a 95       		.byte	0x95
 1598 062b 3C060000 		.4byte	0x63c
 1599 062f 08       		.uleb128 0x8
 1600 0630 4E060000 		.4byte	.LASF93
 1601 0634 0E       		.byte	0xe
 1602 0635 99       		.byte	0x99
 1603 0636 10060000 		.4byte	0x610
 1604 063a 00       		.byte	0
 1605 063b 00       		.byte	0
 1606 063c 18       		.uleb128 0x18
 1607 063d 08       		.byte	0x8
 1608 063e 0E       		.byte	0xe
 1609 063f 9E       		.byte	0x9e
 1610 0640 5D060000 		.4byte	0x65d
 1611 0644 09       		.uleb128 0x9
 1612 0645 75703100 		.ascii	"up1\000"
 1613 0649 0E       		.byte	0xe
 1614 064a A2       		.byte	0xa2
 1615 064b 5C030000 		.4byte	0x35c
 1616 064f 00       		.byte	0
 1617 0650 09       		.uleb128 0x9
 1618 0651 75703200 		.ascii	"up2\000"
 1619 0655 0E       		.byte	0xe
 1620 0656 A6       		.byte	0xa6
 1621 0657 5C030000 		.4byte	0x35c
 1622 065b 04       		.byte	0x4
 1623 065c 00       		.byte	0
 1624 065d 19       		.uleb128 0x19
 1625 065e 08       		.byte	0x8
 1626 065f 0E       		.byte	0xe
 1627 0660 7B       		.byte	0x7b
 1628 0661 91060000 		.4byte	0x691
 1629 0665 1A       		.uleb128 0x1a
 1630 0666 737700   		.ascii	"sw\000"
 1631 0669 0E       		.byte	0xe
 1632 066a 88       		.byte	0x88
 1633 066b DA050000 		.4byte	0x5da
 1634 066f 1A       		.uleb128 0x1a
 1635 0670 69737200 		.ascii	"isr\000"
 1636 0674 0E       		.byte	0xe
 1637 0675 91       		.byte	0x91
 1638 0676 FB050000 		.4byte	0x5fb
 1639 067a 1B       		.uleb128 0x1b
 1640 067b 2F060000 		.4byte	.LASF94
 1641 067f 0E       		.byte	0xe
 1642 0680 9A       		.byte	0x9a
 1643 0681 27060000 		.4byte	0x627
 1644 0685 1B       		.uleb128 0x1b
 1645 0686 CB050000 		.4byte	.LASF95
 1646 068a 0E       		.byte	0xe
 1647 068b A7       		.byte	0xa7
 1648 068c 3C060000 		.4byte	0x63c
 1649 0690 00       		.byte	0
 1650 0691 18       		.uleb128 0x18
 1651 0692 10       		.byte	0x10
ARM GAS  C:\Users\RAKIBU~1\AppData\Local\Temp\ccje4zNc.s 			page 30


 1652 0693 0E       		.byte	0xe
 1653 0694 68       		.byte	0x68
 1654 0695 DD060000 		.4byte	0x6dd
 1655 0699 1C       		.uleb128 0x1c
 1656 069a 80000000 		.4byte	.LASF96
 1657 069e 0E       		.byte	0xe
 1658 069f 6C       		.byte	0x6c
 1659 06a0 FA000000 		.4byte	0xfa
 1660 06a4 04       		.byte	0x4
 1661 06a5 03       		.byte	0x3
 1662 06a6 1D       		.byte	0x1d
 1663 06a7 00       		.byte	0
 1664 06a8 1C       		.uleb128 0x1c
 1665 06a9 73010000 		.4byte	.LASF40
 1666 06ad 0E       		.byte	0xe
 1667 06ae 70       		.byte	0x70
 1668 06af FA000000 		.4byte	0xfa
 1669 06b3 04       		.byte	0x4
 1670 06b4 05       		.byte	0x5
 1671 06b5 18       		.byte	0x18
 1672 06b6 00       		.byte	0
 1673 06b7 1C       		.uleb128 0x1c
 1674 06b8 2E040000 		.4byte	.LASF97
 1675 06bc 0E       		.byte	0xe
 1676 06bd 76       		.byte	0x76
 1677 06be FA000000 		.4byte	0xfa
 1678 06c2 04       		.byte	0x4
 1679 06c3 18       		.byte	0x18
 1680 06c4 00       		.byte	0
 1681 06c5 00       		.byte	0
 1682 06c6 08       		.uleb128 0x8
 1683 06c7 5E050000 		.4byte	.LASF98
 1684 06cb 0E       		.byte	0xe
 1685 06cc 7A       		.byte	0x7a
 1686 06cd BD040000 		.4byte	0x4bd
 1687 06d1 04       		.byte	0x4
 1688 06d2 09       		.uleb128 0x9
 1689 06d3 7500     		.ascii	"u\000"
 1690 06d5 0E       		.byte	0xe
 1691 06d6 A8       		.byte	0xa8
 1692 06d7 5D060000 		.4byte	0x65d
 1693 06db 08       		.byte	0x8
 1694 06dc 00       		.byte	0
 1695 06dd 04       		.uleb128 0x4
 1696 06de 95010000 		.4byte	.LASF99
 1697 06e2 0E       		.byte	0xe
 1698 06e3 A9       		.byte	0xa9
 1699 06e4 91060000 		.4byte	0x691
 1700 06e8 1D       		.uleb128 0x1d
 1701 06e9 0808     		.2byte	0x808
 1702 06eb 0E       		.byte	0xe
 1703 06ec AF       		.byte	0xaf
 1704 06ed 22070000 		.4byte	0x722
 1705 06f1 08       		.uleb128 0x8
 1706 06f2 82010000 		.4byte	.LASF100
 1707 06f6 0E       		.byte	0xe
 1708 06f7 B3       		.byte	0xb3
ARM GAS  C:\Users\RAKIBU~1\AppData\Local\Temp\ccje4zNc.s 			page 31


 1709 06f8 DF000000 		.4byte	0xdf
 1710 06fc 00       		.byte	0
 1711 06fd 08       		.uleb128 0x8
 1712 06fe 61010000 		.4byte	.LASF101
 1713 0702 0E       		.byte	0xe
 1714 0703 B7       		.byte	0xb7
 1715 0704 DF000000 		.4byte	0xdf
 1716 0708 02       		.byte	0x2
 1717 0709 09       		.uleb128 0x9
 1718 070a 70747200 		.ascii	"ptr\000"
 1719 070e 0E       		.byte	0xe
 1720 070f BB       		.byte	0xbb
 1721 0710 22070000 		.4byte	0x722
 1722 0714 04       		.byte	0x4
 1723 0715 08       		.uleb128 0x8
 1724 0716 15020000 		.4byte	.LASF102
 1725 071a 0E       		.byte	0xe
 1726 071b BF       		.byte	0xbf
 1727 071c 28070000 		.4byte	0x728
 1728 0720 08       		.byte	0x8
 1729 0721 00       		.byte	0
 1730 0722 0C       		.uleb128 0xc
 1731 0723 04       		.byte	0x4
 1732 0724 DD060000 		.4byte	0x6dd
 1733 0728 16       		.uleb128 0x16
 1734 0729 DD060000 		.4byte	0x6dd
 1735 072d 38070000 		.4byte	0x738
 1736 0731 17       		.uleb128 0x17
 1737 0732 2C000000 		.4byte	0x2c
 1738 0736 7F       		.byte	0x7f
 1739 0737 00       		.byte	0
 1740 0738 04       		.uleb128 0x4
 1741 0739 BE000000 		.4byte	.LASF103
 1742 073d 0E       		.byte	0xe
 1743 073e C0       		.byte	0xc0
 1744 073f E8060000 		.4byte	0x6e8
 1745 0743 18       		.uleb128 0x18
 1746 0744 04       		.byte	0x4
 1747 0745 0F       		.byte	0xf
 1748 0746 38       		.byte	0x38
 1749 0747 58070000 		.4byte	0x758
 1750 074b 08       		.uleb128 0x8
 1751 074c 3A070000 		.4byte	.LASF104
 1752 0750 0F       		.byte	0xf
 1753 0751 3C       		.byte	0x3c
 1754 0752 10010000 		.4byte	0x110
 1755 0756 00       		.byte	0
 1756 0757 00       		.byte	0
 1757 0758 04       		.uleb128 0x4
 1758 0759 B8040000 		.4byte	.LASF105
 1759 075d 0F       		.byte	0xf
 1760 075e 3D       		.byte	0x3d
 1761 075f 43070000 		.4byte	0x743
 1762 0763 18       		.uleb128 0x18
 1763 0764 18       		.byte	0x18
 1764 0765 0F       		.byte	0xf
 1765 0766 48       		.byte	0x48
ARM GAS  C:\Users\RAKIBU~1\AppData\Local\Temp\ccje4zNc.s 			page 32


 1766 0767 A6070000 		.4byte	0x7a6
 1767 076b 08       		.uleb128 0x8
 1768 076c 08070000 		.4byte	.LASF106
 1769 0770 0F       		.byte	0xf
 1770 0771 49       		.byte	0x49
 1771 0772 10010000 		.4byte	0x110
 1772 0776 00       		.byte	0
 1773 0777 08       		.uleb128 0x8
 1774 0778 8E000000 		.4byte	.LASF107
 1775 077c 0F       		.byte	0xf
 1776 077d 4A       		.byte	0x4a
 1777 077e 10010000 		.4byte	0x110
 1778 0782 04       		.byte	0x4
 1779 0783 08       		.uleb128 0x8
 1780 0784 2B070000 		.4byte	.LASF108
 1781 0788 0F       		.byte	0xf
 1782 0789 4B       		.byte	0x4b
 1783 078a 10010000 		.4byte	0x110
 1784 078e 08       		.byte	0x8
 1785 078f 09       		.uleb128 0x9
 1786 0790 6E00     		.ascii	"n\000"
 1787 0792 0F       		.byte	0xf
 1788 0793 4C       		.byte	0x4c
 1789 0794 73010000 		.4byte	0x173
 1790 0798 0C       		.byte	0xc
 1791 0799 08       		.uleb128 0x8
 1792 079a 8E050000 		.4byte	.LASF109
 1793 079e 0F       		.byte	0xf
 1794 079f 4D       		.byte	0x4d
 1795 07a0 1B010000 		.4byte	0x11b
 1796 07a4 10       		.byte	0x10
 1797 07a5 00       		.byte	0
 1798 07a6 04       		.uleb128 0x4
 1799 07a7 94000000 		.4byte	.LASF110
 1800 07ab 0F       		.byte	0xf
 1801 07ac 4E       		.byte	0x4e
 1802 07ad 63070000 		.4byte	0x763
 1803 07b1 18       		.uleb128 0x18
 1804 07b2 38       		.byte	0x38
 1805 07b3 10       		.byte	0x10
 1806 07b4 38       		.byte	0x38
 1807 07b5 EA070000 		.4byte	0x7ea
 1808 07b9 08       		.uleb128 0x8
 1809 07ba ED020000 		.4byte	.LASF111
 1810 07be 10       		.byte	0x10
 1811 07bf 39       		.byte	0x39
 1812 07c0 73010000 		.4byte	0x173
 1813 07c4 00       		.byte	0
 1814 07c5 08       		.uleb128 0x8
 1815 07c6 E1050000 		.4byte	.LASF112
 1816 07ca 10       		.byte	0x10
 1817 07cb 3A       		.byte	0x3a
 1818 07cc 73010000 		.4byte	0x173
 1819 07d0 04       		.byte	0x4
 1820 07d1 08       		.uleb128 0x8
 1821 07d2 42080000 		.4byte	.LASF113
 1822 07d6 10       		.byte	0x10
ARM GAS  C:\Users\RAKIBU~1\AppData\Local\Temp\ccje4zNc.s 			page 33


 1823 07d7 3B       		.byte	0x3b
 1824 07d8 A6070000 		.4byte	0x7a6
 1825 07dc 08       		.byte	0x8
 1826 07dd 08       		.uleb128 0x8
 1827 07de D9030000 		.4byte	.LASF114
 1828 07e2 10       		.byte	0x10
 1829 07e3 3D       		.byte	0x3d
 1830 07e4 A6070000 		.4byte	0x7a6
 1831 07e8 20       		.byte	0x20
 1832 07e9 00       		.byte	0
 1833 07ea 04       		.uleb128 0x4
 1834 07eb 7E030000 		.4byte	.LASF115
 1835 07ef 10       		.byte	0x10
 1836 07f0 3F       		.byte	0x3f
 1837 07f1 B1070000 		.4byte	0x7b1
 1838 07f5 19       		.uleb128 0x19
 1839 07f6 04       		.byte	0x4
 1840 07f7 08       		.byte	0x8
 1841 07f8 C6       		.byte	0xc6
 1842 07f9 57080000 		.4byte	0x857
 1843 07fd 1B       		.uleb128 0x1b
 1844 07fe 1F000000 		.4byte	.LASF116
 1845 0802 08       		.byte	0x8
 1846 0803 CD       		.byte	0xcd
 1847 0804 52010000 		.4byte	0x152
 1848 0808 1B       		.uleb128 0x1b
 1849 0809 D0000000 		.4byte	.LASF117
 1850 080d 08       		.byte	0x8
 1851 080e D4       		.byte	0xd4
 1852 080f 52010000 		.4byte	0x152
 1853 0813 1B       		.uleb128 0x1b
 1854 0814 EB070000 		.4byte	.LASF91
 1855 0818 08       		.byte	0x8
 1856 0819 DB       		.byte	0xdb
 1857 081a 5C030000 		.4byte	0x35c
 1858 081e 1B       		.uleb128 0x1b
 1859 081f C5020000 		.4byte	.LASF118
 1860 0823 08       		.byte	0x8
 1861 0824 E2       		.byte	0xe2
 1862 0825 57080000 		.4byte	0x857
 1863 0829 1B       		.uleb128 0x1b
 1864 082a E4000000 		.4byte	.LASF119
 1865 082e 08       		.byte	0x8
 1866 082f E7       		.byte	0xe7
 1867 0830 52010000 		.4byte	0x152
 1868 0834 1B       		.uleb128 0x1b
 1869 0835 BE020000 		.4byte	.LASF120
 1870 0839 08       		.byte	0x8
 1871 083a F0       		.byte	0xf0
 1872 083b 82080000 		.4byte	0x882
 1873 083f 1B       		.uleb128 0x1b
 1874 0840 AA060000 		.4byte	.LASF121
 1875 0844 08       		.byte	0x8
 1876 0845 F9       		.byte	0xf9
 1877 0846 B9080000 		.4byte	0x8b9
 1878 084a 1E       		.uleb128 0x1e
 1879 084b 34060000 		.4byte	.LASF122
ARM GAS  C:\Users\RAKIBU~1\AppData\Local\Temp\ccje4zNc.s 			page 34


 1880 084f 08       		.byte	0x8
 1881 0850 0101     		.2byte	0x101
 1882 0852 5D010000 		.4byte	0x15d
 1883 0856 00       		.byte	0
 1884 0857 0C       		.uleb128 0xc
 1885 0858 04       		.byte	0x4
 1886 0859 74020000 		.4byte	0x274
 1887 085d 07       		.uleb128 0x7
 1888 085e 66060000 		.4byte	.LASF123
 1889 0862 0C       		.byte	0xc
 1890 0863 11       		.byte	0x11
 1891 0864 34       		.byte	0x34
 1892 0865 82080000 		.4byte	0x882
 1893 0869 08       		.uleb128 0x8
 1894 086a F3020000 		.4byte	.LASF34
 1895 086e 11       		.byte	0x11
 1896 086f 35       		.byte	0x35
 1897 0870 A9020000 		.4byte	0x2a9
 1898 0874 00       		.byte	0
 1899 0875 09       		.uleb128 0x9
 1900 0876 636E7400 		.ascii	"cnt\000"
 1901 087a 11       		.byte	0x11
 1902 087b 37       		.byte	0x37
 1903 087c 68010000 		.4byte	0x168
 1904 0880 08       		.byte	0x8
 1905 0881 00       		.byte	0
 1906 0882 0C       		.uleb128 0xc
 1907 0883 04       		.byte	0x4
 1908 0884 5D080000 		.4byte	0x85d
 1909 0888 07       		.uleb128 0x7
 1910 0889 41070000 		.4byte	.LASF124
 1911 088d 10       		.byte	0x10
 1912 088e 12       		.byte	0x12
 1913 088f 39       		.byte	0x39
 1914 0890 B9080000 		.4byte	0x8b9
 1915 0894 08       		.uleb128 0x8
 1916 0895 F3020000 		.4byte	.LASF34
 1917 0899 12       		.byte	0x12
 1918 089a 3A       		.byte	0x3a
 1919 089b A9020000 		.4byte	0x2a9
 1920 089f 00       		.byte	0
 1921 08a0 08       		.uleb128 0x8
 1922 08a1 C1060000 		.4byte	.LASF125
 1923 08a5 12       		.byte	0x12
 1924 08a6 3C       		.byte	0x3c
 1925 08a7 7F020000 		.4byte	0x27f
 1926 08ab 08       		.byte	0x8
 1927 08ac 08       		.uleb128 0x8
 1928 08ad 14000000 		.4byte	.LASF54
 1929 08b1 12       		.byte	0x12
 1930 08b2 3E       		.byte	0x3e
 1931 08b3 040A0000 		.4byte	0xa04
 1932 08b7 0C       		.byte	0xc
 1933 08b8 00       		.byte	0
 1934 08b9 0C       		.uleb128 0xc
 1935 08ba 04       		.byte	0x4
 1936 08bb 88080000 		.4byte	0x888
ARM GAS  C:\Users\RAKIBU~1\AppData\Local\Temp\ccje4zNc.s 			page 35


 1937 08bf 0C       		.uleb128 0xc
 1938 08c0 04       		.byte	0x4
 1939 08c1 35050000 		.4byte	0x535
 1940 08c5 0C       		.uleb128 0xc
 1941 08c6 04       		.byte	0x4
 1942 08c7 5E030000 		.4byte	0x35e
 1943 08cb 1F       		.uleb128 0x1f
 1944 08cc 636800   		.ascii	"ch\000"
 1945 08cf 08       		.byte	0x8
 1946 08d0 C701     		.2byte	0x1c7
 1947 08d2 53040000 		.4byte	0x453
 1948 08d6 16       		.uleb128 0x16
 1949 08d7 35050000 		.4byte	0x535
 1950 08db E1080000 		.4byte	0x8e1
 1951 08df 20       		.uleb128 0x20
 1952 08e0 00       		.byte	0
 1953 08e1 14       		.uleb128 0x14
 1954 08e2 7C060000 		.4byte	.LASF126
 1955 08e6 13       		.byte	0x13
 1956 08e7 1701     		.2byte	0x117
 1957 08e9 D6080000 		.4byte	0x8d6
 1958 08ed 18       		.uleb128 0x18
 1959 08ee 16       		.byte	0x16
 1960 08ef 14       		.byte	0x14
 1961 08f0 34       		.byte	0x34
 1962 08f1 CE090000 		.4byte	0x9ce
 1963 08f5 08       		.uleb128 0x8
 1964 08f6 B1010000 		.4byte	.LASF127
 1965 08fa 14       		.byte	0x14
 1966 08fb 35       		.byte	0x35
 1967 08fc CE090000 		.4byte	0x9ce
 1968 0900 00       		.byte	0
 1969 0901 08       		.uleb128 0x8
 1970 0902 68020000 		.4byte	.LASF128
 1971 0906 14       		.byte	0x14
 1972 0907 36       		.byte	0x36
 1973 0908 CF000000 		.4byte	0xcf
 1974 090c 04       		.byte	0x4
 1975 090d 08       		.uleb128 0x8
 1976 090e 61010000 		.4byte	.LASF101
 1977 0912 14       		.byte	0x14
 1978 0913 37       		.byte	0x37
 1979 0914 CF000000 		.4byte	0xcf
 1980 0918 05       		.byte	0x5
 1981 0919 08       		.uleb128 0x8
 1982 091a 3F040000 		.4byte	.LASF129
 1983 091e 14       		.byte	0x14
 1984 091f 38       		.byte	0x38
 1985 0920 DF000000 		.4byte	0xdf
 1986 0924 06       		.byte	0x6
 1987 0925 08       		.uleb128 0x8
 1988 0926 80070000 		.4byte	.LASF130
 1989 092a 14       		.byte	0x14
 1990 092b 39       		.byte	0x39
 1991 092c CF000000 		.4byte	0xcf
 1992 0930 08       		.byte	0x8
 1993 0931 08       		.uleb128 0x8
ARM GAS  C:\Users\RAKIBU~1\AppData\Local\Temp\ccje4zNc.s 			page 36


 1994 0932 8E060000 		.4byte	.LASF131
 1995 0936 14       		.byte	0x14
 1996 0937 3A       		.byte	0x3a
 1997 0938 CF000000 		.4byte	0xcf
 1998 093c 09       		.byte	0x9
 1999 093d 08       		.uleb128 0x8
 2000 093e AB050000 		.4byte	.LASF132
 2001 0942 14       		.byte	0x14
 2002 0943 3B       		.byte	0x3b
 2003 0944 CF000000 		.4byte	0xcf
 2004 0948 0A       		.byte	0xa
 2005 0949 08       		.uleb128 0x8
 2006 094a 06060000 		.4byte	.LASF133
 2007 094e 14       		.byte	0x14
 2008 094f 3C       		.byte	0x3c
 2009 0950 CF000000 		.4byte	0xcf
 2010 0954 0B       		.byte	0xb
 2011 0955 08       		.uleb128 0x8
 2012 0956 C9030000 		.4byte	.LASF134
 2013 095a 14       		.byte	0x14
 2014 095b 3D       		.byte	0x3d
 2015 095c CF000000 		.4byte	0xcf
 2016 0960 0C       		.byte	0xc
 2017 0961 08       		.uleb128 0x8
 2018 0962 9C040000 		.4byte	.LASF135
 2019 0966 14       		.byte	0x14
 2020 0967 3E       		.byte	0x3e
 2021 0968 CF000000 		.4byte	0xcf
 2022 096c 0D       		.byte	0xd
 2023 096d 08       		.uleb128 0x8
 2024 096e 4A070000 		.4byte	.LASF136
 2025 0972 14       		.byte	0x14
 2026 0973 3F       		.byte	0x3f
 2027 0974 CF000000 		.4byte	0xcf
 2028 0978 0E       		.byte	0xe
 2029 0979 08       		.uleb128 0x8
 2030 097a BF070000 		.4byte	.LASF137
 2031 097e 14       		.byte	0x14
 2032 097f 40       		.byte	0x40
 2033 0980 CF000000 		.4byte	0xcf
 2034 0984 0F       		.byte	0xf
 2035 0985 08       		.uleb128 0x8
 2036 0986 0F060000 		.4byte	.LASF138
 2037 098a 14       		.byte	0x14
 2038 098b 41       		.byte	0x41
 2039 098c CF000000 		.4byte	0xcf
 2040 0990 10       		.byte	0x10
 2041 0991 08       		.uleb128 0x8
 2042 0992 07080000 		.4byte	.LASF139
 2043 0996 14       		.byte	0x14
 2044 0997 42       		.byte	0x42
 2045 0998 CF000000 		.4byte	0xcf
 2046 099c 11       		.byte	0x11
 2047 099d 08       		.uleb128 0x8
 2048 099e 30080000 		.4byte	.LASF140
 2049 09a2 14       		.byte	0x14
 2050 09a3 43       		.byte	0x43
ARM GAS  C:\Users\RAKIBU~1\AppData\Local\Temp\ccje4zNc.s 			page 37


 2051 09a4 CF000000 		.4byte	0xcf
 2052 09a8 12       		.byte	0x12
 2053 09a9 08       		.uleb128 0x8
 2054 09aa 1C020000 		.4byte	.LASF141
 2055 09ae 14       		.byte	0x14
 2056 09af 44       		.byte	0x44
 2057 09b0 CF000000 		.4byte	0xcf
 2058 09b4 13       		.byte	0x13
 2059 09b5 08       		.uleb128 0x8
 2060 09b6 09020000 		.4byte	.LASF142
 2061 09ba 14       		.byte	0x14
 2062 09bb 45       		.byte	0x45
 2063 09bc CF000000 		.4byte	0xcf
 2064 09c0 14       		.byte	0x14
 2065 09c1 08       		.uleb128 0x8
 2066 09c2 73060000 		.4byte	.LASF143
 2067 09c6 14       		.byte	0x14
 2068 09c7 46       		.byte	0x46
 2069 09c8 CF000000 		.4byte	0xcf
 2070 09cc 15       		.byte	0x15
 2071 09cd 00       		.byte	0
 2072 09ce 16       		.uleb128 0x16
 2073 09cf 1B060000 		.4byte	0x61b
 2074 09d3 DE090000 		.4byte	0x9de
 2075 09d7 17       		.uleb128 0x17
 2076 09d8 2C000000 		.4byte	0x2c
 2077 09dc 03       		.byte	0x3
 2078 09dd 00       		.byte	0
 2079 09de 04       		.uleb128 0x4
 2080 09df FF010000 		.4byte	.LASF144
 2081 09e3 14       		.byte	0x14
 2082 09e4 47       		.byte	0x47
 2083 09e5 ED080000 		.4byte	0x8ed
 2084 09e9 05       		.uleb128 0x5
 2085 09ea DE090000 		.4byte	0x9de
 2086 09ee 15       		.uleb128 0x15
 2087 09ef CB020000 		.4byte	.LASF145
 2088 09f3 14       		.byte	0x14
 2089 09f4 6C       		.byte	0x6c
 2090 09f5 E9090000 		.4byte	0x9e9
 2091 09f9 04       		.uleb128 0x4
 2092 09fa 6D020000 		.4byte	.LASF146
 2093 09fe 12       		.byte	0x12
 2094 09ff 34       		.byte	0x34
 2095 0a00 88080000 		.4byte	0x888
 2096 0a04 0C       		.uleb128 0xc
 2097 0a05 04       		.byte	0x4
 2098 0a06 F9090000 		.4byte	0x9f9
 2099 0a0a 03       		.uleb128 0x3
 2100 0a0b 01       		.byte	0x1
 2101 0a0c 02       		.byte	0x2
 2102 0a0d EA050000 		.4byte	.LASF147
 2103 0a11 04       		.uleb128 0x4
 2104 0a12 67070000 		.4byte	.LASF148
 2105 0a16 15       		.byte	0x15
 2106 0a17 47       		.byte	0x47
 2107 0a18 1C0A0000 		.4byte	0xa1c
ARM GAS  C:\Users\RAKIBU~1\AppData\Local\Temp\ccje4zNc.s 			page 38


 2108 0a1c 0C       		.uleb128 0xc
 2109 0a1d 04       		.byte	0x4
 2110 0a1e 220A0000 		.4byte	0xa22
 2111 0a22 21       		.uleb128 0x21
 2112 0a23 5C030000 		.4byte	0x35c
 2113 0a27 360A0000 		.4byte	0xa36
 2114 0a2b 0F       		.uleb128 0xf
 2115 0a2c 78000000 		.4byte	0x78
 2116 0a30 0F       		.uleb128 0xf
 2117 0a31 2C000000 		.4byte	0x2c
 2118 0a35 00       		.byte	0
 2119 0a36 18       		.uleb128 0x18
 2120 0a37 08       		.byte	0x8
 2121 0a38 15       		.byte	0x15
 2122 0a39 51       		.byte	0x51
 2123 0a3a 570A0000 		.4byte	0xa57
 2124 0a3e 08       		.uleb128 0x8
 2125 0a3f 4D080000 		.4byte	.LASF149
 2126 0a43 15       		.byte	0x15
 2127 0a44 55       		.byte	0x55
 2128 0a45 570A0000 		.4byte	0xa57
 2129 0a49 00       		.byte	0
 2130 0a4a 08       		.uleb128 0x8
 2131 0a4b 0C040000 		.4byte	.LASF150
 2132 0a4f 15       		.byte	0x15
 2133 0a50 59       		.byte	0x59
 2134 0a51 570A0000 		.4byte	0xa57
 2135 0a55 04       		.byte	0x4
 2136 0a56 00       		.byte	0
 2137 0a57 0C       		.uleb128 0xc
 2138 0a58 04       		.byte	0x4
 2139 0a59 CF000000 		.4byte	0xcf
 2140 0a5d 04       		.uleb128 0x4
 2141 0a5e 84050000 		.4byte	.LASF151
 2142 0a62 15       		.byte	0x15
 2143 0a63 5A       		.byte	0x5a
 2144 0a64 360A0000 		.4byte	0xa36
 2145 0a68 15       		.uleb128 0x15
 2146 0a69 0D070000 		.4byte	.LASF152
 2147 0a6d 15       		.byte	0x15
 2148 0a6e 65       		.byte	0x65
 2149 0a6f 5D0A0000 		.4byte	0xa5d
 2150 0a73 07       		.uleb128 0x7
 2151 0a74 AB070000 		.4byte	.LASF153
 2152 0a78 04       		.byte	0x4
 2153 0a79 16       		.byte	0x16
 2154 0a7a 38       		.byte	0x38
 2155 0a7b 8C0A0000 		.4byte	0xa8c
 2156 0a7f 08       		.uleb128 0x8
 2157 0a80 14000000 		.4byte	.LASF54
 2158 0a84 16       		.byte	0x16
 2159 0a85 39       		.byte	0x39
 2160 0a86 8C0A0000 		.4byte	0xa8c
 2161 0a8a 00       		.byte	0
 2162 0a8b 00       		.byte	0
 2163 0a8c 0C       		.uleb128 0xc
 2164 0a8d 04       		.byte	0x4
ARM GAS  C:\Users\RAKIBU~1\AppData\Local\Temp\ccje4zNc.s 			page 39


 2165 0a8e 730A0000 		.4byte	0xa73
 2166 0a92 18       		.uleb128 0x18
 2167 0a93 10       		.byte	0x10
 2168 0a94 16       		.byte	0x16
 2169 0a95 40       		.byte	0x40
 2170 0a96 CB0A0000 		.4byte	0xacb
 2171 0a9a 08       		.uleb128 0x8
 2172 0a9b 14000000 		.4byte	.LASF54
 2173 0a9f 16       		.byte	0x16
 2174 0aa0 41       		.byte	0x41
 2175 0aa1 8C0A0000 		.4byte	0xa8c
 2176 0aa5 00       		.byte	0
 2177 0aa6 08       		.uleb128 0x8
 2178 0aa7 74070000 		.4byte	.LASF154
 2179 0aab 16       		.byte	0x16
 2180 0aac 42       		.byte	0x42
 2181 0aad 78000000 		.4byte	0x78
 2182 0ab1 04       		.byte	0x4
 2183 0ab2 08       		.uleb128 0x8
 2184 0ab3 1D010000 		.4byte	.LASF155
 2185 0ab7 16       		.byte	0x16
 2186 0ab8 44       		.byte	0x44
 2187 0ab9 2C000000 		.4byte	0x2c
 2188 0abd 08       		.byte	0x8
 2189 0abe 08       		.uleb128 0x8
 2190 0abf 77000000 		.4byte	.LASF156
 2191 0ac3 16       		.byte	0x16
 2192 0ac4 45       		.byte	0x45
 2193 0ac5 110A0000 		.4byte	0xa11
 2194 0ac9 0C       		.byte	0xc
 2195 0aca 00       		.byte	0
 2196 0acb 04       		.uleb128 0x4
 2197 0acc DF020000 		.4byte	.LASF157
 2198 0ad0 16       		.byte	0x16
 2199 0ad1 47       		.byte	0x47
 2200 0ad2 920A0000 		.4byte	0xa92
 2201 0ad6 07       		.uleb128 0x7
 2202 0ad7 52010000 		.4byte	.LASF158
 2203 0adb 10       		.byte	0x10
 2204 0adc 17       		.byte	0x17
 2205 0add A9       		.byte	0xa9
 2206 0ade 070B0000 		.4byte	0xb07
 2207 0ae2 08       		.uleb128 0x8
 2208 0ae3 14000000 		.4byte	.LASF54
 2209 0ae7 17       		.byte	0x17
 2210 0ae8 AD       		.byte	0xad
 2211 0ae9 070B0000 		.4byte	0xb07
 2212 0aed 00       		.byte	0
 2213 0aee 08       		.uleb128 0x8
 2214 0aef B6050000 		.4byte	.LASF42
 2215 0af3 17       		.byte	0x17
 2216 0af4 B1       		.byte	0xb1
 2217 0af5 73010000 		.4byte	0x173
 2218 0af9 04       		.byte	0x4
 2219 0afa 08       		.uleb128 0x8
 2220 0afb 8D030000 		.4byte	.LASF38
 2221 0aff 17       		.byte	0x17
ARM GAS  C:\Users\RAKIBU~1\AppData\Local\Temp\ccje4zNc.s 			page 40


 2222 0b00 B3       		.byte	0xb3
 2223 0b01 0D0B0000 		.4byte	0xb0d
 2224 0b05 08       		.byte	0x8
 2225 0b06 00       		.byte	0
 2226 0b07 0C       		.uleb128 0xc
 2227 0b08 04       		.byte	0x4
 2228 0b09 D60A0000 		.4byte	0xad6
 2229 0b0d 16       		.uleb128 0x16
 2230 0b0e 1B060000 		.4byte	0x61b
 2231 0b12 1D0B0000 		.4byte	0xb1d
 2232 0b16 17       		.uleb128 0x17
 2233 0b17 2C000000 		.4byte	0x2c
 2234 0b1b 07       		.byte	0x7
 2235 0b1c 00       		.byte	0
 2236 0b1d 04       		.uleb128 0x4
 2237 0b1e 0F010000 		.4byte	.LASF159
 2238 0b22 17       		.byte	0x17
 2239 0b23 B7       		.byte	0xb7
 2240 0b24 D60A0000 		.4byte	0xad6
 2241 0b28 07       		.uleb128 0x7
 2242 0b29 85040000 		.4byte	.LASF160
 2243 0b2d 04       		.byte	0x4
 2244 0b2e 17       		.byte	0x17
 2245 0b2f BC       		.byte	0xbc
 2246 0b30 410B0000 		.4byte	0xb41
 2247 0b34 08       		.uleb128 0x8
 2248 0b35 14000000 		.4byte	.LASF54
 2249 0b39 17       		.byte	0x17
 2250 0b3a BD       		.byte	0xbd
 2251 0b3b 410B0000 		.4byte	0xb41
 2252 0b3f 00       		.byte	0
 2253 0b40 00       		.byte	0
 2254 0b41 0C       		.uleb128 0xc
 2255 0b42 04       		.byte	0x4
 2256 0b43 1D0B0000 		.4byte	0xb1d
 2257 0b47 04       		.uleb128 0x4
 2258 0b48 B2030000 		.4byte	.LASF161
 2259 0b4c 17       		.byte	0x17
 2260 0b4d BE       		.byte	0xbe
 2261 0b4e 280B0000 		.4byte	0xb28
 2262 0b52 0D       		.uleb128 0xd
 2263 0b53 88070000 		.4byte	.LASF162
 2264 0b57 48       		.byte	0x48
 2265 0b58 17       		.byte	0x17
 2266 0b59 3E01     		.2byte	0x13e
 2267 0b5b D50B0000 		.4byte	0xbd5
 2268 0b5f 0A       		.uleb128 0xa
 2269 0b60 6D747800 		.ascii	"mtx\000"
 2270 0b64 17       		.byte	0x17
 2271 0b65 4301     		.2byte	0x143
 2272 0b67 F9090000 		.4byte	0x9f9
 2273 0b6b 00       		.byte	0
 2274 0b6c 0B       		.uleb128 0xb
 2275 0b6d EB060000 		.4byte	.LASF163
 2276 0b71 17       		.byte	0x17
 2277 0b72 4A01     		.2byte	0x14a
 2278 0b74 470B0000 		.4byte	0xb47
ARM GAS  C:\Users\RAKIBU~1\AppData\Local\Temp\ccje4zNc.s 			page 41


 2279 0b78 10       		.byte	0x10
 2280 0b79 0B       		.uleb128 0xb
 2281 0b7a 45060000 		.4byte	.LASF164
 2282 0b7e 17       		.byte	0x17
 2283 0b7f 4E01     		.2byte	0x14e
 2284 0b81 CB0A0000 		.4byte	0xacb
 2285 0b85 14       		.byte	0x14
 2286 0b86 0B       		.uleb128 0xb
 2287 0b87 D8050000 		.4byte	.LASF165
 2288 0b8b 17       		.byte	0x17
 2289 0b8c 5301     		.2byte	0x153
 2290 0b8e 470B0000 		.4byte	0xb47
 2291 0b92 24       		.byte	0x24
 2292 0b93 0B       		.uleb128 0xb
 2293 0b94 85000000 		.4byte	.LASF166
 2294 0b98 17       		.byte	0x17
 2295 0b99 5901     		.2byte	0x159
 2296 0b9b 470B0000 		.4byte	0xb47
 2297 0b9f 28       		.byte	0x28
 2298 0ba0 0B       		.uleb128 0xb
 2299 0ba1 68050000 		.4byte	.LASF167
 2300 0ba5 17       		.byte	0x17
 2301 0ba6 5D01     		.2byte	0x15d
 2302 0ba8 CB0A0000 		.4byte	0xacb
 2303 0bac 2C       		.byte	0x2c
 2304 0bad 0B       		.uleb128 0xb
 2305 0bae 39020000 		.4byte	.LASF168
 2306 0bb2 17       		.byte	0x17
 2307 0bb3 6301     		.2byte	0x163
 2308 0bb5 470B0000 		.4byte	0xb47
 2309 0bb9 3C       		.byte	0x3c
 2310 0bba 0B       		.uleb128 0xb
 2311 0bbb E1070000 		.4byte	.LASF169
 2312 0bbf 17       		.byte	0x17
 2313 0bc0 6901     		.2byte	0x169
 2314 0bc2 470B0000 		.4byte	0xb47
 2315 0bc6 40       		.byte	0x40
 2316 0bc7 0B       		.uleb128 0xb
 2317 0bc8 97060000 		.4byte	.LASF170
 2318 0bcc 17       		.byte	0x17
 2319 0bcd 6F01     		.2byte	0x16f
 2320 0bcf 470B0000 		.4byte	0xb47
 2321 0bd3 44       		.byte	0x44
 2322 0bd4 00       		.byte	0
 2323 0bd5 22       		.uleb128 0x22
 2324 0bd6 1E080000 		.4byte	.LASF171
 2325 0bda 17       		.byte	0x17
 2326 0bdb 7101     		.2byte	0x171
 2327 0bdd 520B0000 		.4byte	0xb52
 2328 0be1 14       		.uleb128 0x14
 2329 0be2 D4020000 		.4byte	.LASF172
 2330 0be6 17       		.byte	0x17
 2331 0be7 7C01     		.2byte	0x17c
 2332 0be9 D50B0000 		.4byte	0xbd5
 2333 0bed 16       		.uleb128 0x16
 2334 0bee 5E000000 		.4byte	0x5e
 2335 0bf2 FD0B0000 		.4byte	0xbfd
ARM GAS  C:\Users\RAKIBU~1\AppData\Local\Temp\ccje4zNc.s 			page 42


 2336 0bf6 17       		.uleb128 0x17
 2337 0bf7 2C000000 		.4byte	0x2c
 2338 0bfb 7F       		.byte	0x7f
 2339 0bfc 00       		.byte	0
 2340 0bfd 05       		.uleb128 0x5
 2341 0bfe ED0B0000 		.4byte	0xbed
 2342 0c02 23       		.uleb128 0x23
 2343 0c03 A8020000 		.4byte	.LASF173
 2344 0c07 01       		.byte	0x1
 2345 0c08 EB3A     		.2byte	0x3aeb
 2346 0c0a FD0B0000 		.4byte	0xbfd
 2347 0c0e 05       		.uleb128 0x5
 2348 0c0f 03       		.byte	0x3
 2349 0c10 00000000 		.4byte	uc850
 2350 0c14 24       		.uleb128 0x24
 2351 0c15 46010000 		.4byte	.LASF176
 2352 0c19 01       		.byte	0x1
 2353 0c1a 773C     		.2byte	0x3c77
 2354 0c1c 53000000 		.4byte	0x53
 2355 0c20 70000000 		.4byte	.LFB297
 2356 0c24 9C000000 		.4byte	.LFE297-.LFB297
 2357 0c28 01       		.uleb128 0x1
 2358 0c29 9C       		.byte	0x9c
 2359 0c2a 9F0C0000 		.4byte	0xc9f
 2360 0c2e 25       		.uleb128 0x25
 2361 0c2f 756E6900 		.ascii	"uni\000"
 2362 0c33 01       		.byte	0x1
 2363 0c34 783C     		.2byte	0x3c78
 2364 0c36 53000000 		.4byte	0x53
 2365 0c3a 00000000 		.4byte	.LLST4
 2366 0c3e 23       		.uleb128 0x23
 2367 0c3f 99050000 		.4byte	.LASF174
 2368 0c43 01       		.byte	0x1
 2369 0c44 7C3C     		.2byte	0x3c7c
 2370 0c46 AF0C0000 		.4byte	0xcaf
 2371 0c4a 05       		.uleb128 0x5
 2372 0c4b 03       		.byte	0x3
 2373 0c4c BC010000 		.4byte	cvt1.7346
 2374 0c50 23       		.uleb128 0x23
 2375 0c51 9E050000 		.4byte	.LASF175
 2376 0c55 01       		.byte	0x1
 2377 0c56 943C     		.2byte	0x3c94
 2378 0c58 C40C0000 		.4byte	0xcc4
 2379 0c5c 05       		.uleb128 0x5
 2380 0c5d 03       		.byte	0x3
 2381 0c5e 00010000 		.4byte	cvt2.7347
 2382 0c62 26       		.uleb128 0x26
 2383 0c63 7000     		.ascii	"p\000"
 2384 0c65 01       		.byte	0x1
 2385 0c66 B03C     		.2byte	0x3cb0
 2386 0c68 C90C0000 		.4byte	0xcc9
 2387 0c6c E6000000 		.4byte	.LLST5
 2388 0c70 26       		.uleb128 0x26
 2389 0c71 626300   		.ascii	"bc\000"
 2390 0c74 01       		.byte	0x1
 2391 0c75 B13C     		.2byte	0x3cb1
 2392 0c77 53000000 		.4byte	0x53
ARM GAS  C:\Users\RAKIBU~1\AppData\Local\Temp\ccje4zNc.s 			page 43


 2393 0c7b 4C010000 		.4byte	.LLST6
 2394 0c7f 26       		.uleb128 0x26
 2395 0c80 6E6300   		.ascii	"nc\000"
 2396 0c83 01       		.byte	0x1
 2397 0c84 B13C     		.2byte	0x3cb1
 2398 0c86 53000000 		.4byte	0x53
 2399 0c8a 80010000 		.4byte	.LLST7
 2400 0c8e 26       		.uleb128 0x26
 2401 0c8f 636D6400 		.ascii	"cmd\000"
 2402 0c93 01       		.byte	0x1
 2403 0c94 B13C     		.2byte	0x3cb1
 2404 0c96 53000000 		.4byte	0x53
 2405 0c9a F1010000 		.4byte	.LLST8
 2406 0c9e 00       		.byte	0
 2407 0c9f 16       		.uleb128 0x16
 2408 0ca0 5E000000 		.4byte	0x5e
 2409 0ca4 AF0C0000 		.4byte	0xcaf
 2410 0ca8 17       		.uleb128 0x17
 2411 0ca9 2C000000 		.4byte	0x2c
 2412 0cad F8       		.byte	0xf8
 2413 0cae 00       		.byte	0
 2414 0caf 05       		.uleb128 0x5
 2415 0cb0 9F0C0000 		.4byte	0xc9f
 2416 0cb4 16       		.uleb128 0x16
 2417 0cb5 5E000000 		.4byte	0x5e
 2418 0cb9 C40C0000 		.4byte	0xcc4
 2419 0cbd 17       		.uleb128 0x17
 2420 0cbe 2C000000 		.4byte	0x2c
 2421 0cc2 5D       		.byte	0x5d
 2422 0cc3 00       		.byte	0
 2423 0cc4 05       		.uleb128 0x5
 2424 0cc5 B40C0000 		.4byte	0xcb4
 2425 0cc9 0C       		.uleb128 0xc
 2426 0cca 04       		.byte	0x4
 2427 0ccb 5E000000 		.4byte	0x5e
 2428 0ccf 24       		.uleb128 0x24
 2429 0cd0 C8070000 		.4byte	.LASF177
 2430 0cd4 01       		.byte	0x1
 2431 0cd5 A43B     		.2byte	0x3ba4
 2432 0cd7 53000000 		.4byte	0x53
 2433 0cdb 40000000 		.4byte	.LFB296
 2434 0cdf 2C000000 		.4byte	.LFE296-.LFB296
 2435 0ce3 01       		.uleb128 0x1
 2436 0ce4 9C       		.byte	0x9c
 2437 0ce5 260D0000 		.4byte	0xd26
 2438 0ce9 25       		.uleb128 0x25
 2439 0cea 6F656D00 		.ascii	"oem\000"
 2440 0cee 01       		.byte	0x1
 2441 0cef A53B     		.2byte	0x3ba5
 2442 0cf1 53000000 		.4byte	0x53
 2443 0cf5 0F020000 		.4byte	.LLST2
 2444 0cf9 27       		.uleb128 0x27
 2445 0cfa 637000   		.ascii	"cp\000"
 2446 0cfd 01       		.byte	0x1
 2447 0cfe A63B     		.2byte	0x3ba6
 2448 0d00 41000000 		.4byte	0x41
 2449 0d04 01       		.uleb128 0x1
ARM GAS  C:\Users\RAKIBU~1\AppData\Local\Temp\ccje4zNc.s 			page 44


 2450 0d05 51       		.byte	0x51
 2451 0d06 26       		.uleb128 0x26
 2452 0d07 6300     		.ascii	"c\000"
 2453 0d09 01       		.byte	0x1
 2454 0d0a A93B     		.2byte	0x3ba9
 2455 0d0c 53000000 		.4byte	0x53
 2456 0d10 62020000 		.4byte	.LLST3
 2457 0d14 28       		.uleb128 0x28
 2458 0d15 7000     		.ascii	"p\000"
 2459 0d17 01       		.byte	0x1
 2460 0d18 AA3B     		.2byte	0x3baa
 2461 0d1a C90C0000 		.4byte	0xcc9
 2462 0d1e 06       		.uleb128 0x6
 2463 0d1f 03       		.byte	0x3
 2464 0d20 00000000 		.4byte	uc850
 2465 0d24 9F       		.byte	0x9f
 2466 0d25 00       		.byte	0
 2467 0d26 29       		.uleb128 0x29
 2468 0d27 91040000 		.4byte	.LASF181
 2469 0d2b 01       		.byte	0x1
 2470 0d2c 8F3B     		.2byte	0x3b8f
 2471 0d2e 53000000 		.4byte	0x53
 2472 0d32 00000000 		.4byte	.LFB295
 2473 0d36 34000000 		.4byte	.LFE295-.LFB295
 2474 0d3a 01       		.uleb128 0x1
 2475 0d3b 9C       		.byte	0x9c
 2476 0d3c 25       		.uleb128 0x25
 2477 0d3d 756E6900 		.ascii	"uni\000"
 2478 0d41 01       		.byte	0x1
 2479 0d42 903B     		.2byte	0x3b90
 2480 0d44 53000000 		.4byte	0x53
 2481 0d48 98020000 		.4byte	.LLST0
 2482 0d4c 27       		.uleb128 0x27
 2483 0d4d 637000   		.ascii	"cp\000"
 2484 0d50 01       		.byte	0x1
 2485 0d51 913B     		.2byte	0x3b91
 2486 0d53 41000000 		.4byte	0x41
 2487 0d57 01       		.uleb128 0x1
 2488 0d58 51       		.byte	0x51
 2489 0d59 26       		.uleb128 0x26
 2490 0d5a 6300     		.ascii	"c\000"
 2491 0d5c 01       		.byte	0x1
 2492 0d5d 943B     		.2byte	0x3b94
 2493 0d5f 53000000 		.4byte	0x53
 2494 0d63 DD020000 		.4byte	.LLST1
 2495 0d67 28       		.uleb128 0x28
 2496 0d68 7000     		.ascii	"p\000"
 2497 0d6a 01       		.byte	0x1
 2498 0d6b 953B     		.2byte	0x3b95
 2499 0d6d C90C0000 		.4byte	0xcc9
 2500 0d71 06       		.uleb128 0x6
 2501 0d72 03       		.byte	0x3
 2502 0d73 00000000 		.4byte	uc850
 2503 0d77 9F       		.byte	0x9f
 2504 0d78 00       		.byte	0
 2505 0d79 00       		.byte	0
 2506              		.section	.debug_abbrev,"",%progbits
ARM GAS  C:\Users\RAKIBU~1\AppData\Local\Temp\ccje4zNc.s 			page 45


 2507              	.Ldebug_abbrev0:
 2508 0000 01       		.uleb128 0x1
 2509 0001 11       		.uleb128 0x11
 2510 0002 01       		.byte	0x1
 2511 0003 25       		.uleb128 0x25
 2512 0004 0E       		.uleb128 0xe
 2513 0005 13       		.uleb128 0x13
 2514 0006 0B       		.uleb128 0xb
 2515 0007 03       		.uleb128 0x3
 2516 0008 0E       		.uleb128 0xe
 2517 0009 1B       		.uleb128 0x1b
 2518 000a 0E       		.uleb128 0xe
 2519 000b 11       		.uleb128 0x11
 2520 000c 01       		.uleb128 0x1
 2521 000d 12       		.uleb128 0x12
 2522 000e 06       		.uleb128 0x6
 2523 000f 10       		.uleb128 0x10
 2524 0010 17       		.uleb128 0x17
 2525 0011 00       		.byte	0
 2526 0012 00       		.byte	0
 2527 0013 02       		.uleb128 0x2
 2528 0014 24       		.uleb128 0x24
 2529 0015 00       		.byte	0
 2530 0016 0B       		.uleb128 0xb
 2531 0017 0B       		.uleb128 0xb
 2532 0018 3E       		.uleb128 0x3e
 2533 0019 0B       		.uleb128 0xb
 2534 001a 03       		.uleb128 0x3
 2535 001b 08       		.uleb128 0x8
 2536 001c 00       		.byte	0
 2537 001d 00       		.byte	0
 2538 001e 03       		.uleb128 0x3
 2539 001f 24       		.uleb128 0x24
 2540 0020 00       		.byte	0
 2541 0021 0B       		.uleb128 0xb
 2542 0022 0B       		.uleb128 0xb
 2543 0023 3E       		.uleb128 0x3e
 2544 0024 0B       		.uleb128 0xb
 2545 0025 03       		.uleb128 0x3
 2546 0026 0E       		.uleb128 0xe
 2547 0027 00       		.byte	0
 2548 0028 00       		.byte	0
 2549 0029 04       		.uleb128 0x4
 2550 002a 16       		.uleb128 0x16
 2551 002b 00       		.byte	0
 2552 002c 03       		.uleb128 0x3
 2553 002d 0E       		.uleb128 0xe
 2554 002e 3A       		.uleb128 0x3a
 2555 002f 0B       		.uleb128 0xb
 2556 0030 3B       		.uleb128 0x3b
 2557 0031 0B       		.uleb128 0xb
 2558 0032 49       		.uleb128 0x49
 2559 0033 13       		.uleb128 0x13
 2560 0034 00       		.byte	0
 2561 0035 00       		.byte	0
 2562 0036 05       		.uleb128 0x5
 2563 0037 26       		.uleb128 0x26
ARM GAS  C:\Users\RAKIBU~1\AppData\Local\Temp\ccje4zNc.s 			page 46


 2564 0038 00       		.byte	0
 2565 0039 49       		.uleb128 0x49
 2566 003a 13       		.uleb128 0x13
 2567 003b 00       		.byte	0
 2568 003c 00       		.byte	0
 2569 003d 06       		.uleb128 0x6
 2570 003e 35       		.uleb128 0x35
 2571 003f 00       		.byte	0
 2572 0040 49       		.uleb128 0x49
 2573 0041 13       		.uleb128 0x13
 2574 0042 00       		.byte	0
 2575 0043 00       		.byte	0
 2576 0044 07       		.uleb128 0x7
 2577 0045 13       		.uleb128 0x13
 2578 0046 01       		.byte	0x1
 2579 0047 03       		.uleb128 0x3
 2580 0048 0E       		.uleb128 0xe
 2581 0049 0B       		.uleb128 0xb
 2582 004a 0B       		.uleb128 0xb
 2583 004b 3A       		.uleb128 0x3a
 2584 004c 0B       		.uleb128 0xb
 2585 004d 3B       		.uleb128 0x3b
 2586 004e 0B       		.uleb128 0xb
 2587 004f 01       		.uleb128 0x1
 2588 0050 13       		.uleb128 0x13
 2589 0051 00       		.byte	0
 2590 0052 00       		.byte	0
 2591 0053 08       		.uleb128 0x8
 2592 0054 0D       		.uleb128 0xd
 2593 0055 00       		.byte	0
 2594 0056 03       		.uleb128 0x3
 2595 0057 0E       		.uleb128 0xe
 2596 0058 3A       		.uleb128 0x3a
 2597 0059 0B       		.uleb128 0xb
 2598 005a 3B       		.uleb128 0x3b
 2599 005b 0B       		.uleb128 0xb
 2600 005c 49       		.uleb128 0x49
 2601 005d 13       		.uleb128 0x13
 2602 005e 38       		.uleb128 0x38
 2603 005f 0B       		.uleb128 0xb
 2604 0060 00       		.byte	0
 2605 0061 00       		.byte	0
 2606 0062 09       		.uleb128 0x9
 2607 0063 0D       		.uleb128 0xd
 2608 0064 00       		.byte	0
 2609 0065 03       		.uleb128 0x3
 2610 0066 08       		.uleb128 0x8
 2611 0067 3A       		.uleb128 0x3a
 2612 0068 0B       		.uleb128 0xb
 2613 0069 3B       		.uleb128 0x3b
 2614 006a 0B       		.uleb128 0xb
 2615 006b 49       		.uleb128 0x49
 2616 006c 13       		.uleb128 0x13
 2617 006d 38       		.uleb128 0x38
 2618 006e 0B       		.uleb128 0xb
 2619 006f 00       		.byte	0
 2620 0070 00       		.byte	0
ARM GAS  C:\Users\RAKIBU~1\AppData\Local\Temp\ccje4zNc.s 			page 47


 2621 0071 0A       		.uleb128 0xa
 2622 0072 0D       		.uleb128 0xd
 2623 0073 00       		.byte	0
 2624 0074 03       		.uleb128 0x3
 2625 0075 08       		.uleb128 0x8
 2626 0076 3A       		.uleb128 0x3a
 2627 0077 0B       		.uleb128 0xb
 2628 0078 3B       		.uleb128 0x3b
 2629 0079 05       		.uleb128 0x5
 2630 007a 49       		.uleb128 0x49
 2631 007b 13       		.uleb128 0x13
 2632 007c 38       		.uleb128 0x38
 2633 007d 0B       		.uleb128 0xb
 2634 007e 00       		.byte	0
 2635 007f 00       		.byte	0
 2636 0080 0B       		.uleb128 0xb
 2637 0081 0D       		.uleb128 0xd
 2638 0082 00       		.byte	0
 2639 0083 03       		.uleb128 0x3
 2640 0084 0E       		.uleb128 0xe
 2641 0085 3A       		.uleb128 0x3a
 2642 0086 0B       		.uleb128 0xb
 2643 0087 3B       		.uleb128 0x3b
 2644 0088 05       		.uleb128 0x5
 2645 0089 49       		.uleb128 0x49
 2646 008a 13       		.uleb128 0x13
 2647 008b 38       		.uleb128 0x38
 2648 008c 0B       		.uleb128 0xb
 2649 008d 00       		.byte	0
 2650 008e 00       		.byte	0
 2651 008f 0C       		.uleb128 0xc
 2652 0090 0F       		.uleb128 0xf
 2653 0091 00       		.byte	0
 2654 0092 0B       		.uleb128 0xb
 2655 0093 0B       		.uleb128 0xb
 2656 0094 49       		.uleb128 0x49
 2657 0095 13       		.uleb128 0x13
 2658 0096 00       		.byte	0
 2659 0097 00       		.byte	0
 2660 0098 0D       		.uleb128 0xd
 2661 0099 13       		.uleb128 0x13
 2662 009a 01       		.byte	0x1
 2663 009b 03       		.uleb128 0x3
 2664 009c 0E       		.uleb128 0xe
 2665 009d 0B       		.uleb128 0xb
 2666 009e 0B       		.uleb128 0xb
 2667 009f 3A       		.uleb128 0x3a
 2668 00a0 0B       		.uleb128 0xb
 2669 00a1 3B       		.uleb128 0x3b
 2670 00a2 05       		.uleb128 0x5
 2671 00a3 01       		.uleb128 0x1
 2672 00a4 13       		.uleb128 0x13
 2673 00a5 00       		.byte	0
 2674 00a6 00       		.byte	0
 2675 00a7 0E       		.uleb128 0xe
 2676 00a8 15       		.uleb128 0x15
 2677 00a9 01       		.byte	0x1
ARM GAS  C:\Users\RAKIBU~1\AppData\Local\Temp\ccje4zNc.s 			page 48


 2678 00aa 27       		.uleb128 0x27
 2679 00ab 19       		.uleb128 0x19
 2680 00ac 01       		.uleb128 0x1
 2681 00ad 13       		.uleb128 0x13
 2682 00ae 00       		.byte	0
 2683 00af 00       		.byte	0
 2684 00b0 0F       		.uleb128 0xf
 2685 00b1 05       		.uleb128 0x5
 2686 00b2 00       		.byte	0
 2687 00b3 49       		.uleb128 0x49
 2688 00b4 13       		.uleb128 0x13
 2689 00b5 00       		.byte	0
 2690 00b6 00       		.byte	0
 2691 00b7 10       		.uleb128 0x10
 2692 00b8 0F       		.uleb128 0xf
 2693 00b9 00       		.byte	0
 2694 00ba 0B       		.uleb128 0xb
 2695 00bb 0B       		.uleb128 0xb
 2696 00bc 00       		.byte	0
 2697 00bd 00       		.byte	0
 2698 00be 11       		.uleb128 0x11
 2699 00bf 13       		.uleb128 0x13
 2700 00c0 01       		.byte	0x1
 2701 00c1 03       		.uleb128 0x3
 2702 00c2 0E       		.uleb128 0xe
 2703 00c3 0B       		.uleb128 0xb
 2704 00c4 05       		.uleb128 0x5
 2705 00c5 3A       		.uleb128 0x3a
 2706 00c6 0B       		.uleb128 0xb
 2707 00c7 3B       		.uleb128 0x3b
 2708 00c8 05       		.uleb128 0x5
 2709 00c9 01       		.uleb128 0x1
 2710 00ca 13       		.uleb128 0x13
 2711 00cb 00       		.byte	0
 2712 00cc 00       		.byte	0
 2713 00cd 12       		.uleb128 0x12
 2714 00ce 0D       		.uleb128 0xd
 2715 00cf 00       		.byte	0
 2716 00d0 03       		.uleb128 0x3
 2717 00d1 0E       		.uleb128 0xe
 2718 00d2 3A       		.uleb128 0x3a
 2719 00d3 0B       		.uleb128 0xb
 2720 00d4 3B       		.uleb128 0x3b
 2721 00d5 05       		.uleb128 0x5
 2722 00d6 49       		.uleb128 0x49
 2723 00d7 13       		.uleb128 0x13
 2724 00d8 38       		.uleb128 0x38
 2725 00d9 05       		.uleb128 0x5
 2726 00da 00       		.byte	0
 2727 00db 00       		.byte	0
 2728 00dc 13       		.uleb128 0x13
 2729 00dd 0D       		.uleb128 0xd
 2730 00de 00       		.byte	0
 2731 00df 03       		.uleb128 0x3
 2732 00e0 08       		.uleb128 0x8
 2733 00e1 3A       		.uleb128 0x3a
 2734 00e2 0B       		.uleb128 0xb
ARM GAS  C:\Users\RAKIBU~1\AppData\Local\Temp\ccje4zNc.s 			page 49


 2735 00e3 3B       		.uleb128 0x3b
 2736 00e4 05       		.uleb128 0x5
 2737 00e5 49       		.uleb128 0x49
 2738 00e6 13       		.uleb128 0x13
 2739 00e7 38       		.uleb128 0x38
 2740 00e8 05       		.uleb128 0x5
 2741 00e9 00       		.byte	0
 2742 00ea 00       		.byte	0
 2743 00eb 14       		.uleb128 0x14
 2744 00ec 34       		.uleb128 0x34
 2745 00ed 00       		.byte	0
 2746 00ee 03       		.uleb128 0x3
 2747 00ef 0E       		.uleb128 0xe
 2748 00f0 3A       		.uleb128 0x3a
 2749 00f1 0B       		.uleb128 0xb
 2750 00f2 3B       		.uleb128 0x3b
 2751 00f3 05       		.uleb128 0x5
 2752 00f4 49       		.uleb128 0x49
 2753 00f5 13       		.uleb128 0x13
 2754 00f6 3F       		.uleb128 0x3f
 2755 00f7 19       		.uleb128 0x19
 2756 00f8 3C       		.uleb128 0x3c
 2757 00f9 19       		.uleb128 0x19
 2758 00fa 00       		.byte	0
 2759 00fb 00       		.byte	0
 2760 00fc 15       		.uleb128 0x15
 2761 00fd 34       		.uleb128 0x34
 2762 00fe 00       		.byte	0
 2763 00ff 03       		.uleb128 0x3
 2764 0100 0E       		.uleb128 0xe
 2765 0101 3A       		.uleb128 0x3a
 2766 0102 0B       		.uleb128 0xb
 2767 0103 3B       		.uleb128 0x3b
 2768 0104 0B       		.uleb128 0xb
 2769 0105 49       		.uleb128 0x49
 2770 0106 13       		.uleb128 0x13
 2771 0107 3F       		.uleb128 0x3f
 2772 0108 19       		.uleb128 0x19
 2773 0109 3C       		.uleb128 0x3c
 2774 010a 19       		.uleb128 0x19
 2775 010b 00       		.byte	0
 2776 010c 00       		.byte	0
 2777 010d 16       		.uleb128 0x16
 2778 010e 01       		.uleb128 0x1
 2779 010f 01       		.byte	0x1
 2780 0110 49       		.uleb128 0x49
 2781 0111 13       		.uleb128 0x13
 2782 0112 01       		.uleb128 0x1
 2783 0113 13       		.uleb128 0x13
 2784 0114 00       		.byte	0
 2785 0115 00       		.byte	0
 2786 0116 17       		.uleb128 0x17
 2787 0117 21       		.uleb128 0x21
 2788 0118 00       		.byte	0
 2789 0119 49       		.uleb128 0x49
 2790 011a 13       		.uleb128 0x13
 2791 011b 2F       		.uleb128 0x2f
ARM GAS  C:\Users\RAKIBU~1\AppData\Local\Temp\ccje4zNc.s 			page 50


 2792 011c 0B       		.uleb128 0xb
 2793 011d 00       		.byte	0
 2794 011e 00       		.byte	0
 2795 011f 18       		.uleb128 0x18
 2796 0120 13       		.uleb128 0x13
 2797 0121 01       		.byte	0x1
 2798 0122 0B       		.uleb128 0xb
 2799 0123 0B       		.uleb128 0xb
 2800 0124 3A       		.uleb128 0x3a
 2801 0125 0B       		.uleb128 0xb
 2802 0126 3B       		.uleb128 0x3b
 2803 0127 0B       		.uleb128 0xb
 2804 0128 01       		.uleb128 0x1
 2805 0129 13       		.uleb128 0x13
 2806 012a 00       		.byte	0
 2807 012b 00       		.byte	0
 2808 012c 19       		.uleb128 0x19
 2809 012d 17       		.uleb128 0x17
 2810 012e 01       		.byte	0x1
 2811 012f 0B       		.uleb128 0xb
 2812 0130 0B       		.uleb128 0xb
 2813 0131 3A       		.uleb128 0x3a
 2814 0132 0B       		.uleb128 0xb
 2815 0133 3B       		.uleb128 0x3b
 2816 0134 0B       		.uleb128 0xb
 2817 0135 01       		.uleb128 0x1
 2818 0136 13       		.uleb128 0x13
 2819 0137 00       		.byte	0
 2820 0138 00       		.byte	0
 2821 0139 1A       		.uleb128 0x1a
 2822 013a 0D       		.uleb128 0xd
 2823 013b 00       		.byte	0
 2824 013c 03       		.uleb128 0x3
 2825 013d 08       		.uleb128 0x8
 2826 013e 3A       		.uleb128 0x3a
 2827 013f 0B       		.uleb128 0xb
 2828 0140 3B       		.uleb128 0x3b
 2829 0141 0B       		.uleb128 0xb
 2830 0142 49       		.uleb128 0x49
 2831 0143 13       		.uleb128 0x13
 2832 0144 00       		.byte	0
 2833 0145 00       		.byte	0
 2834 0146 1B       		.uleb128 0x1b
 2835 0147 0D       		.uleb128 0xd
 2836 0148 00       		.byte	0
 2837 0149 03       		.uleb128 0x3
 2838 014a 0E       		.uleb128 0xe
 2839 014b 3A       		.uleb128 0x3a
 2840 014c 0B       		.uleb128 0xb
 2841 014d 3B       		.uleb128 0x3b
 2842 014e 0B       		.uleb128 0xb
 2843 014f 49       		.uleb128 0x49
 2844 0150 13       		.uleb128 0x13
 2845 0151 00       		.byte	0
 2846 0152 00       		.byte	0
 2847 0153 1C       		.uleb128 0x1c
 2848 0154 0D       		.uleb128 0xd
ARM GAS  C:\Users\RAKIBU~1\AppData\Local\Temp\ccje4zNc.s 			page 51


 2849 0155 00       		.byte	0
 2850 0156 03       		.uleb128 0x3
 2851 0157 0E       		.uleb128 0xe
 2852 0158 3A       		.uleb128 0x3a
 2853 0159 0B       		.uleb128 0xb
 2854 015a 3B       		.uleb128 0x3b
 2855 015b 0B       		.uleb128 0xb
 2856 015c 49       		.uleb128 0x49
 2857 015d 13       		.uleb128 0x13
 2858 015e 0B       		.uleb128 0xb
 2859 015f 0B       		.uleb128 0xb
 2860 0160 0D       		.uleb128 0xd
 2861 0161 0B       		.uleb128 0xb
 2862 0162 0C       		.uleb128 0xc
 2863 0163 0B       		.uleb128 0xb
 2864 0164 38       		.uleb128 0x38
 2865 0165 0B       		.uleb128 0xb
 2866 0166 00       		.byte	0
 2867 0167 00       		.byte	0
 2868 0168 1D       		.uleb128 0x1d
 2869 0169 13       		.uleb128 0x13
 2870 016a 01       		.byte	0x1
 2871 016b 0B       		.uleb128 0xb
 2872 016c 05       		.uleb128 0x5
 2873 016d 3A       		.uleb128 0x3a
 2874 016e 0B       		.uleb128 0xb
 2875 016f 3B       		.uleb128 0x3b
 2876 0170 0B       		.uleb128 0xb
 2877 0171 01       		.uleb128 0x1
 2878 0172 13       		.uleb128 0x13
 2879 0173 00       		.byte	0
 2880 0174 00       		.byte	0
 2881 0175 1E       		.uleb128 0x1e
 2882 0176 0D       		.uleb128 0xd
 2883 0177 00       		.byte	0
 2884 0178 03       		.uleb128 0x3
 2885 0179 0E       		.uleb128 0xe
 2886 017a 3A       		.uleb128 0x3a
 2887 017b 0B       		.uleb128 0xb
 2888 017c 3B       		.uleb128 0x3b
 2889 017d 05       		.uleb128 0x5
 2890 017e 49       		.uleb128 0x49
 2891 017f 13       		.uleb128 0x13
 2892 0180 00       		.byte	0
 2893 0181 00       		.byte	0
 2894 0182 1F       		.uleb128 0x1f
 2895 0183 34       		.uleb128 0x34
 2896 0184 00       		.byte	0
 2897 0185 03       		.uleb128 0x3
 2898 0186 08       		.uleb128 0x8
 2899 0187 3A       		.uleb128 0x3a
 2900 0188 0B       		.uleb128 0xb
 2901 0189 3B       		.uleb128 0x3b
 2902 018a 05       		.uleb128 0x5
 2903 018b 49       		.uleb128 0x49
 2904 018c 13       		.uleb128 0x13
 2905 018d 3F       		.uleb128 0x3f
ARM GAS  C:\Users\RAKIBU~1\AppData\Local\Temp\ccje4zNc.s 			page 52


 2906 018e 19       		.uleb128 0x19
 2907 018f 3C       		.uleb128 0x3c
 2908 0190 19       		.uleb128 0x19
 2909 0191 00       		.byte	0
 2910 0192 00       		.byte	0
 2911 0193 20       		.uleb128 0x20
 2912 0194 21       		.uleb128 0x21
 2913 0195 00       		.byte	0
 2914 0196 00       		.byte	0
 2915 0197 00       		.byte	0
 2916 0198 21       		.uleb128 0x21
 2917 0199 15       		.uleb128 0x15
 2918 019a 01       		.byte	0x1
 2919 019b 27       		.uleb128 0x27
 2920 019c 19       		.uleb128 0x19
 2921 019d 49       		.uleb128 0x49
 2922 019e 13       		.uleb128 0x13
 2923 019f 01       		.uleb128 0x1
 2924 01a0 13       		.uleb128 0x13
 2925 01a1 00       		.byte	0
 2926 01a2 00       		.byte	0
 2927 01a3 22       		.uleb128 0x22
 2928 01a4 16       		.uleb128 0x16
 2929 01a5 00       		.byte	0
 2930 01a6 03       		.uleb128 0x3
 2931 01a7 0E       		.uleb128 0xe
 2932 01a8 3A       		.uleb128 0x3a
 2933 01a9 0B       		.uleb128 0xb
 2934 01aa 3B       		.uleb128 0x3b
 2935 01ab 05       		.uleb128 0x5
 2936 01ac 49       		.uleb128 0x49
 2937 01ad 13       		.uleb128 0x13
 2938 01ae 00       		.byte	0
 2939 01af 00       		.byte	0
 2940 01b0 23       		.uleb128 0x23
 2941 01b1 34       		.uleb128 0x34
 2942 01b2 00       		.byte	0
 2943 01b3 03       		.uleb128 0x3
 2944 01b4 0E       		.uleb128 0xe
 2945 01b5 3A       		.uleb128 0x3a
 2946 01b6 0B       		.uleb128 0xb
 2947 01b7 3B       		.uleb128 0x3b
 2948 01b8 05       		.uleb128 0x5
 2949 01b9 49       		.uleb128 0x49
 2950 01ba 13       		.uleb128 0x13
 2951 01bb 02       		.uleb128 0x2
 2952 01bc 18       		.uleb128 0x18
 2953 01bd 00       		.byte	0
 2954 01be 00       		.byte	0
 2955 01bf 24       		.uleb128 0x24
 2956 01c0 2E       		.uleb128 0x2e
 2957 01c1 01       		.byte	0x1
 2958 01c2 3F       		.uleb128 0x3f
 2959 01c3 19       		.uleb128 0x19
 2960 01c4 03       		.uleb128 0x3
 2961 01c5 0E       		.uleb128 0xe
 2962 01c6 3A       		.uleb128 0x3a
ARM GAS  C:\Users\RAKIBU~1\AppData\Local\Temp\ccje4zNc.s 			page 53


 2963 01c7 0B       		.uleb128 0xb
 2964 01c8 3B       		.uleb128 0x3b
 2965 01c9 05       		.uleb128 0x5
 2966 01ca 27       		.uleb128 0x27
 2967 01cb 19       		.uleb128 0x19
 2968 01cc 49       		.uleb128 0x49
 2969 01cd 13       		.uleb128 0x13
 2970 01ce 11       		.uleb128 0x11
 2971 01cf 01       		.uleb128 0x1
 2972 01d0 12       		.uleb128 0x12
 2973 01d1 06       		.uleb128 0x6
 2974 01d2 40       		.uleb128 0x40
 2975 01d3 18       		.uleb128 0x18
 2976 01d4 9742     		.uleb128 0x2117
 2977 01d6 19       		.uleb128 0x19
 2978 01d7 01       		.uleb128 0x1
 2979 01d8 13       		.uleb128 0x13
 2980 01d9 00       		.byte	0
 2981 01da 00       		.byte	0
 2982 01db 25       		.uleb128 0x25
 2983 01dc 05       		.uleb128 0x5
 2984 01dd 00       		.byte	0
 2985 01de 03       		.uleb128 0x3
 2986 01df 08       		.uleb128 0x8
 2987 01e0 3A       		.uleb128 0x3a
 2988 01e1 0B       		.uleb128 0xb
 2989 01e2 3B       		.uleb128 0x3b
 2990 01e3 05       		.uleb128 0x5
 2991 01e4 49       		.uleb128 0x49
 2992 01e5 13       		.uleb128 0x13
 2993 01e6 02       		.uleb128 0x2
 2994 01e7 17       		.uleb128 0x17
 2995 01e8 00       		.byte	0
 2996 01e9 00       		.byte	0
 2997 01ea 26       		.uleb128 0x26
 2998 01eb 34       		.uleb128 0x34
 2999 01ec 00       		.byte	0
 3000 01ed 03       		.uleb128 0x3
 3001 01ee 08       		.uleb128 0x8
 3002 01ef 3A       		.uleb128 0x3a
 3003 01f0 0B       		.uleb128 0xb
 3004 01f1 3B       		.uleb128 0x3b
 3005 01f2 05       		.uleb128 0x5
 3006 01f3 49       		.uleb128 0x49
 3007 01f4 13       		.uleb128 0x13
 3008 01f5 02       		.uleb128 0x2
 3009 01f6 17       		.uleb128 0x17
 3010 01f7 00       		.byte	0
 3011 01f8 00       		.byte	0
 3012 01f9 27       		.uleb128 0x27
 3013 01fa 05       		.uleb128 0x5
 3014 01fb 00       		.byte	0
 3015 01fc 03       		.uleb128 0x3
 3016 01fd 08       		.uleb128 0x8
 3017 01fe 3A       		.uleb128 0x3a
 3018 01ff 0B       		.uleb128 0xb
 3019 0200 3B       		.uleb128 0x3b
ARM GAS  C:\Users\RAKIBU~1\AppData\Local\Temp\ccje4zNc.s 			page 54


 3020 0201 05       		.uleb128 0x5
 3021 0202 49       		.uleb128 0x49
 3022 0203 13       		.uleb128 0x13
 3023 0204 02       		.uleb128 0x2
 3024 0205 18       		.uleb128 0x18
 3025 0206 00       		.byte	0
 3026 0207 00       		.byte	0
 3027 0208 28       		.uleb128 0x28
 3028 0209 34       		.uleb128 0x34
 3029 020a 00       		.byte	0
 3030 020b 03       		.uleb128 0x3
 3031 020c 08       		.uleb128 0x8
 3032 020d 3A       		.uleb128 0x3a
 3033 020e 0B       		.uleb128 0xb
 3034 020f 3B       		.uleb128 0x3b
 3035 0210 05       		.uleb128 0x5
 3036 0211 49       		.uleb128 0x49
 3037 0212 13       		.uleb128 0x13
 3038 0213 02       		.uleb128 0x2
 3039 0214 18       		.uleb128 0x18
 3040 0215 00       		.byte	0
 3041 0216 00       		.byte	0
 3042 0217 29       		.uleb128 0x29
 3043 0218 2E       		.uleb128 0x2e
 3044 0219 01       		.byte	0x1
 3045 021a 3F       		.uleb128 0x3f
 3046 021b 19       		.uleb128 0x19
 3047 021c 03       		.uleb128 0x3
 3048 021d 0E       		.uleb128 0xe
 3049 021e 3A       		.uleb128 0x3a
 3050 021f 0B       		.uleb128 0xb
 3051 0220 3B       		.uleb128 0x3b
 3052 0221 05       		.uleb128 0x5
 3053 0222 27       		.uleb128 0x27
 3054 0223 19       		.uleb128 0x19
 3055 0224 49       		.uleb128 0x49
 3056 0225 13       		.uleb128 0x13
 3057 0226 11       		.uleb128 0x11
 3058 0227 01       		.uleb128 0x1
 3059 0228 12       		.uleb128 0x12
 3060 0229 06       		.uleb128 0x6
 3061 022a 40       		.uleb128 0x40
 3062 022b 18       		.uleb128 0x18
 3063 022c 9742     		.uleb128 0x2117
 3064 022e 19       		.uleb128 0x19
 3065 022f 00       		.byte	0
 3066 0230 00       		.byte	0
 3067 0231 00       		.byte	0
 3068              		.section	.debug_loc,"",%progbits
 3069              	.Ldebug_loc0:
 3070              	.LLST4:
 3071 0000 70000000 		.4byte	.LVL15-.Ltext0
 3072 0004 C4000000 		.4byte	.LVL30-.Ltext0
 3073 0008 0100     		.2byte	0x1
 3074 000a 50       		.byte	0x50
 3075 000b C4000000 		.4byte	.LVL30-.Ltext0
 3076 000f D0000000 		.4byte	.LVL34-.Ltext0
ARM GAS  C:\Users\RAKIBU~1\AppData\Local\Temp\ccje4zNc.s 			page 55


 3077 0013 0100     		.2byte	0x1
 3078 0015 50       		.byte	0x50
 3079 0016 D0000000 		.4byte	.LVL34-.Ltext0
 3080 001a D2000000 		.4byte	.LVL35-.Ltext0
 3081 001e 0400     		.2byte	0x4
 3082 0020 F3       		.byte	0xf3
 3083 0021 01       		.uleb128 0x1
 3084 0022 50       		.byte	0x50
 3085 0023 9F       		.byte	0x9f
 3086 0024 D2000000 		.4byte	.LVL35-.Ltext0
 3087 0028 D6000000 		.4byte	.LVL37-.Ltext0
 3088 002c 0100     		.2byte	0x1
 3089 002e 50       		.byte	0x50
 3090 002f D6000000 		.4byte	.LVL37-.Ltext0
 3091 0033 D8000000 		.4byte	.LVL38-.Ltext0
 3092 0037 0400     		.2byte	0x4
 3093 0039 F3       		.byte	0xf3
 3094 003a 01       		.uleb128 0x1
 3095 003b 50       		.byte	0x50
 3096 003c 9F       		.byte	0x9f
 3097 003d D8000000 		.4byte	.LVL38-.Ltext0
 3098 0041 DC000000 		.4byte	.LVL39-.Ltext0
 3099 0045 0100     		.2byte	0x1
 3100 0047 50       		.byte	0x50
 3101 0048 DC000000 		.4byte	.LVL39-.Ltext0
 3102 004c DE000000 		.4byte	.LVL40-.Ltext0
 3103 0050 0400     		.2byte	0x4
 3104 0052 F3       		.byte	0xf3
 3105 0053 01       		.uleb128 0x1
 3106 0054 50       		.byte	0x50
 3107 0055 9F       		.byte	0x9f
 3108 0056 DE000000 		.4byte	.LVL40-.Ltext0
 3109 005a E2000000 		.4byte	.LVL41-.Ltext0
 3110 005e 0100     		.2byte	0x1
 3111 0060 50       		.byte	0x50
 3112 0061 E2000000 		.4byte	.LVL41-.Ltext0
 3113 0065 E4000000 		.4byte	.LVL42-.Ltext0
 3114 0069 0400     		.2byte	0x4
 3115 006b F3       		.byte	0xf3
 3116 006c 01       		.uleb128 0x1
 3117 006d 50       		.byte	0x50
 3118 006e 9F       		.byte	0x9f
 3119 006f E4000000 		.4byte	.LVL42-.Ltext0
 3120 0073 E8000000 		.4byte	.LVL43-.Ltext0
 3121 0077 0100     		.2byte	0x1
 3122 0079 50       		.byte	0x50
 3123 007a E8000000 		.4byte	.LVL43-.Ltext0
 3124 007e EA000000 		.4byte	.LVL44-.Ltext0
 3125 0082 0400     		.2byte	0x4
 3126 0084 F3       		.byte	0xf3
 3127 0085 01       		.uleb128 0x1
 3128 0086 50       		.byte	0x50
 3129 0087 9F       		.byte	0x9f
 3130 0088 EA000000 		.4byte	.LVL44-.Ltext0
 3131 008c EE000000 		.4byte	.LVL45-.Ltext0
 3132 0090 0100     		.2byte	0x1
 3133 0092 50       		.byte	0x50
ARM GAS  C:\Users\RAKIBU~1\AppData\Local\Temp\ccje4zNc.s 			page 56


 3134 0093 EE000000 		.4byte	.LVL45-.Ltext0
 3135 0097 F0000000 		.4byte	.LVL46-.Ltext0
 3136 009b 0400     		.2byte	0x4
 3137 009d F3       		.byte	0xf3
 3138 009e 01       		.uleb128 0x1
 3139 009f 50       		.byte	0x50
 3140 00a0 9F       		.byte	0x9f
 3141 00a1 F0000000 		.4byte	.LVL46-.Ltext0
 3142 00a5 F4000000 		.4byte	.LVL47-.Ltext0
 3143 00a9 0100     		.2byte	0x1
 3144 00ab 50       		.byte	0x50
 3145 00ac F4000000 		.4byte	.LVL47-.Ltext0
 3146 00b0 F6000000 		.4byte	.LVL48-.Ltext0
 3147 00b4 0400     		.2byte	0x4
 3148 00b6 F3       		.byte	0xf3
 3149 00b7 01       		.uleb128 0x1
 3150 00b8 50       		.byte	0x50
 3151 00b9 9F       		.byte	0x9f
 3152 00ba F6000000 		.4byte	.LVL48-.Ltext0
 3153 00be FC000000 		.4byte	.LVL49-.Ltext0
 3154 00c2 0100     		.2byte	0x1
 3155 00c4 50       		.byte	0x50
 3156 00c5 FC000000 		.4byte	.LVL49-.Ltext0
 3157 00c9 FE000000 		.4byte	.LVL50-.Ltext0
 3158 00cd 0400     		.2byte	0x4
 3159 00cf F3       		.byte	0xf3
 3160 00d0 01       		.uleb128 0x1
 3161 00d1 50       		.byte	0x50
 3162 00d2 9F       		.byte	0x9f
 3163 00d3 FE000000 		.4byte	.LVL50-.Ltext0
 3164 00d7 0C010000 		.4byte	.LFE297-.Ltext0
 3165 00db 0100     		.2byte	0x1
 3166 00dd 50       		.byte	0x50
 3167 00de 00000000 		.4byte	0
 3168 00e2 00000000 		.4byte	0
 3169              	.LLST5:
 3170 00e6 78000000 		.4byte	.LVL16-.Ltext0
 3171 00ea 86000000 		.4byte	.LVL18-.Ltext0
 3172 00ee 0300     		.2byte	0x3
 3173 00f0 73       		.byte	0x73
 3174 00f1 02       		.sleb128 2
 3175 00f2 9F       		.byte	0x9f
 3176 00f3 8A000000 		.4byte	.LVL19-.Ltext0
 3177 00f7 8C000000 		.4byte	.LVL20-.Ltext0
 3178 00fb 0100     		.2byte	0x1
 3179 00fd 55       		.byte	0x55
 3180 00fe 8C000000 		.4byte	.LVL20-.Ltext0
 3181 0102 94000000 		.4byte	.LVL22-.Ltext0
 3182 0106 0300     		.2byte	0x3
 3183 0108 73       		.byte	0x73
 3184 0109 02       		.sleb128 2
 3185 010a 9F       		.byte	0x9f
 3186 010b 96000000 		.4byte	.LVL23-.Ltext0
 3187 010f AA000000 		.4byte	.LVL27-.Ltext0
 3188 0113 0100     		.2byte	0x1
 3189 0115 55       		.byte	0x55
 3190 0116 AA000000 		.4byte	.LVL27-.Ltext0
ARM GAS  C:\Users\RAKIBU~1\AppData\Local\Temp\ccje4zNc.s 			page 57


 3191 011a AC000000 		.4byte	.LVL28-.Ltext0
 3192 011e 0100     		.2byte	0x1
 3193 0120 53       		.byte	0x53
 3194 0121 AC000000 		.4byte	.LVL28-.Ltext0
 3195 0125 C4000000 		.4byte	.LVL30-.Ltext0
 3196 0129 0100     		.2byte	0x1
 3197 012b 55       		.byte	0x55
 3198 012c C8000000 		.4byte	.LVL32-.Ltext0
 3199 0130 00010000 		.4byte	.LVL51-.Ltext0
 3200 0134 0100     		.2byte	0x1
 3201 0136 55       		.byte	0x55
 3202 0137 00010000 		.4byte	.LVL51-.Ltext0
 3203 013b 0C010000 		.4byte	.LFE297-.Ltext0
 3204 013f 0300     		.2byte	0x3
 3205 0141 73       		.byte	0x73
 3206 0142 02       		.sleb128 2
 3207 0143 9F       		.byte	0x9f
 3208 0144 00000000 		.4byte	0
 3209 0148 00000000 		.4byte	0
 3210              	.LLST6:
 3211 014c 7A000000 		.4byte	.LVL17-.Ltext0
 3212 0150 86000000 		.4byte	.LVL18-.Ltext0
 3213 0154 0100     		.2byte	0x1
 3214 0156 52       		.byte	0x52
 3215 0157 8A000000 		.4byte	.LVL19-.Ltext0
 3216 015b C4000000 		.4byte	.LVL30-.Ltext0
 3217 015f 0100     		.2byte	0x1
 3218 0161 52       		.byte	0x52
 3219 0162 C8000000 		.4byte	.LVL32-.Ltext0
 3220 0166 CA000000 		.4byte	.LVL33-.Ltext0
 3221 016a 0100     		.2byte	0x1
 3222 016c 52       		.byte	0x52
 3223 016d D4000000 		.4byte	.LVL36-.Ltext0
 3224 0171 0C010000 		.4byte	.LFE297-.Ltext0
 3225 0175 0100     		.2byte	0x1
 3226 0177 52       		.byte	0x52
 3227 0178 00000000 		.4byte	0
 3228 017c 00000000 		.4byte	0
 3229              	.LLST7:
 3230 0180 8A000000 		.4byte	.LVL19-.Ltext0
 3231 0184 8C000000 		.4byte	.LVL20-.Ltext0
 3232 0188 0100     		.2byte	0x1
 3233 018a 53       		.byte	0x53
 3234 018b 8C000000 		.4byte	.LVL20-.Ltext0
 3235 018f 94000000 		.4byte	.LVL22-.Ltext0
 3236 0193 0800     		.2byte	0x8
 3237 0195 75       		.byte	0x75
 3238 0196 7E       		.sleb128 -2
 3239 0197 94       		.byte	0x94
 3240 0198 01       		.byte	0x1
 3241 0199 08       		.byte	0x8
 3242 019a FF       		.byte	0xff
 3243 019b 1A       		.byte	0x1a
 3244 019c 9F       		.byte	0x9f
 3245 019d 98000000 		.4byte	.LVL24-.Ltext0
 3246 01a1 AA000000 		.4byte	.LVL27-.Ltext0
 3247 01a5 0100     		.2byte	0x1
ARM GAS  C:\Users\RAKIBU~1\AppData\Local\Temp\ccje4zNc.s 			page 58


 3248 01a7 53       		.byte	0x53
 3249 01a8 AA000000 		.4byte	.LVL27-.Ltext0
 3250 01ac AC000000 		.4byte	.LVL28-.Ltext0
 3251 01b0 0800     		.2byte	0x8
 3252 01b2 75       		.byte	0x75
 3253 01b3 7E       		.sleb128 -2
 3254 01b4 94       		.byte	0x94
 3255 01b5 01       		.byte	0x1
 3256 01b6 08       		.byte	0x8
 3257 01b7 FF       		.byte	0xff
 3258 01b8 1A       		.byte	0x1a
 3259 01b9 9F       		.byte	0x9f
 3260 01ba AC000000 		.4byte	.LVL28-.Ltext0
 3261 01be B4000000 		.4byte	.LVL29-.Ltext0
 3262 01c2 0100     		.2byte	0x1
 3263 01c4 53       		.byte	0x53
 3264 01c5 B4000000 		.4byte	.LVL29-.Ltext0
 3265 01c9 C6000000 		.4byte	.LVL31-.Ltext0
 3266 01cd 0800     		.2byte	0x8
 3267 01cf 75       		.byte	0x75
 3268 01d0 7E       		.sleb128 -2
 3269 01d1 94       		.byte	0x94
 3270 01d2 01       		.byte	0x1
 3271 01d3 08       		.byte	0x8
 3272 01d4 FF       		.byte	0xff
 3273 01d5 1A       		.byte	0x1a
 3274 01d6 9F       		.byte	0x9f
 3275 01d7 C8000000 		.4byte	.LVL32-.Ltext0
 3276 01db 00010000 		.4byte	.LVL51-.Ltext0
 3277 01df 0800     		.2byte	0x8
 3278 01e1 75       		.byte	0x75
 3279 01e2 7E       		.sleb128 -2
 3280 01e3 94       		.byte	0x94
 3281 01e4 01       		.byte	0x1
 3282 01e5 08       		.byte	0x8
 3283 01e6 FF       		.byte	0xff
 3284 01e7 1A       		.byte	0x1a
 3285 01e8 9F       		.byte	0x9f
 3286 01e9 00000000 		.4byte	0
 3287 01ed 00000000 		.4byte	0
 3288              	.LLST8:
 3289 01f1 8A000000 		.4byte	.LVL19-.Ltext0
 3290 01f5 94000000 		.4byte	.LVL22-.Ltext0
 3291 01f9 0100     		.2byte	0x1
 3292 01fb 51       		.byte	0x51
 3293 01fc 9A000000 		.4byte	.LVL25-.Ltext0
 3294 0200 00010000 		.4byte	.LVL51-.Ltext0
 3295 0204 0100     		.2byte	0x1
 3296 0206 51       		.byte	0x51
 3297 0207 00000000 		.4byte	0
 3298 020b 00000000 		.4byte	0
 3299              	.LLST2:
 3300 020f 40000000 		.4byte	.LVL8-.Ltext0
 3301 0213 4E000000 		.4byte	.LVL9-.Ltext0
 3302 0217 0100     		.2byte	0x1
 3303 0219 50       		.byte	0x50
 3304 021a 4E000000 		.4byte	.LVL9-.Ltext0
ARM GAS  C:\Users\RAKIBU~1\AppData\Local\Temp\ccje4zNc.s 			page 59


 3305 021e 50000000 		.4byte	.LVL10-.Ltext0
 3306 0222 0400     		.2byte	0x4
 3307 0224 F3       		.byte	0xf3
 3308 0225 01       		.uleb128 0x1
 3309 0226 50       		.byte	0x50
 3310 0227 9F       		.byte	0x9f
 3311 0228 50000000 		.4byte	.LVL10-.Ltext0
 3312 022c 58000000 		.4byte	.LVL11-.Ltext0
 3313 0230 0100     		.2byte	0x1
 3314 0232 50       		.byte	0x50
 3315 0233 58000000 		.4byte	.LVL11-.Ltext0
 3316 0237 62000000 		.4byte	.LVL13-.Ltext0
 3317 023b 0400     		.2byte	0x4
 3318 023d F3       		.byte	0xf3
 3319 023e 01       		.uleb128 0x1
 3320 023f 50       		.byte	0x50
 3321 0240 9F       		.byte	0x9f
 3322 0241 62000000 		.4byte	.LVL13-.Ltext0
 3323 0245 64000000 		.4byte	.LVL14-.Ltext0
 3324 0249 0100     		.2byte	0x1
 3325 024b 50       		.byte	0x50
 3326 024c 64000000 		.4byte	.LVL14-.Ltext0
 3327 0250 6C000000 		.4byte	.LFE296-.Ltext0
 3328 0254 0400     		.2byte	0x4
 3329 0256 F3       		.byte	0xf3
 3330 0257 01       		.uleb128 0x1
 3331 0258 50       		.byte	0x50
 3332 0259 9F       		.byte	0x9f
 3333 025a 00000000 		.4byte	0
 3334 025e 00000000 		.4byte	0
 3335              	.LLST3:
 3336 0262 40000000 		.4byte	.LVL8-.Ltext0
 3337 0266 60000000 		.4byte	.LVL12-.Ltext0
 3338 026a 0200     		.2byte	0x2
 3339 026c 30       		.byte	0x30
 3340 026d 9F       		.byte	0x9f
 3341 026e 60000000 		.4byte	.LVL12-.Ltext0
 3342 0272 62000000 		.4byte	.LVL13-.Ltext0
 3343 0276 0100     		.2byte	0x1
 3344 0278 50       		.byte	0x50
 3345 0279 62000000 		.4byte	.LVL13-.Ltext0
 3346 027d 64000000 		.4byte	.LVL14-.Ltext0
 3347 0281 0200     		.2byte	0x2
 3348 0283 30       		.byte	0x30
 3349 0284 9F       		.byte	0x9f
 3350 0285 64000000 		.4byte	.LVL14-.Ltext0
 3351 0289 6C000000 		.4byte	.LFE296-.Ltext0
 3352 028d 0100     		.2byte	0x1
 3353 028f 50       		.byte	0x50
 3354 0290 00000000 		.4byte	0
 3355 0294 00000000 		.4byte	0
 3356              	.LLST0:
 3357 0298 00000000 		.4byte	.LVL0-.Ltext0
 3358 029c 0E000000 		.4byte	.LVL1-.Ltext0
 3359 02a0 0100     		.2byte	0x1
 3360 02a2 50       		.byte	0x50
 3361 02a3 0E000000 		.4byte	.LVL1-.Ltext0
ARM GAS  C:\Users\RAKIBU~1\AppData\Local\Temp\ccje4zNc.s 			page 60


 3362 02a7 10000000 		.4byte	.LVL2-.Ltext0
 3363 02ab 0400     		.2byte	0x4
 3364 02ad F3       		.byte	0xf3
 3365 02ae 01       		.uleb128 0x1
 3366 02af 50       		.byte	0x50
 3367 02b0 9F       		.byte	0x9f
 3368 02b1 10000000 		.4byte	.LVL2-.Ltext0
 3369 02b5 26000000 		.4byte	.LVL5-.Ltext0
 3370 02b9 0100     		.2byte	0x1
 3371 02bb 50       		.byte	0x50
 3372 02bc 26000000 		.4byte	.LVL5-.Ltext0
 3373 02c0 2A000000 		.4byte	.LVL7-.Ltext0
 3374 02c4 0400     		.2byte	0x4
 3375 02c6 F3       		.byte	0xf3
 3376 02c7 01       		.uleb128 0x1
 3377 02c8 50       		.byte	0x50
 3378 02c9 9F       		.byte	0x9f
 3379 02ca 2A000000 		.4byte	.LVL7-.Ltext0
 3380 02ce 34000000 		.4byte	.LFE295-.Ltext0
 3381 02d2 0100     		.2byte	0x1
 3382 02d4 50       		.byte	0x50
 3383 02d5 00000000 		.4byte	0
 3384 02d9 00000000 		.4byte	0
 3385              	.LLST1:
 3386 02dd 00000000 		.4byte	.LVL0-.Ltext0
 3387 02e1 10000000 		.4byte	.LVL2-.Ltext0
 3388 02e5 0200     		.2byte	0x2
 3389 02e7 30       		.byte	0x30
 3390 02e8 9F       		.byte	0x9f
 3391 02e9 10000000 		.4byte	.LVL2-.Ltext0
 3392 02ed 12000000 		.4byte	.LVL3-.Ltext0
 3393 02f1 0100     		.2byte	0x1
 3394 02f3 53       		.byte	0x53
 3395 02f4 14000000 		.4byte	.LVL4-.Ltext0
 3396 02f8 28000000 		.4byte	.LVL6-.Ltext0
 3397 02fc 0100     		.2byte	0x1
 3398 02fe 53       		.byte	0x53
 3399 02ff 28000000 		.4byte	.LVL6-.Ltext0
 3400 0303 2A000000 		.4byte	.LVL7-.Ltext0
 3401 0307 0100     		.2byte	0x1
 3402 0309 50       		.byte	0x50
 3403 030a 2A000000 		.4byte	.LVL7-.Ltext0
 3404 030e 34000000 		.4byte	.LFE295-.Ltext0
 3405 0312 0200     		.2byte	0x2
 3406 0314 30       		.byte	0x30
 3407 0315 9F       		.byte	0x9f
 3408 0316 00000000 		.4byte	0
 3409 031a 00000000 		.4byte	0
 3410              		.section	.debug_aranges,"",%progbits
 3411 0000 1C000000 		.4byte	0x1c
 3412 0004 0200     		.2byte	0x2
 3413 0006 00000000 		.4byte	.Ldebug_info0
 3414 000a 04       		.byte	0x4
 3415 000b 00       		.byte	0
 3416 000c 0000     		.2byte	0
 3417 000e 0000     		.2byte	0
 3418 0010 00000000 		.4byte	.Ltext0
ARM GAS  C:\Users\RAKIBU~1\AppData\Local\Temp\ccje4zNc.s 			page 61


 3419 0014 0C010000 		.4byte	.Letext0-.Ltext0
 3420 0018 00000000 		.4byte	0
 3421 001c 00000000 		.4byte	0
 3422              		.section	.debug_line,"",%progbits
 3423              	.Ldebug_line0:
 3424 0000 5F040000 		.section	.debug_str,"MS",%progbits,1
 3424      0200DE03 
 3424      00000201 
 3424      FB0E0D00 
 3424      01010101 
 3425              	.LASF58:
 3426 0000 72656164 		.ascii	"ready_list_t\000"
 3426      795F6C69 
 3426      73745F74 
 3426      00
 3427              	.LASF9:
 3428 000d 73697A65 		.ascii	"size_t\000"
 3428      5F7400
 3429              	.LASF54:
 3430 0014 6E657874 		.ascii	"next\000"
 3430      00
 3431              	.LASF64:
 3432 0019 64656C74 		.ascii	"delta\000"
 3432      6100
 3433              	.LASF116:
 3434 001f 7264796D 		.ascii	"rdymsg\000"
 3434      736700
 3435              	.LASF22:
 3436 0026 75696E74 		.ascii	"uint64_t\000"
 3436      36345F74 
 3436      00
 3437              	.LASF80:
 3438 002f 6B65726E 		.ascii	"kernel_stats\000"
 3438      656C5F73 
 3438      74617473 
 3438      00
 3439              	.LASF13:
 3440 003c 5F5F7569 		.ascii	"__uint8_t\000"
 3440      6E74385F 
 3440      7400
 3441              	.LASF57:
 3442 0046 70726576 		.ascii	"prev\000"
 3442      00
 3443              	.LASF90:
 3444 004b 706F7274 		.ascii	"port_intctx\000"
 3444      5F696E74 
 3444      63747800 
 3445              	.LASF56:
 3446 0057 63685F74 		.ascii	"ch_threads_queue\000"
 3446      68726561 
 3446      64735F71 
 3446      75657565 
 3446      00
 3447              	.LASF69:
 3448 0068 73797374 		.ascii	"system_debug_t\000"
 3448      656D5F64 
 3448      65627567 
ARM GAS  C:\Users\RAKIBU~1\AppData\Local\Temp\ccje4zNc.s 			page 62


 3448      5F7400
 3449              	.LASF156:
 3450 0077 70726F76 		.ascii	"provider\000"
 3450      69646572 
 3450      00
 3451              	.LASF96:
 3452 0080 74797065 		.ascii	"type\000"
 3452      00
 3453              	.LASF166:
 3454 0085 73656D5F 		.ascii	"sem_list\000"
 3454      6C697374 
 3454      00
 3455              	.LASF107:
 3456 008e 776F7273 		.ascii	"worst\000"
 3456      7400
 3457              	.LASF110:
 3458 0094 74696D65 		.ascii	"time_measurement_t\000"
 3458      5F6D6561 
 3458      73757265 
 3458      6D656E74 
 3458      5F7400
 3459              	.LASF8:
 3460 00a7 6C6F6E67 		.ascii	"long long unsigned int\000"
 3460      206C6F6E 
 3460      6720756E 
 3460      7369676E 
 3460      65642069 
 3461              	.LASF103:
 3462 00be 63685F74 		.ascii	"ch_trace_buffer_t\000"
 3462      72616365 
 3462      5F627566 
 3462      6665725F 
 3462      7400
 3463              	.LASF117:
 3464 00d0 65786974 		.ascii	"exitcode\000"
 3464      636F6465 
 3464      00
 3465              	.LASF79:
 3466 00d9 6D61696E 		.ascii	"mainthread\000"
 3466      74687265 
 3466      616400
 3467              	.LASF119:
 3468 00e4 73656E74 		.ascii	"sentmsg\000"
 3468      6D736700 
 3469              	.LASF66:
 3470 00ec 76697274 		.ascii	"virtual_timers_list_t\000"
 3470      75616C5F 
 3470      74696D65 
 3470      72735F6C 
 3470      6973745F 
 3471              	.LASF83:
 3472 0102 49544D5F 		.ascii	"ITM_RxBuffer\000"
 3472      52784275 
 3472      66666572 
 3472      00
 3473              	.LASF159:
 3474 010f 64796E5F 		.ascii	"dyn_element_t\000"
ARM GAS  C:\Users\RAKIBU~1\AppData\Local\Temp\ccje4zNc.s 			page 63


 3474      656C656D 
 3474      656E745F 
 3474      7400
 3475              	.LASF155:
 3476 011d 616C6967 		.ascii	"align\000"
 3476      6E00
 3477              	.LASF24:
 3478 0123 72747469 		.ascii	"rttime_t\000"
 3478      6D655F74 
 3478      00
 3479              	.LASF10:
 3480 012c 6C6F6E67 		.ascii	"long long int\000"
 3480      206C6F6E 
 3480      6720696E 
 3480      7400
 3481              	.LASF12:
 3482 013a 7369676E 		.ascii	"signed char\000"
 3482      65642063 
 3482      68617200 
 3483              	.LASF176:
 3484 0146 66665F77 		.ascii	"ff_wtoupper\000"
 3484      746F7570 
 3484      70657200 
 3485              	.LASF158:
 3486 0152 63685F64 		.ascii	"ch_dyn_element\000"
 3486      796E5F65 
 3486      6C656D65 
 3486      6E7400
 3487              	.LASF101:
 3488 0161 73697A65 		.ascii	"size\000"
 3488      00
 3489              	.LASF77:
 3490 0166 726C6973 		.ascii	"rlist\000"
 3490      7400
 3491              	.LASF78:
 3492 016c 76746C69 		.ascii	"vtlist\000"
 3492      737400
 3493              	.LASF40:
 3494 0173 73746174 		.ascii	"state\000"
 3494      6500
 3495              	.LASF6:
 3496 0179 6C6F6E67 		.ascii	"long int\000"
 3496      20696E74 
 3496      00
 3497              	.LASF100:
 3498 0182 73757370 		.ascii	"suspended\000"
 3498      656E6465 
 3498      6400
 3499              	.LASF26:
 3500 018c 74737461 		.ascii	"tstate_t\000"
 3500      74655F74 
 3500      00
 3501              	.LASF99:
 3502 0195 63685F74 		.ascii	"ch_trace_event_t\000"
 3502      72616365 
 3502      5F657665 
 3502      6E745F74 
ARM GAS  C:\Users\RAKIBU~1\AppData\Local\Temp\ccje4zNc.s 			page 64


 3502      00
 3503              	.LASF65:
 3504 01a6 66756E63 		.ascii	"func\000"
 3504      00
 3505              	.LASF49:
 3506 01ab 73746174 		.ascii	"stats\000"
 3506      7300
 3507              	.LASF127:
 3508 01b1 6964656E 		.ascii	"identifier\000"
 3508      74696669 
 3508      657200
 3509              	.LASF19:
 3510 01bc 75696E74 		.ascii	"uint16_t\000"
 3510      31365F74 
 3510      00
 3511              	.LASF179:
 3512 01c5 2E2E2F2E 		.ascii	"../../../ChibiOSRepo/chibios191/ext/fatfs/src/ffuni"
 3512      2E2F2E2E 
 3512      2F436869 
 3512      62694F53 
 3512      5265706F 
 3513 01f8 636F6465 		.ascii	"code.c\000"
 3513      2E6300
 3514              	.LASF144:
 3515 01ff 63686465 		.ascii	"chdebug_t\000"
 3515      6275675F 
 3515      7400
 3516              	.LASF142:
 3517 0209 6F66665F 		.ascii	"off_preempt\000"
 3517      70726565 
 3517      6D707400 
 3518              	.LASF102:
 3519 0215 62756666 		.ascii	"buffer\000"
 3519      657200
 3520              	.LASF141:
 3521 021c 6F66665F 		.ascii	"off_refs\000"
 3521      72656673 
 3521      00
 3522              	.LASF16:
 3523 0225 5F5F7569 		.ascii	"__uint32_t\000"
 3523      6E743332 
 3523      5F7400
 3524              	.LASF87:
 3525 0230 72656761 		.ascii	"regarm_t\000"
 3525      726D5F74 
 3525      00
 3526              	.LASF168:
 3527 0239 6D62785F 		.ascii	"mbx_list\000"
 3527      6C697374 
 3527      00
 3528              	.LASF70:
 3529 0242 63685F73 		.ascii	"ch_system_debug\000"
 3529      79737465 
 3529      6D5F6465 
 3529      62756700 
 3530              	.LASF43:
 3531 0252 77616974 		.ascii	"waiting\000"
ARM GAS  C:\Users\RAKIBU~1\AppData\Local\Temp\ccje4zNc.s 			page 65


 3531      696E6700 
 3532              	.LASF86:
 3533 025a 41504250 		.ascii	"APBPrescTable\000"
 3533      72657363 
 3533      5461626C 
 3533      6500
 3534              	.LASF128:
 3535 0268 7A65726F 		.ascii	"zero\000"
 3535      00
 3536              	.LASF146:
 3537 026d 6D757465 		.ascii	"mutex_t\000"
 3537      785F7400 
 3538              	.LASF73:
 3539 0275 6C6F636B 		.ascii	"lock_cnt\000"
 3539      5F636E74 
 3539      00
 3540              	.LASF82:
 3541 027e 73797369 		.ascii	"sysinterval_t\000"
 3541      6E746572 
 3541      76616C5F 
 3541      7400
 3542              	.LASF31:
 3543 028c 636E745F 		.ascii	"cnt_t\000"
 3543      7400
 3544              	.LASF44:
 3545 0292 6D736771 		.ascii	"msgqueue\000"
 3545      75657565 
 3545      00
 3546              	.LASF0:
 3547 029b 756E7369 		.ascii	"unsigned int\000"
 3547      676E6564 
 3547      20696E74 
 3547      00
 3548              	.LASF173:
 3549 02a8 75633835 		.ascii	"uc850\000"
 3549      3000
 3550              	.LASF84:
 3551 02ae 53797374 		.ascii	"SystemCoreClock\000"
 3551      656D436F 
 3551      7265436C 
 3551      6F636B00 
 3552              	.LASF120:
 3553 02be 77747365 		.ascii	"wtsemp\000"
 3553      6D7000
 3554              	.LASF118:
 3555 02c5 77747472 		.ascii	"wttrp\000"
 3555      7000
 3556              	.LASF145:
 3557 02cb 63685F64 		.ascii	"ch_debug\000"
 3557      65627567 
 3557      00
 3558              	.LASF172:
 3559 02d4 63685F66 		.ascii	"ch_factory\000"
 3559      6163746F 
 3559      727900
 3560              	.LASF157:
 3561 02df 6D656D6F 		.ascii	"memory_pool_t\000"
ARM GAS  C:\Users\RAKIBU~1\AppData\Local\Temp\ccje4zNc.s 			page 66


 3561      72795F70 
 3561      6F6F6C5F 
 3561      7400
 3562              	.LASF111:
 3563 02ed 6E5F6972 		.ascii	"n_irq\000"
 3563      7100
 3564              	.LASF34:
 3565 02f3 71756575 		.ascii	"queue\000"
 3565      6500
 3566              	.LASF48:
 3567 02f9 6D706F6F 		.ascii	"mpool\000"
 3567      6C00
 3568              	.LASF180:
 3569 02ff 433A5C55 		.ascii	"C:\\Users\\RakibulChowdhury\\OneDrive - DIAS Geophy"
 3569      73657273 
 3569      5C52616B 
 3569      6962756C 
 3569      43686F77 
 3570 032f 73696361 		.ascii	"sical\\Dias32FirmwareDevelopment\\FirmwareRepo\\Dia"
 3570      6C5C4469 
 3570      61733332 
 3570      4669726D 
 3570      77617265 
 3571 035f 73333257 		.ascii	"s32Workspace\\DIAS-Gen2-Rakibul\000"
 3571      6F726B73 
 3571      70616365 
 3571      5C444941 
 3571      532D4765 
 3572              	.LASF115:
 3573 037e 6B65726E 		.ascii	"kernel_stats_t\000"
 3573      656C5F73 
 3573      74617473 
 3573      5F7400
 3574              	.LASF38:
 3575 038d 6E616D65 		.ascii	"name\000"
 3575      00
 3576              	.LASF52:
 3577 0392 63685F74 		.ascii	"ch_thread\000"
 3577      68726561 
 3577      6400
 3578              	.LASF29:
 3579 039c 6D73675F 		.ascii	"msg_t\000"
 3579      7400
 3580              	.LASF32:
 3581 03a2 75636E74 		.ascii	"ucnt_t\000"
 3581      5F7400
 3582              	.LASF45:
 3583 03a9 6570656E 		.ascii	"epending\000"
 3583      64696E67 
 3583      00
 3584              	.LASF161:
 3585 03b2 64796E5F 		.ascii	"dyn_list_t\000"
 3585      6C697374 
 3585      5F7400
 3586              	.LASF75:
 3587 03bd 63685F73 		.ascii	"ch_system_t\000"
 3587      79737465 
ARM GAS  C:\Users\RAKIBU~1\AppData\Local\Temp\ccje4zNc.s 			page 67


 3587      6D5F7400 
 3588              	.LASF134:
 3589 03c9 6F66665F 		.ascii	"off_ctx\000"
 3589      63747800 
 3590              	.LASF25:
 3591 03d1 746D6F64 		.ascii	"tmode_t\000"
 3591      655F7400 
 3592              	.LASF114:
 3593 03d9 6D5F6372 		.ascii	"m_crit_isr\000"
 3593      69745F69 
 3593      737200
 3594              	.LASF59:
 3595 03e4 63685F72 		.ascii	"ch_ready_list\000"
 3595      65616479 
 3595      5F6C6973 
 3595      7400
 3596              	.LASF30:
 3597 03f2 6576656E 		.ascii	"eventmask_t\000"
 3597      746D6173 
 3597      6B5F7400 
 3598              	.LASF85:
 3599 03fe 41484250 		.ascii	"AHBPrescTable\000"
 3599      72657363 
 3599      5461626C 
 3599      6500
 3600              	.LASF150:
 3601 040c 656E646D 		.ascii	"endmem\000"
 3601      656D00
 3602              	.LASF15:
 3603 0413 5F5F696E 		.ascii	"__int32_t\000"
 3603      7433325F 
 3603      7400
 3604              	.LASF88:
 3605 041d 73746B61 		.ascii	"stkalign_t\000"
 3605      6C69676E 
 3605      5F7400
 3606              	.LASF36:
 3607 0428 6E657765 		.ascii	"newer\000"
 3607      7200
 3608              	.LASF97:
 3609 042e 72747374 		.ascii	"rtstamp\000"
 3609      616D7000 
 3610              	.LASF47:
 3611 0436 7265616C 		.ascii	"realprio\000"
 3611      7072696F 
 3611      00
 3612              	.LASF129:
 3613 043f 76657273 		.ascii	"version\000"
 3613      696F6E00 
 3614              	.LASF23:
 3615 0447 7274636E 		.ascii	"rtcnt_t\000"
 3615      745F7400 
 3616              	.LASF50:
 3617 044f 74687265 		.ascii	"thread_reference_t\000"
 3617      61645F72 
 3617      65666572 
 3617      656E6365 
ARM GAS  C:\Users\RAKIBU~1\AppData\Local\Temp\ccje4zNc.s 			page 68


 3617      5F7400
 3618              	.LASF67:
 3619 0462 63685F76 		.ascii	"ch_virtual_timers_list\000"
 3619      69727475 
 3619      616C5F74 
 3619      696D6572 
 3619      735F6C69 
 3620              	.LASF11:
 3621 0479 6C6F6E67 		.ascii	"long double\000"
 3621      20646F75 
 3621      626C6500 
 3622              	.LASF160:
 3623 0485 63685F64 		.ascii	"ch_dyn_list\000"
 3623      796E5F6C 
 3623      69737400 
 3624              	.LASF181:
 3625 0491 66665F75 		.ascii	"ff_uni2oem\000"
 3625      6E69326F 
 3625      656D00
 3626              	.LASF135:
 3627 049c 6F66665F 		.ascii	"off_newer\000"
 3627      6E657765 
 3627      7200
 3628              	.LASF4:
 3629 04a6 574F5244 		.ascii	"WORD\000"
 3629      00
 3630              	.LASF89:
 3631 04ab 706F7274 		.ascii	"port_context\000"
 3631      5F636F6E 
 3631      74657874 
 3631      00
 3632              	.LASF105:
 3633 04b8 746D5F63 		.ascii	"tm_calibration_t\000"
 3633      616C6962 
 3633      72617469 
 3633      6F6E5F74 
 3633      00
 3634              	.LASF178:
 3635 04c9 474E5520 		.ascii	"GNU C11 7.2.1 20170904 (release) [ARM/embedded-7-br"
 3635      43313120 
 3635      372E322E 
 3635      31203230 
 3635      31373039 
 3636 04fc 616E6368 		.ascii	"anch revision 255204] -mcpu=cortex-m4 -mthumb -ggdb"
 3636      20726576 
 3636      6973696F 
 3636      6E203235 
 3636      35323034 
 3637 052f 202D4F67 		.ascii	" -Og -fomit-frame-pointer -falign-functions=16\000"
 3637      202D666F 
 3637      6D69742D 
 3637      6672616D 
 3637      652D706F 
 3638              	.LASF98:
 3639 055e 74696D65 		.ascii	"time\000"
 3639      00
 3640              	.LASF35:
ARM GAS  C:\Users\RAKIBU~1\AppData\Local\Temp\ccje4zNc.s 			page 69


 3641 0563 7072696F 		.ascii	"prio\000"
 3641      00
 3642              	.LASF167:
 3643 0568 73656D5F 		.ascii	"sem_pool\000"
 3643      706F6F6C 
 3643      00
 3644              	.LASF60:
 3645 0571 63757272 		.ascii	"current\000"
 3645      656E7400 
 3646              	.LASF17:
 3647 0579 5F5F7569 		.ascii	"__uint64_t\000"
 3647      6E743634 
 3647      5F7400
 3648              	.LASF151:
 3649 0584 6D656D63 		.ascii	"memcore_t\000"
 3649      6F72655F 
 3649      7400
 3650              	.LASF109:
 3651 058e 63756D75 		.ascii	"cumulative\000"
 3651      6C617469 
 3651      766500
 3652              	.LASF174:
 3653 0599 63767431 		.ascii	"cvt1\000"
 3653      00
 3654              	.LASF175:
 3655 059e 63767432 		.ascii	"cvt2\000"
 3655      00
 3656              	.LASF27:
 3657 05a3 74726566 		.ascii	"trefs_t\000"
 3657      735F7400 
 3658              	.LASF132:
 3659 05ab 74687265 		.ascii	"threadsize\000"
 3659      61647369 
 3659      7A6500
 3660              	.LASF42:
 3661 05b6 72656673 		.ascii	"refs\000"
 3661      00
 3662              	.LASF62:
 3663 05bb 76697274 		.ascii	"virtual_timer_t\000"
 3663      75616C5F 
 3663      74696D65 
 3663      725F7400 
 3664              	.LASF95:
 3665 05cb 75736572 		.ascii	"user\000"
 3665      00
 3666              	.LASF28:
 3667 05d0 74707269 		.ascii	"tprio_t\000"
 3667      6F5F7400 
 3668              	.LASF165:
 3669 05d8 6275665F 		.ascii	"buf_list\000"
 3669      6C697374 
 3669      00
 3670              	.LASF112:
 3671 05e1 6E5F6374 		.ascii	"n_ctxswc\000"
 3671      78737763 
 3671      00
 3672              	.LASF147:
ARM GAS  C:\Users\RAKIBU~1\AppData\Local\Temp\ccje4zNc.s 			page 70


 3673 05ea 5F426F6F 		.ascii	"_Bool\000"
 3673      6C00
 3674              	.LASF20:
 3675 05f0 696E7433 		.ascii	"int32_t\000"
 3675      325F7400 
 3676              	.LASF1:
 3677 05f8 756E7369 		.ascii	"unsigned char\000"
 3677      676E6564 
 3677      20636861 
 3677      7200
 3678              	.LASF133:
 3679 0606 6F66665F 		.ascii	"off_prio\000"
 3679      7072696F 
 3679      00
 3680              	.LASF138:
 3681 060f 6F66665F 		.ascii	"off_stklimit\000"
 3681      73746B6C 
 3681      696D6974 
 3681      00
 3682              	.LASF2:
 3683 061c 73686F72 		.ascii	"short int\000"
 3683      7420696E 
 3683      7400
 3684              	.LASF68:
 3685 0626 6C617374 		.ascii	"lasttime\000"
 3685      74696D65 
 3685      00
 3686              	.LASF94:
 3687 062f 68616C74 		.ascii	"halt\000"
 3687      00
 3688              	.LASF122:
 3689 0634 65776D61 		.ascii	"ewmask\000"
 3689      736B00
 3690              	.LASF76:
 3691 063b 63685F73 		.ascii	"ch_system\000"
 3691      79737465 
 3691      6D00
 3692              	.LASF164:
 3693 0645 6F626A5F 		.ascii	"obj_pool\000"
 3693      706F6F6C 
 3693      00
 3694              	.LASF93:
 3695 064e 72656173 		.ascii	"reason\000"
 3695      6F6E00
 3696              	.LASF63:
 3697 0655 63685F76 		.ascii	"ch_virtual_timer\000"
 3697      69727475 
 3697      616C5F74 
 3697      696D6572 
 3697      00
 3698              	.LASF123:
 3699 0666 63685F73 		.ascii	"ch_semaphore\000"
 3699      656D6170 
 3699      686F7265 
 3699      00
 3700              	.LASF143:
 3701 0673 6F66665F 		.ascii	"off_time\000"
ARM GAS  C:\Users\RAKIBU~1\AppData\Local\Temp\ccje4zNc.s 			page 71


 3701      74696D65 
 3701      00
 3702              	.LASF126:
 3703 067c 63685F69 		.ascii	"ch_idle_thread_wa\000"
 3703      646C655F 
 3703      74687265 
 3703      61645F77 
 3703      6100
 3704              	.LASF131:
 3705 068e 74696D65 		.ascii	"timesize\000"
 3705      73697A65 
 3705      00
 3706              	.LASF170:
 3707 0697 70697065 		.ascii	"pipe_list\000"
 3707      5F6C6973 
 3707      7400
 3708              	.LASF21:
 3709 06a1 75696E74 		.ascii	"uint32_t\000"
 3709      33325F74 
 3709      00
 3710              	.LASF121:
 3711 06aa 77746D74 		.ascii	"wtmtxp\000"
 3711      787000
 3712              	.LASF53:
 3713 06b1 63685F74 		.ascii	"ch_threads_list\000"
 3713      68726561 
 3713      64735F6C 
 3713      69737400 
 3714              	.LASF125:
 3715 06c1 6F776E65 		.ascii	"owner\000"
 3715      7200
 3716              	.LASF7:
 3717 06c7 6C6F6E67 		.ascii	"long unsigned int\000"
 3717      20756E73 
 3717      69676E65 
 3717      6420696E 
 3717      7400
 3718              	.LASF39:
 3719 06d9 77616261 		.ascii	"wabase\000"
 3719      736500
 3720              	.LASF92:
 3721 06e0 63686172 		.ascii	"char\000"
 3721      00
 3722              	.LASF37:
 3723 06e5 6F6C6465 		.ascii	"older\000"
 3723      7200
 3724              	.LASF163:
 3725 06eb 6F626A5F 		.ascii	"obj_list\000"
 3725      6C697374 
 3725      00
 3726              	.LASF14:
 3727 06f4 5F5F7569 		.ascii	"__uint16_t\000"
 3727      6E743136 
 3727      5F7400
 3728              	.LASF33:
 3729 06ff 74687265 		.ascii	"thread_t\000"
 3729      61645F74 
ARM GAS  C:\Users\RAKIBU~1\AppData\Local\Temp\ccje4zNc.s 			page 72


 3729      00
 3730              	.LASF106:
 3731 0708 62657374 		.ascii	"best\000"
 3731      00
 3732              	.LASF152:
 3733 070d 63685F6D 		.ascii	"ch_memcore\000"
 3733      656D636F 
 3733      726500
 3734              	.LASF81:
 3735 0718 73797374 		.ascii	"systime_t\000"
 3735      696D655F 
 3735      7400
 3736              	.LASF61:
 3737 0722 76746675 		.ascii	"vtfunc_t\000"
 3737      6E635F74 
 3737      00
 3738              	.LASF108:
 3739 072b 6C617374 		.ascii	"last\000"
 3739      00
 3740              	.LASF71:
 3741 0730 70616E69 		.ascii	"panic_msg\000"
 3741      635F6D73 
 3741      6700
 3742              	.LASF104:
 3743 073a 6F666673 		.ascii	"offset\000"
 3743      657400
 3744              	.LASF124:
 3745 0741 63685F6D 		.ascii	"ch_mutex\000"
 3745      75746578 
 3745      00
 3746              	.LASF136:
 3747 074a 6F66665F 		.ascii	"off_older\000"
 3747      6F6C6465 
 3747      7200
 3748              	.LASF3:
 3749 0754 73686F72 		.ascii	"short unsigned int\000"
 3749      7420756E 
 3749      7369676E 
 3749      65642069 
 3749      6E7400
 3750              	.LASF148:
 3751 0767 6D656D67 		.ascii	"memgetfunc_t\000"
 3751      65746675 
 3751      6E635F74 
 3751      00
 3752              	.LASF154:
 3753 0774 6F626A65 		.ascii	"object_size\000"
 3753      63745F73 
 3753      697A6500 
 3754              	.LASF130:
 3755 0780 70747273 		.ascii	"ptrsize\000"
 3755      697A6500 
 3756              	.LASF162:
 3757 0788 63685F6F 		.ascii	"ch_objects_factory\000"
 3757      626A6563 
 3757      74735F66 
 3757      6163746F 
ARM GAS  C:\Users\RAKIBU~1\AppData\Local\Temp\ccje4zNc.s 			page 73


 3757      727900
 3758              	.LASF55:
 3759 079b 74687265 		.ascii	"threads_queue_t\000"
 3759      6164735F 
 3759      71756575 
 3759      655F7400 
 3760              	.LASF153:
 3761 07ab 706F6F6C 		.ascii	"pool_header\000"
 3761      5F686561 
 3761      64657200 
 3762              	.LASF72:
 3763 07b7 6973725F 		.ascii	"isr_cnt\000"
 3763      636E7400 
 3764              	.LASF137:
 3765 07bf 6F66665F 		.ascii	"off_name\000"
 3765      6E616D65 
 3765      00
 3766              	.LASF177:
 3767 07c8 66665F6F 		.ascii	"ff_oem2uni\000"
 3767      656D3275 
 3767      6E6900
 3768              	.LASF18:
 3769 07d3 75696E74 		.ascii	"uint8_t\000"
 3769      385F7400 
 3770              	.LASF41:
 3771 07db 666C6167 		.ascii	"flags\000"
 3771      7300
 3772              	.LASF169:
 3773 07e1 6669666F 		.ascii	"fifo_list\000"
 3773      5F6C6973 
 3773      7400
 3774              	.LASF91:
 3775 07eb 77746F62 		.ascii	"wtobjp\000"
 3775      6A7000
 3776              	.LASF5:
 3777 07f2 57434841 		.ascii	"WCHAR\000"
 3777      5200
 3778              	.LASF51:
 3779 07f8 74687265 		.ascii	"threads_list_t\000"
 3779      6164735F 
 3779      6C697374 
 3779      5F7400
 3780              	.LASF139:
 3781 0807 6F66665F 		.ascii	"off_state\000"
 3781      73746174 
 3781      6500
 3782              	.LASF74:
 3783 0811 74726163 		.ascii	"trace_buffer\000"
 3783      655F6275 
 3783      66666572 
 3783      00
 3784              	.LASF171:
 3785 081e 6F626A65 		.ascii	"objects_factory_t\000"
 3785      6374735F 
 3785      66616374 
 3785      6F72795F 
 3785      7400
ARM GAS  C:\Users\RAKIBU~1\AppData\Local\Temp\ccje4zNc.s 			page 74


 3786              	.LASF140:
 3787 0830 6F66665F 		.ascii	"off_flags\000"
 3787      666C6167 
 3787      7300
 3788              	.LASF46:
 3789 083a 6D74786C 		.ascii	"mtxlist\000"
 3789      69737400 
 3790              	.LASF113:
 3791 0842 6D5F6372 		.ascii	"m_crit_thd\000"
 3791      69745F74 
 3791      686400
 3792              	.LASF149:
 3793 084d 6E657874 		.ascii	"nextmem\000"
 3793      6D656D00 
 3794              		.ident	"GCC: (GNU Tools for Arm Embedded Processors 7-2017-q4-major) 7.2.1 20170904 (release) [ARM
ARM GAS  C:\Users\RAKIBU~1\AppData\Local\Temp\ccje4zNc.s 			page 75


DEFINED SYMBOLS
                            *ABS*:00000000 ffunicode.c
C:\Users\RAKIBU~1\AppData\Local\Temp\ccje4zNc.s:15     .text:00000000 $t
C:\Users\RAKIBU~1\AppData\Local\Temp\ccje4zNc.s:23     .text:00000000 ff_uni2oem
C:\Users\RAKIBU~1\AppData\Local\Temp\ccje4zNc.s:76     .text:00000030 $d
C:\Users\RAKIBU~1\AppData\Local\Temp\ccje4zNc.s:80     .text:00000034 $t
C:\Users\RAKIBU~1\AppData\Local\Temp\ccje4zNc.s:88     .text:00000040 ff_oem2uni
C:\Users\RAKIBU~1\AppData\Local\Temp\ccje4zNc.s:131    .text:00000068 $d
C:\Users\RAKIBU~1\AppData\Local\Temp\ccje4zNc.s:135    .text:0000006c $t
C:\Users\RAKIBU~1\AppData\Local\Temp\ccje4zNc.s:143    .text:00000070 ff_wtoupper
C:\Users\RAKIBU~1\AppData\Local\Temp\ccje4zNc.s:232    .text:000000b4 $d
C:\Users\RAKIBU~1\AppData\Local\Temp\ccje4zNc.s:332    .text:00000104 $d
C:\Users\RAKIBU~1\AppData\Local\Temp\ccje4zNc.s:338    .rodata:00000000 $d
C:\Users\RAKIBU~1\AppData\Local\Temp\ccje4zNc.s:342    .rodata:00000000 uc850
C:\Users\RAKIBU~1\AppData\Local\Temp\ccje4zNc.s:473    .rodata:00000100 cvt2.7347
C:\Users\RAKIBU~1\AppData\Local\Temp\ccje4zNc.s:570    .rodata:000001bc cvt1.7346
C:\Users\RAKIBU~1\AppData\Local\Temp\ccje4zNc.s:241    .text:000000bd $d
C:\Users\RAKIBU~1\AppData\Local\Temp\ccje4zNc.s:241    .text:000000be $t

NO UNDEFINED SYMBOLS
