ARM GAS  C:\Users\RAKIBU~1\AppData\Local\Temp\ccpeBPSo.s 			page 1


   1              		.cpu cortex-m4
   2              		.eabi_attribute 20, 1
   3              		.eabi_attribute 21, 1
   4              		.eabi_attribute 23, 3
   5              		.eabi_attribute 24, 1
   6              		.eabi_attribute 25, 1
   7              		.eabi_attribute 26, 1
   8              		.eabi_attribute 30, 1
   9              		.eabi_attribute 34, 1
  10              		.eabi_attribute 18, 4
  11              		.file	"GPS.c"
  12              		.text
  13              	.Ltext0:
  14              		.cfi_sections	.debug_frame
  15              		.align	1
  16              		.p2align 4,,15
  17              		.global	gps_init
  18              		.syntax unified
  19              		.thumb
  20              		.thumb_func
  21              		.fpu softvfp
  22              		.type	gps_init, %function
  23              	gps_init:
  24              	.LFB329:
  25              		.file 1 "GPS.c"
  26              		.loc 1 105 0
  27              		.cfi_startproc
  28              		@ args = 0, pretend = 0, frame = 0
  29              		@ frame_needed = 0, uses_anonymous_args = 0
  30 0000 08B5     		push	{r3, lr}
  31              		.cfi_def_cfa_offset 8
  32              		.cfi_offset 3, -8
  33              		.cfi_offset 14, -4
  34              		.loc 1 106 0
  35 0002 0348     		ldr	r0, .L3
  36 0004 FFF7FEFF 		bl	chMtxObjectInit
  37              	.LVL0:
  38              	.LBB4:
  39              	.LBB5:
  40              		.file 2 "../../../ChibiOSRepo/chibios191/os/rt/include/chevents.h"
  41              		.loc 2 173 0
  42 0008 024B     		ldr	r3, .L3+4
  43 000a 1B60     		str	r3, [r3]
  44              	.LVL1:
  45              	.LBE5:
  46              	.LBE4:
  47              		.loc 1 108 0
  48 000c 08BD     		pop	{r3, pc}
  49              	.L4:
  50 000e 00BF     		.align	2
  51              	.L3:
  52 0010 00000000 		.word	gpsMutex
  53 0014 00000000 		.word	evtGPS
  54              		.cfi_endproc
  55              	.LFE329:
  56              		.size	gps_init, .-gps_init
  57              		.align	1
ARM GAS  C:\Users\RAKIBU~1\AppData\Local\Temp\ccpeBPSo.s 			page 2


  58 0018 AFF30080 		.p2align 4,,15
  58      AFF30080 
  59              		.global	gps_parse_sentence
  60              		.syntax unified
  61              		.thumb
  62              		.thumb_func
  63              		.fpu softvfp
  64              		.type	gps_parse_sentence, %function
  65              	gps_parse_sentence:
  66              	.LFB330:
  67              		.loc 1 114 0
  68              		.cfi_startproc
  69              		@ args = 0, pretend = 0, frame = 8
  70              		@ frame_needed = 0, uses_anonymous_args = 0
  71 0020 F0B5     		push	{r4, r5, r6, r7, lr}
  72              		.cfi_def_cfa_offset 20
  73              		.cfi_offset 4, -20
  74              		.cfi_offset 5, -16
  75              		.cfi_offset 6, -12
  76              		.cfi_offset 7, -8
  77              		.cfi_offset 14, -4
  78 0022 83B0     		sub	sp, sp, #12
  79              		.cfi_def_cfa_offset 32
  80              		.loc 1 116 0
  81 0024 4B4B     		ldr	r3, .L28
  82 0026 0193     		str	r3, [sp, #4]
  83              		.loc 1 117 0
  84 0028 A3F50133 		sub	r3, r3, #132096
  85 002c A3F20B23 		subw	r3, r3, #523
  86 0030 0093     		str	r3, [sp]
  87              		.loc 1 125 0
  88 0032 0322     		movs	r2, #3
  89 0034 01A9     		add	r1, sp, #4
  90 0036 4848     		ldr	r0, .L28+4
  91 0038 FFF7FEFF 		bl	strncmp
  92              	.LVL2:
  93 003c 48B1     		cbz	r0, .L19
  94              		.loc 1 184 0
  95 003e 0322     		movs	r2, #3
  96 0040 6946     		mov	r1, sp
  97 0042 4548     		ldr	r0, .L28+4
  98 0044 FFF7FEFF 		bl	strncmp
  99              	.LVL3:
 100 0048 0028     		cmp	r0, #0
 101 004a 6AD0     		beq	.L20
 102              	.L17:
 103              	.LVL4:
 104              		.loc 1 203 0
 105 004c 0020     		movs	r0, #0
 106 004e 03B0     		add	sp, sp, #12
 107              		.cfi_remember_state
 108              		.cfi_def_cfa_offset 20
 109              		@ sp needed
 110 0050 F0BD     		pop	{r4, r5, r6, r7, pc}
 111              	.LVL5:
 112              	.L19:
 113              		.cfi_restore_state
ARM GAS  C:\Users\RAKIBU~1\AppData\Local\Temp\ccpeBPSo.s 			page 3


 114              	.LBB6:
 115              		.loc 1 130 0
 116 0052 424F     		ldr	r7, .L28+8
 117 0054 424E     		ldr	r6, .L28+12
 118 0056 434C     		ldr	r4, .L28+16
 119 0058 3A88     		ldrh	r2, [r7]
 120 005a 3146     		mov	r1, r6
 121 005c 2046     		mov	r0, r4
 122 005e FFF7FEFF 		bl	strncpy
 123              	.LVL6:
 124              		.loc 1 131 0
 125 0062 414D     		ldr	r5, .L28+20
 126 0064 2846     		mov	r0, r5
 127 0066 FFF7FEFF 		bl	chMtxLock
 128              	.LVL7:
 129              		.loc 1 132 0
 130 006a 3A88     		ldrh	r2, [r7]
 131 006c 3146     		mov	r1, r6
 132 006e 3F48     		ldr	r0, .L28+24
 133 0070 FFF7FEFF 		bl	strncpy
 134              	.LVL8:
 135              		.loc 1 133 0
 136 0074 2846     		mov	r0, r5
 137 0076 FFF7FEFF 		bl	chMtxUnlock
 138              	.LVL9:
 139              		.loc 1 134 0
 140 007a 0121     		movs	r1, #1
 141 007c 3C48     		ldr	r0, .L28+28
 142 007e FFF7FEFF 		bl	chEvtBroadcastFlags
 143              	.LVL10:
 144              		.loc 1 139 0
 145 0082 2C21     		movs	r1, #44
 146 0084 2046     		mov	r0, r4
 147 0086 FFF7FEFF 		bl	strchr
 148              	.LVL11:
 149 008a 451C     		adds	r5, r0, #1
 150              	.LVL12:
 151              		.loc 1 138 0
 152 008c 0124     		movs	r4, #1
 153              		.loc 1 140 0
 154 008e 0FE0     		b	.L7
 155              	.LVL13:
 156              	.L22:
 157              		.loc 1 144 0
 158 0090 2B78     		ldrb	r3, [r5]	@ zero_extendqisi2
 159 0092 384A     		ldr	r2, .L28+32
 160 0094 1370     		strb	r3, [r2]
 161              		.loc 1 145 0
 162 0096 412B     		cmp	r3, #65
 163 0098 22D0     		beq	.L21
 164              		.loc 1 151 0
 165 009a 364B     		ldr	r3, .L28+32
 166 009c 0022     		movs	r2, #0
 167 009e 83F84520 		strb	r2, [r3, #69]
 168              	.L10:
 169              	.LVL14:
 170              		.loc 1 175 0
ARM GAS  C:\Users\RAKIBU~1\AppData\Local\Temp\ccpeBPSo.s 			page 4


 171 00a2 2C21     		movs	r1, #44
 172 00a4 2846     		mov	r0, r5
 173 00a6 FFF7FEFF 		bl	strchr
 174              	.LVL15:
 175 00aa 451C     		adds	r5, r0, #1
 176              	.LVL16:
 177              		.loc 1 176 0
 178 00ac 0134     		adds	r4, r4, #1
 179              	.LVL17:
 180 00ae E4B2     		uxtb	r4, r4
 181              	.LVL18:
 182              	.L7:
 183              		.loc 1 140 0
 184 00b0 092C     		cmp	r4, #9
 185 00b2 CBD8     		bhi	.L17
 186              		.loc 1 142 0
 187 00b4 022C     		cmp	r4, #2
 188 00b6 EBD0     		beq	.L22
 189              		.loc 1 156 0
 190 00b8 2E4B     		ldr	r3, .L28+32
 191 00ba 1B78     		ldrb	r3, [r3]	@ zero_extendqisi2
 192 00bc 412B     		cmp	r3, #65
 193 00be F0D1     		bne	.L10
 194              		.loc 1 158 0
 195 00c0 012C     		cmp	r4, #1
 196 00c2 12D0     		beq	.L23
 197              		.loc 1 160 0
 198 00c4 092C     		cmp	r4, #9
 199 00c6 16D0     		beq	.L24
 200              		.loc 1 162 0
 201 00c8 032C     		cmp	r4, #3
 202 00ca 1AD0     		beq	.L25
 203              		.loc 1 164 0
 204 00cc 052C     		cmp	r4, #5
 205 00ce 1ED0     		beq	.L26
 206              		.loc 1 166 0
 207 00d0 042C     		cmp	r4, #4
 208 00d2 22D0     		beq	.L27
 209              		.loc 1 168 0
 210 00d4 062C     		cmp	r4, #6
 211 00d6 E4D1     		bne	.L10
 212              		.loc 1 169 0
 213 00d8 2A78     		ldrb	r2, [r5]	@ zero_extendqisi2
 214 00da 264B     		ldr	r3, .L28+32
 215 00dc 9A76     		strb	r2, [r3, #26]
 216 00de E0E7     		b	.L10
 217              	.L21:
 218              		.loc 1 147 0
 219 00e0 1346     		mov	r3, r2
 220 00e2 0122     		movs	r2, #1
 221 00e4 83F84520 		strb	r2, [r3, #69]
 222 00e8 DBE7     		b	.L10
 223              	.L23:
 224              		.loc 1 159 0
 225 00ea 0922     		movs	r2, #9
 226 00ec 2946     		mov	r1, r5
 227 00ee 2248     		ldr	r0, .L28+36
ARM GAS  C:\Users\RAKIBU~1\AppData\Local\Temp\ccpeBPSo.s 			page 5


 228 00f0 FFF7FEFF 		bl	strncpy
 229              	.LVL19:
 230 00f4 D5E7     		b	.L10
 231              	.L24:
 232              		.loc 1 161 0
 233 00f6 0622     		movs	r2, #6
 234 00f8 2946     		mov	r1, r5
 235 00fa 2048     		ldr	r0, .L28+40
 236 00fc FFF7FEFF 		bl	strncpy
 237              	.LVL20:
 238 0100 CFE7     		b	.L10
 239              	.L25:
 240              		.loc 1 163 0
 241 0102 0A22     		movs	r2, #10
 242 0104 2946     		mov	r1, r5
 243 0106 1E48     		ldr	r0, .L28+44
 244 0108 FFF7FEFF 		bl	strncpy
 245              	.LVL21:
 246 010c C9E7     		b	.L10
 247              	.L26:
 248              		.loc 1 165 0
 249 010e 0A22     		movs	r2, #10
 250 0110 2946     		mov	r1, r5
 251 0112 1C48     		ldr	r0, .L28+48
 252 0114 FFF7FEFF 		bl	strncpy
 253              	.LVL22:
 254 0118 C3E7     		b	.L10
 255              	.L27:
 256              		.loc 1 167 0
 257 011a 2A78     		ldrb	r2, [r5]	@ zero_extendqisi2
 258 011c 154B     		ldr	r3, .L28+32
 259 011e 5A73     		strb	r2, [r3, #13]
 260 0120 BFE7     		b	.L10
 261              	.LVL23:
 262              	.L20:
 263              	.LBE6:
 264              		.loc 1 189 0
 265 0122 0E4E     		ldr	r6, .L28+8
 266 0124 0E4D     		ldr	r5, .L28+12
 267 0126 3288     		ldrh	r2, [r6]
 268 0128 2946     		mov	r1, r5
 269 012a 1748     		ldr	r0, .L28+52
 270 012c FFF7FEFF 		bl	strncpy
 271              	.LVL24:
 272              		.loc 1 190 0
 273 0130 0D4C     		ldr	r4, .L28+20
 274 0132 2046     		mov	r0, r4
 275 0134 FFF7FEFF 		bl	chMtxLock
 276              	.LVL25:
 277              		.loc 1 191 0
 278 0138 3288     		ldrh	r2, [r6]
 279 013a 2946     		mov	r1, r5
 280 013c 1348     		ldr	r0, .L28+56
 281 013e FFF7FEFF 		bl	strncpy
 282              	.LVL26:
 283              		.loc 1 192 0
 284 0142 2046     		mov	r0, r4
ARM GAS  C:\Users\RAKIBU~1\AppData\Local\Temp\ccpeBPSo.s 			page 6


 285 0144 FFF7FEFF 		bl	chMtxUnlock
 286              	.LVL27:
 287              		.loc 1 193 0
 288 0148 0221     		movs	r1, #2
 289 014a 0948     		ldr	r0, .L28+28
 290 014c FFF7FEFF 		bl	chEvtBroadcastFlags
 291              	.LVL28:
 292 0150 7CE7     		b	.L17
 293              	.L29:
 294 0152 00BF     		.align	2
 295              	.L28:
 296 0154 524D4300 		.word	4410706
 297 0158 03000000 		.word	tmp_GPS_buffer+3
 298 015c 00000000 		.word	.LANCHOR0
 299 0160 00000000 		.word	tmp_GPS_buffer
 300 0164 00000000 		.word	local_GPRMC
 301 0168 00000000 		.word	gpsMutex
 302 016c 00000000 		.word	global_GPRMC
 303 0170 00000000 		.word	evtGPS
 304 0174 00000000 		.word	gps_data
 305 0178 21000000 		.word	gps_data+33
 306 017c 2A000000 		.word	gps_data+42
 307 0180 01000000 		.word	gps_data+1
 308 0184 0E000000 		.word	gps_data+14
 309 0188 00000000 		.word	local_GPGGA
 310 018c 00000000 		.word	global_GPGGA
 311              		.cfi_endproc
 312              	.LFE330:
 313              		.size	gps_parse_sentence, .-gps_parse_sentence
 314              		.align	1
 315              		.p2align 4,,15
 316              		.global	hex_to_int
 317              		.syntax unified
 318              		.thumb
 319              		.thumb_func
 320              		.fpu softvfp
 321              		.type	hex_to_int, %function
 322              	hex_to_int:
 323              	.LFB332:
 324              		.loc 1 243 0
 325              		.cfi_startproc
 326              		@ args = 0, pretend = 0, frame = 0
 327              		@ frame_needed = 0, uses_anonymous_args = 0
 328              		@ link register save eliminated.
 329              	.LVL29:
 330              		.loc 1 245 0
 331 0190 A0F13003 		sub	r3, r0, #48
 332 0194 DBB2     		uxtb	r3, r3
 333 0196 092B     		cmp	r3, #9
 334 0198 17D9     		bls	.L41
 335              		.loc 1 251 0
 336 019a 4138     		subs	r0, r0, #65
 337              	.LVL30:
 338 019c 2528     		cmp	r0, #37
 339 019e 21D8     		bhi	.L33
 340 01a0 DFE800F0 		tbb	[pc, r0]
 341              	.L35:
ARM GAS  C:\Users\RAKIBU~1\AppData\Local\Temp\ccpeBPSo.s 			page 7


 342 01a4 16       		.byte	(.L34-.L35)/2
 343 01a5 22       		.byte	(.L40-.L35)/2
 344 01a6 18       		.byte	(.L36-.L35)/2
 345 01a7 1A       		.byte	(.L37-.L35)/2
 346 01a8 1C       		.byte	(.L38-.L35)/2
 347 01a9 1E       		.byte	(.L39-.L35)/2
 348 01aa 20       		.byte	(.L33-.L35)/2
 349 01ab 20       		.byte	(.L33-.L35)/2
 350 01ac 20       		.byte	(.L33-.L35)/2
 351 01ad 20       		.byte	(.L33-.L35)/2
 352 01ae 20       		.byte	(.L33-.L35)/2
 353 01af 20       		.byte	(.L33-.L35)/2
 354 01b0 20       		.byte	(.L33-.L35)/2
 355 01b1 20       		.byte	(.L33-.L35)/2
 356 01b2 20       		.byte	(.L33-.L35)/2
 357 01b3 20       		.byte	(.L33-.L35)/2
 358 01b4 20       		.byte	(.L33-.L35)/2
 359 01b5 20       		.byte	(.L33-.L35)/2
 360 01b6 20       		.byte	(.L33-.L35)/2
 361 01b7 20       		.byte	(.L33-.L35)/2
 362 01b8 20       		.byte	(.L33-.L35)/2
 363 01b9 20       		.byte	(.L33-.L35)/2
 364 01ba 20       		.byte	(.L33-.L35)/2
 365 01bb 20       		.byte	(.L33-.L35)/2
 366 01bc 20       		.byte	(.L33-.L35)/2
 367 01bd 20       		.byte	(.L33-.L35)/2
 368 01be 20       		.byte	(.L33-.L35)/2
 369 01bf 20       		.byte	(.L33-.L35)/2
 370 01c0 20       		.byte	(.L33-.L35)/2
 371 01c1 20       		.byte	(.L33-.L35)/2
 372 01c2 20       		.byte	(.L33-.L35)/2
 373 01c3 20       		.byte	(.L33-.L35)/2
 374 01c4 16       		.byte	(.L34-.L35)/2
 375 01c5 22       		.byte	(.L40-.L35)/2
 376 01c6 18       		.byte	(.L36-.L35)/2
 377 01c7 1A       		.byte	(.L37-.L35)/2
 378 01c8 1C       		.byte	(.L38-.L35)/2
 379 01c9 1E       		.byte	(.L39-.L35)/2
 380              	.LVL31:
 381              		.p2align 1
 382              	.L41:
 383              		.loc 1 247 0
 384 01ca 3038     		subs	r0, r0, #48
 385              	.LVL32:
 386              	.L32:
 387              		.loc 1 263 0
 388 01cc C0B2     		uxtb	r0, r0
 389              	.LVL33:
 390 01ce 7047     		bx	lr
 391              	.LVL34:
 392              	.L34:
 393              		.loc 1 253 0
 394 01d0 0A20     		movs	r0, #10
 395 01d2 FBE7     		b	.L32
 396              	.L36:
 397              	.LVL35:
 398              		.loc 1 255 0
ARM GAS  C:\Users\RAKIBU~1\AppData\Local\Temp\ccpeBPSo.s 			page 8


 399 01d4 0C20     		movs	r0, #12
 400 01d6 F9E7     		b	.L32
 401              	.LVL36:
 402              	.L37:
 403              		.loc 1 256 0
 404 01d8 0D20     		movs	r0, #13
 405 01da F7E7     		b	.L32
 406              	.LVL37:
 407              	.L38:
 408              		.loc 1 257 0
 409 01dc 0E20     		movs	r0, #14
 410 01de F5E7     		b	.L32
 411              	.LVL38:
 412              	.L39:
 413              		.loc 1 258 0
 414 01e0 0F20     		movs	r0, #15
 415 01e2 F3E7     		b	.L32
 416              	.LVL39:
 417              	.L33:
 418              		.loc 1 259 0
 419 01e4 0020     		movs	r0, #0
 420 01e6 F1E7     		b	.L32
 421              	.L40:
 422              		.loc 1 254 0
 423 01e8 0B20     		movs	r0, #11
 424 01ea EFE7     		b	.L32
 425              		.cfi_endproc
 426              	.LFE332:
 427              		.size	hex_to_int, .-hex_to_int
 428              		.align	1
 429 01ec AFF30080 		.p2align 4,,15
 430              		.global	gps_test_checksum
 431              		.syntax unified
 432              		.thumb
 433              		.thumb_func
 434              		.fpu softvfp
 435              		.type	gps_test_checksum, %function
 436              	gps_test_checksum:
 437              	.LFB331:
 438              		.loc 1 211 0
 439              		.cfi_startproc
 440              		@ args = 0, pretend = 0, frame = 0
 441              		@ frame_needed = 0, uses_anonymous_args = 0
 442 01f0 F8B5     		push	{r3, r4, r5, r6, r7, lr}
 443              		.cfi_def_cfa_offset 24
 444              		.cfi_offset 3, -24
 445              		.cfi_offset 4, -20
 446              		.cfi_offset 5, -16
 447              		.cfi_offset 6, -12
 448              		.cfi_offset 7, -8
 449              		.cfi_offset 14, -4
 450              	.LVL40:
 451              		.loc 1 214 0
 452 01f2 0024     		movs	r4, #0
 453              		.loc 1 216 0
 454 01f4 0123     		movs	r3, #1
 455 01f6 04E0     		b	.L43
ARM GAS  C:\Users\RAKIBU~1\AppData\Local\Temp\ccpeBPSo.s 			page 9


 456              	.LVL41:
 457              	.L44:
 458              		.loc 1 218 0 discriminator 3
 459 01f8 0E4A     		ldr	r2, .L48
 460 01fa D25C     		ldrb	r2, [r2, r3]	@ zero_extendqisi2
 461 01fc 5440     		eors	r4, r4, r2
 462              	.LVL42:
 463              		.loc 1 216 0 discriminator 3
 464 01fe 0133     		adds	r3, r3, #1
 465              	.LVL43:
 466 0200 DBB2     		uxtb	r3, r3
 467              	.LVL44:
 468              	.L43:
 469              		.loc 1 216 0 is_stmt 0 discriminator 1
 470 0202 1D46     		mov	r5, r3
 471 0204 0C4A     		ldr	r2, .L48+4
 472 0206 1288     		ldrh	r2, [r2]
 473 0208 043A     		subs	r2, r2, #4
 474 020a 9342     		cmp	r3, r2
 475 020c F4DB     		blt	.L44
 476              		.loc 1 220 0 is_stmt 1
 477 020e 0133     		adds	r3, r3, #1
 478              	.LVL45:
 479 0210 084F     		ldr	r7, .L48
 480 0212 F85C     		ldrb	r0, [r7, r3]	@ zero_extendqisi2
 481 0214 FFF7FEFF 		bl	hex_to_int
 482              	.LVL46:
 483 0218 0001     		lsls	r0, r0, #4
 484 021a C6B2     		uxtb	r6, r0
 485 021c 0235     		adds	r5, r5, #2
 486 021e 785D     		ldrb	r0, [r7, r5]	@ zero_extendqisi2
 487 0220 FFF7FEFF 		bl	hex_to_int
 488              	.LVL47:
 489 0224 3044     		add	r0, r0, r6
 490 0226 C0B2     		uxtb	r0, r0
 491              	.LVL48:
 492              		.loc 1 226 0
 493 0228 8442     		cmp	r4, r0
 494 022a 01D1     		bne	.L46
 495              		.loc 1 228 0
 496 022c 0020     		movs	r0, #0
 497              	.LVL49:
 498              	.L45:
 499              		.loc 1 236 0
 500 022e F8BD     		pop	{r3, r4, r5, r6, r7, pc}
 501              	.LVL50:
 502              	.L46:
 503              		.loc 1 232 0
 504 0230 0420     		movs	r0, #4
 505              	.LVL51:
 506 0232 FCE7     		b	.L45
 507              	.L49:
 508              		.align	2
 509              	.L48:
 510 0234 00000000 		.word	tmp_GPS_buffer
 511 0238 00000000 		.word	.LANCHOR0
 512              		.cfi_endproc
ARM GAS  C:\Users\RAKIBU~1\AppData\Local\Temp\ccpeBPSo.s 			page 10


 513              	.LFE331:
 514              		.size	gps_test_checksum, .-gps_test_checksum
 515              		.align	1
 516 023c AFF30080 		.p2align 4,,15
 517              		.global	GPSParseChar
 518              		.syntax unified
 519              		.thumb
 520              		.thumb_func
 521              		.fpu softvfp
 522              		.type	GPSParseChar, %function
 523              	GPSParseChar:
 524              	.LFB328:
 525              		.loc 1 45 0
 526              		.cfi_startproc
 527              		@ args = 0, pretend = 0, frame = 0
 528              		@ frame_needed = 0, uses_anonymous_args = 0
 529              	.LVL52:
 530 0240 10B5     		push	{r4, lr}
 531              		.cfi_def_cfa_offset 8
 532              		.cfi_offset 4, -8
 533              		.cfi_offset 14, -4
 534              	.LVL53:
 535              		.loc 1 47 0
 536 0242 1C49     		ldr	r1, .L64
 537 0244 0B88     		ldrh	r3, [r1]
 538 0246 1C4A     		ldr	r2, .L64+4
 539 0248 D054     		strb	r0, [r2, r3]
 540              		.loc 1 48 0
 541 024a 0133     		adds	r3, r3, #1
 542 024c 9BB2     		uxth	r3, r3
 543 024e 0B80     		strh	r3, [r1]	@ movhi
 544 0250 0021     		movs	r1, #0
 545 0252 D154     		strb	r1, [r2, r3]
 546              		.loc 1 52 0
 547 0254 632B     		cmp	r3, #99
 548 0256 07D8     		bhi	.L61
 549              		.loc 1 59 0
 550 0258 0D28     		cmp	r0, #13
 551 025a 17D0     		beq	.L53
 552 025c 2428     		cmp	r0, #36
 553 025e 08D0     		beq	.L54
 554 0260 0A28     		cmp	r0, #10
 555 0262 13D0     		beq	.L53
 556              		.loc 1 46 0
 557 0264 0024     		movs	r4, #0
 558 0266 02E0     		b	.L52
 559              	.L61:
 560              	.LVL54:
 561              		.loc 1 55 0
 562 0268 124B     		ldr	r3, .L64
 563 026a 1980     		strh	r1, [r3]	@ movhi
 564              		.loc 1 56 0
 565 026c 0324     		movs	r4, #3
 566              	.LVL55:
 567              	.L52:
 568              		.loc 1 102 0
 569 026e 2046     		mov	r0, r4
ARM GAS  C:\Users\RAKIBU~1\AppData\Local\Temp\ccpeBPSo.s 			page 11


 570 0270 10BD     		pop	{r4, pc}
 571              	.LVL56:
 572              	.L54:
 573              		.loc 1 63 0
 574 0272 012B     		cmp	r3, #1
 575 0274 01D1     		bne	.L62
 576              		.loc 1 46 0
 577 0276 0024     		movs	r4, #0
 578 0278 F9E7     		b	.L52
 579              	.L62:
 580              	.LVL57:
 581              		.loc 1 67 0
 582 027a 0E4B     		ldr	r3, .L64
 583 027c 0122     		movs	r2, #1
 584 027e 1A80     		strh	r2, [r3]	@ movhi
 585 0280 0D4B     		ldr	r3, .L64+4
 586 0282 1870     		strb	r0, [r3]
 587              		.loc 1 68 0
 588 0284 0022     		movs	r2, #0
 589 0286 5A70     		strb	r2, [r3, #1]
 590              		.loc 1 69 0
 591 0288 0624     		movs	r4, #6
 592 028a F0E7     		b	.L52
 593              	.LVL58:
 594              	.L53:
 595              		.loc 1 75 0
 596 028c 012B     		cmp	r3, #1
 597 028e 04D8     		bhi	.L63
 598              		.loc 1 46 0
 599 0290 0024     		movs	r4, #0
 600              	.LVL59:
 601              	.L55:
 602              		.loc 1 96 0
 603 0292 084B     		ldr	r3, .L64
 604 0294 0022     		movs	r2, #0
 605 0296 1A80     		strh	r2, [r3]	@ movhi
 606              		.loc 1 97 0
 607 0298 E9E7     		b	.L52
 608              	.LVL60:
 609              	.L63:
 610              		.loc 1 79 0
 611 029a 013B     		subs	r3, r3, #1
 612 029c 064A     		ldr	r2, .L64+4
 613 029e 0021     		movs	r1, #0
 614 02a0 D154     		strb	r1, [r2, r3]
 615              		.loc 1 85 0
 616 02a2 FFF7FEFF 		bl	gps_test_checksum
 617              	.LVL61:
 618              		.loc 1 86 0
 619 02a6 0446     		mov	r4, r0
 620 02a8 0028     		cmp	r0, #0
 621 02aa E0D1     		bne	.L52
 622              		.loc 1 89 0
 623 02ac FFF7FEFF 		bl	gps_parse_sentence
 624              	.LVL62:
 625 02b0 EFE7     		b	.L55
 626              	.L65:
ARM GAS  C:\Users\RAKIBU~1\AppData\Local\Temp\ccpeBPSo.s 			page 12


 627 02b2 00BF     		.align	2
 628              	.L64:
 629 02b4 00000000 		.word	.LANCHOR0
 630 02b8 00000000 		.word	tmp_GPS_buffer
 631              		.cfi_endproc
 632              	.LFE328:
 633              		.size	GPSParseChar, .-GPSParseChar
 634              		.global	tmp_buffer_index
 635              		.comm	local_GPGGA,100,4
 636              		.comm	local_GPRMC,100,4
 637              		.comm	gpsMutex,16,4
 638              		.comm	gps_data,70,4
 639              		.comm	global_GPS_STATUS,1,1
 640              		.comm	global_LON,4,4
 641              		.comm	global_LAT,4,4
 642              		.comm	evtGPS,4,4
 643              		.comm	tmp_GPS_buffer,100,4
 644              		.comm	global_GPGGA,100,4
 645              		.comm	global_GPRMC,100,4
 646              		.bss
 647              		.align	1
 648              		.set	.LANCHOR0,. + 0
 649              		.type	tmp_buffer_index, %object
 650              		.size	tmp_buffer_index, 2
 651              	tmp_buffer_index:
 652 0000 0000     		.space	2
 653              		.text
 654              	.Letext0:
 655              		.file 3 "c:\\chibistudio\\tools\\gnu tools arm embedded\\7.0 2017q4\\lib\\gcc\\arm-none-eabi\\7.2.
 656              		.file 4 "c:\\chibistudio\\tools\\gnu tools arm embedded\\7.0 2017q4\\arm-none-eabi\\include\\machi
 657              		.file 5 "c:\\chibistudio\\tools\\gnu tools arm embedded\\7.0 2017q4\\arm-none-eabi\\include\\sys\\
 658              		.file 6 "c:\\chibistudio\\tools\\gnu tools arm embedded\\7.0 2017q4\\arm-none-eabi\\include\\sys\\
 659              		.file 7 "c:\\chibistudio\\tools\\gnu tools arm embedded\\7.0 2017q4\\arm-none-eabi\\include\\sys\\
 660              		.file 8 "c:\\chibistudio\\tools\\gnu tools arm embedded\\7.0 2017q4\\arm-none-eabi\\include\\stdli
 661              		.file 9 "c:\\chibistudio\\tools\\gnu tools arm embedded\\7.0 2017q4\\arm-none-eabi\\include\\sys\\
 662              		.file 10 "c:\\chibistudio\\tools\\gnu tools arm embedded\\7.0 2017q4\\arm-none-eabi\\include\\stdi
 663              		.file 11 "../../../ChibiOSRepo/chibios191/os/common/ports/ARMCMx/compilers/GCC/chtypes.h"
 664              		.file 12 "../../../ChibiOSRepo/chibios191/os/rt/include/chsystypes.h"
 665              		.file 13 "../../../ChibiOSRepo/chibios191/os/rt/include/chschd.h"
 666              		.file 14 "../../../ChibiOSRepo/chibios191/os/rt/include/chtime.h"
 667              		.file 15 "../../../ChibiOSRepo/chibios191/os/common/ext/ARM/CMSIS/Core/Include/core_cm4.h"
 668              		.file 16 "../../../ChibiOSRepo/chibios191/os/common/ext/ST/STM32F4xx/system_stm32f4xx.h"
 669              		.file 17 "../../../ChibiOSRepo/chibios191/os/common/ext/ST/STM32F4xx/stm32f407xx.h"
 670              		.file 18 "../../../ChibiOSRepo/chibios191/os/common/ports/ARMCMx/chcore.h"
 671              		.file 19 "../../../ChibiOSRepo/chibios191/os/common/ports/ARMCMx/chcore_v7m.h"
 672              		.file 20 "../../../ChibiOSRepo/chibios191/os/hal/ports/STM32/LLD/TIMv1/stm32_tim.h"
 673              		.file 21 "../../../ChibiOSRepo/chibios191/os/rt/include/chtrace.h"
 674              		.file 22 "../../../ChibiOSRepo/chibios191/os/rt/include/chtm.h"
 675              		.file 23 "../../../ChibiOSRepo/chibios191/os/rt/include/chstats.h"
 676              		.file 24 "../../../ChibiOSRepo/chibios191/os/rt/include/chsem.h"
 677              		.file 25 "../../../ChibiOSRepo/chibios191/os/rt/include/chmtx.h"
 678              		.file 26 "../../../ChibiOSRepo/chibios191/os/rt/include/chsys.h"
 679              		.file 27 "../../../ChibiOSRepo/chibios191/os/rt/include/chregistry.h"
 680              		.file 28 "../../../ChibiOSRepo/chibios191/os/oslib/include/chmemcore.h"
 681              		.file 29 "../../../ChibiOSRepo/chibios191/os/oslib/include/chmempools.h"
 682              		.file 30 "../../../ChibiOSRepo/chibios191/os/oslib/include/chfactory.h"
 683              		.file 31 "../../../ChibiOSRepo/chibios191/os/hal/ports/STM32/LLD/DMAv2/stm32_dma.h"
ARM GAS  C:\Users\RAKIBU~1\AppData\Local\Temp\ccpeBPSo.s 			page 13


 684              		.file 32 "../../../ChibiOSRepo/chibios191/os/hal/include/hal_ioblock.h"
 685              		.file 33 "../../../ChibiOSRepo/chibios191/os/hal/include/hal_persistent.h"
 686              		.file 34 "../../../ChibiOSRepo/chibios191/os/hal/include/hal_queues.h"
 687              		.file 35 "../../../ChibiOSRepo/chibios191/os/hal/include/hal_pal.h"
 688              		.file 36 "../../../ChibiOSRepo/chibios191/os/hal/ports/STM32/LLD/GPIOv2/stm32_gpio.h"
 689              		.file 37 "../../../ChibiOSRepo/chibios191/os/hal/ports/STM32/LLD/GPIOv2/hal_pal_lld.h"
 690              		.file 38 "../../../ChibiOSRepo/chibios191/os/hal/include/hal_gpt.h"
 691              		.file 39 "../../../ChibiOSRepo/chibios191/os/hal/ports/STM32/LLD/TIMv1/hal_gpt_lld.h"
 692              		.file 40 "../../../ChibiOSRepo/chibios191/os/hal/include/hal_i2c.h"
 693              		.file 41 "../../../ChibiOSRepo/chibios191/os/hal/ports/STM32/LLD/I2Cv1/hal_i2c_lld.h"
 694              		.file 42 "c:\\chibistudio\\tools\\gnu tools arm embedded\\7.0 2017q4\\arm-none-eabi\\include\\time
 695              		.file 43 "../../../ChibiOSRepo/chibios191/os/hal/include/hal_rtc.h"
 696              		.file 44 "../../../ChibiOSRepo/chibios191/os/hal/ports/STM32/LLD/RTCv2/hal_rtc_lld.h"
 697              		.file 45 "../../../ChibiOSRepo/chibios191/os/hal/include/hal_serial.h"
 698              		.file 46 "../../../ChibiOSRepo/chibios191/os/hal/ports/STM32/LLD/USARTv1/hal_serial_lld.h"
 699              		.file 47 "../../../ChibiOSRepo/chibios191/os/hal/include/hal_sdc.h"
 700              		.file 48 "../../../ChibiOSRepo/chibios191/os/hal/ports/STM32/LLD/SDIOv1/hal_sdc_lld.h"
 701              		.file 49 "../../../ChibiOSRepo/chibios191/os/hal/include/hal_spi.h"
 702              		.file 50 "../../../ChibiOSRepo/chibios191/os/hal/ports/STM32/LLD/SPIv1/hal_spi_lld.h"
 703              		.file 51 "GPS.h"
 704              		.file 52 "c:\\chibistudio\\tools\\gnu tools arm embedded\\7.0 2017q4\\arm-none-eabi\\include\\stri