ARM GAS  C:\Users\RAKIBU~1\AppData\Local\Temp\cc9gl9i2.s 			page 1


   1              		.cpu cortex-m4
   2              		.eabi_attribute 20, 1
   3              		.eabi_attribute 21, 1
   4              		.eabi_attribute 23, 3
   5              		.eabi_attribute 24, 1
   6              		.eabi_attribute 25, 1
   7              		.eabi_attribute 26, 1
   8              		.eabi_attribute 30, 1
   9              		.eabi_attribute 34, 1
  10              		.eabi_attribute 18, 4
  11              		.file	"hal_i2c_lld.c"
  12              		.text
  13              	.Ltext0:
  14              		.cfi_sections	.debug_frame
  15              		.align	1
  16              		.p2align 4,,15
  17              		.syntax unified
  18              		.thumb
  19              		.thumb_func
  20              		.fpu softvfp
  21              		.type	i2c_lld_abort_operation, %function
  22              	i2c_lld_abort_operation:
  23              	.LFB328:
  24              		.file 1 "../../../ChibiOSRepo/chibios191/os/hal/ports/STM32/LLD/I2Cv1/hal_i2c_lld.c"
  25              		.loc 1 125 0
  26              		.cfi_startproc
  27              		@ args = 0, pretend = 0, frame = 0
  28              		@ frame_needed = 0, uses_anonymous_args = 0
  29              		@ link register save eliminated.
  30              	.LVL0:
  31              		.loc 1 126 0
  32 0000 436B     		ldr	r3, [r0, #52]
  33              	.LVL1:
  34              		.loc 1 129 0
  35 0002 4FF40042 		mov	r2, #32768
  36 0006 1A60     		str	r2, [r3]
  37              		.loc 1 130 0
  38 0008 0022     		movs	r2, #0
  39 000a 1A60     		str	r2, [r3]
  40              		.loc 1 131 0
  41 000c 5A60     		str	r2, [r3, #4]
  42              		.loc 1 132 0
  43 000e 5A61     		str	r2, [r3, #20]
  44              		.loc 1 135 0
  45 0010 036B     		ldr	r3, [r0, #48]
  46              	.LVL2:
  47 0012 1A68     		ldr	r2, [r3]
  48 0014 1368     		ldr	r3, [r2]
  49 0016 23F01F03 		bic	r3, r3, #31
  50 001a 1360     		str	r3, [r2]
  51              	.L2:
  52              		.loc 1 135 0 is_stmt 0 discriminator 2
  53 001c 036B     		ldr	r3, [r0, #48]
  54 001e 1A68     		ldr	r2, [r3]
  55 0020 1268     		ldr	r2, [r2]
  56 0022 12F0010F 		tst	r2, #1
  57 0026 F9D1     		bne	.L2
ARM GAS  C:\Users\RAKIBU~1\AppData\Local\Temp\cc9gl9i2.s 			page 2


  58              		.loc 1 135 0 discriminator 3
  59 0028 597A     		ldrb	r1, [r3, #9]	@ zero_extendqisi2
  60 002a 5A68     		ldr	r2, [r3, #4]
  61 002c 3D23     		movs	r3, #61
  62 002e 8B40     		lsls	r3, r3, r1
  63 0030 1360     		str	r3, [r2]
  64              		.loc 1 136 0 is_stmt 1 discriminator 3
  65 0032 C36A     		ldr	r3, [r0, #44]
  66 0034 1A68     		ldr	r2, [r3]
  67 0036 1368     		ldr	r3, [r2]
  68 0038 23F01F03 		bic	r3, r3, #31
  69 003c 1360     		str	r3, [r2]
  70              	.L3:
  71              		.loc 1 136 0 is_stmt 0 discriminator 2
  72 003e C36A     		ldr	r3, [r0, #44]
  73 0040 1A68     		ldr	r2, [r3]
  74 0042 1268     		ldr	r2, [r2]
  75 0044 12F0010F 		tst	r2, #1
  76 0048 F9D1     		bne	.L3
  77              		.loc 1 136 0 discriminator 3
  78 004a 597A     		ldrb	r1, [r3, #9]	@ zero_extendqisi2
  79 004c 5A68     		ldr	r2, [r3, #4]
  80 004e 3D23     		movs	r3, #61
  81 0050 8B40     		lsls	r3, r3, r1
  82 0052 1360     		str	r3, [r2]
  83              		.loc 1 137 0 is_stmt 1 discriminator 3
  84 0054 7047     		bx	lr
  85              		.cfi_endproc
  86              	.LFE328:
  87              		.size	i2c_lld_abort_operation, .-i2c_lld_abort_operation
  88              		.align	1
  89 0056 00BFAFF3 		.p2align 4,,15
  89      0080AFF3 
  89      0080
  90              		.syntax unified
  91              		.thumb
  92              		.thumb_func
  93              		.fpu softvfp
  94              		.type	i2c_lld_set_opmode, %function
  95              	i2c_lld_set_opmode:
  96              	.LFB330:
  97              		.loc 1 220 0
  98              		.cfi_startproc
  99              		@ args = 0, pretend = 0, frame = 0
 100              		@ frame_needed = 0, uses_anonymous_args = 0
 101              		@ link register save eliminated.
 102              	.LVL3:
 103              		.loc 1 221 0
 104 0060 416B     		ldr	r1, [r0, #52]
 105              	.LVL4:
 106              		.loc 1 222 0
 107 0062 4368     		ldr	r3, [r0, #4]
 108 0064 1A78     		ldrb	r2, [r3]	@ zero_extendqisi2
 109              	.LVL5:
 110              		.loc 1 225 0
 111 0066 0B68     		ldr	r3, [r1]
 112 0068 9BB2     		uxth	r3, r3
ARM GAS  C:\Users\RAKIBU~1\AppData\Local\Temp\cc9gl9i2.s 			page 3


 113              	.LVL6:
 114              		.loc 1 226 0
 115 006a 022A     		cmp	r2, #2
 116 006c 09D0     		beq	.L6
 117 006e 032A     		cmp	r2, #3
 118 0070 0DD0     		beq	.L7
 119 0072 012A     		cmp	r2, #1
 120 0074 01D0     		beq	.L9
 121              	.L5:
 122              		.loc 1 238 0
 123 0076 0B60     		str	r3, [r1]
 124              		.loc 1 239 0
 125 0078 7047     		bx	lr
 126              	.L9:
 127              		.loc 1 228 0
 128 007a 23F00A03 		bic	r3, r3, #10
 129              	.LVL7:
 130 007e 9BB2     		uxth	r3, r3
 131              	.LVL8:
 132              		.loc 1 229 0
 133 0080 F9E7     		b	.L5
 134              	.L6:
 135              	.LVL9:
 136 0082 23F00803 		bic	r3, r3, #8
 137              	.LVL10:
 138 0086 9BB2     		uxth	r3, r3
 139              		.loc 1 232 0
 140 0088 43F00203 		orr	r3, r3, #2
 141              	.LVL11:
 142              		.loc 1 233 0
 143 008c F3E7     		b	.L5
 144              	.L7:
 145              		.loc 1 235 0
 146 008e 43F00A03 		orr	r3, r3, #10
 147              	.LVL12:
 148              		.loc 1 236 0
 149 0092 F0E7     		b	.L5
 150              		.cfi_endproc
 151              	.LFE330:
 152              		.size	i2c_lld_set_opmode, .-i2c_lld_set_opmode
 153              		.align	1
 154 0094 AFF30080 		.p2align 4,,15
 154      AFF30080 
 154      AFF30080 
 155              		.syntax unified
 156              		.thumb
 157              		.thumb_func
 158              		.fpu softvfp
 159              		.type	i2c_lld_serve_event_interrupt, %function
 160              	i2c_lld_serve_event_interrupt:
 161              	.LFB331:
 162              		.loc 1 248 0
 163              		.cfi_startproc
 164              		@ args = 0, pretend = 0, frame = 0
 165              		@ frame_needed = 0, uses_anonymous_args = 0
 166              	.LVL13:
 167 00a0 70B5     		push	{r4, r5, r6, lr}
ARM GAS  C:\Users\RAKIBU~1\AppData\Local\Temp\cc9gl9i2.s 			page 4


 168              		.cfi_def_cfa_offset 16
 169              		.cfi_offset 4, -16
 170              		.cfi_offset 5, -12
 171              		.cfi_offset 6, -8
 172              		.cfi_offset 14, -4
 173              		.loc 1 249 0
 174 00a2 446B     		ldr	r4, [r0, #52]
 175              	.LVL14:
 176              		.loc 1 250 0
 177 00a4 A369     		ldr	r3, [r4, #24]
 178              	.LVL15:
 179              		.loc 1 251 0
 180 00a6 6569     		ldr	r5, [r4, #20]
 181              	.LVL16:
 182              		.loc 1 256 0
 183 00a8 45EA0343 		orr	r3, r5, r3, lsl #16
 184              	.LVL17:
 185 00ac 23F07F43 		bic	r3, r3, #-16777216
 186 00b0 404A     		ldr	r2, .L24
 187 00b2 9342     		cmp	r3, r2
 188 00b4 2FD0     		beq	.L12
 189 00b6 B3F1031F 		cmp	r3, #196611
 190 00ba 18D3     		bcc	.L23
 191 00bc 3E4A     		ldr	r2, .L24+4
 192 00be 9342     		cmp	r3, r2
 193 00c0 41D0     		beq	.L15
 194 00c2 0232     		adds	r2, r2, #2
 195 00c4 9342     		cmp	r3, r2
 196 00c6 49D0     		beq	.L16
 197 00c8 3C4A     		ldr	r2, .L24+8
 198 00ca 9342     		cmp	r3, r2
 199 00cc 03D1     		bne	.L11
 200              		.loc 1 268 0
 201 00ce 038C     		ldrh	r3, [r0, #32]
 202 00d0 C3F34703 		ubfx	r3, r3, #1, #8
 203 00d4 2361     		str	r3, [r4, #16]
 204              	.LVL18:
 205              	.L11:
 206              		.loc 1 298 0
 207 00d6 15F00A0F 		tst	r5, #10
 208 00da 00D0     		beq	.L21
 209              		.loc 1 299 0
 210 00dc A369     		ldr	r3, [r4, #24]
 211              	.L21:
 212              		.loc 1 302 0
 213 00de 15F4807F 		tst	r5, #256
 214 00e2 03D0     		beq	.L10
 215              		.loc 1 303 0
 216 00e4 6369     		ldr	r3, [r4, #20]
 217 00e6 23F48073 		bic	r3, r3, #256
 218 00ea 6361     		str	r3, [r4, #20]
 219              	.L10:
 220              		.loc 1 305 0
 221 00ec 70BD     		pop	{r4, r5, r6, pc}
 222              	.LVL19:
 223              	.L23:
 224              		.loc 1 256 0
ARM GAS  C:\Users\RAKIBU~1\AppData\Local\Temp\cc9gl9i2.s 			page 5


 225 00ee B3F1011F 		cmp	r3, #65537
 226 00f2 02D0     		beq	.L14
 227 00f4 013A     		subs	r2, r2, #1
 228 00f6 9342     		cmp	r3, r2
 229 00f8 EDD1     		bne	.L11
 230              	.L14:
 231              		.loc 1 259 0
 232 00fa 038C     		ldrh	r3, [r0, #32]
 233 00fc 1A0A     		lsrs	r2, r3, #8
 234 00fe 08D0     		beq	.L18
 235              		.loc 1 261 0
 236 0100 02F00602 		and	r2, r2, #6
 237 0104 03F00103 		and	r3, r3, #1
 238 0108 1343     		orrs	r3, r3, r2
 239 010a 43F0F003 		orr	r3, r3, #240
 240 010e 2361     		str	r3, [r4, #16]
 241 0110 E1E7     		b	.L11
 242              	.L18:
 243              		.loc 1 263 0
 244 0112 2361     		str	r3, [r4, #16]
 245 0114 DFE7     		b	.L11
 246              	.L12:
 247              		.loc 1 271 0
 248 0116 6368     		ldr	r3, [r4, #4]
 249 0118 23F40073 		bic	r3, r3, #512
 250 011c 6360     		str	r3, [r4, #4]
 251              		.loc 1 272 0
 252 011e C36A     		ldr	r3, [r0, #44]
 253 0120 1A68     		ldr	r2, [r3]
 254 0122 1368     		ldr	r3, [r2]
 255 0124 43F00103 		orr	r3, r3, #1
 256 0128 1360     		str	r3, [r2]
 257              		.loc 1 273 0
 258 012a 6368     		ldr	r3, [r4, #4]
 259 012c 43F48053 		orr	r3, r3, #4096
 260 0130 6360     		str	r3, [r4, #4]
 261              		.loc 1 274 0
 262 0132 C36A     		ldr	r3, [r0, #44]
 263 0134 1B68     		ldr	r3, [r3]
 264 0136 5B68     		ldr	r3, [r3, #4]
 265 0138 012B     		cmp	r3, #1
 266 013a CCD8     		bhi	.L11
 267              		.loc 1 275 0
 268 013c 2368     		ldr	r3, [r4]
 269 013e 23F48063 		bic	r3, r3, #1024
 270 0142 2360     		str	r3, [r4]
 271 0144 C7E7     		b	.L11
 272              	.L15:
 273              		.loc 1 278 0
 274 0146 6368     		ldr	r3, [r4, #4]
 275 0148 23F40073 		bic	r3, r3, #512
 276 014c 6360     		str	r3, [r4, #4]
 277              		.loc 1 279 0
 278 014e 036B     		ldr	r3, [r0, #48]
 279 0150 1A68     		ldr	r2, [r3]
 280 0152 1368     		ldr	r3, [r2]
 281 0154 43F00103 		orr	r3, r3, #1
ARM GAS  C:\Users\RAKIBU~1\AppData\Local\Temp\cc9gl9i2.s 			page 6


 282 0158 1360     		str	r3, [r2]
 283              		.loc 1 280 0
 284 015a BCE7     		b	.L11
 285              	.L16:
 286              		.loc 1 283 0
 287 015c 2369     		ldr	r3, [r4, #16]
 288              		.loc 1 284 0
 289 015e C36A     		ldr	r3, [r0, #44]
 290 0160 1B68     		ldr	r3, [r3]
 291 0162 5B68     		ldr	r3, [r3, #4]
 292 0164 43B1     		cbz	r3, .L19
 293              		.loc 1 286 0
 294 0166 038C     		ldrh	r3, [r0, #32]
 295 0168 43F00103 		orr	r3, r3, #1
 296 016c 0384     		strh	r3, [r0, #32]	@ movhi
 297              		.loc 1 287 0
 298 016e 2368     		ldr	r3, [r4]
 299 0170 43F4A063 		orr	r3, r3, #1280
 300 0174 2360     		str	r3, [r4]
 301              		.loc 1 288 0
 302 0176 B9E7     		b	.L10
 303              	.L19:
 304 0178 0646     		mov	r6, r0
 305              		.loc 1 290 0
 306 017a 6368     		ldr	r3, [r4, #4]
 307 017c 23F40073 		bic	r3, r3, #512
 308 0180 6360     		str	r3, [r4, #4]
 309              		.loc 1 291 0
 310 0182 2368     		ldr	r3, [r4]
 311 0184 43F40073 		orr	r3, r3, #512
 312 0188 2360     		str	r3, [r4]
 313              	.LVL20:
 314              	.LBB188:
 315              	.LBB189:
 316              	.LBB190:
 317              	.LBB191:
 318              	.LBB192:
 319              	.LBB193:
 320              	.LBB194:
 321              		.file 2 "../../../ChibiOSRepo/chibios191/os/common/ext/ARM/CMSIS/Core/Include/cmsis_gcc.h"
 322              		.loc 2 493 0
 323 018a 2023     		movs	r3, #32
 324              		.syntax unified
 325              	@ 493 "../../../ChibiOSRepo/chibios191/os/common/ext/ARM/CMSIS/Core/Include/cmsis_gcc.h" 1
 326 018c 83F31188 		MSR basepri, r3
 327              	@ 0 "" 2
 328              	.LVL21:
 329              		.thumb
 330              		.syntax unified
 331              	.LBE194:
 332              	.LBE193:
 333              	.LBE192:
 334              	.LBE191:
 335              		.file 3 "../../../ChibiOSRepo/chibios191/os/rt/include/chsys.h"
 336              		.loc 3 396 0
 337 0190 FFF7FEFF 		bl	_stats_start_measure_crit_isr
 338              	.LVL22:
ARM GAS  C:\Users\RAKIBU~1\AppData\Local\Temp\cc9gl9i2.s 			page 7


 339              		.loc 3 397 0
 340 0194 FFF7FEFF 		bl	_dbg_check_lock_from_isr
 341              	.LVL23:
 342              	.LBE190:
 343              	.LBE189:
 344              	.LBE188:
 345              	.LBB195:
 346              	.LBB196:
 347              		.file 4 "../../../ChibiOSRepo/chibios191/os/hal/osal/rt/osal.h"
 348              		.loc 4 775 0
 349 0198 0021     		movs	r1, #0
 350 019a 06F11C00 		add	r0, r6, #28
 351              	.LVL24:
 352 019e FFF7FEFF 		bl	chThdResumeI
 353              	.LVL25:
 354              	.LBE196:
 355              	.LBE195:
 356              	.LBB197:
 357              	.LBB198:
 358              	.LBB199:
 359              		.loc 3 415 0
 360 01a2 FFF7FEFF 		bl	_dbg_check_unlock_from_isr
 361              	.LVL26:
 362              		.loc 3 416 0
 363 01a6 FFF7FEFF 		bl	_stats_stop_measure_crit_isr
 364              	.LVL27:
 365              	.LBB200:
 366              	.LBB201:
 367              	.LBB202:
 368              	.LBB203:
 369              		.loc 2 493 0
 370 01aa 0023     		movs	r3, #0
 371              		.syntax unified
 372              	@ 493 "../../../ChibiOSRepo/chibios191/os/common/ext/ARM/CMSIS/Core/Include/cmsis_gcc.h" 1
 373 01ac 83F31188 		MSR basepri, r3
 374              	@ 0 "" 2
 375              	.LVL28:
 376              		.thumb
 377              		.syntax unified
 378 01b0 91E7     		b	.L11
 379              	.L25:
 380 01b2 00BF     		.align	2
 381              	.L24:
 382 01b4 02000300 		.word	196610
 383 01b8 82000700 		.word	458882
 384 01bc 08000300 		.word	196616
 385              	.LBE203:
 386              	.LBE202:
 387              	.LBE201:
 388              	.LBE200:
 389              	.LBE199:
 390              	.LBE198:
 391              	.LBE197:
 392              		.cfi_endproc
 393              	.LFE331:
 394              		.size	i2c_lld_serve_event_interrupt, .-i2c_lld_serve_event_interrupt
 395              		.align	1
ARM GAS  C:\Users\RAKIBU~1\AppData\Local\Temp\cc9gl9i2.s 			page 8


 396              		.p2align 4,,15
 397              		.syntax unified
 398              		.thumb
 399              		.thumb_func
 400              		.fpu softvfp
 401              		.type	i2c_lld_serve_error_interrupt, %function
 402              	i2c_lld_serve_error_interrupt:
 403              	.LFB334:
 404              		.loc 1 369 0
 405              		.cfi_startproc
 406              		@ args = 0, pretend = 0, frame = 0
 407              		@ frame_needed = 0, uses_anonymous_args = 0
 408              	.LVL29:
 409 01c0 10B5     		push	{r4, lr}
 410              		.cfi_def_cfa_offset 8
 411              		.cfi_offset 4, -8
 412              		.cfi_offset 14, -4
 413              		.loc 1 372 0
 414 01c2 036B     		ldr	r3, [r0, #48]
 415 01c4 1A68     		ldr	r2, [r3]
 416 01c6 1368     		ldr	r3, [r2]
 417 01c8 23F01F03 		bic	r3, r3, #31
 418 01cc 1360     		str	r3, [r2]
 419              	.L27:
 420              		.loc 1 372 0 is_stmt 0 discriminator 2
 421 01ce 036B     		ldr	r3, [r0, #48]
 422 01d0 1A68     		ldr	r2, [r3]
 423 01d2 1268     		ldr	r2, [r2]
 424 01d4 12F0010F 		tst	r2, #1
 425 01d8 F9D1     		bne	.L27
 426              		.loc 1 372 0 discriminator 3
 427 01da 5C7A     		ldrb	r4, [r3, #9]	@ zero_extendqisi2
 428 01dc 5A68     		ldr	r2, [r3, #4]
 429 01de 3D23     		movs	r3, #61
 430 01e0 A340     		lsls	r3, r3, r4
 431 01e2 1360     		str	r3, [r2]
 432              		.loc 1 373 0 is_stmt 1 discriminator 3
 433 01e4 C36A     		ldr	r3, [r0, #44]
 434 01e6 1A68     		ldr	r2, [r3]
 435 01e8 1368     		ldr	r3, [r2]
 436 01ea 23F01F03 		bic	r3, r3, #31
 437 01ee 1360     		str	r3, [r2]
 438              	.L28:
 439              		.loc 1 373 0 is_stmt 0 discriminator 2
 440 01f0 C36A     		ldr	r3, [r0, #44]
 441 01f2 1A68     		ldr	r2, [r3]
 442 01f4 1268     		ldr	r2, [r2]
 443 01f6 12F0010F 		tst	r2, #1
 444 01fa F9D1     		bne	.L28
 445              		.loc 1 373 0 discriminator 3
 446 01fc 5C7A     		ldrb	r4, [r3, #9]	@ zero_extendqisi2
 447 01fe 5A68     		ldr	r2, [r3, #4]
 448 0200 3D23     		movs	r3, #61
 449 0202 A340     		lsls	r3, r3, r4
 450 0204 1360     		str	r3, [r2]
 451              		.loc 1 375 0 is_stmt 1 discriminator 3
 452 0206 0023     		movs	r3, #0
ARM GAS  C:\Users\RAKIBU~1\AppData\Local\Temp\cc9gl9i2.s 			page 9


 453 0208 8360     		str	r3, [r0, #8]
 454              		.loc 1 377 0 discriminator 3
 455 020a 11F4807F 		tst	r1, #256
 456 020e 06D0     		beq	.L29
 457              		.loc 1 378 0
 458 0210 0123     		movs	r3, #1
 459 0212 8360     		str	r3, [r0, #8]
 460              		.loc 1 381 0
 461 0214 426B     		ldr	r2, [r0, #52]
 462 0216 5369     		ldr	r3, [r2, #20]
 463 0218 23F48073 		bic	r3, r3, #256
 464 021c 5361     		str	r3, [r2, #20]
 465              	.L29:
 466              		.loc 1 384 0
 467 021e 11F4007F 		tst	r1, #512
 468 0222 03D0     		beq	.L30
 469              		.loc 1 385 0
 470 0224 8368     		ldr	r3, [r0, #8]
 471 0226 43F00203 		orr	r3, r3, #2
 472 022a 8360     		str	r3, [r0, #8]
 473              	.L30:
 474              		.loc 1 387 0
 475 022c 11F4806F 		tst	r1, #1024
 476 0230 0DD0     		beq	.L31
 477              		.loc 1 388 0
 478 0232 426B     		ldr	r2, [r0, #52]
 479 0234 5368     		ldr	r3, [r2, #4]
 480 0236 23F40073 		bic	r3, r3, #512
 481 023a 5360     		str	r3, [r2, #4]
 482              		.loc 1 389 0
 483 023c 426B     		ldr	r2, [r0, #52]
 484 023e 1368     		ldr	r3, [r2]
 485 0240 43F40073 		orr	r3, r3, #512
 486 0244 1360     		str	r3, [r2]
 487              		.loc 1 390 0
 488 0246 8368     		ldr	r3, [r0, #8]
 489 0248 43F00403 		orr	r3, r3, #4
 490 024c 8360     		str	r3, [r0, #8]
 491              	.L31:
 492              		.loc 1 393 0
 493 024e 11F4006F 		tst	r1, #2048
 494 0252 03D0     		beq	.L32
 495              		.loc 1 394 0
 496 0254 8368     		ldr	r3, [r0, #8]
 497 0256 43F00803 		orr	r3, r3, #8
 498 025a 8360     		str	r3, [r0, #8]
 499              	.L32:
 500              		.loc 1 396 0
 501 025c 11F4804F 		tst	r1, #16384
 502 0260 03D0     		beq	.L33
 503              		.loc 1 397 0
 504 0262 8368     		ldr	r3, [r0, #8]
 505 0264 43F02003 		orr	r3, r3, #32
 506 0268 8360     		str	r3, [r0, #8]
 507              	.L33:
 508              		.loc 1 399 0
 509 026a 11F4805F 		tst	r1, #4096
ARM GAS  C:\Users\RAKIBU~1\AppData\Local\Temp\cc9gl9i2.s 			page 10


 510 026e 03D0     		beq	.L34
 511              		.loc 1 400 0
 512 0270 8368     		ldr	r3, [r0, #8]
 513 0272 43F01003 		orr	r3, r3, #16
 514 0276 8360     		str	r3, [r0, #8]
 515              	.L34:
 516              		.loc 1 402 0
 517 0278 11F4004F 		tst	r1, #32768
 518 027c 02D1     		bne	.L38
 519              	.L35:
 520              		.loc 1 406 0
 521 027e 8368     		ldr	r3, [r0, #8]
 522 0280 2BB9     		cbnz	r3, .L39
 523              	.LVL30:
 524              	.L26:
 525              		.loc 1 408 0
 526 0282 10BD     		pop	{r4, pc}
 527              	.LVL31:
 528              	.L38:
 529              		.loc 1 403 0
 530 0284 8368     		ldr	r3, [r0, #8]
 531 0286 43F04003 		orr	r3, r3, #64
 532 028a 8360     		str	r3, [r0, #8]
 533 028c F7E7     		b	.L35
 534              	.L39:
 535 028e 0446     		mov	r4, r0
 536              	.LVL32:
 537              	.LBB204:
 538              	.LBB205:
 539              	.LBB206:
 540              	.LBB207:
 541              	.LBB208:
 542              	.LBB209:
 543              	.LBB210:
 544              		.loc 2 493 0
 545 0290 2023     		movs	r3, #32
 546              		.syntax unified
 547              	@ 493 "../../../ChibiOSRepo/chibios191/os/common/ext/ARM/CMSIS/Core/Include/cmsis_gcc.h" 1
 548 0292 83F31188 		MSR basepri, r3
 549              	@ 0 "" 2
 550              	.LVL33:
 551              		.thumb
 552              		.syntax unified
 553              	.LBE210:
 554              	.LBE209:
 555              	.LBE208:
 556              	.LBE207:
 557              		.loc 3 396 0
 558 0296 FFF7FEFF 		bl	_stats_start_measure_crit_isr
 559              	.LVL34:
 560              		.loc 3 397 0
 561 029a FFF7FEFF 		bl	_dbg_check_lock_from_isr
 562              	.LVL35:
 563              	.LBE206:
 564              	.LBE205:
 565              	.LBE204:
 566              	.LBB211:
ARM GAS  C:\Users\RAKIBU~1\AppData\Local\Temp\cc9gl9i2.s 			page 11


 567              	.LBB212:
 568              		.loc 4 775 0
 569 029e 6FF00101 		mvn	r1, #1
 570 02a2 04F11C00 		add	r0, r4, #28
 571              	.LVL36:
 572 02a6 FFF7FEFF 		bl	chThdResumeI
 573              	.LVL37:
 574              	.LBE212:
 575              	.LBE211:
 576              	.LBB213:
 577              	.LBB214:
 578              	.LBB215:
 579              		.loc 3 415 0
 580 02aa FFF7FEFF 		bl	_dbg_check_unlock_from_isr
 581              	.LVL38:
 582              		.loc 3 416 0
 583 02ae FFF7FEFF 		bl	_stats_stop_measure_crit_isr
 584              	.LVL39:
 585              	.LBB216:
 586              	.LBB217:
 587              	.LBB218:
 588              	.LBB219:
 589              		.loc 2 493 0
 590 02b2 0023     		movs	r3, #0
 591              		.syntax unified
 592              	@ 493 "../../../ChibiOSRepo/chibios191/os/common/ext/ARM/CMSIS/Core/Include/cmsis_gcc.h" 1
 593 02b4 83F31188 		MSR basepri, r3
 594              	@ 0 "" 2
 595              	.LVL40:
 596              		.thumb
 597              		.syntax unified
 598              	.LBE219:
 599              	.LBE218:
 600              	.LBE217:
 601              	.LBE216:
 602              	.LBE215:
 603              	.LBE214:
 604              	.LBE213:
 605              		.loc 1 408 0
 606 02b8 E3E7     		b	.L26
 607              		.cfi_endproc
 608              	.LFE334:
 609              		.size	i2c_lld_serve_error_interrupt, .-i2c_lld_serve_error_interrupt
 610              		.align	1
 611 02ba 00BFAFF3 		.p2align 4,,15
 611      0080
 612              		.syntax unified
 613              		.thumb
 614              		.thumb_func
 615              		.fpu softvfp
 616              		.type	i2c_lld_serve_tx_end_irq, %function
 617              	i2c_lld_serve_tx_end_irq:
 618              	.LFB333:
 619              		.loc 1 342 0
 620              		.cfi_startproc
 621              		@ args = 0, pretend = 0, frame = 0
 622              		@ frame_needed = 0, uses_anonymous_args = 0
ARM GAS  C:\Users\RAKIBU~1\AppData\Local\Temp\cc9gl9i2.s 			page 12


 623              	.LVL41:
 624 02c0 38B5     		push	{r3, r4, r5, lr}
 625              		.cfi_def_cfa_offset 16
 626              		.cfi_offset 3, -16
 627              		.cfi_offset 4, -12
 628              		.cfi_offset 5, -8
 629              		.cfi_offset 14, -4
 630 02c2 0446     		mov	r4, r0
 631              		.loc 1 343 0
 632 02c4 456B     		ldr	r5, [r0, #52]
 633              	.LVL42:
 634              		.loc 1 347 0
 635 02c6 11F00C0F 		tst	r1, #12
 636 02ca 15D1     		bne	.L44
 637              	.LVL43:
 638              	.L41:
 639              		.loc 1 354 0
 640 02cc 236B     		ldr	r3, [r4, #48]
 641 02ce 1A68     		ldr	r2, [r3]
 642 02d0 1368     		ldr	r3, [r2]
 643 02d2 23F01F03 		bic	r3, r3, #31
 644 02d6 1360     		str	r3, [r2]
 645              	.L42:
 646              		.loc 1 354 0 is_stmt 0 discriminator 2
 647 02d8 236B     		ldr	r3, [r4, #48]
 648 02da 1A68     		ldr	r2, [r3]
 649 02dc 1268     		ldr	r2, [r2]
 650 02de 12F0010F 		tst	r2, #1
 651 02e2 F9D1     		bne	.L42
 652              		.loc 1 354 0 discriminator 3
 653 02e4 597A     		ldrb	r1, [r3, #9]	@ zero_extendqisi2
 654 02e6 5A68     		ldr	r2, [r3, #4]
 655 02e8 3D23     		movs	r3, #61
 656 02ea 8B40     		lsls	r3, r3, r1
 657 02ec 1360     		str	r3, [r2]
 658              		.loc 1 358 0 is_stmt 1 discriminator 3
 659 02ee 6B68     		ldr	r3, [r5, #4]
 660 02f0 43F40073 		orr	r3, r3, #512
 661 02f4 6B60     		str	r3, [r5, #4]
 662              		.loc 1 359 0 discriminator 3
 663 02f6 38BD     		pop	{r3, r4, r5, pc}
 664              	.LVL44:
 665              	.L44:
 666              	.LBB220:
 667              	.LBB221:
 668              		.loc 4 480 0
 669 02f8 0148     		ldr	r0, .L45
 670              	.LVL45:
 671 02fa FFF7FEFF 		bl	chSysHalt
 672              	.LVL46:
 673 02fe E5E7     		b	.L41
 674              	.L46:
 675              		.align	2
 676              	.L45:
 677 0300 00000000 		.word	.LC0
 678              	.LBE221:
 679              	.LBE220:
ARM GAS  C:\Users\RAKIBU~1\AppData\Local\Temp\cc9gl9i2.s 			page 13


 680              		.cfi_endproc
 681              	.LFE333:
 682              		.size	i2c_lld_serve_tx_end_irq, .-i2c_lld_serve_tx_end_irq
 683              		.align	1
 684 0304 AFF30080 		.p2align 4,,15
 684      AFF30080 
 684      AFF30080 
 685              		.syntax unified
 686              		.thumb
 687              		.thumb_func
 688              		.fpu softvfp
 689              		.type	i2c_lld_serve_rx_end_irq, %function
 690              	i2c_lld_serve_rx_end_irq:
 691              	.LFB332:
 692              		.loc 1 315 0
 693              		.cfi_startproc
 694              		@ args = 0, pretend = 0, frame = 0
 695              		@ frame_needed = 0, uses_anonymous_args = 0
 696              	.LVL47:
 697 0310 38B5     		push	{r3, r4, r5, lr}
 698              		.cfi_def_cfa_offset 16
 699              		.cfi_offset 3, -16
 700              		.cfi_offset 4, -12
 701              		.cfi_offset 5, -8
 702              		.cfi_offset 14, -4
 703 0312 0446     		mov	r4, r0
 704              		.loc 1 316 0
 705 0314 456B     		ldr	r5, [r0, #52]
 706              	.LVL48:
 707              		.loc 1 320 0
 708 0316 11F00C0F 		tst	r1, #12
 709 031a 30D1     		bne	.L51
 710              	.LVL49:
 711              	.L48:
 712              		.loc 1 327 0
 713 031c E36A     		ldr	r3, [r4, #44]
 714 031e 1A68     		ldr	r2, [r3]
 715 0320 1368     		ldr	r3, [r2]
 716 0322 23F01F03 		bic	r3, r3, #31
 717 0326 1360     		str	r3, [r2]
 718              	.L49:
 719              		.loc 1 327 0 is_stmt 0 discriminator 2
 720 0328 E36A     		ldr	r3, [r4, #44]
 721 032a 1A68     		ldr	r2, [r3]
 722 032c 1268     		ldr	r2, [r2]
 723 032e 12F0010F 		tst	r2, #1
 724 0332 F9D1     		bne	.L49
 725              		.loc 1 327 0 discriminator 3
 726 0334 597A     		ldrb	r1, [r3, #9]	@ zero_extendqisi2
 727 0336 5A68     		ldr	r2, [r3, #4]
 728 0338 3D23     		movs	r3, #61
 729 033a 8B40     		lsls	r3, r3, r1
 730 033c 1360     		str	r3, [r2]
 731              		.loc 1 329 0 is_stmt 1 discriminator 3
 732 033e 6B68     		ldr	r3, [r5, #4]
 733 0340 23F48053 		bic	r3, r3, #4096
 734 0344 6B60     		str	r3, [r5, #4]
ARM GAS  C:\Users\RAKIBU~1\AppData\Local\Temp\cc9gl9i2.s 			page 14


 735              		.loc 1 330 0 discriminator 3
 736 0346 2B68     		ldr	r3, [r5]
 737 0348 23F48063 		bic	r3, r3, #1024
 738 034c 2B60     		str	r3, [r5]
 739              		.loc 1 331 0 discriminator 3
 740 034e 2B68     		ldr	r3, [r5]
 741 0350 43F40073 		orr	r3, r3, #512
 742 0354 2B60     		str	r3, [r5]
 743              	.LVL50:
 744              	.LBB222:
 745              	.LBB223:
 746              	.LBB224:
 747              	.LBB225:
 748              	.LBB226:
 749              	.LBB227:
 750              	.LBB228:
 751              		.loc 2 493 0 discriminator 3
 752 0356 2023     		movs	r3, #32
 753              		.syntax unified
 754              	@ 493 "../../../ChibiOSRepo/chibios191/os/common/ext/ARM/CMSIS/Core/Include/cmsis_gcc.h" 1
 755 0358 83F31188 		MSR basepri, r3
 756              	@ 0 "" 2
 757              	.LVL51:
 758              		.thumb
 759              		.syntax unified
 760              	.LBE228:
 761              	.LBE227:
 762              	.LBE226:
 763              	.LBE225:
 764              		.loc 3 396 0 discriminator 3
 765 035c FFF7FEFF 		bl	_stats_start_measure_crit_isr
 766              	.LVL52:
 767              		.loc 3 397 0 discriminator 3
 768 0360 FFF7FEFF 		bl	_dbg_check_lock_from_isr
 769              	.LVL53:
 770              	.LBE224:
 771              	.LBE223:
 772              	.LBE222:
 773              	.LBB229:
 774              	.LBB230:
 775              		.loc 4 775 0 discriminator 3
 776 0364 0021     		movs	r1, #0
 777 0366 04F11C00 		add	r0, r4, #28
 778              	.LVL54:
 779 036a FFF7FEFF 		bl	chThdResumeI
 780              	.LVL55:
 781              	.LBE230:
 782              	.LBE229:
 783              	.LBB231:
 784              	.LBB232:
 785              	.LBB233:
 786              		.loc 3 415 0 discriminator 3
 787 036e FFF7FEFF 		bl	_dbg_check_unlock_from_isr
 788              	.LVL56:
 789              		.loc 3 416 0 discriminator 3
 790 0372 FFF7FEFF 		bl	_stats_stop_measure_crit_isr
 791              	.LVL57:
ARM GAS  C:\Users\RAKIBU~1\AppData\Local\Temp\cc9gl9i2.s 			page 15


 792              	.LBB234:
 793              	.LBB235:
 794              	.LBB236:
 795              	.LBB237:
 796              		.loc 2 493 0 discriminator 3
 797 0376 0023     		movs	r3, #0
 798              		.syntax unified
 799              	@ 493 "../../../ChibiOSRepo/chibios191/os/common/ext/ARM/CMSIS/Core/Include/cmsis_gcc.h" 1
 800 0378 83F31188 		MSR basepri, r3
 801              	@ 0 "" 2
 802              	.LVL58:
 803              		.thumb
 804              		.syntax unified
 805              	.LBE237:
 806              	.LBE236:
 807              	.LBE235:
 808              	.LBE234:
 809              	.LBE233:
 810              	.LBE232:
 811              	.LBE231:
 812              		.loc 1 333 0 discriminator 3
 813 037c 38BD     		pop	{r3, r4, r5, pc}
 814              	.LVL59:
 815              	.L51:
 816              	.LBB238:
 817              	.LBB239:
 818              		.loc 4 480 0
 819 037e 0248     		ldr	r0, .L52
 820              	.LVL60:
 821 0380 FFF7FEFF 		bl	chSysHalt
 822              	.LVL61:
 823 0384 CAE7     		b	.L48
 824              	.L53:
 825 0386 00BF     		.align	2
 826              	.L52:
 827 0388 00000000 		.word	.LC0
 828              	.LBE239:
 829              	.LBE238:
 830              		.cfi_endproc
 831              	.LFE332:
 832              		.size	i2c_lld_serve_rx_end_irq, .-i2c_lld_serve_rx_end_irq
 833              		.align	1
 834 038c AFF30080 		.p2align 4,,15
 835              		.syntax unified
 836              		.thumb
 837              		.thumb_func
 838              		.fpu softvfp
 839              		.type	i2c_lld_set_clock, %function
 840              	i2c_lld_set_clock:
 841              	.LFB329:
 842              		.loc 1 146 0
 843              		.cfi_startproc
 844              		@ args = 0, pretend = 0, frame = 0
 845              		@ frame_needed = 0, uses_anonymous_args = 0
 846              	.LVL62:
 847 0390 F8B5     		push	{r3, r4, r5, r6, r7, lr}
 848              		.cfi_def_cfa_offset 24
ARM GAS  C:\Users\RAKIBU~1\AppData\Local\Temp\cc9gl9i2.s 			page 16


 849              		.cfi_offset 3, -24
 850              		.cfi_offset 4, -20
 851              		.cfi_offset 5, -16
 852              		.cfi_offset 6, -12
 853              		.cfi_offset 7, -8
 854              		.cfi_offset 14, -4
 855              		.loc 1 147 0
 856 0392 456B     		ldr	r5, [r0, #52]
 857              	.LVL63:
 858              		.loc 1 149 0
 859 0394 4368     		ldr	r3, [r0, #4]
 860 0396 5C68     		ldr	r4, [r3, #4]
 861              	.LVL64:
 862              		.loc 1 150 0
 863 0398 1E7A     		ldrb	r6, [r3, #8]	@ zero_extendqisi2
 864              	.LVL65:
 865              		.loc 1 152 0
 866 039a 20B1     		cbz	r0, .L55
 867              		.loc 1 152 0 is_stmt 0 discriminator 3
 868 039c 002C     		cmp	r4, #0
 869 039e 02DD     		ble	.L55
 870              		.loc 1 152 0 discriminator 5
 871 03a0 414B     		ldr	r3, .L81
 872 03a2 9C42     		cmp	r4, r3
 873 03a4 02DD     		ble	.L56
 874              	.L55:
 875              		.loc 1 152 0 discriminator 6
 876 03a6 4148     		ldr	r0, .L81+4
 877              	.LVL66:
 878 03a8 FFF7FEFF 		bl	chSysHalt
 879              	.LVL67:
 880              	.L56:
 881              		.loc 1 157 0 is_stmt 1
 882 03ac 6B68     		ldr	r3, [r5, #4]
 883 03ae 23F03F03 		bic	r3, r3, #63
 884 03b2 1B04     		lsls	r3, r3, #16
 885 03b4 1B0C     		lsrs	r3, r3, #16
 886 03b6 6B60     		str	r3, [r5, #4]
 887              		.loc 1 158 0
 888 03b8 6B68     		ldr	r3, [r5, #4]
 889 03ba 43F02A03 		orr	r3, r3, #42
 890 03be 6B60     		str	r3, [r5, #4]
 891              	.LVL68:
 892              		.loc 1 164 0
 893 03c0 3B4B     		ldr	r3, .L81+8
 894 03c2 9C42     		cmp	r4, r3
 895 03c4 23DC     		bgt	.L57
 896              		.loc 1 166 0 discriminator 1
 897 03c6 012E     		cmp	r6, #1
 898 03c8 15D1     		bne	.L72
 899              	.L58:
 900              		.loc 1 169 0 discriminator 1
 901 03ca 6600     		lsls	r6, r4, #1
 902              	.LVL69:
 903 03cc 394A     		ldr	r2, .L81+12
 904 03ce B2FBF6F3 		udiv	r3, r2, r6
 905 03d2 06FB1323 		mls	r3, r6, r3, r2
ARM GAS  C:\Users\RAKIBU~1\AppData\Local\Temp\cc9gl9i2.s 			page 17


 906 03d6 93B9     		cbnz	r3, .L73
 907              	.L59:
 908              		.loc 1 171 0
 909 03d8 364C     		ldr	r4, .L81+12
 910              	.LVL70:
 911 03da B4FBF6F4 		udiv	r4, r4, r6
 912 03de A4B2     		uxth	r4, r4
 913              	.LVL71:
 914              		.loc 1 173 0
 915 03e0 032C     		cmp	r4, #3
 916 03e2 10D9     		bls	.L74
 917              	.L60:
 918              		.loc 1 175 0
 919 03e4 C4F30B06 		ubfx	r6, r4, #0, #12
 920              	.LVL72:
 921              		.loc 1 178 0
 922 03e8 2B23     		movs	r3, #43
 923 03ea 2B62     		str	r3, [r5, #32]
 924              	.LVL73:
 925              	.L61:
 926              		.loc 1 208 0 discriminator 1
 927 03ec B4F5805F 		cmp	r4, #4096
 928 03f0 53D2     		bcs	.L75
 929              	.LVL74:
 930              	.L62:
 931              		.loc 1 210 0
 932 03f2 EE61     		str	r6, [r5, #28]
 933              		.loc 1 211 0
 934 03f4 F8BD     		pop	{r3, r4, r5, r6, r7, pc}
 935              	.LVL75:
 936              	.L72:
 937              		.loc 1 166 0 discriminator 2
 938 03f6 2D48     		ldr	r0, .L81+4
 939 03f8 FFF7FEFF 		bl	chSysHalt
 940              	.LVL76:
 941 03fc E5E7     		b	.L58
 942              	.LVL77:
 943              	.L73:
 944              		.loc 1 169 0 discriminator 2
 945 03fe 2B48     		ldr	r0, .L81+4
 946 0400 FFF7FEFF 		bl	chSysHalt
 947              	.LVL78:
 948 0404 E8E7     		b	.L59
 949              	.LVL79:
 950              	.L74:
 951              		.loc 1 173 0 discriminator 2
 952 0406 2948     		ldr	r0, .L81+4
 953 0408 FFF7FEFF 		bl	chSysHalt
 954              	.LVL80:
 955 040c EAE7     		b	.L60
 956              	.LVL81:
 957              	.L57:
 958              		.loc 1 180 0
 959 040e 264B     		ldr	r3, .L81
 960 0410 9C42     		cmp	r4, r3
 961 0412 46DC     		bgt	.L69
 962              		.loc 1 182 0 discriminator 1
ARM GAS  C:\Users\RAKIBU~1\AppData\Local\Temp\cc9gl9i2.s 			page 18


 963 0414 B31E     		subs	r3, r6, #2
 964 0416 DBB2     		uxtb	r3, r3
 965 0418 012B     		cmp	r3, #1
 966 041a 0ED8     		bhi	.L76
 967              	.L63:
 968              		.loc 1 186 0
 969 041c 022E     		cmp	r6, #2
 970 041e 10D0     		beq	.L77
 971              		.loc 1 192 0
 972 0420 032E     		cmp	r6, #3
 973 0422 25D0     		beq	.L78
 974              		.loc 1 162 0
 975 0424 40F6FF74 		movw	r4, #4095
 976              	.LVL82:
 977              		.loc 1 161 0
 978 0428 0027     		movs	r7, #0
 979              	.LVL83:
 980              	.L67:
 981              		.loc 1 202 0
 982 042a C4F30B06 		ubfx	r6, r4, #0, #12
 983 042e 3E43     		orrs	r6, r6, r7
 984 0430 46F40046 		orr	r6, r6, #32768
 985              	.LVL84:
 986              		.loc 1 205 0
 987 0434 0D23     		movs	r3, #13
 988 0436 2B62     		str	r3, [r5, #32]
 989 0438 D8E7     		b	.L61
 990              	.LVL85:
 991              	.L76:
 992              		.loc 1 182 0 discriminator 2
 993 043a 1C48     		ldr	r0, .L81+4
 994 043c FFF7FEFF 		bl	chSysHalt
 995              	.LVL86:
 996 0440 ECE7     		b	.L63
 997              	.L77:
 998              		.loc 1 188 0 discriminator 1
 999 0442 04EB4404 		add	r4, r4, r4, lsl #1
 1000              	.LVL87:
 1001 0446 1B4A     		ldr	r2, .L81+12
 1002 0448 B2FBF4F3 		udiv	r3, r2, r4
 1003 044c 04FB1323 		mls	r3, r4, r3, r2
 1004 0450 53B9     		cbnz	r3, .L79
 1005              	.L65:
 1006              		.loc 1 190 0
 1007 0452 184B     		ldr	r3, .L81+12
 1008 0454 B3FBF4F4 		udiv	r4, r3, r4
 1009 0458 A4B2     		uxth	r4, r4
 1010              	.LVL88:
 1011              		.loc 1 161 0
 1012 045a 0027     		movs	r7, #0
 1013              	.LVL89:
 1014              	.L66:
 1015              		.loc 1 200 0 discriminator 1
 1016 045c 002C     		cmp	r4, #0
 1017 045e E4D1     		bne	.L67
 1018              		.loc 1 200 0 is_stmt 0 discriminator 2
 1019 0460 1248     		ldr	r0, .L81+4
ARM GAS  C:\Users\RAKIBU~1\AppData\Local\Temp\cc9gl9i2.s 			page 19


 1020 0462 FFF7FEFF 		bl	chSysHalt
 1021              	.LVL90:
 1022 0466 E0E7     		b	.L67
 1023              	.LVL91:
 1024              	.L79:
 1025              		.loc 1 188 0 is_stmt 1 discriminator 2
 1026 0468 1048     		ldr	r0, .L81+4
 1027 046a FFF7FEFF 		bl	chSysHalt
 1028              	.LVL92:
 1029 046e F0E7     		b	.L65
 1030              	.LVL93:
 1031              	.L78:
 1032              		.loc 1 194 0 discriminator 1
 1033 0470 04EB8404 		add	r4, r4, r4, lsl #2
 1034              	.LVL94:
 1035 0474 04EB8406 		add	r6, r4, r4, lsl #2
 1036              	.LVL95:
 1037 0478 0E4A     		ldr	r2, .L81+12
 1038 047a B2FBF6F3 		udiv	r3, r2, r6
 1039 047e 06FB1323 		mls	r3, r6, r3, r2
 1040 0482 33B9     		cbnz	r3, .L80
 1041              	.L68:
 1042              		.loc 1 196 0
 1043 0484 0B4C     		ldr	r4, .L81+12
 1044 0486 B4FBF6F4 		udiv	r4, r4, r6
 1045 048a A4B2     		uxth	r4, r4
 1046              	.LVL96:
 1047              		.loc 1 197 0
 1048 048c 4FF48047 		mov	r7, #16384
 1049 0490 E4E7     		b	.L66
 1050              	.LVL97:
 1051              	.L80:
 1052              		.loc 1 194 0 discriminator 2
 1053 0492 0648     		ldr	r0, .L81+4
 1054 0494 FFF7FEFF 		bl	chSysHalt
 1055              	.LVL98:
 1056 0498 F4E7     		b	.L68
 1057              	.LVL99:
 1058              	.L75:
 1059              		.loc 1 208 0 discriminator 2
 1060 049a 0448     		ldr	r0, .L81+4
 1061 049c FFF7FEFF 		bl	chSysHalt
 1062              	.LVL100:
 1063 04a0 A7E7     		b	.L62
 1064              	.LVL101:
 1065              	.L69:
 1066              		.loc 1 161 0
 1067 04a2 0026     		movs	r6, #0
 1068              	.LVL102:
 1069 04a4 A5E7     		b	.L62
 1070              	.L82:
 1071 04a6 00BF     		.align	2
 1072              	.L81:
 1073 04a8 801A0600 		.word	400000
 1074 04ac 00000000 		.word	.LANCHOR0
 1075 04b0 A0860100 		.word	100000
 1076 04b4 80DE8002 		.word	42000000
ARM GAS  C:\Users\RAKIBU~1\AppData\Local\Temp\cc9gl9i2.s 			page 20


 1077              		.cfi_endproc
 1078              	.LFE329:
 1079              		.size	i2c_lld_set_clock, .-i2c_lld_set_clock
 1080              		.align	1
 1081 04b8 AFF30080 		.p2align 4,,15
 1081      AFF30080 
 1082              		.global	VectorBC
 1083              		.syntax unified
 1084              		.thumb
 1085              		.thumb_func
 1086              		.fpu softvfp
 1087              		.type	VectorBC, %function
 1088              	VectorBC:
 1089              	.LFB335:
 1090              		.loc 1 420 0
 1091              		.cfi_startproc
 1092              		@ args = 0, pretend = 0, frame = 0
 1093              		@ frame_needed = 0, uses_anonymous_args = 0
 1094 04c0 10B5     		push	{r4, lr}
 1095              		.cfi_def_cfa_offset 8
 1096              		.cfi_offset 4, -8
 1097              		.cfi_offset 14, -4
 1098              		.loc 1 422 0
 1099 04c2 FFF7FEFF 		bl	_stats_increase_irq
 1100              	.LVL103:
 1101 04c6 084C     		ldr	r4, .L85
 1102 04c8 2046     		mov	r0, r4
 1103 04ca FFF7FEFF 		bl	_trace_isr_enter
 1104              	.LVL104:
 1105 04ce FFF7FEFF 		bl	_dbg_check_enter_isr
 1106              	.LVL105:
 1107              		.loc 1 424 0
 1108 04d2 0648     		ldr	r0, .L85+4
 1109 04d4 FFF7E4FD 		bl	i2c_lld_serve_event_interrupt
 1110              	.LVL106:
 1111              		.loc 1 426 0
 1112 04d8 FFF7FEFF 		bl	_dbg_check_leave_isr
 1113              	.LVL107:
 1114 04dc 2046     		mov	r0, r4
 1115 04de FFF7FEFF 		bl	_trace_isr_leave
 1116              	.LVL108:
 1117 04e2 FFF7FEFF 		bl	_port_irq_epilogue
 1118              	.LVL109:
 1119              		.loc 1 427 0
 1120 04e6 10BD     		pop	{r4, pc}
 1121              	.L86:
 1122              		.align	2
 1123              	.L85:
 1124 04e8 14000000 		.word	.LANCHOR0+20
 1125 04ec 00000000 		.word	I2CD1
 1126              		.cfi_endproc
 1127              	.LFE335:
 1128              		.size	VectorBC, .-VectorBC
 1129              		.align	1
 1130              		.p2align 4,,15
 1131              		.global	VectorC0
 1132              		.syntax unified
ARM GAS  C:\Users\RAKIBU~1\AppData\Local\Temp\cc9gl9i2.s 			page 21


 1133              		.thumb
 1134              		.thumb_func
 1135              		.fpu softvfp
 1136              		.type	VectorC0, %function
 1137              	VectorC0:
 1138              	.LFB336:
 1139              		.loc 1 432 0
 1140              		.cfi_startproc
 1141              		@ args = 0, pretend = 0, frame = 0
 1142              		@ frame_needed = 0, uses_anonymous_args = 0
 1143 04f0 70B5     		push	{r4, r5, r6, lr}
 1144              		.cfi_def_cfa_offset 16
 1145              		.cfi_offset 4, -16
 1146              		.cfi_offset 5, -12
 1147              		.cfi_offset 6, -8
 1148              		.cfi_offset 14, -4
 1149              		.loc 1 433 0
 1150 04f2 0E4D     		ldr	r5, .L89
 1151 04f4 6B6B     		ldr	r3, [r5, #52]
 1152 04f6 5C69     		ldr	r4, [r3, #20]
 1153 04f8 A4B2     		uxth	r4, r4
 1154              	.LVL110:
 1155              		.loc 1 435 0
 1156 04fa FFF7FEFF 		bl	_stats_increase_irq
 1157              	.LVL111:
 1158 04fe 0C4E     		ldr	r6, .L89+4
 1159 0500 3046     		mov	r0, r6
 1160 0502 FFF7FEFF 		bl	_trace_isr_enter
 1161              	.LVL112:
 1162 0506 FFF7FEFF 		bl	_dbg_check_enter_isr
 1163              	.LVL113:
 1164              		.loc 1 437 0
 1165 050a 04F45F43 		and	r3, r4, #57088
 1166 050e 6A6B     		ldr	r2, [r5, #52]
 1167 0510 DB43     		mvns	r3, r3
 1168 0512 5361     		str	r3, [r2, #20]
 1169              		.loc 1 438 0
 1170 0514 2146     		mov	r1, r4
 1171 0516 2846     		mov	r0, r5
 1172 0518 FFF752FE 		bl	i2c_lld_serve_error_interrupt
 1173              	.LVL114:
 1174              		.loc 1 440 0
 1175 051c FFF7FEFF 		bl	_dbg_check_leave_isr
 1176              	.LVL115:
 1177 0520 3046     		mov	r0, r6
 1178 0522 FFF7FEFF 		bl	_trace_isr_leave
 1179              	.LVL116:
 1180 0526 FFF7FEFF 		bl	_port_irq_epilogue
 1181              	.LVL117:
 1182              		.loc 1 441 0
 1183 052a 70BD     		pop	{r4, r5, r6, pc}
 1184              	.LVL118:
 1185              	.L90:
 1186              		.align	2
 1187              	.L89:
 1188 052c 00000000 		.word	I2CD1
 1189 0530 20000000 		.word	.LANCHOR0+32
ARM GAS  C:\Users\RAKIBU~1\AppData\Local\Temp\cc9gl9i2.s 			page 22


 1190              		.cfi_endproc
 1191              	.LFE336:
 1192              		.size	VectorC0, .-VectorC0
 1193              		.align	1
 1194 0534 AFF30080 		.p2align 4,,15
 1194      AFF30080 
 1194      AFF30080 
 1195              		.global	i2c_lld_init
 1196              		.syntax unified
 1197              		.thumb
 1198              		.thumb_func
 1199              		.fpu softvfp
 1200              		.type	i2c_lld_init, %function
 1201              	i2c_lld_init:
 1202              	.LFB337:
 1203              		.loc 1 517 0
 1204              		.cfi_startproc
 1205              		@ args = 0, pretend = 0, frame = 0
 1206              		@ frame_needed = 0, uses_anonymous_args = 0
 1207 0540 10B5     		push	{r4, lr}
 1208              		.cfi_def_cfa_offset 8
 1209              		.cfi_offset 4, -8
 1210              		.cfi_offset 14, -4
 1211              		.loc 1 520 0
 1212 0542 054C     		ldr	r4, .L93
 1213 0544 2046     		mov	r0, r4
 1214 0546 FFF7FEFF 		bl	i2cObjectInit
 1215              	.LVL119:
 1216              		.loc 1 521 0
 1217 054a 0023     		movs	r3, #0
 1218 054c E361     		str	r3, [r4, #28]
 1219              		.loc 1 522 0
 1220 054e 034A     		ldr	r2, .L93+4
 1221 0550 6263     		str	r2, [r4, #52]
 1222              		.loc 1 523 0
 1223 0552 E362     		str	r3, [r4, #44]
 1224              		.loc 1 524 0
 1225 0554 2363     		str	r3, [r4, #48]
 1226              		.loc 1 542 0
 1227 0556 10BD     		pop	{r4, pc}
 1228              	.L94:
 1229              		.align	2
 1230              	.L93:
 1231 0558 00000000 		.word	I2CD1
 1232 055c 00540040 		.word	1073763328
 1233              		.cfi_endproc
 1234              	.LFE337:
 1235              		.size	i2c_lld_init, .-i2c_lld_init
 1236              		.align	1
 1237              		.p2align 4,,15
 1238              		.global	i2c_lld_start
 1239              		.syntax unified
 1240              		.thumb
 1241              		.thumb_func
 1242              		.fpu softvfp
 1243              		.type	i2c_lld_start, %function
 1244              	i2c_lld_start:
ARM GAS  C:\Users\RAKIBU~1\AppData\Local\Temp\cc9gl9i2.s 			page 23


 1245              	.LFB338:
 1246              		.loc 1 551 0
 1247              		.cfi_startproc
 1248              		@ args = 0, pretend = 0, frame = 0
 1249              		@ frame_needed = 0, uses_anonymous_args = 0
 1250              	.LVL120:
 1251 0560 38B5     		push	{r3, r4, r5, lr}
 1252              		.cfi_def_cfa_offset 16
 1253              		.cfi_offset 3, -16
 1254              		.cfi_offset 4, -12
 1255              		.cfi_offset 5, -8
 1256              		.cfi_offset 14, -4
 1257 0562 0446     		mov	r4, r0
 1258              		.loc 1 552 0
 1259 0564 456B     		ldr	r5, [r0, #52]
 1260              	.LVL121:
 1261              		.loc 1 555 0
 1262 0566 0378     		ldrb	r3, [r0]	@ zero_extendqisi2
 1263 0568 012B     		cmp	r3, #1
 1264 056a 1AD0     		beq	.L100
 1265              	.LVL122:
 1266              	.L96:
 1267              		.loc 1 646 0
 1268 056c 05F11003 		add	r3, r5, #16
 1269 0570 E26A     		ldr	r2, [r4, #44]
 1270 0572 1268     		ldr	r2, [r2]
 1271 0574 9360     		str	r3, [r2, #8]
 1272              		.loc 1 647 0
 1273 0576 226B     		ldr	r2, [r4, #48]
 1274 0578 1268     		ldr	r2, [r2]
 1275 057a 9360     		str	r3, [r2, #8]
 1276              		.loc 1 650 0
 1277 057c 4FF40043 		mov	r3, #32768
 1278 0580 2B60     		str	r3, [r5]
 1279              		.loc 1 651 0
 1280 0582 0023     		movs	r3, #0
 1281 0584 2B60     		str	r3, [r5]
 1282              		.loc 1 652 0
 1283 0586 4FF41063 		mov	r3, #2304
 1284 058a 6B60     		str	r3, [r5, #4]
 1285              		.loc 1 655 0
 1286 058c 2046     		mov	r0, r4
 1287 058e FFF7FFFE 		bl	i2c_lld_set_clock
 1288              	.LVL123:
 1289              		.loc 1 656 0
 1290 0592 2046     		mov	r0, r4
 1291 0594 FFF764FD 		bl	i2c_lld_set_opmode
 1292              	.LVL124:
 1293              		.loc 1 659 0
 1294 0598 2B68     		ldr	r3, [r5]
 1295 059a 43F00103 		orr	r3, r3, #1
 1296 059e 2B60     		str	r3, [r5]
 1297              		.loc 1 660 0
 1298 05a0 38BD     		pop	{r3, r4, r5, pc}
 1299              	.LVL125:
 1300              	.L100:
 1301              		.loc 1 557 0
ARM GAS  C:\Users\RAKIBU~1\AppData\Local\Temp\cc9gl9i2.s 			page 24


 1302 05a2 40F25643 		movw	r3, #1110
 1303 05a6 8362     		str	r3, [r0, #40]
 1304              		.loc 1 561 0
 1305 05a8 40F21643 		movw	r3, #1046
 1306 05ac 4362     		str	r3, [r0, #36]
 1307              		.loc 1 567 0
 1308 05ae 224B     		ldr	r3, .L103
 1309 05b0 9842     		cmp	r0, r3
 1310 05b2 DBD1     		bne	.L96
 1311              		.loc 1 568 0
 1312 05b4 214B     		ldr	r3, .L103+4
 1313 05b6 1A6A     		ldr	r2, [r3, #32]
 1314 05b8 42F40012 		orr	r2, r2, #2097152
 1315 05bc 1A62     		str	r2, [r3, #32]
 1316 05be 1A6A     		ldr	r2, [r3, #32]
 1317 05c0 22F40012 		bic	r2, r2, #2097152
 1318 05c4 1A62     		str	r2, [r3, #32]
 1319 05c6 1B6A     		ldr	r3, [r3, #32]
 1320              		.loc 1 570 0
 1321 05c8 0346     		mov	r3, r0
 1322 05ca 1D4A     		ldr	r2, .L103+8
 1323 05cc 0521     		movs	r1, #5
 1324 05ce 0020     		movs	r0, #0
 1325              	.LVL126:
 1326 05d0 FFF7FEFF 		bl	dmaStreamAllocI
 1327              	.LVL127:
 1328 05d4 E062     		str	r0, [r4, #44]
 1329              		.loc 1 574 0
 1330 05d6 30B3     		cbz	r0, .L101
 1331              	.L97:
 1332              		.loc 1 575 0
 1333 05d8 2346     		mov	r3, r4
 1334 05da 1A4A     		ldr	r2, .L103+12
 1335 05dc 0521     		movs	r1, #5
 1336 05de 0620     		movs	r0, #6
 1337 05e0 FFF7FEFF 		bl	dmaStreamAllocI
 1338              	.LVL128:
 1339 05e4 2063     		str	r0, [r4, #48]
 1340              		.loc 1 579 0
 1341 05e6 10B3     		cbz	r0, .L102
 1342              	.L98:
 1343              		.loc 1 581 0
 1344 05e8 144B     		ldr	r3, .L103+4
 1345 05ea 1A6C     		ldr	r2, [r3, #64]
 1346 05ec 42F40012 		orr	r2, r2, #2097152
 1347 05f0 1A64     		str	r2, [r3, #64]
 1348 05f2 1A6E     		ldr	r2, [r3, #96]
 1349 05f4 42F40012 		orr	r2, r2, #2097152
 1350 05f8 1A66     		str	r2, [r3, #96]
 1351 05fa 1B6E     		ldr	r3, [r3, #96]
 1352              		.loc 1 582 0
 1353 05fc 0521     		movs	r1, #5
 1354 05fe 1F20     		movs	r0, #31
 1355 0600 FFF7FEFF 		bl	nvicEnableVector
 1356              	.LVL129:
 1357              		.loc 1 583 0
 1358 0604 0521     		movs	r1, #5
ARM GAS  C:\Users\RAKIBU~1\AppData\Local\Temp\cc9gl9i2.s 			page 25


 1359 0606 2020     		movs	r0, #32
 1360 0608 FFF7FEFF 		bl	nvicEnableVector
 1361              	.LVL130:
 1362              		.loc 1 585 0
 1363 060c 636A     		ldr	r3, [r4, #36]
 1364 060e 43F00073 		orr	r3, r3, #33554432
 1365 0612 43F40033 		orr	r3, r3, #131072
 1366 0616 6362     		str	r3, [r4, #36]
 1367              		.loc 1 587 0
 1368 0618 A36A     		ldr	r3, [r4, #40]
 1369 061a 43F00073 		orr	r3, r3, #33554432
 1370 061e 43F40033 		orr	r3, r3, #131072
 1371 0622 A362     		str	r3, [r4, #40]
 1372 0624 A2E7     		b	.L96
 1373              	.L101:
 1374              		.loc 1 574 0 discriminator 2
 1375 0626 0848     		ldr	r0, .L103+16
 1376 0628 FFF7FEFF 		bl	chSysHalt
 1377              	.LVL131:
 1378 062c D4E7     		b	.L97
 1379              	.L102:
 1380              		.loc 1 579 0 discriminator 2
 1381 062e 0648     		ldr	r0, .L103+16
 1382 0630 FFF7FEFF 		bl	chSysHalt
 1383              	.LVL132:
 1384 0634 D8E7     		b	.L98
 1385              	.L104:
 1386 0636 00BF     		.align	2
 1387              	.L103:
 1388 0638 00000000 		.word	I2CD1
 1389 063c 00380240 		.word	1073887232
 1390 0640 00000000 		.word	i2c_lld_serve_rx_end_irq
 1391 0644 00000000 		.word	i2c_lld_serve_tx_end_irq
 1392 0648 2C000000 		.word	.LANCHOR0+44
 1393              		.cfi_endproc
 1394              	.LFE338:
 1395              		.size	i2c_lld_start, .-i2c_lld_start
 1396              		.align	1
 1397 064c AFF30080 		.p2align 4,,15
 1398              		.global	i2c_lld_stop
 1399              		.syntax unified
 1400              		.thumb
 1401              		.thumb_func
 1402              		.fpu softvfp
 1403              		.type	i2c_lld_stop, %function
 1404              	i2c_lld_stop:
 1405              	.LFB339:
 1406              		.loc 1 669 0
 1407              		.cfi_startproc
 1408              		@ args = 0, pretend = 0, frame = 0
 1409              		@ frame_needed = 0, uses_anonymous_args = 0
 1410              	.LVL133:
 1411              		.loc 1 672 0
 1412 0650 0378     		ldrb	r3, [r0]	@ zero_extendqisi2
 1413 0652 012B     		cmp	r3, #1
 1414 0654 21D0     		beq	.L108
 1415              		.loc 1 669 0
ARM GAS  C:\Users\RAKIBU~1\AppData\Local\Temp\cc9gl9i2.s 			page 26


 1416 0656 10B5     		push	{r4, lr}
 1417              		.cfi_def_cfa_offset 8
 1418              		.cfi_offset 4, -8
 1419              		.cfi_offset 14, -4
 1420 0658 0446     		mov	r4, r0
 1421              		.loc 1 675 0
 1422 065a FFF7D1FC 		bl	i2c_lld_abort_operation
 1423              	.LVL134:
 1424              		.loc 1 676 0
 1425 065e 206B     		ldr	r0, [r4, #48]
 1426 0660 FFF7FEFF 		bl	dmaStreamFreeI
 1427              	.LVL135:
 1428              		.loc 1 677 0
 1429 0664 E06A     		ldr	r0, [r4, #44]
 1430 0666 FFF7FEFF 		bl	dmaStreamFreeI
 1431              	.LVL136:
 1432              		.loc 1 678 0
 1433 066a 0023     		movs	r3, #0
 1434 066c 2363     		str	r3, [r4, #48]
 1435              		.loc 1 679 0
 1436 066e E362     		str	r3, [r4, #44]
 1437              		.loc 1 682 0
 1438 0670 0A4B     		ldr	r3, .L112
 1439 0672 9C42     		cmp	r4, r3
 1440 0674 00D0     		beq	.L111
 1441              	.L105:
 1442              		.loc 1 705 0
 1443 0676 10BD     		pop	{r4, pc}
 1444              	.LVL137:
 1445              	.L111:
 1446              		.loc 1 683 0
 1447 0678 1F20     		movs	r0, #31
 1448 067a FFF7FEFF 		bl	nvicDisableVector
 1449              	.LVL138:
 1450              		.loc 1 684 0
 1451 067e 2020     		movs	r0, #32
 1452 0680 FFF7FEFF 		bl	nvicDisableVector
 1453              	.LVL139:
 1454              		.loc 1 685 0
 1455 0684 064B     		ldr	r3, .L112+4
 1456 0686 1A6C     		ldr	r2, [r3, #64]
 1457 0688 22F40012 		bic	r2, r2, #2097152
 1458 068c 1A64     		str	r2, [r3, #64]
 1459 068e 1A6E     		ldr	r2, [r3, #96]
 1460 0690 22F40012 		bic	r2, r2, #2097152
 1461 0694 1A66     		str	r2, [r3, #96]
 1462 0696 1B6E     		ldr	r3, [r3, #96]
 1463              		.loc 1 705 0
 1464 0698 EDE7     		b	.L105
 1465              	.LVL140:
 1466              	.L108:
 1467              		.cfi_def_cfa_offset 0
 1468              		.cfi_restore 4
 1469              		.cfi_restore 14
 1470 069a 7047     		bx	lr
 1471              	.L113:
 1472              		.align	2
ARM GAS  C:\Users\RAKIBU~1\AppData\Local\Temp\cc9gl9i2.s 			page 27


 1473              	.L112:
 1474 069c 00000000 		.word	I2CD1
 1475 06a0 00380240 		.word	1073887232
 1476              		.cfi_endproc
 1477              	.LFE339:
 1478              		.size	i2c_lld_stop, .-i2c_lld_stop
 1479              		.align	1
 1480 06a4 AFF30080 		.p2align 4,,15
 1480      AFF30080 
 1480      AFF30080 
 1481              		.global	i2c_lld_master_receive_timeout
 1482              		.syntax unified
 1483              		.thumb
 1484              		.thumb_func
 1485              		.fpu softvfp
 1486              		.type	i2c_lld_master_receive_timeout, %function
 1487              	i2c_lld_master_receive_timeout:
 1488              	.LFB340:
 1489              		.loc 1 732 0
 1490              		.cfi_startproc
 1491              		@ args = 8, pretend = 0, frame = 0
 1492              		@ frame_needed = 0, uses_anonymous_args = 0
 1493              	.LVL141:
 1494 06b0 F8B5     		push	{r3, r4, r5, r6, r7, lr}
 1495              		.cfi_def_cfa_offset 24
 1496              		.cfi_offset 3, -24
 1497              		.cfi_offset 4, -20
 1498              		.cfi_offset 5, -16
 1499              		.cfi_offset 6, -12
 1500              		.cfi_offset 7, -8
 1501              		.cfi_offset 14, -4
 1502 06b2 0546     		mov	r5, r0
 1503 06b4 1746     		mov	r7, r2
 1504 06b6 1E46     		mov	r6, r3
 1505              		.loc 1 733 0
 1506 06b8 446B     		ldr	r4, [r0, #52]
 1507              	.LVL142:
 1508              		.loc 1 742 0
 1509 06ba 0023     		movs	r3, #0
 1510              	.LVL143:
 1511 06bc 8360     		str	r3, [r0, #8]
 1512              		.loc 1 745 0
 1513 06be 4900     		lsls	r1, r1, #1
 1514              	.LVL144:
 1515 06c0 41F00101 		orr	r1, r1, #1
 1516 06c4 0184     		strh	r1, [r0, #32]	@ movhi
 1517              	.LBB275:
 1518              	.LBB276:
 1519              	.LBB277:
 1520              		.loc 3 367 0
 1521 06c6 FFF7FEFF 		bl	_dbg_check_unlock
 1522              	.LVL145:
 1523              		.loc 3 368 0
 1524 06ca FFF7FEFF 		bl	_stats_stop_measure_crit_thd
 1525              	.LVL146:
 1526              		.loc 3 374 0
 1527 06ce 404B     		ldr	r3, .L127
ARM GAS  C:\Users\RAKIBU~1\AppData\Local\Temp\cc9gl9i2.s 			page 28


 1528 06d0 1A68     		ldr	r2, [r3]
 1529 06d2 9A42     		cmp	r2, r3
 1530 06d4 04D0     		beq	.L115
 1531 06d6 9B69     		ldr	r3, [r3, #24]
 1532 06d8 9968     		ldr	r1, [r3, #8]
 1533 06da 9368     		ldr	r3, [r2, #8]
 1534 06dc 9942     		cmp	r1, r3
 1535 06de 10D3     		bcc	.L125
 1536              	.L115:
 1537              	.LVL147:
 1538              	.LBB278:
 1539              	.LBB279:
 1540              	.LBB280:
 1541              		.loc 2 493 0
 1542 06e0 0023     		movs	r3, #0
 1543              		.syntax unified
 1544              	@ 493 "../../../ChibiOSRepo/chibios191/os/common/ext/ARM/CMSIS/Core/Include/cmsis_gcc.h" 1
 1545 06e2 83F31188 		MSR basepri, r3
 1546              	@ 0 "" 2
 1547              	.LVL148:
 1548              		.thumb
 1549              		.syntax unified
 1550              	.LBE280:
 1551              	.LBE279:
 1552              	.LBE278:
 1553              	.LBE277:
 1554              	.LBE276:
 1555              	.LBE275:
 1556              		.loc 1 751 0
 1557 06e6 EB6A     		ldr	r3, [r5, #44]
 1558 06e8 1B68     		ldr	r3, [r3]
 1559 06ea 6A6A     		ldr	r2, [r5, #36]
 1560 06ec 1A60     		str	r2, [r3]
 1561              		.loc 1 752 0
 1562 06ee EB6A     		ldr	r3, [r5, #44]
 1563 06f0 1B68     		ldr	r3, [r3]
 1564 06f2 DF60     		str	r7, [r3, #12]
 1565              		.loc 1 753 0
 1566 06f4 EB6A     		ldr	r3, [r5, #44]
 1567 06f6 1B68     		ldr	r3, [r3]
 1568 06f8 5E60     		str	r6, [r3, #4]
 1569              	.LBB283:
 1570              	.LBB284:
 1571              	.LBB285:
 1572              	.LBB286:
 1573              	.LBB287:
 1574              		.file 5 "../../../ChibiOSRepo/chibios191/os/hal/ports/STM32/LLD/TIMv1/hal_st_lld.h"
 1575              		.loc 5 147 0
 1576 06fa 4FF08043 		mov	r3, #1073741824
 1577 06fe 5E6A     		ldr	r6, [r3, #36]
 1578              	.LVL149:
 1579 0700 1BE0     		b	.L122
 1580              	.LVL150:
 1581              	.L125:
 1582              	.LBE287:
 1583              	.LBE286:
 1584              	.LBE285:
ARM GAS  C:\Users\RAKIBU~1\AppData\Local\Temp\cc9gl9i2.s 			page 29


 1585              	.LBE284:
 1586              	.LBE283:
 1587              	.LBB288:
 1588              	.LBB282:
 1589              	.LBB281:
 1590              		.loc 3 374 0
 1591 0702 3448     		ldr	r0, .L127+4
 1592 0704 FFF7FEFF 		bl	chSysHalt
 1593              	.LVL151:
 1594 0708 EAE7     		b	.L115
 1595              	.LVL152:
 1596              	.L126:
 1597              	.LBE281:
 1598              	.LBE282:
 1599              	.LBE288:
 1600              		.loc 1 772 0
 1601 070a EB6A     		ldr	r3, [r5, #44]
 1602 070c 1A68     		ldr	r2, [r3]
 1603 070e 1368     		ldr	r3, [r2]
 1604 0710 23F01F03 		bic	r3, r3, #31
 1605 0714 1360     		str	r3, [r2]
 1606              	.L119:
 1607              		.loc 1 772 0 is_stmt 0 discriminator 2
 1608 0716 EB6A     		ldr	r3, [r5, #44]
 1609 0718 1A68     		ldr	r2, [r3]
 1610 071a 1268     		ldr	r2, [r2]
 1611 071c 12F0010F 		tst	r2, #1
 1612 0720 F9D1     		bne	.L119
 1613              		.loc 1 772 0 discriminator 3
 1614 0722 597A     		ldrb	r1, [r3, #9]	@ zero_extendqisi2
 1615 0724 5A68     		ldr	r2, [r3, #4]
 1616 0726 3D23     		movs	r3, #61
 1617 0728 8B40     		lsls	r3, r3, r1
 1618 072a 1360     		str	r3, [r2]
 1619              		.loc 1 773 0 is_stmt 1 discriminator 3
 1620 072c 4FF0FF31 		mov	r1, #-1
 1621              	.L114:
 1622              		.loc 1 790 0
 1623 0730 0846     		mov	r0, r1
 1624 0732 F8BD     		pop	{r3, r4, r5, r6, r7, pc}
 1625              	.LVL153:
 1626              	.L121:
 1627              	.LBB289:
 1628              	.LBB290:
 1629              	.LBB291:
 1630              	.LBB292:
 1631              	.LBB293:
 1632              	.LBB294:
 1633              		.loc 2 493 0
 1634 0734 0023     		movs	r3, #0
 1635              		.syntax unified
 1636              	@ 493 "../../../ChibiOSRepo/chibios191/os/common/ext/ARM/CMSIS/Core/Include/cmsis_gcc.h" 1
 1637 0736 83F31188 		MSR basepri, r3
 1638              	@ 0 "" 2
 1639              	.LVL154:
 1640              		.thumb
 1641              		.syntax unified
ARM GAS  C:\Users\RAKIBU~1\AppData\Local\Temp\cc9gl9i2.s 			page 30


 1642              	.L122:
 1643              	.LBE294:
 1644              	.LBE293:
 1645              	.LBE292:
 1646              	.LBE291:
 1647              	.LBE290:
 1648              	.LBE289:
 1649              	.LBB297:
 1650              	.LBB298:
 1651              	.LBB299:
 1652              	.LBB300:
 1653              	.LBB301:
 1654              	.LBB302:
 1655 073a 2023     		movs	r3, #32
 1656              		.syntax unified
 1657              	@ 493 "../../../ChibiOSRepo/chibios191/os/common/ext/ARM/CMSIS/Core/Include/cmsis_gcc.h" 1
 1658 073c 83F31188 		MSR basepri, r3
 1659              	@ 0 "" 2
 1660              	.LVL155:
 1661              		.thumb
 1662              		.syntax unified
 1663              	.LBE302:
 1664              	.LBE301:
 1665              	.LBE300:
 1666              		.loc 3 356 0
 1667 0740 FFF7FEFF 		bl	_stats_start_measure_crit_thd
 1668              	.LVL156:
 1669              		.loc 3 357 0
 1670 0744 FFF7FEFF 		bl	_dbg_check_lock
 1671              	.LVL157:
 1672              	.LBE299:
 1673              	.LBE298:
 1674              	.LBE297:
 1675              		.loc 1 766 0
 1676 0748 A369     		ldr	r3, [r4, #24]
 1677 074a 13F0020F 		tst	r3, #2
 1678 074e 03D1     		bne	.L116
 1679              		.loc 1 766 0 is_stmt 0 discriminator 1
 1680 0750 2368     		ldr	r3, [r4]
 1681 0752 13F4007F 		tst	r3, #512
 1682 0756 18D0     		beq	.L117
 1683              	.L116:
 1684              	.LBB303:
 1685              	.LBB304:
 1686              	.LBB305:
 1687              	.LBB306:
 1688              	.LBB307:
 1689              		.loc 5 147 0 is_stmt 1
 1690 0758 4FF08043 		mov	r3, #1073741824
 1691 075c 5B6A     		ldr	r3, [r3, #36]
 1692              	.LVL158:
 1693              	.LBE307:
 1694              	.LBE306:
 1695              	.LBE305:
 1696              	.LBE304:
 1697              	.LBE303:
 1698              	.LBB308:
ARM GAS  C:\Users\RAKIBU~1\AppData\Local\Temp\cc9gl9i2.s 			page 31


 1699              	.LBB309:
 1700              	.LBB310:
 1701              		.file 6 "../../../ChibiOSRepo/chibios191/os/rt/include/chtime.h"
 1702              		.loc 6 484 0
 1703 075e 9B1B     		subs	r3, r3, r6
 1704              	.LVL159:
 1705              	.LBE310:
 1706              	.LBE309:
 1707              	.LBE308:
 1708              		.loc 1 771 0
 1709 0760 41F28732 		movw	r2, #4999
 1710 0764 9342     		cmp	r3, r2
 1711 0766 D0D8     		bhi	.L126
 1712              	.LBB311:
 1713              	.LBB296:
 1714              	.LBB295:
 1715              		.loc 3 367 0
 1716 0768 FFF7FEFF 		bl	_dbg_check_unlock
 1717              	.LVL160:
 1718              		.loc 3 368 0
 1719 076c FFF7FEFF 		bl	_stats_stop_measure_crit_thd
 1720              	.LVL161:
 1721              		.loc 3 374 0
 1722 0770 174B     		ldr	r3, .L127
 1723 0772 1A68     		ldr	r2, [r3]
 1724 0774 9A42     		cmp	r2, r3
 1725 0776 DDD0     		beq	.L121
 1726 0778 9B69     		ldr	r3, [r3, #24]
 1727 077a 9968     		ldr	r1, [r3, #8]
 1728 077c 9368     		ldr	r3, [r2, #8]
 1729 077e 9942     		cmp	r1, r3
 1730 0780 D8D2     		bcs	.L121
 1731 0782 1448     		ldr	r0, .L127+4
 1732 0784 FFF7FEFF 		bl	chSysHalt
 1733              	.LVL162:
 1734 0788 D4E7     		b	.L121
 1735              	.L117:
 1736              	.LBE295:
 1737              	.LBE296:
 1738              	.LBE311:
 1739              		.loc 1 780 0
 1740 078a 6368     		ldr	r3, [r4, #4]
 1741 078c 43F40073 		orr	r3, r3, #512
 1742 0790 6360     		str	r3, [r4, #4]
 1743              		.loc 1 781 0
 1744 0792 2368     		ldr	r3, [r4]
 1745 0794 43F4A063 		orr	r3, r3, #1280
 1746 0798 2360     		str	r3, [r4]
 1747              	.LVL163:
 1748              	.LBB312:
 1749              	.LBB313:
 1750              		.loc 4 760 0
 1751 079a DDE90623 		ldrd	r2, [sp, #24]
 1752 079e 05F11C00 		add	r0, r5, #28
 1753              	.LVL164:
 1754 07a2 FFF7FEFF 		bl	chThdSuspendTimeoutS
 1755              	.LVL165:
ARM GAS  C:\Users\RAKIBU~1\AppData\Local\Temp\cc9gl9i2.s 			page 32


 1756              	.LBE313:
 1757              	.LBE312:
 1758              		.loc 1 785 0
 1759 07a6 0146     		mov	r1, r0
 1760 07a8 0028     		cmp	r0, #0
 1761 07aa C1D0     		beq	.L114
 1762              		.loc 1 786 0
 1763 07ac EB6A     		ldr	r3, [r5, #44]
 1764 07ae 1A68     		ldr	r2, [r3]
 1765 07b0 1368     		ldr	r3, [r2]
 1766 07b2 23F01F03 		bic	r3, r3, #31
 1767 07b6 1360     		str	r3, [r2]
 1768              	.L123:
 1769              		.loc 1 786 0 is_stmt 0 discriminator 2
 1770 07b8 EB6A     		ldr	r3, [r5, #44]
 1771 07ba 1A68     		ldr	r2, [r3]
 1772 07bc 1268     		ldr	r2, [r2]
 1773 07be 12F0010F 		tst	r2, #1
 1774 07c2 F9D1     		bne	.L123
 1775              		.loc 1 786 0 discriminator 3
 1776 07c4 587A     		ldrb	r0, [r3, #9]	@ zero_extendqisi2
 1777 07c6 5A68     		ldr	r2, [r3, #4]
 1778 07c8 3D23     		movs	r3, #61
 1779 07ca 8340     		lsls	r3, r3, r0
 1780 07cc 1360     		str	r3, [r2]
 1781 07ce AFE7     		b	.L114
 1782              	.L128:
 1783              		.align	2
 1784              	.L127:
 1785 07d0 00000000 		.word	ch
 1786 07d4 3C000000 		.word	.LANCHOR0+60
 1787              		.cfi_endproc
 1788              	.LFE340:
 1789              		.size	i2c_lld_master_receive_timeout, .-i2c_lld_master_receive_timeout
 1790              		.align	1
 1791 07d8 AFF30080 		.p2align 4,,15
 1791      AFF30080 
 1792              		.global	i2c_lld_master_transmit_timeout
 1793              		.syntax unified
 1794              		.thumb
 1795              		.thumb_func
 1796              		.fpu softvfp
 1797              		.type	i2c_lld_master_transmit_timeout, %function
 1798              	i2c_lld_master_transmit_timeout:
 1799              	.LFB341:
 1800              		.loc 1 820 0 is_stmt 1
 1801              		.cfi_startproc
 1802              		@ args = 16, pretend = 0, frame = 0
 1803              		@ frame_needed = 0, uses_anonymous_args = 0
 1804              	.LVL166:
 1805 07e0 F8B5     		push	{r3, r4, r5, r6, r7, lr}
 1806              		.cfi_def_cfa_offset 24
 1807              		.cfi_offset 3, -24
 1808              		.cfi_offset 4, -20
 1809              		.cfi_offset 5, -16
 1810              		.cfi_offset 6, -12
 1811              		.cfi_offset 7, -8
ARM GAS  C:\Users\RAKIBU~1\AppData\Local\Temp\cc9gl9i2.s 			page 33


 1812              		.cfi_offset 14, -4
 1813 07e2 0446     		mov	r4, r0
 1814 07e4 1746     		mov	r7, r2
 1815 07e6 1E46     		mov	r6, r3
 1816              		.loc 1 821 0
 1817 07e8 456B     		ldr	r5, [r0, #52]
 1818              	.LVL167:
 1819              		.loc 1 830 0
 1820 07ea 0023     		movs	r3, #0
 1821              	.LVL168:
 1822 07ec 8360     		str	r3, [r0, #8]
 1823              		.loc 1 833 0
 1824 07ee 4900     		lsls	r1, r1, #1
 1825              	.LVL169:
 1826 07f0 0184     		strh	r1, [r0, #32]	@ movhi
 1827              	.LBB349:
 1828              	.LBB350:
 1829              	.LBB351:
 1830              		.loc 3 367 0
 1831 07f2 FFF7FEFF 		bl	_dbg_check_unlock
 1832              	.LVL170:
 1833              		.loc 3 368 0
 1834 07f6 FFF7FEFF 		bl	_stats_stop_measure_crit_thd
 1835              	.LVL171:
 1836              		.loc 3 374 0
 1837 07fa 574B     		ldr	r3, .L144
 1838 07fc 1A68     		ldr	r2, [r3]
 1839 07fe 9A42     		cmp	r2, r3
 1840 0800 04D0     		beq	.L130
 1841 0802 9B69     		ldr	r3, [r3, #24]
 1842 0804 9968     		ldr	r1, [r3, #8]
 1843 0806 9368     		ldr	r3, [r2, #8]
 1844 0808 9942     		cmp	r1, r3
 1845 080a 1CD3     		bcc	.L142
 1846              	.L130:
 1847              	.LVL172:
 1848              	.LBB352:
 1849              	.LBB353:
 1850              	.LBB354:
 1851              		.loc 2 493 0
 1852 080c 0023     		movs	r3, #0
 1853              		.syntax unified
 1854              	@ 493 "../../../ChibiOSRepo/chibios191/os/common/ext/ARM/CMSIS/Core/Include/cmsis_gcc.h" 1
 1855 080e 83F31188 		MSR basepri, r3
 1856              	@ 0 "" 2
 1857              	.LVL173:
 1858              		.thumb
 1859              		.syntax unified
 1860              	.LBE354:
 1861              	.LBE353:
 1862              	.LBE352:
 1863              	.LBE351:
 1864              	.LBE350:
 1865              	.LBE349:
 1866              		.loc 1 839 0
 1867 0812 236B     		ldr	r3, [r4, #48]
 1868 0814 1B68     		ldr	r3, [r3]
ARM GAS  C:\Users\RAKIBU~1\AppData\Local\Temp\cc9gl9i2.s 			page 34


 1869 0816 A26A     		ldr	r2, [r4, #40]
 1870 0818 1A60     		str	r2, [r3]
 1871              		.loc 1 840 0
 1872 081a 236B     		ldr	r3, [r4, #48]
 1873 081c 1B68     		ldr	r3, [r3]
 1874 081e DF60     		str	r7, [r3, #12]
 1875              		.loc 1 841 0
 1876 0820 236B     		ldr	r3, [r4, #48]
 1877 0822 1B68     		ldr	r3, [r3]
 1878 0824 5E60     		str	r6, [r3, #4]
 1879              		.loc 1 844 0
 1880 0826 E36A     		ldr	r3, [r4, #44]
 1881 0828 1B68     		ldr	r3, [r3]
 1882 082a 626A     		ldr	r2, [r4, #36]
 1883 082c 1A60     		str	r2, [r3]
 1884              		.loc 1 845 0
 1885 082e E36A     		ldr	r3, [r4, #44]
 1886 0830 1B68     		ldr	r3, [r3]
 1887 0832 069A     		ldr	r2, [sp, #24]
 1888 0834 DA60     		str	r2, [r3, #12]
 1889              		.loc 1 846 0
 1890 0836 E36A     		ldr	r3, [r4, #44]
 1891 0838 1B68     		ldr	r3, [r3]
 1892 083a 079A     		ldr	r2, [sp, #28]
 1893 083c 5A60     		str	r2, [r3, #4]
 1894              	.LBB357:
 1895              	.LBB358:
 1896              	.LBB359:
 1897              	.LBB360:
 1898              	.LBB361:
 1899              		.loc 5 147 0
 1900 083e 4FF08043 		mov	r3, #1073741824
 1901 0842 5E6A     		ldr	r6, [r3, #36]
 1902              	.LVL174:
 1903 0844 2CE0     		b	.L138
 1904              	.LVL175:
 1905              	.L142:
 1906              	.LBE361:
 1907              	.LBE360:
 1908              	.LBE359:
 1909              	.LBE358:
 1910              	.LBE357:
 1911              	.LBB362:
 1912              	.LBB356:
 1913              	.LBB355:
 1914              		.loc 3 374 0
 1915 0846 4548     		ldr	r0, .L144+4
 1916 0848 FFF7FEFF 		bl	chSysHalt
 1917              	.LVL176:
 1918 084c DEE7     		b	.L130
 1919              	.LVL177:
 1920              	.L143:
 1921              	.LBE355:
 1922              	.LBE356:
 1923              	.LBE362:
 1924              		.loc 1 865 0
 1925 084e 236B     		ldr	r3, [r4, #48]
ARM GAS  C:\Users\RAKIBU~1\AppData\Local\Temp\cc9gl9i2.s 			page 35


 1926 0850 1A68     		ldr	r2, [r3]
 1927 0852 1368     		ldr	r3, [r2]
 1928 0854 23F01F03 		bic	r3, r3, #31
 1929 0858 1360     		str	r3, [r2]
 1930              	.L134:
 1931              		.loc 1 865 0 is_stmt 0 discriminator 2
 1932 085a 236B     		ldr	r3, [r4, #48]
 1933 085c 1A68     		ldr	r2, [r3]
 1934 085e 1268     		ldr	r2, [r2]
 1935 0860 12F0010F 		tst	r2, #1
 1936 0864 F9D1     		bne	.L134
 1937              		.loc 1 865 0 discriminator 3
 1938 0866 597A     		ldrb	r1, [r3, #9]	@ zero_extendqisi2
 1939 0868 5A68     		ldr	r2, [r3, #4]
 1940 086a 3D23     		movs	r3, #61
 1941 086c 8B40     		lsls	r3, r3, r1
 1942 086e 1360     		str	r3, [r2]
 1943              		.loc 1 866 0 is_stmt 1 discriminator 3
 1944 0870 E36A     		ldr	r3, [r4, #44]
 1945 0872 1A68     		ldr	r2, [r3]
 1946 0874 1368     		ldr	r3, [r2]
 1947 0876 23F01F03 		bic	r3, r3, #31
 1948 087a 1360     		str	r3, [r2]
 1949              	.L135:
 1950              		.loc 1 866 0 is_stmt 0 discriminator 2
 1951 087c E36A     		ldr	r3, [r4, #44]
 1952 087e 1A68     		ldr	r2, [r3]
 1953 0880 1268     		ldr	r2, [r2]
 1954 0882 12F0010F 		tst	r2, #1
 1955 0886 F9D1     		bne	.L135
 1956              		.loc 1 866 0 discriminator 3
 1957 0888 597A     		ldrb	r1, [r3, #9]	@ zero_extendqisi2
 1958 088a 5A68     		ldr	r2, [r3, #4]
 1959 088c 3D23     		movs	r3, #61
 1960 088e 8B40     		lsls	r3, r3, r1
 1961 0890 1360     		str	r3, [r2]
 1962              		.loc 1 867 0 is_stmt 1 discriminator 3
 1963 0892 4FF0FF31 		mov	r1, #-1
 1964              	.L129:
 1965              		.loc 1 885 0
 1966 0896 0846     		mov	r0, r1
 1967 0898 F8BD     		pop	{r3, r4, r5, r6, r7, pc}
 1968              	.LVL178:
 1969              	.L137:
 1970              	.LBB363:
 1971              	.LBB364:
 1972              	.LBB365:
 1973              	.LBB366:
 1974              	.LBB367:
 1975              	.LBB368:
 1976              		.loc 2 493 0
 1977 089a 0023     		movs	r3, #0
 1978              		.syntax unified
 1979              	@ 493 "../../../ChibiOSRepo/chibios191/os/common/ext/ARM/CMSIS/Core/Include/cmsis_gcc.h" 1
 1980 089c 83F31188 		MSR basepri, r3
 1981              	@ 0 "" 2
 1982              	.LVL179:
ARM GAS  C:\Users\RAKIBU~1\AppData\Local\Temp\cc9gl9i2.s 			page 36


 1983              		.thumb
 1984              		.syntax unified
 1985              	.L138:
 1986              	.LBE368:
 1987              	.LBE367:
 1988              	.LBE366:
 1989              	.LBE365:
 1990              	.LBE364:
 1991              	.LBE363:
 1992              	.LBB371:
 1993              	.LBB372:
 1994              	.LBB373:
 1995              	.LBB374:
 1996              	.LBB375:
 1997              	.LBB376:
 1998 08a0 2023     		movs	r3, #32
 1999              		.syntax unified
 2000              	@ 493 "../../../ChibiOSRepo/chibios191/os/common/ext/ARM/CMSIS/Core/Include/cmsis_gcc.h" 1
 2001 08a2 83F31188 		MSR basepri, r3
 2002              	@ 0 "" 2
 2003              	.LVL180:
 2004              		.thumb
 2005              		.syntax unified
 2006              	.LBE376:
 2007              	.LBE375:
 2008              	.LBE374:
 2009              		.loc 3 356 0
 2010 08a6 FFF7FEFF 		bl	_stats_start_measure_crit_thd
 2011              	.LVL181:
 2012              		.loc 3 357 0
 2013 08aa FFF7FEFF 		bl	_dbg_check_lock
 2014              	.LVL182:
 2015              	.LBE373:
 2016              	.LBE372:
 2017              	.LBE371:
 2018              		.loc 1 859 0
 2019 08ae AB69     		ldr	r3, [r5, #24]
 2020 08b0 13F0020F 		tst	r3, #2
 2021 08b4 03D1     		bne	.L131
 2022              		.loc 1 859 0 is_stmt 0 discriminator 1
 2023 08b6 2B68     		ldr	r3, [r5]
 2024 08b8 13F4007F 		tst	r3, #512
 2025 08bc 18D0     		beq	.L132
 2026              	.L131:
 2027              	.LBB377:
 2028              	.LBB378:
 2029              	.LBB379:
 2030              	.LBB380:
 2031              	.LBB381:
 2032              		.loc 5 147 0 is_stmt 1
 2033 08be 4FF08043 		mov	r3, #1073741824
 2034 08c2 5B6A     		ldr	r3, [r3, #36]
 2035              	.LVL183:
 2036              	.LBE381:
 2037              	.LBE380:
 2038              	.LBE379:
 2039              	.LBE378:
ARM GAS  C:\Users\RAKIBU~1\AppData\Local\Temp\cc9gl9i2.s 			page 37


 2040              	.LBE377:
 2041              	.LBB382:
 2042              	.LBB383:
 2043              	.LBB384:
 2044              		.loc 6 484 0
 2045 08c4 9B1B     		subs	r3, r3, r6
 2046              	.LVL184:
 2047              	.LBE384:
 2048              	.LBE383:
 2049              	.LBE382:
 2050              		.loc 1 864 0
 2051 08c6 41F28732 		movw	r2, #4999
 2052 08ca 9342     		cmp	r3, r2
 2053 08cc BFD8     		bhi	.L143
 2054              	.LBB385:
 2055              	.LBB370:
 2056              	.LBB369:
 2057              		.loc 3 367 0
 2058 08ce FFF7FEFF 		bl	_dbg_check_unlock
 2059              	.LVL185:
 2060              		.loc 3 368 0
 2061 08d2 FFF7FEFF 		bl	_stats_stop_measure_crit_thd
 2062              	.LVL186:
 2063              		.loc 3 374 0
 2064 08d6 204B     		ldr	r3, .L144
 2065 08d8 1A68     		ldr	r2, [r3]
 2066 08da 9A42     		cmp	r2, r3
 2067 08dc DDD0     		beq	.L137
 2068 08de 9B69     		ldr	r3, [r3, #24]
 2069 08e0 9968     		ldr	r1, [r3, #8]
 2070 08e2 9368     		ldr	r3, [r2, #8]
 2071 08e4 9942     		cmp	r1, r3
 2072 08e6 D8D2     		bcs	.L137
 2073 08e8 1C48     		ldr	r0, .L144+4
 2074 08ea FFF7FEFF 		bl	chSysHalt
 2075              	.LVL187:
 2076 08ee D4E7     		b	.L137
 2077              	.L132:
 2078              	.LBE369:
 2079              	.LBE370:
 2080              	.LBE385:
 2081              		.loc 1 874 0
 2082 08f0 6B68     		ldr	r3, [r5, #4]
 2083 08f2 43F40073 		orr	r3, r3, #512
 2084 08f6 6B60     		str	r3, [r5, #4]
 2085              		.loc 1 875 0
 2086 08f8 2B68     		ldr	r3, [r5]
 2087 08fa 43F48073 		orr	r3, r3, #256
 2088 08fe 2B60     		str	r3, [r5]
 2089              	.LVL188:
 2090              	.LBB386:
 2091              	.LBB387:
 2092              		.loc 4 760 0
 2093 0900 DDE90823 		ldrd	r2, [sp, #32]
 2094 0904 04F11C00 		add	r0, r4, #28
 2095              	.LVL189:
 2096 0908 FFF7FEFF 		bl	chThdSuspendTimeoutS
ARM GAS  C:\Users\RAKIBU~1\AppData\Local\Temp\cc9gl9i2.s 			page 38


 2097              	.LVL190:
 2098              	.LBE387:
 2099              	.LBE386:
 2100              		.loc 1 879 0
 2101 090c 0146     		mov	r1, r0
 2102 090e 0028     		cmp	r0, #0
 2103 0910 C1D0     		beq	.L129
 2104              		.loc 1 880 0
 2105 0912 236B     		ldr	r3, [r4, #48]
 2106 0914 1A68     		ldr	r2, [r3]
 2107 0916 1368     		ldr	r3, [r2]
 2108 0918 23F01F03 		bic	r3, r3, #31
 2109 091c 1360     		str	r3, [r2]
 2110              	.L139:
 2111              		.loc 1 880 0 is_stmt 0 discriminator 2
 2112 091e 236B     		ldr	r3, [r4, #48]
 2113 0920 1A68     		ldr	r2, [r3]
 2114 0922 1268     		ldr	r2, [r2]
 2115 0924 12F0010F 		tst	r2, #1
 2116 0928 F9D1     		bne	.L139
 2117              		.loc 1 880 0 discriminator 3
 2118 092a 587A     		ldrb	r0, [r3, #9]	@ zero_extendqisi2
 2119 092c 5A68     		ldr	r2, [r3, #4]
 2120 092e 3D23     		movs	r3, #61
 2121 0930 8340     		lsls	r3, r3, r0
 2122 0932 1360     		str	r3, [r2]
 2123              		.loc 1 881 0 is_stmt 1 discriminator 3
 2124 0934 E36A     		ldr	r3, [r4, #44]
 2125 0936 1A68     		ldr	r2, [r3]
 2126 0938 1368     		ldr	r3, [r2]
 2127 093a 23F01F03 		bic	r3, r3, #31
 2128 093e 1360     		str	r3, [r2]
 2129              	.L140:
 2130              		.loc 1 881 0 is_stmt 0 discriminator 2
 2131 0940 E36A     		ldr	r3, [r4, #44]
 2132 0942 1A68     		ldr	r2, [r3]
 2133 0944 1268     		ldr	r2, [r2]
 2134 0946 12F0010F 		tst	r2, #1
 2135 094a F9D1     		bne	.L140
 2136              		.loc 1 881 0 discriminator 3
 2137 094c 587A     		ldrb	r0, [r3, #9]	@ zero_extendqisi2
 2138 094e 5A68     		ldr	r2, [r3, #4]
 2139 0950 3D23     		movs	r3, #61
 2140 0952 8340     		lsls	r3, r3, r0
 2141 0954 1360     		str	r3, [r2]
 2142 0956 9EE7     		b	.L129
 2143              	.L145:
 2144              		.align	2
 2145              	.L144:
 2146 0958 00000000 		.word	ch
 2147 095c 3C000000 		.word	.LANCHOR0+60
 2148              		.cfi_endproc
 2149              	.LFE341:
 2150              		.size	i2c_lld_master_transmit_timeout, .-i2c_lld_master_transmit_timeout
 2151              		.comm	I2CD1,56,4
 2152              		.section	.rodata
 2153              		.align	2
ARM GAS  C:\Users\RAKIBU~1\AppData\Local\Temp\cc9gl9i2.s 			page 39


 2154              		.set	.LANCHOR0,. + 0
 2155              		.type	__func__.8984, %object
 2156              		.size	__func__.8984, 18
 2157              	__func__.8984:
 2158 0000 6932635F 		.ascii	"i2c_lld_set_clock\000"
 2158      6C6C645F 
 2158      7365745F 
 2158      636C6F63 
 2158      6B00
 2159 0012 0000     		.space	2
 2160              		.type	__func__.9038, %object
 2161              		.size	__func__.9038, 9
 2162              	__func__.9038:
 2163 0014 56656374 		.ascii	"VectorBC\000"
 2163      6F724243 
 2163      00
 2164 001d 000000   		.space	3
 2165              		.type	__func__.9043, %object
 2166              		.size	__func__.9043, 9
 2167              	__func__.9043:
 2168 0020 56656374 		.ascii	"VectorC0\000"
 2168      6F724330 
 2168      00
 2169 0029 000000   		.space	3
 2170              		.type	__func__.9051, %object
 2171              		.size	__func__.9051, 14
 2172              	__func__.9051:
 2173 002c 6932635F 		.ascii	"i2c_lld_start\000"
 2173      6C6C645F 
 2173      73746172 
 2173      7400
 2174 003a 0000     		.space	2
 2175              		.type	__func__.6118, %object
 2176              		.size	__func__.6118, 12
 2177              	__func__.6118:
 2178 003c 63685379 		.ascii	"chSysUnlock\000"
 2178      73556E6C 
 2178      6F636B00 
 2179              		.section	.rodata.str1.4,"aMS",%progbits,1
 2180              		.align	2
 2181              	.LC0:
 2182 0000 444D4120 		.ascii	"DMA failure\000"
 2182      6661696C 
 2182      75726500 
 2183              		.text
 2184              	.Letext0:
 2185              		.file 7 "c:\\chibistudio\\tools\\gnu tools arm embedded\\7.0 2017q4\\lib\\gcc\\arm-none-eabi\\7.2.
 2186              		.file 8 "c:\\chibistudio\\tools\\gnu tools arm embedded\\7.0 2017q4\\arm-none-eabi\\include\\machi
 2187              		.file 9 "c:\\chibistudio\\tools\\gnu tools arm embedded\\7.0 2017q4\\arm-none-eabi\\include\\sys\\
 2188              		.file 10 "c:\\chibistudio\\tools\\gnu tools arm embedded\\7.0 2017q4\\arm-none-eabi\\include\\stdi
 2189              		.file 11 "../../../ChibiOSRepo/chibios191/os/common/ports/ARMCMx/compilers/GCC/chtypes.h"
 2190              		.file 12 "../../../ChibiOSRepo/chibios191/os/rt/include/chsystypes.h"
 2191              		.file 13 "../../../ChibiOSRepo/chibios191/os/rt/include/chschd.h"
 2192              		.file 14 "../../../ChibiOSRepo/chibios191/os/common/ext/ARM/CMSIS/Core/Include/core_cm4.h"
 2193              		.file 15 "../../../ChibiOSRepo/chibios191/os/common/ext/ST/STM32F4xx/system_stm32f4xx.h"
 2194              		.file 16 "../../../ChibiOSRepo/chibios191/os/common/ext/ST/STM32F4xx/stm32f407xx.h"
 2195              		.file 17 "../../../ChibiOSRepo/chibios191/os/common/ports/ARMCMx/chcore.h"
ARM GAS  C:\Users\RAKIBU~1\AppData\Local\Temp\cc9gl9i2.s 			page 40


 2196              		.file 18 "../../../ChibiOSRepo/chibios191/os/common/ports/ARMCMx/chcore_v7m.h"
 2197              		.file 19 "../../../ChibiOSRepo/chibios191/os/hal/ports/STM32/LLD/TIMv1/stm32_tim.h"
 2198              		.file 20 "../../../ChibiOSRepo/chibios191/os/rt/include/chtrace.h"
 2199              		.file 21 "../../../ChibiOSRepo/chibios191/os/rt/include/chtm.h"
 2200              		.file 22 "../../../ChibiOSRepo/chibios191/os/rt/include/chstats.h"
 2201              		.file 23 "../../../ChibiOSRepo/chibios191/os/rt/include/chsem.h"
 2202              		.file 24 "../../../ChibiOSRepo/chibios191/os/rt/include/chmtx.h"
 2203              		.file 25 "../../../ChibiOSRepo/chibios191/os/rt/include/chregistry.h"
 2204              		.file 26 "../../../ChibiOSRepo/chibios191/os/rt/include/chevents.h"
 2205              		.file 27 "../../../ChibiOSRepo/chibios191/os/oslib/include/chmemcore.h"
 2206              		.file 28 "../../../ChibiOSRepo/chibios191/os/oslib/include/chmempools.h"
 2207              		.file 29 "../../../ChibiOSRepo/chibios191/os/oslib/include/chfactory.h"
 2208              		.file 30 "../../../ChibiOSRepo/chibios191/os/hal/ports/STM32/LLD/DMAv2/stm32_dma.h"
 2209              		.file 31 "../../../ChibiOSRepo/chibios191/os/hal/include/hal_ioblock.h"
 2210              		.file 32 "../../../ChibiOSRepo/chibios191/os/hal/include/hal_persistent.h"
 2211              		.file 33 "../../../ChibiOSRepo/chibios191/os/hal/include/hal_queues.h"
 2212              		.file 34 "../../../ChibiOSRepo/chibios191/os/hal/include/hal_pal.h"
 2213              		.file 35 "../../../ChibiOSRepo/chibios191/os/hal/ports/STM32/LLD/GPIOv2/stm32_gpio.h"
 2214              		.file 36 "../../../ChibiOSRepo/chibios191/os/hal/ports/STM32/LLD/GPIOv2/hal_pal_lld.h"
 2215              		.file 37 "../../../ChibiOSRepo/chibios191/os/hal/include/hal_gpt.h"
 2216              		.file 38 "../../../ChibiOSRepo/chibios191/os/hal/ports/STM32/LLD/TIMv1/hal_gpt_lld.h"
 2217              		.file 39 "../../../ChibiOSRepo/chibios191/os/hal/include/hal_i2c.h"
 2218              		.file 40 "../../../ChibiOSRepo/chibios191/os/hal/ports/STM32/LLD/I2Cv1/hal_i2c_lld.h"
 2219              		.file 41 "c:\\chibistudio\\tools\\gnu tools arm embedded\\7.0 2017q4\\arm-none-eabi\\include\\sys\
 2220              		.file 42 "c:\\chibistudio\\tools\\gnu tools arm embedded\\7.0 2017q4\\arm-none-eabi\\include\\sys\
 2221              		.file 43 "c:\\chibistudio\\tools\\gnu tools arm embedded\\7.0 2017q4\\arm-none-eabi\\include\\sys\
 2222              		.file 44 "c:\\chibistudio\\tools\\gnu tools arm embedded\\7.0 2017q4\\arm-none-eabi\\include\\time
 2223              		.file 45 "../../../ChibiOSRepo/chibios191/os/hal/include/hal_rtc.h"
 2224              		.file 46 "../../../ChibiOSRepo/chibios191/os/hal/ports/STM32/LLD/RTCv2/hal_rtc_lld.h"
 2225              		.file 47 "../../../ChibiOSRepo/chibios191/os/hal/include/hal_serial.h"
 2226              		.file 48 "../../../ChibiOSRepo/chibios191/os/hal/ports/STM32/LLD/USARTv1/hal_serial_lld.h"
 2227              		.file 49 "../../../ChibiOSRepo/chibios191/os/hal/include/hal_sdc.h"
 2228              		.file 50 "../../../ChibiOSRepo/chibios191/os/hal/ports/STM32/LLD/SDIOv1/hal_sdc_lld.h"
 2229              		.file 51 "../../../ChibiOSRepo/chibios191/os/hal/include/hal_spi.h"
 2230              		.file 52 "../../../ChibiOSRepo/chibios191/os/hal/ports/STM32/LLD/SPIv1/hal_spi_lld.h"
 2231              		.file 53 "../../../ChibiOSRepo/chibios191/os/rt/include/chvt.h"
 2232              		.file 54 "../../../ChibiOSRepo/chibios191/os/common/ports/ARMCMx/chcore_timer.h"
 2233              		.file 55 "../../../ChibiOSRepo/chibios191/os/rt/include/chdebug.h"
 2234              		.file 56 "../../../ChibiOSRepo/chibios191/os/rt/include/ch.h"
 2235              		.file 57 "../../../ChibiOSRepo/chibios191/os/rt/include/chthreads.h"
 2236              		.file 58 "../../../ChibiOSRepo/chibios191/os/hal/ports/common/ARMCMx/nvic.h"