ARM GAS  C:\Users\RAKIBU~1\AppData\Local\Temp\ccohyvl5.s 			page 1


   1              		.cpu cortex-m4
   2              		.eabi_attribute 20, 1
   3              		.eabi_attribute 21, 1
   4              		.eabi_attribute 23, 3
   5              		.eabi_attribute 24, 1
   6              		.eabi_attribute 25, 1
   7              		.eabi_attribute 26, 1
   8              		.eabi_attribute 30, 1
   9              		.eabi_attribute 34, 1
  10              		.eabi_attribute 18, 4
  11              		.file	"hal_lld.c"
  12              		.text
  13              	.Ltext0:
  14              		.cfi_sections	.debug_frame
  15              		.align	1
  16              		.p2align 4,,15
  17              		.syntax unified
  18              		.thumb
  19              		.thumb_func
  20              		.fpu softvfp
  21              		.type	hal_lld_backup_domain_init, %function
  22              	hal_lld_backup_domain_init:
  23              	.LFB328:
  24              		.file 1 "../../../ChibiOSRepo/chibios191/os/hal/ports/STM32/STM32F4xx/hal_lld.c"
  25              		.loc 1 54 0
  26              		.cfi_startproc
  27              		@ args = 0, pretend = 0, frame = 0
  28              		@ frame_needed = 0, uses_anonymous_args = 0
  29              		@ link register save eliminated.
  30              		.loc 1 57 0
  31 0000 124A     		ldr	r2, .L4
  32 0002 1368     		ldr	r3, [r2]
  33 0004 43F48073 		orr	r3, r3, #256
  34 0008 1360     		str	r3, [r2]
  35              		.loc 1 60 0
  36 000a 114B     		ldr	r3, .L4+4
  37 000c 1B6F     		ldr	r3, [r3, #112]
  38 000e 03F44073 		and	r3, r3, #768
  39 0012 B3F5007F 		cmp	r3, #512
  40 0016 05D0     		beq	.L2
  41              		.loc 1 62 0
  42 0018 0D4B     		ldr	r3, .L4+4
  43 001a 4FF48032 		mov	r2, #65536
  44 001e 1A67     		str	r2, [r3, #112]
  45              		.loc 1 63 0
  46 0020 0022     		movs	r2, #0
  47 0022 1A67     		str	r2, [r3, #112]
  48              	.L2:
  49              		.loc 1 81 0
  50 0024 0A4B     		ldr	r3, .L4+4
  51 0026 1B6F     		ldr	r3, [r3, #112]
  52 0028 13F4004F 		tst	r3, #32768
  53 002c 08D1     		bne	.L3
  54              		.loc 1 83 0
  55 002e 084B     		ldr	r3, .L4+4
  56 0030 1A6F     		ldr	r2, [r3, #112]
  57 0032 42F40072 		orr	r2, r2, #512
ARM GAS  C:\Users\RAKIBU~1\AppData\Local\Temp\ccohyvl5.s 			page 2


  58 0036 1A67     		str	r2, [r3, #112]
  59              		.loc 1 86 0
  60 0038 1A6F     		ldr	r2, [r3, #112]
  61 003a 42F40042 		orr	r2, r2, #32768
  62 003e 1A67     		str	r2, [r3, #112]
  63              	.L3:
  64              		.loc 1 97 0
  65 0040 024A     		ldr	r2, .L4
  66 0042 5368     		ldr	r3, [r2, #4]
  67 0044 23F40073 		bic	r3, r3, #512
  68 0048 5360     		str	r3, [r2, #4]
  69              		.loc 1 99 0
  70 004a 7047     		bx	lr
  71              	.L5:
  72              		.align	2
  73              	.L4:
  74 004c 00700040 		.word	1073770496
  75 0050 00380240 		.word	1073887232
  76              		.cfi_endproc
  77              	.LFE328:
  78              		.size	hal_lld_backup_domain_init, .-hal_lld_backup_domain_init
  79              		.align	1
  80 0054 AFF30080 		.p2align 4,,15
  80      AFF30080 
  80      AFF30080 
  81              		.global	hal_lld_init
  82              		.syntax unified
  83              		.thumb
  84              		.thumb_func
  85              		.fpu softvfp
  86              		.type	hal_lld_init, %function
  87              	hal_lld_init:
  88              	.LFB329:
  89              		.loc 1 114 0
  90              		.cfi_startproc
  91              		@ args = 0, pretend = 0, frame = 0
  92              		@ frame_needed = 0, uses_anonymous_args = 0
  93 0060 08B5     		push	{r3, lr}
  94              		.cfi_def_cfa_offset 8
  95              		.cfi_offset 3, -8
  96              		.cfi_offset 14, -4
  97              		.loc 1 120 0
  98 0062 194B     		ldr	r3, .L8
  99 0064 1A69     		ldr	r2, [r3, #16]
 100 0066 6FEAC252 		mvn	r2, r2, lsl #23
 101 006a 6FEAD252 		mvn	r2, r2, lsr #23
 102 006e 1A61     		str	r2, [r3, #16]
 103 0070 1A69     		ldr	r2, [r3, #16]
 104 0072 C2F30802 		ubfx	r2, r2, #0, #9
 105 0076 1A61     		str	r2, [r3, #16]
 106 0078 1A69     		ldr	r2, [r3, #16]
 107              		.loc 1 122 0
 108 007a 5A69     		ldr	r2, [r3, #20]
 109 007c 4FF0FF30 		mov	r0, #-1
 110 0080 5861     		str	r0, [r3, #20]
 111 0082 5A69     		ldr	r2, [r3, #20]
 112 0084 0021     		movs	r1, #0
ARM GAS  C:\Users\RAKIBU~1\AppData\Local\Temp\ccohyvl5.s 			page 3


 113 0086 5961     		str	r1, [r3, #20]
 114 0088 5A69     		ldr	r2, [r3, #20]
 115              		.loc 1 124 0
 116 008a 1A6A     		ldr	r2, [r3, #32]
 117 008c 62F08052 		orn	r2, r2, #268435456
 118 0090 1A62     		str	r2, [r3, #32]
 119 0092 1A6A     		ldr	r2, [r3, #32]
 120 0094 02F08052 		and	r2, r2, #268435456
 121 0098 1A62     		str	r2, [r3, #32]
 122 009a 1A6A     		ldr	r2, [r3, #32]
 123              		.loc 1 125 0
 124 009c 5A6A     		ldr	r2, [r3, #36]
 125 009e 5862     		str	r0, [r3, #36]
 126 00a0 5A6A     		ldr	r2, [r3, #36]
 127 00a2 5962     		str	r1, [r3, #36]
 128 00a4 5A6A     		ldr	r2, [r3, #36]
 129              		.loc 1 128 0
 130 00a6 1A6C     		ldr	r2, [r3, #64]
 131 00a8 42F08052 		orr	r2, r2, #268435456
 132 00ac 1A64     		str	r2, [r3, #64]
 133 00ae 1A6E     		ldr	r2, [r3, #96]
 134 00b0 42F08052 		orr	r2, r2, #268435456
 135 00b4 1A66     		str	r2, [r3, #96]
 136 00b6 1B6E     		ldr	r3, [r3, #96]
 137              		.loc 1 131 0
 138 00b8 FFF7A2FF 		bl	hal_lld_backup_domain_init
 139              	.LVL0:
 140              		.loc 1 135 0
 141 00bc FFF7FEFF 		bl	dmaInit
 142              	.LVL1:
 143              		.loc 1 139 0
 144 00c0 FFF7FEFF 		bl	irqInit
 145              	.LVL2:
 146              		.loc 1 145 0
 147 00c4 08BD     		pop	{r3, pc}
 148              	.L9:
 149 00c6 00BF     		.align	2
 150              	.L8:
 151 00c8 00380240 		.word	1073887232
 152              		.cfi_endproc
 153              	.LFE329:
 154              		.size	hal_lld_init, .-hal_lld_init
 155              		.align	1
 156 00cc AFF30080 		.p2align 4,,15
 157              		.global	stm32_clock_init
 158              		.syntax unified
 159              		.thumb
 160              		.thumb_func
 161              		.fpu softvfp
 162              		.type	stm32_clock_init, %function
 163              	stm32_clock_init:
 164              	.LFB330:
 165              		.loc 1 154 0
 166              		.cfi_startproc
 167              		@ args = 0, pretend = 0, frame = 0
 168              		@ frame_needed = 0, uses_anonymous_args = 0
 169              		@ link register save eliminated.
ARM GAS  C:\Users\RAKIBU~1\AppData\Local\Temp\ccohyvl5.s 			page 4


 170              		.loc 1 161 0
 171 00d0 3B4B     		ldr	r3, .L22
 172 00d2 4FF08052 		mov	r2, #268435456
 173 00d6 1A64     		str	r2, [r3, #64]
 174              		.loc 1 166 0
 175 00d8 3A4A     		ldr	r2, .L22+4
 176 00da 4FF44041 		mov	r1, #49152
 177 00de 1160     		str	r1, [r2]
 178              		.loc 1 173 0
 179 00e0 1A68     		ldr	r2, [r3]
 180 00e2 42F00102 		orr	r2, r2, #1
 181 00e6 1A60     		str	r2, [r3]
 182              	.L11:
 183              		.loc 1 174 0 discriminator 1
 184 00e8 354B     		ldr	r3, .L22
 185 00ea 1B68     		ldr	r3, [r3]
 186 00ec 13F0020F 		tst	r3, #2
 187 00f0 FAD0     		beq	.L11
 188              		.loc 1 180 0
 189 00f2 334A     		ldr	r2, .L22
 190 00f4 9368     		ldr	r3, [r2, #8]
 191 00f6 23F00303 		bic	r3, r3, #3
 192 00fa 9360     		str	r3, [r2, #8]
 193              	.L12:
 194              		.loc 1 181 0 discriminator 1
 195 00fc 304B     		ldr	r3, .L22
 196 00fe 9B68     		ldr	r3, [r3, #8]
 197 0100 13F00C0F 		tst	r3, #12
 198 0104 FAD1     		bne	.L12
 199              		.loc 1 185 0
 200 0106 2E4B     		ldr	r3, .L22
 201 0108 1A68     		ldr	r2, [r3]
 202 010a 02F0F902 		and	r2, r2, #249
 203 010e 1A60     		str	r2, [r3]
 204              		.loc 1 186 0
 205 0110 0022     		movs	r2, #0
 206 0112 9A60     		str	r2, [r3, #8]
 207              		.loc 1 195 0
 208 0114 1A68     		ldr	r2, [r3]
 209 0116 42F48032 		orr	r2, r2, #65536
 210 011a 1A60     		str	r2, [r3]
 211              	.L13:
 212              		.loc 1 197 0 discriminator 1
 213 011c 284B     		ldr	r3, .L22
 214 011e 1B68     		ldr	r3, [r3]
 215 0120 13F4003F 		tst	r3, #131072
 216 0124 FAD0     		beq	.L13
 217              		.loc 1 203 0
 218 0126 264A     		ldr	r2, .L22
 219 0128 536F     		ldr	r3, [r2, #116]
 220 012a 43F00103 		orr	r3, r3, #1
 221 012e 5367     		str	r3, [r2, #116]
 222              	.L14:
 223              		.loc 1 204 0 discriminator 1
 224 0130 234B     		ldr	r3, .L22
 225 0132 5B6F     		ldr	r3, [r3, #116]
 226 0134 13F0020F 		tst	r3, #2
ARM GAS  C:\Users\RAKIBU~1\AppData\Local\Temp\ccohyvl5.s 			page 5


 227 0138 FAD0     		beq	.L14
 228              		.loc 1 210 0
 229 013a 214B     		ldr	r3, .L22
 230 013c 224A     		ldr	r2, .L22+8
 231 013e 5A60     		str	r2, [r3, #4]
 232              		.loc 1 212 0
 233 0140 1A68     		ldr	r2, [r3]
 234 0142 42F08072 		orr	r2, r2, #16777216
 235 0146 1A60     		str	r2, [r3]
 236              	.L15:
 237              		.loc 1 216 0 discriminator 1
 238 0148 1E4B     		ldr	r3, .L22+4
 239 014a 5B68     		ldr	r3, [r3, #4]
 240 014c 13F4804F 		tst	r3, #16384
 241 0150 FAD0     		beq	.L15
 242              	.L16:
 243              		.loc 1 232 0 discriminator 1
 244 0152 1B4B     		ldr	r3, .L22
 245 0154 1B68     		ldr	r3, [r3]
 246 0156 13F0007F 		tst	r3, #33554432
 247 015a FAD0     		beq	.L16
 248              		.loc 1 260 0
 249 015c 184B     		ldr	r3, .L22
 250 015e 1B4A     		ldr	r2, .L22+12
 251 0160 9A60     		str	r2, [r3, #8]
 252              		.loc 1 308 0
 253 0162 1B4B     		ldr	r3, .L22+16
 254 0164 1A68     		ldr	r2, [r3]
 255 0166 1B4B     		ldr	r3, .L22+20
 256 0168 9A42     		cmp	r2, r3
 257 016a 1FD0     		beq	.L21
 258              	.L17:
 259              		.loc 1 311 0
 260 016c 1A4B     		ldr	r3, .L22+24
 261 016e 40F20572 		movw	r2, #1797
 262 0172 1A60     		str	r2, [r3]
 263              	.L19:
 264              		.loc 1 317 0 discriminator 1
 265 0174 184B     		ldr	r3, .L22+24
 266 0176 1B68     		ldr	r3, [r3]
 267 0178 03F00F03 		and	r3, r3, #15
 268 017c 052B     		cmp	r3, #5
 269 017e F9D1     		bne	.L19
 270              		.loc 1 323 0
 271 0180 0F4A     		ldr	r2, .L22
 272 0182 9368     		ldr	r3, [r2, #8]
 273 0184 43F00203 		orr	r3, r3, #2
 274 0188 9360     		str	r3, [r2, #8]
 275              	.L20:
 276              		.loc 1 324 0 discriminator 1
 277 018a 0D4B     		ldr	r3, .L22
 278 018c 9B68     		ldr	r3, [r3, #8]
 279 018e 03F00C03 		and	r3, r3, #12
 280 0192 082B     		cmp	r3, #8
 281 0194 F9D1     		bne	.L20
 282              		.loc 1 331 0
 283 0196 0A4B     		ldr	r3, .L22
ARM GAS  C:\Users\RAKIBU~1\AppData\Local\Temp\ccohyvl5.s 			page 6


 284 0198 5A6C     		ldr	r2, [r3, #68]
 285 019a 42F48042 		orr	r2, r2, #16384
 286 019e 5A64     		str	r2, [r3, #68]
 287 01a0 5A6E     		ldr	r2, [r3, #100]
 288 01a2 42F48042 		orr	r2, r2, #16384
 289 01a6 5A66     		str	r2, [r3, #100]
 290 01a8 5B6E     		ldr	r3, [r3, #100]
 291              		.loc 1 332 0
 292 01aa 7047     		bx	lr
 293              	.L21:
 294              		.loc 1 308 0 discriminator 1
 295 01ac 0B4B     		ldr	r3, .L22+28
 296 01ae 1A68     		ldr	r2, [r3]
 297 01b0 0B4B     		ldr	r3, .L22+32
 298 01b2 9A42     		cmp	r2, r3
 299 01b4 DAD1     		bne	.L17
 300              		.loc 1 309 0
 301 01b6 084B     		ldr	r3, .L22+24
 302 01b8 40F20512 		movw	r2, #261
 303 01bc 1A60     		str	r2, [r3]
 304 01be D9E7     		b	.L19
 305              	.L23:
 306              		.align	2
 307              	.L22:
 308 01c0 00380240 		.word	1073887232
 309 01c4 00700040 		.word	1073770496
 310 01c8 0C544007 		.word	121656332
 311 01cc 00948838 		.word	948474880
 312 01d0 002004E0 		.word	-536600576
 313 01d4 11640020 		.word	536896529
 314 01d8 003C0240 		.word	1073888256
 315 01dc 00ED00E0 		.word	-536810240
 316 01e0 41C20F41 		.word	1091551809
 317              		.cfi_endproc
 318              	.LFE330:
 319              		.size	stm32_clock_init, .-stm32_clock_init
 320              		.global	SystemCoreClock
 321              		.data
 322              		.align	2
 323              		.type	SystemCoreClock, %object
 324              		.size	SystemCoreClock, 4
 325              	SystemCoreClock:
 326 0000 007A030A 		.word	168000000
 327              		.text
 328              	.Letext0:
 329              		.file 2 "c:\\chibistudio\\tools\\gnu tools arm embedded\\7.0 2017q4\\lib\\gcc\\arm-none-eabi\\7.2.
 330              		.file 3 "c:\\chibistudio\\tools\\gnu tools arm embedded\\7.0 2017q4\\arm-none-eabi\\include\\machi
 331              		.file 4 "c:\\chibistudio\\tools\\gnu tools arm embedded\\7.0 2017q4\\arm-none-eabi\\include\\sys\\
 332              		.file 5 "c:\\chibistudio\\tools\\gnu tools arm embedded\\7.0 2017q4\\arm-none-eabi\\include\\stdin
 333              		.file 6 "../../../ChibiOSRepo/chibios191/os/common/ports/ARMCMx/compilers/GCC/chtypes.h"
 334              		.file 7 "../../../ChibiOSRepo/chibios191/os/rt/include/chsystypes.h"
 335              		.file 8 "../../../ChibiOSRepo/chibios191/os/rt/include/chschd.h"
 336              		.file 9 "../../../ChibiOSRepo/chibios191/os/rt/include/chtime.h"
 337              		.file 10 "../../../ChibiOSRepo/chibios191/os/common/ext/ARM/CMSIS/Core/Include/core_cm4.h"
 338              		.file 11 "../../../ChibiOSRepo/chibios191/os/common/ext/ST/STM32F4xx/system_stm32f4xx.h"
 339              		.file 12 "../../../ChibiOSRepo/chibios191/os/common/ext/ST/STM32F4xx/stm32f407xx.h"
 340              		.file 13 "../../../ChibiOSRepo/chibios191/os/common/ports/ARMCMx/chcore.h"
ARM GAS  C:\Users\RAKIBU~1\AppData\Local\Temp\ccohyvl5.s 			page 7


 341              		.file 14 "../../../ChibiOSRepo/chibios191/os/common/ports/ARMCMx/chcore_v7m.h"
 342              		.file 15 "../../../ChibiOSRepo/chibios191/os/hal/ports/STM32/LLD/TIMv1/stm32_tim.h"
 343              		.file 16 "../../../ChibiOSRepo/chibios191/os/rt/include/chtrace.h"
 344              		.file 17 "../../../ChibiOSRepo/chibios191/os/rt/include/chtm.h"
 345              		.file 18 "../../../ChibiOSRepo/chibios191/os/rt/include/chstats.h"
 346              		.file 19 "../../../ChibiOSRepo/chibios191/os/rt/include/chsem.h"
 347              		.file 20 "../../../ChibiOSRepo/chibios191/os/rt/include/chmtx.h"
 348              		.file 21 "../../../ChibiOSRepo/chibios191/os/rt/include/chsys.h"
 349              		.file 22 "../../../ChibiOSRepo/chibios191/os/rt/include/chregistry.h"
 350              		.file 23 "../../../ChibiOSRepo/chibios191/os/rt/include/chevents.h"
 351              		.file 24 "../../../ChibiOSRepo/chibios191/os/oslib/include/chmemcore.h"
 352              		.file 25 "../../../ChibiOSRepo/chibios191/os/oslib/include/chmempools.h"
 353              		.file 26 "../../../ChibiOSRepo/chibios191/os/oslib/include/chfactory.h"
 354              		.file 27 "../../../ChibiOSRepo/chibios191/os/hal/ports/STM32/LLD/DMAv2/stm32_dma.h"
 355              		.file 28 "../../../ChibiOSRepo/chibios191/os/hal/include/hal_ioblock.h"
 356              		.file 29 "../../../ChibiOSRepo/chibios191/os/hal/include/hal_persistent.h"
 357              		.file 30 "../../../ChibiOSRepo/chibios191/os/hal/include/hal_queues.h"
 358              		.file 31 "../../../ChibiOSRepo/chibios191/os/hal/include/hal_pal.h"
 359              		.file 32 "../../../ChibiOSRepo/chibios191/os/hal/ports/STM32/LLD/GPIOv2/stm32_gpio.h"
 360              		.file 33 "../../../ChibiOSRepo/chibios191/os/hal/ports/STM32/LLD/GPIOv2/hal_pal_lld.h"
 361              		.file 34 "../../../ChibiOSRepo/chibios191/os/hal/include/hal_gpt.h"
 362              		.file 35 "../../../ChibiOSRepo/chibios191/os/hal/ports/STM32/LLD/TIMv1/hal_gpt_lld.h"
 363              		.file 36 "../../../ChibiOSRepo/chibios191/os/hal/include/hal_i2c.h"
 364              		.file 37 "../../../ChibiOSRepo/chibios191/os/hal/ports/STM32/LLD/I2Cv1/hal_i2c_lld.h"
 365              		.file 38 "c:\\chibistudio\\tools\\gnu tools arm embedded\\7.0 2017q4\\arm-none-eabi\\include\\sys\
 366              		.file 39 "c:\\chibistudio\\tools\\gnu tools arm embedded\\7.0 2017q4\\arm-none-eabi\\include\\sys\
 367              		.file 40 "c:\\chibistudio\\tools\\gnu tools arm embedded\\7.0 2017q4\\arm-none-eabi\\include\\sys\
 368              		.file 41 "c:\\chibistudio\\tools\\gnu tools arm embedded\\7.0 2017q4\\arm-none-eabi\\include\\time
 369              		.file 42 "../../../ChibiOSRepo/chibios191/os/hal/include/hal_rtc.h"
 370              		.file 43 "../../../ChibiOSRepo/chibios191/os/hal/ports/STM32/LLD/RTCv2/hal_rtc_lld.h"
 371              		.file 44 "../../../ChibiOSRepo/chibios191/os/hal/include/hal_serial.h"
 372              		.file 45 "../../../ChibiOSRepo/chibios191/os/hal/ports/STM32/LLD/USARTv1/hal_serial_lld.h"
 373              		.file 46 "../../../ChibiOSRepo/chibios191/os/hal/include/hal_sdc.h"
 374              		.file 47 "../../../ChibiOSRepo/chibios191/os/hal/ports/STM32/LLD/SDIOv1/hal_sdc_lld.h"
 375              		.file 48 "../../../ChibiOSRepo/chibios191/os/hal/include/hal_spi.h"
 376              		.file 49 "../../../ChibiOSRepo/chibios191/os/hal/ports/STM32/LLD/SPIv1/hal_spi_lld.h"
 377              		.file 50 "../../../ChibiOSRepo/chibios191/os/hal/ports/STM32/STM32F4xx/stm32_isr.h"