ARM GAS  C:\Users\RAKIBU~1\AppData\Local\Temp\ccnnMKTp.s 			page 1


   1              		.cpu cortex-m4
   2              		.eabi_attribute 20, 1
   3              		.eabi_attribute 21, 1
   4              		.eabi_attribute 23, 3
   5              		.eabi_attribute 24, 1
   6              		.eabi_attribute 25, 1
   7              		.eabi_attribute 26, 1
   8              		.eabi_attribute 30, 1
   9              		.eabi_attribute 34, 1
  10              		.eabi_attribute 18, 4
  11              		.file	"hal_spi.c"
  12              		.text
  13              	.Ltext0:
  14              		.cfi_sections	.debug_frame
  15              		.align	1
  16              		.p2align 4,,15
  17              		.global	spiInit
  18              		.syntax unified
  19              		.thumb
  20              		.thumb_func
  21              		.fpu softvfp
  22              		.type	spiInit, %function
  23              	spiInit:
  24              	.LFB328:
  25              		.file 1 "../../../ChibiOSRepo/chibios191/os/hal/src/hal_spi.c"
  26              		.loc 1 56 0
  27              		.cfi_startproc
  28              		@ args = 0, pretend = 0, frame = 0
  29              		@ frame_needed = 0, uses_anonymous_args = 0
  30 0000 08B5     		push	{r3, lr}
  31              		.cfi_def_cfa_offset 8
  32              		.cfi_offset 3, -8
  33              		.cfi_offset 14, -4
  34              		.loc 1 58 0
  35 0002 FFF7FEFF 		bl	spi_lld_init
  36              	.LVL0:
  37              		.loc 1 59 0
  38 0006 08BD     		pop	{r3, pc}
  39              		.cfi_endproc
  40              	.LFE328:
  41              		.size	spiInit, .-spiInit
  42              		.align	1
  43 0008 AFF30080 		.p2align 4,,15
  43      AFF30080 
  44              		.global	spiObjectInit
  45              		.syntax unified
  46              		.thumb
  47              		.thumb_func
  48              		.fpu softvfp
  49              		.type	spiObjectInit, %function
  50              	spiObjectInit:
  51              	.LFB329:
  52              		.loc 1 68 0
  53              		.cfi_startproc
  54              		@ args = 0, pretend = 0, frame = 0
  55              		@ frame_needed = 0, uses_anonymous_args = 0
  56              	.LVL1:
ARM GAS  C:\Users\RAKIBU~1\AppData\Local\Temp\ccnnMKTp.s 			page 2


  57 0010 08B5     		push	{r3, lr}
  58              		.cfi_def_cfa_offset 8
  59              		.cfi_offset 3, -8
  60              		.cfi_offset 14, -4
  61              		.loc 1 70 0
  62 0012 0123     		movs	r3, #1
  63 0014 0370     		strb	r3, [r0]
  64              		.loc 1 71 0
  65 0016 0023     		movs	r3, #0
  66 0018 4360     		str	r3, [r0, #4]
  67              		.loc 1 73 0
  68 001a 8360     		str	r3, [r0, #8]
  69              	.LVL2:
  70              	.LBB154:
  71              	.LBB155:
  72              		.file 2 "../../../ChibiOSRepo/chibios191/os/hal/osal/rt/osal.h"
  73              		.loc 2 974 0
  74 001c 0C30     		adds	r0, r0, #12
  75              	.LVL3:
  76 001e FFF7FEFF 		bl	chMtxObjectInit
  77              	.LVL4:
  78              	.LBE155:
  79              	.LBE154:
  80              		.loc 1 81 0
  81 0022 08BD     		pop	{r3, pc}
  82              		.cfi_endproc
  83              	.LFE329:
  84              		.size	spiObjectInit, .-spiObjectInit
  85              		.align	1
  86 0024 AFF30080 		.p2align 4,,15
  86      AFF30080 
  86      AFF30080 
  87              		.global	spiStart
  88              		.syntax unified
  89              		.thumb
  90              		.thumb_func
  91              		.fpu softvfp
  92              		.type	spiStart, %function
  93              	spiStart:
  94              	.LFB330:
  95              		.loc 1 91 0
  96              		.cfi_startproc
  97              		@ args = 0, pretend = 0, frame = 0
  98              		@ frame_needed = 0, uses_anonymous_args = 0
  99              	.LVL5:
 100 0030 38B5     		push	{r3, r4, r5, lr}
 101              		.cfi_def_cfa_offset 16
 102              		.cfi_offset 3, -16
 103              		.cfi_offset 4, -12
 104              		.cfi_offset 5, -8
 105              		.cfi_offset 14, -4
 106 0032 0D46     		mov	r5, r1
 107              		.loc 1 93 0
 108 0034 0446     		mov	r4, r0
 109 0036 30B3     		cbz	r0, .L6
 110              		.loc 1 93 0 is_stmt 0 discriminator 3
 111 0038 29B3     		cbz	r1, .L6
ARM GAS  C:\Users\RAKIBU~1\AppData\Local\Temp\ccnnMKTp.s 			page 3


 112              	.LVL6:
 113              	.L7:
 114              	.LBB169:
 115              	.LBB170:
 116              	.LBB171:
 117              	.LBB172:
 118              	.LBB173:
 119              	.LBB174:
 120              		.file 3 "../../../ChibiOSRepo/chibios191/os/common/ext/ARM/CMSIS/Core/Include/cmsis_gcc.h"
 121              		.loc 3 493 0 is_stmt 1
 122 003a 2023     		movs	r3, #32
 123              		.syntax unified
 124              	@ 493 "../../../ChibiOSRepo/chibios191/os/common/ext/ARM/CMSIS/Core/Include/cmsis_gcc.h" 1
 125 003c 83F31188 		MSR basepri, r3
 126              	@ 0 "" 2
 127              	.LVL7:
 128              		.thumb
 129              		.syntax unified
 130              	.LBE174:
 131              	.LBE173:
 132              	.LBE172:
 133              		.file 4 "../../../ChibiOSRepo/chibios191/os/rt/include/chsys.h"
 134              		.loc 4 356 0
 135 0040 FFF7FEFF 		bl	_stats_start_measure_crit_thd
 136              	.LVL8:
 137              		.loc 4 357 0
 138 0044 FFF7FEFF 		bl	_dbg_check_lock
 139              	.LVL9:
 140              	.LBE171:
 141              	.LBE170:
 142              	.LBE169:
 143              		.loc 1 96 0
 144 0048 2378     		ldrb	r3, [r4]	@ zero_extendqisi2
 145 004a 013B     		subs	r3, r3, #1
 146 004c DBB2     		uxtb	r3, r3
 147 004e 012B     		cmp	r3, #1
 148 0050 02D9     		bls	.L8
 149              		.loc 1 96 0 is_stmt 0 discriminator 2
 150 0052 1148     		ldr	r0, .L12
 151 0054 FFF7FEFF 		bl	chSysHalt
 152              	.LVL10:
 153              	.L8:
 154              		.loc 1 98 0 is_stmt 1
 155 0058 6560     		str	r5, [r4, #4]
 156              		.loc 1 99 0
 157 005a 2046     		mov	r0, r4
 158 005c FFF7FEFF 		bl	spi_lld_start
 159              	.LVL11:
 160              		.loc 1 100 0
 161 0060 0223     		movs	r3, #2
 162 0062 2370     		strb	r3, [r4]
 163              	.LBB175:
 164              	.LBB176:
 165              	.LBB177:
 166              		.loc 4 367 0
 167 0064 FFF7FEFF 		bl	_dbg_check_unlock
 168              	.LVL12:
ARM GAS  C:\Users\RAKIBU~1\AppData\Local\Temp\ccnnMKTp.s 			page 4


 169              		.loc 4 368 0
 170 0068 FFF7FEFF 		bl	_stats_stop_measure_crit_thd
 171              	.LVL13:
 172              		.loc 4 374 0
 173 006c 0B4B     		ldr	r3, .L12+4
 174 006e 1A68     		ldr	r2, [r3]
 175 0070 9A42     		cmp	r2, r3
 176 0072 04D0     		beq	.L9
 177 0074 9B69     		ldr	r3, [r3, #24]
 178 0076 9968     		ldr	r1, [r3, #8]
 179 0078 9368     		ldr	r3, [r2, #8]
 180 007a 9942     		cmp	r1, r3
 181 007c 07D3     		bcc	.L11
 182              	.L9:
 183              	.LVL14:
 184              	.LBB178:
 185              	.LBB179:
 186              	.LBB180:
 187              		.loc 3 493 0
 188 007e 0023     		movs	r3, #0
 189              		.syntax unified
 190              	@ 493 "../../../ChibiOSRepo/chibios191/os/common/ext/ARM/CMSIS/Core/Include/cmsis_gcc.h" 1
 191 0080 83F31188 		MSR basepri, r3
 192              	@ 0 "" 2
 193              	.LVL15:
 194              		.thumb
 195              		.syntax unified
 196              	.LBE180:
 197              	.LBE179:
 198              	.LBE178:
 199              	.LBE177:
 200              	.LBE176:
 201              	.LBE175:
 202              		.loc 1 102 0
 203 0084 38BD     		pop	{r3, r4, r5, pc}
 204              	.LVL16:
 205              	.L6:
 206              		.loc 1 93 0 discriminator 4
 207 0086 0448     		ldr	r0, .L12
 208              	.LVL17:
 209 0088 FFF7FEFF 		bl	chSysHalt
 210              	.LVL18:
 211 008c D5E7     		b	.L7
 212              	.L11:
 213              	.LBB183:
 214              	.LBB182:
 215              	.LBB181:
 216              		.loc 4 374 0
 217 008e 0448     		ldr	r0, .L12+8
 218 0090 FFF7FEFF 		bl	chSysHalt
 219              	.LVL19:
 220 0094 F3E7     		b	.L9
 221              	.L13:
 222 0096 00BF     		.align	2
 223              	.L12:
 224 0098 00000000 		.word	.LANCHOR0
 225 009c 00000000 		.word	ch
ARM GAS  C:\Users\RAKIBU~1\AppData\Local\Temp\ccnnMKTp.s 			page 5


 226 00a0 0C000000 		.word	.LANCHOR0+12
 227              	.LBE181:
 228              	.LBE182:
 229              	.LBE183:
 230              		.cfi_endproc
 231              	.LFE330:
 232              		.size	spiStart, .-spiStart
 233              		.align	1
 234 00a4 AFF30080 		.p2align 4,,15
 234      AFF30080 
 234      AFF30080 
 235              		.global	spiStop
 236              		.syntax unified
 237              		.thumb
 238              		.thumb_func
 239              		.fpu softvfp
 240              		.type	spiStop, %function
 241              	spiStop:
 242              	.LFB331:
 243              		.loc 1 111 0
 244              		.cfi_startproc
 245              		@ args = 0, pretend = 0, frame = 0
 246              		@ frame_needed = 0, uses_anonymous_args = 0
 247              	.LVL20:
 248 00b0 10B5     		push	{r4, lr}
 249              		.cfi_def_cfa_offset 8
 250              		.cfi_offset 4, -8
 251              		.cfi_offset 14, -4
 252              		.loc 1 113 0
 253 00b2 0446     		mov	r4, r0
 254 00b4 30B3     		cbz	r0, .L19
 255              	.LVL21:
 256              	.L15:
 257              	.LBB197:
 258              	.LBB198:
 259              	.LBB199:
 260              	.LBB200:
 261              	.LBB201:
 262              	.LBB202:
 263              		.loc 3 493 0
 264 00b6 2023     		movs	r3, #32
 265              		.syntax unified
 266              	@ 493 "../../../ChibiOSRepo/chibios191/os/common/ext/ARM/CMSIS/Core/Include/cmsis_gcc.h" 1
 267 00b8 83F31188 		MSR basepri, r3
 268              	@ 0 "" 2
 269              	.LVL22:
 270              		.thumb
 271              		.syntax unified
 272              	.LBE202:
 273              	.LBE201:
 274              	.LBE200:
 275              		.loc 4 356 0
 276 00bc FFF7FEFF 		bl	_stats_start_measure_crit_thd
 277              	.LVL23:
 278              		.loc 4 357 0
 279 00c0 FFF7FEFF 		bl	_dbg_check_lock
 280              	.LVL24:
ARM GAS  C:\Users\RAKIBU~1\AppData\Local\Temp\ccnnMKTp.s 			page 6


 281              	.LBE199:
 282              	.LBE198:
 283              	.LBE197:
 284              		.loc 1 117 0
 285 00c4 2378     		ldrb	r3, [r4]	@ zero_extendqisi2
 286 00c6 013B     		subs	r3, r3, #1
 287 00c8 DBB2     		uxtb	r3, r3
 288 00ca 012B     		cmp	r3, #1
 289 00cc 02D9     		bls	.L16
 290              		.loc 1 117 0 is_stmt 0 discriminator 2
 291 00ce 1148     		ldr	r0, .L21
 292 00d0 FFF7FEFF 		bl	chSysHalt
 293              	.LVL25:
 294              	.L16:
 295              		.loc 1 120 0 is_stmt 1
 296 00d4 2046     		mov	r0, r4
 297 00d6 FFF7FEFF 		bl	spi_lld_stop
 298              	.LVL26:
 299              		.loc 1 121 0
 300 00da 0023     		movs	r3, #0
 301 00dc 6360     		str	r3, [r4, #4]
 302              		.loc 1 122 0
 303 00de 0123     		movs	r3, #1
 304 00e0 2370     		strb	r3, [r4]
 305              	.LBB203:
 306              	.LBB204:
 307              	.LBB205:
 308              		.loc 4 367 0
 309 00e2 FFF7FEFF 		bl	_dbg_check_unlock
 310              	.LVL27:
 311              		.loc 4 368 0
 312 00e6 FFF7FEFF 		bl	_stats_stop_measure_crit_thd
 313              	.LVL28:
 314              		.loc 4 374 0
 315 00ea 0B4B     		ldr	r3, .L21+4
 316 00ec 1A68     		ldr	r2, [r3]
 317 00ee 9A42     		cmp	r2, r3
 318 00f0 04D0     		beq	.L17
 319 00f2 9B69     		ldr	r3, [r3, #24]
 320 00f4 9968     		ldr	r1, [r3, #8]
 321 00f6 9368     		ldr	r3, [r2, #8]
 322 00f8 9942     		cmp	r1, r3
 323 00fa 07D3     		bcc	.L20
 324              	.L17:
 325              	.LVL29:
 326              	.LBB206:
 327              	.LBB207:
 328              	.LBB208:
 329              		.loc 3 493 0
 330 00fc 0023     		movs	r3, #0
 331              		.syntax unified
 332              	@ 493 "../../../ChibiOSRepo/chibios191/os/common/ext/ARM/CMSIS/Core/Include/cmsis_gcc.h" 1
 333 00fe 83F31188 		MSR basepri, r3
 334              	@ 0 "" 2
 335              	.LVL30:
 336              		.thumb
 337              		.syntax unified
ARM GAS  C:\Users\RAKIBU~1\AppData\Local\Temp\ccnnMKTp.s 			page 7


 338              	.LBE208:
 339              	.LBE207:
 340              	.LBE206:
 341              	.LBE205:
 342              	.LBE204:
 343              	.LBE203:
 344              		.loc 1 125 0
 345 0102 10BD     		pop	{r4, pc}
 346              	.LVL31:
 347              	.L19:
 348              		.loc 1 113 0 discriminator 2
 349 0104 0348     		ldr	r0, .L21
 350              	.LVL32:
 351 0106 FFF7FEFF 		bl	chSysHalt
 352              	.LVL33:
 353 010a D4E7     		b	.L15
 354              	.L20:
 355              	.LBB211:
 356              	.LBB210:
 357              	.LBB209:
 358              		.loc 4 374 0
 359 010c 0348     		ldr	r0, .L21+8
 360 010e FFF7FEFF 		bl	chSysHalt
 361              	.LVL34:
 362 0112 F3E7     		b	.L17
 363              	.L22:
 364              		.align	2
 365              	.L21:
 366 0114 18000000 		.word	.LANCHOR0+24
 367 0118 00000000 		.word	ch
 368 011c 0C000000 		.word	.LANCHOR0+12
 369              	.LBE209:
 370              	.LBE210:
 371              	.LBE211:
 372              		.cfi_endproc
 373              	.LFE331:
 374              		.size	spiStop, .-spiStop
 375              		.align	1
 376              		.p2align 4,,15
 377              		.global	spiSelect
 378              		.syntax unified
 379              		.thumb
 380              		.thumb_func
 381              		.fpu softvfp
 382              		.type	spiSelect, %function
 383              	spiSelect:
 384              	.LFB332:
 385              		.loc 1 134 0
 386              		.cfi_startproc
 387              		@ args = 0, pretend = 0, frame = 0
 388              		@ frame_needed = 0, uses_anonymous_args = 0
 389              	.LVL35:
 390 0120 10B5     		push	{r4, lr}
 391              		.cfi_def_cfa_offset 8
 392              		.cfi_offset 4, -8
 393              		.cfi_offset 14, -4
 394              		.loc 1 136 0
ARM GAS  C:\Users\RAKIBU~1\AppData\Local\Temp\ccnnMKTp.s 			page 8


 395 0122 0446     		mov	r4, r0
 396 0124 20B3     		cbz	r0, .L28
 397              	.LVL36:
 398              	.L24:
 399              	.LBB225:
 400              	.LBB226:
 401              	.LBB227:
 402              	.LBB228:
 403              	.LBB229:
 404              	.LBB230:
 405              		.loc 3 493 0
 406 0126 2023     		movs	r3, #32
 407              		.syntax unified
 408              	@ 493 "../../../ChibiOSRepo/chibios191/os/common/ext/ARM/CMSIS/Core/Include/cmsis_gcc.h" 1
 409 0128 83F31188 		MSR basepri, r3
 410              	@ 0 "" 2
 411              	.LVL37:
 412              		.thumb
 413              		.syntax unified
 414              	.LBE230:
 415              	.LBE229:
 416              	.LBE228:
 417              		.loc 4 356 0
 418 012c FFF7FEFF 		bl	_stats_start_measure_crit_thd
 419              	.LVL38:
 420              		.loc 4 357 0
 421 0130 FFF7FEFF 		bl	_dbg_check_lock
 422              	.LVL39:
 423              	.LBE227:
 424              	.LBE226:
 425              	.LBE225:
 426              		.loc 1 139 0
 427 0134 2378     		ldrb	r3, [r4]	@ zero_extendqisi2
 428 0136 022B     		cmp	r3, #2
 429 0138 02D0     		beq	.L25
 430              		.loc 1 139 0 is_stmt 0 discriminator 2
 431 013a 1148     		ldr	r0, .L30
 432 013c FFF7FEFF 		bl	chSysHalt
 433              	.LVL40:
 434              	.L25:
 435              		.loc 1 140 0 is_stmt 1
 436 0140 6268     		ldr	r2, [r4, #4]
 437 0142 D168     		ldr	r1, [r2, #12]
 438 0144 0123     		movs	r3, #1
 439 0146 8B40     		lsls	r3, r3, r1
 440 0148 9268     		ldr	r2, [r2, #8]
 441 014a 9BB2     		uxth	r3, r3
 442 014c 5383     		strh	r3, [r2, #26]	@ movhi
 443              	.LBB231:
 444              	.LBB232:
 445              	.LBB233:
 446              		.loc 4 367 0
 447 014e FFF7FEFF 		bl	_dbg_check_unlock
 448              	.LVL41:
 449              		.loc 4 368 0
 450 0152 FFF7FEFF 		bl	_stats_stop_measure_crit_thd
 451              	.LVL42:
ARM GAS  C:\Users\RAKIBU~1\AppData\Local\Temp\ccnnMKTp.s 			page 9


 452              		.loc 4 374 0
 453 0156 0B4B     		ldr	r3, .L30+4
 454 0158 1A68     		ldr	r2, [r3]
 455 015a 9A42     		cmp	r2, r3
 456 015c 04D0     		beq	.L26
 457 015e 9B69     		ldr	r3, [r3, #24]
 458 0160 9968     		ldr	r1, [r3, #8]
 459 0162 9368     		ldr	r3, [r2, #8]
 460 0164 9942     		cmp	r1, r3
 461 0166 07D3     		bcc	.L29
 462              	.L26:
 463              	.LVL43:
 464              	.LBB234:
 465              	.LBB235:
 466              	.LBB236:
 467              		.loc 3 493 0
 468 0168 0023     		movs	r3, #0
 469              		.syntax unified
 470              	@ 493 "../../../ChibiOSRepo/chibios191/os/common/ext/ARM/CMSIS/Core/Include/cmsis_gcc.h" 1
 471 016a 83F31188 		MSR basepri, r3
 472              	@ 0 "" 2
 473              	.LVL44:
 474              		.thumb
 475              		.syntax unified
 476              	.LBE236:
 477              	.LBE235:
 478              	.LBE234:
 479              	.LBE233:
 480              	.LBE232:
 481              	.LBE231:
 482              		.loc 1 142 0
 483 016e 10BD     		pop	{r4, pc}
 484              	.LVL45:
 485              	.L28:
 486              		.loc 1 136 0 discriminator 2
 487 0170 0348     		ldr	r0, .L30
 488              	.LVL46:
 489 0172 FFF7FEFF 		bl	chSysHalt
 490              	.LVL47:
 491 0176 D6E7     		b	.L24
 492              	.L29:
 493              	.LBB239:
 494              	.LBB238:
 495              	.LBB237:
 496              		.loc 4 374 0
 497 0178 0348     		ldr	r0, .L30+8
 498 017a FFF7FEFF 		bl	chSysHalt
 499              	.LVL48:
 500 017e F3E7     		b	.L26
 501              	.L31:
 502              		.align	2
 503              	.L30:
 504 0180 20000000 		.word	.LANCHOR0+32
 505 0184 00000000 		.word	ch
 506 0188 0C000000 		.word	.LANCHOR0+12
 507              	.LBE237:
 508              	.LBE238:
ARM GAS  C:\Users\RAKIBU~1\AppData\Local\Temp\ccnnMKTp.s 			page 10


 509              	.LBE239:
 510              		.cfi_endproc
 511              	.LFE332:
 512              		.size	spiSelect, .-spiSelect
 513              		.align	1
 514 018c AFF30080 		.p2align 4,,15
 515              		.global	spiUnselect
 516              		.syntax unified
 517              		.thumb
 518              		.thumb_func
 519              		.fpu softvfp
 520              		.type	spiUnselect, %function
 521              	spiUnselect:
 522              	.LFB333:
 523              		.loc 1 152 0
 524              		.cfi_startproc
 525              		@ args = 0, pretend = 0, frame = 0
 526              		@ frame_needed = 0, uses_anonymous_args = 0
 527              	.LVL49:
 528 0190 10B5     		push	{r4, lr}
 529              		.cfi_def_cfa_offset 8
 530              		.cfi_offset 4, -8
 531              		.cfi_offset 14, -4
 532              		.loc 1 154 0
 533 0192 0446     		mov	r4, r0
 534 0194 20B3     		cbz	r0, .L37
 535              	.LVL50:
 536              	.L33:
 537              	.LBB253:
 538              	.LBB254:
 539              	.LBB255:
 540              	.LBB256:
 541              	.LBB257:
 542              	.LBB258:
 543              		.loc 3 493 0
 544 0196 2023     		movs	r3, #32
 545              		.syntax unified
 546              	@ 493 "../../../ChibiOSRepo/chibios191/os/common/ext/ARM/CMSIS/Core/Include/cmsis_gcc.h" 1
 547 0198 83F31188 		MSR basepri, r3
 548              	@ 0 "" 2
 549              	.LVL51:
 550              		.thumb
 551              		.syntax unified
 552              	.LBE258:
 553              	.LBE257:
 554              	.LBE256:
 555              		.loc 4 356 0
 556 019c FFF7FEFF 		bl	_stats_start_measure_crit_thd
 557              	.LVL52:
 558              		.loc 4 357 0
 559 01a0 FFF7FEFF 		bl	_dbg_check_lock
 560              	.LVL53:
 561              	.LBE255:
 562              	.LBE254:
 563              	.LBE253:
 564              		.loc 1 157 0
 565 01a4 2378     		ldrb	r3, [r4]	@ zero_extendqisi2
ARM GAS  C:\Users\RAKIBU~1\AppData\Local\Temp\ccnnMKTp.s 			page 11


 566 01a6 022B     		cmp	r3, #2
 567 01a8 02D0     		beq	.L34
 568              		.loc 1 157 0 is_stmt 0 discriminator 2
 569 01aa 1148     		ldr	r0, .L39
 570 01ac FFF7FEFF 		bl	chSysHalt
 571              	.LVL54:
 572              	.L34:
 573              		.loc 1 158 0 is_stmt 1
 574 01b0 6268     		ldr	r2, [r4, #4]
 575 01b2 D168     		ldr	r1, [r2, #12]
 576 01b4 0123     		movs	r3, #1
 577 01b6 8B40     		lsls	r3, r3, r1
 578 01b8 9268     		ldr	r2, [r2, #8]
 579 01ba 9BB2     		uxth	r3, r3
 580 01bc 1383     		strh	r3, [r2, #24]	@ movhi
 581              	.LBB259:
 582              	.LBB260:
 583              	.LBB261:
 584              		.loc 4 367 0
 585 01be FFF7FEFF 		bl	_dbg_check_unlock
 586              	.LVL55:
 587              		.loc 4 368 0
 588 01c2 FFF7FEFF 		bl	_stats_stop_measure_crit_thd
 589              	.LVL56:
 590              		.loc 4 374 0
 591 01c6 0B4B     		ldr	r3, .L39+4
 592 01c8 1A68     		ldr	r2, [r3]
 593 01ca 9A42     		cmp	r2, r3
 594 01cc 04D0     		beq	.L35
 595 01ce 9B69     		ldr	r3, [r3, #24]
 596 01d0 9968     		ldr	r1, [r3, #8]
 597 01d2 9368     		ldr	r3, [r2, #8]
 598 01d4 9942     		cmp	r1, r3
 599 01d6 07D3     		bcc	.L38
 600              	.L35:
 601              	.LVL57:
 602              	.LBB262:
 603              	.LBB263:
 604              	.LBB264:
 605              		.loc 3 493 0
 606 01d8 0023     		movs	r3, #0
 607              		.syntax unified
 608              	@ 493 "../../../ChibiOSRepo/chibios191/os/common/ext/ARM/CMSIS/Core/Include/cmsis_gcc.h" 1
 609 01da 83F31188 		MSR basepri, r3
 610              	@ 0 "" 2
 611              	.LVL58:
 612              		.thumb
 613              		.syntax unified
 614              	.LBE264:
 615              	.LBE263:
 616              	.LBE262:
 617              	.LBE261:
 618              	.LBE260:
 619              	.LBE259:
 620              		.loc 1 160 0
 621 01de 10BD     		pop	{r4, pc}
 622              	.LVL59:
ARM GAS  C:\Users\RAKIBU~1\AppData\Local\Temp\ccnnMKTp.s 			page 12


 623              	.L37:
 624              		.loc 1 154 0 discriminator 2
 625 01e0 0348     		ldr	r0, .L39
 626              	.LVL60:
 627 01e2 FFF7FEFF 		bl	chSysHalt
 628              	.LVL61:
 629 01e6 D6E7     		b	.L33
 630              	.L38:
 631              	.LBB267:
 632              	.LBB266:
 633              	.LBB265:
 634              		.loc 4 374 0
 635 01e8 0348     		ldr	r0, .L39+8
 636 01ea FFF7FEFF 		bl	chSysHalt
 637              	.LVL62:
 638 01ee F3E7     		b	.L35
 639              	.L40:
 640              		.align	2
 641              	.L39:
 642 01f0 2C000000 		.word	.LANCHOR0+44
 643 01f4 00000000 		.word	ch
 644 01f8 0C000000 		.word	.LANCHOR0+12
 645              	.LBE265:
 646              	.LBE266:
 647              	.LBE267:
 648              		.cfi_endproc
 649              	.LFE333:
 650              		.size	spiUnselect, .-spiUnselect
 651              		.align	1
 652 01fc AFF30080 		.p2align 4,,15
 653              		.global	spiStartIgnore
 654              		.syntax unified
 655              		.thumb
 656              		.thumb_func
 657              		.fpu softvfp
 658              		.type	spiStartIgnore, %function
 659              	spiStartIgnore:
 660              	.LFB334:
 661              		.loc 1 175 0
 662              		.cfi_startproc
 663              		@ args = 0, pretend = 0, frame = 0
 664              		@ frame_needed = 0, uses_anonymous_args = 0
 665              	.LVL63:
 666 0200 38B5     		push	{r3, r4, r5, lr}
 667              		.cfi_def_cfa_offset 16
 668              		.cfi_offset 3, -16
 669              		.cfi_offset 4, -12
 670              		.cfi_offset 5, -8
 671              		.cfi_offset 14, -4
 672 0202 0D46     		mov	r5, r1
 673              		.loc 1 177 0
 674 0204 0446     		mov	r4, r0
 675 0206 00B1     		cbz	r0, .L42
 676              		.loc 1 177 0 is_stmt 0 discriminator 3
 677 0208 11B9     		cbnz	r1, .L43
 678              	.L42:
 679              		.loc 1 177 0 discriminator 4
ARM GAS  C:\Users\RAKIBU~1\AppData\Local\Temp\ccnnMKTp.s 			page 13


 680 020a 1548     		ldr	r0, .L48
 681              	.LVL64:
 682 020c FFF7FEFF 		bl	chSysHalt
 683              	.LVL65:
 684              	.L43:
 685              	.LBB281:
 686              	.LBB282:
 687              	.LBB283:
 688              	.LBB284:
 689              	.LBB285:
 690              	.LBB286:
 691              		.loc 3 493 0 is_stmt 1
 692 0210 2023     		movs	r3, #32
 693              		.syntax unified
 694              	@ 493 "../../../ChibiOSRepo/chibios191/os/common/ext/ARM/CMSIS/Core/Include/cmsis_gcc.h" 1
 695 0212 83F31188 		MSR basepri, r3
 696              	@ 0 "" 2
 697              	.LVL66:
 698              		.thumb
 699              		.syntax unified
 700              	.LBE286:
 701              	.LBE285:
 702              	.LBE284:
 703              		.loc 4 356 0
 704 0216 FFF7FEFF 		bl	_stats_start_measure_crit_thd
 705              	.LVL67:
 706              		.loc 4 357 0
 707 021a FFF7FEFF 		bl	_dbg_check_lock
 708              	.LVL68:
 709              	.LBE283:
 710              	.LBE282:
 711              	.LBE281:
 712              		.loc 1 180 0
 713 021e 2378     		ldrb	r3, [r4]	@ zero_extendqisi2
 714 0220 022B     		cmp	r3, #2
 715 0222 02D0     		beq	.L44
 716              		.loc 1 180 0 is_stmt 0 discriminator 2
 717 0224 0E48     		ldr	r0, .L48
 718 0226 FFF7FEFF 		bl	chSysHalt
 719              	.LVL69:
 720              	.L44:
 721              		.loc 1 181 0 is_stmt 1
 722 022a 0323     		movs	r3, #3
 723 022c 2370     		strb	r3, [r4]
 724 022e 2946     		mov	r1, r5
 725 0230 2046     		mov	r0, r4
 726 0232 FFF7FEFF 		bl	spi_lld_ignore
 727              	.LVL70:
 728              	.LBB287:
 729              	.LBB288:
 730              	.LBB289:
 731              		.loc 4 367 0
 732 0236 FFF7FEFF 		bl	_dbg_check_unlock
 733              	.LVL71:
 734              		.loc 4 368 0
 735 023a FFF7FEFF 		bl	_stats_stop_measure_crit_thd
 736              	.LVL72:
ARM GAS  C:\Users\RAKIBU~1\AppData\Local\Temp\ccnnMKTp.s 			page 14


 737              		.loc 4 374 0
 738 023e 094B     		ldr	r3, .L48+4
 739 0240 1A68     		ldr	r2, [r3]
 740 0242 9A42     		cmp	r2, r3
 741 0244 04D0     		beq	.L45
 742 0246 9B69     		ldr	r3, [r3, #24]
 743 0248 9968     		ldr	r1, [r3, #8]
 744 024a 9368     		ldr	r3, [r2, #8]
 745 024c 9942     		cmp	r1, r3
 746 024e 03D3     		bcc	.L47
 747              	.L45:
 748              	.LVL73:
 749              	.LBB290:
 750              	.LBB291:
 751              	.LBB292:
 752              		.loc 3 493 0
 753 0250 0023     		movs	r3, #0
 754              		.syntax unified
 755              	@ 493 "../../../ChibiOSRepo/chibios191/os/common/ext/ARM/CMSIS/Core/Include/cmsis_gcc.h" 1
 756 0252 83F31188 		MSR basepri, r3
 757              	@ 0 "" 2
 758              	.LVL74:
 759              		.thumb
 760              		.syntax unified
 761              	.LBE292:
 762              	.LBE291:
 763              	.LBE290:
 764              	.LBE289:
 765              	.LBE288:
 766              	.LBE287:
 767              		.loc 1 183 0
 768 0256 38BD     		pop	{r3, r4, r5, pc}
 769              	.LVL75:
 770              	.L47:
 771              	.LBB295:
 772              	.LBB294:
 773              	.LBB293:
 774              		.loc 4 374 0
 775 0258 0348     		ldr	r0, .L48+8
 776 025a FFF7FEFF 		bl	chSysHalt
 777              	.LVL76:
 778 025e F7E7     		b	.L45
 779              	.L49:
 780              		.align	2
 781              	.L48:
 782 0260 38000000 		.word	.LANCHOR0+56
 783 0264 00000000 		.word	ch
 784 0268 0C000000 		.word	.LANCHOR0+12
 785              	.LBE293:
 786              	.LBE294:
 787              	.LBE295:
 788              		.cfi_endproc
 789              	.LFE334:
 790              		.size	spiStartIgnore, .-spiStartIgnore
 791              		.align	1
 792 026c AFF30080 		.p2align 4,,15
 793              		.global	spiStartExchange
ARM GAS  C:\Users\RAKIBU~1\AppData\Local\Temp\ccnnMKTp.s 			page 15


 794              		.syntax unified
 795              		.thumb
 796              		.thumb_func
 797              		.fpu softvfp
 798              		.type	spiStartExchange, %function
 799              	spiStartExchange:
 800              	.LFB335:
 801              		.loc 1 203 0
 802              		.cfi_startproc
 803              		@ args = 0, pretend = 0, frame = 0
 804              		@ frame_needed = 0, uses_anonymous_args = 0
 805              	.LVL77:
 806 0270 F8B5     		push	{r3, r4, r5, r6, r7, lr}
 807              		.cfi_def_cfa_offset 24
 808              		.cfi_offset 3, -24
 809              		.cfi_offset 4, -20
 810              		.cfi_offset 5, -16
 811              		.cfi_offset 6, -12
 812              		.cfi_offset 7, -8
 813              		.cfi_offset 14, -4
 814 0272 0D46     		mov	r5, r1
 815 0274 1746     		mov	r7, r2
 816 0276 1E46     		mov	r6, r3
 817              		.loc 1 205 0
 818 0278 0446     		mov	r4, r0
 819 027a 10B1     		cbz	r0, .L51
 820              		.loc 1 205 0 is_stmt 0 discriminator 3
 821 027c 09B1     		cbz	r1, .L51
 822              		.loc 1 205 0 discriminator 5
 823 027e 03B1     		cbz	r3, .L51
 824              		.loc 1 205 0 discriminator 7
 825 0280 12B9     		cbnz	r2, .L52
 826              	.L51:
 827              		.loc 1 205 0 discriminator 8
 828 0282 1648     		ldr	r0, .L57
 829              	.LVL78:
 830 0284 FFF7FEFF 		bl	chSysHalt
 831              	.LVL79:
 832              	.L52:
 833              	.LBB309:
 834              	.LBB310:
 835              	.LBB311:
 836              	.LBB312:
 837              	.LBB313:
 838              	.LBB314:
 839              		.loc 3 493 0 is_stmt 1
 840 0288 2023     		movs	r3, #32
 841              		.syntax unified
 842              	@ 493 "../../../ChibiOSRepo/chibios191/os/common/ext/ARM/CMSIS/Core/Include/cmsis_gcc.h" 1
 843 028a 83F31188 		MSR basepri, r3
 844              	@ 0 "" 2
 845              	.LVL80:
 846              		.thumb
 847              		.syntax unified
 848              	.LBE314:
 849              	.LBE313:
 850              	.LBE312:
ARM GAS  C:\Users\RAKIBU~1\AppData\Local\Temp\ccnnMKTp.s 			page 16


 851              		.loc 4 356 0
 852 028e FFF7FEFF 		bl	_stats_start_measure_crit_thd
 853              	.LVL81:
 854              		.loc 4 357 0
 855 0292 FFF7FEFF 		bl	_dbg_check_lock
 856              	.LVL82:
 857              	.LBE311:
 858              	.LBE310:
 859              	.LBE309:
 860              		.loc 1 209 0
 861 0296 2378     		ldrb	r3, [r4]	@ zero_extendqisi2
 862 0298 022B     		cmp	r3, #2
 863 029a 02D0     		beq	.L53
 864              		.loc 1 209 0 is_stmt 0 discriminator 2
 865 029c 0F48     		ldr	r0, .L57
 866 029e FFF7FEFF 		bl	chSysHalt
 867              	.LVL83:
 868              	.L53:
 869              		.loc 1 210 0 is_stmt 1
 870 02a2 0323     		movs	r3, #3
 871 02a4 2370     		strb	r3, [r4]
 872 02a6 3346     		mov	r3, r6
 873 02a8 3A46     		mov	r2, r7
 874 02aa 2946     		mov	r1, r5
 875 02ac 2046     		mov	r0, r4
 876 02ae FFF7FEFF 		bl	spi_lld_exchange
 877              	.LVL84:
 878              	.LBB315:
 879              	.LBB316:
 880              	.LBB317:
 881              		.loc 4 367 0
 882 02b2 FFF7FEFF 		bl	_dbg_check_unlock
 883              	.LVL85:
 884              		.loc 4 368 0
 885 02b6 FFF7FEFF 		bl	_stats_stop_measure_crit_thd
 886              	.LVL86:
 887              		.loc 4 374 0
 888 02ba 094B     		ldr	r3, .L57+4
 889 02bc 1A68     		ldr	r2, [r3]
 890 02be 9A42     		cmp	r2, r3
 891 02c0 04D0     		beq	.L54
 892 02c2 9B69     		ldr	r3, [r3, #24]
 893 02c4 9968     		ldr	r1, [r3, #8]
 894 02c6 9368     		ldr	r3, [r2, #8]
 895 02c8 9942     		cmp	r1, r3
 896 02ca 03D3     		bcc	.L56
 897              	.L54:
 898              	.LVL87:
 899              	.LBB318:
 900              	.LBB319:
 901              	.LBB320:
 902              		.loc 3 493 0
 903 02cc 0023     		movs	r3, #0
 904              		.syntax unified
 905              	@ 493 "../../../ChibiOSRepo/chibios191/os/common/ext/ARM/CMSIS/Core/Include/cmsis_gcc.h" 1
 906 02ce 83F31188 		MSR basepri, r3
 907              	@ 0 "" 2
ARM GAS  C:\Users\RAKIBU~1\AppData\Local\Temp\ccnnMKTp.s 			page 17


 908              	.LVL88:
 909              		.thumb
 910              		.syntax unified
 911              	.LBE320:
 912              	.LBE319:
 913              	.LBE318:
 914              	.LBE317:
 915              	.LBE316:
 916              	.LBE315:
 917              		.loc 1 212 0
 918 02d2 F8BD     		pop	{r3, r4, r5, r6, r7, pc}
 919              	.LVL89:
 920              	.L56:
 921              	.LBB323:
 922              	.LBB322:
 923              	.LBB321:
 924              		.loc 4 374 0
 925 02d4 0348     		ldr	r0, .L57+8
 926 02d6 FFF7FEFF 		bl	chSysHalt
 927              	.LVL90:
 928 02da F7E7     		b	.L54
 929              	.L58:
 930              		.align	2
 931              	.L57:
 932 02dc 48000000 		.word	.LANCHOR0+72
 933 02e0 00000000 		.word	ch
 934 02e4 0C000000 		.word	.LANCHOR0+12
 935              	.LBE321:
 936              	.LBE322:
 937              	.LBE323:
 938              		.cfi_endproc
 939              	.LFE335:
 940              		.size	spiStartExchange, .-spiStartExchange
 941              		.align	1
 942 02e8 AFF30080 		.p2align 4,,15
 942      AFF30080 
 943              		.global	spiStartSend
 944              		.syntax unified
 945              		.thumb
 946              		.thumb_func
 947              		.fpu softvfp
 948              		.type	spiStartSend, %function
 949              	spiStartSend:
 950              	.LFB336:
 951              		.loc 1 229 0
 952              		.cfi_startproc
 953              		@ args = 0, pretend = 0, frame = 0
 954              		@ frame_needed = 0, uses_anonymous_args = 0
 955              	.LVL91:
 956 02f0 70B5     		push	{r4, r5, r6, lr}
 957              		.cfi_def_cfa_offset 16
 958              		.cfi_offset 4, -16
 959              		.cfi_offset 5, -12
 960              		.cfi_offset 6, -8
 961              		.cfi_offset 14, -4
 962 02f2 0D46     		mov	r5, r1
 963 02f4 1646     		mov	r6, r2
ARM GAS  C:\Users\RAKIBU~1\AppData\Local\Temp\ccnnMKTp.s 			page 18


 964              		.loc 1 231 0
 965 02f6 0446     		mov	r4, r0
 966 02f8 08B1     		cbz	r0, .L60
 967              		.loc 1 231 0 is_stmt 0 discriminator 3
 968 02fa 01B1     		cbz	r1, .L60
 969              		.loc 1 231 0 discriminator 5
 970 02fc 12B9     		cbnz	r2, .L61
 971              	.L60:
 972              		.loc 1 231 0 discriminator 6
 973 02fe 1648     		ldr	r0, .L66
 974              	.LVL92:
 975 0300 FFF7FEFF 		bl	chSysHalt
 976              	.LVL93:
 977              	.L61:
 978              	.LBB337:
 979              	.LBB338:
 980              	.LBB339:
 981              	.LBB340:
 982              	.LBB341:
 983              	.LBB342:
 984              		.loc 3 493 0 is_stmt 1
 985 0304 2023     		movs	r3, #32
 986              		.syntax unified
 987              	@ 493 "../../../ChibiOSRepo/chibios191/os/common/ext/ARM/CMSIS/Core/Include/cmsis_gcc.h" 1
 988 0306 83F31188 		MSR basepri, r3
 989              	@ 0 "" 2
 990              	.LVL94:
 991              		.thumb
 992              		.syntax unified
 993              	.LBE342:
 994              	.LBE341:
 995              	.LBE340:
 996              		.loc 4 356 0
 997 030a FFF7FEFF 		bl	_stats_start_measure_crit_thd
 998              	.LVL95:
 999              		.loc 4 357 0
 1000 030e FFF7FEFF 		bl	_dbg_check_lock
 1001              	.LVL96:
 1002              	.LBE339:
 1003              	.LBE338:
 1004              	.LBE337:
 1005              		.loc 1 234 0
 1006 0312 2378     		ldrb	r3, [r4]	@ zero_extendqisi2
 1007 0314 022B     		cmp	r3, #2
 1008 0316 02D0     		beq	.L62
 1009              		.loc 1 234 0 is_stmt 0 discriminator 2
 1010 0318 0F48     		ldr	r0, .L66
 1011 031a FFF7FEFF 		bl	chSysHalt
 1012              	.LVL97:
 1013              	.L62:
 1014              		.loc 1 235 0 is_stmt 1
 1015 031e 0323     		movs	r3, #3
 1016 0320 2370     		strb	r3, [r4]
 1017 0322 3246     		mov	r2, r6
 1018 0324 2946     		mov	r1, r5
 1019 0326 2046     		mov	r0, r4
 1020 0328 FFF7FEFF 		bl	spi_lld_send
ARM GAS  C:\Users\RAKIBU~1\AppData\Local\Temp\ccnnMKTp.s 			page 19


 1021              	.LVL98:
 1022              	.LBB343:
 1023              	.LBB344:
 1024              	.LBB345:
 1025              		.loc 4 367 0
 1026 032c FFF7FEFF 		bl	_dbg_check_unlock
 1027              	.LVL99:
 1028              		.loc 4 368 0
 1029 0330 FFF7FEFF 		bl	_stats_stop_measure_crit_thd
 1030              	.LVL100:
 1031              		.loc 4 374 0
 1032 0334 094B     		ldr	r3, .L66+4
 1033 0336 1A68     		ldr	r2, [r3]
 1034 0338 9A42     		cmp	r2, r3
 1035 033a 04D0     		beq	.L63
 1036 033c 9B69     		ldr	r3, [r3, #24]
 1037 033e 9968     		ldr	r1, [r3, #8]
 1038 0340 9368     		ldr	r3, [r2, #8]
 1039 0342 9942     		cmp	r1, r3
 1040 0344 03D3     		bcc	.L65
 1041              	.L63:
 1042              	.LVL101:
 1043              	.LBB346:
 1044              	.LBB347:
 1045              	.LBB348:
 1046              		.loc 3 493 0
 1047 0346 0023     		movs	r3, #0
 1048              		.syntax unified
 1049              	@ 493 "../../../ChibiOSRepo/chibios191/os/common/ext/ARM/CMSIS/Core/Include/cmsis_gcc.h" 1
 1050 0348 83F31188 		MSR basepri, r3
 1051              	@ 0 "" 2
 1052              	.LVL102:
 1053              		.thumb
 1054              		.syntax unified
 1055              	.LBE348:
 1056              	.LBE347:
 1057              	.LBE346:
 1058              	.LBE345:
 1059              	.LBE344:
 1060              	.LBE343:
 1061              		.loc 1 237 0
 1062 034c 70BD     		pop	{r4, r5, r6, pc}
 1063              	.LVL103:
 1064              	.L65:
 1065              	.LBB351:
 1066              	.LBB350:
 1067              	.LBB349:
 1068              		.loc 4 374 0
 1069 034e 0448     		ldr	r0, .L66+8
 1070 0350 FFF7FEFF 		bl	chSysHalt
 1071              	.LVL104:
 1072 0354 F7E7     		b	.L63
 1073              	.L67:
 1074 0356 00BF     		.align	2
 1075              	.L66:
 1076 0358 5C000000 		.word	.LANCHOR0+92
 1077 035c 00000000 		.word	ch
ARM GAS  C:\Users\RAKIBU~1\AppData\Local\Temp\ccnnMKTp.s 			page 20


 1078 0360 0C000000 		.word	.LANCHOR0+12
 1079              	.LBE349:
 1080              	.LBE350:
 1081              	.LBE351:
 1082              		.cfi_endproc
 1083              	.LFE336:
 1084              		.size	spiStartSend, .-spiStartSend
 1085              		.align	1
 1086 0364 AFF30080 		.p2align 4,,15
 1086      AFF30080 
 1086      AFF30080 
 1087              		.global	spiStartReceive
 1088              		.syntax unified
 1089              		.thumb
 1090              		.thumb_func
 1091              		.fpu softvfp
 1092              		.type	spiStartReceive, %function
 1093              	spiStartReceive:
 1094              	.LFB337:
 1095              		.loc 1 254 0
 1096              		.cfi_startproc
 1097              		@ args = 0, pretend = 0, frame = 0
 1098              		@ frame_needed = 0, uses_anonymous_args = 0
 1099              	.LVL105:
 1100 0370 70B5     		push	{r4, r5, r6, lr}
 1101              		.cfi_def_cfa_offset 16
 1102              		.cfi_offset 4, -16
 1103              		.cfi_offset 5, -12
 1104              		.cfi_offset 6, -8
 1105              		.cfi_offset 14, -4
 1106 0372 0D46     		mov	r5, r1
 1107 0374 1646     		mov	r6, r2
 1108              		.loc 1 256 0
 1109 0376 0446     		mov	r4, r0
 1110 0378 08B1     		cbz	r0, .L69
 1111              		.loc 1 256 0 is_stmt 0 discriminator 3
 1112 037a 01B1     		cbz	r1, .L69
 1113              		.loc 1 256 0 discriminator 5
 1114 037c 12B9     		cbnz	r2, .L70
 1115              	.L69:
 1116              		.loc 1 256 0 discriminator 6
 1117 037e 1648     		ldr	r0, .L75
 1118              	.LVL106:
 1119 0380 FFF7FEFF 		bl	chSysHalt
 1120              	.LVL107:
 1121              	.L70:
 1122              	.LBB365:
 1123              	.LBB366:
 1124              	.LBB367:
 1125              	.LBB368:
 1126              	.LBB369:
 1127              	.LBB370:
 1128              		.loc 3 493 0 is_stmt 1
 1129 0384 2023     		movs	r3, #32
 1130              		.syntax unified
 1131              	@ 493 "../../../ChibiOSRepo/chibios191/os/common/ext/ARM/CMSIS/Core/Include/cmsis_gcc.h" 1
 1132 0386 83F31188 		MSR basepri, r3
ARM GAS  C:\Users\RAKIBU~1\AppData\Local\Temp\ccnnMKTp.s 			page 21


 1133              	@ 0 "" 2
 1134              	.LVL108:
 1135              		.thumb
 1136              		.syntax unified
 1137              	.LBE370:
 1138              	.LBE369:
 1139              	.LBE368:
 1140              		.loc 4 356 0
 1141 038a FFF7FEFF 		bl	_stats_start_measure_crit_thd
 1142              	.LVL109:
 1143              		.loc 4 357 0
 1144 038e FFF7FEFF 		bl	_dbg_check_lock
 1145              	.LVL110:
 1146              	.LBE367:
 1147              	.LBE366:
 1148              	.LBE365:
 1149              		.loc 1 259 0
 1150 0392 2378     		ldrb	r3, [r4]	@ zero_extendqisi2
 1151 0394 022B     		cmp	r3, #2
 1152 0396 02D0     		beq	.L71
 1153              		.loc 1 259 0 is_stmt 0 discriminator 2
 1154 0398 0F48     		ldr	r0, .L75
 1155 039a FFF7FEFF 		bl	chSysHalt
 1156              	.LVL111:
 1157              	.L71:
 1158              		.loc 1 260 0 is_stmt 1
 1159 039e 0323     		movs	r3, #3
 1160 03a0 2370     		strb	r3, [r4]
 1161 03a2 3246     		mov	r2, r6
 1162 03a4 2946     		mov	r1, r5
 1163 03a6 2046     		mov	r0, r4
 1164 03a8 FFF7FEFF 		bl	spi_lld_receive
 1165              	.LVL112:
 1166              	.LBB371:
 1167              	.LBB372:
 1168              	.LBB373:
 1169              		.loc 4 367 0
 1170 03ac FFF7FEFF 		bl	_dbg_check_unlock
 1171              	.LVL113:
 1172              		.loc 4 368 0
 1173 03b0 FFF7FEFF 		bl	_stats_stop_measure_crit_thd
 1174              	.LVL114:
 1175              		.loc 4 374 0
 1176 03b4 094B     		ldr	r3, .L75+4
 1177 03b6 1A68     		ldr	r2, [r3]
 1178 03b8 9A42     		cmp	r2, r3
 1179 03ba 04D0     		beq	.L72
 1180 03bc 9B69     		ldr	r3, [r3, #24]
 1181 03be 9968     		ldr	r1, [r3, #8]
 1182 03c0 9368     		ldr	r3, [r2, #8]
 1183 03c2 9942     		cmp	r1, r3
 1184 03c4 03D3     		bcc	.L74
 1185              	.L72:
 1186              	.LVL115:
 1187              	.LBB374:
 1188              	.LBB375:
 1189              	.LBB376:
ARM GAS  C:\Users\RAKIBU~1\AppData\Local\Temp\ccnnMKTp.s 			page 22


 1190              		.loc 3 493 0
 1191 03c6 0023     		movs	r3, #0
 1192              		.syntax unified
 1193              	@ 493 "../../../ChibiOSRepo/chibios191/os/common/ext/ARM/CMSIS/Core/Include/cmsis_gcc.h" 1
 1194 03c8 83F31188 		MSR basepri, r3
 1195              	@ 0 "" 2
 1196              	.LVL116:
 1197              		.thumb
 1198              		.syntax unified
 1199              	.LBE376:
 1200              	.LBE375:
 1201              	.LBE374:
 1202              	.LBE373:
 1203              	.LBE372:
 1204              	.LBE371:
 1205              		.loc 1 262 0
 1206 03cc 70BD     		pop	{r4, r5, r6, pc}
 1207              	.LVL117:
 1208              	.L74:
 1209              	.LBB379:
 1210              	.LBB378:
 1211              	.LBB377:
 1212              		.loc 4 374 0
 1213 03ce 0448     		ldr	r0, .L75+8
 1214 03d0 FFF7FEFF 		bl	chSysHalt
 1215              	.LVL118:
 1216 03d4 F7E7     		b	.L72
 1217              	.L76:
 1218 03d6 00BF     		.align	2
 1219              	.L75:
 1220 03d8 6C000000 		.word	.LANCHOR0+108
 1221 03dc 00000000 		.word	ch
 1222 03e0 0C000000 		.word	.LANCHOR0+12
 1223              	.LBE377:
 1224              	.LBE378:
 1225              	.LBE379:
 1226              		.cfi_endproc
 1227              	.LFE337:
 1228              		.size	spiStartReceive, .-spiStartReceive
 1229              		.align	1
 1230 03e4 AFF30080 		.p2align 4,,15
 1230      AFF30080 
 1230      AFF30080 
 1231              		.global	spiAbortI
 1232              		.syntax unified
 1233              		.thumb
 1234              		.thumb_func
 1235              		.fpu softvfp
 1236              		.type	spiAbortI, %function
 1237              	spiAbortI:
 1238              	.LFB338:
 1239              		.loc 1 272 0
 1240              		.cfi_startproc
 1241              		@ args = 0, pretend = 0, frame = 0
 1242              		@ frame_needed = 0, uses_anonymous_args = 0
 1243              	.LVL119:
 1244 03f0 10B5     		push	{r4, lr}
ARM GAS  C:\Users\RAKIBU~1\AppData\Local\Temp\ccnnMKTp.s 			page 23


 1245              		.cfi_def_cfa_offset 8
 1246              		.cfi_offset 4, -8
 1247              		.cfi_offset 14, -4
 1248 03f2 0446     		mov	r4, r0
 1249              		.loc 1 274 0
 1250 03f4 FFF7FEFF 		bl	chDbgCheckClassI
 1251              	.LVL120:
 1252              		.loc 1 276 0
 1253 03f8 94B1     		cbz	r4, .L81
 1254              	.L78:
 1255              		.loc 1 277 0 discriminator 1
 1256 03fa 2378     		ldrb	r3, [r4]	@ zero_extendqisi2
 1257 03fc 033B     		subs	r3, r3, #3
 1258 03fe DBB2     		uxtb	r3, r3
 1259 0400 012B     		cmp	r3, #1
 1260 0402 02D9     		bls	.L79
 1261              		.loc 1 277 0 is_stmt 0 discriminator 2
 1262 0404 0848     		ldr	r0, .L82
 1263 0406 FFF7FEFF 		bl	chSysHalt
 1264              	.LVL121:
 1265              	.L79:
 1266              		.loc 1 280 0 is_stmt 1
 1267 040a 2046     		mov	r0, r4
 1268 040c FFF7FEFF 		bl	spi_lld_abort
 1269              	.LVL122:
 1270              		.loc 1 281 0
 1271 0410 2046     		mov	r0, r4
 1272 0412 0223     		movs	r3, #2
 1273 0414 00F8083B 		strb	r3, [r0], #8
 1274              	.LVL123:
 1275              	.LBB380:
 1276              	.LBB381:
 1277              		.loc 2 775 0
 1278 0418 0021     		movs	r1, #0
 1279 041a FFF7FEFF 		bl	chThdResumeI
 1280              	.LVL124:
 1281              	.LBE381:
 1282              	.LBE380:
 1283              		.loc 1 285 0
 1284 041e 10BD     		pop	{r4, pc}
 1285              	.LVL125:
 1286              	.L81:
 1287              		.loc 1 276 0 discriminator 2
 1288 0420 0148     		ldr	r0, .L82
 1289 0422 FFF7FEFF 		bl	chSysHalt
 1290              	.LVL126:
 1291 0426 E8E7     		b	.L78
 1292              	.L83:
 1293              		.align	2
 1294              	.L82:
 1295 0428 7C000000 		.word	.LANCHOR0+124
 1296              		.cfi_endproc
 1297              	.LFE338:
 1298              		.size	spiAbortI, .-spiAbortI
 1299              		.align	1
 1300 042c AFF30080 		.p2align 4,,15
 1301              		.global	spiAbort
ARM GAS  C:\Users\RAKIBU~1\AppData\Local\Temp\ccnnMKTp.s 			page 24


 1302              		.syntax unified
 1303              		.thumb
 1304              		.thumb_func
 1305              		.fpu softvfp
 1306              		.type	spiAbort, %function
 1307              	spiAbort:
 1308              	.LFB339:
 1309              		.loc 1 294 0
 1310              		.cfi_startproc
 1311              		@ args = 0, pretend = 0, frame = 0
 1312              		@ frame_needed = 0, uses_anonymous_args = 0
 1313              	.LVL127:
 1314 0430 10B5     		push	{r4, lr}
 1315              		.cfi_def_cfa_offset 8
 1316              		.cfi_offset 4, -8
 1317              		.cfi_offset 14, -4
 1318 0432 0446     		mov	r4, r0
 1319              	.LVL128:
 1320              	.LBB397:
 1321              	.LBB398:
 1322              	.LBB399:
 1323              	.LBB400:
 1324              	.LBB401:
 1325              	.LBB402:
 1326              		.loc 3 493 0
 1327 0434 2023     		movs	r3, #32
 1328              		.syntax unified
 1329              	@ 493 "../../../ChibiOSRepo/chibios191/os/common/ext/ARM/CMSIS/Core/Include/cmsis_gcc.h" 1
 1330 0436 83F31188 		MSR basepri, r3
 1331              	@ 0 "" 2
 1332              	.LVL129:
 1333              		.thumb
 1334              		.syntax unified
 1335              	.LBE402:
 1336              	.LBE401:
 1337              	.LBE400:
 1338              		.loc 4 356 0
 1339 043a FFF7FEFF 		bl	_stats_start_measure_crit_thd
 1340              	.LVL130:
 1341              		.loc 4 357 0
 1342 043e FFF7FEFF 		bl	_dbg_check_lock
 1343              	.LVL131:
 1344              	.LBE399:
 1345              	.LBE398:
 1346              	.LBE397:
 1347              		.loc 1 297 0
 1348 0442 2378     		ldrb	r3, [r4]	@ zero_extendqisi2
 1349 0444 023B     		subs	r3, r3, #2
 1350 0446 DBB2     		uxtb	r3, r3
 1351 0448 012B     		cmp	r3, #1
 1352 044a 13D8     		bhi	.L89
 1353              	.L85:
 1354              		.loc 1 299 0
 1355 044c 2378     		ldrb	r3, [r4]	@ zero_extendqisi2
 1356 044e 032B     		cmp	r3, #3
 1357 0450 14D0     		beq	.L90
 1358              	.L86:
ARM GAS  C:\Users\RAKIBU~1\AppData\Local\Temp\ccnnMKTp.s 			page 25


 1359              	.LBB403:
 1360              	.LBB404:
 1361              	.LBB405:
 1362              		.loc 4 367 0
 1363 0452 FFF7FEFF 		bl	_dbg_check_unlock
 1364              	.LVL132:
 1365              		.loc 4 368 0
 1366 0456 FFF7FEFF 		bl	_stats_stop_measure_crit_thd
 1367              	.LVL133:
 1368              		.loc 4 374 0
 1369 045a 0D4B     		ldr	r3, .L92
 1370 045c 1A68     		ldr	r2, [r3]
 1371 045e 9A42     		cmp	r2, r3
 1372 0460 04D0     		beq	.L87
 1373 0462 9B69     		ldr	r3, [r3, #24]
 1374 0464 9968     		ldr	r1, [r3, #8]
 1375 0466 9368     		ldr	r3, [r2, #8]
 1376 0468 9942     		cmp	r1, r3
 1377 046a 0DD3     		bcc	.L91
 1378              	.L87:
 1379              	.LVL134:
 1380              	.LBB406:
 1381              	.LBB407:
 1382              	.LBB408:
 1383              		.loc 3 493 0
 1384 046c 0023     		movs	r3, #0
 1385              		.syntax unified
 1386              	@ 493 "../../../ChibiOSRepo/chibios191/os/common/ext/ARM/CMSIS/Core/Include/cmsis_gcc.h" 1
 1387 046e 83F31188 		MSR basepri, r3
 1388              	@ 0 "" 2
 1389              	.LVL135:
 1390              		.thumb
 1391              		.syntax unified
 1392              	.LBE408:
 1393              	.LBE407:
 1394              	.LBE406:
 1395              	.LBE405:
 1396              	.LBE404:
 1397              	.LBE403:
 1398              		.loc 1 304 0
 1399 0472 10BD     		pop	{r4, pc}
 1400              	.LVL136:
 1401              	.L89:
 1402              		.loc 1 297 0 discriminator 2
 1403 0474 0748     		ldr	r0, .L92+4
 1404 0476 FFF7FEFF 		bl	chSysHalt
 1405              	.LVL137:
 1406 047a E7E7     		b	.L85
 1407              	.L90:
 1408              		.loc 1 300 0
 1409 047c 2046     		mov	r0, r4
 1410 047e FFF7FEFF 		bl	spiAbortI
 1411              	.LVL138:
 1412              	.LBB411:
 1413              	.LBB412:
 1414              		.loc 2 618 0
 1415 0482 FFF7FEFF 		bl	chSchRescheduleS
ARM GAS  C:\Users\RAKIBU~1\AppData\Local\Temp\ccnnMKTp.s 			page 26


 1416              	.LVL139:
 1417 0486 E4E7     		b	.L86
 1418              	.L91:
 1419              	.LBE412:
 1420              	.LBE411:
 1421              	.LBB413:
 1422              	.LBB410:
 1423              	.LBB409:
 1424              		.loc 4 374 0
 1425 0488 0348     		ldr	r0, .L92+8
 1426 048a FFF7FEFF 		bl	chSysHalt
 1427              	.LVL140:
 1428 048e EDE7     		b	.L87
 1429              	.L93:
 1430              		.align	2
 1431              	.L92:
 1432 0490 00000000 		.word	ch
 1433 0494 88000000 		.word	.LANCHOR0+136
 1434 0498 0C000000 		.word	.LANCHOR0+12
 1435              	.LBE409:
 1436              	.LBE410:
 1437              	.LBE413:
 1438              		.cfi_endproc
 1439              	.LFE339:
 1440              		.size	spiAbort, .-spiAbort
 1441              		.align	1
 1442 049c AFF30080 		.p2align 4,,15
 1443              		.global	spiIgnore
 1444              		.syntax unified
 1445              		.thumb
 1446              		.thumb_func
 1447              		.fpu softvfp
 1448              		.type	spiIgnore, %function
 1449              	spiIgnore:
 1450              	.LFB340:
 1451              		.loc 1 322 0
 1452              		.cfi_startproc
 1453              		@ args = 0, pretend = 0, frame = 0
 1454              		@ frame_needed = 0, uses_anonymous_args = 0
 1455              	.LVL141:
 1456 04a0 38B5     		push	{r3, r4, r5, lr}
 1457              		.cfi_def_cfa_offset 16
 1458              		.cfi_offset 3, -16
 1459              		.cfi_offset 4, -12
 1460              		.cfi_offset 5, -8
 1461              		.cfi_offset 14, -4
 1462 04a2 0D46     		mov	r5, r1
 1463              		.loc 1 324 0
 1464 04a4 0446     		mov	r4, r0
 1465 04a6 00B1     		cbz	r0, .L95
 1466              		.loc 1 324 0 is_stmt 0 discriminator 3
 1467 04a8 11B9     		cbnz	r1, .L96
 1468              	.L95:
 1469              		.loc 1 324 0 discriminator 4
 1470 04aa 1E48     		ldr	r0, .L103
 1471              	.LVL142:
 1472 04ac FFF7FEFF 		bl	chSysHalt
ARM GAS  C:\Users\RAKIBU~1\AppData\Local\Temp\ccnnMKTp.s 			page 27


 1473              	.LVL143:
 1474              	.L96:
 1475              		.loc 1 326 0 is_stmt 1 discriminator 1
 1476 04b0 6368     		ldr	r3, [r4, #4]
 1477 04b2 1B78     		ldrb	r3, [r3]	@ zero_extendqisi2
 1478 04b4 13B1     		cbz	r3, .L97
 1479              		.loc 1 326 0 is_stmt 0 discriminator 2
 1480 04b6 15F0010F 		tst	r5, #1
 1481 04ba 2BD1     		bne	.L101
 1482              	.L97:
 1483              	.LVL144:
 1484              	.LBB429:
 1485              	.LBB430:
 1486              	.LBB431:
 1487              	.LBB432:
 1488              	.LBB433:
 1489              	.LBB434:
 1490              		.loc 3 493 0 is_stmt 1
 1491 04bc 2023     		movs	r3, #32
 1492              		.syntax unified
 1493              	@ 493 "../../../ChibiOSRepo/chibios191/os/common/ext/ARM/CMSIS/Core/Include/cmsis_gcc.h" 1
 1494 04be 83F31188 		MSR basepri, r3
 1495              	@ 0 "" 2
 1496              	.LVL145:
 1497              		.thumb
 1498              		.syntax unified
 1499              	.LBE434:
 1500              	.LBE433:
 1501              	.LBE432:
 1502              		.loc 4 356 0
 1503 04c2 FFF7FEFF 		bl	_stats_start_measure_crit_thd
 1504              	.LVL146:
 1505              		.loc 4 357 0
 1506 04c6 FFF7FEFF 		bl	_dbg_check_lock
 1507              	.LVL147:
 1508              	.LBE431:
 1509              	.LBE430:
 1510              	.LBE429:
 1511              		.loc 1 330 0
 1512 04ca 2378     		ldrb	r3, [r4]	@ zero_extendqisi2
 1513 04cc 022B     		cmp	r3, #2
 1514 04ce 02D0     		beq	.L98
 1515              		.loc 1 330 0 is_stmt 0 discriminator 2
 1516 04d0 1448     		ldr	r0, .L103
 1517 04d2 FFF7FEFF 		bl	chSysHalt
 1518              	.LVL148:
 1519              	.L98:
 1520              		.loc 1 331 0 is_stmt 1
 1521 04d6 0323     		movs	r3, #3
 1522 04d8 2370     		strb	r3, [r4]
 1523 04da 2946     		mov	r1, r5
 1524 04dc 2046     		mov	r0, r4
 1525 04de FFF7FEFF 		bl	spi_lld_ignore
 1526              	.LVL149:
 1527              	.LBB435:
 1528              	.LBB436:
 1529              		.loc 2 735 0
ARM GAS  C:\Users\RAKIBU~1\AppData\Local\Temp\ccnnMKTp.s 			page 28


 1530 04e2 4FF0FF32 		mov	r2, #-1
 1531 04e6 4FF0FF33 		mov	r3, #-1
 1532 04ea 04F10800 		add	r0, r4, #8
 1533              	.LVL150:
 1534 04ee FFF7FEFF 		bl	chThdSuspendTimeoutS
 1535              	.LVL151:
 1536              	.LBE436:
 1537              	.LBE435:
 1538              	.LBB437:
 1539              	.LBB438:
 1540              	.LBB439:
 1541              		.loc 4 367 0
 1542 04f2 FFF7FEFF 		bl	_dbg_check_unlock
 1543              	.LVL152:
 1544              		.loc 4 368 0
 1545 04f6 FFF7FEFF 		bl	_stats_stop_measure_crit_thd
 1546              	.LVL153:
 1547              		.loc 4 374 0
 1548 04fa 0B4B     		ldr	r3, .L103+4
 1549 04fc 1A68     		ldr	r2, [r3]
 1550 04fe 9A42     		cmp	r2, r3
 1551 0500 04D0     		beq	.L99
 1552 0502 9B69     		ldr	r3, [r3, #24]
 1553 0504 9968     		ldr	r1, [r3, #8]
 1554 0506 9368     		ldr	r3, [r2, #8]
 1555 0508 9942     		cmp	r1, r3
 1556 050a 07D3     		bcc	.L102
 1557              	.L99:
 1558              	.LVL154:
 1559              	.LBB440:
 1560              	.LBB441:
 1561              	.LBB442:
 1562              		.loc 3 493 0
 1563 050c 0023     		movs	r3, #0
 1564              		.syntax unified
 1565              	@ 493 "../../../ChibiOSRepo/chibios191/os/common/ext/ARM/CMSIS/Core/Include/cmsis_gcc.h" 1
 1566 050e 83F31188 		MSR basepri, r3
 1567              	@ 0 "" 2
 1568              	.LVL155:
 1569              		.thumb
 1570              		.syntax unified
 1571              	.LBE442:
 1572              	.LBE441:
 1573              	.LBE440:
 1574              	.LBE439:
 1575              	.LBE438:
 1576              	.LBE437:
 1577              		.loc 1 334 0
 1578 0512 38BD     		pop	{r3, r4, r5, pc}
 1579              	.LVL156:
 1580              	.L101:
 1581              		.loc 1 326 0 discriminator 3
 1582 0514 0348     		ldr	r0, .L103
 1583 0516 FFF7FEFF 		bl	chSysHalt
 1584              	.LVL157:
 1585 051a CFE7     		b	.L97
 1586              	.L102:
ARM GAS  C:\Users\RAKIBU~1\AppData\Local\Temp\ccnnMKTp.s 			page 29


 1587              	.LBB445:
 1588              	.LBB444:
 1589              	.LBB443:
 1590              		.loc 4 374 0
 1591 051c 0348     		ldr	r0, .L103+8
 1592 051e FFF7FEFF 		bl	chSysHalt
 1593              	.LVL158:
 1594 0522 F3E7     		b	.L99
 1595              	.L104:
 1596              		.align	2
 1597              	.L103:
 1598 0524 94000000 		.word	.LANCHOR0+148
 1599 0528 00000000 		.word	ch
 1600 052c 0C000000 		.word	.LANCHOR0+12
 1601              	.LBE443:
 1602              	.LBE444:
 1603              	.LBE445:
 1604              		.cfi_endproc
 1605              	.LFE340:
 1606              		.size	spiIgnore, .-spiIgnore
 1607              		.align	1
 1608              		.p2align 4,,15
 1609              		.global	spiExchange
 1610              		.syntax unified
 1611              		.thumb
 1612              		.thumb_func
 1613              		.fpu softvfp
 1614              		.type	spiExchange, %function
 1615              	spiExchange:
 1616              	.LFB341:
 1617              		.loc 1 355 0
 1618              		.cfi_startproc
 1619              		@ args = 0, pretend = 0, frame = 0
 1620              		@ frame_needed = 0, uses_anonymous_args = 0
 1621              	.LVL159:
 1622 0530 F8B5     		push	{r3, r4, r5, r6, r7, lr}
 1623              		.cfi_def_cfa_offset 24
 1624              		.cfi_offset 3, -24
 1625              		.cfi_offset 4, -20
 1626              		.cfi_offset 5, -16
 1627              		.cfi_offset 6, -12
 1628              		.cfi_offset 7, -8
 1629              		.cfi_offset 14, -4
 1630 0532 0D46     		mov	r5, r1
 1631 0534 1746     		mov	r7, r2
 1632 0536 1E46     		mov	r6, r3
 1633              		.loc 1 357 0
 1634 0538 0446     		mov	r4, r0
 1635 053a 10B1     		cbz	r0, .L106
 1636              		.loc 1 357 0 is_stmt 0 discriminator 3
 1637 053c 09B1     		cbz	r1, .L106
 1638              		.loc 1 357 0 discriminator 5
 1639 053e 03B1     		cbz	r3, .L106
 1640              		.loc 1 357 0 discriminator 7
 1641 0540 12B9     		cbnz	r2, .L107
 1642              	.L106:
 1643              		.loc 1 357 0 discriminator 8
ARM GAS  C:\Users\RAKIBU~1\AppData\Local\Temp\ccnnMKTp.s 			page 30


 1644 0542 1F48     		ldr	r0, .L114
 1645              	.LVL160:
 1646 0544 FFF7FEFF 		bl	chSysHalt
 1647              	.LVL161:
 1648              	.L107:
 1649              		.loc 1 360 0 is_stmt 1 discriminator 1
 1650 0548 6368     		ldr	r3, [r4, #4]
 1651 054a 1B78     		ldrb	r3, [r3]	@ zero_extendqisi2
 1652 054c 13B1     		cbz	r3, .L108
 1653              		.loc 1 360 0 is_stmt 0 discriminator 2
 1654 054e 15F0010F 		tst	r5, #1
 1655 0552 2DD1     		bne	.L112
 1656              	.L108:
 1657              	.LVL162:
 1658              	.LBB461:
 1659              	.LBB462:
 1660              	.LBB463:
 1661              	.LBB464:
 1662              	.LBB465:
 1663              	.LBB466:
 1664              		.loc 3 493 0 is_stmt 1
 1665 0554 2023     		movs	r3, #32
 1666              		.syntax unified
 1667              	@ 493 "../../../ChibiOSRepo/chibios191/os/common/ext/ARM/CMSIS/Core/Include/cmsis_gcc.h" 1
 1668 0556 83F31188 		MSR basepri, r3
 1669              	@ 0 "" 2
 1670              	.LVL163:
 1671              		.thumb
 1672              		.syntax unified
 1673              	.LBE466:
 1674              	.LBE465:
 1675              	.LBE464:
 1676              		.loc 4 356 0
 1677 055a FFF7FEFF 		bl	_stats_start_measure_crit_thd
 1678              	.LVL164:
 1679              		.loc 4 357 0
 1680 055e FFF7FEFF 		bl	_dbg_check_lock
 1681              	.LVL165:
 1682              	.LBE463:
 1683              	.LBE462:
 1684              	.LBE461:
 1685              		.loc 1 364 0
 1686 0562 2378     		ldrb	r3, [r4]	@ zero_extendqisi2
 1687 0564 022B     		cmp	r3, #2
 1688 0566 02D0     		beq	.L109
 1689              		.loc 1 364 0 is_stmt 0 discriminator 2
 1690 0568 1548     		ldr	r0, .L114
 1691 056a FFF7FEFF 		bl	chSysHalt
 1692              	.LVL166:
 1693              	.L109:
 1694              		.loc 1 365 0 is_stmt 1
 1695 056e 0323     		movs	r3, #3
 1696 0570 2370     		strb	r3, [r4]
 1697 0572 3346     		mov	r3, r6
 1698 0574 3A46     		mov	r2, r7
 1699 0576 2946     		mov	r1, r5
 1700 0578 2046     		mov	r0, r4
ARM GAS  C:\Users\RAKIBU~1\AppData\Local\Temp\ccnnMKTp.s 			page 31


 1701 057a FFF7FEFF 		bl	spi_lld_exchange
 1702              	.LVL167:
 1703              	.LBB467:
 1704              	.LBB468:
 1705              		.loc 2 735 0
 1706 057e 4FF0FF32 		mov	r2, #-1
 1707 0582 4FF0FF33 		mov	r3, #-1
 1708 0586 04F10800 		add	r0, r4, #8
 1709              	.LVL168:
 1710 058a FFF7FEFF 		bl	chThdSuspendTimeoutS
 1711              	.LVL169:
 1712              	.LBE468:
 1713              	.LBE467:
 1714              	.LBB469:
 1715              	.LBB470:
 1716              	.LBB471:
 1717              		.loc 4 367 0
 1718 058e FFF7FEFF 		bl	_dbg_check_unlock
 1719              	.LVL170:
 1720              		.loc 4 368 0
 1721 0592 FFF7FEFF 		bl	_stats_stop_measure_crit_thd
 1722              	.LVL171:
 1723              		.loc 4 374 0
 1724 0596 0B4B     		ldr	r3, .L114+4
 1725 0598 1A68     		ldr	r2, [r3]
 1726 059a 9A42     		cmp	r2, r3
 1727 059c 04D0     		beq	.L110
 1728 059e 9B69     		ldr	r3, [r3, #24]
 1729 05a0 9968     		ldr	r1, [r3, #8]
 1730 05a2 9368     		ldr	r3, [r2, #8]
 1731 05a4 9942     		cmp	r1, r3
 1732 05a6 07D3     		bcc	.L113
 1733              	.L110:
 1734              	.LVL172:
 1735              	.LBB472:
 1736              	.LBB473:
 1737              	.LBB474:
 1738              		.loc 3 493 0
 1739 05a8 0023     		movs	r3, #0
 1740              		.syntax unified
 1741              	@ 493 "../../../ChibiOSRepo/chibios191/os/common/ext/ARM/CMSIS/Core/Include/cmsis_gcc.h" 1
 1742 05aa 83F31188 		MSR basepri, r3
 1743              	@ 0 "" 2
 1744              	.LVL173:
 1745              		.thumb
 1746              		.syntax unified
 1747              	.LBE474:
 1748              	.LBE473:
 1749              	.LBE472:
 1750              	.LBE471:
 1751              	.LBE470:
 1752              	.LBE469:
 1753              		.loc 1 368 0
 1754 05ae F8BD     		pop	{r3, r4, r5, r6, r7, pc}
 1755              	.LVL174:
 1756              	.L112:
 1757              		.loc 1 360 0 discriminator 3
ARM GAS  C:\Users\RAKIBU~1\AppData\Local\Temp\ccnnMKTp.s 			page 32


 1758 05b0 0348     		ldr	r0, .L114
 1759 05b2 FFF7FEFF 		bl	chSysHalt
 1760              	.LVL175:
 1761 05b6 CDE7     		b	.L108
 1762              	.L113:
 1763              	.LBB477:
 1764              	.LBB476:
 1765              	.LBB475:
 1766              		.loc 4 374 0
 1767 05b8 0348     		ldr	r0, .L114+8
 1768 05ba FFF7FEFF 		bl	chSysHalt
 1769              	.LVL176:
 1770 05be F3E7     		b	.L110
 1771              	.L115:
 1772              		.align	2
 1773              	.L114:
 1774 05c0 A0000000 		.word	.LANCHOR0+160
 1775 05c4 00000000 		.word	ch
 1776 05c8 0C000000 		.word	.LANCHOR0+12
 1777              	.LBE475:
 1778              	.LBE476:
 1779              	.LBE477:
 1780              		.cfi_endproc
 1781              	.LFE341:
 1782              		.size	spiExchange, .-spiExchange
 1783              		.align	1
 1784 05cc AFF30080 		.p2align 4,,15
 1785              		.global	spiSend
 1786              		.syntax unified
 1787              		.thumb
 1788              		.thumb_func
 1789              		.fpu softvfp
 1790              		.type	spiSend, %function
 1791              	spiSend:
 1792              	.LFB342:
 1793              		.loc 1 386 0
 1794              		.cfi_startproc
 1795              		@ args = 0, pretend = 0, frame = 0
 1796              		@ frame_needed = 0, uses_anonymous_args = 0
 1797              	.LVL177:
 1798 05d0 70B5     		push	{r4, r5, r6, lr}
 1799              		.cfi_def_cfa_offset 16
 1800              		.cfi_offset 4, -16
 1801              		.cfi_offset 5, -12
 1802              		.cfi_offset 6, -8
 1803              		.cfi_offset 14, -4
 1804 05d2 0D46     		mov	r5, r1
 1805 05d4 1646     		mov	r6, r2
 1806              		.loc 1 388 0
 1807 05d6 0446     		mov	r4, r0
 1808 05d8 08B1     		cbz	r0, .L117
 1809              		.loc 1 388 0 is_stmt 0 discriminator 3
 1810 05da 01B1     		cbz	r1, .L117
 1811              		.loc 1 388 0 discriminator 5
 1812 05dc 12B9     		cbnz	r2, .L118
 1813              	.L117:
 1814              		.loc 1 388 0 discriminator 6
ARM GAS  C:\Users\RAKIBU~1\AppData\Local\Temp\ccnnMKTp.s 			page 33


 1815 05de 1F48     		ldr	r0, .L125
 1816              	.LVL178:
 1817 05e0 FFF7FEFF 		bl	chSysHalt
 1818              	.LVL179:
 1819              	.L118:
 1820              		.loc 1 390 0 is_stmt 1 discriminator 1
 1821 05e4 6368     		ldr	r3, [r4, #4]
 1822 05e6 1B78     		ldrb	r3, [r3]	@ zero_extendqisi2
 1823 05e8 13B1     		cbz	r3, .L119
 1824              		.loc 1 390 0 is_stmt 0 discriminator 2
 1825 05ea 15F0010F 		tst	r5, #1
 1826 05ee 2CD1     		bne	.L123
 1827              	.L119:
 1828              	.LVL180:
 1829              	.LBB493:
 1830              	.LBB494:
 1831              	.LBB495:
 1832              	.LBB496:
 1833              	.LBB497:
 1834              	.LBB498:
 1835              		.loc 3 493 0 is_stmt 1
 1836 05f0 2023     		movs	r3, #32
 1837              		.syntax unified
 1838              	@ 493 "../../../ChibiOSRepo/chibios191/os/common/ext/ARM/CMSIS/Core/Include/cmsis_gcc.h" 1
 1839 05f2 83F31188 		MSR basepri, r3
 1840              	@ 0 "" 2
 1841              	.LVL181:
 1842              		.thumb
 1843              		.syntax unified
 1844              	.LBE498:
 1845              	.LBE497:
 1846              	.LBE496:
 1847              		.loc 4 356 0
 1848 05f6 FFF7FEFF 		bl	_stats_start_measure_crit_thd
 1849              	.LVL182:
 1850              		.loc 4 357 0
 1851 05fa FFF7FEFF 		bl	_dbg_check_lock
 1852              	.LVL183:
 1853              	.LBE495:
 1854              	.LBE494:
 1855              	.LBE493:
 1856              		.loc 1 394 0
 1857 05fe 2378     		ldrb	r3, [r4]	@ zero_extendqisi2
 1858 0600 022B     		cmp	r3, #2
 1859 0602 02D0     		beq	.L120
 1860              		.loc 1 394 0 is_stmt 0 discriminator 2
 1861 0604 1548     		ldr	r0, .L125
 1862 0606 FFF7FEFF 		bl	chSysHalt
 1863              	.LVL184:
 1864              	.L120:
 1865              		.loc 1 395 0 is_stmt 1
 1866 060a 0323     		movs	r3, #3
 1867 060c 2370     		strb	r3, [r4]
 1868 060e 3246     		mov	r2, r6
 1869 0610 2946     		mov	r1, r5
 1870 0612 2046     		mov	r0, r4
 1871 0614 FFF7FEFF 		bl	spi_lld_send
ARM GAS  C:\Users\RAKIBU~1\AppData\Local\Temp\ccnnMKTp.s 			page 34


 1872              	.LVL185:
 1873              	.LBB499:
 1874              	.LBB500:
 1875              		.loc 2 735 0
 1876 0618 4FF0FF32 		mov	r2, #-1
 1877 061c 4FF0FF33 		mov	r3, #-1
 1878 0620 04F10800 		add	r0, r4, #8
 1879              	.LVL186:
 1880 0624 FFF7FEFF 		bl	chThdSuspendTimeoutS
 1881              	.LVL187:
 1882              	.LBE500:
 1883              	.LBE499:
 1884              	.LBB501:
 1885              	.LBB502:
 1886              	.LBB503:
 1887              		.loc 4 367 0
 1888 0628 FFF7FEFF 		bl	_dbg_check_unlock
 1889              	.LVL188:
 1890              		.loc 4 368 0
 1891 062c FFF7FEFF 		bl	_stats_stop_measure_crit_thd
 1892              	.LVL189:
 1893              		.loc 4 374 0
 1894 0630 0B4B     		ldr	r3, .L125+4
 1895 0632 1A68     		ldr	r2, [r3]
 1896 0634 9A42     		cmp	r2, r3
 1897 0636 04D0     		beq	.L121
 1898 0638 9B69     		ldr	r3, [r3, #24]
 1899 063a 9968     		ldr	r1, [r3, #8]
 1900 063c 9368     		ldr	r3, [r2, #8]
 1901 063e 9942     		cmp	r1, r3
 1902 0640 07D3     		bcc	.L124
 1903              	.L121:
 1904              	.LVL190:
 1905              	.LBB504:
 1906              	.LBB505:
 1907              	.LBB506:
 1908              		.loc 3 493 0
 1909 0642 0023     		movs	r3, #0
 1910              		.syntax unified
 1911              	@ 493 "../../../ChibiOSRepo/chibios191/os/common/ext/ARM/CMSIS/Core/Include/cmsis_gcc.h" 1
 1912 0644 83F31188 		MSR basepri, r3
 1913              	@ 0 "" 2
 1914              	.LVL191:
 1915              		.thumb
 1916              		.syntax unified
 1917              	.LBE506:
 1918              	.LBE505:
 1919              	.LBE504:
 1920              	.LBE503:
 1921              	.LBE502:
 1922              	.LBE501:
 1923              		.loc 1 398 0
 1924 0648 70BD     		pop	{r4, r5, r6, pc}
 1925              	.LVL192:
 1926              	.L123:
 1927              		.loc 1 390 0 discriminator 3
 1928 064a 0448     		ldr	r0, .L125
ARM GAS  C:\Users\RAKIBU~1\AppData\Local\Temp\ccnnMKTp.s 			page 35


 1929 064c FFF7FEFF 		bl	chSysHalt
 1930              	.LVL193:
 1931 0650 CEE7     		b	.L119
 1932              	.L124:
 1933              	.LBB509:
 1934              	.LBB508:
 1935              	.LBB507:
 1936              		.loc 4 374 0
 1937 0652 0448     		ldr	r0, .L125+8
 1938 0654 FFF7FEFF 		bl	chSysHalt
 1939              	.LVL194:
 1940 0658 F3E7     		b	.L121
 1941              	.L126:
 1942 065a 00BF     		.align	2
 1943              	.L125:
 1944 065c AC000000 		.word	.LANCHOR0+172
 1945 0660 00000000 		.word	ch
 1946 0664 0C000000 		.word	.LANCHOR0+12
 1947              	.LBE507:
 1948              	.LBE508:
 1949              	.LBE509:
 1950              		.cfi_endproc
 1951              	.LFE342:
 1952              		.size	spiSend, .-spiSend
 1953              		.align	1
 1954 0668 AFF30080 		.p2align 4,,15
 1954      AFF30080 
 1955              		.global	spiReceive
 1956              		.syntax unified
 1957              		.thumb
 1958              		.thumb_func
 1959              		.fpu softvfp
 1960              		.type	spiReceive, %function
 1961              	spiReceive:
 1962              	.LFB343:
 1963              		.loc 1 416 0
 1964              		.cfi_startproc
 1965              		@ args = 0, pretend = 0, frame = 0
 1966              		@ frame_needed = 0, uses_anonymous_args = 0
 1967              	.LVL195:
 1968 0670 70B5     		push	{r4, r5, r6, lr}
 1969              		.cfi_def_cfa_offset 16
 1970              		.cfi_offset 4, -16
 1971              		.cfi_offset 5, -12
 1972              		.cfi_offset 6, -8
 1973              		.cfi_offset 14, -4
 1974 0672 0D46     		mov	r5, r1
 1975 0674 1646     		mov	r6, r2
 1976              		.loc 1 418 0
 1977 0676 0446     		mov	r4, r0
 1978 0678 08B1     		cbz	r0, .L128
 1979              		.loc 1 418 0 is_stmt 0 discriminator 3
 1980 067a 01B1     		cbz	r1, .L128
 1981              		.loc 1 418 0 discriminator 5
 1982 067c 12B9     		cbnz	r2, .L129
 1983              	.L128:
 1984              		.loc 1 418 0 discriminator 6
ARM GAS  C:\Users\RAKIBU~1\AppData\Local\Temp\ccnnMKTp.s 			page 36


 1985 067e 1F48     		ldr	r0, .L136
 1986              	.LVL196:
 1987 0680 FFF7FEFF 		bl	chSysHalt
 1988              	.LVL197:
 1989              	.L129:
 1990              		.loc 1 420 0 is_stmt 1 discriminator 1
 1991 0684 6368     		ldr	r3, [r4, #4]
 1992 0686 1B78     		ldrb	r3, [r3]	@ zero_extendqisi2
 1993 0688 13B1     		cbz	r3, .L130
 1994              		.loc 1 420 0 is_stmt 0 discriminator 2
 1995 068a 15F0010F 		tst	r5, #1
 1996 068e 2CD1     		bne	.L134
 1997              	.L130:
 1998              	.LVL198:
 1999              	.LBB525:
 2000              	.LBB526:
 2001              	.LBB527:
 2002              	.LBB528:
 2003              	.LBB529:
 2004              	.LBB530:
 2005              		.loc 3 493 0 is_stmt 1
 2006 0690 2023     		movs	r3, #32
 2007              		.syntax unified
 2008              	@ 493 "../../../ChibiOSRepo/chibios191/os/common/ext/ARM/CMSIS/Core/Include/cmsis_gcc.h" 1
 2009 0692 83F31188 		MSR basepri, r3
 2010              	@ 0 "" 2
 2011              	.LVL199:
 2012              		.thumb
 2013              		.syntax unified
 2014              	.LBE530:
 2015              	.LBE529:
 2016              	.LBE528:
 2017              		.loc 4 356 0
 2018 0696 FFF7FEFF 		bl	_stats_start_measure_crit_thd
 2019              	.LVL200:
 2020              		.loc 4 357 0
 2021 069a FFF7FEFF 		bl	_dbg_check_lock
 2022              	.LVL201:
 2023              	.LBE527:
 2024              	.LBE526:
 2025              	.LBE525:
 2026              		.loc 1 424 0
 2027 069e 2378     		ldrb	r3, [r4]	@ zero_extendqisi2
 2028 06a0 022B     		cmp	r3, #2
 2029 06a2 02D0     		beq	.L131
 2030              		.loc 1 424 0 is_stmt 0 discriminator 2
 2031 06a4 1548     		ldr	r0, .L136
 2032 06a6 FFF7FEFF 		bl	chSysHalt
 2033              	.LVL202:
 2034              	.L131:
 2035              		.loc 1 425 0 is_stmt 1
 2036 06aa 0323     		movs	r3, #3
 2037 06ac 2370     		strb	r3, [r4]
 2038 06ae 3246     		mov	r2, r6
 2039 06b0 2946     		mov	r1, r5
 2040 06b2 2046     		mov	r0, r4
 2041 06b4 FFF7FEFF 		bl	spi_lld_receive
ARM GAS  C:\Users\RAKIBU~1\AppData\Local\Temp\ccnnMKTp.s 			page 37


 2042              	.LVL203:
 2043              	.LBB531:
 2044              	.LBB532:
 2045              		.loc 2 735 0
 2046 06b8 4FF0FF32 		mov	r2, #-1
 2047 06bc 4FF0FF33 		mov	r3, #-1
 2048 06c0 04F10800 		add	r0, r4, #8
 2049              	.LVL204:
 2050 06c4 FFF7FEFF 		bl	chThdSuspendTimeoutS
 2051              	.LVL205:
 2052              	.LBE532:
 2053              	.LBE531:
 2054              	.LBB533:
 2055              	.LBB534:
 2056              	.LBB535:
 2057              		.loc 4 367 0
 2058 06c8 FFF7FEFF 		bl	_dbg_check_unlock
 2059              	.LVL206:
 2060              		.loc 4 368 0
 2061 06cc FFF7FEFF 		bl	_stats_stop_measure_crit_thd
 2062              	.LVL207:
 2063              		.loc 4 374 0
 2064 06d0 0B4B     		ldr	r3, .L136+4
 2065 06d2 1A68     		ldr	r2, [r3]
 2066 06d4 9A42     		cmp	r2, r3
 2067 06d6 04D0     		beq	.L132
 2068 06d8 9B69     		ldr	r3, [r3, #24]
 2069 06da 9968     		ldr	r1, [r3, #8]
 2070 06dc 9368     		ldr	r3, [r2, #8]
 2071 06de 9942     		cmp	r1, r3
 2072 06e0 07D3     		bcc	.L135
 2073              	.L132:
 2074              	.LVL208:
 2075              	.LBB536:
 2076              	.LBB537:
 2077              	.LBB538:
 2078              		.loc 3 493 0
 2079 06e2 0023     		movs	r3, #0
 2080              		.syntax unified
 2081              	@ 493 "../../../ChibiOSRepo/chibios191/os/common/ext/ARM/CMSIS/Core/Include/cmsis_gcc.h" 1
 2082 06e4 83F31188 		MSR basepri, r3
 2083              	@ 0 "" 2
 2084              	.LVL209:
 2085              		.thumb
 2086              		.syntax unified
 2087              	.LBE538:
 2088              	.LBE537:
 2089              	.LBE536:
 2090              	.LBE535:
 2091              	.LBE534:
 2092              	.LBE533:
 2093              		.loc 1 428 0
 2094 06e8 70BD     		pop	{r4, r5, r6, pc}
 2095              	.LVL210:
 2096              	.L134:
 2097              		.loc 1 420 0 discriminator 3
 2098 06ea 0448     		ldr	r0, .L136
ARM GAS  C:\Users\RAKIBU~1\AppData\Local\Temp\ccnnMKTp.s 			page 38


 2099 06ec FFF7FEFF 		bl	chSysHalt
 2100              	.LVL211:
 2101 06f0 CEE7     		b	.L130
 2102              	.L135:
 2103              	.LBB541:
 2104              	.LBB540:
 2105              	.LBB539:
 2106              		.loc 4 374 0
 2107 06f2 0448     		ldr	r0, .L136+8
 2108 06f4 FFF7FEFF 		bl	chSysHalt
 2109              	.LVL212:
 2110 06f8 F3E7     		b	.L132
 2111              	.L137:
 2112 06fa 00BF     		.align	2
 2113              	.L136:
 2114 06fc B4000000 		.word	.LANCHOR0+180
 2115 0700 00000000 		.word	ch
 2116 0704 0C000000 		.word	.LANCHOR0+12
 2117              	.LBE539:
 2118              	.LBE540:
 2119              	.LBE541:
 2120              		.cfi_endproc
 2121              	.LFE343:
 2122              		.size	spiReceive, .-spiReceive
 2123              		.align	1
 2124 0708 AFF30080 		.p2align 4,,15
 2124      AFF30080 
 2125              		.global	spiAcquireBus
 2126              		.syntax unified
 2127              		.thumb
 2128              		.thumb_func
 2129              		.fpu softvfp
 2130              		.type	spiAcquireBus, %function
 2131              	spiAcquireBus:
 2132              	.LFB344:
 2133              		.loc 1 443 0
 2134              		.cfi_startproc
 2135              		@ args = 0, pretend = 0, frame = 0
 2136              		@ frame_needed = 0, uses_anonymous_args = 0
 2137              	.LVL213:
 2138 0710 10B5     		push	{r4, lr}
 2139              		.cfi_def_cfa_offset 8
 2140              		.cfi_offset 4, -8
 2141              		.cfi_offset 14, -4
 2142              		.loc 1 445 0
 2143 0712 0446     		mov	r4, r0
 2144 0714 20B1     		cbz	r0, .L141
 2145              	.LVL214:
 2146              	.L139:
 2147              	.LBB542:
 2148              	.LBB543:
 2149              		.loc 2 994 0
 2150 0716 04F10C00 		add	r0, r4, #12
 2151              	.LVL215:
 2152 071a FFF7FEFF 		bl	chMtxLock
 2153              	.LVL216:
 2154              	.LBE543:
ARM GAS  C:\Users\RAKIBU~1\AppData\Local\Temp\ccnnMKTp.s 			page 39


 2155              	.LBE542:
 2156              		.loc 1 448 0
 2157 071e 10BD     		pop	{r4, pc}
 2158              	.LVL217:
 2159              	.L141:
 2160              		.loc 1 445 0 discriminator 2
 2161 0720 0148     		ldr	r0, .L142
 2162              	.LVL218:
 2163 0722 FFF7FEFF 		bl	chSysHalt
 2164              	.LVL219:
 2165 0726 F6E7     		b	.L139
 2166              	.L143:
 2167              		.align	2
 2168              	.L142:
 2169 0728 C0000000 		.word	.LANCHOR0+192
 2170              		.cfi_endproc
 2171              	.LFE344:
 2172              		.size	spiAcquireBus, .-spiAcquireBus
 2173              		.align	1
 2174 072c AFF30080 		.p2align 4,,15
 2175              		.global	spiReleaseBus
 2176              		.syntax unified
 2177              		.thumb
 2178              		.thumb_func
 2179              		.fpu softvfp
 2180              		.type	spiReleaseBus, %function
 2181              	spiReleaseBus:
 2182              	.LFB345:
 2183              		.loc 1 459 0
 2184              		.cfi_startproc
 2185              		@ args = 0, pretend = 0, frame = 0
 2186              		@ frame_needed = 0, uses_anonymous_args = 0
 2187              	.LVL220:
 2188 0730 10B5     		push	{r4, lr}
 2189              		.cfi_def_cfa_offset 8
 2190              		.cfi_offset 4, -8
 2191              		.cfi_offset 14, -4
 2192              		.loc 1 461 0
 2193 0732 0446     		mov	r4, r0
 2194 0734 20B1     		cbz	r0, .L147
 2195              	.LVL221:
 2196              	.L145:
 2197              	.LBB544:
 2198              	.LBB545:
 2199              		.loc 2 1018 0
 2200 0736 04F10C00 		add	r0, r4, #12
 2201              	.LVL222:
 2202 073a FFF7FEFF 		bl	chMtxUnlock
 2203              	.LVL223:
 2204              	.LBE545:
 2205              	.LBE544:
 2206              		.loc 1 464 0
 2207 073e 10BD     		pop	{r4, pc}
 2208              	.LVL224:
 2209              	.L147:
 2210              		.loc 1 461 0 discriminator 2
 2211 0740 0148     		ldr	r0, .L148
ARM GAS  C:\Users\RAKIBU~1\AppData\Local\Temp\ccnnMKTp.s 			page 40


 2212              	.LVL225:
 2213 0742 FFF7FEFF 		bl	chSysHalt
 2214              	.LVL226:
 2215 0746 F6E7     		b	.L145
 2216              	.L149:
 2217              		.align	2
 2218              	.L148:
 2219 0748 D0000000 		.word	.LANCHOR0+208
 2220              		.cfi_endproc
 2221              	.LFE345:
 2222              		.size	spiReleaseBus, .-spiReleaseBus
 2223              		.section	.rodata
 2224              		.align	2
 2225              		.set	.LANCHOR0,. + 0
 2226              		.type	__func__.8975, %object
 2227              		.size	__func__.8975, 9
 2228              	__func__.8975:
 2229 0000 73706953 		.ascii	"spiStart\000"
 2229      74617274 
 2229      00
 2230 0009 000000   		.space	3
 2231              		.type	__func__.6118, %object
 2232              		.size	__func__.6118, 12
 2233              	__func__.6118:
 2234 000c 63685379 		.ascii	"chSysUnlock\000"
 2234      73556E6C 
 2234      6F636B00 
 2235              		.type	__func__.8979, %object
 2236              		.size	__func__.8979, 8
 2237              	__func__.8979:
 2238 0018 73706953 		.ascii	"spiStop\000"
 2238      746F7000 
 2239              		.type	__func__.8983, %object
 2240              		.size	__func__.8983, 10
 2241              	__func__.8983:
 2242 0020 73706953 		.ascii	"spiSelect\000"
 2242      656C6563 
 2242      7400
 2243 002a 0000     		.space	2
 2244              		.type	__func__.8987, %object
 2245              		.size	__func__.8987, 12
 2246              	__func__.8987:
 2247 002c 73706955 		.ascii	"spiUnselect\000"
 2247      6E73656C 
 2247      65637400 
 2248              		.type	__func__.8992, %object
 2249              		.size	__func__.8992, 15
 2250              	__func__.8992:
 2251 0038 73706953 		.ascii	"spiStartIgnore\000"
 2251      74617274 
 2251      49676E6F 
 2251      726500
 2252 0047 00       		.space	1
 2253              		.type	__func__.8999, %object
 2254              		.size	__func__.8999, 17
 2255              	__func__.8999:
 2256 0048 73706953 		.ascii	"spiStartExchange\000"
ARM GAS  C:\Users\RAKIBU~1\AppData\Local\Temp\ccnnMKTp.s 			page 41


 2256      74617274 
 2256      45786368 
 2256      616E6765 
 2256      00
 2257 0059 000000   		.space	3
 2258              		.type	__func__.9005, %object
 2259              		.size	__func__.9005, 13
 2260              	__func__.9005:
 2261 005c 73706953 		.ascii	"spiStartSend\000"
 2261      74617274 
 2261      53656E64 
 2261      00
 2262 0069 000000   		.space	3
 2263              		.type	__func__.9011, %object
 2264              		.size	__func__.9011, 16
 2265              	__func__.9011:
 2266 006c 73706953 		.ascii	"spiStartReceive\000"
 2266      74617274 
 2266      52656365 
 2266      69766500 
 2267              		.type	__func__.9015, %object
 2268              		.size	__func__.9015, 10
 2269              	__func__.9015:
 2270 007c 73706941 		.ascii	"spiAbortI\000"
 2270      626F7274 
 2270      4900
 2271 0086 0000     		.space	2
 2272              		.type	__func__.9019, %object
 2273              		.size	__func__.9019, 9
 2274              	__func__.9019:
 2275 0088 73706941 		.ascii	"spiAbort\000"
 2275      626F7274 
 2275      00
 2276 0091 000000   		.space	3
 2277              		.type	__func__.9024, %object
 2278              		.size	__func__.9024, 10
 2279              	__func__.9024:
 2280 0094 73706949 		.ascii	"spiIgnore\000"
 2280      676E6F72 
 2280      6500
 2281 009e 0000     		.space	2
 2282              		.type	__func__.9031, %object
 2283              		.size	__func__.9031, 12
 2284              	__func__.9031:
 2285 00a0 73706945 		.ascii	"spiExchange\000"
 2285      78636861 
 2285      6E676500 
 2286              		.type	__func__.9037, %object
 2287              		.size	__func__.9037, 8
 2288              	__func__.9037:
 2289 00ac 73706953 		.ascii	"spiSend\000"
 2289      656E6400 
 2290              		.type	__func__.9043, %object
 2291              		.size	__func__.9043, 11
 2292              	__func__.9043:
 2293 00b4 73706952 		.ascii	"spiReceive\000"
 2293      65636569 
ARM GAS  C:\Users\RAKIBU~1\AppData\Local\Temp\ccnnMKTp.s 			page 42


 2293      766500
 2294 00bf 00       		.space	1
 2295              		.type	__func__.9047, %object
 2296              		.size	__func__.9047, 14
 2297              	__func__.9047:
 2298 00c0 73706941 		.ascii	"spiAcquireBus\000"
 2298      63717569 
 2298      72654275 
 2298      7300
 2299 00ce 0000     		.space	2
 2300              		.type	__func__.9051, %object
 2301              		.size	__func__.9051, 14
 2302              	__func__.9051:
 2303 00d0 73706952 		.ascii	"spiReleaseBus\000"
 2303      656C6561 
 2303      73654275 
 2303      7300
 2304              		.text
 2305              	.Letext0:
 2306              		.file 5 "c:\\chibistudio\\tools\\gnu tools arm embedded\\7.0 2017q4\\lib\\gcc\\arm-none-eabi\\7.2.
 2307              		.file 6 "c:\\chibistudio\\tools\\gnu tools arm embedded\\7.0 2017q4\\arm-none-eabi\\include\\machi
 2308              		.file 7 "c:\\chibistudio\\tools\\gnu tools arm embedded\\7.0 2017q4\\arm-none-eabi\\include\\sys\\
 2309              		.file 8 "c:\\chibistudio\\tools\\gnu tools arm embedded\\7.0 2017q4\\arm-none-eabi\\include\\stdin
 2310              		.file 9 "../../../ChibiOSRepo/chibios191/os/common/ports/ARMCMx/compilers/GCC/chtypes.h"
 2311              		.file 10 "../../../ChibiOSRepo/chibios191/os/rt/include/chsystypes.h"
 2312              		.file 11 "../../../ChibiOSRepo/chibios191/os/rt/include/chschd.h"
 2313              		.file 12 "../../../ChibiOSRepo/chibios191/os/rt/include/chtime.h"
 2314              		.file 13 "../../../ChibiOSRepo/chibios191/os/common/ext/ARM/CMSIS/Core/Include/core_cm4.h"
 2315              		.file 14 "../../../ChibiOSRepo/chibios191/os/common/ext/ST/STM32F4xx/system_stm32f4xx.h"
 2316              		.file 15 "../../../ChibiOSRepo/chibios191/os/common/ext/ST/STM32F4xx/stm32f407xx.h"
 2317              		.file 16 "../../../ChibiOSRepo/chibios191/os/common/ports/ARMCMx/chcore.h"
 2318              		.file 17 "../../../ChibiOSRepo/chibios191/os/common/ports/ARMCMx/chcore_v7m.h"
 2319              		.file 18 "../../../ChibiOSRepo/chibios191/os/hal/ports/STM32/LLD/TIMv1/stm32_tim.h"
 2320              		.file 19 "../../../ChibiOSRepo/chibios191/os/rt/include/chtrace.h"
 2321              		.file 20 "../../../ChibiOSRepo/chibios191/os/rt/include/chtm.h"
 2322              		.file 21 "../../../ChibiOSRepo/chibios191/os/rt/include/chstats.h"
 2323              		.file 22 "../../../ChibiOSRepo/chibios191/os/rt/include/chsem.h"
 2324              		.file 23 "../../../ChibiOSRepo/chibios191/os/rt/include/chmtx.h"
 2325              		.file 24 "../../../ChibiOSRepo/chibios191/os/rt/include/chregistry.h"
 2326              		.file 25 "../../../ChibiOSRepo/chibios191/os/rt/include/chevents.h"
 2327              		.file 26 "../../../ChibiOSRepo/chibios191/os/oslib/include/chmemcore.h"
 2328              		.file 27 "../../../ChibiOSRepo/chibios191/os/oslib/include/chmempools.h"
 2329              		.file 28 "../../../ChibiOSRepo/chibios191/os/oslib/include/chfactory.h"
 2330              		.file 29 "../../../ChibiOSRepo/chibios191/os/hal/ports/STM32/LLD/DMAv2/stm32_dma.h"
 2331              		.file 30 "../../../ChibiOSRepo/chibios191/os/hal/include/hal_ioblock.h"
 2332              		.file 31 "../../../ChibiOSRepo/chibios191/os/hal/include/hal_persistent.h"
 2333              		.file 32 "../../../ChibiOSRepo/chibios191/os/hal/include/hal_queues.h"
 2334              		.file 33 "../../../ChibiOSRepo/chibios191/os/hal/include/hal_pal.h"
 2335              		.file 34 "../../../ChibiOSRepo/chibios191/os/hal/ports/STM32/LLD/GPIOv2/stm32_gpio.h"
 2336              		.file 35 "../../../ChibiOSRepo/chibios191/os/hal/ports/STM32/LLD/GPIOv2/hal_pal_lld.h"
 2337              		.file 36 "../../../ChibiOSRepo/chibios191/os/hal/include/hal_gpt.h"
 2338              		.file 37 "../../../ChibiOSRepo/chibios191/os/hal/ports/STM32/LLD/TIMv1/hal_gpt_lld.h"
 2339              		.file 38 "../../../ChibiOSRepo/chibios191/os/hal/include/hal_i2c.h"
 2340              		.file 39 "../../../ChibiOSRepo/chibios191/os/hal/ports/STM32/LLD/I2Cv1/hal_i2c_lld.h"
 2341              		.file 40 "c:\\chibistudio\\tools\\gnu tools arm embedded\\7.0 2017q4\\arm-none-eabi\\include\\sys\
 2342              		.file 41 "c:\\chibistudio\\tools\\gnu tools arm embedded\\7.0 2017q4\\arm-none-eabi\\include\\sys\
 2343              		.file 42 "c:\\chibistudio\\tools\\gnu tools arm embedded\\7.0 2017q4\\arm-none-eabi\\include\\sys\
ARM GAS  C:\Users\RAKIBU~1\AppData\Local\Temp\ccnnMKTp.s 			page 43


 2344              		.file 43 "c:\\chibistudio\\tools\\gnu tools arm embedded\\7.0 2017q4\\arm-none-eabi\\include\\time
 2345              		.file 44 "../../../ChibiOSRepo/chibios191/os/hal/include/hal_rtc.h"
 2346              		.file 45 "../../../ChibiOSRepo/chibios191/os/hal/ports/STM32/LLD/RTCv2/hal_rtc_lld.h"
 2347              		.file 46 "../../../ChibiOSRepo/chibios191/os/hal/include/hal_serial.h"
 2348              		.file 47 "../../../ChibiOSRepo/chibios191/os/hal/ports/STM32/LLD/USARTv1/hal_serial_lld.h"
 2349              		.file 48 "../../../ChibiOSRepo/chibios191/os/hal/include/hal_sdc.h"
 2350              		.file 49 "../../../ChibiOSRepo/chibios191/os/hal/ports/STM32/LLD/SDIOv1/hal_sdc_lld.h"
 2351              		.file 50 "../../../ChibiOSRepo/chibios191/os/hal/include/hal_spi.h"
 2352              		.file 51 "../../../ChibiOSRepo/chibios191/os/hal/ports/STM32/LLD/SPIv1/hal_spi_lld.h"
 2353              		.file 52 "../../../ChibiOSRepo/chibios191/os/rt/include/ch.h"
 2354              		.file 53 "../../../ChibiOSRepo/chibios191/os/rt/include/chdebug.h"
 2355              		.file 54 "../../../ChibiOSRepo/chibios191/os/rt/include/chthreads.h"