ARM GAS  C:\Users\RAKIBU~1\AppData\Local\Temp\ccZ7E5ar.s 			page 1


   1              		.cpu cortex-m4
   2              		.eabi_attribute 20, 1
   3              		.eabi_attribute 21, 1
   4              		.eabi_attribute 23, 3
   5              		.eabi_attribute 24, 1
   6              		.eabi_attribute 25, 1
   7              		.eabi_attribute 26, 1
   8              		.eabi_attribute 30, 1
   9              		.eabi_attribute 34, 1
  10              		.eabi_attribute 18, 4
  11              		.file	"hal_queues.c"
  12              		.text
  13              	.Ltext0:
  14              		.cfi_sections	.debug_frame
  15              		.align	1
  16              		.p2align 4,,15
  17              		.syntax unified
  18              		.thumb
  19              		.thumb_func
  20              		.fpu softvfp
  21              		.type	iq_read, %function
  22              	iq_read:
  23              	.LFB328:
  24              		.file 1 "../../../ChibiOSRepo/chibios191/os/hal/src/hal_queues.c"
  25              		.loc 1 60 0
  26              		.cfi_startproc
  27              		@ args = 0, pretend = 0, frame = 0
  28              		@ frame_needed = 0, uses_anonymous_args = 0
  29              	.LVL0:
  30 0000 2DE9F041 		push	{r4, r5, r6, r7, r8, lr}
  31              		.cfi_def_cfa_offset 24
  32              		.cfi_offset 4, -24
  33              		.cfi_offset 5, -20
  34              		.cfi_offset 6, -16
  35              		.cfi_offset 7, -12
  36              		.cfi_offset 8, -8
  37              		.cfi_offset 14, -4
  38 0004 0446     		mov	r4, r0
  39 0006 0F46     		mov	r7, r1
  40              		.loc 1 63 0
  41 0008 1546     		mov	r5, r2
  42 000a B2B1     		cbz	r2, .L8
  43              	.LVL1:
  44              	.L2:
  45              		.loc 1 66 0
  46 000c A368     		ldr	r3, [r4, #8]
  47 000e AB42     		cmp	r3, r5
  48 0010 00D2     		bcs	.L3
  49              		.loc 1 67 0
  50 0012 A568     		ldr	r5, [r4, #8]
  51              	.LVL2:
  52              	.L3:
  53              		.loc 1 72 0
  54 0014 2669     		ldr	r6, [r4, #16]
  55 0016 A169     		ldr	r1, [r4, #24]
  56 0018 761A     		subs	r6, r6, r1
  57              	.LVL3:
ARM GAS  C:\Users\RAKIBU~1\AppData\Local\Temp\ccZ7E5ar.s 			page 2


  58              		.loc 1 74 0
  59 001a B542     		cmp	r5, r6
  60 001c 11D3     		bcc	.L9
  61              		.loc 1 78 0
  62 001e B542     		cmp	r5, r6
  63 0020 17D8     		bhi	.L10
  64              		.loc 1 86 0
  65 0022 2A46     		mov	r2, r5
  66 0024 3846     		mov	r0, r7
  67 0026 FFF7FEFF 		bl	memcpy
  68              	.LVL4:
  69              		.loc 1 87 0
  70 002a E368     		ldr	r3, [r4, #12]
  71 002c A361     		str	r3, [r4, #24]
  72              	.LVL5:
  73              	.L5:
  74              		.loc 1 90 0
  75 002e A368     		ldr	r3, [r4, #8]
  76 0030 5B1B     		subs	r3, r3, r5
  77 0032 A360     		str	r3, [r4, #8]
  78              		.loc 1 92 0
  79 0034 2846     		mov	r0, r5
  80 0036 BDE8F081 		pop	{r4, r5, r6, r7, r8, pc}
  81              	.LVL6:
  82              	.L8:
  83              		.loc 1 63 0 discriminator 2
  84 003a 0D48     		ldr	r0, .L11
  85              	.LVL7:
  86 003c FFF7FEFF 		bl	chSysHalt
  87              	.LVL8:
  88 0040 E4E7     		b	.L2
  89              	.LVL9:
  90              	.L9:
  91              		.loc 1 75 0
  92 0042 2A46     		mov	r2, r5
  93 0044 3846     		mov	r0, r7
  94 0046 FFF7FEFF 		bl	memcpy
  95              	.LVL10:
  96              		.loc 1 76 0
  97 004a A369     		ldr	r3, [r4, #24]
  98 004c 2B44     		add	r3, r3, r5
  99 004e A361     		str	r3, [r4, #24]
 100 0050 EDE7     		b	.L5
 101              	.L10:
 102              		.loc 1 79 0
 103 0052 3246     		mov	r2, r6
 104 0054 3846     		mov	r0, r7
 105 0056 FFF7FEFF 		bl	memcpy
 106              	.LVL11:
 107              		.loc 1 81 0
 108 005a A5EB0608 		sub	r8, r5, r6
 109              	.LVL12:
 110              		.loc 1 82 0
 111 005e 4246     		mov	r2, r8
 112 0060 E168     		ldr	r1, [r4, #12]
 113 0062 B819     		adds	r0, r7, r6
 114              	.LVL13:
ARM GAS  C:\Users\RAKIBU~1\AppData\Local\Temp\ccZ7E5ar.s 			page 3


 115 0064 FFF7FEFF 		bl	memcpy
 116              	.LVL14:
 117              		.loc 1 83 0
 118 0068 E268     		ldr	r2, [r4, #12]
 119 006a 4244     		add	r2, r2, r8
 120 006c A261     		str	r2, [r4, #24]
 121 006e DEE7     		b	.L5
 122              	.L12:
 123              		.align	2
 124              	.L11:
 125 0070 00000000 		.word	.LANCHOR0
 126              		.cfi_endproc
 127              	.LFE328:
 128              		.size	iq_read, .-iq_read
 129              		.align	1
 130 0074 AFF30080 		.p2align 4,,15
 130      AFF30080 
 130      AFF30080 
 131              		.syntax unified
 132              		.thumb
 133              		.thumb_func
 134              		.fpu softvfp
 135              		.type	oq_write, %function
 136              	oq_write:
 137              	.LFB329:
 138              		.loc 1 108 0
 139              		.cfi_startproc
 140              		@ args = 0, pretend = 0, frame = 0
 141              		@ frame_needed = 0, uses_anonymous_args = 0
 142              	.LVL15:
 143 0080 2DE9F041 		push	{r4, r5, r6, r7, r8, lr}
 144              		.cfi_def_cfa_offset 24
 145              		.cfi_offset 4, -24
 146              		.cfi_offset 5, -20
 147              		.cfi_offset 6, -16
 148              		.cfi_offset 7, -12
 149              		.cfi_offset 8, -8
 150              		.cfi_offset 14, -4
 151 0084 0446     		mov	r4, r0
 152 0086 0F46     		mov	r7, r1
 153              		.loc 1 111 0
 154 0088 1546     		mov	r5, r2
 155 008a B2B1     		cbz	r2, .L20
 156              	.LVL16:
 157              	.L14:
 158              		.loc 1 114 0
 159 008c A368     		ldr	r3, [r4, #8]
 160 008e AB42     		cmp	r3, r5
 161 0090 00D2     		bcs	.L15
 162              		.loc 1 115 0
 163 0092 A568     		ldr	r5, [r4, #8]
 164              	.LVL17:
 165              	.L15:
 166              		.loc 1 120 0
 167 0094 2669     		ldr	r6, [r4, #16]
 168 0096 6069     		ldr	r0, [r4, #20]
 169 0098 361A     		subs	r6, r6, r0
ARM GAS  C:\Users\RAKIBU~1\AppData\Local\Temp\ccZ7E5ar.s 			page 4


 170              	.LVL18:
 171              		.loc 1 122 0
 172 009a B542     		cmp	r5, r6
 173 009c 11D3     		bcc	.L21
 174              		.loc 1 126 0
 175 009e B542     		cmp	r5, r6
 176 00a0 17D8     		bhi	.L22
 177              		.loc 1 134 0
 178 00a2 2A46     		mov	r2, r5
 179 00a4 3946     		mov	r1, r7
 180 00a6 FFF7FEFF 		bl	memcpy
 181              	.LVL19:
 182              		.loc 1 135 0
 183 00aa E368     		ldr	r3, [r4, #12]
 184 00ac 6361     		str	r3, [r4, #20]
 185              	.LVL20:
 186              	.L17:
 187              		.loc 1 138 0
 188 00ae A368     		ldr	r3, [r4, #8]
 189 00b0 5B1B     		subs	r3, r3, r5
 190 00b2 A360     		str	r3, [r4, #8]
 191              		.loc 1 140 0
 192 00b4 2846     		mov	r0, r5
 193 00b6 BDE8F081 		pop	{r4, r5, r6, r7, r8, pc}
 194              	.LVL21:
 195              	.L20:
 196              		.loc 1 111 0 discriminator 2
 197 00ba 0D48     		ldr	r0, .L23
 198              	.LVL22:
 199 00bc FFF7FEFF 		bl	chSysHalt
 200              	.LVL23:
 201 00c0 E4E7     		b	.L14
 202              	.LVL24:
 203              	.L21:
 204              		.loc 1 123 0
 205 00c2 2A46     		mov	r2, r5
 206 00c4 3946     		mov	r1, r7
 207 00c6 FFF7FEFF 		bl	memcpy
 208              	.LVL25:
 209              		.loc 1 124 0
 210 00ca 6369     		ldr	r3, [r4, #20]
 211 00cc 2B44     		add	r3, r3, r5
 212 00ce 6361     		str	r3, [r4, #20]
 213 00d0 EDE7     		b	.L17
 214              	.L22:
 215              		.loc 1 127 0
 216 00d2 3246     		mov	r2, r6
 217 00d4 3946     		mov	r1, r7
 218 00d6 FFF7FEFF 		bl	memcpy
 219              	.LVL26:
 220              		.loc 1 129 0
 221 00da A5EB0608 		sub	r8, r5, r6
 222              	.LVL27:
 223              		.loc 1 130 0
 224 00de 4246     		mov	r2, r8
 225 00e0 B919     		adds	r1, r7, r6
 226              	.LVL28:
ARM GAS  C:\Users\RAKIBU~1\AppData\Local\Temp\ccZ7E5ar.s 			page 5


 227 00e2 E068     		ldr	r0, [r4, #12]
 228 00e4 FFF7FEFF 		bl	memcpy
 229              	.LVL29:
 230              		.loc 1 131 0
 231 00e8 E268     		ldr	r2, [r4, #12]
 232 00ea 4244     		add	r2, r2, r8
 233 00ec 6261     		str	r2, [r4, #20]
 234 00ee DEE7     		b	.L17
 235              	.L24:
 236              		.align	2
 237              	.L23:
 238 00f0 08000000 		.word	.LANCHOR0+8
 239              		.cfi_endproc
 240              	.LFE329:
 241              		.size	oq_write, .-oq_write
 242              		.align	1
 243 00f4 AFF30080 		.p2align 4,,15
 243      AFF30080 
 243      AFF30080 
 244              		.global	iqObjectInit
 245              		.syntax unified
 246              		.thumb
 247              		.thumb_func
 248              		.fpu softvfp
 249              		.type	iqObjectInit, %function
 250              	iqObjectInit:
 251              	.LFB330:
 252              		.loc 1 178 0
 253              		.cfi_startproc
 254              		@ args = 4, pretend = 0, frame = 0
 255              		@ frame_needed = 0, uses_anonymous_args = 0
 256              		@ link register save eliminated.
 257              	.LVL30:
 258 0100 10B4     		push	{r4}
 259              		.cfi_def_cfa_offset 4
 260              		.cfi_offset 4, -4
 261              	.LVL31:
 262              	.LBB116:
 263              	.LBB117:
 264              	.LBB118:
 265              	.LBB119:
 266              		.file 2 "../../../ChibiOSRepo/chibios191/os/rt/include/chschd.h"
 267              		.loc 2 539 0
 268 0102 0060     		str	r0, [r0]
 269              		.loc 2 540 0
 270 0104 4060     		str	r0, [r0, #4]
 271              	.LVL32:
 272              	.LBE119:
 273              	.LBE118:
 274              	.LBE117:
 275              	.LBE116:
 276              		.loc 1 181 0
 277 0106 0024     		movs	r4, #0
 278 0108 8460     		str	r4, [r0, #8]
 279              		.loc 1 182 0
 280 010a C160     		str	r1, [r0, #12]
 281              		.loc 1 183 0
ARM GAS  C:\Users\RAKIBU~1\AppData\Local\Temp\ccZ7E5ar.s 			page 6


 282 010c 8161     		str	r1, [r0, #24]
 283              		.loc 1 184 0
 284 010e 4161     		str	r1, [r0, #20]
 285              		.loc 1 185 0
 286 0110 0A44     		add	r2, r2, r1
 287              	.LVL33:
 288 0112 0261     		str	r2, [r0, #16]
 289              		.loc 1 186 0
 290 0114 C361     		str	r3, [r0, #28]
 291              		.loc 1 187 0
 292 0116 019B     		ldr	r3, [sp, #4]
 293              	.LVL34:
 294 0118 0362     		str	r3, [r0, #32]
 295              		.loc 1 188 0
 296 011a 10BC     		pop	{r4}
 297              		.cfi_restore 4
 298              		.cfi_def_cfa_offset 0
 299              	.LVL35:
 300 011c 7047     		bx	lr
 301              		.cfi_endproc
 302              	.LFE330:
 303              		.size	iqObjectInit, .-iqObjectInit
 304              		.align	1
 305 011e 00BF     		.p2align 4,,15
 306              		.global	iqResetI
 307              		.syntax unified
 308              		.thumb
 309              		.thumb_func
 310              		.fpu softvfp
 311              		.type	iqResetI, %function
 312              	iqResetI:
 313              	.LFB331:
 314              		.loc 1 201 0
 315              		.cfi_startproc
 316              		@ args = 0, pretend = 0, frame = 0
 317              		@ frame_needed = 0, uses_anonymous_args = 0
 318              	.LVL36:
 319 0120 10B5     		push	{r4, lr}
 320              		.cfi_def_cfa_offset 8
 321              		.cfi_offset 4, -8
 322              		.cfi_offset 14, -4
 323 0122 0446     		mov	r4, r0
 324              		.loc 1 203 0
 325 0124 FFF7FEFF 		bl	chDbgCheckClassI
 326              	.LVL37:
 327              		.loc 1 205 0
 328 0128 E368     		ldr	r3, [r4, #12]
 329 012a A361     		str	r3, [r4, #24]
 330              		.loc 1 206 0
 331 012c 6361     		str	r3, [r4, #20]
 332              		.loc 1 207 0
 333 012e 0023     		movs	r3, #0
 334 0130 A360     		str	r3, [r4, #8]
 335              	.LVL38:
 336              	.LBB120:
 337              	.LBB121:
 338              		.file 3 "../../../ChibiOSRepo/chibios191/os/hal/osal/rt/osal.h"
ARM GAS  C:\Users\RAKIBU~1\AppData\Local\Temp\ccZ7E5ar.s 			page 7


 339              		.loc 3 857 0
 340 0132 6FF00101 		mvn	r1, #1
 341 0136 2046     		mov	r0, r4
 342 0138 FFF7FEFF 		bl	chThdDequeueAllI
 343              	.LVL39:
 344              	.LBE121:
 345              	.LBE120:
 346              		.loc 1 209 0
 347 013c 10BD     		pop	{r4, pc}
 348              		.cfi_endproc
 349              	.LFE331:
 350              		.size	iqResetI, .-iqResetI
 351              		.align	1
 352 013e 00BF     		.p2align 4,,15
 353              		.global	iqPutI
 354              		.syntax unified
 355              		.thumb
 356              		.thumb_func
 357              		.fpu softvfp
 358              		.type	iqPutI, %function
 359              	iqPutI:
 360              	.LFB332:
 361              		.loc 1 224 0
 362              		.cfi_startproc
 363              		@ args = 0, pretend = 0, frame = 0
 364              		@ frame_needed = 0, uses_anonymous_args = 0
 365              	.LVL40:
 366 0140 38B5     		push	{r3, r4, r5, lr}
 367              		.cfi_def_cfa_offset 16
 368              		.cfi_offset 3, -16
 369              		.cfi_offset 4, -12
 370              		.cfi_offset 5, -8
 371              		.cfi_offset 14, -4
 372 0142 0446     		mov	r4, r0
 373 0144 0D46     		mov	r5, r1
 374              		.loc 1 226 0
 375 0146 FFF7FEFF 		bl	chDbgCheckClassI
 376              	.LVL41:
 377              		.loc 1 229 0
 378 014a 6369     		ldr	r3, [r4, #20]
 379 014c A269     		ldr	r2, [r4, #24]
 380 014e 9342     		cmp	r3, r2
 381 0150 13D0     		beq	.L37
 382 0152 0022     		movs	r2, #0
 383              	.L30:
 384              		.loc 1 229 0 is_stmt 0 discriminator 6
 385 0154 B2B9     		cbnz	r2, .L35
 386              		.loc 1 230 0 is_stmt 1
 387 0156 A268     		ldr	r2, [r4, #8]
 388 0158 0132     		adds	r2, r2, #1
 389 015a A260     		str	r2, [r4, #8]
 390              		.loc 1 231 0
 391 015c 5A1C     		adds	r2, r3, #1
 392 015e 6261     		str	r2, [r4, #20]
 393 0160 1D70     		strb	r5, [r3]
 394              		.loc 1 232 0
 395 0162 6269     		ldr	r2, [r4, #20]
ARM GAS  C:\Users\RAKIBU~1\AppData\Local\Temp\ccZ7E5ar.s 			page 8


 396 0164 2369     		ldr	r3, [r4, #16]
 397 0166 9A42     		cmp	r2, r3
 398 0168 01D3     		bcc	.L32
 399              		.loc 1 233 0
 400 016a E368     		ldr	r3, [r4, #12]
 401 016c 6361     		str	r3, [r4, #20]
 402              	.L32:
 403              	.LVL42:
 404              	.LBB122:
 405              	.LBB123:
 406              		.loc 3 844 0
 407 016e 0021     		movs	r1, #0
 408 0170 2046     		mov	r0, r4
 409 0172 FFF7FEFF 		bl	chThdDequeueNextI
 410              	.LVL43:
 411              	.LBE123:
 412              	.LBE122:
 413              		.loc 1 238 0
 414 0176 0020     		movs	r0, #0
 415              	.L29:
 416              		.loc 1 242 0
 417 0178 38BD     		pop	{r3, r4, r5, pc}
 418              	.LVL44:
 419              	.L37:
 420              		.loc 1 229 0 discriminator 1
 421 017a A268     		ldr	r2, [r4, #8]
 422 017c 002A     		cmp	r2, #0
 423 017e E9D0     		beq	.L30
 424              		.loc 1 229 0 is_stmt 0
 425 0180 0122     		movs	r2, #1
 426 0182 E7E7     		b	.L30
 427              	.L35:
 428              		.loc 1 241 0 is_stmt 1
 429 0184 4FF0FF30 		mov	r0, #-1
 430 0188 F6E7     		b	.L29
 431              		.cfi_endproc
 432              	.LFE332:
 433              		.size	iqPutI, .-iqPutI
 434              		.align	1
 435 018a 00BFAFF3 		.p2align 4,,15
 435      0080
 436              		.global	iqGetI
 437              		.syntax unified
 438              		.thumb
 439              		.thumb_func
 440              		.fpu softvfp
 441              		.type	iqGetI, %function
 442              	iqGetI:
 443              	.LFB333:
 444              		.loc 1 258 0
 445              		.cfi_startproc
 446              		@ args = 0, pretend = 0, frame = 0
 447              		@ frame_needed = 0, uses_anonymous_args = 0
 448              	.LVL45:
 449 0190 38B5     		push	{r3, r4, r5, lr}
 450              		.cfi_def_cfa_offset 16
 451              		.cfi_offset 3, -16
ARM GAS  C:\Users\RAKIBU~1\AppData\Local\Temp\ccZ7E5ar.s 			page 9


 452              		.cfi_offset 4, -12
 453              		.cfi_offset 5, -8
 454              		.cfi_offset 14, -4
 455 0192 0446     		mov	r4, r0
 456              		.loc 1 260 0
 457 0194 FFF7FEFF 		bl	chDbgCheckClassI
 458              	.LVL46:
 459              		.loc 1 263 0
 460 0198 A368     		ldr	r3, [r4, #8]
 461 019a 8BB1     		cbz	r3, .L42
 462              	.LBB124:
 463              		.loc 1 267 0
 464 019c A368     		ldr	r3, [r4, #8]
 465 019e 013B     		subs	r3, r3, #1
 466 01a0 A360     		str	r3, [r4, #8]
 467              		.loc 1 268 0
 468 01a2 A269     		ldr	r2, [r4, #24]
 469 01a4 531C     		adds	r3, r2, #1
 470 01a6 A361     		str	r3, [r4, #24]
 471 01a8 1578     		ldrb	r5, [r2]	@ zero_extendqisi2
 472              	.LVL47:
 473              		.loc 1 269 0
 474 01aa 2269     		ldr	r2, [r4, #16]
 475 01ac 9342     		cmp	r3, r2
 476 01ae 01D3     		bcc	.L40
 477              		.loc 1 270 0
 478 01b0 E368     		ldr	r3, [r4, #12]
 479 01b2 A361     		str	r3, [r4, #24]
 480              	.L40:
 481              		.loc 1 274 0
 482 01b4 E369     		ldr	r3, [r4, #28]
 483 01b6 0BB1     		cbz	r3, .L41
 484              		.loc 1 275 0
 485 01b8 2046     		mov	r0, r4
 486 01ba 9847     		blx	r3
 487              	.LVL48:
 488              	.L41:
 489              		.loc 1 278 0
 490 01bc 2846     		mov	r0, r5
 491              	.LVL49:
 492              	.L38:
 493              	.LBE124:
 494              		.loc 1 282 0
 495 01be 38BD     		pop	{r3, r4, r5, pc}
 496              	.LVL50:
 497              	.L42:
 498              		.loc 1 281 0
 499 01c0 4FF0FF30 		mov	r0, #-1
 500 01c4 FBE7     		b	.L38
 501              		.cfi_endproc
 502              	.LFE333:
 503              		.size	iqGetI, .-iqGetI
 504              		.align	1
 505 01c6 00BFAFF3 		.p2align 4,,15
 505      0080AFF3 
 505      0080
 506              		.global	iqGetTimeout
ARM GAS  C:\Users\RAKIBU~1\AppData\Local\Temp\ccZ7E5ar.s 			page 10


 507              		.syntax unified
 508              		.thumb
 509              		.thumb_func
 510              		.fpu softvfp
 511              		.type	iqGetTimeout, %function
 512              	iqGetTimeout:
 513              	.LFB334:
 514              		.loc 1 304 0
 515              		.cfi_startproc
 516              		@ args = 0, pretend = 0, frame = 0
 517              		@ frame_needed = 0, uses_anonymous_args = 0
 518              	.LVL51:
 519 01d0 F8B5     		push	{r3, r4, r5, r6, r7, lr}
 520              		.cfi_def_cfa_offset 24
 521              		.cfi_offset 3, -24
 522              		.cfi_offset 4, -20
 523              		.cfi_offset 5, -16
 524              		.cfi_offset 6, -12
 525              		.cfi_offset 7, -8
 526              		.cfi_offset 14, -4
 527 01d2 0446     		mov	r4, r0
 528 01d4 1646     		mov	r6, r2
 529 01d6 1F46     		mov	r7, r3
 530              	.LVL52:
 531              	.LBB148:
 532              	.LBB149:
 533              	.LBB150:
 534              	.LBB151:
 535              	.LBB152:
 536              	.LBB153:
 537              		.file 4 "../../../ChibiOSRepo/chibios191/os/common/ext/ARM/CMSIS/Core/Include/cmsis_gcc.h"
 538              		.loc 4 493 0
 539 01d8 2023     		movs	r3, #32
 540              		.syntax unified
 541              	@ 493 "../../../ChibiOSRepo/chibios191/os/common/ext/ARM/CMSIS/Core/Include/cmsis_gcc.h" 1
 542 01da 83F31188 		MSR basepri, r3
 543              	@ 0 "" 2
 544              	.LVL53:
 545              		.thumb
 546              		.syntax unified
 547              	.LBE153:
 548              	.LBE152:
 549              	.LBE151:
 550              		.file 5 "../../../ChibiOSRepo/chibios191/os/rt/include/chsys.h"
 551              		.loc 5 356 0
 552 01de FFF7FEFF 		bl	_stats_start_measure_crit_thd
 553              	.LVL54:
 554              		.loc 5 357 0
 555 01e2 FFF7FEFF 		bl	_dbg_check_lock
 556              	.LVL55:
 557              	.L45:
 558              	.LBE150:
 559              	.LBE149:
 560              	.LBE148:
 561              		.loc 1 310 0
 562 01e6 A368     		ldr	r3, [r4, #8]
 563 01e8 DBB9     		cbnz	r3, .L53
ARM GAS  C:\Users\RAKIBU~1\AppData\Local\Temp\ccZ7E5ar.s 			page 11


 564              	.LVL56:
 565              	.LBB154:
 566              	.LBB155:
 567              	.LBB156:
 568              		.loc 3 831 0
 569 01ea 3246     		mov	r2, r6
 570 01ec 3B46     		mov	r3, r7
 571 01ee 2046     		mov	r0, r4
 572 01f0 FFF7FEFF 		bl	chThdEnqueueTimeoutS
 573              	.LVL57:
 574              	.LBE156:
 575              	.LBE155:
 576              		.loc 1 312 0
 577 01f4 051E     		subs	r5, r0, #0
 578 01f6 F6DA     		bge	.L45
 579              	.LBB157:
 580              	.LBB158:
 581              	.LBB159:
 582              		.loc 5 367 0
 583 01f8 FFF7FEFF 		bl	_dbg_check_unlock
 584              	.LVL58:
 585              		.loc 5 368 0
 586 01fc FFF7FEFF 		bl	_stats_stop_measure_crit_thd
 587              	.LVL59:
 588              		.loc 5 374 0
 589 0200 1B4B     		ldr	r3, .L56
 590 0202 1A68     		ldr	r2, [r3]
 591 0204 9A42     		cmp	r2, r3
 592 0206 04D0     		beq	.L46
 593 0208 9B69     		ldr	r3, [r3, #24]
 594 020a 9968     		ldr	r1, [r3, #8]
 595 020c 9368     		ldr	r3, [r2, #8]
 596 020e 9942     		cmp	r1, r3
 597 0210 03D3     		bcc	.L54
 598              	.L46:
 599              	.LVL60:
 600              	.LBB160:
 601              	.LBB161:
 602              	.LBB162:
 603              		.loc 4 493 0
 604 0212 0023     		movs	r3, #0
 605              		.syntax unified
 606              	@ 493 "../../../ChibiOSRepo/chibios191/os/common/ext/ARM/CMSIS/Core/Include/cmsis_gcc.h" 1
 607 0214 83F31188 		MSR basepri, r3
 608              	@ 0 "" 2
 609              	.LVL61:
 610              		.thumb
 611              		.syntax unified
 612 0218 23E0     		b	.L44
 613              	.L54:
 614              	.LBE162:
 615              	.LBE161:
 616              	.LBE160:
 617              		.loc 5 374 0
 618 021a 1648     		ldr	r0, .L56+4
 619 021c FFF7FEFF 		bl	chSysHalt
 620              	.LVL62:
ARM GAS  C:\Users\RAKIBU~1\AppData\Local\Temp\ccZ7E5ar.s 			page 12


 621 0220 F7E7     		b	.L46
 622              	.L53:
 623              	.LBE159:
 624              	.LBE158:
 625              	.LBE157:
 626              	.LBE154:
 627              		.loc 1 319 0
 628 0222 A368     		ldr	r3, [r4, #8]
 629 0224 013B     		subs	r3, r3, #1
 630 0226 A360     		str	r3, [r4, #8]
 631              		.loc 1 320 0
 632 0228 A269     		ldr	r2, [r4, #24]
 633 022a 531C     		adds	r3, r2, #1
 634 022c A361     		str	r3, [r4, #24]
 635 022e 1578     		ldrb	r5, [r2]	@ zero_extendqisi2
 636              	.LVL63:
 637              		.loc 1 321 0
 638 0230 2269     		ldr	r2, [r4, #16]
 639 0232 9342     		cmp	r3, r2
 640 0234 01D3     		bcc	.L49
 641              		.loc 1 322 0
 642 0236 E368     		ldr	r3, [r4, #12]
 643 0238 A361     		str	r3, [r4, #24]
 644              	.L49:
 645              		.loc 1 326 0
 646 023a E369     		ldr	r3, [r4, #28]
 647 023c 0BB1     		cbz	r3, .L50
 648              		.loc 1 327 0
 649 023e 2046     		mov	r0, r4
 650 0240 9847     		blx	r3
 651              	.LVL64:
 652              	.L50:
 653              	.LBB163:
 654              	.LBB164:
 655              	.LBB165:
 656              		.loc 5 367 0
 657 0242 FFF7FEFF 		bl	_dbg_check_unlock
 658              	.LVL65:
 659              		.loc 5 368 0
 660 0246 FFF7FEFF 		bl	_stats_stop_measure_crit_thd
 661              	.LVL66:
 662              		.loc 5 374 0
 663 024a 094B     		ldr	r3, .L56
 664 024c 1A68     		ldr	r2, [r3]
 665 024e 9A42     		cmp	r2, r3
 666 0250 04D0     		beq	.L51
 667 0252 9B69     		ldr	r3, [r3, #24]
 668 0254 9968     		ldr	r1, [r3, #8]
 669 0256 9368     		ldr	r3, [r2, #8]
 670 0258 9942     		cmp	r1, r3
 671 025a 04D3     		bcc	.L55
 672              	.L51:
 673              	.LVL67:
 674              	.LBB166:
 675              	.LBB167:
 676              	.LBB168:
 677              		.loc 4 493 0
ARM GAS  C:\Users\RAKIBU~1\AppData\Local\Temp\ccZ7E5ar.s 			page 13


 678 025c 0023     		movs	r3, #0
 679              		.syntax unified
 680              	@ 493 "../../../ChibiOSRepo/chibios191/os/common/ext/ARM/CMSIS/Core/Include/cmsis_gcc.h" 1
 681 025e 83F31188 		MSR basepri, r3
 682              	@ 0 "" 2
 683              	.LVL68:
 684              		.thumb
 685              		.syntax unified
 686              	.L44:
 687              	.LBE168:
 688              	.LBE167:
 689              	.LBE166:
 690              	.LBE165:
 691              	.LBE164:
 692              	.LBE163:
 693              		.loc 1 333 0
 694 0262 2846     		mov	r0, r5
 695 0264 F8BD     		pop	{r3, r4, r5, r6, r7, pc}
 696              	.LVL69:
 697              	.L55:
 698              	.LBB171:
 699              	.LBB170:
 700              	.LBB169:
 701              		.loc 5 374 0
 702 0266 0348     		ldr	r0, .L56+4
 703 0268 FFF7FEFF 		bl	chSysHalt
 704              	.LVL70:
 705 026c F6E7     		b	.L51
 706              	.L57:
 707 026e 00BF     		.align	2
 708              	.L56:
 709 0270 00000000 		.word	ch
 710 0274 14000000 		.word	.LANCHOR0+20
 711              	.LBE169:
 712              	.LBE170:
 713              	.LBE171:
 714              		.cfi_endproc
 715              	.LFE334:
 716              		.size	iqGetTimeout, .-iqGetTimeout
 717              		.align	1
 718 0278 AFF30080 		.p2align 4,,15
 718      AFF30080 
 719              		.global	iqReadI
 720              		.syntax unified
 721              		.thumb
 722              		.thumb_func
 723              		.fpu softvfp
 724              		.type	iqReadI, %function
 725              	iqReadI:
 726              	.LFB335:
 727              		.loc 1 348 0
 728              		.cfi_startproc
 729              		@ args = 0, pretend = 0, frame = 0
 730              		@ frame_needed = 0, uses_anonymous_args = 0
 731              	.LVL71:
 732 0280 F8B5     		push	{r3, r4, r5, r6, r7, lr}
 733              		.cfi_def_cfa_offset 24
ARM GAS  C:\Users\RAKIBU~1\AppData\Local\Temp\ccZ7E5ar.s 			page 14


 734              		.cfi_offset 3, -24
 735              		.cfi_offset 4, -20
 736              		.cfi_offset 5, -16
 737              		.cfi_offset 6, -12
 738              		.cfi_offset 7, -8
 739              		.cfi_offset 14, -4
 740 0282 0446     		mov	r4, r0
 741 0284 0E46     		mov	r6, r1
 742 0286 1746     		mov	r7, r2
 743              		.loc 1 349 0
 744 0288 C569     		ldr	r5, [r0, #28]
 745              	.LVL72:
 746              		.loc 1 352 0
 747 028a FFF7FEFF 		bl	chDbgCheckClassI
 748              	.LVL73:
 749              		.loc 1 354 0
 750 028e 3A46     		mov	r2, r7
 751 0290 3146     		mov	r1, r6
 752 0292 2046     		mov	r0, r4
 753 0294 FFF7B4FE 		bl	iq_read
 754              	.LVL74:
 755              		.loc 1 358 0
 756 0298 0646     		mov	r6, r0
 757              	.LVL75:
 758 029a 10B1     		cbz	r0, .L58
 759              		.loc 1 358 0 is_stmt 0 discriminator 1
 760 029c 0DB1     		cbz	r5, .L58
 761              		.loc 1 359 0 is_stmt 1
 762 029e 2046     		mov	r0, r4
 763              	.LVL76:
 764 02a0 A847     		blx	r5
 765              	.LVL77:
 766              	.L58:
 767              		.loc 1 363 0
 768 02a2 3046     		mov	r0, r6
 769 02a4 F8BD     		pop	{r3, r4, r5, r6, r7, pc}
 770              		.cfi_endproc
 771              	.LFE335:
 772              		.size	iqReadI, .-iqReadI
 773              		.align	1
 774 02a6 00BFAFF3 		.p2align 4,,15
 774      0080AFF3 
 774      0080
 775              		.global	iqReadTimeout
 776              		.syntax unified
 777              		.thumb
 778              		.thumb_func
 779              		.fpu softvfp
 780              		.type	iqReadTimeout, %function
 781              	iqReadTimeout:
 782              	.LFB336:
 783              		.loc 1 390 0
 784              		.cfi_startproc
 785              		@ args = 8, pretend = 0, frame = 0
 786              		@ frame_needed = 0, uses_anonymous_args = 0
 787              	.LVL78:
 788 02b0 2DE9F843 		push	{r3, r4, r5, r6, r7, r8, r9, lr}
ARM GAS  C:\Users\RAKIBU~1\AppData\Local\Temp\ccZ7E5ar.s 			page 15


 789              		.cfi_def_cfa_offset 32
 790              		.cfi_offset 3, -32
 791              		.cfi_offset 4, -28
 792              		.cfi_offset 5, -24
 793              		.cfi_offset 6, -20
 794              		.cfi_offset 7, -16
 795              		.cfi_offset 8, -12
 796              		.cfi_offset 9, -8
 797              		.cfi_offset 14, -4
 798 02b4 0746     		mov	r7, r0
 799 02b6 0D46     		mov	r5, r1
 800              		.loc 1 391 0
 801 02b8 D0F81C80 		ldr	r8, [r0, #28]
 802              	.LVL79:
 803              		.loc 1 394 0
 804 02bc 9146     		mov	r9, r2
 805 02be 42B1     		cbz	r2, .L72
 806              	.LVL80:
 807              	.L62:
 808              	.LBB202:
 809              	.LBB203:
 810              	.LBB204:
 811              	.LBB205:
 812              	.LBB206:
 813              	.LBB207:
 814              		.loc 4 493 0
 815 02c0 2023     		movs	r3, #32
 816              		.syntax unified
 817              	@ 493 "../../../ChibiOSRepo/chibios191/os/common/ext/ARM/CMSIS/Core/Include/cmsis_gcc.h" 1
 818 02c2 83F31188 		MSR basepri, r3
 819              	@ 0 "" 2
 820              	.LVL81:
 821              		.thumb
 822              		.syntax unified
 823              	.LBE207:
 824              	.LBE206:
 825              	.LBE205:
 826              		.loc 5 356 0
 827 02c6 FFF7FEFF 		bl	_stats_start_measure_crit_thd
 828              	.LVL82:
 829              		.loc 5 357 0
 830 02ca FFF7FEFF 		bl	_dbg_check_lock
 831              	.LVL83:
 832 02ce 4C46     		mov	r4, r9
 833 02d0 2CE0     		b	.L63
 834              	.LVL84:
 835              	.L72:
 836              	.LBE204:
 837              	.LBE203:
 838              	.LBE202:
 839              		.loc 1 394 0 discriminator 2
 840 02d2 2748     		ldr	r0, .L76
 841              	.LVL85:
 842 02d4 FFF7FEFF 		bl	chSysHalt
 843              	.LVL86:
 844 02d8 F2E7     		b	.L62
 845              	.LVL87:
ARM GAS  C:\Users\RAKIBU~1\AppData\Local\Temp\ccZ7E5ar.s 			page 16


 846              	.L74:
 847              	.LBB208:
 848              	.LBB209:
 849              	.LBB210:
 850              	.LBB211:
 851              		.loc 3 831 0
 852 02da DDE90823 		ldrd	r2, [sp, #32]
 853 02de 3846     		mov	r0, r7
 854              	.LVL88:
 855 02e0 FFF7FEFF 		bl	chThdEnqueueTimeoutS
 856              	.LVL89:
 857              	.LBE211:
 858              	.LBE210:
 859              		.loc 1 406 0
 860 02e4 10B3     		cbz	r0, .L63
 861              	.LVL90:
 862              	.L65:
 863              	.LBE209:
 864              	.LBE208:
 865              	.LBB227:
 866              	.LBB228:
 867              	.LBB229:
 868              		.loc 5 367 0
 869 02e6 FFF7FEFF 		bl	_dbg_check_unlock
 870              	.LVL91:
 871              		.loc 5 368 0
 872 02ea FFF7FEFF 		bl	_stats_stop_measure_crit_thd
 873              	.LVL92:
 874              		.loc 5 374 0
 875 02ee 214B     		ldr	r3, .L76+4
 876 02f0 1A68     		ldr	r2, [r3]
 877 02f2 9A42     		cmp	r2, r3
 878 02f4 04D0     		beq	.L70
 879 02f6 9B69     		ldr	r3, [r3, #24]
 880 02f8 9968     		ldr	r1, [r3, #8]
 881 02fa 9368     		ldr	r3, [r2, #8]
 882 02fc 9942     		cmp	r1, r3
 883 02fe 32D3     		bcc	.L73
 884              	.L70:
 885              	.LVL93:
 886              	.LBB230:
 887              	.LBB231:
 888              	.LBB232:
 889              		.loc 4 493 0
 890 0300 0023     		movs	r3, #0
 891              		.syntax unified
 892              	@ 493 "../../../ChibiOSRepo/chibios191/os/common/ext/ARM/CMSIS/Core/Include/cmsis_gcc.h" 1
 893 0302 83F31188 		MSR basepri, r3
 894              	@ 0 "" 2
 895              	.LVL94:
 896              		.thumb
 897              		.syntax unified
 898              	.LBE232:
 899              	.LBE231:
 900              	.LBE230:
 901              	.LBE229:
 902              	.LBE228:
ARM GAS  C:\Users\RAKIBU~1\AppData\Local\Temp\ccZ7E5ar.s 			page 17


 903              	.LBE227:
 904              		.loc 1 429 0
 905 0306 A9EB0400 		sub	r0, r9, r4
 906 030a BDE8F883 		pop	{r3, r4, r5, r6, r7, r8, r9, pc}
 907              	.LVL95:
 908              	.L75:
 909              	.LBB235:
 910              	.LBB212:
 911              	.LBB213:
 912              	.LBB214:
 913              		.loc 5 374 0
 914 030e 1A48     		ldr	r0, .L76+8
 915 0310 FFF7FEFF 		bl	chSysHalt
 916              	.LVL96:
 917              	.L68:
 918              	.LBB215:
 919              	.LBB216:
 920              	.LBB217:
 921              		.loc 4 493 0
 922 0314 0023     		movs	r3, #0
 923              		.syntax unified
 924              	@ 493 "../../../ChibiOSRepo/chibios191/os/common/ext/ARM/CMSIS/Core/Include/cmsis_gcc.h" 1
 925 0316 83F31188 		MSR basepri, r3
 926              	@ 0 "" 2
 927              	.LVL97:
 928              		.thumb
 929              		.syntax unified
 930              	.LBE217:
 931              	.LBE216:
 932              	.LBE215:
 933              	.LBE214:
 934              	.LBE213:
 935              	.LBE212:
 936              		.loc 1 420 0
 937 031a A41B     		subs	r4, r4, r6
 938              	.LVL98:
 939              		.loc 1 421 0
 940 031c 3544     		add	r5, r5, r6
 941              	.LVL99:
 942              	.LBB220:
 943              	.LBB221:
 944              	.LBB222:
 945              	.LBB223:
 946              	.LBB224:
 947              	.LBB225:
 948              		.loc 4 493 0
 949 031e 2023     		movs	r3, #32
 950              		.syntax unified
 951              	@ 493 "../../../ChibiOSRepo/chibios191/os/common/ext/ARM/CMSIS/Core/Include/cmsis_gcc.h" 1
 952 0320 83F31188 		MSR basepri, r3
 953              	@ 0 "" 2
 954              	.LVL100:
 955              		.thumb
 956              		.syntax unified
 957              	.LBE225:
 958              	.LBE224:
 959              	.LBE223:
ARM GAS  C:\Users\RAKIBU~1\AppData\Local\Temp\ccZ7E5ar.s 			page 18


 960              		.loc 5 356 0
 961 0324 FFF7FEFF 		bl	_stats_start_measure_crit_thd
 962              	.LVL101:
 963              		.loc 5 357 0
 964 0328 FFF7FEFF 		bl	_dbg_check_lock
 965              	.LVL102:
 966              	.L63:
 967              	.LBE222:
 968              	.LBE221:
 969              	.LBE220:
 970              	.LBE235:
 971              		.loc 1 398 0
 972 032c 002C     		cmp	r4, #0
 973 032e DAD0     		beq	.L65
 974              	.LBB236:
 975              		.loc 1 401 0
 976 0330 2246     		mov	r2, r4
 977 0332 2946     		mov	r1, r5
 978 0334 3846     		mov	r0, r7
 979 0336 FFF763FE 		bl	iq_read
 980              	.LVL103:
 981              		.loc 1 402 0
 982 033a 0646     		mov	r6, r0
 983 033c 0028     		cmp	r0, #0
 984 033e CCD0     		beq	.L74
 985              		.loc 1 413 0
 986 0340 B8F1000F 		cmp	r8, #0
 987 0344 01D0     		beq	.L67
 988              		.loc 1 414 0
 989 0346 3846     		mov	r0, r7
 990              	.LVL104:
 991 0348 C047     		blx	r8
 992              	.LVL105:
 993              	.L67:
 994              	.LBB226:
 995              	.LBB219:
 996              	.LBB218:
 997              		.loc 5 367 0
 998 034a FFF7FEFF 		bl	_dbg_check_unlock
 999              	.LVL106:
 1000              		.loc 5 368 0
 1001 034e FFF7FEFF 		bl	_stats_stop_measure_crit_thd
 1002              	.LVL107:
 1003              		.loc 5 374 0
 1004 0352 084B     		ldr	r3, .L76+4
 1005 0354 1A68     		ldr	r2, [r3]
 1006 0356 9A42     		cmp	r2, r3
 1007 0358 DCD0     		beq	.L68
 1008 035a 9B69     		ldr	r3, [r3, #24]
 1009 035c 9968     		ldr	r1, [r3, #8]
 1010 035e 9368     		ldr	r3, [r2, #8]
 1011 0360 9942     		cmp	r1, r3
 1012 0362 D7D2     		bcs	.L68
 1013 0364 D3E7     		b	.L75
 1014              	.LVL108:
 1015              	.L73:
 1016              	.LBE218:
ARM GAS  C:\Users\RAKIBU~1\AppData\Local\Temp\ccZ7E5ar.s 			page 19


 1017              	.LBE219:
 1018              	.LBE226:
 1019              	.LBE236:
 1020              	.LBB237:
 1021              	.LBB234:
 1022              	.LBB233:
 1023 0366 0448     		ldr	r0, .L76+8
 1024 0368 FFF7FEFF 		bl	chSysHalt
 1025              	.LVL109:
 1026 036c C8E7     		b	.L70
 1027              	.L77:
 1028 036e 00BF     		.align	2
 1029              	.L76:
 1030 0370 20000000 		.word	.LANCHOR0+32
 1031 0374 00000000 		.word	ch
 1032 0378 14000000 		.word	.LANCHOR0+20
 1033              	.LBE233:
 1034              	.LBE234:
 1035              	.LBE237:
 1036              		.cfi_endproc
 1037              	.LFE336:
 1038              		.size	iqReadTimeout, .-iqReadTimeout
 1039              		.align	1
 1040 037c AFF30080 		.p2align 4,,15
 1041              		.global	oqObjectInit
 1042              		.syntax unified
 1043              		.thumb
 1044              		.thumb_func
 1045              		.fpu softvfp
 1046              		.type	oqObjectInit, %function
 1047              	oqObjectInit:
 1048              	.LFB337:
 1049              		.loc 1 447 0
 1050              		.cfi_startproc
 1051              		@ args = 4, pretend = 0, frame = 0
 1052              		@ frame_needed = 0, uses_anonymous_args = 0
 1053              		@ link register save eliminated.
 1054              	.LVL110:
 1055              	.LBB238:
 1056              	.LBB239:
 1057              	.LBB240:
 1058              	.LBB241:
 1059              		.loc 2 539 0
 1060 0380 0060     		str	r0, [r0]
 1061              		.loc 2 540 0
 1062 0382 4060     		str	r0, [r0, #4]
 1063              	.LVL111:
 1064              	.LBE241:
 1065              	.LBE240:
 1066              	.LBE239:
 1067              	.LBE238:
 1068              		.loc 1 450 0
 1069 0384 8260     		str	r2, [r0, #8]
 1070              		.loc 1 451 0
 1071 0386 C160     		str	r1, [r0, #12]
 1072              		.loc 1 452 0
 1073 0388 8161     		str	r1, [r0, #24]
ARM GAS  C:\Users\RAKIBU~1\AppData\Local\Temp\ccZ7E5ar.s 			page 20


 1074              		.loc 1 453 0
 1075 038a 4161     		str	r1, [r0, #20]
 1076              		.loc 1 454 0
 1077 038c 1144     		add	r1, r1, r2
 1078              	.LVL112:
 1079 038e 0161     		str	r1, [r0, #16]
 1080              		.loc 1 455 0
 1081 0390 C361     		str	r3, [r0, #28]
 1082              		.loc 1 456 0
 1083 0392 009B     		ldr	r3, [sp]
 1084              	.LVL113:
 1085 0394 0362     		str	r3, [r0, #32]
 1086              		.loc 1 457 0
 1087 0396 7047     		bx	lr
 1088              		.cfi_endproc
 1089              	.LFE337:
 1090              		.size	oqObjectInit, .-oqObjectInit
 1091              		.align	1
 1092 0398 AFF30080 		.p2align 4,,15
 1092      AFF30080 
 1093              		.global	oqResetI
 1094              		.syntax unified
 1095              		.thumb
 1096              		.thumb_func
 1097              		.fpu softvfp
 1098              		.type	oqResetI, %function
 1099              	oqResetI:
 1100              	.LFB338:
 1101              		.loc 1 470 0
 1102              		.cfi_startproc
 1103              		@ args = 0, pretend = 0, frame = 0
 1104              		@ frame_needed = 0, uses_anonymous_args = 0
 1105              	.LVL114:
 1106 03a0 10B5     		push	{r4, lr}
 1107              		.cfi_def_cfa_offset 8
 1108              		.cfi_offset 4, -8
 1109              		.cfi_offset 14, -4
 1110 03a2 0446     		mov	r4, r0
 1111              		.loc 1 472 0
 1112 03a4 FFF7FEFF 		bl	chDbgCheckClassI
 1113              	.LVL115:
 1114              		.loc 1 474 0
 1115 03a8 E268     		ldr	r2, [r4, #12]
 1116 03aa A261     		str	r2, [r4, #24]
 1117              		.loc 1 475 0
 1118 03ac 6261     		str	r2, [r4, #20]
 1119              		.loc 1 476 0
 1120 03ae 2369     		ldr	r3, [r4, #16]
 1121 03b0 9B1A     		subs	r3, r3, r2
 1122 03b2 A360     		str	r3, [r4, #8]
 1123              	.LVL116:
 1124              	.LBB242:
 1125              	.LBB243:
 1126              		.loc 3 857 0
 1127 03b4 6FF00101 		mvn	r1, #1
 1128 03b8 2046     		mov	r0, r4
 1129 03ba FFF7FEFF 		bl	chThdDequeueAllI
ARM GAS  C:\Users\RAKIBU~1\AppData\Local\Temp\ccZ7E5ar.s 			page 21


 1130              	.LVL117:
 1131              	.LBE243:
 1132              	.LBE242:
 1133              		.loc 1 478 0
 1134 03be 10BD     		pop	{r4, pc}
 1135              		.cfi_endproc
 1136              	.LFE338:
 1137              		.size	oqResetI, .-oqResetI
 1138              		.align	1
 1139              		.p2align 4,,15
 1140              		.global	oqPutI
 1141              		.syntax unified
 1142              		.thumb
 1143              		.thumb_func
 1144              		.fpu softvfp
 1145              		.type	oqPutI, %function
 1146              	oqPutI:
 1147              	.LFB339:
 1148              		.loc 1 494 0
 1149              		.cfi_startproc
 1150              		@ args = 0, pretend = 0, frame = 0
 1151              		@ frame_needed = 0, uses_anonymous_args = 0
 1152              	.LVL118:
 1153 03c0 38B5     		push	{r3, r4, r5, lr}
 1154              		.cfi_def_cfa_offset 16
 1155              		.cfi_offset 3, -16
 1156              		.cfi_offset 4, -12
 1157              		.cfi_offset 5, -8
 1158              		.cfi_offset 14, -4
 1159 03c2 0446     		mov	r4, r0
 1160 03c4 0D46     		mov	r5, r1
 1161              		.loc 1 496 0
 1162 03c6 FFF7FEFF 		bl	chDbgCheckClassI
 1163              	.LVL119:
 1164              		.loc 1 499 0
 1165 03ca A368     		ldr	r3, [r4, #8]
 1166 03cc 93B1     		cbz	r3, .L84
 1167              		.loc 1 501 0
 1168 03ce A368     		ldr	r3, [r4, #8]
 1169 03d0 013B     		subs	r3, r3, #1
 1170 03d2 A360     		str	r3, [r4, #8]
 1171              		.loc 1 502 0
 1172 03d4 6369     		ldr	r3, [r4, #20]
 1173 03d6 5A1C     		adds	r2, r3, #1
 1174 03d8 6261     		str	r2, [r4, #20]
 1175 03da 1D70     		strb	r5, [r3]
 1176              		.loc 1 503 0
 1177 03dc 6269     		ldr	r2, [r4, #20]
 1178 03de 2369     		ldr	r3, [r4, #16]
 1179 03e0 9A42     		cmp	r2, r3
 1180 03e2 01D3     		bcc	.L83
 1181              		.loc 1 504 0
 1182 03e4 E368     		ldr	r3, [r4, #12]
 1183 03e6 6361     		str	r3, [r4, #20]
 1184              	.L83:
 1185              		.loc 1 508 0
 1186 03e8 E369     		ldr	r3, [r4, #28]
ARM GAS  C:\Users\RAKIBU~1\AppData\Local\Temp\ccZ7E5ar.s 			page 22


 1187 03ea 33B1     		cbz	r3, .L85
 1188              		.loc 1 509 0
 1189 03ec 2046     		mov	r0, r4
 1190 03ee 9847     		blx	r3
 1191              	.LVL120:
 1192              		.loc 1 512 0
 1193 03f0 0020     		movs	r0, #0
 1194              	.L81:
 1195              		.loc 1 516 0
 1196 03f2 38BD     		pop	{r3, r4, r5, pc}
 1197              	.LVL121:
 1198              	.L84:
 1199              		.loc 1 515 0
 1200 03f4 4FF0FF30 		mov	r0, #-1
 1201 03f8 FBE7     		b	.L81
 1202              	.L85:
 1203              		.loc 1 512 0
 1204 03fa 0020     		movs	r0, #0
 1205 03fc F9E7     		b	.L81
 1206              		.cfi_endproc
 1207              	.LFE339:
 1208              		.size	oqPutI, .-oqPutI
 1209              		.align	1
 1210 03fe 00BF     		.p2align 4,,15
 1211              		.global	oqPutTimeout
 1212              		.syntax unified
 1213              		.thumb
 1214              		.thumb_func
 1215              		.fpu softvfp
 1216              		.type	oqPutTimeout, %function
 1217              	oqPutTimeout:
 1218              	.LFB340:
 1219              		.loc 1 540 0
 1220              		.cfi_startproc
 1221              		@ args = 0, pretend = 0, frame = 0
 1222              		@ frame_needed = 0, uses_anonymous_args = 0
 1223              	.LVL122:
 1224 0400 2DE9F041 		push	{r4, r5, r6, r7, r8, lr}
 1225              		.cfi_def_cfa_offset 24
 1226              		.cfi_offset 4, -24
 1227              		.cfi_offset 5, -20
 1228              		.cfi_offset 6, -16
 1229              		.cfi_offset 7, -12
 1230              		.cfi_offset 8, -8
 1231              		.cfi_offset 14, -4
 1232 0404 0446     		mov	r4, r0
 1233 0406 8846     		mov	r8, r1
 1234 0408 1646     		mov	r6, r2
 1235 040a 1F46     		mov	r7, r3
 1236              	.LVL123:
 1237              	.LBB267:
 1238              	.LBB268:
 1239              	.LBB269:
 1240              	.LBB270:
 1241              	.LBB271:
 1242              	.LBB272:
 1243              		.loc 4 493 0
ARM GAS  C:\Users\RAKIBU~1\AppData\Local\Temp\ccZ7E5ar.s 			page 23


 1244 040c 2023     		movs	r3, #32
 1245              		.syntax unified
 1246              	@ 493 "../../../ChibiOSRepo/chibios191/os/common/ext/ARM/CMSIS/Core/Include/cmsis_gcc.h" 1
 1247 040e 83F31188 		MSR basepri, r3
 1248              	@ 0 "" 2
 1249              	.LVL124:
 1250              		.thumb
 1251              		.syntax unified
 1252              	.LBE272:
 1253              	.LBE271:
 1254              	.LBE270:
 1255              		.loc 5 356 0
 1256 0412 FFF7FEFF 		bl	_stats_start_measure_crit_thd
 1257              	.LVL125:
 1258              		.loc 5 357 0
 1259 0416 FFF7FEFF 		bl	_dbg_check_lock
 1260              	.LVL126:
 1261              	.L88:
 1262              	.LBE269:
 1263              	.LBE268:
 1264              	.LBE267:
 1265              		.loc 1 545 0
 1266 041a A368     		ldr	r3, [r4, #8]
 1267 041c DBB9     		cbnz	r3, .L96
 1268              	.LVL127:
 1269              	.LBB273:
 1270              	.LBB274:
 1271              	.LBB275:
 1272              		.loc 3 831 0
 1273 041e 3246     		mov	r2, r6
 1274 0420 3B46     		mov	r3, r7
 1275 0422 2046     		mov	r0, r4
 1276 0424 FFF7FEFF 		bl	chThdEnqueueTimeoutS
 1277              	.LVL128:
 1278              	.LBE275:
 1279              	.LBE274:
 1280              		.loc 1 547 0
 1281 0428 051E     		subs	r5, r0, #0
 1282 042a F6DA     		bge	.L88
 1283              	.LBB276:
 1284              	.LBB277:
 1285              	.LBB278:
 1286              		.loc 5 367 0
 1287 042c FFF7FEFF 		bl	_dbg_check_unlock
 1288              	.LVL129:
 1289              		.loc 5 368 0
 1290 0430 FFF7FEFF 		bl	_stats_stop_measure_crit_thd
 1291              	.LVL130:
 1292              		.loc 5 374 0
 1293 0434 1C4B     		ldr	r3, .L99
 1294 0436 1A68     		ldr	r2, [r3]
 1295 0438 9A42     		cmp	r2, r3
 1296 043a 04D0     		beq	.L89
 1297 043c 9B69     		ldr	r3, [r3, #24]
 1298 043e 9968     		ldr	r1, [r3, #8]
 1299 0440 9368     		ldr	r3, [r2, #8]
 1300 0442 9942     		cmp	r1, r3
ARM GAS  C:\Users\RAKIBU~1\AppData\Local\Temp\ccZ7E5ar.s 			page 24


 1301 0444 03D3     		bcc	.L97
 1302              	.L89:
 1303              	.LVL131:
 1304              	.LBB279:
 1305              	.LBB280:
 1306              	.LBB281:
 1307              		.loc 4 493 0
 1308 0446 0023     		movs	r3, #0
 1309              		.syntax unified
 1310              	@ 493 "../../../ChibiOSRepo/chibios191/os/common/ext/ARM/CMSIS/Core/Include/cmsis_gcc.h" 1
 1311 0448 83F31188 		MSR basepri, r3
 1312              	@ 0 "" 2
 1313              	.LVL132:
 1314              		.thumb
 1315              		.syntax unified
 1316 044c 25E0     		b	.L87
 1317              	.L97:
 1318              	.LBE281:
 1319              	.LBE280:
 1320              	.LBE279:
 1321              		.loc 5 374 0
 1322 044e 1748     		ldr	r0, .L99+4
 1323 0450 FFF7FEFF 		bl	chSysHalt
 1324              	.LVL133:
 1325 0454 F7E7     		b	.L89
 1326              	.L96:
 1327              	.LBE278:
 1328              	.LBE277:
 1329              	.LBE276:
 1330              	.LBE273:
 1331              		.loc 1 554 0
 1332 0456 A368     		ldr	r3, [r4, #8]
 1333 0458 013B     		subs	r3, r3, #1
 1334 045a A360     		str	r3, [r4, #8]
 1335              		.loc 1 555 0
 1336 045c 6369     		ldr	r3, [r4, #20]
 1337 045e 5A1C     		adds	r2, r3, #1
 1338 0460 6261     		str	r2, [r4, #20]
 1339 0462 83F80080 		strb	r8, [r3]
 1340              		.loc 1 556 0
 1341 0466 6269     		ldr	r2, [r4, #20]
 1342 0468 2369     		ldr	r3, [r4, #16]
 1343 046a 9A42     		cmp	r2, r3
 1344 046c 01D3     		bcc	.L92
 1345              		.loc 1 557 0
 1346 046e E368     		ldr	r3, [r4, #12]
 1347 0470 6361     		str	r3, [r4, #20]
 1348              	.L92:
 1349              		.loc 1 561 0
 1350 0472 E369     		ldr	r3, [r4, #28]
 1351 0474 0BB1     		cbz	r3, .L93
 1352              		.loc 1 562 0
 1353 0476 2046     		mov	r0, r4
 1354 0478 9847     		blx	r3
 1355              	.LVL134:
 1356              	.L93:
 1357              	.LBB282:
ARM GAS  C:\Users\RAKIBU~1\AppData\Local\Temp\ccZ7E5ar.s 			page 25


 1358              	.LBB283:
 1359              	.LBB284:
 1360              		.loc 5 367 0
 1361 047a FFF7FEFF 		bl	_dbg_check_unlock
 1362              	.LVL135:
 1363              		.loc 5 368 0
 1364 047e FFF7FEFF 		bl	_stats_stop_measure_crit_thd
 1365              	.LVL136:
 1366              		.loc 5 374 0
 1367 0482 094B     		ldr	r3, .L99
 1368 0484 1A68     		ldr	r2, [r3]
 1369 0486 9A42     		cmp	r2, r3
 1370 0488 04D0     		beq	.L94
 1371 048a 9B69     		ldr	r3, [r3, #24]
 1372 048c 9968     		ldr	r1, [r3, #8]
 1373 048e 9368     		ldr	r3, [r2, #8]
 1374 0490 9942     		cmp	r1, r3
 1375 0492 05D3     		bcc	.L98
 1376              	.L94:
 1377              	.LVL137:
 1378              	.LBB285:
 1379              	.LBB286:
 1380              	.LBB287:
 1381              		.loc 4 493 0
 1382 0494 0025     		movs	r5, #0
 1383              		.syntax unified
 1384              	@ 493 "../../../ChibiOSRepo/chibios191/os/common/ext/ARM/CMSIS/Core/Include/cmsis_gcc.h" 1
 1385 0496 85F31188 		MSR basepri, r5
 1386              	@ 0 "" 2
 1387              	.LVL138:
 1388              		.thumb
 1389              		.syntax unified
 1390              	.L87:
 1391              	.LBE287:
 1392              	.LBE286:
 1393              	.LBE285:
 1394              	.LBE284:
 1395              	.LBE283:
 1396              	.LBE282:
 1397              		.loc 1 568 0
 1398 049a 2846     		mov	r0, r5
 1399 049c BDE8F081 		pop	{r4, r5, r6, r7, r8, pc}
 1400              	.LVL139:
 1401              	.L98:
 1402              	.LBB290:
 1403              	.LBB289:
 1404              	.LBB288:
 1405              		.loc 5 374 0
 1406 04a0 0248     		ldr	r0, .L99+4
 1407 04a2 FFF7FEFF 		bl	chSysHalt
 1408              	.LVL140:
 1409 04a6 F5E7     		b	.L94
 1410              	.L100:
 1411              		.align	2
 1412              	.L99:
 1413 04a8 00000000 		.word	ch
 1414 04ac 14000000 		.word	.LANCHOR0+20
ARM GAS  C:\Users\RAKIBU~1\AppData\Local\Temp\ccZ7E5ar.s 			page 26


 1415              	.LBE288:
 1416              	.LBE289:
 1417              	.LBE290:
 1418              		.cfi_endproc
 1419              	.LFE340:
 1420              		.size	oqPutTimeout, .-oqPutTimeout
 1421              		.align	1
 1422              		.p2align 4,,15
 1423              		.global	oqGetI
 1424              		.syntax unified
 1425              		.thumb
 1426              		.thumb_func
 1427              		.fpu softvfp
 1428              		.type	oqGetI, %function
 1429              	oqGetI:
 1430              	.LFB341:
 1431              		.loc 1 581 0
 1432              		.cfi_startproc
 1433              		@ args = 0, pretend = 0, frame = 0
 1434              		@ frame_needed = 0, uses_anonymous_args = 0
 1435              	.LVL141:
 1436 04b0 38B5     		push	{r3, r4, r5, lr}
 1437              		.cfi_def_cfa_offset 16
 1438              		.cfi_offset 3, -16
 1439              		.cfi_offset 4, -12
 1440              		.cfi_offset 5, -8
 1441              		.cfi_offset 14, -4
 1442 04b2 0446     		mov	r4, r0
 1443              		.loc 1 583 0
 1444 04b4 FFF7FEFF 		bl	chDbgCheckClassI
 1445              	.LVL142:
 1446              		.loc 1 586 0
 1447 04b8 6269     		ldr	r2, [r4, #20]
 1448 04ba A369     		ldr	r3, [r4, #24]
 1449 04bc 9A42     		cmp	r2, r3
 1450 04be 12D0     		beq	.L109
 1451 04c0 0022     		movs	r2, #0
 1452              	.L102:
 1453              		.loc 1 586 0 is_stmt 0 discriminator 6
 1454 04c2 AAB9     		cbnz	r2, .L107
 1455              	.LBB291:
 1456              		.loc 1 589 0 is_stmt 1
 1457 04c4 A268     		ldr	r2, [r4, #8]
 1458 04c6 0132     		adds	r2, r2, #1
 1459 04c8 A260     		str	r2, [r4, #8]
 1460              		.loc 1 590 0
 1461 04ca 5A1C     		adds	r2, r3, #1
 1462 04cc A261     		str	r2, [r4, #24]
 1463 04ce 1D78     		ldrb	r5, [r3]	@ zero_extendqisi2
 1464              	.LVL143:
 1465              		.loc 1 591 0
 1466 04d0 2369     		ldr	r3, [r4, #16]
 1467 04d2 9A42     		cmp	r2, r3
 1468 04d4 01D3     		bcc	.L104
 1469              		.loc 1 592 0
 1470 04d6 E368     		ldr	r3, [r4, #12]
 1471 04d8 A361     		str	r3, [r4, #24]
ARM GAS  C:\Users\RAKIBU~1\AppData\Local\Temp\ccZ7E5ar.s 			page 27


 1472              	.L104:
 1473              	.LVL144:
 1474              	.LBB292:
 1475              	.LBB293:
 1476              		.loc 3 844 0
 1477 04da 0021     		movs	r1, #0
 1478 04dc 2046     		mov	r0, r4
 1479 04de FFF7FEFF 		bl	chThdDequeueNextI
 1480              	.LVL145:
 1481              	.LBE293:
 1482              	.LBE292:
 1483              		.loc 1 597 0
 1484 04e2 2846     		mov	r0, r5
 1485              	.LVL146:
 1486              	.L101:
 1487              	.LBE291:
 1488              		.loc 1 601 0
 1489 04e4 38BD     		pop	{r3, r4, r5, pc}
 1490              	.LVL147:
 1491              	.L109:
 1492              		.loc 1 586 0 discriminator 1
 1493 04e6 A268     		ldr	r2, [r4, #8]
 1494 04e8 002A     		cmp	r2, #0
 1495 04ea EAD0     		beq	.L102
 1496              		.loc 1 586 0 is_stmt 0
 1497 04ec 0122     		movs	r2, #1
 1498 04ee E8E7     		b	.L102
 1499              	.L107:
 1500              		.loc 1 600 0 is_stmt 1
 1501 04f0 4FF0FF30 		mov	r0, #-1
 1502 04f4 F6E7     		b	.L101
 1503              		.cfi_endproc
 1504              	.LFE341:
 1505              		.size	oqGetI, .-oqGetI
 1506              		.align	1
 1507 04f6 00BFAFF3 		.p2align 4,,15
 1507      0080AFF3 
 1507      0080
 1508              		.global	oqWriteI
 1509              		.syntax unified
 1510              		.thumb
 1511              		.thumb_func
 1512              		.fpu softvfp
 1513              		.type	oqWriteI, %function
 1514              	oqWriteI:
 1515              	.LFB342:
 1516              		.loc 1 617 0
 1517              		.cfi_startproc
 1518              		@ args = 0, pretend = 0, frame = 0
 1519              		@ frame_needed = 0, uses_anonymous_args = 0
 1520              	.LVL148:
 1521 0500 F8B5     		push	{r3, r4, r5, r6, r7, lr}
 1522              		.cfi_def_cfa_offset 24
 1523              		.cfi_offset 3, -24
 1524              		.cfi_offset 4, -20
 1525              		.cfi_offset 5, -16
 1526              		.cfi_offset 6, -12
ARM GAS  C:\Users\RAKIBU~1\AppData\Local\Temp\ccZ7E5ar.s 			page 28


 1527              		.cfi_offset 7, -8
 1528              		.cfi_offset 14, -4
 1529 0502 0446     		mov	r4, r0
 1530 0504 0E46     		mov	r6, r1
 1531 0506 1746     		mov	r7, r2
 1532              		.loc 1 618 0
 1533 0508 C569     		ldr	r5, [r0, #28]
 1534              	.LVL149:
 1535              		.loc 1 621 0
 1536 050a FFF7FEFF 		bl	chDbgCheckClassI
 1537              	.LVL150:
 1538              		.loc 1 623 0
 1539 050e 3A46     		mov	r2, r7
 1540 0510 3146     		mov	r1, r6
 1541 0512 2046     		mov	r0, r4
 1542 0514 FFF7B4FD 		bl	oq_write
 1543              	.LVL151:
 1544              		.loc 1 627 0
 1545 0518 0646     		mov	r6, r0
 1546              	.LVL152:
 1547 051a 10B1     		cbz	r0, .L110
 1548              		.loc 1 627 0 is_stmt 0 discriminator 1
 1549 051c 0DB1     		cbz	r5, .L110
 1550              		.loc 1 628 0 is_stmt 1
 1551 051e 2046     		mov	r0, r4
 1552              	.LVL153:
 1553 0520 A847     		blx	r5
 1554              	.LVL154:
 1555              	.L110:
 1556              		.loc 1 632 0
 1557 0522 3046     		mov	r0, r6
 1558 0524 F8BD     		pop	{r3, r4, r5, r6, r7, pc}
 1559              		.cfi_endproc
 1560              	.LFE342:
 1561              		.size	oqWriteI, .-oqWriteI
 1562              		.align	1
 1563 0526 00BFAFF3 		.p2align 4,,15
 1563      0080AFF3 
 1563      0080
 1564              		.global	oqWriteTimeout
 1565              		.syntax unified
 1566              		.thumb
 1567              		.thumb_func
 1568              		.fpu softvfp
 1569              		.type	oqWriteTimeout, %function
 1570              	oqWriteTimeout:
 1571              	.LFB343:
 1572              		.loc 1 659 0
 1573              		.cfi_startproc
 1574              		@ args = 8, pretend = 0, frame = 0
 1575              		@ frame_needed = 0, uses_anonymous_args = 0
 1576              	.LVL155:
 1577 0530 2DE9F843 		push	{r3, r4, r5, r6, r7, r8, r9, lr}
 1578              		.cfi_def_cfa_offset 32
 1579              		.cfi_offset 3, -32
 1580              		.cfi_offset 4, -28
 1581              		.cfi_offset 5, -24
ARM GAS  C:\Users\RAKIBU~1\AppData\Local\Temp\ccZ7E5ar.s 			page 29


 1582              		.cfi_offset 6, -20
 1583              		.cfi_offset 7, -16
 1584              		.cfi_offset 8, -12
 1585              		.cfi_offset 9, -8
 1586              		.cfi_offset 14, -4
 1587 0534 0746     		mov	r7, r0
 1588 0536 0D46     		mov	r5, r1
 1589              		.loc 1 660 0
 1590 0538 D0F81C80 		ldr	r8, [r0, #28]
 1591              	.LVL156:
 1592              		.loc 1 663 0
 1593 053c 9146     		mov	r9, r2
 1594 053e 42B1     		cbz	r2, .L124
 1595              	.LVL157:
 1596              	.L114:
 1597              	.LBB324:
 1598              	.LBB325:
 1599              	.LBB326:
 1600              	.LBB327:
 1601              	.LBB328:
 1602              	.LBB329:
 1603              		.loc 4 493 0
 1604 0540 2023     		movs	r3, #32
 1605              		.syntax unified
 1606              	@ 493 "../../../ChibiOSRepo/chibios191/os/common/ext/ARM/CMSIS/Core/Include/cmsis_gcc.h" 1
 1607 0542 83F31188 		MSR basepri, r3
 1608              	@ 0 "" 2
 1609              	.LVL158:
 1610              		.thumb
 1611              		.syntax unified
 1612              	.LBE329:
 1613              	.LBE328:
 1614              	.LBE327:
 1615              		.loc 5 356 0
 1616 0546 FFF7FEFF 		bl	_stats_start_measure_crit_thd
 1617              	.LVL159:
 1618              		.loc 5 357 0
 1619 054a FFF7FEFF 		bl	_dbg_check_lock
 1620              	.LVL160:
 1621 054e 4C46     		mov	r4, r9
 1622 0550 2CE0     		b	.L115
 1623              	.LVL161:
 1624              	.L124:
 1625              	.LBE326:
 1626              	.LBE325:
 1627              	.LBE324:
 1628              		.loc 1 663 0 discriminator 2
 1629 0552 2748     		ldr	r0, .L128
 1630              	.LVL162:
 1631 0554 FFF7FEFF 		bl	chSysHalt
 1632              	.LVL163:
 1633 0558 F2E7     		b	.L114
 1634              	.LVL164:
 1635              	.L126:
 1636              	.LBB330:
 1637              	.LBB331:
 1638              	.LBB332:
ARM GAS  C:\Users\RAKIBU~1\AppData\Local\Temp\ccZ7E5ar.s 			page 30


 1639              	.LBB333:
 1640              		.loc 3 831 0
 1641 055a DDE90823 		ldrd	r2, [sp, #32]
 1642 055e 3846     		mov	r0, r7
 1643              	.LVL165:
 1644 0560 FFF7FEFF 		bl	chThdEnqueueTimeoutS
 1645              	.LVL166:
 1646              	.LBE333:
 1647              	.LBE332:
 1648              		.loc 1 675 0
 1649 0564 10B3     		cbz	r0, .L115
 1650              	.LVL167:
 1651              	.L117:
 1652              	.LBE331:
 1653              	.LBE330:
 1654              	.LBB349:
 1655              	.LBB350:
 1656              	.LBB351:
 1657              		.loc 5 367 0
 1658 0566 FFF7FEFF 		bl	_dbg_check_unlock
 1659              	.LVL168:
 1660              		.loc 5 368 0
 1661 056a FFF7FEFF 		bl	_stats_stop_measure_crit_thd
 1662              	.LVL169:
 1663              		.loc 5 374 0
 1664 056e 214B     		ldr	r3, .L128+4
 1665 0570 1A68     		ldr	r2, [r3]
 1666 0572 9A42     		cmp	r2, r3
 1667 0574 04D0     		beq	.L122
 1668 0576 9B69     		ldr	r3, [r3, #24]
 1669 0578 9968     		ldr	r1, [r3, #8]
 1670 057a 9368     		ldr	r3, [r2, #8]
 1671 057c 9942     		cmp	r1, r3
 1672 057e 32D3     		bcc	.L125
 1673              	.L122:
 1674              	.LVL170:
 1675              	.LBB352:
 1676              	.LBB353:
 1677              	.LBB354:
 1678              		.loc 4 493 0
 1679 0580 0023     		movs	r3, #0
 1680              		.syntax unified
 1681              	@ 493 "../../../ChibiOSRepo/chibios191/os/common/ext/ARM/CMSIS/Core/Include/cmsis_gcc.h" 1
 1682 0582 83F31188 		MSR basepri, r3
 1683              	@ 0 "" 2
 1684              	.LVL171:
 1685              		.thumb
 1686              		.syntax unified
 1687              	.LBE354:
 1688              	.LBE353:
 1689              	.LBE352:
 1690              	.LBE351:
 1691              	.LBE350:
 1692              	.LBE349:
 1693              		.loc 1 698 0
 1694 0586 A9EB0400 		sub	r0, r9, r4
 1695 058a BDE8F883 		pop	{r3, r4, r5, r6, r7, r8, r9, pc}
ARM GAS  C:\Users\RAKIBU~1\AppData\Local\Temp\ccZ7E5ar.s 			page 31


 1696              	.LVL172:
 1697              	.L127:
 1698              	.LBB357:
 1699              	.LBB334:
 1700              	.LBB335:
 1701              	.LBB336:
 1702              		.loc 5 374 0
 1703 058e 1A48     		ldr	r0, .L128+8
 1704 0590 FFF7FEFF 		bl	chSysHalt
 1705              	.LVL173:
 1706              	.L120:
 1707              	.LBB337:
 1708              	.LBB338:
 1709              	.LBB339:
 1710              		.loc 4 493 0
 1711 0594 0023     		movs	r3, #0
 1712              		.syntax unified
 1713              	@ 493 "../../../ChibiOSRepo/chibios191/os/common/ext/ARM/CMSIS/Core/Include/cmsis_gcc.h" 1
 1714 0596 83F31188 		MSR basepri, r3
 1715              	@ 0 "" 2
 1716              	.LVL174:
 1717              		.thumb
 1718              		.syntax unified
 1719              	.LBE339:
 1720              	.LBE338:
 1721              	.LBE337:
 1722              	.LBE336:
 1723              	.LBE335:
 1724              	.LBE334:
 1725              		.loc 1 689 0
 1726 059a A41B     		subs	r4, r4, r6
 1727              	.LVL175:
 1728              		.loc 1 690 0
 1729 059c 3544     		add	r5, r5, r6
 1730              	.LVL176:
 1731              	.LBB342:
 1732              	.LBB343:
 1733              	.LBB344:
 1734              	.LBB345:
 1735              	.LBB346:
 1736              	.LBB347:
 1737              		.loc 4 493 0
 1738 059e 2023     		movs	r3, #32
 1739              		.syntax unified
 1740              	@ 493 "../../../ChibiOSRepo/chibios191/os/common/ext/ARM/CMSIS/Core/Include/cmsis_gcc.h" 1
 1741 05a0 83F31188 		MSR basepri, r3
 1742              	@ 0 "" 2
 1743              	.LVL177:
 1744              		.thumb
 1745              		.syntax unified
 1746              	.LBE347:
 1747              	.LBE346:
 1748              	.LBE345:
 1749              		.loc 5 356 0
 1750 05a4 FFF7FEFF 		bl	_stats_start_measure_crit_thd
 1751              	.LVL178:
 1752              		.loc 5 357 0
ARM GAS  C:\Users\RAKIBU~1\AppData\Local\Temp\ccZ7E5ar.s 			page 32


 1753 05a8 FFF7FEFF 		bl	_dbg_check_lock
 1754              	.LVL179:
 1755              	.L115:
 1756              	.LBE344:
 1757              	.LBE343:
 1758              	.LBE342:
 1759              	.LBE357:
 1760              		.loc 1 667 0
 1761 05ac 002C     		cmp	r4, #0
 1762 05ae DAD0     		beq	.L117
 1763              	.LBB358:
 1764              		.loc 1 670 0
 1765 05b0 2246     		mov	r2, r4
 1766 05b2 2946     		mov	r1, r5
 1767 05b4 3846     		mov	r0, r7
 1768 05b6 FFF763FD 		bl	oq_write
 1769              	.LVL180:
 1770              		.loc 1 671 0
 1771 05ba 0646     		mov	r6, r0
 1772 05bc 0028     		cmp	r0, #0
 1773 05be CCD0     		beq	.L126
 1774              		.loc 1 682 0
 1775 05c0 B8F1000F 		cmp	r8, #0
 1776 05c4 01D0     		beq	.L119
 1777              		.loc 1 683 0
 1778 05c6 3846     		mov	r0, r7
 1779              	.LVL181:
 1780 05c8 C047     		blx	r8
 1781              	.LVL182:
 1782              	.L119:
 1783              	.LBB348:
 1784              	.LBB341:
 1785              	.LBB340:
 1786              		.loc 5 367 0
 1787 05ca FFF7FEFF 		bl	_dbg_check_unlock
 1788              	.LVL183:
 1789              		.loc 5 368 0
 1790 05ce FFF7FEFF 		bl	_stats_stop_measure_crit_thd
 1791              	.LVL184:
 1792              		.loc 5 374 0
 1793 05d2 084B     		ldr	r3, .L128+4
 1794 05d4 1A68     		ldr	r2, [r3]
 1795 05d6 9A42     		cmp	r2, r3
 1796 05d8 DCD0     		beq	.L120
 1797 05da 9B69     		ldr	r3, [r3, #24]
 1798 05dc 9968     		ldr	r1, [r3, #8]
 1799 05de 9368     		ldr	r3, [r2, #8]
 1800 05e0 9942     		cmp	r1, r3
 1801 05e2 D7D2     		bcs	.L120
 1802 05e4 D3E7     		b	.L127
 1803              	.LVL185:
 1804              	.L125:
 1805              	.LBE340:
 1806              	.LBE341:
 1807              	.LBE348:
 1808              	.LBE358:
 1809              	.LBB359:
ARM GAS  C:\Users\RAKIBU~1\AppData\Local\Temp\ccZ7E5ar.s 			page 33


 1810              	.LBB356:
 1811              	.LBB355:
 1812 05e6 0448     		ldr	r0, .L128+8
 1813 05e8 FFF7FEFF 		bl	chSysHalt
 1814              	.LVL186:
 1815 05ec C8E7     		b	.L122
 1816              	.L129:
 1817 05ee 00BF     		.align	2
 1818              	.L128:
 1819 05f0 30000000 		.word	.LANCHOR0+48
 1820 05f4 00000000 		.word	ch
 1821 05f8 14000000 		.word	.LANCHOR0+20
 1822              	.LBE355:
 1823              	.LBE356:
 1824              	.LBE359:
 1825              		.cfi_endproc
 1826              	.LFE343:
 1827              		.size	oqWriteTimeout, .-oqWriteTimeout
 1828              		.section	.rodata
 1829              		.align	2
 1830              		.set	.LANCHOR0,. + 0
 1831              		.type	__func__.9174, %object
 1832              		.size	__func__.9174, 8
 1833              	__func__.9174:
 1834 0000 69715F72 		.ascii	"iq_read\000"
 1834      65616400 
 1835              		.type	__func__.9182, %object
 1836              		.size	__func__.9182, 9
 1837              	__func__.9182:
 1838 0008 6F715F77 		.ascii	"oq_write\000"
 1838      72697465 
 1838      00
 1839 0011 000000   		.space	3
 1840              		.type	__func__.6519, %object
 1841              		.size	__func__.6519, 12
 1842              	__func__.6519:
 1843 0014 63685379 		.ascii	"chSysUnlock\000"
 1843      73556E6C 
 1843      6F636B00 
 1844              		.type	__func__.9225, %object
 1845              		.size	__func__.9225, 14
 1846              	__func__.9225:
 1847 0020 69715265 		.ascii	"iqReadTimeout\000"
 1847      61645469 
 1847      6D656F75 
 1847      7400
 1848 002e 0000     		.space	2
 1849              		.type	__func__.9276, %object
 1850              		.size	__func__.9276, 15
 1851              	__func__.9276:
 1852 0030 6F715772 		.ascii	"oqWriteTimeout\000"
 1852      69746554 
 1852      696D656F 
 1852      757400
 1853              		.text
 1854              	.Letext0:
 1855              		.file 6 "c:\\chibistudio\\tools\\gnu tools arm embedded\\7.0 2017q4\\lib\\gcc\\arm-none-eabi\\7.2.
ARM GAS  C:\Users\RAKIBU~1\AppData\Local\Temp\ccZ7E5ar.s 			page 34


 1856              		.file 7 "c:\\chibistudio\\tools\\gnu tools arm embedded\\7.0 2017q4\\arm-none-eabi\\include\\machi
 1857              		.file 8 "c:\\chibistudio\\tools\\gnu tools arm embedded\\7.0 2017q4\\arm-none-eabi\\include\\sys\\
 1858              		.file 9 "c:\\chibistudio\\tools\\gnu tools arm embedded\\7.0 2017q4\\arm-none-eabi\\include\\sys\\
 1859              		.file 10 "c:\\chibistudio\\tools\\gnu tools arm embedded\\7.0 2017q4\\arm-none-eabi\\include\\sys\
 1860              		.file 11 "c:\\chibistudio\\tools\\gnu tools arm embedded\\7.0 2017q4\\arm-none-eabi\\include\\sys\
 1861              		.file 12 "c:\\chibistudio\\tools\\gnu tools arm embedded\\7.0 2017q4\\arm-none-eabi\\include\\stdi
 1862              		.file 13 "../../../ChibiOSRepo/chibios191/os/common/ports/ARMCMx/compilers/GCC/chtypes.h"
 1863              		.file 14 "../../../ChibiOSRepo/chibios191/os/rt/include/chsystypes.h"
 1864              		.file 15 "../../../ChibiOSRepo/chibios191/os/rt/include/chtime.h"
 1865              		.file 16 "../../../ChibiOSRepo/chibios191/os/common/ext/ARM/CMSIS/Core/Include/core_cm4.h"
 1866              		.file 17 "../../../ChibiOSRepo/chibios191/os/common/ext/ST/STM32F4xx/system_stm32f4xx.h"
 1867              		.file 18 "../../../ChibiOSRepo/chibios191/os/common/ext/ST/STM32F4xx/stm32f407xx.h"
 1868              		.file 19 "../../../ChibiOSRepo/chibios191/os/common/ports/ARMCMx/chcore.h"
 1869              		.file 20 "../../../ChibiOSRepo/chibios191/os/common/ports/ARMCMx/chcore_v7m.h"
 1870              		.file 21 "../../../ChibiOSRepo/chibios191/os/hal/ports/STM32/LLD/TIMv1/stm32_tim.h"
 1871              		.file 22 "../../../ChibiOSRepo/chibios191/os/rt/include/chtrace.h"
 1872              		.file 23 "../../../ChibiOSRepo/chibios191/os/rt/include/chtm.h"
 1873              		.file 24 "../../../ChibiOSRepo/chibios191/os/rt/include/chstats.h"
 1874              		.file 25 "../../../ChibiOSRepo/chibios191/os/rt/include/chsem.h"
 1875              		.file 26 "../../../ChibiOSRepo/chibios191/os/rt/include/chmtx.h"
 1876              		.file 27 "../../../ChibiOSRepo/chibios191/os/rt/include/chregistry.h"
 1877              		.file 28 "../../../ChibiOSRepo/chibios191/os/rt/include/chevents.h"
 1878              		.file 29 "../../../ChibiOSRepo/chibios191/os/oslib/include/chmemcore.h"
 1879              		.file 30 "../../../ChibiOSRepo/chibios191/os/oslib/include/chmempools.h"
 1880              		.file 31 "../../../ChibiOSRepo/chibios191/os/oslib/include/chfactory.h"
 1881              		.file 32 "../../../ChibiOSRepo/chibios191/os/hal/ports/STM32/LLD/DMAv2/stm32_dma.h"
 1882              		.file 33 "../../../ChibiOSRepo/chibios191/os/hal/include/hal_ioblock.h"
 1883              		.file 34 "../../../ChibiOSRepo/chibios191/os/hal/include/hal_persistent.h"
 1884              		.file 35 "../../../ChibiOSRepo/chibios191/os/hal/include/hal_queues.h"
 1885              		.file 36 "../../../ChibiOSRepo/chibios191/os/hal/include/hal_pal.h"
 1886              		.file 37 "../../../ChibiOSRepo/chibios191/os/hal/ports/STM32/LLD/GPIOv2/stm32_gpio.h"
 1887              		.file 38 "../../../ChibiOSRepo/chibios191/os/hal/ports/STM32/LLD/GPIOv2/hal_pal_lld.h"
 1888              		.file 39 "../../../ChibiOSRepo/chibios191/os/hal/include/hal_gpt.h"
 1889              		.file 40 "../../../ChibiOSRepo/chibios191/os/hal/ports/STM32/LLD/TIMv1/hal_gpt_lld.h"
 1890              		.file 41 "../../../ChibiOSRepo/chibios191/os/hal/include/hal_i2c.h"
 1891              		.file 42 "../../../ChibiOSRepo/chibios191/os/hal/ports/STM32/LLD/I2Cv1/hal_i2c_lld.h"
 1892              		.file 43 "c:\\chibistudio\\tools\\gnu tools arm embedded\\7.0 2017q4\\arm-none-eabi\\include\\time
 1893              		.file 44 "../../../ChibiOSRepo/chibios191/os/hal/include/hal_rtc.h"
 1894              		.file 45 "../../../ChibiOSRepo/chibios191/os/hal/ports/STM32/LLD/RTCv2/hal_rtc_lld.h"
 1895              		.file 46 "../../../ChibiOSRepo/chibios191/os/hal/include/hal_serial.h"
 1896              		.file 47 "../../../ChibiOSRepo/chibios191/os/hal/ports/STM32/LLD/USARTv1/hal_serial_lld.h"
 1897              		.file 48 "../../../ChibiOSRepo/chibios191/os/hal/include/hal_sdc.h"
 1898              		.file 49 "../../../ChibiOSRepo/chibios191/os/hal/ports/STM32/LLD/SDIOv1/hal_sdc_lld.h"
 1899              		.file 50 "../../../ChibiOSRepo/chibios191/os/hal/include/hal_spi.h"
 1900              		.file 51 "../../../ChibiOSRepo/chibios191/os/hal/ports/STM32/LLD/SPIv1/hal_spi_lld.h"
 1901              		.file 52 "../../../ChibiOSRepo/chibios191/os/rt/include/chthreads.h"
 1902              		.file 53 "../../../ChibiOSRepo/chibios191/os/rt/include/ch.h"
 1903              		.file 54 "../../../ChibiOSRepo/chibios191/os/rt/include/chdebug.h"
 1904              		.file 55 "<built-in>"