ARM GAS  C:\Users\RAKIBU~1\AppData\Local\Temp\ccxNJvic.s 			page 1


   1              		.cpu cortex-m4
   2              		.eabi_attribute 20, 1
   3              		.eabi_attribute 21, 1
   4              		.eabi_attribute 23, 3
   5              		.eabi_attribute 24, 1
   6              		.eabi_attribute 25, 1
   7              		.eabi_attribute 26, 1
   8              		.eabi_attribute 30, 1
   9              		.eabi_attribute 34, 1
  10              		.eabi_attribute 18, 4
  11              		.file	"hal_buffers.c"
  12              		.text
  13              	.Ltext0:
  14              		.cfi_sections	.debug_frame
  15              		.align	1
  16              		.p2align 4,,15
  17              		.global	ibqObjectInit
  18              		.syntax unified
  19              		.thumb
  20              		.thumb_func
  21              		.fpu softvfp
  22              		.type	ibqObjectInit, %function
  23              	ibqObjectInit:
  24              	.LFB328:
  25              		.file 1 "../../../ChibiOSRepo/chibios191/os/hal/src/hal_buffers.c"
  26              		.loc 1 77 0
  27              		.cfi_startproc
  28              		@ args = 12, pretend = 0, frame = 0
  29              		@ frame_needed = 0, uses_anonymous_args = 0
  30              	.LVL0:
  31 0000 2DE9F041 		push	{r4, r5, r6, r7, r8, lr}
  32              		.cfi_def_cfa_offset 24
  33              		.cfi_offset 4, -24
  34              		.cfi_offset 5, -20
  35              		.cfi_offset 6, -16
  36              		.cfi_offset 7, -12
  37              		.cfi_offset 8, -8
  38              		.cfi_offset 14, -4
  39 0004 8846     		mov	r8, r1
  40 0006 1546     		mov	r5, r2
  41 0008 1E46     		mov	r6, r3
  42 000a 069F     		ldr	r7, [sp, #24]
  43              		.loc 1 79 0
  44 000c 0446     		mov	r4, r0
  45 000e 10B1     		cbz	r0, .L2
  46              		.loc 1 79 0 is_stmt 0 discriminator 3
  47 0010 0AB1     		cbz	r2, .L2
  48              		.loc 1 79 0 discriminator 5
  49 0012 012B     		cmp	r3, #1
  50 0014 02D8     		bhi	.L3
  51              	.L2:
  52              		.loc 1 79 0 discriminator 6
  53 0016 0D48     		ldr	r0, .L5
  54              	.LVL1:
  55 0018 FFF7FEFF 		bl	chSysHalt
  56              	.LVL2:
  57              	.L3:
ARM GAS  C:\Users\RAKIBU~1\AppData\Local\Temp\ccxNJvic.s 			page 2


  58              	.LBB157:
  59              	.LBB158:
  60              	.LBB159:
  61              	.LBB160:
  62              		.file 2 "../../../ChibiOSRepo/chibios191/os/rt/include/chschd.h"
  63              		.loc 2 539 0 is_stmt 1
  64 001c 2460     		str	r4, [r4]
  65              		.loc 2 540 0
  66 001e 6460     		str	r4, [r4, #4]
  67              	.LVL3:
  68              	.LBE160:
  69              	.LBE159:
  70              	.LBE158:
  71              	.LBE157:
  72              		.loc 1 82 0
  73 0020 84F80880 		strb	r8, [r4, #8]
  74              		.loc 1 83 0
  75 0024 0022     		movs	r2, #0
  76 0026 E260     		str	r2, [r4, #12]
  77              		.loc 1 84 0
  78 0028 6561     		str	r5, [r4, #20]
  79              		.loc 1 85 0
  80 002a 2561     		str	r5, [r4, #16]
  81              		.loc 1 86 0
  82 002c 0436     		adds	r6, r6, #4
  83              	.LVL4:
  84 002e 07FB0651 		mla	r1, r7, r6, r5
  85 0032 A161     		str	r1, [r4, #24]
  86              		.loc 1 87 0
  87 0034 E661     		str	r6, [r4, #28]
  88              		.loc 1 88 0
  89 0036 2762     		str	r7, [r4, #32]
  90              		.loc 1 89 0
  91 0038 6562     		str	r5, [r4, #36]
  92              		.loc 1 90 0
  93 003a A262     		str	r2, [r4, #40]
  94              		.loc 1 91 0
  95 003c E262     		str	r2, [r4, #44]
  96              		.loc 1 92 0
  97 003e 079B     		ldr	r3, [sp, #28]
  98 0040 2363     		str	r3, [r4, #48]
  99              		.loc 1 93 0
 100 0042 089B     		ldr	r3, [sp, #32]
 101 0044 6363     		str	r3, [r4, #52]
 102              		.loc 1 94 0
 103 0046 BDE8F081 		pop	{r4, r5, r6, r7, r8, pc}
 104              	.LVL5:
 105              	.L6:
 106 004a 00BF     		.align	2
 107              	.L5:
 108 004c 00000000 		.word	.LANCHOR0
 109              		.cfi_endproc
 110              	.LFE328:
 111              		.size	ibqObjectInit, .-ibqObjectInit
 112              		.align	1
 113              		.p2align 4,,15
 114              		.global	ibqResetI
ARM GAS  C:\Users\RAKIBU~1\AppData\Local\Temp\ccxNJvic.s 			page 3


 115              		.syntax unified
 116              		.thumb
 117              		.thumb_func
 118              		.fpu softvfp
 119              		.type	ibqResetI, %function
 120              	ibqResetI:
 121              	.LFB329:
 122              		.loc 1 107 0
 123              		.cfi_startproc
 124              		@ args = 0, pretend = 0, frame = 0
 125              		@ frame_needed = 0, uses_anonymous_args = 0
 126              	.LVL6:
 127 0050 10B5     		push	{r4, lr}
 128              		.cfi_def_cfa_offset 8
 129              		.cfi_offset 4, -8
 130              		.cfi_offset 14, -4
 131 0052 0446     		mov	r4, r0
 132              		.loc 1 109 0
 133 0054 FFF7FEFF 		bl	chDbgCheckClassI
 134              	.LVL7:
 135              		.loc 1 111 0
 136 0058 0023     		movs	r3, #0
 137 005a E360     		str	r3, [r4, #12]
 138              		.loc 1 112 0
 139 005c 626A     		ldr	r2, [r4, #36]
 140 005e 6261     		str	r2, [r4, #20]
 141              		.loc 1 113 0
 142 0060 2261     		str	r2, [r4, #16]
 143              		.loc 1 114 0
 144 0062 A362     		str	r3, [r4, #40]
 145              		.loc 1 115 0
 146 0064 E362     		str	r3, [r4, #44]
 147              	.LVL8:
 148              	.LBB161:
 149              	.LBB162:
 150              		.file 3 "../../../ChibiOSRepo/chibios191/os/hal/osal/rt/osal.h"
 151              		.loc 3 857 0
 152 0066 6FF00101 		mvn	r1, #1
 153 006a 2046     		mov	r0, r4
 154 006c FFF7FEFF 		bl	chThdDequeueAllI
 155              	.LVL9:
 156              	.LBE162:
 157              	.LBE161:
 158              		.loc 1 117 0
 159 0070 10BD     		pop	{r4, pc}
 160              		.cfi_endproc
 161              	.LFE329:
 162              		.size	ibqResetI, .-ibqResetI
 163              		.align	1
 164 0072 00BFAFF3 		.p2align 4,,15
 164      0080AFF3 
 164      0080AFF3 
 164      0080
 165              		.global	ibqGetEmptyBufferI
 166              		.syntax unified
 167              		.thumb
 168              		.thumb_func
ARM GAS  C:\Users\RAKIBU~1\AppData\Local\Temp\ccxNJvic.s 			page 4


 169              		.fpu softvfp
 170              		.type	ibqGetEmptyBufferI, %function
 171              	ibqGetEmptyBufferI:
 172              	.LFB330:
 173              		.loc 1 129 0
 174              		.cfi_startproc
 175              		@ args = 0, pretend = 0, frame = 0
 176              		@ frame_needed = 0, uses_anonymous_args = 0
 177              	.LVL10:
 178 0080 10B5     		push	{r4, lr}
 179              		.cfi_def_cfa_offset 8
 180              		.cfi_offset 4, -8
 181              		.cfi_offset 14, -4
 182 0082 0446     		mov	r4, r0
 183              		.loc 1 131 0
 184 0084 FFF7FEFF 		bl	chDbgCheckClassI
 185              	.LVL11:
 186              		.loc 1 133 0
 187 0088 2069     		ldr	r0, [r4, #16]
 188 008a 6369     		ldr	r3, [r4, #20]
 189 008c 9842     		cmp	r0, r3
 190 008e 03D0     		beq	.L16
 191 0090 0023     		movs	r3, #0
 192              	.L10:
 193              		.loc 1 133 0 is_stmt 0 discriminator 6
 194 0092 33B9     		cbnz	r3, .L14
 195              		.loc 1 137 0 is_stmt 1
 196 0094 0430     		adds	r0, r0, #4
 197              	.L9:
 198              		.loc 1 138 0
 199 0096 10BD     		pop	{r4, pc}
 200              	.LVL12:
 201              	.L16:
 202              		.loc 1 133 0 discriminator 1
 203 0098 E368     		ldr	r3, [r4, #12]
 204 009a 002B     		cmp	r3, #0
 205 009c F9D0     		beq	.L10
 206              		.loc 1 133 0 is_stmt 0
 207 009e 0123     		movs	r3, #1
 208 00a0 F7E7     		b	.L10
 209              	.L14:
 210              		.loc 1 134 0 is_stmt 1
 211 00a2 0020     		movs	r0, #0
 212 00a4 F7E7     		b	.L9
 213              		.cfi_endproc
 214              	.LFE330:
 215              		.size	ibqGetEmptyBufferI, .-ibqGetEmptyBufferI
 216              		.align	1
 217 00a6 00BFAFF3 		.p2align 4,,15
 217      0080AFF3 
 217      0080
 218              		.global	ibqPostFullBufferI
 219              		.syntax unified
 220              		.thumb
 221              		.thumb_func
 222              		.fpu softvfp
 223              		.type	ibqPostFullBufferI, %function
ARM GAS  C:\Users\RAKIBU~1\AppData\Local\Temp\ccxNJvic.s 			page 5


 224              	ibqPostFullBufferI:
 225              	.LFB331:
 226              		.loc 1 148 0
 227              		.cfi_startproc
 228              		@ args = 0, pretend = 0, frame = 0
 229              		@ frame_needed = 0, uses_anonymous_args = 0
 230              	.LVL13:
 231 00b0 38B5     		push	{r3, r4, r5, lr}
 232              		.cfi_def_cfa_offset 16
 233              		.cfi_offset 3, -16
 234              		.cfi_offset 4, -12
 235              		.cfi_offset 5, -8
 236              		.cfi_offset 14, -4
 237 00b2 0446     		mov	r4, r0
 238 00b4 0D46     		mov	r5, r1
 239              		.loc 1 150 0
 240 00b6 FFF7FEFF 		bl	chDbgCheckClassI
 241              	.LVL14:
 242              		.loc 1 152 0
 243 00ba 1DB1     		cbz	r5, .L18
 244              		.loc 1 152 0 is_stmt 0 discriminator 3
 245 00bc E369     		ldr	r3, [r4, #28]
 246 00be 043B     		subs	r3, r3, #4
 247 00c0 AB42     		cmp	r3, r5
 248 00c2 02D2     		bcs	.L19
 249              	.L18:
 250              		.loc 1 152 0 discriminator 4
 251 00c4 1248     		ldr	r0, .L28
 252 00c6 FFF7FEFF 		bl	chSysHalt
 253              	.LVL15:
 254              	.L19:
 255              		.loc 1 153 0 is_stmt 1 discriminator 1
 256 00ca 2269     		ldr	r2, [r4, #16]
 257 00cc 6369     		ldr	r3, [r4, #20]
 258 00ce 9A42     		cmp	r2, r3
 259 00d0 14D0     		beq	.L26
 260              		.loc 1 153 0 is_stmt 0
 261 00d2 0023     		movs	r3, #0
 262              	.L20:
 263              		.loc 1 153 0 discriminator 7
 264 00d4 BBB9     		cbnz	r3, .L27
 265              	.L21:
 266              		.loc 1 156 0 is_stmt 1
 267 00d6 2369     		ldr	r3, [r4, #16]
 268 00d8 1D60     		str	r5, [r3]
 269              		.loc 1 159 0
 270 00da E368     		ldr	r3, [r4, #12]
 271 00dc 0133     		adds	r3, r3, #1
 272 00de E360     		str	r3, [r4, #12]
 273              		.loc 1 160 0
 274 00e0 E269     		ldr	r2, [r4, #28]
 275 00e2 2369     		ldr	r3, [r4, #16]
 276 00e4 1344     		add	r3, r3, r2
 277 00e6 2361     		str	r3, [r4, #16]
 278              		.loc 1 161 0
 279 00e8 A269     		ldr	r2, [r4, #24]
 280 00ea 9342     		cmp	r3, r2
ARM GAS  C:\Users\RAKIBU~1\AppData\Local\Temp\ccxNJvic.s 			page 6


 281 00ec 01D3     		bcc	.L22
 282              		.loc 1 162 0
 283 00ee 636A     		ldr	r3, [r4, #36]
 284 00f0 2361     		str	r3, [r4, #16]
 285              	.L22:
 286              	.LVL16:
 287              	.LBB163:
 288              	.LBB164:
 289              		.loc 3 844 0
 290 00f2 0021     		movs	r1, #0
 291 00f4 2046     		mov	r0, r4
 292 00f6 FFF7FEFF 		bl	chThdDequeueNextI
 293              	.LVL17:
 294              	.LBE164:
 295              	.LBE163:
 296              		.loc 1 167 0
 297 00fa 38BD     		pop	{r3, r4, r5, pc}
 298              	.LVL18:
 299              	.L26:
 300              		.loc 1 153 0 discriminator 2
 301 00fc E368     		ldr	r3, [r4, #12]
 302 00fe 002B     		cmp	r3, #0
 303 0100 E8D0     		beq	.L20
 304              		.loc 1 153 0 is_stmt 0
 305 0102 0123     		movs	r3, #1
 306 0104 E6E7     		b	.L20
 307              	.L27:
 308              		.loc 1 153 0 discriminator 8
 309 0106 0248     		ldr	r0, .L28
 310 0108 FFF7FEFF 		bl	chSysHalt
 311              	.LVL19:
 312 010c E3E7     		b	.L21
 313              	.L29:
 314 010e 00BF     		.align	2
 315              	.L28:
 316 0110 10000000 		.word	.LANCHOR0+16
 317              		.cfi_endproc
 318              	.LFE331:
 319              		.size	ibqPostFullBufferI, .-ibqPostFullBufferI
 320              		.align	1
 321 0114 AFF30080 		.p2align 4,,15
 321      AFF30080 
 321      AFF30080 
 322              		.global	ibqGetFullBufferTimeoutS
 323              		.syntax unified
 324              		.thumb
 325              		.thumb_func
 326              		.fpu softvfp
 327              		.type	ibqGetFullBufferTimeoutS, %function
 328              	ibqGetFullBufferTimeoutS:
 329              	.LFB333:
 330              		.loc 1 223 0 is_stmt 1
 331              		.cfi_startproc
 332              		@ args = 0, pretend = 0, frame = 0
 333              		@ frame_needed = 0, uses_anonymous_args = 0
 334              	.LVL20:
 335 0120 D0B5     		push	{r4, r6, r7, lr}
ARM GAS  C:\Users\RAKIBU~1\AppData\Local\Temp\ccxNJvic.s 			page 7


 336              		.cfi_def_cfa_offset 16
 337              		.cfi_offset 4, -16
 338              		.cfi_offset 6, -12
 339              		.cfi_offset 7, -8
 340              		.cfi_offset 14, -4
 341 0122 0446     		mov	r4, r0
 342 0124 1646     		mov	r6, r2
 343 0126 1F46     		mov	r7, r3
 344              		.loc 1 225 0
 345 0128 FFF7FEFF 		bl	chDbgCheckClassS
 346              	.LVL21:
 347              	.L31:
 348              		.loc 1 227 0
 349 012c E368     		ldr	r3, [r4, #12]
 350 012e 4BB9     		cbnz	r3, .L37
 351              	.LBB165:
 352              		.loc 1 228 0
 353 0130 237A     		ldrb	r3, [r4, #8]	@ zero_extendqisi2
 354 0132 ABB9     		cbnz	r3, .L35
 355              	.LVL22:
 356              	.LBB166:
 357              	.LBB167:
 358              		.loc 3 831 0
 359 0134 3246     		mov	r2, r6
 360 0136 3B46     		mov	r3, r7
 361 0138 2046     		mov	r0, r4
 362 013a FFF7FEFF 		bl	chThdEnqueueTimeoutS
 363              	.LVL23:
 364              	.LBE167:
 365              	.LBE166:
 366              		.loc 1 232 0
 367 013e 0028     		cmp	r0, #0
 368 0140 F4DA     		bge	.L31
 369 0142 08E0     		b	.L30
 370              	.L37:
 371              	.LBE165:
 372              		.loc 1 237 0 discriminator 1
 373 0144 E368     		ldr	r3, [r4, #12]
 374 0146 3BB1     		cbz	r3, .L38
 375              	.L34:
 376              		.loc 1 240 0
 377 0148 6269     		ldr	r2, [r4, #20]
 378 014a 131D     		adds	r3, r2, #4
 379 014c A362     		str	r3, [r4, #40]
 380              		.loc 1 241 0
 381 014e 1268     		ldr	r2, [r2]
 382 0150 1344     		add	r3, r3, r2
 383 0152 E362     		str	r3, [r4, #44]
 384              		.loc 1 243 0
 385 0154 0020     		movs	r0, #0
 386              	.L30:
 387              		.loc 1 244 0
 388 0156 D0BD     		pop	{r4, r6, r7, pc}
 389              	.LVL24:
 390              	.L38:
 391              		.loc 1 237 0 discriminator 2
 392 0158 0348     		ldr	r0, .L39
ARM GAS  C:\Users\RAKIBU~1\AppData\Local\Temp\ccxNJvic.s 			page 8


 393 015a FFF7FEFF 		bl	chSysHalt
 394              	.LVL25:
 395 015e F3E7     		b	.L34
 396              	.L35:
 397              	.LBB168:
 398              		.loc 1 229 0
 399 0160 6FF00100 		mvn	r0, #1
 400 0164 F7E7     		b	.L30
 401              	.L40:
 402 0166 00BF     		.align	2
 403              	.L39:
 404 0168 24000000 		.word	.LANCHOR0+36
 405              	.LBE168:
 406              		.cfi_endproc
 407              	.LFE333:
 408              		.size	ibqGetFullBufferTimeoutS, .-ibqGetFullBufferTimeoutS
 409              		.align	1
 410 016c AFF30080 		.p2align 4,,15
 411              		.global	ibqGetFullBufferTimeout
 412              		.syntax unified
 413              		.thumb
 414              		.thumb_func
 415              		.fpu softvfp
 416              		.type	ibqGetFullBufferTimeout, %function
 417              	ibqGetFullBufferTimeout:
 418              	.LFB332:
 419              		.loc 1 191 0
 420              		.cfi_startproc
 421              		@ args = 0, pretend = 0, frame = 0
 422              		@ frame_needed = 0, uses_anonymous_args = 0
 423              	.LVL26:
 424 0170 D0B5     		push	{r4, r6, r7, lr}
 425              		.cfi_def_cfa_offset 16
 426              		.cfi_offset 4, -16
 427              		.cfi_offset 6, -12
 428              		.cfi_offset 7, -8
 429              		.cfi_offset 14, -4
 430 0172 0446     		mov	r4, r0
 431 0174 1646     		mov	r6, r2
 432 0176 1F46     		mov	r7, r3
 433              	.LVL27:
 434              	.LBB182:
 435              	.LBB183:
 436              	.LBB184:
 437              	.LBB185:
 438              	.LBB186:
 439              	.LBB187:
 440              		.file 4 "../../../ChibiOSRepo/chibios191/os/common/ext/ARM/CMSIS/Core/Include/cmsis_gcc.h"
 441              		.loc 4 493 0
 442 0178 2023     		movs	r3, #32
 443              		.syntax unified
 444              	@ 493 "../../../ChibiOSRepo/chibios191/os/common/ext/ARM/CMSIS/Core/Include/cmsis_gcc.h" 1
 445 017a 83F31188 		MSR basepri, r3
 446              	@ 0 "" 2
 447              	.LVL28:
 448              		.thumb
 449              		.syntax unified
ARM GAS  C:\Users\RAKIBU~1\AppData\Local\Temp\ccxNJvic.s 			page 9


 450              	.LBE187:
 451              	.LBE186:
 452              	.LBE185:
 453              		.file 5 "../../../ChibiOSRepo/chibios191/os/rt/include/chsys.h"
 454              		.loc 5 356 0
 455 017e FFF7FEFF 		bl	_stats_start_measure_crit_thd
 456              	.LVL29:
 457              		.loc 5 357 0
 458 0182 FFF7FEFF 		bl	_dbg_check_lock
 459              	.LVL30:
 460              	.LBE184:
 461              	.LBE183:
 462              	.LBE182:
 463              		.loc 1 195 0
 464 0186 3246     		mov	r2, r6
 465 0188 3B46     		mov	r3, r7
 466 018a 2046     		mov	r0, r4
 467 018c FFF7FEFF 		bl	ibqGetFullBufferTimeoutS
 468              	.LVL31:
 469 0190 0446     		mov	r4, r0
 470              	.LVL32:
 471              	.LBB188:
 472              	.LBB189:
 473              	.LBB190:
 474              		.loc 5 367 0
 475 0192 FFF7FEFF 		bl	_dbg_check_unlock
 476              	.LVL33:
 477              		.loc 5 368 0
 478 0196 FFF7FEFF 		bl	_stats_stop_measure_crit_thd
 479              	.LVL34:
 480              		.loc 5 374 0
 481 019a 094B     		ldr	r3, .L45
 482 019c 1A68     		ldr	r2, [r3]
 483 019e 9A42     		cmp	r2, r3
 484 01a0 04D0     		beq	.L42
 485 01a2 9B69     		ldr	r3, [r3, #24]
 486 01a4 9968     		ldr	r1, [r3, #8]
 487 01a6 9368     		ldr	r3, [r2, #8]
 488 01a8 9942     		cmp	r1, r3
 489 01aa 04D3     		bcc	.L44
 490              	.L42:
 491              	.LVL35:
 492              	.LBB191:
 493              	.LBB192:
 494              	.LBB193:
 495              		.loc 4 493 0
 496 01ac 0023     		movs	r3, #0
 497              		.syntax unified
 498              	@ 493 "../../../ChibiOSRepo/chibios191/os/common/ext/ARM/CMSIS/Core/Include/cmsis_gcc.h" 1
 499 01ae 83F31188 		MSR basepri, r3
 500              	@ 0 "" 2
 501              	.LVL36:
 502              		.thumb
 503              		.syntax unified
 504              	.LBE193:
 505              	.LBE192:
 506              	.LBE191:
ARM GAS  C:\Users\RAKIBU~1\AppData\Local\Temp\ccxNJvic.s 			page 10


 507              	.LBE190:
 508              	.LBE189:
 509              	.LBE188:
 510              		.loc 1 199 0
 511 01b2 2046     		mov	r0, r4
 512 01b4 D0BD     		pop	{r4, r6, r7, pc}
 513              	.LVL37:
 514              	.L44:
 515              	.LBB196:
 516              	.LBB195:
 517              	.LBB194:
 518              		.loc 5 374 0
 519 01b6 0348     		ldr	r0, .L45+4
 520 01b8 FFF7FEFF 		bl	chSysHalt
 521              	.LVL38:
 522 01bc F6E7     		b	.L42
 523              	.L46:
 524 01be 00BF     		.align	2
 525              	.L45:
 526 01c0 00000000 		.word	ch
 527 01c4 40000000 		.word	.LANCHOR0+64
 528              	.LBE194:
 529              	.LBE195:
 530              	.LBE196:
 531              		.cfi_endproc
 532              	.LFE332:
 533              		.size	ibqGetFullBufferTimeout, .-ibqGetFullBufferTimeout
 534              		.align	1
 535 01c8 AFF30080 		.p2align 4,,15
 535      AFF30080 
 536              		.global	ibqReleaseEmptyBufferS
 537              		.syntax unified
 538              		.thumb
 539              		.thumb_func
 540              		.fpu softvfp
 541              		.type	ibqReleaseEmptyBufferS, %function
 542              	ibqReleaseEmptyBufferS:
 543              	.LFB335:
 544              		.loc 1 269 0
 545              		.cfi_startproc
 546              		@ args = 0, pretend = 0, frame = 0
 547              		@ frame_needed = 0, uses_anonymous_args = 0
 548              	.LVL39:
 549 01d0 10B5     		push	{r4, lr}
 550              		.cfi_def_cfa_offset 8
 551              		.cfi_offset 4, -8
 552              		.cfi_offset 14, -4
 553 01d2 0446     		mov	r4, r0
 554              		.loc 1 271 0
 555 01d4 FFF7FEFF 		bl	chDbgCheckClassS
 556              	.LVL40:
 557              		.loc 1 272 0
 558 01d8 E368     		ldr	r3, [r4, #12]
 559 01da 93B1     		cbz	r3, .L52
 560              	.L48:
 561              		.loc 1 275 0
 562 01dc E368     		ldr	r3, [r4, #12]
ARM GAS  C:\Users\RAKIBU~1\AppData\Local\Temp\ccxNJvic.s 			page 11


 563 01de 013B     		subs	r3, r3, #1
 564 01e0 E360     		str	r3, [r4, #12]
 565              		.loc 1 276 0
 566 01e2 E269     		ldr	r2, [r4, #28]
 567 01e4 6369     		ldr	r3, [r4, #20]
 568 01e6 1344     		add	r3, r3, r2
 569 01e8 6361     		str	r3, [r4, #20]
 570              		.loc 1 277 0
 571 01ea A269     		ldr	r2, [r4, #24]
 572 01ec 9342     		cmp	r3, r2
 573 01ee 01D3     		bcc	.L49
 574              		.loc 1 278 0
 575 01f0 636A     		ldr	r3, [r4, #36]
 576 01f2 6361     		str	r3, [r4, #20]
 577              	.L49:
 578              		.loc 1 282 0
 579 01f4 0023     		movs	r3, #0
 580 01f6 A362     		str	r3, [r4, #40]
 581              		.loc 1 285 0
 582 01f8 236B     		ldr	r3, [r4, #48]
 583 01fa 0BB1     		cbz	r3, .L47
 584              		.loc 1 286 0
 585 01fc 2046     		mov	r0, r4
 586 01fe 9847     		blx	r3
 587              	.LVL41:
 588              	.L47:
 589              		.loc 1 288 0
 590 0200 10BD     		pop	{r4, pc}
 591              	.LVL42:
 592              	.L52:
 593              		.loc 1 272 0 discriminator 2
 594 0202 0248     		ldr	r0, .L53
 595 0204 FFF7FEFF 		bl	chSysHalt
 596              	.LVL43:
 597 0208 E8E7     		b	.L48
 598              	.L54:
 599 020a 00BF     		.align	2
 600              	.L53:
 601 020c 4C000000 		.word	.LANCHOR0+76
 602              		.cfi_endproc
 603              	.LFE335:
 604              		.size	ibqReleaseEmptyBufferS, .-ibqReleaseEmptyBufferS
 605              		.align	1
 606              		.p2align 4,,15
 607              		.global	ibqReleaseEmptyBuffer
 608              		.syntax unified
 609              		.thumb
 610              		.thumb_func
 611              		.fpu softvfp
 612              		.type	ibqReleaseEmptyBuffer, %function
 613              	ibqReleaseEmptyBuffer:
 614              	.LFB334:
 615              		.loc 1 254 0
 616              		.cfi_startproc
 617              		@ args = 0, pretend = 0, frame = 0
 618              		@ frame_needed = 0, uses_anonymous_args = 0
 619              	.LVL44:
ARM GAS  C:\Users\RAKIBU~1\AppData\Local\Temp\ccxNJvic.s 			page 12


 620 0210 10B5     		push	{r4, lr}
 621              		.cfi_def_cfa_offset 8
 622              		.cfi_offset 4, -8
 623              		.cfi_offset 14, -4
 624 0212 0446     		mov	r4, r0
 625              	.LVL45:
 626              	.LBB210:
 627              	.LBB211:
 628              	.LBB212:
 629              	.LBB213:
 630              	.LBB214:
 631              	.LBB215:
 632              		.loc 4 493 0
 633 0214 2023     		movs	r3, #32
 634              		.syntax unified
 635              	@ 493 "../../../ChibiOSRepo/chibios191/os/common/ext/ARM/CMSIS/Core/Include/cmsis_gcc.h" 1
 636 0216 83F31188 		MSR basepri, r3
 637              	@ 0 "" 2
 638              	.LVL46:
 639              		.thumb
 640              		.syntax unified
 641              	.LBE215:
 642              	.LBE214:
 643              	.LBE213:
 644              		.loc 5 356 0
 645 021a FFF7FEFF 		bl	_stats_start_measure_crit_thd
 646              	.LVL47:
 647              		.loc 5 357 0
 648 021e FFF7FEFF 		bl	_dbg_check_lock
 649              	.LVL48:
 650              	.LBE212:
 651              	.LBE211:
 652              	.LBE210:
 653              		.loc 1 257 0
 654 0222 2046     		mov	r0, r4
 655 0224 FFF7FEFF 		bl	ibqReleaseEmptyBufferS
 656              	.LVL49:
 657              	.LBB216:
 658              	.LBB217:
 659              	.LBB218:
 660              		.loc 5 367 0
 661 0228 FFF7FEFF 		bl	_dbg_check_unlock
 662              	.LVL50:
 663              		.loc 5 368 0
 664 022c FFF7FEFF 		bl	_stats_stop_measure_crit_thd
 665              	.LVL51:
 666              		.loc 5 374 0
 667 0230 084B     		ldr	r3, .L59
 668 0232 1A68     		ldr	r2, [r3]
 669 0234 9A42     		cmp	r2, r3
 670 0236 04D0     		beq	.L56
 671 0238 9B69     		ldr	r3, [r3, #24]
 672 023a 9968     		ldr	r1, [r3, #8]
 673 023c 9368     		ldr	r3, [r2, #8]
 674 023e 9942     		cmp	r1, r3
 675 0240 03D3     		bcc	.L58
 676              	.L56:
ARM GAS  C:\Users\RAKIBU~1\AppData\Local\Temp\ccxNJvic.s 			page 13


 677              	.LVL52:
 678              	.LBB219:
 679              	.LBB220:
 680              	.LBB221:
 681              		.loc 4 493 0
 682 0242 0023     		movs	r3, #0
 683              		.syntax unified
 684              	@ 493 "../../../ChibiOSRepo/chibios191/os/common/ext/ARM/CMSIS/Core/Include/cmsis_gcc.h" 1
 685 0244 83F31188 		MSR basepri, r3
 686              	@ 0 "" 2
 687              	.LVL53:
 688              		.thumb
 689              		.syntax unified
 690              	.LBE221:
 691              	.LBE220:
 692              	.LBE219:
 693              	.LBE218:
 694              	.LBE217:
 695              	.LBE216:
 696              		.loc 1 259 0
 697 0248 10BD     		pop	{r4, pc}
 698              	.LVL54:
 699              	.L58:
 700              	.LBB224:
 701              	.LBB223:
 702              	.LBB222:
 703              		.loc 5 374 0
 704 024a 0348     		ldr	r0, .L59+4
 705 024c FFF7FEFF 		bl	chSysHalt
 706              	.LVL55:
 707 0250 F7E7     		b	.L56
 708              	.L60:
 709 0252 00BF     		.align	2
 710              	.L59:
 711 0254 00000000 		.word	ch
 712 0258 40000000 		.word	.LANCHOR0+64
 713              	.LBE222:
 714              	.LBE223:
 715              	.LBE224:
 716              		.cfi_endproc
 717              	.LFE334:
 718              		.size	ibqReleaseEmptyBuffer, .-ibqReleaseEmptyBuffer
 719              		.align	1
 720 025c AFF30080 		.p2align 4,,15
 721              		.global	ibqGetTimeout
 722              		.syntax unified
 723              		.thumb
 724              		.thumb_func
 725              		.fpu softvfp
 726              		.type	ibqGetTimeout, %function
 727              	ibqGetTimeout:
 728              	.LFB336:
 729              		.loc 1 309 0
 730              		.cfi_startproc
 731              		@ args = 0, pretend = 0, frame = 0
 732              		@ frame_needed = 0, uses_anonymous_args = 0
 733              	.LVL56:
ARM GAS  C:\Users\RAKIBU~1\AppData\Local\Temp\ccxNJvic.s 			page 14


 734 0260 F8B5     		push	{r3, r4, r5, r6, r7, lr}
 735              		.cfi_def_cfa_offset 24
 736              		.cfi_offset 3, -24
 737              		.cfi_offset 4, -20
 738              		.cfi_offset 5, -16
 739              		.cfi_offset 6, -12
 740              		.cfi_offset 7, -8
 741              		.cfi_offset 14, -4
 742 0262 0446     		mov	r4, r0
 743 0264 1646     		mov	r6, r2
 744 0266 1F46     		mov	r7, r3
 745              	.LVL57:
 746              	.LBB245:
 747              	.LBB246:
 748              	.LBB247:
 749              	.LBB248:
 750              	.LBB249:
 751              	.LBB250:
 752              		.loc 4 493 0
 753 0268 2023     		movs	r3, #32
 754              		.syntax unified
 755              	@ 493 "../../../ChibiOSRepo/chibios191/os/common/ext/ARM/CMSIS/Core/Include/cmsis_gcc.h" 1
 756 026a 83F31188 		MSR basepri, r3
 757              	@ 0 "" 2
 758              	.LVL58:
 759              		.thumb
 760              		.syntax unified
 761              	.LBE250:
 762              	.LBE249:
 763              	.LBE248:
 764              		.loc 5 356 0
 765 026e FFF7FEFF 		bl	_stats_start_measure_crit_thd
 766              	.LVL59:
 767              		.loc 5 357 0
 768 0272 FFF7FEFF 		bl	_dbg_check_lock
 769              	.LVL60:
 770              	.LBE247:
 771              	.LBE246:
 772              	.LBE245:
 773              		.loc 1 315 0
 774 0276 A36A     		ldr	r3, [r4, #40]
 775 0278 C3B1     		cbz	r3, .L68
 776              	.L62:
 777              		.loc 1 324 0
 778 027a A36A     		ldr	r3, [r4, #40]
 779 027c 13F8015B 		ldrb	r5, [r3], #1	@ zero_extendqisi2
 780              	.LVL61:
 781              		.loc 1 325 0
 782 0280 A362     		str	r3, [r4, #40]
 783              		.loc 1 329 0
 784 0282 E26A     		ldr	r2, [r4, #44]
 785 0284 9342     		cmp	r3, r2
 786 0286 2ED2     		bcs	.L69
 787              	.L65:
 788              	.LBB251:
 789              	.LBB252:
 790              	.LBB253:
ARM GAS  C:\Users\RAKIBU~1\AppData\Local\Temp\ccxNJvic.s 			page 15


 791              		.loc 5 367 0
 792 0288 FFF7FEFF 		bl	_dbg_check_unlock
 793              	.LVL62:
 794              		.loc 5 368 0
 795 028c FFF7FEFF 		bl	_stats_stop_measure_crit_thd
 796              	.LVL63:
 797              		.loc 5 374 0
 798 0290 194B     		ldr	r3, .L72
 799 0292 1A68     		ldr	r2, [r3]
 800 0294 9A42     		cmp	r2, r3
 801 0296 04D0     		beq	.L66
 802 0298 9B69     		ldr	r3, [r3, #24]
 803 029a 9968     		ldr	r1, [r3, #8]
 804 029c 9368     		ldr	r3, [r2, #8]
 805 029e 9942     		cmp	r1, r3
 806 02a0 25D3     		bcc	.L70
 807              	.L66:
 808              	.LVL64:
 809              	.LBB254:
 810              	.LBB255:
 811              	.LBB256:
 812              		.loc 4 493 0
 813 02a2 0023     		movs	r3, #0
 814              		.syntax unified
 815              	@ 493 "../../../ChibiOSRepo/chibios191/os/common/ext/ARM/CMSIS/Core/Include/cmsis_gcc.h" 1
 816 02a4 83F31188 		MSR basepri, r3
 817              	@ 0 "" 2
 818              	.LVL65:
 819              		.thumb
 820              		.syntax unified
 821              	.L61:
 822              	.LBE256:
 823              	.LBE255:
 824              	.LBE254:
 825              	.LBE253:
 826              	.LBE252:
 827              	.LBE251:
 828              		.loc 1 335 0
 829 02a8 2846     		mov	r0, r5
 830 02aa F8BD     		pop	{r3, r4, r5, r6, r7, pc}
 831              	.LVL66:
 832              	.L68:
 833              		.loc 1 316 0
 834 02ac 3246     		mov	r2, r6
 835 02ae 3B46     		mov	r3, r7
 836 02b0 2046     		mov	r0, r4
 837 02b2 FFF7FEFF 		bl	ibqGetFullBufferTimeoutS
 838              	.LVL67:
 839              		.loc 1 317 0
 840 02b6 0546     		mov	r5, r0
 841 02b8 0028     		cmp	r0, #0
 842 02ba DED0     		beq	.L62
 843              	.LBB259:
 844              	.LBB260:
 845              	.LBB261:
 846              		.loc 5 367 0
 847 02bc FFF7FEFF 		bl	_dbg_check_unlock
ARM GAS  C:\Users\RAKIBU~1\AppData\Local\Temp\ccxNJvic.s 			page 16


 848              	.LVL68:
 849              		.loc 5 368 0
 850 02c0 FFF7FEFF 		bl	_stats_stop_measure_crit_thd
 851              	.LVL69:
 852              		.loc 5 374 0
 853 02c4 0C4B     		ldr	r3, .L72
 854 02c6 1A68     		ldr	r2, [r3]
 855 02c8 9A42     		cmp	r2, r3
 856 02ca 04D0     		beq	.L63
 857 02cc 9B69     		ldr	r3, [r3, #24]
 858 02ce 9968     		ldr	r1, [r3, #8]
 859 02d0 9368     		ldr	r3, [r2, #8]
 860 02d2 9942     		cmp	r1, r3
 861 02d4 03D3     		bcc	.L71
 862              	.L63:
 863              	.LVL70:
 864              	.LBB262:
 865              	.LBB263:
 866              	.LBB264:
 867              		.loc 4 493 0
 868 02d6 0023     		movs	r3, #0
 869              		.syntax unified
 870              	@ 493 "../../../ChibiOSRepo/chibios191/os/common/ext/ARM/CMSIS/Core/Include/cmsis_gcc.h" 1
 871 02d8 83F31188 		MSR basepri, r3
 872              	@ 0 "" 2
 873              	.LVL71:
 874              		.thumb
 875              		.syntax unified
 876 02dc E4E7     		b	.L61
 877              	.L71:
 878              	.LBE264:
 879              	.LBE263:
 880              	.LBE262:
 881              		.loc 5 374 0
 882 02de 0748     		ldr	r0, .L72+4
 883 02e0 FFF7FEFF 		bl	chSysHalt
 884              	.LVL72:
 885 02e4 F7E7     		b	.L63
 886              	.L69:
 887              	.LBE261:
 888              	.LBE260:
 889              	.LBE259:
 890              		.loc 1 330 0
 891 02e6 2046     		mov	r0, r4
 892 02e8 FFF7FEFF 		bl	ibqReleaseEmptyBufferS
 893              	.LVL73:
 894 02ec CCE7     		b	.L65
 895              	.L70:
 896              	.LBB265:
 897              	.LBB258:
 898              	.LBB257:
 899              		.loc 5 374 0
 900 02ee 0348     		ldr	r0, .L72+4
 901 02f0 FFF7FEFF 		bl	chSysHalt
 902              	.LVL74:
 903 02f4 D5E7     		b	.L66
 904              	.L73:
ARM GAS  C:\Users\RAKIBU~1\AppData\Local\Temp\ccxNJvic.s 			page 17


 905 02f6 00BF     		.align	2
 906              	.L72:
 907 02f8 00000000 		.word	ch
 908 02fc 40000000 		.word	.LANCHOR0+64
 909              	.LBE257:
 910              	.LBE258:
 911              	.LBE265:
 912              		.cfi_endproc
 913              	.LFE336:
 914              		.size	ibqGetTimeout, .-ibqGetTimeout
 915              		.align	1
 916              		.p2align 4,,15
 917              		.global	ibqReadTimeout
 918              		.syntax unified
 919              		.thumb
 920              		.thumb_func
 921              		.fpu softvfp
 922              		.type	ibqReadTimeout, %function
 923              	ibqReadTimeout:
 924              	.LFB337:
 925              		.loc 1 359 0
 926              		.cfi_startproc
 927              		@ args = 8, pretend = 0, frame = 0
 928              		@ frame_needed = 0, uses_anonymous_args = 0
 929              	.LVL75:
 930 0300 2DE9F041 		push	{r4, r5, r6, r7, r8, lr}
 931              		.cfi_def_cfa_offset 24
 932              		.cfi_offset 4, -24
 933              		.cfi_offset 5, -20
 934              		.cfi_offset 6, -16
 935              		.cfi_offset 7, -12
 936              		.cfi_offset 8, -8
 937              		.cfi_offset 14, -4
 938 0304 0446     		mov	r4, r0
 939 0306 0F46     		mov	r7, r1
 940              	.LVL76:
 941              		.loc 1 362 0
 942 0308 9046     		mov	r8, r2
 943 030a 42B1     		cbz	r2, .L87
 944              	.LVL77:
 945              	.L75:
 946              	.LBB294:
 947              	.LBB295:
 948              	.LBB296:
 949              	.LBB297:
 950              	.LBB298:
 951              	.LBB299:
 952              		.loc 4 493 0
 953 030c 2023     		movs	r3, #32
 954              		.syntax unified
 955              	@ 493 "../../../ChibiOSRepo/chibios191/os/common/ext/ARM/CMSIS/Core/Include/cmsis_gcc.h" 1
 956 030e 83F31188 		MSR basepri, r3
 957              	@ 0 "" 2
 958              	.LVL78:
 959              		.thumb
 960              		.syntax unified
 961              	.LBE299:
ARM GAS  C:\Users\RAKIBU~1\AppData\Local\Temp\ccxNJvic.s 			page 18


 962              	.LBE298:
 963              	.LBE297:
 964              		.loc 5 356 0
 965 0312 FFF7FEFF 		bl	_stats_start_measure_crit_thd
 966              	.LVL79:
 967              		.loc 5 357 0
 968 0316 FFF7FEFF 		bl	_dbg_check_lock
 969              	.LVL80:
 970              	.LBE296:
 971              	.LBE295:
 972              	.LBE294:
 973              		.loc 1 360 0
 974 031a 0026     		movs	r6, #0
 975 031c 47E0     		b	.L85
 976              	.LVL81:
 977              	.L87:
 978              		.loc 1 362 0 discriminator 2
 979 031e 3B48     		ldr	r0, .L92
 980              	.LVL82:
 981 0320 FFF7FEFF 		bl	chSysHalt
 982              	.LVL83:
 983 0324 F2E7     		b	.L75
 984              	.LVL84:
 985              	.L91:
 986              	.LBB300:
 987              	.LBB301:
 988              		.loc 1 374 0
 989 0326 DDE90623 		ldrd	r2, [sp, #24]
 990 032a 2046     		mov	r0, r4
 991 032c FFF7FEFF 		bl	ibqGetFullBufferTimeoutS
 992              	.LVL85:
 993              		.loc 1 377 0
 994 0330 0028     		cmp	r0, #0
 995 0332 3FD0     		beq	.L76
 996              	.LBB302:
 997              	.LBB303:
 998              	.LBB304:
 999              		.loc 5 367 0
 1000 0334 FFF7FEFF 		bl	_dbg_check_unlock
 1001              	.LVL86:
 1002              		.loc 5 368 0
 1003 0338 FFF7FEFF 		bl	_stats_stop_measure_crit_thd
 1004              	.LVL87:
 1005              		.loc 5 374 0
 1006 033c 344B     		ldr	r3, .L92+4
 1007 033e 1A68     		ldr	r2, [r3]
 1008 0340 9A42     		cmp	r2, r3
 1009 0342 04D0     		beq	.L77
 1010 0344 9B69     		ldr	r3, [r3, #24]
 1011 0346 9968     		ldr	r1, [r3, #8]
 1012 0348 9368     		ldr	r3, [r2, #8]
 1013 034a 9942     		cmp	r1, r3
 1014 034c 05D3     		bcc	.L88
 1015              	.L77:
 1016              	.LVL88:
 1017              	.LBB305:
 1018              	.LBB306:
ARM GAS  C:\Users\RAKIBU~1\AppData\Local\Temp\ccxNJvic.s 			page 19


 1019              	.LBB307:
 1020              		.loc 4 493 0
 1021 034e 0023     		movs	r3, #0
 1022              		.syntax unified
 1023              	@ 493 "../../../ChibiOSRepo/chibios191/os/common/ext/ARM/CMSIS/Core/Include/cmsis_gcc.h" 1
 1024 0350 83F31188 		MSR basepri, r3
 1025              	@ 0 "" 2
 1026              	.LVL89:
 1027              		.thumb
 1028              		.syntax unified
 1029              	.L74:
 1030              	.LBE307:
 1031              	.LBE306:
 1032              	.LBE305:
 1033              	.LBE304:
 1034              	.LBE303:
 1035              	.LBE302:
 1036              	.LBE301:
 1037              	.LBE300:
 1038              		.loc 1 417 0
 1039 0354 3046     		mov	r0, r6
 1040 0356 BDE8F081 		pop	{r4, r5, r6, r7, r8, pc}
 1041              	.LVL90:
 1042              	.L88:
 1043              	.LBB327:
 1044              	.LBB311:
 1045              	.LBB310:
 1046              	.LBB309:
 1047              	.LBB308:
 1048              		.loc 5 374 0
 1049 035a 2E48     		ldr	r0, .L92+8
 1050 035c FFF7FEFF 		bl	chSysHalt
 1051              	.LVL91:
 1052 0360 F5E7     		b	.L77
 1053              	.LVL92:
 1054              	.L80:
 1055              	.LBE308:
 1056              	.LBE309:
 1057              	.LBE310:
 1058              	.LBE311:
 1059              		.loc 1 399 0
 1060 0362 2A46     		mov	r2, r5
 1061 0364 3846     		mov	r0, r7
 1062 0366 FFF7FEFF 		bl	memcpy
 1063              	.LVL93:
 1064              		.loc 1 400 0
 1065 036a 2F44     		add	r7, r7, r5
 1066              	.LVL94:
 1067              		.loc 1 401 0
 1068 036c A36A     		ldr	r3, [r4, #40]
 1069 036e 2B44     		add	r3, r3, r5
 1070 0370 A362     		str	r3, [r4, #40]
 1071              		.loc 1 402 0
 1072 0372 2E44     		add	r6, r6, r5
 1073              	.LVL95:
 1074              	.L82:
 1075              		.loc 1 406 0
ARM GAS  C:\Users\RAKIBU~1\AppData\Local\Temp\ccxNJvic.s 			page 20


 1076 0374 A26A     		ldr	r2, [r4, #40]
 1077 0376 E36A     		ldr	r3, [r4, #44]
 1078 0378 9A42     		cmp	r2, r3
 1079 037a 3ED2     		bcs	.L89
 1080              	.L83:
 1081              	.LBB312:
 1082              	.LBB313:
 1083              	.LBB314:
 1084              		.loc 5 367 0
 1085 037c FFF7FEFF 		bl	_dbg_check_unlock
 1086              	.LVL96:
 1087              		.loc 5 368 0
 1088 0380 FFF7FEFF 		bl	_stats_stop_measure_crit_thd
 1089              	.LVL97:
 1090              		.loc 5 374 0
 1091 0384 224B     		ldr	r3, .L92+4
 1092 0386 1A68     		ldr	r2, [r3]
 1093 0388 9A42     		cmp	r2, r3
 1094 038a 04D0     		beq	.L84
 1095 038c 9B69     		ldr	r3, [r3, #24]
 1096 038e 9968     		ldr	r1, [r3, #8]
 1097 0390 9368     		ldr	r3, [r2, #8]
 1098 0392 9942     		cmp	r1, r3
 1099 0394 35D3     		bcc	.L90
 1100              	.L84:
 1101              	.LVL98:
 1102              	.LBB315:
 1103              	.LBB316:
 1104              	.LBB317:
 1105              		.loc 4 493 0
 1106 0396 0023     		movs	r3, #0
 1107              		.syntax unified
 1108              	@ 493 "../../../ChibiOSRepo/chibios191/os/common/ext/ARM/CMSIS/Core/Include/cmsis_gcc.h" 1
 1109 0398 83F31188 		MSR basepri, r3
 1110              	@ 0 "" 2
 1111              	.LVL99:
 1112              		.thumb
 1113              		.syntax unified
 1114              	.LBE317:
 1115              	.LBE316:
 1116              	.LBE315:
 1117              	.LBE314:
 1118              	.LBE313:
 1119              	.LBE312:
 1120              		.loc 1 412 0
 1121 039c 4645     		cmp	r6, r8
 1122 039e D9D2     		bcs	.L74
 1123              	.LVL100:
 1124              	.LBB320:
 1125              	.LBB321:
 1126              	.LBB322:
 1127              	.LBB323:
 1128              	.LBB324:
 1129              	.LBB325:
 1130              		.loc 4 493 0
 1131 03a0 2023     		movs	r3, #32
 1132              		.syntax unified
ARM GAS  C:\Users\RAKIBU~1\AppData\Local\Temp\ccxNJvic.s 			page 21


 1133              	@ 493 "../../../ChibiOSRepo/chibios191/os/common/ext/ARM/CMSIS/Core/Include/cmsis_gcc.h" 1
 1134 03a2 83F31188 		MSR basepri, r3
 1135              	@ 0 "" 2
 1136              	.LVL101:
 1137              		.thumb
 1138              		.syntax unified
 1139              	.LBE325:
 1140              	.LBE324:
 1141              	.LBE323:
 1142              		.loc 5 356 0
 1143 03a6 FFF7FEFF 		bl	_stats_start_measure_crit_thd
 1144              	.LVL102:
 1145              		.loc 5 357 0
 1146 03aa FFF7FEFF 		bl	_dbg_check_lock
 1147              	.LVL103:
 1148              	.L85:
 1149              	.LBE322:
 1150              	.LBE321:
 1151              	.LBE320:
 1152              		.loc 1 370 0
 1153 03ae A36A     		ldr	r3, [r4, #40]
 1154 03b0 002B     		cmp	r3, #0
 1155 03b2 B8D0     		beq	.L91
 1156              	.L76:
 1157              		.loc 1 384 0
 1158 03b4 E36A     		ldr	r3, [r4, #44]
 1159 03b6 A16A     		ldr	r1, [r4, #40]
 1160 03b8 5B1A     		subs	r3, r3, r1
 1161              	.LVL104:
 1162              		.loc 1 385 0
 1163 03ba A8EB0605 		sub	r5, r8, r6
 1164 03be 9D42     		cmp	r5, r3
 1165 03c0 00D3     		bcc	.L79
 1166              		.loc 1 384 0
 1167 03c2 1D46     		mov	r5, r3
 1168              	.L79:
 1169              	.LVL105:
 1170              		.loc 1 391 0
 1171 03c4 402D     		cmp	r5, #64
 1172 03c6 CCD9     		bls	.L80
 1173              		.loc 1 393 0
 1174 03c8 0B46     		mov	r3, r1
 1175 03ca 3A46     		mov	r2, r7
 1176 03cc 4031     		adds	r1, r1, #64
 1177              	.LVL106:
 1178              	.L81:
 1179 03ce D3F800E0 		ldr	lr, [r3]	@ unaligned
 1180 03d2 D3F804C0 		ldr	ip, [r3, #4]	@ unaligned
 1181 03d6 9D68     		ldr	r5, [r3, #8]	@ unaligned
 1182 03d8 D868     		ldr	r0, [r3, #12]	@ unaligned
 1183 03da C2F800E0 		str	lr, [r2]	@ unaligned
 1184 03de C2F804C0 		str	ip, [r2, #4]	@ unaligned
 1185 03e2 9560     		str	r5, [r2, #8]	@ unaligned
 1186 03e4 D060     		str	r0, [r2, #12]	@ unaligned
 1187 03e6 1033     		adds	r3, r3, #16
 1188 03e8 1032     		adds	r2, r2, #16
 1189 03ea 8B42     		cmp	r3, r1
ARM GAS  C:\Users\RAKIBU~1\AppData\Local\Temp\ccxNJvic.s 			page 22


 1190 03ec EFD1     		bne	.L81
 1191              		.loc 1 394 0
 1192 03ee 4037     		adds	r7, r7, #64
 1193              	.LVL107:
 1194              		.loc 1 395 0
 1195 03f0 A36A     		ldr	r3, [r4, #40]
 1196 03f2 4033     		adds	r3, r3, #64
 1197 03f4 A362     		str	r3, [r4, #40]
 1198              		.loc 1 396 0
 1199 03f6 4036     		adds	r6, r6, #64
 1200              	.LVL108:
 1201 03f8 BCE7     		b	.L82
 1202              	.L89:
 1203              		.loc 1 407 0
 1204 03fa 2046     		mov	r0, r4
 1205 03fc FFF7FEFF 		bl	ibqReleaseEmptyBufferS
 1206              	.LVL109:
 1207 0400 BCE7     		b	.L83
 1208              	.L90:
 1209              	.LBB326:
 1210              	.LBB319:
 1211              	.LBB318:
 1212              		.loc 5 374 0
 1213 0402 0448     		ldr	r0, .L92+8
 1214 0404 FFF7FEFF 		bl	chSysHalt
 1215              	.LVL110:
 1216 0408 C5E7     		b	.L84
 1217              	.L93:
 1218 040a 00BF     		.align	2
 1219              	.L92:
 1220 040c 64000000 		.word	.LANCHOR0+100
 1221 0410 00000000 		.word	ch
 1222 0414 40000000 		.word	.LANCHOR0+64
 1223              	.LBE318:
 1224              	.LBE319:
 1225              	.LBE326:
 1226              	.LBE327:
 1227              		.cfi_endproc
 1228              	.LFE337:
 1229              		.size	ibqReadTimeout, .-ibqReadTimeout
 1230              		.align	1
 1231 0418 AFF30080 		.p2align 4,,15
 1231      AFF30080 
 1232              		.global	obqObjectInit
 1233              		.syntax unified
 1234              		.thumb
 1235              		.thumb_func
 1236              		.fpu softvfp
 1237              		.type	obqObjectInit, %function
 1238              	obqObjectInit:
 1239              	.LFB338:
 1240              		.loc 1 433 0
 1241              		.cfi_startproc
 1242              		@ args = 12, pretend = 0, frame = 0
 1243              		@ frame_needed = 0, uses_anonymous_args = 0
 1244              	.LVL111:
 1245 0420 2DE9F041 		push	{r4, r5, r6, r7, r8, lr}
ARM GAS  C:\Users\RAKIBU~1\AppData\Local\Temp\ccxNJvic.s 			page 23


 1246              		.cfi_def_cfa_offset 24
 1247              		.cfi_offset 4, -24
 1248              		.cfi_offset 5, -20
 1249              		.cfi_offset 6, -16
 1250              		.cfi_offset 7, -12
 1251              		.cfi_offset 8, -8
 1252              		.cfi_offset 14, -4
 1253 0424 8846     		mov	r8, r1
 1254 0426 1546     		mov	r5, r2
 1255 0428 1E46     		mov	r6, r3
 1256 042a 069F     		ldr	r7, [sp, #24]
 1257              		.loc 1 435 0
 1258 042c 0446     		mov	r4, r0
 1259 042e 10B1     		cbz	r0, .L95
 1260              		.loc 1 435 0 is_stmt 0 discriminator 3
 1261 0430 0AB1     		cbz	r2, .L95
 1262              		.loc 1 435 0 discriminator 5
 1263 0432 012B     		cmp	r3, #1
 1264 0434 02D8     		bhi	.L96
 1265              	.L95:
 1266              		.loc 1 435 0 discriminator 6
 1267 0436 0D48     		ldr	r0, .L98
 1268              	.LVL112:
 1269 0438 FFF7FEFF 		bl	chSysHalt
 1270              	.LVL113:
 1271              	.L96:
 1272              	.LBB328:
 1273              	.LBB329:
 1274              	.LBB330:
 1275              	.LBB331:
 1276              		.loc 2 539 0 is_stmt 1
 1277 043c 2460     		str	r4, [r4]
 1278              		.loc 2 540 0
 1279 043e 6460     		str	r4, [r4, #4]
 1280              	.LVL114:
 1281              	.LBE331:
 1282              	.LBE330:
 1283              	.LBE329:
 1284              	.LBE328:
 1285              		.loc 1 438 0
 1286 0440 84F80880 		strb	r8, [r4, #8]
 1287              		.loc 1 439 0
 1288 0444 E760     		str	r7, [r4, #12]
 1289              		.loc 1 440 0
 1290 0446 6561     		str	r5, [r4, #20]
 1291              		.loc 1 441 0
 1292 0448 2561     		str	r5, [r4, #16]
 1293              		.loc 1 442 0
 1294 044a 0436     		adds	r6, r6, #4
 1295              	.LVL115:
 1296 044c 07FB0652 		mla	r2, r7, r6, r5
 1297 0450 A261     		str	r2, [r4, #24]
 1298              		.loc 1 443 0
 1299 0452 E661     		str	r6, [r4, #28]
 1300              		.loc 1 444 0
 1301 0454 2762     		str	r7, [r4, #32]
 1302              		.loc 1 445 0
ARM GAS  C:\Users\RAKIBU~1\AppData\Local\Temp\ccxNJvic.s 			page 24


 1303 0456 6562     		str	r5, [r4, #36]
 1304              		.loc 1 446 0
 1305 0458 0023     		movs	r3, #0
 1306 045a A362     		str	r3, [r4, #40]
 1307              		.loc 1 447 0
 1308 045c E362     		str	r3, [r4, #44]
 1309              		.loc 1 448 0
 1310 045e 079B     		ldr	r3, [sp, #28]
 1311 0460 2363     		str	r3, [r4, #48]
 1312              		.loc 1 449 0
 1313 0462 089B     		ldr	r3, [sp, #32]
 1314 0464 6363     		str	r3, [r4, #52]
 1315              		.loc 1 450 0
 1316 0466 BDE8F081 		pop	{r4, r5, r6, r7, r8, pc}
 1317              	.LVL116:
 1318              	.L99:
 1319 046a 00BF     		.align	2
 1320              	.L98:
 1321 046c 74000000 		.word	.LANCHOR0+116
 1322              		.cfi_endproc
 1323              	.LFE338:
 1324              		.size	obqObjectInit, .-obqObjectInit
 1325              		.align	1
 1326              		.p2align 4,,15
 1327              		.global	obqResetI
 1328              		.syntax unified
 1329              		.thumb
 1330              		.thumb_func
 1331              		.fpu softvfp
 1332              		.type	obqResetI, %function
 1333              	obqResetI:
 1334              	.LFB339:
 1335              		.loc 1 463 0
 1336              		.cfi_startproc
 1337              		@ args = 0, pretend = 0, frame = 0
 1338              		@ frame_needed = 0, uses_anonymous_args = 0
 1339              	.LVL117:
 1340 0470 10B5     		push	{r4, lr}
 1341              		.cfi_def_cfa_offset 8
 1342              		.cfi_offset 4, -8
 1343              		.cfi_offset 14, -4
 1344 0472 0446     		mov	r4, r0
 1345              		.loc 1 465 0
 1346 0474 FFF7FEFF 		bl	chDbgCheckClassI
 1347              	.LVL118:
 1348              		.loc 1 467 0
 1349 0478 236A     		ldr	r3, [r4, #32]
 1350 047a E360     		str	r3, [r4, #12]
 1351              		.loc 1 468 0
 1352 047c 636A     		ldr	r3, [r4, #36]
 1353 047e 6361     		str	r3, [r4, #20]
 1354              		.loc 1 469 0
 1355 0480 2361     		str	r3, [r4, #16]
 1356              		.loc 1 470 0
 1357 0482 0023     		movs	r3, #0
 1358 0484 A362     		str	r3, [r4, #40]
 1359              		.loc 1 471 0
ARM GAS  C:\Users\RAKIBU~1\AppData\Local\Temp\ccxNJvic.s 			page 25


 1360 0486 E362     		str	r3, [r4, #44]
 1361              	.LVL119:
 1362              	.LBB332:
 1363              	.LBB333:
 1364              		.loc 3 857 0
 1365 0488 6FF00101 		mvn	r1, #1
 1366 048c 2046     		mov	r0, r4
 1367 048e FFF7FEFF 		bl	chThdDequeueAllI
 1368              	.LVL120:
 1369              	.LBE333:
 1370              	.LBE332:
 1371              		.loc 1 473 0
 1372 0492 10BD     		pop	{r4, pc}
 1373              		.cfi_endproc
 1374              	.LFE339:
 1375              		.size	obqResetI, .-obqResetI
 1376              		.align	1
 1377 0494 AFF30080 		.p2align 4,,15
 1377      AFF30080 
 1377      AFF30080 
 1378              		.global	obqGetFullBufferI
 1379              		.syntax unified
 1380              		.thumb
 1381              		.thumb_func
 1382              		.fpu softvfp
 1383              		.type	obqGetFullBufferI, %function
 1384              	obqGetFullBufferI:
 1385              	.LFB340:
 1386              		.loc 1 487 0
 1387              		.cfi_startproc
 1388              		@ args = 0, pretend = 0, frame = 0
 1389              		@ frame_needed = 0, uses_anonymous_args = 0
 1390              	.LVL121:
 1391 04a0 38B5     		push	{r3, r4, r5, lr}
 1392              		.cfi_def_cfa_offset 16
 1393              		.cfi_offset 3, -16
 1394              		.cfi_offset 4, -12
 1395              		.cfi_offset 5, -8
 1396              		.cfi_offset 14, -4
 1397 04a2 0446     		mov	r4, r0
 1398 04a4 0D46     		mov	r5, r1
 1399              		.loc 1 489 0
 1400 04a6 FFF7FEFF 		bl	chDbgCheckClassI
 1401              	.LVL122:
 1402              		.loc 1 491 0
 1403 04aa 2269     		ldr	r2, [r4, #16]
 1404 04ac 6369     		ldr	r3, [r4, #20]
 1405 04ae 9A42     		cmp	r2, r3
 1406 04b0 06D0     		beq	.L109
 1407 04b2 0022     		movs	r2, #0
 1408              	.L103:
 1409              		.loc 1 491 0 is_stmt 0 discriminator 6
 1410 04b4 4AB9     		cbnz	r2, .L107
 1411              		.loc 1 496 0 is_stmt 1
 1412 04b6 1B68     		ldr	r3, [r3]
 1413 04b8 2B60     		str	r3, [r5]
 1414              		.loc 1 498 0
ARM GAS  C:\Users\RAKIBU~1\AppData\Local\Temp\ccxNJvic.s 			page 26


 1415 04ba 6069     		ldr	r0, [r4, #20]
 1416 04bc 0430     		adds	r0, r0, #4
 1417              	.L102:
 1418              		.loc 1 499 0
 1419 04be 38BD     		pop	{r3, r4, r5, pc}
 1420              	.LVL123:
 1421              	.L109:
 1422              		.loc 1 491 0 discriminator 1
 1423 04c0 E268     		ldr	r2, [r4, #12]
 1424 04c2 002A     		cmp	r2, #0
 1425 04c4 F6D0     		beq	.L103
 1426              		.loc 1 491 0 is_stmt 0
 1427 04c6 0122     		movs	r2, #1
 1428 04c8 F4E7     		b	.L103
 1429              	.L107:
 1430              		.loc 1 492 0 is_stmt 1
 1431 04ca 0020     		movs	r0, #0
 1432 04cc F7E7     		b	.L102
 1433              		.cfi_endproc
 1434              	.LFE340:
 1435              		.size	obqGetFullBufferI, .-obqGetFullBufferI
 1436              		.align	1
 1437 04ce 00BF     		.p2align 4,,15
 1438              		.global	obqReleaseEmptyBufferI
 1439              		.syntax unified
 1440              		.thumb
 1441              		.thumb_func
 1442              		.fpu softvfp
 1443              		.type	obqReleaseEmptyBufferI, %function
 1444              	obqReleaseEmptyBufferI:
 1445              	.LFB341:
 1446              		.loc 1 508 0
 1447              		.cfi_startproc
 1448              		@ args = 0, pretend = 0, frame = 0
 1449              		@ frame_needed = 0, uses_anonymous_args = 0
 1450              	.LVL124:
 1451 04d0 10B5     		push	{r4, lr}
 1452              		.cfi_def_cfa_offset 8
 1453              		.cfi_offset 4, -8
 1454              		.cfi_offset 14, -4
 1455 04d2 0446     		mov	r4, r0
 1456              		.loc 1 510 0
 1457 04d4 FFF7FEFF 		bl	chDbgCheckClassI
 1458              	.LVL125:
 1459              		.loc 1 511 0
 1460 04d8 2269     		ldr	r2, [r4, #16]
 1461 04da 6369     		ldr	r3, [r4, #20]
 1462 04dc 9A42     		cmp	r2, r3
 1463 04de 12D0     		beq	.L117
 1464 04e0 0023     		movs	r3, #0
 1465              	.L111:
 1466              		.loc 1 511 0 is_stmt 0 discriminator 7
 1467 04e2 ABB9     		cbnz	r3, .L118
 1468              	.L112:
 1469              		.loc 1 514 0 is_stmt 1
 1470 04e4 E368     		ldr	r3, [r4, #12]
 1471 04e6 0133     		adds	r3, r3, #1
ARM GAS  C:\Users\RAKIBU~1\AppData\Local\Temp\ccxNJvic.s 			page 27


 1472 04e8 E360     		str	r3, [r4, #12]
 1473              		.loc 1 515 0
 1474 04ea E269     		ldr	r2, [r4, #28]
 1475 04ec 6369     		ldr	r3, [r4, #20]
 1476 04ee 1344     		add	r3, r3, r2
 1477 04f0 6361     		str	r3, [r4, #20]
 1478              		.loc 1 516 0
 1479 04f2 A269     		ldr	r2, [r4, #24]
 1480 04f4 9342     		cmp	r3, r2
 1481 04f6 01D3     		bcc	.L113
 1482              		.loc 1 517 0
 1483 04f8 636A     		ldr	r3, [r4, #36]
 1484 04fa 6361     		str	r3, [r4, #20]
 1485              	.L113:
 1486              	.LVL126:
 1487              	.LBB334:
 1488              	.LBB335:
 1489              		.loc 3 844 0
 1490 04fc 0021     		movs	r1, #0
 1491 04fe 2046     		mov	r0, r4
 1492 0500 FFF7FEFF 		bl	chThdDequeueNextI
 1493              	.LVL127:
 1494              	.LBE335:
 1495              	.LBE334:
 1496              		.loc 1 522 0
 1497 0504 10BD     		pop	{r4, pc}
 1498              	.LVL128:
 1499              	.L117:
 1500              		.loc 1 511 0 discriminator 2
 1501 0506 E368     		ldr	r3, [r4, #12]
 1502 0508 002B     		cmp	r3, #0
 1503 050a EAD0     		beq	.L111
 1504              		.loc 1 511 0 is_stmt 0
 1505 050c 0123     		movs	r3, #1
 1506 050e E8E7     		b	.L111
 1507              	.L118:
 1508              		.loc 1 511 0 discriminator 8
 1509 0510 0148     		ldr	r0, .L119
 1510 0512 FFF7FEFF 		bl	chSysHalt
 1511              	.LVL129:
 1512 0516 E5E7     		b	.L112
 1513              	.L120:
 1514              		.align	2
 1515              	.L119:
 1516 0518 84000000 		.word	.LANCHOR0+132
 1517              		.cfi_endproc
 1518              	.LFE341:
 1519              		.size	obqReleaseEmptyBufferI, .-obqReleaseEmptyBufferI
 1520              		.align	1
 1521 051c AFF30080 		.p2align 4,,15
 1522              		.global	obqGetEmptyBufferTimeoutS
 1523              		.syntax unified
 1524              		.thumb
 1525              		.thumb_func
 1526              		.fpu softvfp
 1527              		.type	obqGetEmptyBufferTimeoutS, %function
 1528              	obqGetEmptyBufferTimeoutS:
ARM GAS  C:\Users\RAKIBU~1\AppData\Local\Temp\ccxNJvic.s 			page 28


 1529              	.LFB343:
 1530              		.loc 1 578 0 is_stmt 1
 1531              		.cfi_startproc
 1532              		@ args = 0, pretend = 0, frame = 0
 1533              		@ frame_needed = 0, uses_anonymous_args = 0
 1534              	.LVL130:
 1535 0520 D0B5     		push	{r4, r6, r7, lr}
 1536              		.cfi_def_cfa_offset 16
 1537              		.cfi_offset 4, -16
 1538              		.cfi_offset 6, -12
 1539              		.cfi_offset 7, -8
 1540              		.cfi_offset 14, -4
 1541 0522 0446     		mov	r4, r0
 1542 0524 1646     		mov	r6, r2
 1543 0526 1F46     		mov	r7, r3
 1544              		.loc 1 580 0
 1545 0528 FFF7FEFF 		bl	chDbgCheckClassS
 1546              	.LVL131:
 1547              	.L122:
 1548              		.loc 1 582 0
 1549 052c E368     		ldr	r3, [r4, #12]
 1550 052e 4BB9     		cbnz	r3, .L128
 1551              	.LBB336:
 1552              		.loc 1 583 0
 1553 0530 237A     		ldrb	r3, [r4, #8]	@ zero_extendqisi2
 1554 0532 ABB9     		cbnz	r3, .L126
 1555              	.LVL132:
 1556              	.LBB337:
 1557              	.LBB338:
 1558              		.loc 3 831 0
 1559 0534 3246     		mov	r2, r6
 1560 0536 3B46     		mov	r3, r7
 1561 0538 2046     		mov	r0, r4
 1562 053a FFF7FEFF 		bl	chThdEnqueueTimeoutS
 1563              	.LVL133:
 1564              	.LBE338:
 1565              	.LBE337:
 1566              		.loc 1 587 0
 1567 053e 0028     		cmp	r0, #0
 1568 0540 F4DA     		bge	.L122
 1569 0542 08E0     		b	.L121
 1570              	.L128:
 1571              	.LBE336:
 1572              		.loc 1 592 0 discriminator 1
 1573 0544 E368     		ldr	r3, [r4, #12]
 1574 0546 3BB1     		cbz	r3, .L129
 1575              	.L125:
 1576              		.loc 1 595 0
 1577 0548 2369     		ldr	r3, [r4, #16]
 1578 054a 1A1D     		adds	r2, r3, #4
 1579 054c A262     		str	r2, [r4, #40]
 1580              		.loc 1 596 0
 1581 054e E269     		ldr	r2, [r4, #28]
 1582 0550 1344     		add	r3, r3, r2
 1583 0552 E362     		str	r3, [r4, #44]
 1584              		.loc 1 598 0
 1585 0554 0020     		movs	r0, #0
ARM GAS  C:\Users\RAKIBU~1\AppData\Local\Temp\ccxNJvic.s 			page 29


 1586              	.L121:
 1587              		.loc 1 599 0
 1588 0556 D0BD     		pop	{r4, r6, r7, pc}
 1589              	.LVL134:
 1590              	.L129:
 1591              		.loc 1 592 0 discriminator 2
 1592 0558 0348     		ldr	r0, .L130
 1593 055a FFF7FEFF 		bl	chSysHalt
 1594              	.LVL135:
 1595 055e F3E7     		b	.L125
 1596              	.L126:
 1597              	.LBB339:
 1598              		.loc 1 584 0
 1599 0560 6FF00100 		mvn	r0, #1
 1600 0564 F7E7     		b	.L121
 1601              	.L131:
 1602 0566 00BF     		.align	2
 1603              	.L130:
 1604 0568 9C000000 		.word	.LANCHOR0+156
 1605              	.LBE339:
 1606              		.cfi_endproc
 1607              	.LFE343:
 1608              		.size	obqGetEmptyBufferTimeoutS, .-obqGetEmptyBufferTimeoutS
 1609              		.align	1
 1610 056c AFF30080 		.p2align 4,,15
 1611              		.global	obqGetEmptyBufferTimeout
 1612              		.syntax unified
 1613              		.thumb
 1614              		.thumb_func
 1615              		.fpu softvfp
 1616              		.type	obqGetEmptyBufferTimeout, %function
 1617              	obqGetEmptyBufferTimeout:
 1618              	.LFB342:
 1619              		.loc 1 546 0
 1620              		.cfi_startproc
 1621              		@ args = 0, pretend = 0, frame = 0
 1622              		@ frame_needed = 0, uses_anonymous_args = 0
 1623              	.LVL136:
 1624 0570 D0B5     		push	{r4, r6, r7, lr}
 1625              		.cfi_def_cfa_offset 16
 1626              		.cfi_offset 4, -16
 1627              		.cfi_offset 6, -12
 1628              		.cfi_offset 7, -8
 1629              		.cfi_offset 14, -4
 1630 0572 0446     		mov	r4, r0
 1631 0574 1646     		mov	r6, r2
 1632 0576 1F46     		mov	r7, r3
 1633              	.LVL137:
 1634              	.LBB353:
 1635              	.LBB354:
 1636              	.LBB355:
 1637              	.LBB356:
 1638              	.LBB357:
 1639              	.LBB358:
 1640              		.loc 4 493 0
 1641 0578 2023     		movs	r3, #32
 1642              		.syntax unified
ARM GAS  C:\Users\RAKIBU~1\AppData\Local\Temp\ccxNJvic.s 			page 30


 1643              	@ 493 "../../../ChibiOSRepo/chibios191/os/common/ext/ARM/CMSIS/Core/Include/cmsis_gcc.h" 1
 1644 057a 83F31188 		MSR basepri, r3
 1645              	@ 0 "" 2
 1646              	.LVL138:
 1647              		.thumb
 1648              		.syntax unified
 1649              	.LBE358:
 1650              	.LBE357:
 1651              	.LBE356:
 1652              		.loc 5 356 0
 1653 057e FFF7FEFF 		bl	_stats_start_measure_crit_thd
 1654              	.LVL139:
 1655              		.loc 5 357 0
 1656 0582 FFF7FEFF 		bl	_dbg_check_lock
 1657              	.LVL140:
 1658              	.LBE355:
 1659              	.LBE354:
 1660              	.LBE353:
 1661              		.loc 1 550 0
 1662 0586 3246     		mov	r2, r6
 1663 0588 3B46     		mov	r3, r7
 1664 058a 2046     		mov	r0, r4
 1665 058c FFF7FEFF 		bl	obqGetEmptyBufferTimeoutS
 1666              	.LVL141:
 1667 0590 0446     		mov	r4, r0
 1668              	.LVL142:
 1669              	.LBB359:
 1670              	.LBB360:
 1671              	.LBB361:
 1672              		.loc 5 367 0
 1673 0592 FFF7FEFF 		bl	_dbg_check_unlock
 1674              	.LVL143:
 1675              		.loc 5 368 0
 1676 0596 FFF7FEFF 		bl	_stats_stop_measure_crit_thd
 1677              	.LVL144:
 1678              		.loc 5 374 0
 1679 059a 094B     		ldr	r3, .L136
 1680 059c 1A68     		ldr	r2, [r3]
 1681 059e 9A42     		cmp	r2, r3
 1682 05a0 04D0     		beq	.L133
 1683 05a2 9B69     		ldr	r3, [r3, #24]
 1684 05a4 9968     		ldr	r1, [r3, #8]
 1685 05a6 9368     		ldr	r3, [r2, #8]
 1686 05a8 9942     		cmp	r1, r3
 1687 05aa 04D3     		bcc	.L135
 1688              	.L133:
 1689              	.LVL145:
 1690              	.LBB362:
 1691              	.LBB363:
 1692              	.LBB364:
 1693              		.loc 4 493 0
 1694 05ac 0023     		movs	r3, #0
 1695              		.syntax unified
 1696              	@ 493 "../../../ChibiOSRepo/chibios191/os/common/ext/ARM/CMSIS/Core/Include/cmsis_gcc.h" 1
 1697 05ae 83F31188 		MSR basepri, r3
 1698              	@ 0 "" 2
 1699              	.LVL146:
ARM GAS  C:\Users\RAKIBU~1\AppData\Local\Temp\ccxNJvic.s 			page 31


 1700              		.thumb
 1701              		.syntax unified
 1702              	.LBE364:
 1703              	.LBE363:
 1704              	.LBE362:
 1705              	.LBE361:
 1706              	.LBE360:
 1707              	.LBE359:
 1708              		.loc 1 554 0
 1709 05b2 2046     		mov	r0, r4
 1710 05b4 D0BD     		pop	{r4, r6, r7, pc}
 1711              	.LVL147:
 1712              	.L135:
 1713              	.LBB367:
 1714              	.LBB366:
 1715              	.LBB365:
 1716              		.loc 5 374 0
 1717 05b6 0348     		ldr	r0, .L136+4
 1718 05b8 FFF7FEFF 		bl	chSysHalt
 1719              	.LVL148:
 1720 05bc F6E7     		b	.L133
 1721              	.L137:
 1722 05be 00BF     		.align	2
 1723              	.L136:
 1724 05c0 00000000 		.word	ch
 1725 05c4 40000000 		.word	.LANCHOR0+64
 1726              	.LBE365:
 1727              	.LBE366:
 1728              	.LBE367:
 1729              		.cfi_endproc
 1730              	.LFE342:
 1731              		.size	obqGetEmptyBufferTimeout, .-obqGetEmptyBufferTimeout
 1732              		.align	1
 1733 05c8 AFF30080 		.p2align 4,,15
 1733      AFF30080 
 1734              		.global	obqPostFullBufferS
 1735              		.syntax unified
 1736              		.thumb
 1737              		.thumb_func
 1738              		.fpu softvfp
 1739              		.type	obqPostFullBufferS, %function
 1740              	obqPostFullBufferS:
 1741              	.LFB345:
 1742              		.loc 1 626 0
 1743              		.cfi_startproc
 1744              		@ args = 0, pretend = 0, frame = 0
 1745              		@ frame_needed = 0, uses_anonymous_args = 0
 1746              	.LVL149:
 1747 05d0 38B5     		push	{r3, r4, r5, lr}
 1748              		.cfi_def_cfa_offset 16
 1749              		.cfi_offset 3, -16
 1750              		.cfi_offset 4, -12
 1751              		.cfi_offset 5, -8
 1752              		.cfi_offset 14, -4
 1753 05d2 0446     		mov	r4, r0
 1754 05d4 0D46     		mov	r5, r1
 1755              		.loc 1 628 0
ARM GAS  C:\Users\RAKIBU~1\AppData\Local\Temp\ccxNJvic.s 			page 32


 1756 05d6 FFF7FEFF 		bl	chDbgCheckClassS
 1757              	.LVL150:
 1758              		.loc 1 629 0
 1759 05da 1DB1     		cbz	r5, .L139
 1760              		.loc 1 629 0 is_stmt 0 discriminator 3
 1761 05dc E369     		ldr	r3, [r4, #28]
 1762 05de 043B     		subs	r3, r3, #4
 1763 05e0 AB42     		cmp	r3, r5
 1764 05e2 02D2     		bcs	.L140
 1765              	.L139:
 1766              		.loc 1 629 0 discriminator 4
 1767 05e4 0E48     		ldr	r0, .L146
 1768 05e6 FFF7FEFF 		bl	chSysHalt
 1769              	.LVL151:
 1770              	.L140:
 1771              		.loc 1 630 0 is_stmt 1 discriminator 1
 1772 05ea E368     		ldr	r3, [r4, #12]
 1773 05ec A3B1     		cbz	r3, .L145
 1774              	.L141:
 1775              		.loc 1 633 0
 1776 05ee 2369     		ldr	r3, [r4, #16]
 1777 05f0 1D60     		str	r5, [r3]
 1778              		.loc 1 636 0
 1779 05f2 E368     		ldr	r3, [r4, #12]
 1780 05f4 013B     		subs	r3, r3, #1
 1781 05f6 E360     		str	r3, [r4, #12]
 1782              		.loc 1 637 0
 1783 05f8 E269     		ldr	r2, [r4, #28]
 1784 05fa 2369     		ldr	r3, [r4, #16]
 1785 05fc 1344     		add	r3, r3, r2
 1786 05fe 2361     		str	r3, [r4, #16]
 1787              		.loc 1 638 0
 1788 0600 A269     		ldr	r2, [r4, #24]
 1789 0602 9342     		cmp	r3, r2
 1790 0604 01D3     		bcc	.L142
 1791              		.loc 1 639 0
 1792 0606 636A     		ldr	r3, [r4, #36]
 1793 0608 2361     		str	r3, [r4, #16]
 1794              	.L142:
 1795              		.loc 1 643 0
 1796 060a 0023     		movs	r3, #0
 1797 060c A362     		str	r3, [r4, #40]
 1798              		.loc 1 646 0
 1799 060e 236B     		ldr	r3, [r4, #48]
 1800 0610 0BB1     		cbz	r3, .L138
 1801              		.loc 1 647 0
 1802 0612 2046     		mov	r0, r4
 1803 0614 9847     		blx	r3
 1804              	.LVL152:
 1805              	.L138:
 1806              		.loc 1 649 0
 1807 0616 38BD     		pop	{r3, r4, r5, pc}
 1808              	.LVL153:
 1809              	.L145:
 1810              		.loc 1 630 0 discriminator 2
 1811 0618 0148     		ldr	r0, .L146
 1812 061a FFF7FEFF 		bl	chSysHalt
ARM GAS  C:\Users\RAKIBU~1\AppData\Local\Temp\ccxNJvic.s 			page 33


 1813              	.LVL154:
 1814 061e E6E7     		b	.L141
 1815              	.L147:
 1816              		.align	2
 1817              	.L146:
 1818 0620 B8000000 		.word	.LANCHOR0+184
 1819              		.cfi_endproc
 1820              	.LFE345:
 1821              		.size	obqPostFullBufferS, .-obqPostFullBufferS
 1822              		.align	1
 1823 0624 AFF30080 		.p2align 4,,15
 1823      AFF30080 
 1823      AFF30080 
 1824              		.global	obqPostFullBuffer
 1825              		.syntax unified
 1826              		.thumb
 1827              		.thumb_func
 1828              		.fpu softvfp
 1829              		.type	obqPostFullBuffer, %function
 1830              	obqPostFullBuffer:
 1831              	.LFB344:
 1832              		.loc 1 610 0
 1833              		.cfi_startproc
 1834              		@ args = 0, pretend = 0, frame = 0
 1835              		@ frame_needed = 0, uses_anonymous_args = 0
 1836              	.LVL155:
 1837 0630 38B5     		push	{r3, r4, r5, lr}
 1838              		.cfi_def_cfa_offset 16
 1839              		.cfi_offset 3, -16
 1840              		.cfi_offset 4, -12
 1841              		.cfi_offset 5, -8
 1842              		.cfi_offset 14, -4
 1843 0632 0446     		mov	r4, r0
 1844 0634 0D46     		mov	r5, r1
 1845              	.LVL156:
 1846              	.LBB381:
 1847              	.LBB382:
 1848              	.LBB383:
 1849              	.LBB384:
 1850              	.LBB385:
 1851              	.LBB386:
 1852              		.loc 4 493 0
 1853 0636 2023     		movs	r3, #32
 1854              		.syntax unified
 1855              	@ 493 "../../../ChibiOSRepo/chibios191/os/common/ext/ARM/CMSIS/Core/Include/cmsis_gcc.h" 1
 1856 0638 83F31188 		MSR basepri, r3
 1857              	@ 0 "" 2
 1858              	.LVL157:
 1859              		.thumb
 1860              		.syntax unified
 1861              	.LBE386:
 1862              	.LBE385:
 1863              	.LBE384:
 1864              		.loc 5 356 0
 1865 063c FFF7FEFF 		bl	_stats_start_measure_crit_thd
 1866              	.LVL158:
 1867              		.loc 5 357 0
ARM GAS  C:\Users\RAKIBU~1\AppData\Local\Temp\ccxNJvic.s 			page 34


 1868 0640 FFF7FEFF 		bl	_dbg_check_lock
 1869              	.LVL159:
 1870              	.LBE383:
 1871              	.LBE382:
 1872              	.LBE381:
 1873              		.loc 1 613 0
 1874 0644 2946     		mov	r1, r5
 1875 0646 2046     		mov	r0, r4
 1876 0648 FFF7FEFF 		bl	obqPostFullBufferS
 1877              	.LVL160:
 1878              	.LBB387:
 1879              	.LBB388:
 1880              	.LBB389:
 1881              		.loc 5 367 0
 1882 064c FFF7FEFF 		bl	_dbg_check_unlock
 1883              	.LVL161:
 1884              		.loc 5 368 0
 1885 0650 FFF7FEFF 		bl	_stats_stop_measure_crit_thd
 1886              	.LVL162:
 1887              		.loc 5 374 0
 1888 0654 084B     		ldr	r3, .L152
 1889 0656 1A68     		ldr	r2, [r3]
 1890 0658 9A42     		cmp	r2, r3
 1891 065a 04D0     		beq	.L149
 1892 065c 9B69     		ldr	r3, [r3, #24]
 1893 065e 9968     		ldr	r1, [r3, #8]
 1894 0660 9368     		ldr	r3, [r2, #8]
 1895 0662 9942     		cmp	r1, r3
 1896 0664 03D3     		bcc	.L151
 1897              	.L149:
 1898              	.LVL163:
 1899              	.LBB390:
 1900              	.LBB391:
 1901              	.LBB392:
 1902              		.loc 4 493 0
 1903 0666 0023     		movs	r3, #0
 1904              		.syntax unified
 1905              	@ 493 "../../../ChibiOSRepo/chibios191/os/common/ext/ARM/CMSIS/Core/Include/cmsis_gcc.h" 1
 1906 0668 83F31188 		MSR basepri, r3
 1907              	@ 0 "" 2
 1908              	.LVL164:
 1909              		.thumb
 1910              		.syntax unified
 1911              	.LBE392:
 1912              	.LBE391:
 1913              	.LBE390:
 1914              	.LBE389:
 1915              	.LBE388:
 1916              	.LBE387:
 1917              		.loc 1 615 0
 1918 066c 38BD     		pop	{r3, r4, r5, pc}
 1919              	.LVL165:
 1920              	.L151:
 1921              	.LBB395:
 1922              	.LBB394:
 1923              	.LBB393:
 1924              		.loc 5 374 0
ARM GAS  C:\Users\RAKIBU~1\AppData\Local\Temp\ccxNJvic.s 			page 35


 1925 066e 0348     		ldr	r0, .L152+4
 1926 0670 FFF7FEFF 		bl	chSysHalt
 1927              	.LVL166:
 1928 0674 F7E7     		b	.L149
 1929              	.L153:
 1930 0676 00BF     		.align	2
 1931              	.L152:
 1932 0678 00000000 		.word	ch
 1933 067c 40000000 		.word	.LANCHOR0+64
 1934              	.LBE393:
 1935              	.LBE394:
 1936              	.LBE395:
 1937              		.cfi_endproc
 1938              	.LFE344:
 1939              		.size	obqPostFullBuffer, .-obqPostFullBuffer
 1940              		.align	1
 1941              		.p2align 4,,15
 1942              		.global	obqPutTimeout
 1943              		.syntax unified
 1944              		.thumb
 1945              		.thumb_func
 1946              		.fpu softvfp
 1947              		.type	obqPutTimeout, %function
 1948              	obqPutTimeout:
 1949              	.LFB346:
 1950              		.loc 1 672 0
 1951              		.cfi_startproc
 1952              		@ args = 0, pretend = 0, frame = 0
 1953              		@ frame_needed = 0, uses_anonymous_args = 0
 1954              	.LVL167:
 1955 0680 2DE9F041 		push	{r4, r5, r6, r7, r8, lr}
 1956              		.cfi_def_cfa_offset 24
 1957              		.cfi_offset 4, -24
 1958              		.cfi_offset 5, -20
 1959              		.cfi_offset 6, -16
 1960              		.cfi_offset 7, -12
 1961              		.cfi_offset 8, -8
 1962              		.cfi_offset 14, -4
 1963 0684 0446     		mov	r4, r0
 1964 0686 8846     		mov	r8, r1
 1965 0688 1646     		mov	r6, r2
 1966 068a 1F46     		mov	r7, r3
 1967              	.LVL168:
 1968              	.LBB416:
 1969              	.LBB417:
 1970              	.LBB418:
 1971              	.LBB419:
 1972              	.LBB420:
 1973              	.LBB421:
 1974              		.loc 4 493 0
 1975 068c 2023     		movs	r3, #32
 1976              		.syntax unified
 1977              	@ 493 "../../../ChibiOSRepo/chibios191/os/common/ext/ARM/CMSIS/Core/Include/cmsis_gcc.h" 1
 1978 068e 83F31188 		MSR basepri, r3
 1979              	@ 0 "" 2
 1980              	.LVL169:
 1981              		.thumb
ARM GAS  C:\Users\RAKIBU~1\AppData\Local\Temp\ccxNJvic.s 			page 36


 1982              		.syntax unified
 1983              	.LBE421:
 1984              	.LBE420:
 1985              	.LBE419:
 1986              		.loc 5 356 0
 1987 0692 FFF7FEFF 		bl	_stats_start_measure_crit_thd
 1988              	.LVL170:
 1989              		.loc 5 357 0
 1990 0696 FFF7FEFF 		bl	_dbg_check_lock
 1991              	.LVL171:
 1992              	.LBE418:
 1993              	.LBE417:
 1994              	.LBE416:
 1995              		.loc 1 678 0
 1996 069a A36A     		ldr	r3, [r4, #40]
 1997 069c E3B1     		cbz	r3, .L161
 1998              	.L155:
 1999              		.loc 1 687 0
 2000 069e A36A     		ldr	r3, [r4, #40]
 2001 06a0 83F80080 		strb	r8, [r3]
 2002              		.loc 1 688 0
 2003 06a4 A36A     		ldr	r3, [r4, #40]
 2004 06a6 0133     		adds	r3, r3, #1
 2005 06a8 A362     		str	r3, [r4, #40]
 2006              		.loc 1 692 0
 2007 06aa E26A     		ldr	r2, [r4, #44]
 2008 06ac 9342     		cmp	r3, r2
 2009 06ae 30D2     		bcs	.L162
 2010              	.L158:
 2011              	.LBB422:
 2012              	.LBB423:
 2013              	.LBB424:
 2014              		.loc 5 367 0
 2015 06b0 FFF7FEFF 		bl	_dbg_check_unlock
 2016              	.LVL172:
 2017              		.loc 5 368 0
 2018 06b4 FFF7FEFF 		bl	_stats_stop_measure_crit_thd
 2019              	.LVL173:
 2020              		.loc 5 374 0
 2021 06b8 1B4B     		ldr	r3, .L165
 2022 06ba 1A68     		ldr	r2, [r3]
 2023 06bc 9A42     		cmp	r2, r3
 2024 06be 04D0     		beq	.L159
 2025 06c0 9B69     		ldr	r3, [r3, #24]
 2026 06c2 9968     		ldr	r1, [r3, #8]
 2027 06c4 9368     		ldr	r3, [r2, #8]
 2028 06c6 9942     		cmp	r1, r3
 2029 06c8 29D3     		bcc	.L163
 2030              	.L159:
 2031              	.LVL174:
 2032              	.LBB425:
 2033              	.LBB426:
 2034              	.LBB427:
 2035              		.loc 4 493 0
 2036 06ca 0020     		movs	r0, #0
 2037              		.syntax unified
 2038              	@ 493 "../../../ChibiOSRepo/chibios191/os/common/ext/ARM/CMSIS/Core/Include/cmsis_gcc.h" 1
ARM GAS  C:\Users\RAKIBU~1\AppData\Local\Temp\ccxNJvic.s 			page 37


 2039 06cc 80F31188 		MSR basepri, r0
 2040              	@ 0 "" 2
 2041              	.LVL175:
 2042              		.thumb
 2043              		.syntax unified
 2044              	.LBE427:
 2045              	.LBE426:
 2046              	.LBE425:
 2047              	.LBE424:
 2048              	.LBE423:
 2049              	.LBE422:
 2050              		.loc 1 697 0
 2051 06d0 0546     		mov	r5, r0
 2052              	.L154:
 2053              		.loc 1 698 0
 2054 06d2 2846     		mov	r0, r5
 2055 06d4 BDE8F081 		pop	{r4, r5, r6, r7, r8, pc}
 2056              	.LVL176:
 2057              	.L161:
 2058              		.loc 1 679 0
 2059 06d8 3246     		mov	r2, r6
 2060 06da 3B46     		mov	r3, r7
 2061 06dc 2046     		mov	r0, r4
 2062 06de FFF7FEFF 		bl	obqGetEmptyBufferTimeoutS
 2063              	.LVL177:
 2064              		.loc 1 680 0
 2065 06e2 0546     		mov	r5, r0
 2066 06e4 0028     		cmp	r0, #0
 2067 06e6 DAD0     		beq	.L155
 2068              	.LBB430:
 2069              	.LBB431:
 2070              	.LBB432:
 2071              		.loc 5 367 0
 2072 06e8 FFF7FEFF 		bl	_dbg_check_unlock
 2073              	.LVL178:
 2074              		.loc 5 368 0
 2075 06ec FFF7FEFF 		bl	_stats_stop_measure_crit_thd
 2076              	.LVL179:
 2077              		.loc 5 374 0
 2078 06f0 0D4B     		ldr	r3, .L165
 2079 06f2 1A68     		ldr	r2, [r3]
 2080 06f4 9A42     		cmp	r2, r3
 2081 06f6 04D0     		beq	.L156
 2082 06f8 9B69     		ldr	r3, [r3, #24]
 2083 06fa 9968     		ldr	r1, [r3, #8]
 2084 06fc 9368     		ldr	r3, [r2, #8]
 2085 06fe 9942     		cmp	r1, r3
 2086 0700 03D3     		bcc	.L164
 2087              	.L156:
 2088              	.LVL180:
 2089              	.LBB433:
 2090              	.LBB434:
 2091              	.LBB435:
 2092              		.loc 4 493 0
 2093 0702 0023     		movs	r3, #0
 2094              		.syntax unified
 2095              	@ 493 "../../../ChibiOSRepo/chibios191/os/common/ext/ARM/CMSIS/Core/Include/cmsis_gcc.h" 1
ARM GAS  C:\Users\RAKIBU~1\AppData\Local\Temp\ccxNJvic.s 			page 38


 2096 0704 83F31188 		MSR basepri, r3
 2097              	@ 0 "" 2
 2098              	.LVL181:
 2099              		.thumb
 2100              		.syntax unified
 2101 0708 E3E7     		b	.L154
 2102              	.L164:
 2103              	.LBE435:
 2104              	.LBE434:
 2105              	.LBE433:
 2106              		.loc 5 374 0
 2107 070a 0848     		ldr	r0, .L165+4
 2108 070c FFF7FEFF 		bl	chSysHalt
 2109              	.LVL182:
 2110 0710 F7E7     		b	.L156
 2111              	.LVL183:
 2112              	.L162:
 2113              	.LBE432:
 2114              	.LBE431:
 2115              	.LBE430:
 2116              		.loc 1 693 0
 2117 0712 E169     		ldr	r1, [r4, #28]
 2118 0714 0439     		subs	r1, r1, #4
 2119 0716 2046     		mov	r0, r4
 2120 0718 FFF7FEFF 		bl	obqPostFullBufferS
 2121              	.LVL184:
 2122 071c C8E7     		b	.L158
 2123              	.L163:
 2124              	.LBB436:
 2125              	.LBB429:
 2126              	.LBB428:
 2127              		.loc 5 374 0
 2128 071e 0348     		ldr	r0, .L165+4
 2129 0720 FFF7FEFF 		bl	chSysHalt
 2130              	.LVL185:
 2131 0724 D1E7     		b	.L159
 2132              	.L166:
 2133 0726 00BF     		.align	2
 2134              	.L165:
 2135 0728 00000000 		.word	ch
 2136 072c 40000000 		.word	.LANCHOR0+64
 2137              	.LBE428:
 2138              	.LBE429:
 2139              	.LBE436:
 2140              		.cfi_endproc
 2141              	.LFE346:
 2142              		.size	obqPutTimeout, .-obqPutTimeout
 2143              		.align	1
 2144              		.p2align 4,,15
 2145              		.global	obqWriteTimeout
 2146              		.syntax unified
 2147              		.thumb
 2148              		.thumb_func
 2149              		.fpu softvfp
 2150              		.type	obqWriteTimeout, %function
 2151              	obqWriteTimeout:
 2152              	.LFB347:
ARM GAS  C:\Users\RAKIBU~1\AppData\Local\Temp\ccxNJvic.s 			page 39


 2153              		.loc 1 722 0
 2154              		.cfi_startproc
 2155              		@ args = 8, pretend = 0, frame = 0
 2156              		@ frame_needed = 0, uses_anonymous_args = 0
 2157              	.LVL186:
 2158 0730 2DE9F041 		push	{r4, r5, r6, r7, r8, lr}
 2159              		.cfi_def_cfa_offset 24
 2160              		.cfi_offset 4, -24
 2161              		.cfi_offset 5, -20
 2162              		.cfi_offset 6, -16
 2163              		.cfi_offset 7, -12
 2164              		.cfi_offset 8, -8
 2165              		.cfi_offset 14, -4
 2166 0734 0446     		mov	r4, r0
 2167 0736 0F46     		mov	r7, r1
 2168              	.LVL187:
 2169              		.loc 1 725 0
 2170 0738 9046     		mov	r8, r2
 2171 073a 42B1     		cbz	r2, .L180
 2172              	.LVL188:
 2173              	.L168:
 2174              	.LBB465:
 2175              	.LBB466:
 2176              	.LBB467:
 2177              	.LBB468:
 2178              	.LBB469:
 2179              	.LBB470:
 2180              		.loc 4 493 0
 2181 073c 2023     		movs	r3, #32
 2182              		.syntax unified
 2183              	@ 493 "../../../ChibiOSRepo/chibios191/os/common/ext/ARM/CMSIS/Core/Include/cmsis_gcc.h" 1
 2184 073e 83F31188 		MSR basepri, r3
 2185              	@ 0 "" 2
 2186              	.LVL189:
 2187              		.thumb
 2188              		.syntax unified
 2189              	.LBE470:
 2190              	.LBE469:
 2191              	.LBE468:
 2192              		.loc 5 356 0
 2193 0742 FFF7FEFF 		bl	_stats_start_measure_crit_thd
 2194              	.LVL190:
 2195              		.loc 5 357 0
 2196 0746 FFF7FEFF 		bl	_dbg_check_lock
 2197              	.LVL191:
 2198              	.LBE467:
 2199              	.LBE466:
 2200              	.LBE465:
 2201              		.loc 1 723 0
 2202 074a 0026     		movs	r6, #0
 2203 074c 47E0     		b	.L178
 2204              	.LVL192:
 2205              	.L180:
 2206              		.loc 1 725 0 discriminator 2
 2207 074e 3C48     		ldr	r0, .L185
 2208              	.LVL193:
 2209 0750 FFF7FEFF 		bl	chSysHalt
ARM GAS  C:\Users\RAKIBU~1\AppData\Local\Temp\ccxNJvic.s 			page 40


 2210              	.LVL194:
 2211 0754 F2E7     		b	.L168
 2212              	.LVL195:
 2213              	.L184:
 2214              	.LBB471:
 2215              	.LBB472:
 2216              		.loc 1 737 0
 2217 0756 DDE90623 		ldrd	r2, [sp, #24]
 2218 075a 2046     		mov	r0, r4
 2219 075c FFF7FEFF 		bl	obqGetEmptyBufferTimeoutS
 2220              	.LVL196:
 2221              		.loc 1 740 0
 2222 0760 0028     		cmp	r0, #0
 2223 0762 3FD0     		beq	.L169
 2224              	.LBB473:
 2225              	.LBB474:
 2226              	.LBB475:
 2227              		.loc 5 367 0
 2228 0764 FFF7FEFF 		bl	_dbg_check_unlock
 2229              	.LVL197:
 2230              		.loc 5 368 0
 2231 0768 FFF7FEFF 		bl	_stats_stop_measure_crit_thd
 2232              	.LVL198:
 2233              		.loc 5 374 0
 2234 076c 354B     		ldr	r3, .L185+4
 2235 076e 1A68     		ldr	r2, [r3]
 2236 0770 9A42     		cmp	r2, r3
 2237 0772 04D0     		beq	.L170
 2238 0774 9B69     		ldr	r3, [r3, #24]
 2239 0776 9968     		ldr	r1, [r3, #8]
 2240 0778 9368     		ldr	r3, [r2, #8]
 2241 077a 9942     		cmp	r1, r3
 2242 077c 05D3     		bcc	.L181
 2243              	.L170:
 2244              	.LVL199:
 2245              	.LBB476:
 2246              	.LBB477:
 2247              	.LBB478:
 2248              		.loc 4 493 0
 2249 077e 0023     		movs	r3, #0
 2250              		.syntax unified
 2251              	@ 493 "../../../ChibiOSRepo/chibios191/os/common/ext/ARM/CMSIS/Core/Include/cmsis_gcc.h" 1
 2252 0780 83F31188 		MSR basepri, r3
 2253              	@ 0 "" 2
 2254              	.LVL200:
 2255              		.thumb
 2256              		.syntax unified
 2257              	.L167:
 2258              	.LBE478:
 2259              	.LBE477:
 2260              	.LBE476:
 2261              	.LBE475:
 2262              	.LBE474:
 2263              	.LBE473:
 2264              	.LBE472:
 2265              	.LBE471:
 2266              		.loc 1 780 0
ARM GAS  C:\Users\RAKIBU~1\AppData\Local\Temp\ccxNJvic.s 			page 41


 2267 0784 3046     		mov	r0, r6
 2268 0786 BDE8F081 		pop	{r4, r5, r6, r7, r8, pc}
 2269              	.LVL201:
 2270              	.L181:
 2271              	.LBB498:
 2272              	.LBB482:
 2273              	.LBB481:
 2274              	.LBB480:
 2275              	.LBB479:
 2276              		.loc 5 374 0
 2277 078a 2F48     		ldr	r0, .L185+8
 2278 078c FFF7FEFF 		bl	chSysHalt
 2279              	.LVL202:
 2280 0790 F5E7     		b	.L170
 2281              	.LVL203:
 2282              	.L173:
 2283              	.LBE479:
 2284              	.LBE480:
 2285              	.LBE481:
 2286              	.LBE482:
 2287              		.loc 1 762 0
 2288 0792 2A46     		mov	r2, r5
 2289 0794 3946     		mov	r1, r7
 2290 0796 FFF7FEFF 		bl	memcpy
 2291              	.LVL204:
 2292              		.loc 1 763 0
 2293 079a 2F44     		add	r7, r7, r5
 2294              	.LVL205:
 2295              		.loc 1 764 0
 2296 079c A36A     		ldr	r3, [r4, #40]
 2297 079e 2B44     		add	r3, r3, r5
 2298 07a0 A362     		str	r3, [r4, #40]
 2299              		.loc 1 765 0
 2300 07a2 2E44     		add	r6, r6, r5
 2301              	.LVL206:
 2302              	.L175:
 2303              		.loc 1 769 0
 2304 07a4 A26A     		ldr	r2, [r4, #40]
 2305 07a6 E36A     		ldr	r3, [r4, #44]
 2306 07a8 9A42     		cmp	r2, r3
 2307 07aa 3ED2     		bcs	.L182
 2308              	.L176:
 2309              	.LBB483:
 2310              	.LBB484:
 2311              	.LBB485:
 2312              		.loc 5 367 0
 2313 07ac FFF7FEFF 		bl	_dbg_check_unlock
 2314              	.LVL207:
 2315              		.loc 5 368 0
 2316 07b0 FFF7FEFF 		bl	_stats_stop_measure_crit_thd
 2317              	.LVL208:
 2318              		.loc 5 374 0
 2319 07b4 234B     		ldr	r3, .L185+4
 2320 07b6 1A68     		ldr	r2, [r3]
 2321 07b8 9A42     		cmp	r2, r3
 2322 07ba 04D0     		beq	.L177
 2323 07bc 9B69     		ldr	r3, [r3, #24]
ARM GAS  C:\Users\RAKIBU~1\AppData\Local\Temp\ccxNJvic.s 			page 42


 2324 07be 9968     		ldr	r1, [r3, #8]
 2325 07c0 9368     		ldr	r3, [r2, #8]
 2326 07c2 9942     		cmp	r1, r3
 2327 07c4 37D3     		bcc	.L183
 2328              	.L177:
 2329              	.LVL209:
 2330              	.LBB486:
 2331              	.LBB487:
 2332              	.LBB488:
 2333              		.loc 4 493 0
 2334 07c6 0023     		movs	r3, #0
 2335              		.syntax unified
 2336              	@ 493 "../../../ChibiOSRepo/chibios191/os/common/ext/ARM/CMSIS/Core/Include/cmsis_gcc.h" 1
 2337 07c8 83F31188 		MSR basepri, r3
 2338              	@ 0 "" 2
 2339              	.LVL210:
 2340              		.thumb
 2341              		.syntax unified
 2342              	.LBE488:
 2343              	.LBE487:
 2344              	.LBE486:
 2345              	.LBE485:
 2346              	.LBE484:
 2347              	.LBE483:
 2348              		.loc 1 775 0
 2349 07cc 4645     		cmp	r6, r8
 2350 07ce D9D2     		bcs	.L167
 2351              	.LVL211:
 2352              	.LBB491:
 2353              	.LBB492:
 2354              	.LBB493:
 2355              	.LBB494:
 2356              	.LBB495:
 2357              	.LBB496:
 2358              		.loc 4 493 0
 2359 07d0 2023     		movs	r3, #32
 2360              		.syntax unified
 2361              	@ 493 "../../../ChibiOSRepo/chibios191/os/common/ext/ARM/CMSIS/Core/Include/cmsis_gcc.h" 1
 2362 07d2 83F31188 		MSR basepri, r3
 2363              	@ 0 "" 2
 2364              	.LVL212:
 2365              		.thumb
 2366              		.syntax unified
 2367              	.LBE496:
 2368              	.LBE495:
 2369              	.LBE494:
 2370              		.loc 5 356 0
 2371 07d6 FFF7FEFF 		bl	_stats_start_measure_crit_thd
 2372              	.LVL213:
 2373              		.loc 5 357 0
 2374 07da FFF7FEFF 		bl	_dbg_check_lock
 2375              	.LVL214:
 2376              	.L178:
 2377              	.LBE493:
 2378              	.LBE492:
 2379              	.LBE491:
 2380              		.loc 1 733 0
ARM GAS  C:\Users\RAKIBU~1\AppData\Local\Temp\ccxNJvic.s 			page 43


 2381 07de A36A     		ldr	r3, [r4, #40]
 2382 07e0 002B     		cmp	r3, #0
 2383 07e2 B8D0     		beq	.L184
 2384              	.L169:
 2385              		.loc 1 747 0
 2386 07e4 E36A     		ldr	r3, [r4, #44]
 2387 07e6 A06A     		ldr	r0, [r4, #40]
 2388 07e8 1B1A     		subs	r3, r3, r0
 2389              	.LVL215:
 2390              		.loc 1 748 0
 2391 07ea A8EB0605 		sub	r5, r8, r6
 2392 07ee 9D42     		cmp	r5, r3
 2393 07f0 00D3     		bcc	.L172
 2394              		.loc 1 747 0
 2395 07f2 1D46     		mov	r5, r3
 2396              	.L172:
 2397              	.LVL216:
 2398              		.loc 1 754 0
 2399 07f4 402D     		cmp	r5, #64
 2400 07f6 CCD9     		bls	.L173
 2401              		.loc 1 756 0
 2402 07f8 3B46     		mov	r3, r7
 2403 07fa 07F14002 		add	r2, r7, #64
 2404              	.LVL217:
 2405              	.L174:
 2406 07fe D3F800E0 		ldr	lr, [r3]	@ unaligned
 2407 0802 D3F804C0 		ldr	ip, [r3, #4]	@ unaligned
 2408 0806 9D68     		ldr	r5, [r3, #8]	@ unaligned
 2409 0808 D968     		ldr	r1, [r3, #12]	@ unaligned
 2410 080a C0F800E0 		str	lr, [r0]	@ unaligned
 2411 080e C0F804C0 		str	ip, [r0, #4]	@ unaligned
 2412 0812 8560     		str	r5, [r0, #8]	@ unaligned
 2413 0814 C160     		str	r1, [r0, #12]	@ unaligned
 2414 0816 1033     		adds	r3, r3, #16
 2415 0818 1030     		adds	r0, r0, #16
 2416 081a 9342     		cmp	r3, r2
 2417 081c EFD1     		bne	.L174
 2418              		.loc 1 757 0
 2419 081e 4037     		adds	r7, r7, #64
 2420              	.LVL218:
 2421              		.loc 1 758 0
 2422 0820 A36A     		ldr	r3, [r4, #40]
 2423 0822 4033     		adds	r3, r3, #64
 2424 0824 A362     		str	r3, [r4, #40]
 2425              		.loc 1 759 0
 2426 0826 4036     		adds	r6, r6, #64
 2427              	.LVL219:
 2428 0828 BCE7     		b	.L175
 2429              	.L182:
 2430              		.loc 1 770 0
 2431 082a E169     		ldr	r1, [r4, #28]
 2432 082c 0439     		subs	r1, r1, #4
 2433 082e 2046     		mov	r0, r4
 2434 0830 FFF7FEFF 		bl	obqPostFullBufferS
 2435              	.LVL220:
 2436 0834 BAE7     		b	.L176
 2437              	.L183:
ARM GAS  C:\Users\RAKIBU~1\AppData\Local\Temp\ccxNJvic.s 			page 44


 2438              	.LBB497:
 2439              	.LBB490:
 2440              	.LBB489:
 2441              		.loc 5 374 0
 2442 0836 0448     		ldr	r0, .L185+8
 2443 0838 FFF7FEFF 		bl	chSysHalt
 2444              	.LVL221:
 2445 083c C3E7     		b	.L177
 2446              	.L186:
 2447 083e 00BF     		.align	2
 2448              	.L185:
 2449 0840 CC000000 		.word	.LANCHOR0+204
 2450 0844 00000000 		.word	ch
 2451 0848 40000000 		.word	.LANCHOR0+64
 2452              	.LBE489:
 2453              	.LBE490:
 2454              	.LBE497:
 2455              	.LBE498:
 2456              		.cfi_endproc
 2457              	.LFE347:
 2458              		.size	obqWriteTimeout, .-obqWriteTimeout
 2459              		.align	1
 2460 084c AFF30080 		.p2align 4,,15
 2461              		.global	obqTryFlushI
 2462              		.syntax unified
 2463              		.thumb
 2464              		.thumb_func
 2465              		.fpu softvfp
 2466              		.type	obqTryFlushI, %function
 2467              	obqTryFlushI:
 2468              	.LFB348:
 2469              		.loc 1 795 0
 2470              		.cfi_startproc
 2471              		@ args = 0, pretend = 0, frame = 0
 2472              		@ frame_needed = 0, uses_anonymous_args = 0
 2473              	.LVL222:
 2474 0850 10B5     		push	{r4, lr}
 2475              		.cfi_def_cfa_offset 8
 2476              		.cfi_offset 4, -8
 2477              		.cfi_offset 14, -4
 2478 0852 0446     		mov	r4, r0
 2479              		.loc 1 797 0
 2480 0854 FFF7FEFF 		bl	chDbgCheckClassI
 2481              	.LVL223:
 2482              		.loc 1 801 0
 2483 0858 2269     		ldr	r2, [r4, #16]
 2484 085a 6369     		ldr	r3, [r4, #20]
 2485 085c 9A42     		cmp	r2, r3
 2486 085e 17D0     		beq	.L196
 2487 0860 0023     		movs	r3, #0
 2488              	.L188:
 2489              		.loc 1 801 0 is_stmt 0 discriminator 6
 2490 0862 1846     		mov	r0, r3
 2491 0864 9BB1     		cbz	r3, .L189
 2492              		.loc 1 801 0 discriminator 7
 2493 0866 A36A     		ldr	r3, [r4, #40]
 2494 0868 BBB1     		cbz	r3, .L193
ARM GAS  C:\Users\RAKIBU~1\AppData\Local\Temp\ccxNJvic.s 			page 45


 2495              	.LBB499:
 2496              		.loc 1 802 0 is_stmt 1
 2497 086a 9B1A     		subs	r3, r3, r2
 2498              	.LVL224:
 2499              		.loc 1 804 0
 2500 086c 043B     		subs	r3, r3, #4
 2501              	.LVL225:
 2502 086e 16D0     		beq	.L194
 2503              		.loc 1 807 0
 2504 0870 1360     		str	r3, [r2]
 2505              		.loc 1 810 0
 2506 0872 E368     		ldr	r3, [r4, #12]
 2507              	.LVL226:
 2508 0874 013B     		subs	r3, r3, #1
 2509 0876 E360     		str	r3, [r4, #12]
 2510              	.LVL227:
 2511              		.loc 1 811 0
 2512 0878 E269     		ldr	r2, [r4, #28]
 2513 087a 2369     		ldr	r3, [r4, #16]
 2514 087c 1344     		add	r3, r3, r2
 2515 087e 2361     		str	r3, [r4, #16]
 2516              		.loc 1 812 0
 2517 0880 A269     		ldr	r2, [r4, #24]
 2518 0882 9342     		cmp	r3, r2
 2519 0884 01D3     		bcc	.L190
 2520              		.loc 1 813 0
 2521 0886 636A     		ldr	r3, [r4, #36]
 2522 0888 2361     		str	r3, [r4, #16]
 2523              	.L190:
 2524              		.loc 1 817 0
 2525 088a 0023     		movs	r3, #0
 2526 088c A362     		str	r3, [r4, #40]
 2527              	.L189:
 2528              	.LBE499:
 2529              		.loc 1 823 0
 2530 088e 10BD     		pop	{r4, pc}
 2531              	.LVL228:
 2532              	.L196:
 2533              		.loc 1 801 0 discriminator 1
 2534 0890 E368     		ldr	r3, [r4, #12]
 2535 0892 002B     		cmp	r3, #0
 2536 0894 E5D0     		beq	.L188
 2537              		.loc 1 801 0 is_stmt 0
 2538 0896 0123     		movs	r3, #1
 2539 0898 E3E7     		b	.L188
 2540              	.L193:
 2541              		.loc 1 822 0 is_stmt 1
 2542 089a 0020     		movs	r0, #0
 2543 089c F7E7     		b	.L189
 2544              	.LVL229:
 2545              	.L194:
 2546 089e 0020     		movs	r0, #0
 2547 08a0 F5E7     		b	.L189
 2548              		.cfi_endproc
 2549              	.LFE348:
 2550              		.size	obqTryFlushI, .-obqTryFlushI
 2551              		.align	1
ARM GAS  C:\Users\RAKIBU~1\AppData\Local\Temp\ccxNJvic.s 			page 46


 2552 08a2 00BFAFF3 		.p2align 4,,15
 2552      0080AFF3 
 2552      0080AFF3 
 2552      0080
 2553              		.global	obqFlush
 2554              		.syntax unified
 2555              		.thumb
 2556              		.thumb_func
 2557              		.fpu softvfp
 2558              		.type	obqFlush, %function
 2559              	obqFlush:
 2560              	.LFB349:
 2561              		.loc 1 832 0
 2562              		.cfi_startproc
 2563              		@ args = 0, pretend = 0, frame = 0
 2564              		@ frame_needed = 0, uses_anonymous_args = 0
 2565              	.LVL230:
 2566 08b0 10B5     		push	{r4, lr}
 2567              		.cfi_def_cfa_offset 8
 2568              		.cfi_offset 4, -8
 2569              		.cfi_offset 14, -4
 2570 08b2 0446     		mov	r4, r0
 2571              	.LVL231:
 2572              	.LBB514:
 2573              	.LBB515:
 2574              	.LBB516:
 2575              	.LBB517:
 2576              	.LBB518:
 2577              	.LBB519:
 2578              		.loc 4 493 0
 2579 08b4 2023     		movs	r3, #32
 2580              		.syntax unified
 2581              	@ 493 "../../../ChibiOSRepo/chibios191/os/common/ext/ARM/CMSIS/Core/Include/cmsis_gcc.h" 1
 2582 08b6 83F31188 		MSR basepri, r3
 2583              	@ 0 "" 2
 2584              	.LVL232:
 2585              		.thumb
 2586              		.syntax unified
 2587              	.LBE519:
 2588              	.LBE518:
 2589              	.LBE517:
 2590              		.loc 5 356 0
 2591 08ba FFF7FEFF 		bl	_stats_start_measure_crit_thd
 2592              	.LVL233:
 2593              		.loc 5 357 0
 2594 08be FFF7FEFF 		bl	_dbg_check_lock
 2595              	.LVL234:
 2596              	.LBE516:
 2597              	.LBE515:
 2598              	.LBE514:
 2599              		.loc 1 837 0
 2600 08c2 A16A     		ldr	r1, [r4, #40]
 2601 08c4 19B1     		cbz	r1, .L198
 2602              	.LBB520:
 2603              		.loc 1 838 0
 2604 08c6 2369     		ldr	r3, [r4, #16]
 2605 08c8 C91A     		subs	r1, r1, r3
ARM GAS  C:\Users\RAKIBU~1\AppData\Local\Temp\ccxNJvic.s 			page 47


 2606              	.LVL235:
 2607              		.loc 1 840 0
 2608 08ca 0439     		subs	r1, r1, #4
 2609              	.LVL236:
 2610 08cc 10D1     		bne	.L201
 2611              	.LVL237:
 2612              	.L198:
 2613              	.LBE520:
 2614              	.LBB521:
 2615              	.LBB522:
 2616              	.LBB523:
 2617              		.loc 5 367 0
 2618 08ce FFF7FEFF 		bl	_dbg_check_unlock
 2619              	.LVL238:
 2620              		.loc 5 368 0
 2621 08d2 FFF7FEFF 		bl	_stats_stop_measure_crit_thd
 2622              	.LVL239:
 2623              		.loc 5 374 0
 2624 08d6 0A4B     		ldr	r3, .L203
 2625 08d8 1A68     		ldr	r2, [r3]
 2626 08da 9A42     		cmp	r2, r3
 2627 08dc 04D0     		beq	.L199
 2628 08de 9B69     		ldr	r3, [r3, #24]
 2629 08e0 9968     		ldr	r1, [r3, #8]
 2630 08e2 9368     		ldr	r3, [r2, #8]
 2631 08e4 9942     		cmp	r1, r3
 2632 08e6 07D3     		bcc	.L202
 2633              	.L199:
 2634              	.LVL240:
 2635              	.LBB524:
 2636              	.LBB525:
 2637              	.LBB526:
 2638              		.loc 4 493 0
 2639 08e8 0023     		movs	r3, #0
 2640              		.syntax unified
 2641              	@ 493 "../../../ChibiOSRepo/chibios191/os/common/ext/ARM/CMSIS/Core/Include/cmsis_gcc.h" 1
 2642 08ea 83F31188 		MSR basepri, r3
 2643              	@ 0 "" 2
 2644              	.LVL241:
 2645              		.thumb
 2646              		.syntax unified
 2647              	.LBE526:
 2648              	.LBE525:
 2649              	.LBE524:
 2650              	.LBE523:
 2651              	.LBE522:
 2652              	.LBE521:
 2653              		.loc 1 846 0
 2654 08ee 10BD     		pop	{r4, pc}
 2655              	.LVL242:
 2656              	.L201:
 2657              	.LBB529:
 2658              		.loc 1 841 0
 2659 08f0 2046     		mov	r0, r4
 2660 08f2 FFF7FEFF 		bl	obqPostFullBufferS
 2661              	.LVL243:
 2662 08f6 EAE7     		b	.L198
ARM GAS  C:\Users\RAKIBU~1\AppData\Local\Temp\ccxNJvic.s 			page 48


 2663              	.L202:
 2664              	.LBE529:
 2665              	.LBB530:
 2666              	.LBB528:
 2667              	.LBB527:
 2668              		.loc 5 374 0
 2669 08f8 0248     		ldr	r0, .L203+4
 2670 08fa FFF7FEFF 		bl	chSysHalt
 2671              	.LVL244:
 2672 08fe F3E7     		b	.L199
 2673              	.L204:
 2674              		.align	2
 2675              	.L203:
 2676 0900 00000000 		.word	ch
 2677 0904 40000000 		.word	.LANCHOR0+64
 2678              	.LBE527:
 2679              	.LBE528:
 2680              	.LBE530:
 2681              		.cfi_endproc
 2682              	.LFE349:
 2683              		.size	obqFlush, .-obqFlush
 2684              		.section	.rodata
 2685              		.align	2
 2686              		.set	.LANCHOR0,. + 0
 2687              		.type	__func__.9176, %object
 2688              		.size	__func__.9176, 14
 2689              	__func__.9176:
 2690 0000 6962714F 		.ascii	"ibqObjectInit\000"
 2690      626A6563 
 2690      74496E69 
 2690      7400
 2691 000e 0000     		.space	2
 2692              		.type	__func__.9187, %object
 2693              		.size	__func__.9187, 19
 2694              	__func__.9187:
 2695 0010 69627150 		.ascii	"ibqPostFullBufferI\000"
 2695      6F737446 
 2695      756C6C42 
 2695      75666665 
 2695      724900
 2696 0023 00       		.space	1
 2697              		.type	__func__.9201, %object
 2698              		.size	__func__.9201, 25
 2699              	__func__.9201:
 2700 0024 69627147 		.ascii	"ibqGetFullBufferTimeoutS\000"
 2700      65744675 
 2700      6C6C4275 
 2700      66666572 
 2700      54696D65 
 2701 003d 000000   		.space	3
 2702              		.type	__func__.6519, %object
 2703              		.size	__func__.6519, 12
 2704              	__func__.6519:
 2705 0040 63685379 		.ascii	"chSysUnlock\000"
 2705      73556E6C 
 2705      6F636B00 
 2706              		.type	__func__.9208, %object
ARM GAS  C:\Users\RAKIBU~1\AppData\Local\Temp\ccxNJvic.s 			page 49


 2707              		.size	__func__.9208, 23
 2708              	__func__.9208:
 2709 004c 69627152 		.ascii	"ibqReleaseEmptyBufferS\000"
 2709      656C6561 
 2709      7365456D 
 2709      70747942 
 2709      75666665 
 2710 0063 00       		.space	1
 2711              		.type	__func__.9221, %object
 2712              		.size	__func__.9221, 15
 2713              	__func__.9221:
 2714 0064 69627152 		.ascii	"ibqReadTimeout\000"
 2714      65616454 
 2714      696D656F 
 2714      757400
 2715 0073 00       		.space	1
 2716              		.type	__func__.9234, %object
 2717              		.size	__func__.9234, 14
 2718              	__func__.9234:
 2719 0074 6F62714F 		.ascii	"obqObjectInit\000"
 2719      626A6563 
 2719      74496E69 
 2719      7400
 2720 0082 0000     		.space	2
 2721              		.type	__func__.9245, %object
 2722              		.size	__func__.9245, 23
 2723              	__func__.9245:
 2724 0084 6F627152 		.ascii	"obqReleaseEmptyBufferI\000"
 2724      656C6561 
 2724      7365456D 
 2724      70747942 
 2724      75666665 
 2725 009b 00       		.space	1
 2726              		.type	__func__.9259, %object
 2727              		.size	__func__.9259, 26
 2728              	__func__.9259:
 2729 009c 6F627147 		.ascii	"obqGetEmptyBufferTimeoutS\000"
 2729      6574456D 
 2729      70747942 
 2729      75666665 
 2729      7254696D 
 2730 00b6 0000     		.space	2
 2731              		.type	__func__.9268, %object
 2732              		.size	__func__.9268, 19
 2733              	__func__.9268:
 2734 00b8 6F627150 		.ascii	"obqPostFullBufferS\000"
 2734      6F737446 
 2734      756C6C42 
 2734      75666665 
 2734      725300
 2735 00cb 00       		.space	1
 2736              		.type	__func__.9282, %object
 2737              		.size	__func__.9282, 16
 2738              	__func__.9282:
 2739 00cc 6F627157 		.ascii	"obqWriteTimeout\000"
 2739      72697465 
 2739      54696D65 
ARM GAS  C:\Users\RAKIBU~1\AppData\Local\Temp\ccxNJvic.s 			page 50


 2739      6F757400 
 2740              		.text
 2741              	.Letext0:
 2742              		.file 6 "c:\\chibistudio\\tools\\gnu tools arm embedded\\7.0 2017q4\\lib\\gcc\\arm-none-eabi\\7.2.
 2743              		.file 7 "c:\\chibistudio\\tools\\gnu tools arm embedded\\7.0 2017q4\\arm-none-eabi\\include\\machi
 2744              		.file 8 "c:\\chibistudio\\tools\\gnu tools arm embedded\\7.0 2017q4\\arm-none-eabi\\include\\sys\\
 2745              		.file 9 "c:\\chibistudio\\tools\\gnu tools arm embedded\\7.0 2017q4\\arm-none-eabi\\include\\sys\\
 2746              		.file 10 "c:\\chibistudio\\tools\\gnu tools arm embedded\\7.0 2017q4\\arm-none-eabi\\include\\sys\
 2747              		.file 11 "c:\\chibistudio\\tools\\gnu tools arm embedded\\7.0 2017q4\\arm-none-eabi\\include\\sys\
 2748              		.file 12 "c:\\chibistudio\\tools\\gnu tools arm embedded\\7.0 2017q4\\arm-none-eabi\\include\\stdi
 2749              		.file 13 "../../../ChibiOSRepo/chibios191/os/common/ports/ARMCMx/compilers/GCC/chtypes.h"
 2750              		.file 14 "../../../ChibiOSRepo/chibios191/os/rt/include/chsystypes.h"
 2751              		.file 15 "../../../ChibiOSRepo/chibios191/os/rt/include/chtime.h"
 2752              		.file 16 "../../../ChibiOSRepo/chibios191/os/common/ext/ARM/CMSIS/Core/Include/core_cm4.h"
 2753              		.file 17 "../../../ChibiOSRepo/chibios191/os/common/ext/ST/STM32F4xx/system_stm32f4xx.h"
 2754              		.file 18 "../../../ChibiOSRepo/chibios191/os/common/ext/ST/STM32F4xx/stm32f407xx.h"
 2755              		.file 19 "../../../ChibiOSRepo/chibios191/os/common/ports/ARMCMx/chcore.h"
 2756              		.file 20 "../../../ChibiOSRepo/chibios191/os/common/ports/ARMCMx/chcore_v7m.h"
 2757              		.file 21 "../../../ChibiOSRepo/chibios191/os/hal/ports/STM32/LLD/TIMv1/stm32_tim.h"
 2758              		.file 22 "../../../ChibiOSRepo/chibios191/os/rt/include/chtrace.h"
 2759              		.file 23 "../../../ChibiOSRepo/chibios191/os/rt/include/chtm.h"
 2760              		.file 24 "../../../ChibiOSRepo/chibios191/os/rt/include/chstats.h"
 2761              		.file 25 "../../../ChibiOSRepo/chibios191/os/rt/include/chsem.h"
 2762              		.file 26 "../../../ChibiOSRepo/chibios191/os/rt/include/chmtx.h"
 2763              		.file 27 "../../../ChibiOSRepo/chibios191/os/rt/include/chregistry.h"
 2764              		.file 28 "../../../ChibiOSRepo/chibios191/os/rt/include/chevents.h"
 2765              		.file 29 "../../../ChibiOSRepo/chibios191/os/oslib/include/chmemcore.h"
 2766              		.file 30 "../../../ChibiOSRepo/chibios191/os/oslib/include/chmempools.h"
 2767              		.file 31 "../../../ChibiOSRepo/chibios191/os/oslib/include/chfactory.h"
 2768              		.file 32 "../../../ChibiOSRepo/chibios191/os/hal/ports/STM32/LLD/DMAv2/stm32_dma.h"
 2769              		.file 33 "../../../ChibiOSRepo/chibios191/os/hal/include/hal_ioblock.h"
 2770              		.file 34 "../../../ChibiOSRepo/chibios191/os/hal/include/hal_persistent.h"
 2771              		.file 35 "../../../ChibiOSRepo/chibios191/os/hal/include/hal_buffers.h"
 2772              		.file 36 "../../../ChibiOSRepo/chibios191/os/hal/include/hal_queues.h"
 2773              		.file 37 "../../../ChibiOSRepo/chibios191/os/hal/include/hal_pal.h"
 2774              		.file 38 "../../../ChibiOSRepo/chibios191/os/hal/ports/STM32/LLD/GPIOv2/stm32_gpio.h"
 2775              		.file 39 "../../../ChibiOSRepo/chibios191/os/hal/ports/STM32/LLD/GPIOv2/hal_pal_lld.h"
 2776              		.file 40 "../../../ChibiOSRepo/chibios191/os/hal/include/hal_gpt.h"
 2777              		.file 41 "../../../ChibiOSRepo/chibios191/os/hal/ports/STM32/LLD/TIMv1/hal_gpt_lld.h"
 2778              		.file 42 "../../../ChibiOSRepo/chibios191/os/hal/include/hal_i2c.h"
 2779              		.file 43 "../../../ChibiOSRepo/chibios191/os/hal/ports/STM32/LLD/I2Cv1/hal_i2c_lld.h"
 2780              		.file 44 "c:\\chibistudio\\tools\\gnu tools arm embedded\\7.0 2017q4\\arm-none-eabi\\include\\time
 2781              		.file 45 "../../../ChibiOSRepo/chibios191/os/hal/include/hal_rtc.h"
 2782              		.file 46 "../../../ChibiOSRepo/chibios191/os/hal/ports/STM32/LLD/RTCv2/hal_rtc_lld.h"
 2783              		.file 47 "../../../ChibiOSRepo/chibios191/os/hal/include/hal_serial.h"
 2784              		.file 48 "../../../ChibiOSRepo/chibios191/os/hal/ports/STM32/LLD/USARTv1/hal_serial_lld.h"
 2785              		.file 49 "../../../ChibiOSRepo/chibios191/os/hal/include/hal_sdc.h"
 2786              		.file 50 "../../../ChibiOSRepo/chibios191/os/hal/ports/STM32/LLD/SDIOv1/hal_sdc_lld.h"
 2787              		.file 51 "../../../ChibiOSRepo/chibios191/os/hal/include/hal_spi.h"
 2788              		.file 52 "../../../ChibiOSRepo/chibios191/os/hal/ports/STM32/LLD/SPIv1/hal_spi_lld.h"
 2789              		.file 53 "../../../ChibiOSRepo/chibios191/os/rt/include/chthreads.h"
 2790              		.file 54 "../../../ChibiOSRepo/chibios191/os/rt/include/chdebug.h"
 2791              		.file 55 "../../../ChibiOSRepo/chibios191/os/rt/include/ch.h"
 2792              		.file 56 "<built-in>"