ARM GAS  C:\Users\RAKIBU~1\AppData\Local\Temp\cceTaPgf.s 			page 1


   1              		.cpu cortex-m4
   2              		.eabi_attribute 20, 1
   3              		.eabi_attribute 21, 1
   4              		.eabi_attribute 23, 3
   5              		.eabi_attribute 24, 1
   6              		.eabi_attribute 25, 1
   7              		.eabi_attribute 26, 1
   8              		.eabi_attribute 30, 1
   9              		.eabi_attribute 34, 1
  10              		.eabi_attribute 18, 4
  11              		.file	"hal_spi_lld.c"
  12              		.text
  13              	.Ltext0:
  14              		.cfi_sections	.debug_frame
  15              		.align	1
  16              		.p2align 4,,15
  17              		.syntax unified
  18              		.thumb
  19              		.thumb_func
  20              		.fpu softvfp
  21              		.type	spi_lld_serve_tx_interrupt, %function
  22              	spi_lld_serve_tx_interrupt:
  23              	.LFB329:
  24              		.file 1 "../../../ChibiOSRepo/chibios191/os/hal/ports/STM32/LLD/SPIv1/hal_spi_lld.c"
  25              		.loc 1 170 0
  26              		.cfi_startproc
  27              		@ args = 0, pretend = 0, frame = 0
  28              		@ frame_needed = 0, uses_anonymous_args = 0
  29              	.LVL0:
  30              		.loc 1 175 0
  31 0000 11F00C0F 		tst	r1, #12
  32 0004 00D1     		bne	.L7
  33 0006 7047     		bx	lr
  34              	.L7:
  35              		.loc 1 170 0
  36 0008 08B5     		push	{r3, lr}
  37              		.cfi_def_cfa_offset 8
  38              		.cfi_offset 3, -8
  39              		.cfi_offset 14, -4
  40              	.LVL1:
  41              	.LBB58:
  42              	.LBB59:
  43              		.file 2 "../../../ChibiOSRepo/chibios191/os/hal/osal/rt/osal.h"
  44              		.loc 2 480 0
  45 000a 0248     		ldr	r0, .L8
  46              	.LVL2:
  47 000c FFF7FEFF 		bl	chSysHalt
  48              	.LVL3:
  49              	.LBE59:
  50              	.LBE58:
  51              		.loc 1 182 0
  52 0010 08BD     		pop	{r3, pc}
  53              	.L9:
  54 0012 00BF     		.align	2
  55              	.L8:
  56 0014 00000000 		.word	.LC0
  57              		.cfi_endproc
ARM GAS  C:\Users\RAKIBU~1\AppData\Local\Temp\cceTaPgf.s 			page 2


  58              	.LFE329:
  59              		.size	spi_lld_serve_tx_interrupt, .-spi_lld_serve_tx_interrupt
  60              		.align	1
  61 0018 AFF30080 		.p2align 4,,15
  61      AFF30080 
  62              		.syntax unified
  63              		.thumb
  64              		.thumb_func
  65              		.fpu softvfp
  66              		.type	spi_lld_serve_rx_interrupt, %function
  67              	spi_lld_serve_rx_interrupt:
  68              	.LFB328:
  69              		.loc 1 132 0
  70              		.cfi_startproc
  71              		@ args = 0, pretend = 0, frame = 0
  72              		@ frame_needed = 0, uses_anonymous_args = 0
  73              	.LVL4:
  74 0020 38B5     		push	{r3, r4, r5, lr}
  75              		.cfi_def_cfa_offset 16
  76              		.cfi_offset 3, -16
  77              		.cfi_offset 4, -12
  78              		.cfi_offset 5, -8
  79              		.cfi_offset 14, -4
  80 0022 0446     		mov	r4, r0
  81 0024 0D46     		mov	r5, r1
  82              		.loc 1 136 0
  83 0026 11F00C0F 		tst	r1, #12
  84 002a 1BD1     		bne	.L20
  85              	.LVL5:
  86              	.L11:
  87              		.loc 1 143 0
  88 002c 6368     		ldr	r3, [r4, #4]
  89 002e 1A78     		ldrb	r2, [r3]	@ zero_extendqisi2
  90 0030 E2B1     		cbz	r2, .L12
  91              		.loc 1 144 0
  92 0032 15F0100F 		tst	r5, #16
  93 0036 03D0     		beq	.L13
  94              		.loc 1 146 0
  95 0038 5B68     		ldr	r3, [r3, #4]
  96 003a 0BB1     		cbz	r3, .L13
  97              		.loc 1 146 0 is_stmt 0 discriminator 1
  98 003c 2046     		mov	r0, r4
  99 003e 9847     		blx	r3
 100              	.LVL6:
 101              	.L13:
 102              		.loc 1 148 0 is_stmt 1
 103 0040 15F0200F 		tst	r5, #32
 104 0044 52D0     		beq	.L10
 105              		.loc 1 150 0
 106 0046 6368     		ldr	r3, [r4, #4]
 107 0048 5A68     		ldr	r2, [r3, #4]
 108 004a 002A     		cmp	r2, #0
 109 004c 4ED0     		beq	.L10
 110              		.loc 1 150 0 is_stmt 0 discriminator 1
 111 004e 0422     		movs	r2, #4
 112 0050 2270     		strb	r2, [r4]
 113 0052 5B68     		ldr	r3, [r3, #4]
ARM GAS  C:\Users\RAKIBU~1\AppData\Local\Temp\cceTaPgf.s 			page 3


 114 0054 2046     		mov	r0, r4
 115 0056 9847     		blx	r3
 116              	.LVL7:
 117 0058 2378     		ldrb	r3, [r4]	@ zero_extendqisi2
 118 005a 042B     		cmp	r3, #4
 119 005c 46D1     		bne	.L10
 120              		.loc 1 150 0 discriminator 2
 121 005e 0323     		movs	r3, #3
 122 0060 2370     		strb	r3, [r4]
 123 0062 43E0     		b	.L10
 124              	.LVL8:
 125              	.L20:
 126              	.LBB60:
 127              	.LBB61:
 128              		.loc 2 480 0 is_stmt 1
 129 0064 2548     		ldr	r0, .L22
 130              	.LVL9:
 131 0066 FFF7FEFF 		bl	chSysHalt
 132              	.LVL10:
 133 006a DFE7     		b	.L11
 134              	.LVL11:
 135              	.L12:
 136              	.LBE61:
 137              	.LBE60:
 138              		.loc 1 155 0
 139 006c 636A     		ldr	r3, [r4, #36]
 140 006e 1A68     		ldr	r2, [r3]
 141 0070 1368     		ldr	r3, [r2]
 142 0072 23F01F03 		bic	r3, r3, #31
 143 0076 1360     		str	r3, [r2]
 144              	.L15:
 145              		.loc 1 155 0 is_stmt 0 discriminator 2
 146 0078 636A     		ldr	r3, [r4, #36]
 147 007a 1A68     		ldr	r2, [r3]
 148 007c 1268     		ldr	r2, [r2]
 149 007e 12F0010F 		tst	r2, #1
 150 0082 F9D1     		bne	.L15
 151              		.loc 1 155 0 discriminator 3
 152 0084 597A     		ldrb	r1, [r3, #9]	@ zero_extendqisi2
 153 0086 5A68     		ldr	r2, [r3, #4]
 154 0088 3D23     		movs	r3, #61
 155 008a 8B40     		lsls	r3, r3, r1
 156 008c 1360     		str	r3, [r2]
 157              		.loc 1 156 0 is_stmt 1 discriminator 3
 158 008e 236A     		ldr	r3, [r4, #32]
 159 0090 1A68     		ldr	r2, [r3]
 160 0092 1368     		ldr	r3, [r2]
 161 0094 23F01F03 		bic	r3, r3, #31
 162 0098 1360     		str	r3, [r2]
 163              	.L16:
 164              		.loc 1 156 0 is_stmt 0 discriminator 2
 165 009a 236A     		ldr	r3, [r4, #32]
 166 009c 1A68     		ldr	r2, [r3]
 167 009e 1268     		ldr	r2, [r2]
 168 00a0 12F0010F 		tst	r2, #1
 169 00a4 F9D1     		bne	.L16
 170              		.loc 1 156 0 discriminator 3
ARM GAS  C:\Users\RAKIBU~1\AppData\Local\Temp\cceTaPgf.s 			page 4


 171 00a6 597A     		ldrb	r1, [r3, #9]	@ zero_extendqisi2
 172 00a8 5A68     		ldr	r2, [r3, #4]
 173 00aa 3D23     		movs	r3, #61
 174 00ac 8B40     		lsls	r3, r3, r1
 175 00ae 1360     		str	r3, [r2]
 176              		.loc 1 160 0 is_stmt 1 discriminator 3
 177 00b0 6368     		ldr	r3, [r4, #4]
 178 00b2 5A68     		ldr	r2, [r3, #4]
 179 00b4 F2B1     		cbz	r2, .L17
 180              		.loc 1 160 0 is_stmt 0 discriminator 1
 181 00b6 0422     		movs	r2, #4
 182 00b8 2270     		strb	r2, [r4]
 183 00ba 5B68     		ldr	r3, [r3, #4]
 184 00bc 2046     		mov	r0, r4
 185 00be 9847     		blx	r3
 186              	.LVL12:
 187 00c0 2378     		ldrb	r3, [r4]	@ zero_extendqisi2
 188 00c2 042B     		cmp	r3, #4
 189 00c4 13D0     		beq	.L21
 190              	.L18:
 191              	.LVL13:
 192              	.LBB62:
 193              	.LBB63:
 194              	.LBB64:
 195              	.LBB65:
 196              	.LBB66:
 197              	.LBB67:
 198              	.LBB68:
 199              		.file 3 "../../../ChibiOSRepo/chibios191/os/common/ext/ARM/CMSIS/Core/Include/cmsis_gcc.h"
 200              		.loc 3 493 0 is_stmt 1 discriminator 4
 201 00c6 2023     		movs	r3, #32
 202              		.syntax unified
 203              	@ 493 "../../../ChibiOSRepo/chibios191/os/common/ext/ARM/CMSIS/Core/Include/cmsis_gcc.h" 1
 204 00c8 83F31188 		MSR basepri, r3
 205              	@ 0 "" 2
 206              	.LVL14:
 207              		.thumb
 208              		.syntax unified
 209              	.LBE68:
 210              	.LBE67:
 211              	.LBE66:
 212              	.LBE65:
 213              		.file 4 "../../../ChibiOSRepo/chibios191/os/rt/include/chsys.h"
 214              		.loc 4 396 0 discriminator 4
 215 00cc FFF7FEFF 		bl	_stats_start_measure_crit_isr
 216              	.LVL15:
 217              		.loc 4 397 0 discriminator 4
 218 00d0 FFF7FEFF 		bl	_dbg_check_lock_from_isr
 219              	.LVL16:
 220              	.LBE64:
 221              	.LBE63:
 222              	.LBE62:
 223              	.LBB69:
 224              	.LBB70:
 225              		.loc 2 775 0 discriminator 4
 226 00d4 0021     		movs	r1, #0
 227 00d6 04F10800 		add	r0, r4, #8
ARM GAS  C:\Users\RAKIBU~1\AppData\Local\Temp\cceTaPgf.s 			page 5


 228              	.LVL17:
 229 00da FFF7FEFF 		bl	chThdResumeI
 230              	.LVL18:
 231              	.LBE70:
 232              	.LBE69:
 233              	.LBB71:
 234              	.LBB72:
 235              	.LBB73:
 236              		.loc 4 415 0 discriminator 4
 237 00de FFF7FEFF 		bl	_dbg_check_unlock_from_isr
 238              	.LVL19:
 239              		.loc 4 416 0 discriminator 4
 240 00e2 FFF7FEFF 		bl	_stats_stop_measure_crit_isr
 241              	.LVL20:
 242              	.LBB74:
 243              	.LBB75:
 244              	.LBB76:
 245              	.LBB77:
 246              		.loc 3 493 0 discriminator 4
 247 00e6 0023     		movs	r3, #0
 248              		.syntax unified
 249              	@ 493 "../../../ChibiOSRepo/chibios191/os/common/ext/ARM/CMSIS/Core/Include/cmsis_gcc.h" 1
 250 00e8 83F31188 		MSR basepri, r3
 251              	@ 0 "" 2
 252              	.LVL21:
 253              		.thumb
 254              		.syntax unified
 255              	.L10:
 256              	.LBE77:
 257              	.LBE76:
 258              	.LBE75:
 259              	.LBE74:
 260              	.LBE73:
 261              	.LBE72:
 262              	.LBE71:
 263              		.loc 1 162 0
 264 00ec 38BD     		pop	{r3, r4, r5, pc}
 265              	.LVL22:
 266              	.L21:
 267              		.loc 1 160 0 discriminator 3
 268 00ee 0223     		movs	r3, #2
 269 00f0 2370     		strb	r3, [r4]
 270 00f2 E8E7     		b	.L18
 271              	.L17:
 272              		.loc 1 160 0 is_stmt 0 discriminator 2
 273 00f4 0223     		movs	r3, #2
 274 00f6 2370     		strb	r3, [r4]
 275 00f8 E5E7     		b	.L18
 276              	.L23:
 277 00fa 00BF     		.align	2
 278              	.L22:
 279 00fc 00000000 		.word	.LC0
 280              		.cfi_endproc
 281              	.LFE328:
 282              		.size	spi_lld_serve_rx_interrupt, .-spi_lld_serve_rx_interrupt
 283              		.align	1
 284              		.p2align 4,,15
ARM GAS  C:\Users\RAKIBU~1\AppData\Local\Temp\cceTaPgf.s 			page 6


 285              		.global	spi_lld_init
 286              		.syntax unified
 287              		.thumb
 288              		.thumb_func
 289              		.fpu softvfp
 290              		.type	spi_lld_init, %function
 291              	spi_lld_init:
 292              	.LFB330:
 293              		.loc 1 197 0 is_stmt 1
 294              		.cfi_startproc
 295              		@ args = 0, pretend = 0, frame = 0
 296              		@ frame_needed = 0, uses_anonymous_args = 0
 297 0100 38B5     		push	{r3, r4, r5, lr}
 298              		.cfi_def_cfa_offset 16
 299              		.cfi_offset 3, -16
 300              		.cfi_offset 4, -12
 301              		.cfi_offset 5, -8
 302              		.cfi_offset 14, -4
 303              		.loc 1 200 0
 304 0102 0D4C     		ldr	r4, .L26
 305 0104 2046     		mov	r0, r4
 306 0106 FFF7FEFF 		bl	spiObjectInit
 307              	.LVL23:
 308              		.loc 1 201 0
 309 010a 0C4B     		ldr	r3, .L26+4
 310 010c E361     		str	r3, [r4, #28]
 311              		.loc 1 202 0
 312 010e 0025     		movs	r5, #0
 313 0110 2562     		str	r5, [r4, #32]
 314              		.loc 1 203 0
 315 0112 6562     		str	r5, [r4, #36]
 316              		.loc 1 204 0
 317 0114 0A4B     		ldr	r3, .L26+8
 318 0116 A362     		str	r3, [r4, #40]
 319              		.loc 1 210 0
 320 0118 3033     		adds	r3, r3, #48
 321 011a E362     		str	r3, [r4, #44]
 322              		.loc 1 218 0
 323 011c 094C     		ldr	r4, .L26+12
 324 011e 2046     		mov	r0, r4
 325 0120 FFF7FEFF 		bl	spiObjectInit
 326              	.LVL24:
 327              		.loc 1 219 0
 328 0124 084B     		ldr	r3, .L26+16
 329 0126 E361     		str	r3, [r4, #28]
 330              		.loc 1 220 0
 331 0128 2562     		str	r5, [r4, #32]
 332              		.loc 1 221 0
 333 012a 6562     		str	r5, [r4, #36]
 334              		.loc 1 222 0
 335 012c 074B     		ldr	r3, .L26+20
 336 012e A362     		str	r3, [r4, #40]
 337              		.loc 1 228 0
 338 0130 3033     		adds	r3, r3, #48
 339 0132 E362     		str	r3, [r4, #44]
 340              		.loc 1 306 0
 341 0134 38BD     		pop	{r3, r4, r5, pc}
ARM GAS  C:\Users\RAKIBU~1\AppData\Local\Temp\cceTaPgf.s 			page 7


 342              	.L27:
 343 0136 00BF     		.align	2
 344              	.L26:
 345 0138 00000000 		.word	SPID1
 346 013c 00300140 		.word	1073819648
 347 0140 16000306 		.word	100859926
 348 0144 00000000 		.word	SPID2
 349 0148 00380040 		.word	1073756160
 350 014c 16000100 		.word	65558
 351              		.cfi_endproc
 352              	.LFE330:
 353              		.size	spi_lld_init, .-spi_lld_init
 354              		.align	1
 355              		.p2align 4,,15
 356              		.global	spi_lld_start
 357              		.syntax unified
 358              		.thumb
 359              		.thumb_func
 360              		.fpu softvfp
 361              		.type	spi_lld_start, %function
 362              	spi_lld_start:
 363              	.LFB331:
 364              		.loc 1 315 0
 365              		.cfi_startproc
 366              		@ args = 0, pretend = 0, frame = 0
 367              		@ frame_needed = 0, uses_anonymous_args = 0
 368              	.LVL25:
 369 0150 10B5     		push	{r4, lr}
 370              		.cfi_def_cfa_offset 8
 371              		.cfi_offset 4, -8
 372              		.cfi_offset 14, -4
 373 0152 0446     		mov	r4, r0
 374              		.loc 1 318 0
 375 0154 0378     		ldrb	r3, [r0]	@ zero_extendqisi2
 376 0156 012B     		cmp	r3, #1
 377 0158 31D0     		beq	.L41
 378              	.LVL26:
 379              	.L29:
 380              		.loc 1 416 0
 381 015a 6368     		ldr	r3, [r4, #4]
 382 015c 1B8A     		ldrh	r3, [r3, #16]
 383 015e 13F4006F 		tst	r3, #2048
 384 0162 40F08380 		bne	.L36
 385              		.loc 1 418 0
 386 0166 A36A     		ldr	r3, [r4, #40]
 387              		.loc 1 419 0
 388 0168 23F4F043 		bic	r3, r3, #30720
 389              		.loc 1 418 0
 390 016c A362     		str	r3, [r4, #40]
 391              		.loc 1 420 0
 392 016e E36A     		ldr	r3, [r4, #44]
 393              		.loc 1 421 0
 394 0170 23F4F043 		bic	r3, r3, #30720
 395              		.loc 1 420 0
 396 0174 E362     		str	r3, [r4, #44]
 397              	.L37:
 398              		.loc 1 431 0
ARM GAS  C:\Users\RAKIBU~1\AppData\Local\Temp\cceTaPgf.s 			page 8


 399 0176 6368     		ldr	r3, [r4, #4]
 400 0178 1B78     		ldrb	r3, [r3]	@ zero_extendqisi2
 401 017a 002B     		cmp	r3, #0
 402 017c 40F08380 		bne	.L42
 403              		.loc 1 436 0
 404 0180 A36A     		ldr	r3, [r4, #40]
 405 0182 23F48473 		bic	r3, r3, #264
 406 0186 A362     		str	r3, [r4, #40]
 407              		.loc 1 437 0
 408 0188 E36A     		ldr	r3, [r4, #44]
 409 018a 23F48473 		bic	r3, r3, #264
 410 018e E362     		str	r3, [r4, #44]
 411              	.L39:
 412              		.loc 1 441 0
 413 0190 E269     		ldr	r2, [r4, #28]
 414 0192 1368     		ldr	r3, [r2]
 415 0194 23F04003 		bic	r3, r3, #64
 416 0198 1360     		str	r3, [r2]
 417              		.loc 1 442 0
 418 019a 6368     		ldr	r3, [r4, #4]
 419 019c 1B8A     		ldrh	r3, [r3, #16]
 420 019e E269     		ldr	r2, [r4, #28]
 421 01a0 43F44173 		orr	r3, r3, #772
 422 01a4 1360     		str	r3, [r2]
 423              		.loc 1 444 0
 424 01a6 6368     		ldr	r3, [r4, #4]
 425 01a8 5B8A     		ldrh	r3, [r3, #18]
 426 01aa E269     		ldr	r2, [r4, #28]
 427 01ac 43F00703 		orr	r3, r3, #7
 428 01b0 5360     		str	r3, [r2, #4]
 429              		.loc 1 446 0
 430 01b2 E269     		ldr	r2, [r4, #28]
 431 01b4 1368     		ldr	r3, [r2]
 432 01b6 43F04003 		orr	r3, r3, #64
 433 01ba 1360     		str	r3, [r2]
 434              		.loc 1 447 0
 435 01bc 10BD     		pop	{r4, pc}
 436              	.LVL27:
 437              	.L41:
 438              		.loc 1 320 0
 439 01be 364B     		ldr	r3, .L49
 440 01c0 9842     		cmp	r0, r3
 441 01c2 0DD0     		beq	.L43
 442              	.LVL28:
 443              	.L30:
 444              		.loc 1 335 0
 445 01c4 354B     		ldr	r3, .L49+4
 446 01c6 9C42     		cmp	r4, r3
 447 01c8 2DD0     		beq	.L44
 448              	.L33:
 449              		.loc 1 411 0
 450 01ca E369     		ldr	r3, [r4, #28]
 451 01cc 0C33     		adds	r3, r3, #12
 452 01ce 226A     		ldr	r2, [r4, #32]
 453 01d0 1268     		ldr	r2, [r2]
 454 01d2 9360     		str	r3, [r2, #8]
 455              		.loc 1 412 0
ARM GAS  C:\Users\RAKIBU~1\AppData\Local\Temp\cceTaPgf.s 			page 9


 456 01d4 E369     		ldr	r3, [r4, #28]
 457 01d6 0C33     		adds	r3, r3, #12
 458 01d8 626A     		ldr	r2, [r4, #36]
 459 01da 1268     		ldr	r2, [r2]
 460 01dc 9360     		str	r3, [r2, #8]
 461 01de BCE7     		b	.L29
 462              	.LVL29:
 463              	.L43:
 464              		.loc 1 321 0
 465 01e0 0346     		mov	r3, r0
 466 01e2 2F4A     		ldr	r2, .L49+8
 467 01e4 0221     		movs	r1, #2
 468 01e6 0820     		movs	r0, #8
 469              	.LVL30:
 470 01e8 FFF7FEFF 		bl	dmaStreamAllocI
 471              	.LVL31:
 472 01ec 2062     		str	r0, [r4, #32]
 473              		.loc 1 325 0
 474 01ee 90B1     		cbz	r0, .L45
 475              	.L31:
 476              		.loc 1 326 0
 477 01f0 2346     		mov	r3, r4
 478 01f2 2C4A     		ldr	r2, .L49+12
 479 01f4 0221     		movs	r1, #2
 480 01f6 0B20     		movs	r0, #11
 481 01f8 FFF7FEFF 		bl	dmaStreamAllocI
 482              	.LVL32:
 483 01fc 6062     		str	r0, [r4, #36]
 484              		.loc 1 330 0
 485 01fe 70B1     		cbz	r0, .L46
 486              	.L32:
 487              		.loc 1 331 0
 488 0200 294B     		ldr	r3, .L49+16
 489 0202 5A6C     		ldr	r2, [r3, #68]
 490 0204 42F48052 		orr	r2, r2, #4096
 491 0208 5A64     		str	r2, [r3, #68]
 492 020a 5A6E     		ldr	r2, [r3, #100]
 493 020c 42F48052 		orr	r2, r2, #4096
 494 0210 5A66     		str	r2, [r3, #100]
 495 0212 5B6E     		ldr	r3, [r3, #100]
 496 0214 D6E7     		b	.L30
 497              	.L45:
 498              		.loc 1 325 0 discriminator 2
 499 0216 2548     		ldr	r0, .L49+20
 500 0218 FFF7FEFF 		bl	chSysHalt
 501              	.LVL33:
 502 021c E8E7     		b	.L31
 503              	.L46:
 504              		.loc 1 330 0 discriminator 2
 505 021e 2348     		ldr	r0, .L49+20
 506 0220 FFF7FEFF 		bl	chSysHalt
 507              	.LVL34:
 508 0224 ECE7     		b	.L32
 509              	.L44:
 510              		.loc 1 336 0
 511 0226 2346     		mov	r3, r4
 512 0228 1D4A     		ldr	r2, .L49+8
ARM GAS  C:\Users\RAKIBU~1\AppData\Local\Temp\cceTaPgf.s 			page 10


 513 022a 0A21     		movs	r1, #10
 514 022c 0320     		movs	r0, #3
 515 022e FFF7FEFF 		bl	dmaStreamAllocI
 516              	.LVL35:
 517 0232 2062     		str	r0, [r4, #32]
 518              		.loc 1 340 0
 519 0234 90B1     		cbz	r0, .L47
 520              	.L34:
 521              		.loc 1 341 0
 522 0236 2346     		mov	r3, r4
 523 0238 1A4A     		ldr	r2, .L49+12
 524 023a 0A21     		movs	r1, #10
 525 023c 0420     		movs	r0, #4
 526 023e FFF7FEFF 		bl	dmaStreamAllocI
 527              	.LVL36:
 528 0242 6062     		str	r0, [r4, #36]
 529              		.loc 1 345 0
 530 0244 70B1     		cbz	r0, .L48
 531              	.L35:
 532              		.loc 1 346 0
 533 0246 184B     		ldr	r3, .L49+16
 534 0248 1A6C     		ldr	r2, [r3, #64]
 535 024a 42F48042 		orr	r2, r2, #16384
 536 024e 1A64     		str	r2, [r3, #64]
 537 0250 1A6E     		ldr	r2, [r3, #96]
 538 0252 42F48042 		orr	r2, r2, #16384
 539 0256 1A66     		str	r2, [r3, #96]
 540 0258 1B6E     		ldr	r3, [r3, #96]
 541 025a B6E7     		b	.L33
 542              	.L47:
 543              		.loc 1 340 0 discriminator 2
 544 025c 1348     		ldr	r0, .L49+20
 545 025e FFF7FEFF 		bl	chSysHalt
 546              	.LVL37:
 547 0262 E8E7     		b	.L34
 548              	.L48:
 549              		.loc 1 345 0 discriminator 2
 550 0264 1148     		ldr	r0, .L49+20
 551 0266 FFF7FEFF 		bl	chSysHalt
 552              	.LVL38:
 553 026a ECE7     		b	.L35
 554              	.L36:
 555              		.loc 1 425 0
 556 026c A36A     		ldr	r3, [r4, #40]
 557 026e 23F4F043 		bic	r3, r3, #30720
 558              		.loc 1 426 0
 559 0272 43F42053 		orr	r3, r3, #10240
 560              		.loc 1 425 0
 561 0276 A362     		str	r3, [r4, #40]
 562              		.loc 1 427 0
 563 0278 E36A     		ldr	r3, [r4, #44]
 564 027a 23F4F043 		bic	r3, r3, #30720
 565              		.loc 1 428 0
 566 027e 43F42053 		orr	r3, r3, #10240
 567              		.loc 1 427 0
 568 0282 E362     		str	r3, [r4, #44]
 569 0284 77E7     		b	.L37
ARM GAS  C:\Users\RAKIBU~1\AppData\Local\Temp\cceTaPgf.s 			page 11


 570              	.L42:
 571              		.loc 1 432 0
 572 0286 A36A     		ldr	r3, [r4, #40]
 573 0288 43F48473 		orr	r3, r3, #264
 574 028c A362     		str	r3, [r4, #40]
 575              		.loc 1 433 0
 576 028e E36A     		ldr	r3, [r4, #44]
 577 0290 43F48473 		orr	r3, r3, #264
 578 0294 E362     		str	r3, [r4, #44]
 579 0296 7BE7     		b	.L39
 580              	.L50:
 581              		.align	2
 582              	.L49:
 583 0298 00000000 		.word	SPID1
 584 029c 00000000 		.word	SPID2
 585 02a0 00000000 		.word	spi_lld_serve_rx_interrupt
 586 02a4 00000000 		.word	spi_lld_serve_tx_interrupt
 587 02a8 00380240 		.word	1073887232
 588 02ac 00000000 		.word	.LANCHOR0
 589              		.cfi_endproc
 590              	.LFE331:
 591              		.size	spi_lld_start, .-spi_lld_start
 592              		.align	1
 593              		.p2align 4,,15
 594              		.global	spi_lld_stop
 595              		.syntax unified
 596              		.thumb
 597              		.thumb_func
 598              		.fpu softvfp
 599              		.type	spi_lld_stop, %function
 600              	spi_lld_stop:
 601              	.LFB332:
 602              		.loc 1 456 0
 603              		.cfi_startproc
 604              		@ args = 0, pretend = 0, frame = 0
 605              		@ frame_needed = 0, uses_anonymous_args = 0
 606              	.LVL39:
 607 02b0 38B5     		push	{r3, r4, r5, lr}
 608              		.cfi_def_cfa_offset 16
 609              		.cfi_offset 3, -16
 610              		.cfi_offset 4, -12
 611              		.cfi_offset 5, -8
 612              		.cfi_offset 14, -4
 613              		.loc 1 459 0
 614 02b2 0378     		ldrb	r3, [r0]	@ zero_extendqisi2
 615 02b4 022B     		cmp	r3, #2
 616 02b6 00D0     		beq	.L55
 617              	.LVL40:
 618              	.L51:
 619              		.loc 1 495 0
 620 02b8 38BD     		pop	{r3, r4, r5, pc}
 621              	.LVL41:
 622              	.L55:
 623 02ba 0446     		mov	r4, r0
 624              		.loc 1 462 0
 625 02bc C269     		ldr	r2, [r0, #28]
 626 02be 1368     		ldr	r3, [r2]
ARM GAS  C:\Users\RAKIBU~1\AppData\Local\Temp\cceTaPgf.s 			page 12


 627 02c0 23F04003 		bic	r3, r3, #64
 628 02c4 1360     		str	r3, [r2]
 629              		.loc 1 463 0
 630 02c6 C369     		ldr	r3, [r0, #28]
 631 02c8 0025     		movs	r5, #0
 632 02ca 1D60     		str	r5, [r3]
 633              		.loc 1 464 0
 634 02cc C369     		ldr	r3, [r0, #28]
 635 02ce 5D60     		str	r5, [r3, #4]
 636              		.loc 1 465 0
 637 02d0 006A     		ldr	r0, [r0, #32]
 638              	.LVL42:
 639 02d2 FFF7FEFF 		bl	dmaStreamFreeI
 640              	.LVL43:
 641              		.loc 1 466 0
 642 02d6 606A     		ldr	r0, [r4, #36]
 643 02d8 FFF7FEFF 		bl	dmaStreamFreeI
 644              	.LVL44:
 645              		.loc 1 467 0
 646 02dc 2562     		str	r5, [r4, #32]
 647              		.loc 1 468 0
 648 02de 6562     		str	r5, [r4, #36]
 649              		.loc 1 471 0
 650 02e0 0D4B     		ldr	r3, .L57
 651 02e2 9C42     		cmp	r4, r3
 652 02e4 0DD0     		beq	.L56
 653              	.L53:
 654              		.loc 1 475 0
 655 02e6 0D4B     		ldr	r3, .L57+4
 656 02e8 9C42     		cmp	r4, r3
 657 02ea E5D1     		bne	.L51
 658              		.loc 1 476 0
 659 02ec 0C4B     		ldr	r3, .L57+8
 660 02ee 1A6C     		ldr	r2, [r3, #64]
 661 02f0 22F48042 		bic	r2, r2, #16384
 662 02f4 1A64     		str	r2, [r3, #64]
 663 02f6 1A6E     		ldr	r2, [r3, #96]
 664 02f8 22F48042 		bic	r2, r2, #16384
 665 02fc 1A66     		str	r2, [r3, #96]
 666 02fe 1B6E     		ldr	r3, [r3, #96]
 667              		.loc 1 495 0
 668 0300 DAE7     		b	.L51
 669              	.L56:
 670              		.loc 1 472 0
 671 0302 074B     		ldr	r3, .L57+8
 672 0304 5A6C     		ldr	r2, [r3, #68]
 673 0306 22F48052 		bic	r2, r2, #4096
 674 030a 5A64     		str	r2, [r3, #68]
 675 030c 5A6E     		ldr	r2, [r3, #100]
 676 030e 22F48052 		bic	r2, r2, #4096
 677 0312 5A66     		str	r2, [r3, #100]
 678 0314 5B6E     		ldr	r3, [r3, #100]
 679 0316 E6E7     		b	.L53
 680              	.L58:
 681              		.align	2
 682              	.L57:
 683 0318 00000000 		.word	SPID1
ARM GAS  C:\Users\RAKIBU~1\AppData\Local\Temp\cceTaPgf.s 			page 13


 684 031c 00000000 		.word	SPID2
 685 0320 00380240 		.word	1073887232
 686              		.cfi_endproc
 687              	.LFE332:
 688              		.size	spi_lld_stop, .-spi_lld_stop
 689              		.align	1
 690 0324 AFF30080 		.p2align 4,,15
 690      AFF30080 
 690      AFF30080 
 691              		.global	spi_lld_ignore
 692              		.syntax unified
 693              		.thumb
 694              		.thumb_func
 695              		.fpu softvfp
 696              		.type	spi_lld_ignore, %function
 697              	spi_lld_ignore:
 698              	.LFB333:
 699              		.loc 1 535 0
 700              		.cfi_startproc
 701              		@ args = 0, pretend = 0, frame = 0
 702              		@ frame_needed = 0, uses_anonymous_args = 0
 703              	.LVL45:
 704 0330 38B5     		push	{r3, r4, r5, lr}
 705              		.cfi_def_cfa_offset 16
 706              		.cfi_offset 3, -16
 707              		.cfi_offset 4, -12
 708              		.cfi_offset 5, -8
 709              		.cfi_offset 14, -4
 710 0332 0446     		mov	r4, r0
 711 0334 0D46     		mov	r5, r1
 712              		.loc 1 537 0
 713 0336 B1F5803F 		cmp	r1, #65536
 714 033a 22D2     		bcs	.L62
 715              	.LVL46:
 716              	.L60:
 717              		.loc 1 539 0
 718 033c 236A     		ldr	r3, [r4, #32]
 719 033e 1B68     		ldr	r3, [r3]
 720 0340 124A     		ldr	r2, .L63
 721 0342 DA60     		str	r2, [r3, #12]
 722              		.loc 1 540 0
 723 0344 236A     		ldr	r3, [r4, #32]
 724 0346 1B68     		ldr	r3, [r3]
 725 0348 5D60     		str	r5, [r3, #4]
 726              		.loc 1 541 0
 727 034a 236A     		ldr	r3, [r4, #32]
 728 034c 1B68     		ldr	r3, [r3]
 729 034e A26A     		ldr	r2, [r4, #40]
 730 0350 1A60     		str	r2, [r3]
 731              		.loc 1 543 0
 732 0352 636A     		ldr	r3, [r4, #36]
 733 0354 1B68     		ldr	r3, [r3]
 734 0356 0E4A     		ldr	r2, .L63+4
 735 0358 DA60     		str	r2, [r3, #12]
 736              		.loc 1 544 0
 737 035a 636A     		ldr	r3, [r4, #36]
 738 035c 1B68     		ldr	r3, [r3]
ARM GAS  C:\Users\RAKIBU~1\AppData\Local\Temp\cceTaPgf.s 			page 14


 739 035e 5D60     		str	r5, [r3, #4]
 740              		.loc 1 545 0
 741 0360 636A     		ldr	r3, [r4, #36]
 742 0362 1B68     		ldr	r3, [r3]
 743 0364 E26A     		ldr	r2, [r4, #44]
 744 0366 1A60     		str	r2, [r3]
 745              		.loc 1 547 0
 746 0368 236A     		ldr	r3, [r4, #32]
 747 036a 1A68     		ldr	r2, [r3]
 748 036c 1368     		ldr	r3, [r2]
 749 036e 43F00103 		orr	r3, r3, #1
 750 0372 1360     		str	r3, [r2]
 751              		.loc 1 548 0
 752 0374 636A     		ldr	r3, [r4, #36]
 753 0376 1A68     		ldr	r2, [r3]
 754 0378 1368     		ldr	r3, [r2]
 755 037a 43F00103 		orr	r3, r3, #1
 756 037e 1360     		str	r3, [r2]
 757              		.loc 1 549 0
 758 0380 38BD     		pop	{r3, r4, r5, pc}
 759              	.LVL47:
 760              	.L62:
 761              		.loc 1 537 0 discriminator 2
 762 0382 0448     		ldr	r0, .L63+8
 763              	.LVL48:
 764 0384 FFF7FEFF 		bl	chSysHalt
 765              	.LVL49:
 766 0388 D8E7     		b	.L60
 767              	.L64:
 768 038a 00BF     		.align	2
 769              	.L63:
 770 038c 00000000 		.word	.LANCHOR1
 771 0390 20000000 		.word	.LANCHOR0+32
 772 0394 10000000 		.word	.LANCHOR0+16
 773              		.cfi_endproc
 774              	.LFE333:
 775              		.size	spi_lld_ignore, .-spi_lld_ignore
 776              		.align	1
 777 0398 AFF30080 		.p2align 4,,15
 777      AFF30080 
 778              		.global	spi_lld_exchange
 779              		.syntax unified
 780              		.thumb
 781              		.thumb_func
 782              		.fpu softvfp
 783              		.type	spi_lld_exchange, %function
 784              	spi_lld_exchange:
 785              	.LFB334:
 786              		.loc 1 567 0
 787              		.cfi_startproc
 788              		@ args = 0, pretend = 0, frame = 0
 789              		@ frame_needed = 0, uses_anonymous_args = 0
 790              	.LVL50:
 791 03a0 F8B5     		push	{r3, r4, r5, r6, r7, lr}
 792              		.cfi_def_cfa_offset 24
 793              		.cfi_offset 3, -24
 794              		.cfi_offset 4, -20
ARM GAS  C:\Users\RAKIBU~1\AppData\Local\Temp\cceTaPgf.s 			page 15


 795              		.cfi_offset 5, -16
 796              		.cfi_offset 6, -12
 797              		.cfi_offset 7, -8
 798              		.cfi_offset 14, -4
 799 03a2 0446     		mov	r4, r0
 800 03a4 0D46     		mov	r5, r1
 801 03a6 1646     		mov	r6, r2
 802 03a8 1F46     		mov	r7, r3
 803              		.loc 1 569 0
 804 03aa B1F5803F 		cmp	r1, #65536
 805 03ae 24D2     		bcs	.L68
 806              	.LVL51:
 807              	.L66:
 808              		.loc 1 571 0
 809 03b0 236A     		ldr	r3, [r4, #32]
 810 03b2 1B68     		ldr	r3, [r3]
 811 03b4 DF60     		str	r7, [r3, #12]
 812              		.loc 1 572 0
 813 03b6 236A     		ldr	r3, [r4, #32]
 814 03b8 1B68     		ldr	r3, [r3]
 815 03ba 5D60     		str	r5, [r3, #4]
 816              		.loc 1 573 0
 817 03bc A36A     		ldr	r3, [r4, #40]
 818 03be 226A     		ldr	r2, [r4, #32]
 819 03c0 1268     		ldr	r2, [r2]
 820 03c2 43F48063 		orr	r3, r3, #1024
 821 03c6 1360     		str	r3, [r2]
 822              		.loc 1 575 0
 823 03c8 636A     		ldr	r3, [r4, #36]
 824 03ca 1B68     		ldr	r3, [r3]
 825 03cc DE60     		str	r6, [r3, #12]
 826              		.loc 1 576 0
 827 03ce 636A     		ldr	r3, [r4, #36]
 828 03d0 1B68     		ldr	r3, [r3]
 829 03d2 5D60     		str	r5, [r3, #4]
 830              		.loc 1 577 0
 831 03d4 E36A     		ldr	r3, [r4, #44]
 832 03d6 626A     		ldr	r2, [r4, #36]
 833 03d8 1268     		ldr	r2, [r2]
 834 03da 43F48063 		orr	r3, r3, #1024
 835 03de 1360     		str	r3, [r2]
 836              		.loc 1 579 0
 837 03e0 236A     		ldr	r3, [r4, #32]
 838 03e2 1A68     		ldr	r2, [r3]
 839 03e4 1368     		ldr	r3, [r2]
 840 03e6 43F00103 		orr	r3, r3, #1
 841 03ea 1360     		str	r3, [r2]
 842              		.loc 1 580 0
 843 03ec 636A     		ldr	r3, [r4, #36]
 844 03ee 1A68     		ldr	r2, [r3]
 845 03f0 1368     		ldr	r3, [r2]
 846 03f2 43F00103 		orr	r3, r3, #1
 847 03f6 1360     		str	r3, [r2]
 848              		.loc 1 581 0
 849 03f8 F8BD     		pop	{r3, r4, r5, r6, r7, pc}
 850              	.LVL52:
 851              	.L68:
ARM GAS  C:\Users\RAKIBU~1\AppData\Local\Temp\cceTaPgf.s 			page 16


 852              		.loc 1 569 0 discriminator 2
 853 03fa 0248     		ldr	r0, .L69
 854              	.LVL53:
 855 03fc FFF7FEFF 		bl	chSysHalt
 856              	.LVL54:
 857 0400 D6E7     		b	.L66
 858              	.L70:
 859 0402 00BF     		.align	2
 860              	.L69:
 861 0404 24000000 		.word	.LANCHOR0+36
 862              		.cfi_endproc
 863              	.LFE334:
 864              		.size	spi_lld_exchange, .-spi_lld_exchange
 865              		.align	1
 866 0408 AFF30080 		.p2align 4,,15
 866      AFF30080 
 867              		.global	spi_lld_send
 868              		.syntax unified
 869              		.thumb
 870              		.thumb_func
 871              		.fpu softvfp
 872              		.type	spi_lld_send, %function
 873              	spi_lld_send:
 874              	.LFB335:
 875              		.loc 1 596 0
 876              		.cfi_startproc
 877              		@ args = 0, pretend = 0, frame = 0
 878              		@ frame_needed = 0, uses_anonymous_args = 0
 879              	.LVL55:
 880 0410 70B5     		push	{r4, r5, r6, lr}
 881              		.cfi_def_cfa_offset 16
 882              		.cfi_offset 4, -16
 883              		.cfi_offset 5, -12
 884              		.cfi_offset 6, -8
 885              		.cfi_offset 14, -4
 886 0412 0446     		mov	r4, r0
 887 0414 0D46     		mov	r5, r1
 888 0416 1646     		mov	r6, r2
 889              		.loc 1 598 0
 890 0418 B1F5803F 		cmp	r1, #65536
 891 041c 23D2     		bcs	.L74
 892              	.LVL56:
 893              	.L72:
 894              		.loc 1 600 0
 895 041e 236A     		ldr	r3, [r4, #32]
 896 0420 1B68     		ldr	r3, [r3]
 897 0422 134A     		ldr	r2, .L75
 898 0424 DA60     		str	r2, [r3, #12]
 899              		.loc 1 601 0
 900 0426 236A     		ldr	r3, [r4, #32]
 901 0428 1B68     		ldr	r3, [r3]
 902 042a 5D60     		str	r5, [r3, #4]
 903              		.loc 1 602 0
 904 042c 236A     		ldr	r3, [r4, #32]
 905 042e 1B68     		ldr	r3, [r3]
 906 0430 A26A     		ldr	r2, [r4, #40]
 907 0432 1A60     		str	r2, [r3]
ARM GAS  C:\Users\RAKIBU~1\AppData\Local\Temp\cceTaPgf.s 			page 17


 908              		.loc 1 604 0
 909 0434 636A     		ldr	r3, [r4, #36]
 910 0436 1B68     		ldr	r3, [r3]
 911 0438 DE60     		str	r6, [r3, #12]
 912              		.loc 1 605 0
 913 043a 636A     		ldr	r3, [r4, #36]
 914 043c 1B68     		ldr	r3, [r3]
 915 043e 5D60     		str	r5, [r3, #4]
 916              		.loc 1 606 0
 917 0440 E36A     		ldr	r3, [r4, #44]
 918 0442 626A     		ldr	r2, [r4, #36]
 919 0444 1268     		ldr	r2, [r2]
 920 0446 43F48063 		orr	r3, r3, #1024
 921 044a 1360     		str	r3, [r2]
 922              		.loc 1 608 0
 923 044c 236A     		ldr	r3, [r4, #32]
 924 044e 1A68     		ldr	r2, [r3]
 925 0450 1368     		ldr	r3, [r2]
 926 0452 43F00103 		orr	r3, r3, #1
 927 0456 1360     		str	r3, [r2]
 928              		.loc 1 609 0
 929 0458 636A     		ldr	r3, [r4, #36]
 930 045a 1A68     		ldr	r2, [r3]
 931 045c 1368     		ldr	r3, [r2]
 932 045e 43F00103 		orr	r3, r3, #1
 933 0462 1360     		str	r3, [r2]
 934              		.loc 1 610 0
 935 0464 70BD     		pop	{r4, r5, r6, pc}
 936              	.LVL57:
 937              	.L74:
 938              		.loc 1 598 0 discriminator 2
 939 0466 0348     		ldr	r0, .L75+4
 940              	.LVL58:
 941 0468 FFF7FEFF 		bl	chSysHalt
 942              	.LVL59:
 943 046c D7E7     		b	.L72
 944              	.L76:
 945 046e 00BF     		.align	2
 946              	.L75:
 947 0470 00000000 		.word	.LANCHOR1
 948 0474 38000000 		.word	.LANCHOR0+56
 949              		.cfi_endproc
 950              	.LFE335:
 951              		.size	spi_lld_send, .-spi_lld_send
 952              		.align	1
 953 0478 AFF30080 		.p2align 4,,15
 953      AFF30080 
 954              		.global	spi_lld_receive
 955              		.syntax unified
 956              		.thumb
 957              		.thumb_func
 958              		.fpu softvfp
 959              		.type	spi_lld_receive, %function
 960              	spi_lld_receive:
 961              	.LFB336:
 962              		.loc 1 625 0
 963              		.cfi_startproc
ARM GAS  C:\Users\RAKIBU~1\AppData\Local\Temp\cceTaPgf.s 			page 18


 964              		@ args = 0, pretend = 0, frame = 0
 965              		@ frame_needed = 0, uses_anonymous_args = 0
 966              	.LVL60:
 967 0480 70B5     		push	{r4, r5, r6, lr}
 968              		.cfi_def_cfa_offset 16
 969              		.cfi_offset 4, -16
 970              		.cfi_offset 5, -12
 971              		.cfi_offset 6, -8
 972              		.cfi_offset 14, -4
 973 0482 0446     		mov	r4, r0
 974 0484 0D46     		mov	r5, r1
 975 0486 1646     		mov	r6, r2
 976              		.loc 1 627 0
 977 0488 B1F5803F 		cmp	r1, #65536
 978 048c 23D2     		bcs	.L80
 979              	.LVL61:
 980              	.L78:
 981              		.loc 1 629 0
 982 048e 236A     		ldr	r3, [r4, #32]
 983 0490 1B68     		ldr	r3, [r3]
 984 0492 DE60     		str	r6, [r3, #12]
 985              		.loc 1 630 0
 986 0494 236A     		ldr	r3, [r4, #32]
 987 0496 1B68     		ldr	r3, [r3]
 988 0498 5D60     		str	r5, [r3, #4]
 989              		.loc 1 631 0
 990 049a A36A     		ldr	r3, [r4, #40]
 991 049c 226A     		ldr	r2, [r4, #32]
 992 049e 1268     		ldr	r2, [r2]
 993 04a0 43F48063 		orr	r3, r3, #1024
 994 04a4 1360     		str	r3, [r2]
 995              		.loc 1 633 0
 996 04a6 636A     		ldr	r3, [r4, #36]
 997 04a8 1B68     		ldr	r3, [r3]
 998 04aa 0D4A     		ldr	r2, .L81
 999 04ac DA60     		str	r2, [r3, #12]
 1000              		.loc 1 634 0
 1001 04ae 636A     		ldr	r3, [r4, #36]
 1002 04b0 1B68     		ldr	r3, [r3]
 1003 04b2 5D60     		str	r5, [r3, #4]
 1004              		.loc 1 635 0
 1005 04b4 636A     		ldr	r3, [r4, #36]
 1006 04b6 1B68     		ldr	r3, [r3]
 1007 04b8 E26A     		ldr	r2, [r4, #44]
 1008 04ba 1A60     		str	r2, [r3]
 1009              		.loc 1 637 0
 1010 04bc 236A     		ldr	r3, [r4, #32]
 1011 04be 1A68     		ldr	r2, [r3]
 1012 04c0 1368     		ldr	r3, [r2]
 1013 04c2 43F00103 		orr	r3, r3, #1
 1014 04c6 1360     		str	r3, [r2]
 1015              		.loc 1 638 0
 1016 04c8 636A     		ldr	r3, [r4, #36]
 1017 04ca 1A68     		ldr	r2, [r3]
 1018 04cc 1368     		ldr	r3, [r2]
 1019 04ce 43F00103 		orr	r3, r3, #1
 1020 04d2 1360     		str	r3, [r2]
ARM GAS  C:\Users\RAKIBU~1\AppData\Local\Temp\cceTaPgf.s 			page 19


 1021              		.loc 1 639 0
 1022 04d4 70BD     		pop	{r4, r5, r6, pc}
 1023              	.LVL62:
 1024              	.L80:
 1025              		.loc 1 627 0 discriminator 2
 1026 04d6 0348     		ldr	r0, .L81+4
 1027              	.LVL63:
 1028 04d8 FFF7FEFF 		bl	chSysHalt
 1029              	.LVL64:
 1030 04dc D7E7     		b	.L78
 1031              	.L82:
 1032 04de 00BF     		.align	2
 1033              	.L81:
 1034 04e0 20000000 		.word	.LANCHOR0+32
 1035 04e4 48000000 		.word	.LANCHOR0+72
 1036              		.cfi_endproc
 1037              	.LFE336:
 1038              		.size	spi_lld_receive, .-spi_lld_receive
 1039              		.align	1
 1040 04e8 AFF30080 		.p2align 4,,15
 1040      AFF30080 
 1041              		.global	spi_lld_abort
 1042              		.syntax unified
 1043              		.thumb
 1044              		.thumb_func
 1045              		.fpu softvfp
 1046              		.type	spi_lld_abort, %function
 1047              	spi_lld_abort:
 1048              	.LFB337:
 1049              		.loc 1 649 0
 1050              		.cfi_startproc
 1051              		@ args = 0, pretend = 0, frame = 0
 1052              		@ frame_needed = 0, uses_anonymous_args = 0
 1053              		@ link register save eliminated.
 1054              	.LVL65:
 1055              		.loc 1 652 0
 1056 04f0 436A     		ldr	r3, [r0, #36]
 1057 04f2 1A68     		ldr	r2, [r3]
 1058 04f4 1368     		ldr	r3, [r2]
 1059 04f6 23F01F03 		bic	r3, r3, #31
 1060 04fa 1360     		str	r3, [r2]
 1061              	.L84:
 1062              		.loc 1 652 0 is_stmt 0 discriminator 2
 1063 04fc 436A     		ldr	r3, [r0, #36]
 1064 04fe 1A68     		ldr	r2, [r3]
 1065 0500 1268     		ldr	r2, [r2]
 1066 0502 12F0010F 		tst	r2, #1
 1067 0506 F9D1     		bne	.L84
 1068              		.loc 1 652 0 discriminator 3
 1069 0508 597A     		ldrb	r1, [r3, #9]	@ zero_extendqisi2
 1070 050a 5A68     		ldr	r2, [r3, #4]
 1071 050c 3D23     		movs	r3, #61
 1072 050e 8B40     		lsls	r3, r3, r1
 1073 0510 1360     		str	r3, [r2]
 1074              		.loc 1 653 0 is_stmt 1 discriminator 3
 1075 0512 036A     		ldr	r3, [r0, #32]
 1076 0514 1A68     		ldr	r2, [r3]
ARM GAS  C:\Users\RAKIBU~1\AppData\Local\Temp\cceTaPgf.s 			page 20


 1077 0516 1368     		ldr	r3, [r2]
 1078 0518 23F01F03 		bic	r3, r3, #31
 1079 051c 1360     		str	r3, [r2]
 1080              	.L85:
 1081              		.loc 1 653 0 is_stmt 0 discriminator 2
 1082 051e 036A     		ldr	r3, [r0, #32]
 1083 0520 1A68     		ldr	r2, [r3]
 1084 0522 1268     		ldr	r2, [r2]
 1085 0524 12F0010F 		tst	r2, #1
 1086 0528 F9D1     		bne	.L85
 1087              		.loc 1 653 0 discriminator 3
 1088 052a 597A     		ldrb	r1, [r3, #9]	@ zero_extendqisi2
 1089 052c 5A68     		ldr	r2, [r3, #4]
 1090 052e 3D23     		movs	r3, #61
 1091 0530 8B40     		lsls	r3, r3, r1
 1092 0532 1360     		str	r3, [r2]
 1093              		.loc 1 654 0 is_stmt 1 discriminator 3
 1094 0534 7047     		bx	lr
 1095              		.cfi_endproc
 1096              	.LFE337:
 1097              		.size	spi_lld_abort, .-spi_lld_abort
 1098              		.align	1
 1099 0536 00BFAFF3 		.p2align 4,,15
 1099      0080AFF3 
 1099      0080
 1100              		.global	spi_lld_polled_exchange
 1101              		.syntax unified
 1102              		.thumb
 1103              		.thumb_func
 1104              		.fpu softvfp
 1105              		.type	spi_lld_polled_exchange, %function
 1106              	spi_lld_polled_exchange:
 1107              	.LFB338:
 1108              		.loc 1 669 0
 1109              		.cfi_startproc
 1110              		@ args = 0, pretend = 0, frame = 0
 1111              		@ frame_needed = 0, uses_anonymous_args = 0
 1112              		@ link register save eliminated.
 1113              	.LVL66:
 1114              		.loc 1 671 0
 1115 0540 C369     		ldr	r3, [r0, #28]
 1116 0542 D960     		str	r1, [r3, #12]
 1117              	.L87:
 1118              		.loc 1 672 0 discriminator 1
 1119 0544 C369     		ldr	r3, [r0, #28]
 1120 0546 9A68     		ldr	r2, [r3, #8]
 1121 0548 12F0010F 		tst	r2, #1
 1122 054c FAD0     		beq	.L87
 1123              		.loc 1 674 0
 1124 054e D868     		ldr	r0, [r3, #12]
 1125              	.LVL67:
 1126              		.loc 1 675 0
 1127 0550 80B2     		uxth	r0, r0
 1128 0552 7047     		bx	lr
 1129              		.cfi_endproc
 1130              	.LFE338:
 1131              		.size	spi_lld_polled_exchange, .-spi_lld_polled_exchange
ARM GAS  C:\Users\RAKIBU~1\AppData\Local\Temp\cceTaPgf.s 			page 21


 1132              		.comm	SPID2,48,4
 1133              		.comm	SPID1,48,4
 1134              		.section	.rodata
 1135              		.align	2
 1136              		.set	.LANCHOR0,. + 0
 1137              		.type	__func__.8989, %object
 1138              		.size	__func__.8989, 14
 1139              	__func__.8989:
 1140 0000 7370695F 		.ascii	"spi_lld_start\000"
 1140      6C6C645F 
 1140      73746172 
 1140      7400
 1141 000e 0000     		.space	2
 1142              		.type	__func__.8997, %object
 1143              		.size	__func__.8997, 15
 1144              	__func__.8997:
 1145 0010 7370695F 		.ascii	"spi_lld_ignore\000"
 1145      6C6C645F 
 1145      69676E6F 
 1145      726500
 1146 001f 00       		.space	1
 1147              		.type	dummytx, %object
 1148              		.size	dummytx, 2
 1149              	dummytx:
 1150 0020 FFFF     		.short	-1
 1151 0022 0000     		.space	2
 1152              		.type	__func__.9004, %object
 1153              		.size	__func__.9004, 17
 1154              	__func__.9004:
 1155 0024 7370695F 		.ascii	"spi_lld_exchange\000"
 1155      6C6C645F 
 1155      65786368 
 1155      616E6765 
 1155      00
 1156 0035 000000   		.space	3
 1157              		.type	__func__.9010, %object
 1158              		.size	__func__.9010, 13
 1159              	__func__.9010:
 1160 0038 7370695F 		.ascii	"spi_lld_send\000"
 1160      6C6C645F 
 1160      73656E64 
 1160      00
 1161 0045 000000   		.space	3
 1162              		.type	__func__.9016, %object
 1163              		.size	__func__.9016, 16
 1164              	__func__.9016:
 1165 0048 7370695F 		.ascii	"spi_lld_receive\000"
 1165      6C6C645F 
 1165      72656365 
 1165      69766500 
 1166              		.bss
 1167              		.align	1
 1168              		.set	.LANCHOR1,. + 0
 1169              		.type	dummyrx, %object
 1170              		.size	dummyrx, 2
 1171              	dummyrx:
 1172 0000 0000     		.space	2
ARM GAS  C:\Users\RAKIBU~1\AppData\Local\Temp\cceTaPgf.s 			page 22


 1173              		.section	.rodata.str1.4,"aMS",%progbits,1
 1174              		.align	2
 1175              	.LC0:
 1176 0000 444D4120 		.ascii	"DMA failure\000"
 1176      6661696C 
 1176      75726500 
 1177              		.text
 1178              	.Letext0:
 1179              		.file 5 "c:\\chibistudio\\tools\\gnu tools arm embedded\\7.0 2017q4\\lib\\gcc\\arm-none-eabi\\7.2.
 1180              		.file 6 "c:\\chibistudio\\tools\\gnu tools arm embedded\\7.0 2017q4\\arm-none-eabi\\include\\machi
 1181              		.file 7 "c:\\chibistudio\\tools\\gnu tools arm embedded\\7.0 2017q4\\arm-none-eabi\\include\\sys\\
 1182              		.file 8 "c:\\chibistudio\\tools\\gnu tools arm embedded\\7.0 2017q4\\arm-none-eabi\\include\\stdin
 1183              		.file 9 "../../../ChibiOSRepo/chibios191/os/common/ports/ARMCMx/compilers/GCC/chtypes.h"
 1184              		.file 10 "../../../ChibiOSRepo/chibios191/os/rt/include/chsystypes.h"
 1185              		.file 11 "../../../ChibiOSRepo/chibios191/os/rt/include/chschd.h"
 1186              		.file 12 "../../../ChibiOSRepo/chibios191/os/rt/include/chtime.h"
 1187              		.file 13 "../../../ChibiOSRepo/chibios191/os/common/ext/ARM/CMSIS/Core/Include/core_cm4.h"
 1188              		.file 14 "../../../ChibiOSRepo/chibios191/os/common/ext/ST/STM32F4xx/system_stm32f4xx.h"
 1189              		.file 15 "../../../ChibiOSRepo/chibios191/os/common/ext/ST/STM32F4xx/stm32f407xx.h"
 1190              		.file 16 "../../../ChibiOSRepo/chibios191/os/common/ports/ARMCMx/chcore.h"
 1191              		.file 17 "../../../ChibiOSRepo/chibios191/os/common/ports/ARMCMx/chcore_v7m.h"
 1192              		.file 18 "../../../ChibiOSRepo/chibios191/os/hal/ports/STM32/LLD/TIMv1/stm32_tim.h"
 1193              		.file 19 "../../../ChibiOSRepo/chibios191/os/rt/include/chtrace.h"
 1194              		.file 20 "../../../ChibiOSRepo/chibios191/os/rt/include/chtm.h"
 1195              		.file 21 "../../../ChibiOSRepo/chibios191/os/rt/include/chstats.h"
 1196              		.file 22 "../../../ChibiOSRepo/chibios191/os/rt/include/chsem.h"
 1197              		.file 23 "../../../ChibiOSRepo/chibios191/os/rt/include/chmtx.h"
 1198              		.file 24 "../../../ChibiOSRepo/chibios191/os/rt/include/chregistry.h"
 1199              		.file 25 "../../../ChibiOSRepo/chibios191/os/rt/include/chevents.h"
 1200              		.file 26 "../../../ChibiOSRepo/chibios191/os/oslib/include/chmemcore.h"
 1201              		.file 27 "../../../ChibiOSRepo/chibios191/os/oslib/include/chmempools.h"
 1202              		.file 28 "../../../ChibiOSRepo/chibios191/os/oslib/include/chfactory.h"
 1203              		.file 29 "../../../ChibiOSRepo/chibios191/os/hal/ports/STM32/LLD/DMAv2/stm32_dma.h"
 1204              		.file 30 "../../../ChibiOSRepo/chibios191/os/hal/include/hal_ioblock.h"
 1205              		.file 31 "../../../ChibiOSRepo/chibios191/os/hal/include/hal_persistent.h"
 1206              		.file 32 "../../../ChibiOSRepo/chibios191/os/hal/include/hal_queues.h"
 1207              		.file 33 "../../../ChibiOSRepo/chibios191/os/hal/include/hal_pal.h"
 1208              		.file 34 "../../../ChibiOSRepo/chibios191/os/hal/ports/STM32/LLD/GPIOv2/stm32_gpio.h"
 1209              		.file 35 "../../../ChibiOSRepo/chibios191/os/hal/ports/STM32/LLD/GPIOv2/hal_pal_lld.h"
 1210              		.file 36 "../../../ChibiOSRepo/chibios191/os/hal/include/hal_gpt.h"
 1211              		.file 37 "../../../ChibiOSRepo/chibios191/os/hal/ports/STM32/LLD/TIMv1/hal_gpt_lld.h"
 1212              		.file 38 "../../../ChibiOSRepo/chibios191/os/hal/include/hal_i2c.h"
 1213              		.file 39 "../../../ChibiOSRepo/chibios191/os/hal/ports/STM32/LLD/I2Cv1/hal_i2c_lld.h"
 1214              		.file 40 "c:\\chibistudio\\tools\\gnu tools arm embedded\\7.0 2017q4\\arm-none-eabi\\include\\sys\
 1215              		.file 41 "c:\\chibistudio\\tools\\gnu tools arm embedded\\7.0 2017q4\\arm-none-eabi\\include\\sys\
 1216              		.file 42 "c:\\chibistudio\\tools\\gnu tools arm embedded\\7.0 2017q4\\arm-none-eabi\\include\\sys\
 1217              		.file 43 "c:\\chibistudio\\tools\\gnu tools arm embedded\\7.0 2017q4\\arm-none-eabi\\include\\time
 1218              		.file 44 "../../../ChibiOSRepo/chibios191/os/hal/include/hal_rtc.h"
 1219              		.file 45 "../../../ChibiOSRepo/chibios191/os/hal/ports/STM32/LLD/RTCv2/hal_rtc_lld.h"
 1220              		.file 46 "../../../ChibiOSRepo/chibios191/os/hal/include/hal_serial.h"
 1221              		.file 47 "../../../ChibiOSRepo/chibios191/os/hal/ports/STM32/LLD/USARTv1/hal_serial_lld.h"
 1222              		.file 48 "../../../ChibiOSRepo/chibios191/os/hal/include/hal_sdc.h"
 1223              		.file 49 "../../../ChibiOSRepo/chibios191/os/hal/ports/STM32/LLD/SDIOv1/hal_sdc_lld.h"
 1224              		.file 50 "../../../ChibiOSRepo/chibios191/os/hal/include/hal_spi.h"
 1225              		.file 51 "../../../ChibiOSRepo/chibios191/os/hal/ports/STM32/LLD/SPIv1/hal_spi_lld.h"
 1226              		.file 52 "../../../ChibiOSRepo/chibios191/os/rt/include/ch.h"
 1227              		.file 53 "../../../ChibiOSRepo/chibios191/os/rt/include/chdebug.h"
ARM GAS  C:\Users\RAKIBU~1\AppData\Local\Temp\cceTaPgf.s 			page 23


 1228              		.file 54 "../../../ChibiOSRepo/chibios191/os/rt/include/chthreads.h"