ARM GAS  C:\Users\RAKIBU~1\AppData\Local\Temp\cckAI3KF.s 			page 1


   1              		.cpu cortex-m4
   2              		.eabi_attribute 20, 1
   3              		.eabi_attribute 21, 1
   4              		.eabi_attribute 23, 3
   5              		.eabi_attribute 24, 1
   6              		.eabi_attribute 25, 1
   7              		.eabi_attribute 26, 1
   8              		.eabi_attribute 30, 1
   9              		.eabi_attribute 34, 1
  10              		.eabi_attribute 18, 4
  11              		.file	"hal_rtc.c"
  12              		.text
  13              	.Ltext0:
  14              		.cfi_sections	.debug_frame
  15              		.align	1
  16              		.p2align 4,,15
  17              		.global	rtcInit
  18              		.syntax unified
  19              		.thumb
  20              		.thumb_func
  21              		.fpu softvfp
  22              		.type	rtcInit, %function
  23              	rtcInit:
  24              	.LFB328:
  25              		.file 1 "../../../ChibiOSRepo/chibios191/os/hal/src/hal_rtc.c"
  26              		.loc 1 67 0
  27              		.cfi_startproc
  28              		@ args = 0, pretend = 0, frame = 0
  29              		@ frame_needed = 0, uses_anonymous_args = 0
  30 0000 08B5     		push	{r3, lr}
  31              		.cfi_def_cfa_offset 8
  32              		.cfi_offset 3, -8
  33              		.cfi_offset 14, -4
  34              		.loc 1 69 0
  35 0002 FFF7FEFF 		bl	rtc_lld_init
  36              	.LVL0:
  37              		.loc 1 70 0
  38 0006 08BD     		pop	{r3, pc}
  39              		.cfi_endproc
  40              	.LFE328:
  41              		.size	rtcInit, .-rtcInit
  42              		.align	1
  43 0008 AFF30080 		.p2align 4,,15
  43      AFF30080 
  44              		.global	rtcObjectInit
  45              		.syntax unified
  46              		.thumb
  47              		.thumb_func
  48              		.fpu softvfp
  49              		.type	rtcObjectInit, %function
  50              	rtcObjectInit:
  51              	.LFB329:
  52              		.loc 1 81 0
  53              		.cfi_startproc
  54              		@ args = 0, pretend = 0, frame = 0
  55              		@ frame_needed = 0, uses_anonymous_args = 0
  56              		@ link register save eliminated.
ARM GAS  C:\Users\RAKIBU~1\AppData\Local\Temp\cckAI3KF.s 			page 2


  57              	.LVL1:
  58              		.loc 1 84 0
  59 0010 014B     		ldr	r3, .L4
  60 0012 0360     		str	r3, [r0]
  61              		.loc 1 88 0
  62 0014 7047     		bx	lr
  63              	.L5:
  64 0016 00BF     		.align	2
  65              	.L4:
  66 0018 00000000 		.word	_rtc_lld_vmt
  67              		.cfi_endproc
  68              	.LFE329:
  69              		.size	rtcObjectInit, .-rtcObjectInit
  70              		.align	1
  71 001c AFF30080 		.p2align 4,,15
  72              		.global	rtcSetTime
  73              		.syntax unified
  74              		.thumb
  75              		.thumb_func
  76              		.fpu softvfp
  77              		.type	rtcSetTime, %function
  78              	rtcSetTime:
  79              	.LFB330:
  80              		.loc 1 104 0
  81              		.cfi_startproc
  82              		@ args = 0, pretend = 0, frame = 0
  83              		@ frame_needed = 0, uses_anonymous_args = 0
  84              	.LVL2:
  85 0020 38B5     		push	{r3, r4, r5, lr}
  86              		.cfi_def_cfa_offset 16
  87              		.cfi_offset 3, -16
  88              		.cfi_offset 4, -12
  89              		.cfi_offset 5, -8
  90              		.cfi_offset 14, -4
  91 0022 0C46     		mov	r4, r1
  92              		.loc 1 106 0
  93 0024 0546     		mov	r5, r0
  94 0026 28B1     		cbz	r0, .L7
  95              		.loc 1 106 0 is_stmt 0 discriminator 3
  96 0028 21B1     		cbz	r1, .L7
  97              	.LVL3:
  98              	.L8:
  99              		.loc 1 108 0 is_stmt 1
 100 002a 2146     		mov	r1, r4
 101 002c 2846     		mov	r0, r5
 102 002e FFF7FEFF 		bl	rtc_lld_set_time
 103              	.LVL4:
 104              		.loc 1 109 0
 105 0032 38BD     		pop	{r3, r4, r5, pc}
 106              	.LVL5:
 107              	.L7:
 108              		.loc 1 106 0 discriminator 4
 109 0034 0148     		ldr	r0, .L10
 110              	.LVL6:
 111 0036 FFF7FEFF 		bl	chSysHalt
 112              	.LVL7:
 113 003a F6E7     		b	.L8
ARM GAS  C:\Users\RAKIBU~1\AppData\Local\Temp\cckAI3KF.s 			page 3


 114              	.L11:
 115              		.align	2
 116              	.L10:
 117 003c 00000000 		.word	.LANCHOR0
 118              		.cfi_endproc
 119              	.LFE330:
 120              		.size	rtcSetTime, .-rtcSetTime
 121              		.align	1
 122              		.p2align 4,,15
 123              		.global	rtcGetTime
 124              		.syntax unified
 125              		.thumb
 126              		.thumb_func
 127              		.fpu softvfp
 128              		.type	rtcGetTime, %function
 129              	rtcGetTime:
 130              	.LFB331:
 131              		.loc 1 125 0
 132              		.cfi_startproc
 133              		@ args = 0, pretend = 0, frame = 0
 134              		@ frame_needed = 0, uses_anonymous_args = 0
 135              	.LVL8:
 136 0040 38B5     		push	{r3, r4, r5, lr}
 137              		.cfi_def_cfa_offset 16
 138              		.cfi_offset 3, -16
 139              		.cfi_offset 4, -12
 140              		.cfi_offset 5, -8
 141              		.cfi_offset 14, -4
 142 0042 0C46     		mov	r4, r1
 143              		.loc 1 127 0
 144 0044 0546     		mov	r5, r0
 145 0046 28B1     		cbz	r0, .L13
 146              		.loc 1 127 0 is_stmt 0 discriminator 3
 147 0048 21B1     		cbz	r1, .L13
 148              	.LVL9:
 149              	.L14:
 150              		.loc 1 129 0 is_stmt 1
 151 004a 2146     		mov	r1, r4
 152 004c 2846     		mov	r0, r5
 153 004e FFF7FEFF 		bl	rtc_lld_get_time
 154              	.LVL10:
 155              		.loc 1 130 0
 156 0052 38BD     		pop	{r3, r4, r5, pc}
 157              	.LVL11:
 158              	.L13:
 159              		.loc 1 127 0 discriminator 4
 160 0054 0148     		ldr	r0, .L16
 161              	.LVL12:
 162 0056 FFF7FEFF 		bl	chSysHalt
 163              	.LVL13:
 164 005a F6E7     		b	.L14
 165              	.L17:
 166              		.align	2
 167              	.L16:
 168 005c 0C000000 		.word	.LANCHOR0+12
 169              		.cfi_endproc
 170              	.LFE331:
ARM GAS  C:\Users\RAKIBU~1\AppData\Local\Temp\cckAI3KF.s 			page 4


 171              		.size	rtcGetTime, .-rtcGetTime
 172              		.align	1
 173              		.p2align 4,,15
 174              		.global	rtcSetAlarm
 175              		.syntax unified
 176              		.thumb
 177              		.thumb_func
 178              		.fpu softvfp
 179              		.type	rtcSetAlarm, %function
 180              	rtcSetAlarm:
 181              	.LFB332:
 182              		.loc 1 150 0
 183              		.cfi_startproc
 184              		@ args = 0, pretend = 0, frame = 0
 185              		@ frame_needed = 0, uses_anonymous_args = 0
 186              	.LVL14:
 187 0060 70B5     		push	{r4, r5, r6, lr}
 188              		.cfi_def_cfa_offset 16
 189              		.cfi_offset 4, -16
 190              		.cfi_offset 5, -12
 191              		.cfi_offset 6, -8
 192              		.cfi_offset 14, -4
 193 0062 0C46     		mov	r4, r1
 194 0064 1646     		mov	r6, r2
 195              		.loc 1 152 0
 196 0066 0546     		mov	r5, r0
 197 0068 08B1     		cbz	r0, .L19
 198              		.loc 1 152 0 is_stmt 0 discriminator 3
 199 006a 0129     		cmp	r1, #1
 200 006c 02D9     		bls	.L20
 201              	.L19:
 202              		.loc 1 152 0 discriminator 4
 203 006e 0448     		ldr	r0, .L22
 204              	.LVL15:
 205 0070 FFF7FEFF 		bl	chSysHalt
 206              	.LVL16:
 207              	.L20:
 208              		.loc 1 154 0 is_stmt 1
 209 0074 3246     		mov	r2, r6
 210 0076 2146     		mov	r1, r4
 211 0078 2846     		mov	r0, r5
 212 007a FFF7FEFF 		bl	rtc_lld_set_alarm
 213              	.LVL17:
 214              		.loc 1 155 0
 215 007e 70BD     		pop	{r4, r5, r6, pc}
 216              	.LVL18:
 217              	.L23:
 218              		.align	2
 219              	.L22:
 220 0080 18000000 		.word	.LANCHOR0+24
 221              		.cfi_endproc
 222              	.LFE332:
 223              		.size	rtcSetAlarm, .-rtcSetAlarm
 224              		.align	1
 225 0084 AFF30080 		.p2align 4,,15
 225      AFF30080 
 225      AFF30080 
ARM GAS  C:\Users\RAKIBU~1\AppData\Local\Temp\cckAI3KF.s 			page 5


 226              		.global	rtcGetAlarm
 227              		.syntax unified
 228              		.thumb
 229              		.thumb_func
 230              		.fpu softvfp
 231              		.type	rtcGetAlarm, %function
 232              	rtcGetAlarm:
 233              	.LFB333:
 234              		.loc 1 176 0
 235              		.cfi_startproc
 236              		@ args = 0, pretend = 0, frame = 0
 237              		@ frame_needed = 0, uses_anonymous_args = 0
 238              	.LVL19:
 239 0090 70B5     		push	{r4, r5, r6, lr}
 240              		.cfi_def_cfa_offset 16
 241              		.cfi_offset 4, -16
 242              		.cfi_offset 5, -12
 243              		.cfi_offset 6, -8
 244              		.cfi_offset 14, -4
 245 0092 0C46     		mov	r4, r1
 246 0094 1546     		mov	r5, r2
 247              		.loc 1 178 0
 248 0096 0646     		mov	r6, r0
 249 0098 08B1     		cbz	r0, .L25
 250              		.loc 1 178 0 is_stmt 0 discriminator 3
 251 009a 0129     		cmp	r1, #1
 252 009c 08D9     		bls	.L28
 253              	.L25:
 254              		.loc 1 178 0 discriminator 6
 255 009e 0648     		ldr	r0, .L29
 256              	.LVL20:
 257 00a0 FFF7FEFF 		bl	chSysHalt
 258              	.LVL21:
 259              	.L26:
 260              		.loc 1 182 0 is_stmt 1
 261 00a4 2A46     		mov	r2, r5
 262 00a6 2146     		mov	r1, r4
 263 00a8 3046     		mov	r0, r6
 264 00aa FFF7FEFF 		bl	rtc_lld_get_alarm
 265              	.LVL22:
 266              		.loc 1 183 0
 267 00ae 70BD     		pop	{r4, r5, r6, pc}
 268              	.LVL23:
 269              	.L28:
 270              		.loc 1 178 0 discriminator 5
 271 00b0 002A     		cmp	r2, #0
 272 00b2 F7D1     		bne	.L26
 273 00b4 F3E7     		b	.L25
 274              	.L30:
 275 00b6 00BF     		.align	2
 276              	.L29:
 277 00b8 24000000 		.word	.LANCHOR0+36
 278              		.cfi_endproc
 279              	.LFE333:
 280              		.size	rtcGetAlarm, .-rtcGetAlarm
 281              		.align	1
 282 00bc AFF30080 		.p2align 4,,15
ARM GAS  C:\Users\RAKIBU~1\AppData\Local\Temp\cckAI3KF.s 			page 6


 283              		.global	rtcSetCallback
 284              		.syntax unified
 285              		.thumb
 286              		.thumb_func
 287              		.fpu softvfp
 288              		.type	rtcSetCallback, %function
 289              	rtcSetCallback:
 290              	.LFB334:
 291              		.loc 1 203 0
 292              		.cfi_startproc
 293              		@ args = 0, pretend = 0, frame = 0
 294              		@ frame_needed = 0, uses_anonymous_args = 0
 295              	.LVL24:
 296 00c0 38B5     		push	{r3, r4, r5, lr}
 297              		.cfi_def_cfa_offset 16
 298              		.cfi_offset 3, -16
 299              		.cfi_offset 4, -12
 300              		.cfi_offset 5, -8
 301              		.cfi_offset 14, -4
 302 00c2 0D46     		mov	r5, r1
 303              		.loc 1 205 0
 304 00c4 0446     		mov	r4, r0
 305 00c6 20B1     		cbz	r0, .L34
 306              	.LVL25:
 307              	.L32:
 308              		.loc 1 207 0
 309 00c8 2946     		mov	r1, r5
 310 00ca 2046     		mov	r0, r4
 311 00cc FFF7FEFF 		bl	rtc_lld_set_callback
 312              	.LVL26:
 313              		.loc 1 208 0
 314 00d0 38BD     		pop	{r3, r4, r5, pc}
 315              	.LVL27:
 316              	.L34:
 317              		.loc 1 205 0 discriminator 2
 318 00d2 0248     		ldr	r0, .L35
 319              	.LVL28:
 320 00d4 FFF7FEFF 		bl	chSysHalt
 321              	.LVL29:
 322 00d8 F6E7     		b	.L32
 323              	.L36:
 324 00da 00BF     		.align	2
 325              	.L35:
 326 00dc 30000000 		.word	.LANCHOR0+48
 327              		.cfi_endproc
 328              	.LFE334:
 329              		.size	rtcSetCallback, .-rtcSetCallback
 330              		.align	1
 331              		.p2align 4,,15
 332              		.global	rtcConvertDateTimeToStructTm
 333              		.syntax unified
 334              		.thumb
 335              		.thumb_func
 336              		.fpu softvfp
 337              		.type	rtcConvertDateTimeToStructTm, %function
 338              	rtcConvertDateTimeToStructTm:
 339              	.LFB335:
ARM GAS  C:\Users\RAKIBU~1\AppData\Local\Temp\cckAI3KF.s 			page 7


 340              		.loc 1 222 0
 341              		.cfi_startproc
 342              		@ args = 0, pretend = 0, frame = 0
 343              		@ frame_needed = 0, uses_anonymous_args = 0
 344              		@ link register save eliminated.
 345              	.LVL30:
 346 00e0 30B4     		push	{r4, r5}
 347              		.cfi_def_cfa_offset 8
 348              		.cfi_offset 4, -8
 349              		.cfi_offset 5, -4
 350              		.loc 1 225 0
 351 00e2 0378     		ldrb	r3, [r0]	@ zero_extendqisi2
 352 00e4 5033     		adds	r3, r3, #80
 353 00e6 4B61     		str	r3, [r1, #20]
 354              		.loc 1 226 0
 355 00e8 4378     		ldrb	r3, [r0, #1]	@ zero_extendqisi2
 356 00ea 03F00F03 		and	r3, r3, #15
 357 00ee 013B     		subs	r3, r3, #1
 358 00f0 0B61     		str	r3, [r1, #16]
 359              		.loc 1 227 0
 360 00f2 8378     		ldrb	r3, [r0, #2]	@ zero_extendqisi2
 361 00f4 03F01F03 		and	r3, r3, #31
 362 00f8 CB60     		str	r3, [r1, #12]
 363              		.loc 1 228 0
 364 00fa 4378     		ldrb	r3, [r0, #1]	@ zero_extendqisi2
 365 00fc C3F30013 		ubfx	r3, r3, #4, #1
 366 0100 0B62     		str	r3, [r1, #32]
 367              		.loc 1 229 0
 368 0102 4378     		ldrb	r3, [r0, #1]	@ zero_extendqisi2
 369 0104 5B09     		lsrs	r3, r3, #5
 370 0106 013B     		subs	r3, r3, #1
 371 0108 8B61     		str	r3, [r1, #24]
 372              		.loc 1 231 0
 373 010a 4368     		ldr	r3, [r0, #4]
 374 010c C3F31A03 		ubfx	r3, r3, #0, #27
 375 0110 174C     		ldr	r4, .L40
 376 0112 84FB0354 		smull	r5, r4, r4, r3
 377 0116 A411     		asrs	r4, r4, #6
 378              	.LVL31:
 379              		.loc 1 232 0
 380 0118 164D     		ldr	r5, .L40+4
 381 011a 85FB0353 		smull	r5, r3, r5, r3
 382 011e 1B15     		asrs	r3, r3, #20
 383 0120 8B60     		str	r3, [r1, #8]
 384              		.loc 1 233 0
 385 0122 154B     		ldr	r3, .L40+8
 386 0124 83FB0453 		smull	r5, r3, r3, r4
 387 0128 2344     		add	r3, r3, r4
 388 012a DB12     		asrs	r3, r3, #11
 389 012c 4FF46165 		mov	r5, #3600
 390 0130 05FB1343 		mls	r3, r5, r3, r4
 391              	.LVL32:
 392              		.loc 1 234 0
 393 0134 114C     		ldr	r4, .L40+12
 394 0136 84FB0354 		smull	r5, r4, r4, r3
 395 013a E518     		adds	r5, r4, r3
 396 013c DC17     		asrs	r4, r3, #31
ARM GAS  C:\Users\RAKIBU~1\AppData\Local\Temp\cckAI3KF.s 			page 8


 397 013e C4EB6514 		rsb	r4, r4, r5, asr #5
 398 0142 4C60     		str	r4, [r1, #4]
 399              		.loc 1 235 0
 400 0144 C4EB0414 		rsb	r4, r4, r4, lsl #4
 401 0148 A500     		lsls	r5, r4, #2
 402 014a 5D1B     		subs	r5, r3, r5
 403 014c 0D60     		str	r5, [r1]
 404              		.loc 1 237 0
 405 014e 62B1     		cbz	r2, .L37
 406 0150 1146     		mov	r1, r2
 407              	.LVL33:
 408              		.loc 1 238 0
 409 0152 4268     		ldr	r2, [r0, #4]
 410              	.LVL34:
 411 0154 C2F31A02 		ubfx	r2, r2, #0, #27
 412 0158 054B     		ldr	r3, .L40
 413              	.LVL35:
 414 015a A3FB0203 		umull	r0, r3, r3, r2
 415              	.LVL36:
 416 015e 9B09     		lsrs	r3, r3, #6
 417 0160 4FF47A70 		mov	r0, #1000
 418 0164 00FB1323 		mls	r3, r0, r3, r2
 419 0168 0B60     		str	r3, [r1]
 420              	.LVL37:
 421              	.L37:
 422              		.loc 1 240 0
 423 016a 30BC     		pop	{r4, r5}
 424              		.cfi_restore 5
 425              		.cfi_restore 4
 426              		.cfi_def_cfa_offset 0
 427 016c 7047     		bx	lr
 428              	.L41:
 429 016e 00BF     		.align	2
 430              	.L40:
 431 0170 D34D6210 		.word	274877907
 432 0174 59BE904A 		.word	1250999897
 433 0178 C5B3A291 		.word	-1851608123
 434 017c 89888888 		.word	-2004318071
 435              		.cfi_endproc
 436              	.LFE335:
 437              		.size	rtcConvertDateTimeToStructTm, .-rtcConvertDateTimeToStructTm
 438              		.align	1
 439              		.p2align 4,,15
 440              		.global	rtcConvertStructTmToDateTime
 441              		.syntax unified
 442              		.thumb
 443              		.thumb_func
 444              		.fpu softvfp
 445              		.type	rtcConvertStructTmToDateTime, %function
 446              	rtcConvertStructTmToDateTime:
 447              	.LFB336:
 448              		.loc 1 253 0
 449              		.cfi_startproc
 450              		@ args = 0, pretend = 0, frame = 0
 451              		@ frame_needed = 0, uses_anonymous_args = 0
 452              		@ link register save eliminated.
 453              	.LVL38:
ARM GAS  C:\Users\RAKIBU~1\AppData\Local\Temp\cckAI3KF.s 			page 9


 454 0180 30B4     		push	{r4, r5}
 455              		.cfi_def_cfa_offset 8
 456              		.cfi_offset 4, -8
 457              		.cfi_offset 5, -4
 458              		.loc 1 256 0
 459 0182 4469     		ldr	r4, [r0, #20]
 460 0184 503C     		subs	r4, r4, #80
 461 0186 1470     		strb	r4, [r2]
 462              		.loc 1 257 0
 463 0188 0469     		ldr	r4, [r0, #16]
 464 018a 0134     		adds	r4, r4, #1
 465 018c 5378     		ldrb	r3, [r2, #1]	@ zero_extendqisi2
 466 018e 64F30303 		bfi	r3, r4, #0, #4
 467 0192 5370     		strb	r3, [r2, #1]
 468              		.loc 1 258 0
 469 0194 C468     		ldr	r4, [r0, #12]
 470 0196 9378     		ldrb	r3, [r2, #2]	@ zero_extendqisi2
 471 0198 64F30403 		bfi	r3, r4, #0, #5
 472 019c 9370     		strb	r3, [r2, #2]
 473              		.loc 1 259 0
 474 019e 8469     		ldr	r4, [r0, #24]
 475 01a0 0134     		adds	r4, r4, #1
 476 01a2 5378     		ldrb	r3, [r2, #1]	@ zero_extendqisi2
 477 01a4 64F34713 		bfi	r3, r4, #5, #3
 478 01a8 5370     		strb	r3, [r2, #1]
 479              		.loc 1 260 0
 480 01aa 036A     		ldr	r3, [r0, #32]
 481 01ac B3F1FF3F 		cmp	r3, #-1
 482 01b0 18D0     		beq	.L46
 483              		.loc 1 264 0
 484 01b2 5478     		ldrb	r4, [r2, #1]	@ zero_extendqisi2
 485 01b4 63F30414 		bfi	r4, r3, #4, #1
 486 01b8 5470     		strb	r4, [r2, #1]
 487              	.L44:
 488              		.loc 1 268 0
 489 01ba 8368     		ldr	r3, [r0, #8]
 490              		.loc 1 269 0
 491 01bc 4468     		ldr	r4, [r0, #4]
 492 01be C4EB0414 		rsb	r4, r4, r4, lsl #4
 493 01c2 A500     		lsls	r5, r4, #2
 494              		.loc 1 268 0
 495 01c4 4FF46164 		mov	r4, #3600
 496 01c8 04FB0353 		mla	r3, r4, r3, r5
 497              		.loc 1 270 0
 498 01cc 0068     		ldr	r0, [r0]
 499              	.LVL39:
 500              		.loc 1 269 0
 501 01ce 0344     		add	r3, r3, r0
 502              		.loc 1 268 0
 503 01d0 4FF47A70 		mov	r0, #1000
 504 01d4 00FB0311 		mla	r1, r0, r3, r1
 505              	.LVL40:
 506 01d8 5368     		ldr	r3, [r2, #4]
 507 01da 61F31A03 		bfi	r3, r1, #0, #27
 508 01de 5360     		str	r3, [r2, #4]
 509              		.loc 1 272 0
 510 01e0 30BC     		pop	{r4, r5}
ARM GAS  C:\Users\RAKIBU~1\AppData\Local\Temp\cckAI3KF.s 			page 10


 511              		.cfi_remember_state
 512              		.cfi_restore 5
 513              		.cfi_restore 4
 514              		.cfi_def_cfa_offset 0
 515 01e2 7047     		bx	lr
 516              	.LVL41:
 517              	.L46:
 518              		.cfi_restore_state
 519              		.loc 1 261 0
 520 01e4 5378     		ldrb	r3, [r2, #1]	@ zero_extendqisi2
 521 01e6 6FF30413 		bfc	r3, #4, #1
 522 01ea 5370     		strb	r3, [r2, #1]
 523 01ec E5E7     		b	.L44
 524              		.cfi_endproc
 525              	.LFE336:
 526              		.size	rtcConvertStructTmToDateTime, .-rtcConvertStructTmToDateTime
 527              		.align	1
 528 01ee 00BF     		.p2align 4,,15
 529              		.global	rtcConvertDateTimeToFAT
 530              		.syntax unified
 531              		.thumb
 532              		.thumb_func
 533              		.fpu softvfp
 534              		.type	rtcConvertDateTimeToFAT, %function
 535              	rtcConvertDateTimeToFAT:
 536              	.LFB337:
 537              		.loc 1 284 0
 538              		.cfi_startproc
 539              		@ args = 0, pretend = 0, frame = 0
 540              		@ frame_needed = 0, uses_anonymous_args = 0
 541              		@ link register save eliminated.
 542              	.LVL42:
 543 01f0 70B4     		push	{r4, r5, r6}
 544              		.cfi_def_cfa_offset 12
 545              		.cfi_offset 4, -12
 546              		.cfi_offset 5, -8
 547              		.cfi_offset 6, -4
 548              		.loc 1 288 0
 549 01f2 4268     		ldr	r2, [r0, #4]
 550 01f4 C2F31A02 		ubfx	r2, r2, #0, #27
 551 01f8 1D4B     		ldr	r3, .L52
 552 01fa A3FB0232 		umull	r3, r2, r3, r2
 553 01fe 9209     		lsrs	r2, r2, #6
 554              	.LVL43:
 555              		.loc 1 289 0
 556 0200 1C4B     		ldr	r3, .L52+4
 557 0202 A3FB0213 		umull	r1, r3, r3, r2
 558 0206 DC0A     		lsrs	r4, r3, #11
 559              	.LVL44:
 560              		.loc 1 290 0
 561 0208 4FF46161 		mov	r1, #3600
 562 020c 01FB1421 		mls	r1, r1, r4, r2
 563              	.LVL45:
 564              		.loc 1 291 0
 565 0210 194B     		ldr	r3, .L52+8
 566 0212 A3FB0123 		umull	r2, r3, r3, r1
 567 0216 5B09     		lsrs	r3, r3, #5
ARM GAS  C:\Users\RAKIBU~1\AppData\Local\Temp\cckAI3KF.s 			page 11


 568              	.LVL46:
 569              		.loc 1 292 0
 570 0218 C3EB0315 		rsb	r5, r3, r3, lsl #4
 571 021c AA00     		lsls	r2, r5, #2
 572 021e 8A1A     		subs	r2, r1, r2
 573              	.LVL47:
 574              		.loc 1 293 0
 575 0220 8178     		ldrb	r1, [r0, #2]	@ zero_extendqisi2
 576 0222 01F01F01 		and	r1, r1, #31
 577              	.LVL48:
 578              		.loc 1 294 0
 579 0226 4578     		ldrb	r5, [r0, #1]	@ zero_extendqisi2
 580 0228 05F00F06 		and	r6, r5, #15
 581              	.LVL49:
 582              		.loc 1 297 0
 583 022c 15F0100F 		tst	r5, #16
 584 0230 02D0     		beq	.L48
 585              		.loc 1 298 0
 586 0232 0134     		adds	r4, r4, #1
 587              	.LVL50:
 588              		.loc 1 299 0
 589 0234 182C     		cmp	r4, #24
 590 0236 0DD0     		beq	.L51
 591              	.LVL51:
 592              	.L48:
 593              		.loc 1 310 0
 594 0238 5B01     		lsls	r3, r3, #5
 595              	.LVL52:
 596 023a 43EA5203 		orr	r3, r3, r2, lsr #1
 597              	.LVL53:
 598              		.loc 1 311 0
 599 023e 43EAC423 		orr	r3, r3, r4, lsl #11
 600              	.LVL54:
 601              		.loc 1 312 0
 602 0242 43EA0143 		orr	r3, r3, r1, lsl #16
 603              	.LVL55:
 604              		.loc 1 313 0
 605 0246 43EA4653 		orr	r3, r3, r6, lsl #21
 606              	.LVL56:
 607              		.loc 1 314 0
 608 024a 0078     		ldrb	r0, [r0]	@ zero_extendqisi2
 609              	.LVL57:
 610              		.loc 1 317 0
 611 024c 43EA4060 		orr	r0, r3, r0, lsl #25
 612              	.LVL58:
 613 0250 70BC     		pop	{r4, r5, r6}
 614              		.cfi_remember_state
 615              		.cfi_restore 6
 616              		.cfi_restore 5
 617              		.cfi_restore 4
 618              		.cfi_def_cfa_offset 0
 619              	.LVL59:
 620 0252 7047     		bx	lr
 621              	.LVL60:
 622              	.L51:
 623              		.cfi_restore_state
 624              		.loc 1 301 0
ARM GAS  C:\Users\RAKIBU~1\AppData\Local\Temp\cckAI3KF.s 			page 12


 625 0254 0131     		adds	r1, r1, #1
 626              	.LVL61:
 627              		.loc 1 302 0
 628 0256 751E     		subs	r5, r6, #1
 629 0258 084C     		ldr	r4, .L52+12
 630 025a 2C44     		add	r4, r4, r5
 631 025c 94F84040 		ldrb	r4, [r4, #64]	@ zero_extendqisi2
 632 0260 8C42     		cmp	r4, r1
 633 0262 03D2     		bcs	.L49
 634              	.LVL62:
 635              		.loc 1 304 0
 636 0264 0136     		adds	r6, r6, #1
 637              	.LVL63:
 638              		.loc 1 303 0
 639 0266 0121     		movs	r1, #1
 640              		.loc 1 300 0
 641 0268 0024     		movs	r4, #0
 642 026a E5E7     		b	.L48
 643              	.LVL64:
 644              	.L49:
 645 026c 0024     		movs	r4, #0
 646 026e E3E7     		b	.L48
 647              	.L53:
 648              		.align	2
 649              	.L52:
 650 0270 D34D6210 		.word	274877907
 651 0274 C5B3A291 		.word	-1851608123
 652 0278 89888888 		.word	-2004318071
 653 027c 00000000 		.word	.LANCHOR0
 654              		.cfi_endproc
 655              	.LFE337:
 656              		.size	rtcConvertDateTimeToFAT, .-rtcConvertDateTimeToFAT
 657              		.section	.rodata
 658              		.align	2
 659              		.set	.LANCHOR0,. + 0
 660              		.type	__func__.8976, %object
 661              		.size	__func__.8976, 11
 662              	__func__.8976:
 663 0000 72746353 		.ascii	"rtcSetTime\000"
 663      65745469 
 663      6D6500
 664 000b 00       		.space	1
 665              		.type	__func__.8981, %object
 666              		.size	__func__.8981, 11
 667              	__func__.8981:
 668 000c 72746347 		.ascii	"rtcGetTime\000"
 668      65745469 
 668      6D6500
 669 0017 00       		.space	1
 670              		.type	__func__.8987, %object
 671              		.size	__func__.8987, 12
 672              	__func__.8987:
 673 0018 72746353 		.ascii	"rtcSetAlarm\000"
 673      6574416C 
 673      61726D00 
 674              		.type	__func__.8993, %object
 675              		.size	__func__.8993, 12
ARM GAS  C:\Users\RAKIBU~1\AppData\Local\Temp\cckAI3KF.s 			page 13


 676              	__func__.8993:
 677 0024 72746347 		.ascii	"rtcGetAlarm\000"
 677      6574416C 
 677      61726D00 
 678              		.type	__func__.8998, %object
 679              		.size	__func__.8998, 15
 680              	__func__.8998:
 681 0030 72746353 		.ascii	"rtcSetCallback\000"
 681      65744361 
 681      6C6C6261 
 681      636B00
 682 003f 00       		.space	1
 683              		.type	month_len, %object
 684              		.size	month_len, 12
 685              	month_len:
 686 0040 1F       		.byte	31
 687 0041 1E       		.byte	30
 688 0042 1F       		.byte	31
 689 0043 1E       		.byte	30
 690 0044 1F       		.byte	31
 691 0045 1E       		.byte	30
 692 0046 1F       		.byte	31
 693 0047 1F       		.byte	31
 694 0048 1E       		.byte	30
 695 0049 1F       		.byte	31
 696 004a 1E       		.byte	30
 697 004b 1F       		.byte	31
 698              		.text
 699              	.Letext0:
 700              		.file 2 "c:\\chibistudio\\tools\\gnu tools arm embedded\\7.0 2017q4\\lib\\gcc\\arm-none-eabi\\7.2.
 701              		.file 3 "c:\\chibistudio\\tools\\gnu tools arm embedded\\7.0 2017q4\\arm-none-eabi\\include\\machi
 702              		.file 4 "c:\\chibistudio\\tools\\gnu tools arm embedded\\7.0 2017q4\\arm-none-eabi\\include\\sys\\
 703              		.file 5 "c:\\chibistudio\\tools\\gnu tools arm embedded\\7.0 2017q4\\arm-none-eabi\\include\\stdin
 704              		.file 6 "../../../ChibiOSRepo/chibios191/os/common/ports/ARMCMx/compilers/GCC/chtypes.h"
 705              		.file 7 "../../../ChibiOSRepo/chibios191/os/rt/include/chsystypes.h"
 706              		.file 8 "../../../ChibiOSRepo/chibios191/os/rt/include/chschd.h"
 707              		.file 9 "../../../ChibiOSRepo/chibios191/os/rt/include/chtime.h"
 708              		.file 10 "../../../ChibiOSRepo/chibios191/os/common/ext/ARM/CMSIS/Core/Include/core_cm4.h"
 709              		.file 11 "../../../ChibiOSRepo/chibios191/os/common/ext/ST/STM32F4xx/system_stm32f4xx.h"
 710              		.file 12 "../../../ChibiOSRepo/chibios191/os/common/ext/ST/STM32F4xx/stm32f407xx.h"
 711              		.file 13 "../../../ChibiOSRepo/chibios191/os/common/ports/ARMCMx/chcore.h"
 712              		.file 14 "../../../ChibiOSRepo/chibios191/os/common/ports/ARMCMx/chcore_v7m.h"
 713              		.file 15 "../../../ChibiOSRepo/chibios191/os/hal/ports/STM32/LLD/TIMv1/stm32_tim.h"
 714              		.file 16 "../../../ChibiOSRepo/chibios191/os/rt/include/chtrace.h"
 715              		.file 17 "../../../ChibiOSRepo/chibios191/os/rt/include/chtm.h"
 716              		.file 18 "../../../ChibiOSRepo/chibios191/os/rt/include/chstats.h"
 717              		.file 19 "../../../ChibiOSRepo/chibios191/os/rt/include/chsem.h"
 718              		.file 20 "../../../ChibiOSRepo/chibios191/os/rt/include/chmtx.h"
 719              		.file 21 "../../../ChibiOSRepo/chibios191/os/rt/include/chsys.h"
 720              		.file 22 "../../../ChibiOSRepo/chibios191/os/rt/include/chregistry.h"
 721              		.file 23 "../../../ChibiOSRepo/chibios191/os/rt/include/chevents.h"
 722              		.file 24 "../../../ChibiOSRepo/chibios191/os/oslib/include/chmemcore.h"
 723              		.file 25 "../../../ChibiOSRepo/chibios191/os/oslib/include/chmempools.h"
 724              		.file 26 "../../../ChibiOSRepo/chibios191/os/oslib/include/chfactory.h"
 725              		.file 27 "../../../ChibiOSRepo/chibios191/os/hal/ports/STM32/LLD/DMAv2/stm32_dma.h"
 726              		.file 28 "../../../ChibiOSRepo/chibios191/os/hal/include/hal_ioblock.h"
 727              		.file 29 "../../../ChibiOSRepo/chibios191/os/hal/include/hal_persistent.h"
ARM GAS  C:\Users\RAKIBU~1\AppData\Local\Temp\cckAI3KF.s 			page 14


 728              		.file 30 "../../../ChibiOSRepo/chibios191/os/hal/include/hal_queues.h"
 729              		.file 31 "../../../ChibiOSRepo/chibios191/os/hal/include/hal_pal.h"
 730              		.file 32 "../../../ChibiOSRepo/chibios191/os/hal/ports/STM32/LLD/GPIOv2/stm32_gpio.h"
 731              		.file 33 "../../../ChibiOSRepo/chibios191/os/hal/ports/STM32/LLD/GPIOv2/hal_pal_lld.h"
 732              		.file 34 "../../../ChibiOSRepo/chibios191/os/hal/include/hal_gpt.h"
 733              		.file 35 "../../../ChibiOSRepo/chibios191/os/hal/ports/STM32/LLD/TIMv1/hal_gpt_lld.h"
 734              		.file 36 "../../../ChibiOSRepo/chibios191/os/hal/include/hal_i2c.h"
 735              		.file 37 "../../../ChibiOSRepo/chibios191/os/hal/ports/STM32/LLD/I2Cv1/hal_i2c_lld.h"
 736              		.file 38 "c:\\chibistudio\\tools\\gnu tools arm embedded\\7.0 2017q4\\arm-none-eabi\\include\\sys\
 737              		.file 39 "c:\\chibistudio\\tools\\gnu tools arm embedded\\7.0 2017q4\\arm-none-eabi\\include\\sys\
 738              		.file 40 "c:\\chibistudio\\tools\\gnu tools arm embedded\\7.0 2017q4\\arm-none-eabi\\include\\sys\
 739              		.file 41 "c:\\chibistudio\\tools\\gnu tools arm embedded\\7.0 2017q4\\arm-none-eabi\\include\\time
 740              		.file 42 "../../../ChibiOSRepo/chibios191/os/hal/include/hal_rtc.h"
 741              		.file 43 "../../../ChibiOSRepo/chibios191/os/hal/ports/STM32/LLD/RTCv2/hal_rtc_lld.h"
 742              		.file 44 "../../../ChibiOSRepo/chibios191/os/hal/include/hal_serial.h"
 743              		.file 45 "../../../ChibiOSRepo/chibios191/os/hal/ports/STM32/LLD/USARTv1/hal_serial_lld.h"
 744              		.file 46 "../../../ChibiOSRepo/chibios191/os/hal/include/hal_sdc.h"
 745              		.file 47 "../../../ChibiOSRepo/chibios191/os/hal/ports/STM32/LLD/SDIOv1/hal_sdc_lld.h"
 746              		.file 48 "../../../ChibiOSRepo/chibios191/os/hal/include/hal_spi.h"
 747              		.file 49 "../../../ChibiOSRepo/chibios191/os/hal/ports/STM32/LLD/SPIv1/hal_spi_lld.h"
 748              		.file 50 "../../../ChibiOSRepo/chibios191/os/rt/include/ch.h"