ARM GAS  C:\Users\RAKIBU~1\AppData\Local\Temp\ccQ3AEax.s 			page 1


   1              		.cpu cortex-m4
   2              		.eabi_attribute 20, 1
   3              		.eabi_attribute 21, 1
   4              		.eabi_attribute 23, 3
   5              		.eabi_attribute 24, 1
   6              		.eabi_attribute 25, 1
   7              		.eabi_attribute 26, 1
   8              		.eabi_attribute 30, 1
   9              		.eabi_attribute 34, 1
  10              		.eabi_attribute 18, 4
  11              		.file	"m2m_wifi.c"
  12              		.text
  13              	.Ltext0:
  14              		.cfi_sections	.debug_frame
  15              		.align	1
  16              		.p2align 4,,15
  17              		.syntax unified
  18              		.thumb
  19              		.thumb_func
  20              		.fpu softvfp
  21              		.type	m2m_validate_scan_options, %function
  22              	m2m_validate_scan_options:
  23              	.LFB334:
  24              		.file 1 "./winc1500/driver/source/m2m_wifi.c"
  25              		.loc 1 400 0
  26              		.cfi_startproc
  27              		@ args = 0, pretend = 0, frame = 0
  28              		@ frame_needed = 0, uses_anonymous_args = 0
  29              		@ link register save eliminated.
  30              	.LVL0:
  31              		.loc 1 403 0
  32 0000 98B1     		cbz	r0, .L3
  33              		.loc 1 410 0
  34 0002 0378     		ldrb	r3, [r0]	@ zero_extendqisi2
  35 0004 A3B1     		cbz	r3, .L4
  36              		.loc 1 417 0
  37 0006 4378     		ldrb	r3, [r0, #1]	@ zero_extendqisi2
  38 0008 0A3B     		subs	r3, r3, #10
  39 000a DBB2     		uxtb	r3, r3
  40 000c F02B     		cmp	r3, #240
  41 000e 12D8     		bhi	.L5
  42              		.loc 1 424 0
  43 0010 8378     		ldrb	r3, [r0, #2]	@ zero_extendqisi2
  44 0012 013B     		subs	r3, r3, #1
  45 0014 DBB2     		uxtb	r3, r3
  46 0016 012B     		cmp	r3, #1
  47 0018 10D8     		bhi	.L6
  48              		.loc 1 431 0
  49 001a 90F90330 		ldrsb	r3, [r0, #3]
  50 001e 6333     		adds	r3, r3, #99
  51 0020 DBB2     		uxtb	r3, r3
  52 0022 622B     		cmp	r3, #98
  53 0024 0DD8     		bhi	.L7
  54              		.loc 1 401 0
  55 0026 0020     		movs	r0, #0
  56              	.LVL1:
  57 0028 7047     		bx	lr
ARM GAS  C:\Users\RAKIBU~1\AppData\Local\Temp\ccQ3AEax.s 			page 2


  58              	.LVL2:
  59              	.L3:
  60              		.loc 1 406 0
  61 002a 6FF00B00 		mvn	r0, #11
  62              	.LVL3:
  63 002e 7047     		bx	lr
  64              	.LVL4:
  65              	.L4:
  66              		.loc 1 413 0
  67 0030 6FF00B00 		mvn	r0, #11
  68              	.LVL5:
  69 0034 7047     		bx	lr
  70              	.LVL6:
  71              	.L5:
  72              		.loc 1 420 0
  73 0036 6FF00B00 		mvn	r0, #11
  74              	.LVL7:
  75 003a 7047     		bx	lr
  76              	.LVL8:
  77              	.L6:
  78              		.loc 1 427 0
  79 003c 6FF00B00 		mvn	r0, #11
  80              	.LVL9:
  81 0040 7047     		bx	lr
  82              	.LVL10:
  83              	.L7:
  84              		.loc 1 434 0
  85 0042 6FF00B00 		mvn	r0, #11
  86              	.LVL11:
  87              	.L2:
  88              		.loc 1 439 0
  89 0046 7047     		bx	lr
  90              		.cfi_endproc
  91              	.LFE334:
  92              		.size	m2m_validate_scan_options, .-m2m_validate_scan_options
  93              		.align	1
  94 0048 AFF30080 		.p2align 4,,15
  94      AFF30080 
  95              		.syntax unified
  96              		.thumb
  97              		.thumb_func
  98              		.fpu softvfp
  99              		.type	m2m_wifi_cb, %function
 100              	m2m_wifi_cb:
 101              	.LFB331:
 102              		.loc 1 88 0
 103              		.cfi_startproc
 104              		@ args = 0, pretend = 0, frame = 112
 105              		@ frame_needed = 0, uses_anonymous_args = 0
 106              	.LVL12:
 107 0050 10B5     		push	{r4, lr}
 108              		.cfi_def_cfa_offset 8
 109              		.cfi_offset 4, -8
 110              		.cfi_offset 14, -4
 111 0052 9CB0     		sub	sp, sp, #112
 112              		.cfi_def_cfa_offset 120
 113 0054 1446     		mov	r4, r2
ARM GAS  C:\Users\RAKIBU~1\AppData\Local\Temp\ccQ3AEax.s 			page 3


 114              		.loc 1 90 0
 115 0056 2C28     		cmp	r0, #44
 116 0058 36D0     		beq	.L34
 117              		.loc 1 99 0
 118 005a 1B28     		cmp	r0, #27
 119 005c 44D0     		beq	.L35
 120              		.loc 1 108 0
 121 005e 0628     		cmp	r0, #6
 122 0060 52D0     		beq	.L36
 123              		.loc 1 117 0
 124 0062 0E28     		cmp	r0, #14
 125 0064 3ED0     		beq	.L8
 126              		.loc 1 129 0
 127 0066 3228     		cmp	r0, #50
 128 0068 5ED0     		beq	.L37
 129              		.loc 1 138 0
 130 006a 2F28     		cmp	r0, #47
 131 006c 6CD0     		beq	.L38
 132              		.loc 1 148 0
 133 006e 3428     		cmp	r0, #52
 134 0070 7FD0     		beq	.L39
 135              		.loc 1 160 0
 136 0072 1128     		cmp	r0, #17
 137 0074 00F08E80 		beq	.L40
 138              		.loc 1 171 0
 139 0078 1328     		cmp	r0, #19
 140 007a 00F0A180 		beq	.L41
 141              		.loc 1 180 0
 142 007e 0428     		cmp	r0, #4
 143 0080 00F0AE80 		beq	.L42
 144              		.loc 1 188 0
 145 0084 6528     		cmp	r0, #101
 146 0086 00F0BD80 		beq	.L43
 147              		.loc 1 196 0
 148 008a 0928     		cmp	r0, #9
 149 008c 00F0CC80 		beq	.L44
 150              		.loc 1 205 0
 151 0090 2A28     		cmp	r0, #42
 152 0092 00F0DB80 		beq	.L45
 153              		.loc 1 215 0
 154 0096 2028     		cmp	r0, #32
 155 0098 24D1     		bne	.L8
 156              	.LBB2:
 157              		.loc 1 218 0
 158 009a 0023     		movs	r3, #0
 159 009c 0822     		movs	r2, #8
 160              	.LVL13:
 161 009e 01A9     		add	r1, sp, #4
 162              	.LVL14:
 163 00a0 2046     		mov	r0, r4
 164              	.LVL15:
 165 00a2 FFF7FEFF 		bl	hif_receive
 166              	.LVL16:
 167 00a6 E8B9     		cbnz	r0, .L8
 168              		.loc 1 220 0
 169 00a8 0123     		movs	r3, #1
 170 00aa BDF80820 		ldrh	r2, [sp, #8]
ARM GAS  C:\Users\RAKIBU~1\AppData\Local\Temp\ccQ3AEax.s 			page 4


 171 00ae 0199     		ldr	r1, [sp, #4]
 172 00b0 04F10800 		add	r0, r4, #8
 173 00b4 FFF7FEFF 		bl	hif_receive
 174              	.LVL17:
 175 00b8 A0B9     		cbnz	r0, .L8
 176              		.loc 1 222 0
 177 00ba 6E4B     		ldr	r3, .L46
 178 00bc 1B68     		ldr	r3, [r3]
 179 00be 8BB1     		cbz	r3, .L8
 180              		.loc 1 223 0
 181 00c0 01A9     		add	r1, sp, #4
 182 00c2 2020     		movs	r0, #32
 183 00c4 9847     		blx	r3
 184              	.LVL18:
 185              	.LBE2:
 186              		.loc 1 297 0
 187 00c6 0DE0     		b	.L8
 188              	.LVL19:
 189              	.L34:
 190              	.LBB3:
 191              		.loc 1 93 0
 192 00c8 0023     		movs	r3, #0
 193 00ca 0422     		movs	r2, #4
 194              	.LVL20:
 195 00cc 0DEB0201 		add	r1, sp, r2
 196              	.LVL21:
 197 00d0 2046     		mov	r0, r4
 198              	.LVL22:
 199 00d2 FFF7FEFF 		bl	hif_receive
 200              	.LVL23:
 201 00d6 28B9     		cbnz	r0, .L8
 202              		.loc 1 95 0
 203 00d8 664B     		ldr	r3, .L46
 204 00da 1B68     		ldr	r3, [r3]
 205 00dc 13B1     		cbz	r3, .L8
 206              		.loc 1 96 0
 207 00de 01A9     		add	r1, sp, #4
 208 00e0 2C20     		movs	r0, #44
 209 00e2 9847     		blx	r3
 210              	.LVL24:
 211              	.L8:
 212              	.LBE3:
 213              		.loc 1 297 0
 214 00e4 1CB0     		add	sp, sp, #112
 215              		.cfi_remember_state
 216              		.cfi_def_cfa_offset 8
 217              		@ sp needed
 218 00e6 10BD     		pop	{r4, pc}
 219              	.LVL25:
 220              	.L35:
 221              		.cfi_restore_state
 222              	.LBB4:
 223              		.loc 1 102 0
 224 00e8 0023     		movs	r3, #0
 225 00ea 0822     		movs	r2, #8
 226              	.LVL26:
 227 00ec 01A9     		add	r1, sp, #4
ARM GAS  C:\Users\RAKIBU~1\AppData\Local\Temp\ccQ3AEax.s 			page 5


 228              	.LVL27:
 229 00ee 2046     		mov	r0, r4
 230              	.LVL28:
 231 00f0 FFF7FEFF 		bl	hif_receive
 232              	.LVL29:
 233 00f4 0028     		cmp	r0, #0
 234 00f6 F5D1     		bne	.L8
 235              		.loc 1 104 0
 236 00f8 5E4B     		ldr	r3, .L46
 237 00fa 1B68     		ldr	r3, [r3]
 238 00fc 002B     		cmp	r3, #0
 239 00fe F1D0     		beq	.L8
 240              		.loc 1 105 0
 241 0100 01A9     		add	r1, sp, #4
 242 0102 1B20     		movs	r0, #27
 243 0104 9847     		blx	r3
 244              	.LVL30:
 245 0106 EDE7     		b	.L8
 246              	.LVL31:
 247              	.L36:
 248              	.LBE4:
 249              	.LBB5:
 250              		.loc 1 111 0
 251 0108 0123     		movs	r3, #1
 252 010a 3022     		movs	r2, #48
 253              	.LVL32:
 254 010c 01A9     		add	r1, sp, #4
 255              	.LVL33:
 256 010e 2046     		mov	r0, r4
 257              	.LVL34:
 258 0110 FFF7FEFF 		bl	hif_receive
 259              	.LVL35:
 260 0114 0028     		cmp	r0, #0
 261 0116 E5D1     		bne	.L8
 262              		.loc 1 113 0
 263 0118 564B     		ldr	r3, .L46
 264 011a 1B68     		ldr	r3, [r3]
 265 011c 002B     		cmp	r3, #0
 266 011e E1D0     		beq	.L8
 267              		.loc 1 114 0
 268 0120 01A9     		add	r1, sp, #4
 269 0122 0620     		movs	r0, #6
 270 0124 9847     		blx	r3
 271              	.LVL36:
 272 0126 DDE7     		b	.L8
 273              	.LVL37:
 274              	.L37:
 275              	.LBE5:
 276              	.LBB6:
 277              		.loc 1 132 0
 278 0128 0023     		movs	r3, #0
 279 012a 1422     		movs	r2, #20
 280              	.LVL38:
 281 012c 01A9     		add	r1, sp, #4
 282              	.LVL39:
 283 012e 2046     		mov	r0, r4
 284              	.LVL40:
ARM GAS  C:\Users\RAKIBU~1\AppData\Local\Temp\ccQ3AEax.s 			page 6


 285 0130 FFF7FEFF 		bl	hif_receive
 286              	.LVL41:
 287 0134 0028     		cmp	r0, #0
 288 0136 D5D1     		bne	.L8
 289              		.loc 1 134 0
 290 0138 4E4B     		ldr	r3, .L46
 291 013a 1B68     		ldr	r3, [r3]
 292 013c 002B     		cmp	r3, #0
 293 013e D1D0     		beq	.L8
 294              		.loc 1 135 0
 295 0140 01A9     		add	r1, sp, #4
 296 0142 3220     		movs	r0, #50
 297 0144 9847     		blx	r3
 298              	.LVL42:
 299 0146 CDE7     		b	.L8
 300              	.LVL43:
 301              	.L38:
 302              	.LBE6:
 303              	.LBB7:
 304              		.loc 1 141 0
 305 0148 6422     		movs	r2, #100
 306              	.LVL44:
 307 014a 0021     		movs	r1, #0
 308              	.LVL45:
 309 014c 01A8     		add	r0, sp, #4
 310              	.LVL46:
 311 014e FFF7FEFF 		bl	m2m_memset
 312              	.LVL47:
 313              		.loc 1 142 0
 314 0152 0023     		movs	r3, #0
 315 0154 6422     		movs	r2, #100
 316 0156 01A9     		add	r1, sp, #4
 317 0158 2046     		mov	r0, r4
 318 015a FFF7FEFF 		bl	hif_receive
 319              	.LVL48:
 320 015e 0028     		cmp	r0, #0
 321 0160 C0D1     		bne	.L8
 322              		.loc 1 144 0
 323 0162 444B     		ldr	r3, .L46
 324 0164 1B68     		ldr	r3, [r3]
 325 0166 002B     		cmp	r3, #0
 326 0168 BCD0     		beq	.L8
 327              		.loc 1 145 0
 328 016a 01A9     		add	r1, sp, #4
 329 016c 2F20     		movs	r0, #47
 330 016e 9847     		blx	r3
 331              	.LVL49:
 332 0170 B8E7     		b	.L8
 333              	.LVL50:
 334              	.L39:
 335              	.LBE7:
 336              	.LBB8:
 337              		.loc 1 151 0
 338 0172 0023     		movs	r3, #0
 339 0174 0422     		movs	r2, #4
 340              	.LVL51:
 341 0176 0DEB0201 		add	r1, sp, r2
ARM GAS  C:\Users\RAKIBU~1\AppData\Local\Temp\ccQ3AEax.s 			page 7


 342              	.LVL52:
 343 017a 2046     		mov	r0, r4
 344              	.LVL53:
 345 017c FFF7FEFF 		bl	hif_receive
 346              	.LVL54:
 347 0180 0028     		cmp	r0, #0
 348 0182 AFD1     		bne	.L8
 349              		.loc 1 155 0
 350 0184 3B4B     		ldr	r3, .L46
 351 0186 1B68     		ldr	r3, [r3]
 352 0188 002B     		cmp	r3, #0
 353 018a ABD0     		beq	.L8
 354              		.loc 1 156 0
 355 018c 0021     		movs	r1, #0
 356 018e 3420     		movs	r0, #52
 357 0190 9847     		blx	r3
 358              	.LVL55:
 359 0192 A7E7     		b	.L8
 360              	.LVL56:
 361              	.L40:
 362              	.LBE8:
 363              	.LBB9:
 364              		.loc 1 163 0
 365 0194 0023     		movs	r3, #0
 366 0196 374A     		ldr	r2, .L46
 367              	.LVL57:
 368 0198 1371     		strb	r3, [r2, #4]
 369              		.loc 1 164 0
 370 019a 0422     		movs	r2, #4
 371 019c 0DEB0201 		add	r1, sp, r2
 372              	.LVL58:
 373 01a0 2046     		mov	r0, r4
 374              	.LVL59:
 375 01a2 FFF7FEFF 		bl	hif_receive
 376              	.LVL60:
 377 01a6 0028     		cmp	r0, #0
 378 01a8 9CD1     		bne	.L8
 379              		.loc 1 166 0
 380 01aa 9DF80420 		ldrb	r2, [sp, #4]	@ zero_extendqisi2
 381 01ae 314B     		ldr	r3, .L46
 382 01b0 5A71     		strb	r2, [r3, #5]
 383              		.loc 1 167 0
 384 01b2 1B68     		ldr	r3, [r3]
 385 01b4 002B     		cmp	r3, #0
 386 01b6 95D0     		beq	.L8
 387              		.loc 1 168 0
 388 01b8 01A9     		add	r1, sp, #4
 389 01ba 1120     		movs	r0, #17
 390 01bc 9847     		blx	r3
 391              	.LVL61:
 392 01be 91E7     		b	.L8
 393              	.LVL62:
 394              	.L41:
 395              	.LBE9:
 396              	.LBB10:
 397              		.loc 1 174 0
 398 01c0 0023     		movs	r3, #0
ARM GAS  C:\Users\RAKIBU~1\AppData\Local\Temp\ccQ3AEax.s 			page 8


 399 01c2 2C22     		movs	r2, #44
 400              	.LVL63:
 401 01c4 01A9     		add	r1, sp, #4
 402              	.LVL64:
 403 01c6 2046     		mov	r0, r4
 404              	.LVL65:
 405 01c8 FFF7FEFF 		bl	hif_receive
 406              	.LVL66:
 407 01cc 0028     		cmp	r0, #0
 408 01ce 89D1     		bne	.L8
 409              		.loc 1 176 0
 410 01d0 284B     		ldr	r3, .L46
 411 01d2 1B68     		ldr	r3, [r3]
 412 01d4 002B     		cmp	r3, #0
 413 01d6 85D0     		beq	.L8
 414              		.loc 1 177 0
 415 01d8 01A9     		add	r1, sp, #4
 416 01da 1320     		movs	r0, #19
 417 01dc 9847     		blx	r3
 418              	.LVL67:
 419 01de 81E7     		b	.L8
 420              	.LVL68:
 421              	.L42:
 422              	.LBE10:
 423              		.loc 1 182 0
 424 01e0 0023     		movs	r3, #0
 425 01e2 0422     		movs	r2, #4
 426              	.LVL69:
 427 01e4 1AA9     		add	r1, sp, #104
 428              	.LVL70:
 429 01e6 2046     		mov	r0, r4
 430              	.LVL71:
 431 01e8 FFF7FEFF 		bl	hif_receive
 432              	.LVL72:
 433 01ec 0028     		cmp	r0, #0
 434 01ee 7FF479AF 		bne	.L8
 435              		.loc 1 184 0
 436 01f2 204B     		ldr	r3, .L46
 437 01f4 1B68     		ldr	r3, [r3]
 438 01f6 002B     		cmp	r3, #0
 439 01f8 3FF474AF 		beq	.L8
 440              		.loc 1 185 0
 441 01fc 1AA9     		add	r1, sp, #104
 442 01fe 0420     		movs	r0, #4
 443 0200 9847     		blx	r3
 444              	.LVL73:
 445 0202 6FE7     		b	.L8
 446              	.LVL74:
 447              	.L43:
 448              		.loc 1 190 0
 449 0204 0023     		movs	r3, #0
 450 0206 0422     		movs	r2, #4
 451              	.LVL75:
 452 0208 1AA9     		add	r1, sp, #104
 453              	.LVL76:
 454 020a 2046     		mov	r0, r4
 455              	.LVL77:
ARM GAS  C:\Users\RAKIBU~1\AppData\Local\Temp\ccQ3AEax.s 			page 9


 456 020c FFF7FEFF 		bl	hif_receive
 457              	.LVL78:
 458 0210 0028     		cmp	r0, #0
 459 0212 7FF467AF 		bne	.L8
 460              		.loc 1 192 0
 461 0216 174B     		ldr	r3, .L46
 462 0218 1B68     		ldr	r3, [r3]
 463 021a 002B     		cmp	r3, #0
 464 021c 3FF462AF 		beq	.L8
 465              		.loc 1 193 0
 466 0220 1AA9     		add	r1, sp, #104
 467 0222 6520     		movs	r0, #101
 468 0224 9847     		blx	r3
 469              	.LVL79:
 470 0226 5DE7     		b	.L8
 471              	.LVL80:
 472              	.L44:
 473              	.LBB11:
 474              		.loc 1 199 0
 475 0228 0123     		movs	r3, #1
 476 022a 6422     		movs	r2, #100
 477              	.LVL81:
 478 022c 01A9     		add	r1, sp, #4
 479              	.LVL82:
 480 022e 2046     		mov	r0, r4
 481              	.LVL83:
 482 0230 FFF7FEFF 		bl	hif_receive
 483              	.LVL84:
 484 0234 0028     		cmp	r0, #0
 485 0236 7FF455AF 		bne	.L8
 486              		.loc 1 201 0
 487 023a 0E4B     		ldr	r3, .L46
 488 023c 1B68     		ldr	r3, [r3]
 489 023e 002B     		cmp	r3, #0
 490 0240 3FF450AF 		beq	.L8
 491              		.loc 1 202 0
 492 0244 01A9     		add	r1, sp, #4
 493 0246 0920     		movs	r0, #9
 494 0248 9847     		blx	r3
 495              	.LVL85:
 496 024a 4BE7     		b	.L8
 497              	.LVL86:
 498              	.L45:
 499              	.LBE11:
 500              	.LBB12:
 501              		.loc 1 208 0
 502 024c 0123     		movs	r3, #1
 503 024e 0422     		movs	r2, #4
 504              	.LVL87:
 505 0250 0DEB0201 		add	r1, sp, r2
 506              	.LVL88:
 507 0254 2046     		mov	r0, r4
 508              	.LVL89:
 509 0256 FFF7FEFF 		bl	hif_receive
 510              	.LVL90:
 511 025a 0028     		cmp	r0, #0
 512 025c 7FF442AF 		bne	.L8
ARM GAS  C:\Users\RAKIBU~1\AppData\Local\Temp\ccQ3AEax.s 			page 10


 513              		.loc 1 210 0
 514 0260 044B     		ldr	r3, .L46
 515 0262 1B68     		ldr	r3, [r3]
 516 0264 002B     		cmp	r3, #0
 517 0266 3FF43DAF 		beq	.L8
 518              		.loc 1 211 0
 519 026a 01A9     		add	r1, sp, #4
 520 026c 2A20     		movs	r0, #42
 521 026e 9847     		blx	r3
 522              	.LVL91:
 523 0270 38E7     		b	.L8
 524              	.L47:
 525 0272 00BF     		.align	2
 526              	.L46:
 527 0274 00000000 		.word	.LANCHOR0
 528              	.LBE12:
 529              		.cfi_endproc
 530              	.LFE331:
 531              		.size	m2m_wifi_cb, .-m2m_wifi_cb
 532              		.align	1
 533 0278 AFF30080 		.p2align 4,,15
 533      AFF30080 
 534              		.syntax unified
 535              		.thumb
 536              		.thumb_func
 537              		.fpu softvfp
 538              		.type	m2m_validate_ap_parameters, %function
 539              	m2m_validate_ap_parameters:
 540              	.LFB333:
 541              		.loc 1 315 0
 542              		.cfi_startproc
 543              		@ args = 0, pretend = 0, frame = 0
 544              		@ frame_needed = 0, uses_anonymous_args = 0
 545              	.LVL92:
 546              		.loc 1 318 0
 547 0280 0028     		cmp	r0, #0
 548 0282 40D0     		beq	.L53
 549              		.loc 1 315 0
 550 0284 10B5     		push	{r4, lr}
 551              		.cfi_def_cfa_offset 8
 552              		.cfi_offset 4, -8
 553              		.cfi_offset 14, -4
 554 0286 0446     		mov	r4, r0
 555              		.loc 1 325 0
 556 0288 FFF7FEFF 		bl	m2m_strlen
 557              	.LVL93:
 558 028c 0028     		cmp	r0, #0
 559 028e 3DD0     		beq	.L54
 560              		.loc 1 325 0 is_stmt 0 discriminator 1
 561 0290 2046     		mov	r0, r4
 562 0292 FFF7FEFF 		bl	m2m_strlen
 563              	.LVL94:
 564 0296 2028     		cmp	r0, #32
 565 0298 3BD8     		bhi	.L55
 566              		.loc 1 332 0 is_stmt 1
 567 029a 94F82130 		ldrb	r3, [r4, #33]	@ zero_extendqisi2
 568 029e 013B     		subs	r3, r3, #1
ARM GAS  C:\Users\RAKIBU~1\AppData\Local\Temp\ccQ3AEax.s 			page 11


 569 02a0 DBB2     		uxtb	r3, r3
 570 02a2 0D2B     		cmp	r3, #13
 571 02a4 38D8     		bhi	.L56
 572              		.loc 1 339 0
 573 02a6 94F84130 		ldrb	r3, [r4, #65]	@ zero_extendqisi2
 574 02aa 2BB9     		cbnz	r3, .L50
 575              		.loc 1 339 0 is_stmt 0 discriminator 1
 576 02ac 94F84230 		ldrb	r3, [r4, #66]	@ zero_extendqisi2
 577 02b0 13B9     		cbnz	r3, .L50
 578              		.loc 1 341 0 is_stmt 1
 579 02b2 94F84330 		ldrb	r3, [r4, #67]	@ zero_extendqisi2
 580 02b6 93B3     		cbz	r3, .L57
 581              	.L50:
 582              		.loc 1 349 0
 583 02b8 94F83F30 		ldrb	r3, [r4, #63]	@ zero_extendqisi2
 584 02bc 012B     		cmp	r3, #1
 585 02be 31D0     		beq	.L58
 586              		.loc 1 353 0
 587 02c0 032B     		cmp	r3, #3
 588 02c2 08D0     		beq	.L69
 589              		.loc 1 379 0
 590 02c4 022B     		cmp	r3, #2
 591 02c6 3BD1     		bne	.L63
 592              		.loc 1 382 0
 593 02c8 94F82330 		ldrb	r3, [r4, #35]	@ zero_extendqisi2
 594 02cc 083B     		subs	r3, r3, #8
 595 02ce 382B     		cmp	r3, #56
 596 02d0 39D8     		bhi	.L64
 597              		.loc 1 316 0
 598 02d2 0020     		movs	r0, #0
 599              	.LVL95:
 600              	.L49:
 601              		.loc 1 398 0
 602 02d4 10BD     		pop	{r4, pc}
 603              	.LVL96:
 604              	.L69:
 605              		.loc 1 356 0
 606 02d6 94F82230 		ldrb	r3, [r4, #34]	@ zero_extendqisi2
 607 02da 013B     		subs	r3, r3, #1
 608 02dc DBB2     		uxtb	r3, r3
 609 02de 032B     		cmp	r3, #3
 610 02e0 22D8     		bhi	.L59
 611              		.loc 1 363 0
 612 02e2 94F82330 		ldrb	r3, [r4, #35]	@ zero_extendqisi2
 613 02e6 0A2B     		cmp	r3, #10
 614 02e8 01D0     		beq	.L52
 615              		.loc 1 363 0 is_stmt 0 discriminator 1
 616 02ea 1A2B     		cmp	r3, #26
 617 02ec 1FD1     		bne	.L60
 618              	.L52:
 619              		.loc 1 372 0 is_stmt 1
 620 02ee 2434     		adds	r4, r4, #36
 621              	.LVL97:
 622 02f0 2046     		mov	r0, r4
 623 02f2 FFF7FEFF 		bl	m2m_strlen
 624              	.LVL98:
 625 02f6 E8B1     		cbz	r0, .L61
ARM GAS  C:\Users\RAKIBU~1\AppData\Local\Temp\ccQ3AEax.s 			page 12


 626              		.loc 1 372 0 is_stmt 0 discriminator 1
 627 02f8 2046     		mov	r0, r4
 628 02fa FFF7FEFF 		bl	m2m_strlen
 629              	.LVL99:
 630 02fe 1A28     		cmp	r0, #26
 631 0300 1BD8     		bhi	.L62
 632              		.loc 1 316 0 is_stmt 1
 633 0302 0020     		movs	r0, #0
 634 0304 E6E7     		b	.L49
 635              	.LVL100:
 636              	.L53:
 637              		.cfi_def_cfa_offset 0
 638              		.cfi_restore 4
 639              		.cfi_restore 14
 640              		.loc 1 321 0
 641 0306 6FF00B00 		mvn	r0, #11
 642              	.LVL101:
 643              		.loc 1 398 0
 644 030a 7047     		bx	lr
 645              	.LVL102:
 646              	.L54:
 647              		.cfi_def_cfa_offset 8
 648              		.cfi_offset 4, -8
 649              		.cfi_offset 14, -4
 650              		.loc 1 328 0
 651 030c 6FF00B00 		mvn	r0, #11
 652 0310 E0E7     		b	.L49
 653              	.L55:
 654 0312 6FF00B00 		mvn	r0, #11
 655 0316 DDE7     		b	.L49
 656              	.L56:
 657              		.loc 1 335 0
 658 0318 6FF00B00 		mvn	r0, #11
 659 031c DAE7     		b	.L49
 660              	.L57:
 661              		.loc 1 344 0
 662 031e 6FF00B00 		mvn	r0, #11
 663 0322 D7E7     		b	.L49
 664              	.L58:
 665              		.loc 1 316 0
 666 0324 0020     		movs	r0, #0
 667 0326 D5E7     		b	.L49
 668              	.L59:
 669              		.loc 1 359 0
 670 0328 6FF00B00 		mvn	r0, #11
 671 032c D2E7     		b	.L49
 672              	.L60:
 673              		.loc 1 368 0
 674 032e 6FF00B00 		mvn	r0, #11
 675 0332 CFE7     		b	.L49
 676              	.LVL103:
 677              	.L61:
 678              		.loc 1 375 0
 679 0334 6FF00B00 		mvn	r0, #11
 680 0338 CCE7     		b	.L49
 681              	.L62:
 682 033a 6FF00B00 		mvn	r0, #11
ARM GAS  C:\Users\RAKIBU~1\AppData\Local\Temp\ccQ3AEax.s 			page 13


 683 033e C9E7     		b	.L49
 684              	.LVL104:
 685              	.L63:
 686              		.loc 1 392 0
 687 0340 6FF00B00 		mvn	r0, #11
 688 0344 C6E7     		b	.L49
 689              	.L64:
 690              		.loc 1 385 0
 691 0346 6FF00B00 		mvn	r0, #11
 692 034a C3E7     		b	.L49
 693              		.cfi_endproc
 694              	.LFE333:
 695              		.size	m2m_validate_ap_parameters, .-m2m_validate_ap_parameters
 696              		.align	1
 697 034c AFF30080 		.p2align 4,,15
 698              		.global	m2m_wifi_download_mode
 699              		.syntax unified
 700              		.thumb
 701              		.thumb_func
 702              		.fpu softvfp
 703              		.type	m2m_wifi_download_mode, %function
 704              	m2m_wifi_download_mode:
 705              	.LFB332:
 706              		.loc 1 300 0
 707              		.cfi_startproc
 708              		@ args = 0, pretend = 0, frame = 0
 709              		@ frame_needed = 0, uses_anonymous_args = 0
 710 0350 10B5     		push	{r4, lr}
 711              		.cfi_def_cfa_offset 8
 712              		.cfi_offset 4, -8
 713              		.cfi_offset 14, -4
 714              	.LVL105:
 715              		.loc 1 303 0
 716 0352 FFF7FEFF 		bl	nm_drv_init_download_mode
 717              	.LVL106:
 718              		.loc 1 304 0
 719 0356 0446     		mov	r4, r0
 720 0358 08B1     		cbz	r0, .L73
 721              	.LVL107:
 722              	.L71:
 723              		.loc 1 312 0
 724 035a 2046     		mov	r0, r4
 725 035c 10BD     		pop	{r4, pc}
 726              	.LVL108:
 727              	.L73:
 728              		.loc 1 308 0
 729 035e FFF7FEFF 		bl	enable_interrupts
 730              	.LVL109:
 731 0362 FAE7     		b	.L71
 732              		.cfi_endproc
 733              	.LFE332:
 734              		.size	m2m_wifi_download_mode, .-m2m_wifi_download_mode
 735              		.align	1
 736 0364 AFF30080 		.p2align 4,,15
 736      AFF30080 
 736      AFF30080 
 737              		.global	m2m_wifi_send_crl
ARM GAS  C:\Users\RAKIBU~1\AppData\Local\Temp\ccQ3AEax.s 			page 14


 738              		.syntax unified
 739              		.thumb
 740              		.thumb_func
 741              		.fpu softvfp
 742              		.type	m2m_wifi_send_crl, %function
 743              	m2m_wifi_send_crl:
 744              	.LFB335:
 745              		.loc 1 442 0
 746              		.cfi_startproc
 747              		@ args = 0, pretend = 0, frame = 0
 748              		@ frame_needed = 0, uses_anonymous_args = 0
 749              	.LVL110:
 750 0370 00B5     		push	{lr}
 751              		.cfi_def_cfa_offset 4
 752              		.cfi_offset 14, -4
 753 0372 85B0     		sub	sp, sp, #20
 754              		.cfi_def_cfa_offset 24
 755              	.LVL111:
 756              		.loc 1 444 0
 757 0374 0022     		movs	r2, #0
 758 0376 0292     		str	r2, [sp, #8]
 759 0378 4FF42B73 		mov	r3, #684
 760 037c 0193     		str	r3, [sp, #4]
 761 037e 0090     		str	r0, [sp]
 762 0380 1346     		mov	r3, r2
 763 0382 8321     		movs	r1, #131
 764 0384 0520     		movs	r0, #5
 765              	.LVL112:
 766 0386 FFF7FEFF 		bl	hif_send
 767              	.LVL113:
 768              		.loc 1 446 0
 769 038a 05B0     		add	sp, sp, #20
 770              		.cfi_def_cfa_offset 4
 771              		@ sp needed
 772 038c 5DF804FB 		ldr	pc, [sp], #4
 773              		.cfi_endproc
 774              	.LFE335:
 775              		.size	m2m_wifi_send_crl, .-m2m_wifi_send_crl
 776              		.align	1
 777              		.p2align 4,,15
 778              		.global	m2m_wifi_init
 779              		.syntax unified
 780              		.thumb
 781              		.thumb_func
 782              		.fpu softvfp
 783              		.type	m2m_wifi_init, %function
 784              	m2m_wifi_init:
 785              	.LFB336:
 786              		.loc 1 449 0
 787              		.cfi_startproc
 788              		@ args = 0, pretend = 0, frame = 48
 789              		@ frame_needed = 0, uses_anonymous_args = 0
 790              	.LVL114:
 791 0390 10B5     		push	{r4, lr}
 792              		.cfi_def_cfa_offset 8
 793              		.cfi_offset 4, -8
 794              		.cfi_offset 14, -4
ARM GAS  C:\Users\RAKIBU~1\AppData\Local\Temp\ccQ3AEax.s 			page 15


 795 0392 8EB0     		sub	sp, sp, #56
 796              		.cfi_def_cfa_offset 64
 797              	.LVL115:
 798              		.loc 1 452 0
 799 0394 0123     		movs	r3, #1
 800 0396 8DF80F30 		strb	r3, [sp, #15]
 801              		.loc 1 454 0
 802 039a 0028     		cmp	r0, #0
 803 039c 45D0     		beq	.L79
 804              		.loc 1 459 0
 805 039e 0268     		ldr	r2, [r0]
 806 03a0 234B     		ldr	r3, .L83
 807 03a2 1A60     		str	r2, [r3]
 808              		.loc 1 471 0
 809 03a4 0022     		movs	r2, #0
 810 03a6 1A71     		strb	r2, [r3, #4]
 811              		.loc 1 473 0
 812 03a8 0DF10F00 		add	r0, sp, #15
 813              	.LVL116:
 814 03ac FFF7FEFF 		bl	nm_drv_init
 815              	.LVL117:
 816              		.loc 1 474 0
 817 03b0 0446     		mov	r4, r0
 818 03b2 10B1     		cbz	r0, .L81
 819              	.LVL118:
 820              	.L77:
 821              		.loc 1 499 0
 822 03b4 2046     		mov	r0, r4
 823 03b6 0EB0     		add	sp, sp, #56
 824              		.cfi_remember_state
 825              		.cfi_def_cfa_offset 8
 826              		@ sp needed
 827 03b8 10BD     		pop	{r4, pc}
 828              	.LVL119:
 829              	.L81:
 830              		.cfi_restore_state
 831              		.loc 1 476 0
 832 03ba FFF7FEFF 		bl	hif_init
 833              	.LVL120:
 834              		.loc 1 477 0
 835 03be 0446     		mov	r4, r0
 836 03c0 18B1     		cbz	r0, .L82
 837              	.L78:
 838              		.loc 1 496 0
 839 03c2 0020     		movs	r0, #0
 840              	.LVL121:
 841 03c4 FFF7FEFF 		bl	nm_drv_deinit
 842              	.LVL122:
 843 03c8 F4E7     		b	.L77
 844              	.LVL123:
 845              	.L82:
 846              		.loc 1 479 0
 847 03ca 1A49     		ldr	r1, .L83+4
 848 03cc 0120     		movs	r0, #1
 849              	.LVL124:
 850 03ce FFF7FEFF 		bl	hif_register_cb
 851              	.LVL125:
ARM GAS  C:\Users\RAKIBU~1\AppData\Local\Temp\ccQ3AEax.s 			page 16


 852              		.loc 1 481 0
 853 03d2 04A8     		add	r0, sp, #16
 854 03d4 FFF7FEFF 		bl	nm_get_firmware_full_info
 855              	.LVL126:
 856 03d8 0446     		mov	r4, r0
 857              	.LVL127:
 858              		.loc 1 483 0
 859 03da 9DF81410 		ldrb	r1, [sp, #20]	@ zero_extendqisi2
 860 03de 9DF81520 		ldrb	r2, [sp, #21]	@ zero_extendqisi2
 861 03e2 9DF81630 		ldrb	r3, [sp, #22]	@ zero_extendqisi2
 862 03e6 BDF83000 		ldrh	r0, [sp, #48]
 863 03ea 0090     		str	r0, [sp]
 864 03ec 1248     		ldr	r0, .L83+8
 865 03ee FFF7FEFF 		bl	myPrintf
 866              	.LVL128:
 867              		.loc 1 484 0
 868 03f2 0DF12602 		add	r2, sp, #38
 869 03f6 0DF11A01 		add	r1, sp, #26
 870 03fa 1048     		ldr	r0, .L83+12
 871 03fc FFF7FEFF 		bl	myPrintf
 872              	.LVL129:
 873              		.loc 1 485 0
 874 0400 9DF81930 		ldrb	r3, [sp, #25]	@ zero_extendqisi2
 875 0404 9DF81820 		ldrb	r2, [sp, #24]	@ zero_extendqisi2
 876 0408 9DF81710 		ldrb	r1, [sp, #23]	@ zero_extendqisi2
 877 040c 0C48     		ldr	r0, .L83+16
 878 040e FFF7FEFF 		bl	myPrintf
 879              	.LVL130:
 880              		.loc 1 486 0
 881 0412 0423     		movs	r3, #4
 882 0414 0522     		movs	r2, #5
 883 0416 1321     		movs	r1, #19
 884 0418 0A48     		ldr	r0, .L83+20
 885 041a FFF7FEFF 		bl	myPrintf
 886              	.LVL131:
 887              		.loc 1 487 0
 888 041e 0A4A     		ldr	r2, .L83+24
 889 0420 0A49     		ldr	r1, .L83+28
 890 0422 0B48     		ldr	r0, .L83+32
 891 0424 FFF7FEFF 		bl	myPrintf
 892              	.LVL132:
 893              		.loc 1 493 0
 894 0428 C4E7     		b	.L77
 895              	.LVL133:
 896              	.L79:
 897              		.loc 1 455 0
 898 042a 6FF00B04 		mvn	r4, #11
 899 042e C1E7     		b	.L77
 900              	.L84:
 901              		.align	2
 902              	.L83:
 903 0430 00000000 		.word	.LANCHOR0
 904 0434 00000000 		.word	m2m_wifi_cb
 905 0438 00000000 		.word	.LC0
 906 043c 28000000 		.word	.LC1
 907 0440 44000000 		.word	.LC2
 908 0444 68000000 		.word	.LC3
ARM GAS  C:\Users\RAKIBU~1\AppData\Local\Temp\ccQ3AEax.s 			page 17


 909 0448 80000000 		.word	.LC4
 910 044c 8C000000 		.word	.LC5
 911 0450 98000000 		.word	.LC6
 912              		.cfi_endproc
 913              	.LFE336:
 914              		.size	m2m_wifi_init, .-m2m_wifi_init
 915              		.align	1
 916 0454 AFF30080 		.p2align 4,,15
 916      AFF30080 
 916      AFF30080 
 917              		.global	m2m_wifi_deinit
 918              		.syntax unified
 919              		.thumb
 920              		.thumb_func
 921              		.fpu softvfp
 922              		.type	m2m_wifi_deinit, %function
 923              	m2m_wifi_deinit:
 924              	.LFB337:
 925              		.loc 1 502 0
 926              		.cfi_startproc
 927              		@ args = 0, pretend = 0, frame = 0
 928              		@ frame_needed = 0, uses_anonymous_args = 0
 929              	.LVL134:
 930 0460 08B5     		push	{r3, lr}
 931              		.cfi_def_cfa_offset 8
 932              		.cfi_offset 3, -8
 933              		.cfi_offset 14, -4
 934              		.loc 1 505 0
 935 0462 0020     		movs	r0, #0
 936              	.LVL135:
 937 0464 FFF7FEFF 		bl	hif_deinit
 938              	.LVL136:
 939              		.loc 1 507 0
 940 0468 0020     		movs	r0, #0
 941 046a FFF7FEFF 		bl	nm_drv_deinit
 942              	.LVL137:
 943              		.loc 1 510 0
 944 046e 0020     		movs	r0, #0
 945 0470 08BD     		pop	{r3, pc}
 946              		.cfi_endproc
 947              	.LFE337:
 948              		.size	m2m_wifi_deinit, .-m2m_wifi_deinit
 949              		.align	1
 950 0472 00BFAFF3 		.p2align 4,,15
 950      0080AFF3 
 950      0080AFF3 
 950      0080
 951              		.global	m2m_wifi_handle_events
 952              		.syntax unified
 953              		.thumb
 954              		.thumb_func
 955              		.fpu softvfp
 956              		.type	m2m_wifi_handle_events, %function
 957              	m2m_wifi_handle_events:
 958              	.LFB338:
 959              		.loc 1 514 0
 960              		.cfi_startproc
ARM GAS  C:\Users\RAKIBU~1\AppData\Local\Temp\ccQ3AEax.s 			page 18


 961              		@ args = 0, pretend = 0, frame = 0
 962              		@ frame_needed = 0, uses_anonymous_args = 0
 963              	.LVL138:
 964 0480 08B5     		push	{r3, lr}
 965              		.cfi_def_cfa_offset 8
 966              		.cfi_offset 3, -8
 967              		.cfi_offset 14, -4
 968              		.loc 1 516 0
 969 0482 FFF7FEFF 		bl	hif_handle_isr
 970              	.LVL139:
 971              		.loc 1 517 0
 972 0486 08BD     		pop	{r3, pc}
 973              		.cfi_endproc
 974              	.LFE338:
 975              		.size	m2m_wifi_handle_events, .-m2m_wifi_handle_events
 976              		.align	1
 977 0488 AFF30080 		.p2align 4,,15
 977      AFF30080 
 978              		.global	m2m_wifi_default_connect
 979              		.syntax unified
 980              		.thumb
 981              		.thumb_func
 982              		.fpu softvfp
 983              		.type	m2m_wifi_default_connect, %function
 984              	m2m_wifi_default_connect:
 985              	.LFB339:
 986              		.loc 1 520 0
 987              		.cfi_startproc
 988              		@ args = 0, pretend = 0, frame = 0
 989              		@ frame_needed = 0, uses_anonymous_args = 0
 990 0490 00B5     		push	{lr}
 991              		.cfi_def_cfa_offset 4
 992              		.cfi_offset 14, -4
 993 0492 85B0     		sub	sp, sp, #20
 994              		.cfi_def_cfa_offset 24
 995              		.loc 1 521 0
 996 0494 0022     		movs	r2, #0
 997 0496 0292     		str	r2, [sp, #8]
 998 0498 0192     		str	r2, [sp, #4]
 999 049a 0092     		str	r2, [sp]
 1000 049c 1346     		mov	r3, r2
 1001 049e 2921     		movs	r1, #41
 1002 04a0 0120     		movs	r0, #1
 1003 04a2 FFF7FEFF 		bl	hif_send
 1004              	.LVL140:
 1005              		.loc 1 522 0
 1006 04a6 05B0     		add	sp, sp, #20
 1007              		.cfi_def_cfa_offset 4
 1008              		@ sp needed
 1009 04a8 5DF804FB 		ldr	pc, [sp], #4
 1010              		.cfi_endproc
 1011              	.LFE339:
 1012              		.size	m2m_wifi_default_connect, .-m2m_wifi_default_connect
 1013              		.align	1
 1014 04ac AFF30080 		.p2align 4,,15
 1015              		.global	m2m_wifi_connect_sc
 1016              		.syntax unified
ARM GAS  C:\Users\RAKIBU~1\AppData\Local\Temp\ccQ3AEax.s 			page 19


 1017              		.thumb
 1018              		.thumb_func
 1019              		.fpu softvfp
 1020              		.type	m2m_wifi_connect_sc, %function
 1021              	m2m_wifi_connect_sc:
 1022              	.LFB341:
 1023              		.loc 1 529 0
 1024              		.cfi_startproc
 1025              		@ args = 8, pretend = 0, frame = 112
 1026              		@ frame_needed = 0, uses_anonymous_args = 0
 1027              	.LVL141:
 1028 04b0 2DE9F041 		push	{r4, r5, r6, r7, r8, lr}
 1029              		.cfi_def_cfa_offset 24
 1030              		.cfi_offset 4, -24
 1031              		.cfi_offset 5, -20
 1032              		.cfi_offset 6, -16
 1033              		.cfi_offset 7, -12
 1034              		.cfi_offset 8, -8
 1035              		.cfi_offset 14, -4
 1036 04b4 A0B0     		sub	sp, sp, #128
 1037              		.cfi_def_cfa_offset 152
 1038 04b6 8046     		mov	r8, r0
 1039 04b8 0D46     		mov	r5, r1
 1040 04ba 1446     		mov	r4, r2
 1041 04bc 1E46     		mov	r6, r3
 1042 04be BDF89870 		ldrh	r7, [sp, #152]
 1043              	.LVL142:
 1044              		.loc 1 534 0
 1045 04c2 012A     		cmp	r2, #1
 1046 04c4 04D0     		beq	.L92
 1047              		.loc 1 536 0
 1048 04c6 002B     		cmp	r3, #0
 1049 04c8 00F08680 		beq	.L102
 1050              		.loc 1 542 0
 1051 04cc 022A     		cmp	r2, #2
 1052 04ce 36D0     		beq	.L115
 1053              	.LVL143:
 1054              	.L92:
 1055              		.loc 1 558 0
 1056 04d0 6B1E     		subs	r3, r5, #1
 1057 04d2 DBB2     		uxtb	r3, r3
 1058 04d4 1F2B     		cmp	r3, #31
 1059 04d6 00F28B80 		bhi	.L108
 1060              		.loc 1 565 0
 1061 04da 7B1E     		subs	r3, r7, #1
 1062 04dc 9BB2     		uxth	r3, r3
 1063 04de 0D2B     		cmp	r3, #13
 1064 04e0 02D9     		bls	.L96
 1065              		.loc 1 567 0
 1066 04e2 FF2F     		cmp	r7, #255
 1067 04e4 40F08780 		bne	.L109
 1068              	.L96:
 1069              		.loc 1 576 0
 1070 04e8 2A46     		mov	r2, r5
 1071 04ea 4146     		mov	r1, r8
 1072 04ec 0DF15A00 		add	r0, sp, #90
 1073 04f0 FFF7FEFF 		bl	m2m_memcpy
ARM GAS  C:\Users\RAKIBU~1\AppData\Local\Temp\ccQ3AEax.s 			page 20


 1074              	.LVL144:
 1075              		.loc 1 577 0
 1076 04f4 20AB     		add	r3, sp, #128
 1077 04f6 1D44     		add	r5, r5, r3
 1078 04f8 0023     		movs	r3, #0
 1079 04fa 05F8263C 		strb	r3, [r5, #-38]
 1080              		.loc 1 578 0
 1081 04fe ADF85870 		strh	r7, [sp, #88]	@ movhi
 1082              		.loc 1 580 0
 1083 0502 9DF89C30 		ldrb	r3, [sp, #156]	@ zero_extendqisi2
 1084 0506 0033     		adds	r3, r3, #0
 1085 0508 18BF     		it	ne
 1086 050a 0123     		movne	r3, #1
 1087 050c 8DF87B30 		strb	r3, [sp, #123]
 1088              	.LVL145:
 1089              		.loc 1 582 0
 1090 0510 8DF85540 		strb	r4, [sp, #85]
 1091              		.loc 1 584 0
 1092 0514 032C     		cmp	r4, #3
 1093 0516 2FD0     		beq	.L116
 1094              		.loc 1 609 0
 1095 0518 022C     		cmp	r4, #2
 1096 051a 4AD0     		beq	.L117
 1097              		.loc 1 620 0
 1098 051c 042C     		cmp	r4, #4
 1099 051e 55D0     		beq	.L118
 1100              		.loc 1 624 0
 1101 0520 012C     		cmp	r4, #1
 1102 0522 74D1     		bne	.L113
 1103              	.L99:
 1104              		.loc 1 635 0
 1105 0524 0023     		movs	r3, #0
 1106 0526 0293     		str	r3, [sp, #8]
 1107 0528 0193     		str	r3, [sp, #4]
 1108 052a 0093     		str	r3, [sp]
 1109 052c 6C23     		movs	r3, #108
 1110 052e 05AA     		add	r2, sp, #20
 1111              	.LVL146:
 1112 0530 2821     		movs	r1, #40
 1113 0532 0120     		movs	r0, #1
 1114 0534 FFF7FEFF 		bl	hif_send
 1115              	.LVL147:
 1116              	.L93:
 1117              		.loc 1 639 0
 1118 0538 20B0     		add	sp, sp, #128
 1119              		.cfi_remember_state
 1120              		.cfi_def_cfa_offset 24
 1121              		@ sp needed
 1122 053a BDE8F081 		pop	{r4, r5, r6, r7, r8, pc}
 1123              	.LVL148:
 1124              	.L115:
 1125              		.cfi_restore_state
 1126              		.loc 1 542 0 discriminator 1
 1127 053e 1846     		mov	r0, r3
 1128              	.LVL149:
 1129 0540 FFF7FEFF 		bl	m2m_strlen
 1130              	.LVL150:
ARM GAS  C:\Users\RAKIBU~1\AppData\Local\Temp\ccQ3AEax.s 			page 21


 1131 0544 4028     		cmp	r0, #64
 1132 0546 C3D1     		bne	.L92
 1133              	.LBB13:
 1134              		.loc 1 544 0
 1135 0548 0023     		movs	r3, #0
 1136 054a 01E0     		b	.L94
 1137              	.LVL151:
 1138              	.L119:
 1139              		.loc 1 554 0
 1140 054c 0133     		adds	r3, r3, #1
 1141              	.LVL152:
 1142 054e DBB2     		uxtb	r3, r3
 1143              	.LVL153:
 1144              	.L94:
 1145              		.loc 1 546 0
 1146 0550 3F2B     		cmp	r3, #63
 1147 0552 BDD8     		bhi	.L92
 1148              		.loc 1 548 0
 1149 0554 F25C     		ldrb	r2, [r6, r3]	@ zero_extendqisi2
 1150 0556 2F2A     		cmp	r2, #47
 1151 0558 41D9     		bls	.L104
 1152              		.loc 1 548 0 is_stmt 0 discriminator 1
 1153 055a A2F13A01 		sub	r1, r2, #58
 1154 055e C9B2     		uxtb	r1, r1
 1155 0560 0629     		cmp	r1, #6
 1156 0562 3FD9     		bls	.L105
 1157              		.loc 1 548 0 discriminator 2
 1158 0564 A2F14701 		sub	r1, r2, #71
 1159 0568 C9B2     		uxtb	r1, r1
 1160 056a 1929     		cmp	r1, #25
 1161 056c 3DD9     		bls	.L106
 1162              		.loc 1 548 0 discriminator 3
 1163 056e 662A     		cmp	r2, #102
 1164 0570 ECD9     		bls	.L119
 1165              		.loc 1 551 0 is_stmt 1
 1166 0572 6FF00B00 		mvn	r0, #11
 1167 0576 DFE7     		b	.L93
 1168              	.LVL154:
 1169              	.L116:
 1170              	.LBE13:
 1171              	.LBB14:
 1172              		.loc 1 588 0
 1173 0578 3378     		ldrb	r3, [r6]	@ zero_extendqisi2
 1174 057a 013B     		subs	r3, r3, #1
 1175 057c DBB2     		uxtb	r3, r3
 1176 057e 8DF81430 		strb	r3, [sp, #20]
 1177              		.loc 1 590 0
 1178 0582 032B     		cmp	r3, #3
 1179 0584 3AD8     		bhi	.L110
 1180              		.loc 1 596 0
 1181 0586 7378     		ldrb	r3, [r6, #1]	@ zero_extendqisi2
 1182 0588 013B     		subs	r3, r3, #1
 1183 058a DBB2     		uxtb	r3, r3
 1184 058c 8DF81530 		strb	r3, [sp, #21]
 1185              		.loc 1 597 0
 1186 0590 0A2B     		cmp	r3, #10
 1187 0592 01D0     		beq	.L98
ARM GAS  C:\Users\RAKIBU~1\AppData\Local\Temp\ccQ3AEax.s 			page 22


 1188              		.loc 1 597 0 is_stmt 0 discriminator 1
 1189 0594 1A2B     		cmp	r3, #26
 1190 0596 34D1     		bne	.L111
 1191              	.L98:
 1192              		.loc 1 603 0 is_stmt 1
 1193 0598 7278     		ldrb	r2, [r6, #1]	@ zero_extendqisi2
 1194 059a B11C     		adds	r1, r6, #2
 1195 059c 0DF11600 		add	r0, sp, #22
 1196 05a0 FFF7FEFF 		bl	m2m_memcpy
 1197              	.LVL155:
 1198              		.loc 1 604 0
 1199 05a4 7378     		ldrb	r3, [r6, #1]	@ zero_extendqisi2
 1200 05a6 20AA     		add	r2, sp, #128
 1201 05a8 1344     		add	r3, r3, r2
 1202 05aa 0022     		movs	r2, #0
 1203 05ac 03F86A2C 		strb	r2, [r3, #-106]
 1204              	.LBE14:
 1205 05b0 B8E7     		b	.L99
 1206              	.LVL156:
 1207              	.L117:
 1208              	.LBB15:
 1209              		.loc 1 611 0
 1210 05b2 3046     		mov	r0, r6
 1211 05b4 FFF7FEFF 		bl	m2m_strlen
 1212              	.LVL157:
 1213              		.loc 1 612 0
 1214 05b8 431E     		subs	r3, r0, #1
 1215 05ba 9BB2     		uxth	r3, r3
 1216 05bc 3F2B     		cmp	r3, #63
 1217 05be 23D8     		bhi	.L112
 1218              		.loc 1 618 0
 1219 05c0 421C     		adds	r2, r0, #1
 1220 05c2 3146     		mov	r1, r6
 1221 05c4 05A8     		add	r0, sp, #20
 1222              	.LVL158:
 1223 05c6 FFF7FEFF 		bl	m2m_memcpy
 1224              	.LVL159:
 1225              	.LBE15:
 1226 05ca ABE7     		b	.L99
 1227              	.L118:
 1228              		.loc 1 622 0
 1229 05cc 3E22     		movs	r2, #62
 1230 05ce 3146     		mov	r1, r6
 1231 05d0 05A8     		add	r0, sp, #20
 1232              	.LVL160:
 1233 05d2 FFF7FEFF 		bl	m2m_memcpy
 1234              	.LVL161:
 1235 05d6 A5E7     		b	.L99
 1236              	.LVL162:
 1237              	.L102:
 1238              		.loc 1 539 0
 1239 05d8 6FF00B00 		mvn	r0, #11
 1240              	.LVL163:
 1241 05dc ACE7     		b	.L93
 1242              	.LVL164:
 1243              	.L104:
 1244              	.LBB16:
ARM GAS  C:\Users\RAKIBU~1\AppData\Local\Temp\ccQ3AEax.s 			page 23


 1245              		.loc 1 551 0
 1246 05de 6FF00B00 		mvn	r0, #11
 1247 05e2 A9E7     		b	.L93
 1248              	.L105:
 1249 05e4 6FF00B00 		mvn	r0, #11
 1250 05e8 A6E7     		b	.L93
 1251              	.L106:
 1252 05ea 6FF00B00 		mvn	r0, #11
 1253 05ee A3E7     		b	.L93
 1254              	.LVL165:
 1255              	.L108:
 1256              	.LBE16:
 1257              		.loc 1 561 0
 1258 05f0 6FF00B00 		mvn	r0, #11
 1259 05f4 A0E7     		b	.L93
 1260              	.L109:
 1261              		.loc 1 570 0
 1262 05f6 6FF00B00 		mvn	r0, #11
 1263 05fa 9DE7     		b	.L93
 1264              	.LVL166:
 1265              	.L110:
 1266              	.LBB17:
 1267              		.loc 1 593 0
 1268 05fc 6FF00B00 		mvn	r0, #11
 1269 0600 9AE7     		b	.L93
 1270              	.L111:
 1271              		.loc 1 600 0
 1272 0602 6FF00B00 		mvn	r0, #11
 1273 0606 97E7     		b	.L93
 1274              	.LVL167:
 1275              	.L112:
 1276              	.LBE17:
 1277              	.LBB18:
 1278              		.loc 1 615 0
 1279 0608 6FF00B00 		mvn	r0, #11
 1280              	.LVL168:
 1281 060c 94E7     		b	.L93
 1282              	.L113:
 1283              	.LBE18:
 1284              		.loc 1 631 0
 1285 060e 6FF00B00 		mvn	r0, #11
 1286 0612 91E7     		b	.L93
 1287              		.cfi_endproc
 1288              	.LFE341:
 1289              		.size	m2m_wifi_connect_sc, .-m2m_wifi_connect_sc
 1290              		.align	1
 1291 0614 AFF30080 		.p2align 4,,15
 1291      AFF30080 
 1291      AFF30080 
 1292              		.global	m2m_wifi_connect
 1293              		.syntax unified
 1294              		.thumb
 1295              		.thumb_func
 1296              		.fpu softvfp
 1297              		.type	m2m_wifi_connect, %function
 1298              	m2m_wifi_connect:
 1299              	.LFB340:
ARM GAS  C:\Users\RAKIBU~1\AppData\Local\Temp\ccQ3AEax.s 			page 24


 1300              		.loc 1 525 0
 1301              		.cfi_startproc
 1302              		@ args = 4, pretend = 0, frame = 0
 1303              		@ frame_needed = 0, uses_anonymous_args = 0
 1304              	.LVL169:
 1305 0620 10B5     		push	{r4, lr}
 1306              		.cfi_def_cfa_offset 8
 1307              		.cfi_offset 4, -8
 1308              		.cfi_offset 14, -4
 1309 0622 82B0     		sub	sp, sp, #8
 1310              		.cfi_def_cfa_offset 16
 1311              		.loc 1 526 0
 1312 0624 0024     		movs	r4, #0
 1313 0626 0194     		str	r4, [sp, #4]
 1314 0628 BDF81040 		ldrh	r4, [sp, #16]
 1315 062c 0094     		str	r4, [sp]
 1316 062e FFF7FEFF 		bl	m2m_wifi_connect_sc
 1317              	.LVL170:
 1318              		.loc 1 527 0
 1319 0632 02B0     		add	sp, sp, #8
 1320              		.cfi_def_cfa_offset 8
 1321              		@ sp needed
 1322 0634 10BD     		pop	{r4, pc}
 1323              		.cfi_endproc
 1324              	.LFE340:
 1325              		.size	m2m_wifi_connect, .-m2m_wifi_connect
 1326              		.align	1
 1327 0636 00BFAFF3 		.p2align 4,,15
 1327      0080AFF3 
 1327      0080
 1328              		.global	m2m_wifi_disconnect
 1329              		.syntax unified
 1330              		.thumb
 1331              		.thumb_func
 1332              		.fpu softvfp
 1333              		.type	m2m_wifi_disconnect, %function
 1334              	m2m_wifi_disconnect:
 1335              	.LFB342:
 1336              		.loc 1 642 0
 1337              		.cfi_startproc
 1338              		@ args = 0, pretend = 0, frame = 0
 1339              		@ frame_needed = 0, uses_anonymous_args = 0
 1340 0640 00B5     		push	{lr}
 1341              		.cfi_def_cfa_offset 4
 1342              		.cfi_offset 14, -4
 1343 0642 85B0     		sub	sp, sp, #20
 1344              		.cfi_def_cfa_offset 24
 1345              		.loc 1 643 0
 1346 0644 0022     		movs	r2, #0
 1347 0646 0292     		str	r2, [sp, #8]
 1348 0648 0192     		str	r2, [sp, #4]
 1349 064a 0092     		str	r2, [sp]
 1350 064c 1346     		mov	r3, r2
 1351 064e 2B21     		movs	r1, #43
 1352 0650 0120     		movs	r0, #1
 1353 0652 FFF7FEFF 		bl	hif_send
 1354              	.LVL171:
ARM GAS  C:\Users\RAKIBU~1\AppData\Local\Temp\ccQ3AEax.s 			page 25


 1355              		.loc 1 644 0
 1356 0656 05B0     		add	sp, sp, #20
 1357              		.cfi_def_cfa_offset 4
 1358              		@ sp needed
 1359 0658 5DF804FB 		ldr	pc, [sp], #4
 1360              		.cfi_endproc
 1361              	.LFE342:
 1362              		.size	m2m_wifi_disconnect, .-m2m_wifi_disconnect
 1363              		.align	1
 1364 065c AFF30080 		.p2align 4,,15
 1365              		.global	m2m_wifi_set_mac_address
 1366              		.syntax unified
 1367              		.thumb
 1368              		.thumb_func
 1369              		.fpu softvfp
 1370              		.type	m2m_wifi_set_mac_address, %function
 1371              	m2m_wifi_set_mac_address:
 1372              	.LFB343:
 1373              		.loc 1 646 0
 1374              		.cfi_startproc
 1375              		@ args = 0, pretend = 0, frame = 8
 1376              		@ frame_needed = 0, uses_anonymous_args = 0
 1377              	.LVL172:
 1378 0660 00B5     		push	{lr}
 1379              		.cfi_def_cfa_offset 4
 1380              		.cfi_offset 14, -4
 1381 0662 87B0     		sub	sp, sp, #28
 1382              		.cfi_def_cfa_offset 32
 1383              		.loc 1 648 0
 1384 0664 0622     		movs	r2, #6
 1385 0666 0146     		mov	r1, r0
 1386 0668 04A8     		add	r0, sp, #16
 1387              	.LVL173:
 1388 066a FFF7FEFF 		bl	m2m_memcpy
 1389              	.LVL174:
 1390              		.loc 1 649 0
 1391 066e 0023     		movs	r3, #0
 1392 0670 0293     		str	r3, [sp, #8]
 1393 0672 0193     		str	r3, [sp, #4]
 1394 0674 0093     		str	r3, [sp]
 1395 0676 0823     		movs	r3, #8
 1396 0678 04AA     		add	r2, sp, #16
 1397 067a 0221     		movs	r1, #2
 1398 067c 0120     		movs	r0, #1
 1399 067e FFF7FEFF 		bl	hif_send
 1400              	.LVL175:
 1401              		.loc 1 651 0
 1402 0682 07B0     		add	sp, sp, #28
 1403              		.cfi_def_cfa_offset 4
 1404              		@ sp needed
 1405 0684 5DF804FB 		ldr	pc, [sp], #4
 1406              		.cfi_endproc
 1407              	.LFE343:
 1408              		.size	m2m_wifi_set_mac_address, .-m2m_wifi_set_mac_address
 1409              		.align	1
 1410 0688 AFF30080 		.p2align 4,,15
 1410      AFF30080 
ARM GAS  C:\Users\RAKIBU~1\AppData\Local\Temp\ccQ3AEax.s 			page 26


 1411              		.global	m2m_wifi_set_static_ip
 1412              		.syntax unified
 1413              		.thumb
 1414              		.thumb_func
 1415              		.fpu softvfp
 1416              		.type	m2m_wifi_set_static_ip, %function
 1417              	m2m_wifi_set_static_ip:
 1418              	.LFB344:
 1419              		.loc 1 654 0
 1420              		.cfi_startproc
 1421              		@ args = 0, pretend = 0, frame = 0
 1422              		@ frame_needed = 0, uses_anonymous_args = 0
 1423              	.LVL176:
 1424 0690 00B5     		push	{lr}
 1425              		.cfi_def_cfa_offset 4
 1426              		.cfi_offset 14, -4
 1427 0692 85B0     		sub	sp, sp, #20
 1428              		.cfi_def_cfa_offset 24
 1429              		.loc 1 661 0
 1430 0694 0023     		movs	r3, #0
 1431 0696 0293     		str	r3, [sp, #8]
 1432 0698 0193     		str	r3, [sp, #4]
 1433 069a 0093     		str	r3, [sp]
 1434 069c 1423     		movs	r3, #20
 1435 069e 0246     		mov	r2, r0
 1436 06a0 0A21     		movs	r1, #10
 1437 06a2 0220     		movs	r0, #2
 1438              	.LVL177:
 1439 06a4 FFF7FEFF 		bl	hif_send
 1440              	.LVL178:
 1441              		.loc 1 663 0
 1442 06a8 05B0     		add	sp, sp, #20
 1443              		.cfi_def_cfa_offset 4
 1444              		@ sp needed
 1445 06aa 5DF804FB 		ldr	pc, [sp], #4
 1446              		.cfi_endproc
 1447              	.LFE344:
 1448              		.size	m2m_wifi_set_static_ip, .-m2m_wifi_set_static_ip
 1449              		.align	1
 1450 06ae 00BF     		.p2align 4,,15
 1451              		.global	m2m_wifi_request_dhcp_client
 1452              		.syntax unified
 1453              		.thumb
 1454              		.thumb_func
 1455              		.fpu softvfp
 1456              		.type	m2m_wifi_request_dhcp_client, %function
 1457              	m2m_wifi_request_dhcp_client:
 1458              	.LFB345:
 1459              		.loc 1 666 0
 1460              		.cfi_startproc
 1461              		@ args = 0, pretend = 0, frame = 0
 1462              		@ frame_needed = 0, uses_anonymous_args = 0
 1463              		@ link register save eliminated.
 1464              		.loc 1 669 0
 1465 06b0 0020     		movs	r0, #0
 1466 06b2 7047     		bx	lr
 1467              		.cfi_endproc
ARM GAS  C:\Users\RAKIBU~1\AppData\Local\Temp\ccQ3AEax.s 			page 27


 1468              	.LFE345:
 1469              		.size	m2m_wifi_request_dhcp_client, .-m2m_wifi_request_dhcp_client
 1470              		.align	1
 1471 06b4 AFF30080 		.p2align 4,,15
 1471      AFF30080 
 1471      AFF30080 
 1472              		.global	m2m_wifi_request_dhcp_server
 1473              		.syntax unified
 1474              		.thumb
 1475              		.thumb_func
 1476              		.fpu softvfp
 1477              		.type	m2m_wifi_request_dhcp_server, %function
 1478              	m2m_wifi_request_dhcp_server:
 1479              	.LFB346:
 1480              		.loc 1 671 0
 1481              		.cfi_startproc
 1482              		@ args = 0, pretend = 0, frame = 0
 1483              		@ frame_needed = 0, uses_anonymous_args = 0
 1484              		@ link register save eliminated.
 1485              	.LVL179:
 1486              		.loc 1 675 0
 1487 06c0 0020     		movs	r0, #0
 1488              	.LVL180:
 1489 06c2 7047     		bx	lr
 1490              		.cfi_endproc
 1491              	.LFE346:
 1492              		.size	m2m_wifi_request_dhcp_server, .-m2m_wifi_request_dhcp_server
 1493              		.align	1
 1494 06c4 AFF30080 		.p2align 4,,15
 1494      AFF30080 
 1494      AFF30080 
 1495              		.global	m2m_wifi_enable_dhcp
 1496              		.syntax unified
 1497              		.thumb
 1498              		.thumb_func
 1499              		.fpu softvfp
 1500              		.type	m2m_wifi_enable_dhcp, %function
 1501              	m2m_wifi_enable_dhcp:
 1502              	.LFB347:
 1503              		.loc 1 688 0
 1504              		.cfi_startproc
 1505              		@ args = 0, pretend = 0, frame = 0
 1506              		@ frame_needed = 0, uses_anonymous_args = 0
 1507              	.LVL181:
 1508 06d0 00B5     		push	{lr}
 1509              		.cfi_def_cfa_offset 4
 1510              		.cfi_offset 14, -4
 1511 06d2 85B0     		sub	sp, sp, #20
 1512              		.cfi_def_cfa_offset 24
 1513              		.loc 1 691 0
 1514 06d4 58B9     		cbnz	r0, .L134
 1515 06d6 0C21     		movs	r1, #12
 1516              	.L131:
 1517              	.LVL182:
 1518              		.loc 1 692 0 discriminator 4
 1519 06d8 0022     		movs	r2, #0
 1520 06da 0292     		str	r2, [sp, #8]
ARM GAS  C:\Users\RAKIBU~1\AppData\Local\Temp\ccQ3AEax.s 			page 28


 1521 06dc 0192     		str	r2, [sp, #4]
 1522 06de 0092     		str	r2, [sp]
 1523 06e0 1346     		mov	r3, r2
 1524 06e2 0220     		movs	r0, #2
 1525              	.LVL183:
 1526 06e4 FFF7FEFF 		bl	hif_send
 1527              	.LVL184:
 1528              		.loc 1 695 0 discriminator 4
 1529 06e8 05B0     		add	sp, sp, #20
 1530              		.cfi_remember_state
 1531              		.cfi_def_cfa_offset 4
 1532              		@ sp needed
 1533 06ea 5DF804FB 		ldr	pc, [sp], #4
 1534              	.LVL185:
 1535              	.L134:
 1536              		.cfi_restore_state
 1537              		.loc 1 691 0
 1538 06ee 0B21     		movs	r1, #11
 1539 06f0 F2E7     		b	.L131
 1540              		.cfi_endproc
 1541              	.LFE347:
 1542              		.size	m2m_wifi_enable_dhcp, .-m2m_wifi_enable_dhcp
 1543              		.align	1
 1544 06f2 00BFAFF3 		.p2align 4,,15
 1544      0080AFF3 
 1544      0080AFF3 
 1544      0080
 1545              		.global	m2m_wifi_set_lsn_int
 1546              		.syntax unified
 1547              		.thumb
 1548              		.thumb_func
 1549              		.fpu softvfp
 1550              		.type	m2m_wifi_set_lsn_int, %function
 1551              	m2m_wifi_set_lsn_int:
 1552              	.LFB348:
 1553              		.loc 1 698 0
 1554              		.cfi_startproc
 1555              		@ args = 0, pretend = 0, frame = 0
 1556              		@ frame_needed = 0, uses_anonymous_args = 0
 1557              	.LVL186:
 1558 0700 00B5     		push	{lr}
 1559              		.cfi_def_cfa_offset 4
 1560              		.cfi_offset 14, -4
 1561 0702 85B0     		sub	sp, sp, #20
 1562              		.cfi_def_cfa_offset 24
 1563              		.loc 1 699 0
 1564 0704 0023     		movs	r3, #0
 1565 0706 0293     		str	r3, [sp, #8]
 1566 0708 0193     		str	r3, [sp, #4]
 1567 070a 0093     		str	r3, [sp]
 1568 070c 0423     		movs	r3, #4
 1569 070e 0246     		mov	r2, r0
 1570 0710 3921     		movs	r1, #57
 1571 0712 0120     		movs	r0, #1
 1572              	.LVL187:
 1573 0714 FFF7FEFF 		bl	hif_send
 1574              	.LVL188:
ARM GAS  C:\Users\RAKIBU~1\AppData\Local\Temp\ccQ3AEax.s 			page 29


 1575              		.loc 1 700 0
 1576 0718 05B0     		add	sp, sp, #20
 1577              		.cfi_def_cfa_offset 4
 1578              		@ sp needed
 1579 071a 5DF804FB 		ldr	pc, [sp], #4
 1580              		.cfi_endproc
 1581              	.LFE348:
 1582              		.size	m2m_wifi_set_lsn_int, .-m2m_wifi_set_lsn_int
 1583              		.align	1
 1584 071e 00BF     		.p2align 4,,15
 1585              		.global	m2m_wifi_set_cust_InfoElement
 1586              		.syntax unified
 1587              		.thumb
 1588              		.thumb_func
 1589              		.fpu softvfp
 1590              		.type	m2m_wifi_set_cust_InfoElement, %function
 1591              	m2m_wifi_set_cust_InfoElement:
 1592              	.LFB349:
 1593              		.loc 1 703 0
 1594              		.cfi_startproc
 1595              		@ args = 0, pretend = 0, frame = 0
 1596              		@ frame_needed = 0, uses_anonymous_args = 0
 1597              	.LVL189:
 1598              		.loc 1 706 0
 1599 0720 90B1     		cbz	r0, .L139
 1600 0722 0246     		mov	r2, r0
 1601              		.loc 1 708 0
 1602 0724 0378     		ldrb	r3, [r0]	@ zero_extendqisi2
 1603 0726 591C     		adds	r1, r3, #1
 1604 0728 FB29     		cmp	r1, #251
 1605 072a 10DC     		bgt	.L140
 1606              		.loc 1 703 0
 1607 072c 00B5     		push	{lr}
 1608              		.cfi_def_cfa_offset 4
 1609              		.cfi_offset 14, -4
 1610 072e 85B0     		sub	sp, sp, #20
 1611              		.cfi_def_cfa_offset 24
 1612              		.loc 1 710 0
 1613 0730 0021     		movs	r1, #0
 1614 0732 0291     		str	r1, [sp, #8]
 1615 0734 0191     		str	r1, [sp, #4]
 1616 0736 0091     		str	r1, [sp]
 1617 0738 0133     		adds	r3, r3, #1
 1618 073a 8F21     		movs	r1, #143
 1619 073c 0120     		movs	r0, #1
 1620              	.LVL190:
 1621 073e FFF7FEFF 		bl	hif_send
 1622              	.LVL191:
 1623              		.loc 1 714 0
 1624 0742 05B0     		add	sp, sp, #20
 1625              		.cfi_def_cfa_offset 4
 1626              		@ sp needed
 1627 0744 5DF804FB 		ldr	pc, [sp], #4
 1628              	.LVL192:
 1629              	.L139:
 1630              		.cfi_def_cfa_offset 0
 1631              		.cfi_restore 14
ARM GAS  C:\Users\RAKIBU~1\AppData\Local\Temp\ccQ3AEax.s 			page 30


 1632              		.loc 1 705 0
 1633 0748 6FF00B00 		mvn	r0, #11
 1634              	.LVL193:
 1635 074c 7047     		bx	lr
 1636              	.LVL194:
 1637              	.L140:
 1638 074e 6FF00B00 		mvn	r0, #11
 1639              	.LVL195:
 1640              		.loc 1 714 0
 1641 0752 7047     		bx	lr
 1642              		.cfi_endproc
 1643              	.LFE349:
 1644              		.size	m2m_wifi_set_cust_InfoElement, .-m2m_wifi_set_cust_InfoElement
 1645              		.align	1
 1646 0754 AFF30080 		.p2align 4,,15
 1646      AFF30080 
 1646      AFF30080 
 1647              		.global	m2m_wifi_set_scan_options
 1648              		.syntax unified
 1649              		.thumb
 1650              		.thumb_func
 1651              		.fpu softvfp
 1652              		.type	m2m_wifi_set_scan_options, %function
 1653              	m2m_wifi_set_scan_options:
 1654              	.LFB350:
 1655              		.loc 1 717 0
 1656              		.cfi_startproc
 1657              		@ args = 0, pretend = 0, frame = 0
 1658              		@ frame_needed = 0, uses_anonymous_args = 0
 1659              	.LVL196:
 1660 0760 10B5     		push	{r4, lr}
 1661              		.cfi_def_cfa_offset 8
 1662              		.cfi_offset 4, -8
 1663              		.cfi_offset 14, -4
 1664 0762 84B0     		sub	sp, sp, #16
 1665              		.cfi_def_cfa_offset 24
 1666 0764 0446     		mov	r4, r0
 1667              	.LVL197:
 1668              		.loc 1 719 0
 1669 0766 FFF74BFC 		bl	m2m_validate_scan_options
 1670              	.LVL198:
 1671 076a 58B9     		cbnz	r0, .L147
 1672              		.loc 1 721 0
 1673 076c 0023     		movs	r3, #0
 1674 076e 0293     		str	r3, [sp, #8]
 1675 0770 0193     		str	r3, [sp, #4]
 1676 0772 0093     		str	r3, [sp]
 1677 0774 0423     		movs	r3, #4
 1678 0776 2246     		mov	r2, r4
 1679 0778 1421     		movs	r1, #20
 1680 077a 0120     		movs	r0, #1
 1681 077c FFF7FEFF 		bl	hif_send
 1682              	.LVL199:
 1683              	.L146:
 1684              		.loc 1 724 0
 1685 0780 04B0     		add	sp, sp, #16
 1686              		.cfi_remember_state
ARM GAS  C:\Users\RAKIBU~1\AppData\Local\Temp\ccQ3AEax.s 			page 31


 1687              		.cfi_def_cfa_offset 8
 1688              		@ sp needed
 1689 0782 10BD     		pop	{r4, pc}
 1690              	.LVL200:
 1691              	.L147:
 1692              		.cfi_restore_state
 1693              		.loc 1 718 0
 1694 0784 6FF00B00 		mvn	r0, #11
 1695 0788 FAE7     		b	.L146
 1696              		.cfi_endproc
 1697              	.LFE350:
 1698              		.size	m2m_wifi_set_scan_options, .-m2m_wifi_set_scan_options
 1699              		.align	1
 1700 078a 00BFAFF3 		.p2align 4,,15
 1700      0080
 1701              		.global	m2m_wifi_set_scan_region
 1702              		.syntax unified
 1703              		.thumb
 1704              		.thumb_func
 1705              		.fpu softvfp
 1706              		.type	m2m_wifi_set_scan_region, %function
 1707              	m2m_wifi_set_scan_region:
 1708              	.LFB351:
 1709              		.loc 1 726 0
 1710              		.cfi_startproc
 1711              		@ args = 0, pretend = 0, frame = 8
 1712              		@ frame_needed = 0, uses_anonymous_args = 0
 1713              	.LVL201:
 1714 0790 00B5     		push	{lr}
 1715              		.cfi_def_cfa_offset 4
 1716              		.cfi_offset 14, -4
 1717 0792 87B0     		sub	sp, sp, #28
 1718              		.cfi_def_cfa_offset 32
 1719              	.LVL202:
 1720              		.loc 1 729 0
 1721 0794 06AA     		add	r2, sp, #24
 1722 0796 22F8040D 		strh	r0, [r2, #-4]!	@ movhi
 1723              		.loc 1 730 0
 1724 079a 0023     		movs	r3, #0
 1725 079c 0293     		str	r3, [sp, #8]
 1726 079e 0193     		str	r3, [sp, #4]
 1727 07a0 0093     		str	r3, [sp]
 1728 07a2 0423     		movs	r3, #4
 1729 07a4 1521     		movs	r1, #21
 1730 07a6 0120     		movs	r0, #1
 1731              	.LVL203:
 1732 07a8 FFF7FEFF 		bl	hif_send
 1733              	.LVL204:
 1734              		.loc 1 732 0
 1735 07ac 07B0     		add	sp, sp, #28
 1736              		.cfi_def_cfa_offset 4
 1737              		@ sp needed
 1738 07ae 5DF804FB 		ldr	pc, [sp], #4
 1739              		.cfi_endproc
 1740              	.LFE351:
 1741              		.size	m2m_wifi_set_scan_region, .-m2m_wifi_set_scan_region
 1742              		.align	1
ARM GAS  C:\Users\RAKIBU~1\AppData\Local\Temp\ccQ3AEax.s 			page 32


 1743 07b2 00BFAFF3 		.p2align 4,,15
 1743      0080AFF3 
 1743      0080AFF3 
 1743      0080
 1744              		.global	m2m_wifi_request_scan
 1745              		.syntax unified
 1746              		.thumb
 1747              		.thumb_func
 1748              		.fpu softvfp
 1749              		.type	m2m_wifi_request_scan, %function
 1750              	m2m_wifi_request_scan:
 1751              	.LFB352:
 1752              		.loc 1 734 0
 1753              		.cfi_startproc
 1754              		@ args = 0, pretend = 0, frame = 8
 1755              		@ frame_needed = 0, uses_anonymous_args = 0
 1756              	.LVL205:
 1757              		.loc 1 737 0
 1758 07c0 134B     		ldr	r3, .L160
 1759 07c2 1B79     		ldrb	r3, [r3, #4]	@ zero_extendqisi2
 1760 07c4 E3B9     		cbnz	r3, .L155
 1761              		.loc 1 739 0
 1762 07c6 431E     		subs	r3, r0, #1
 1763 07c8 DBB2     		uxtb	r3, r3
 1764 07ca 0D2B     		cmp	r3, #13
 1765 07cc 01D9     		bls	.L153
 1766              		.loc 1 739 0 is_stmt 0 discriminator 1
 1767 07ce FF28     		cmp	r0, #255
 1768 07d0 19D1     		bne	.L156
 1769              	.L153:
 1770              		.loc 1 734 0 is_stmt 1
 1771 07d2 00B5     		push	{lr}
 1772              		.cfi_def_cfa_offset 4
 1773              		.cfi_offset 14, -4
 1774 07d4 87B0     		sub	sp, sp, #28
 1775              		.cfi_def_cfa_offset 32
 1776              	.LBB19:
 1777              		.loc 1 742 0
 1778 07d6 06AA     		add	r2, sp, #24
 1779 07d8 02F8040D 		strb	r0, [r2, #-4]!
 1780              		.loc 1 743 0
 1781 07dc 0023     		movs	r3, #0
 1782 07de 0293     		str	r3, [sp, #8]
 1783 07e0 0193     		str	r3, [sp, #4]
 1784 07e2 0093     		str	r3, [sp]
 1785 07e4 0423     		movs	r3, #4
 1786 07e6 1021     		movs	r1, #16
 1787 07e8 0120     		movs	r0, #1
 1788              	.LVL206:
 1789 07ea FFF7FEFF 		bl	hif_send
 1790              	.LVL207:
 1791              		.loc 1 744 0
 1792 07ee 0346     		mov	r3, r0
 1793 07f0 10B9     		cbnz	r0, .L152
 1794              		.loc 1 746 0
 1795 07f2 074A     		ldr	r2, .L160
 1796 07f4 0121     		movs	r1, #1
ARM GAS  C:\Users\RAKIBU~1\AppData\Local\Temp\ccQ3AEax.s 			page 33


 1797 07f6 1171     		strb	r1, [r2, #4]
 1798              	.L152:
 1799              	.LVL208:
 1800              	.LBE19:
 1801              		.loc 1 759 0
 1802 07f8 1846     		mov	r0, r3
 1803 07fa 07B0     		add	sp, sp, #28
 1804              		.cfi_def_cfa_offset 4
 1805              		@ sp needed
 1806 07fc 5DF804FB 		ldr	pc, [sp], #4
 1807              	.LVL209:
 1808              	.L155:
 1809              		.cfi_def_cfa_offset 0
 1810              		.cfi_restore 14
 1811              		.loc 1 756 0
 1812 0800 6FF00D03 		mvn	r3, #13
 1813 0804 01E0     		b	.L158
 1814              	.L156:
 1815              		.loc 1 751 0
 1816 0806 6FF00E03 		mvn	r3, #14
 1817              	.L158:
 1818              	.LVL210:
 1819              		.loc 1 759 0
 1820 080a 1846     		mov	r0, r3
 1821              	.LVL211:
 1822 080c 7047     		bx	lr
 1823              	.L161:
 1824 080e 00BF     		.align	2
 1825              	.L160:
 1826 0810 00000000 		.word	.LANCHOR0
 1827              		.cfi_endproc
 1828              	.LFE352:
 1829              		.size	m2m_wifi_request_scan, .-m2m_wifi_request_scan
 1830              		.align	1
 1831 0814 AFF30080 		.p2align 4,,15
 1831      AFF30080 
 1831      AFF30080 
 1832              		.global	m2m_wifi_request_scan_passive
 1833              		.syntax unified
 1834              		.thumb
 1835              		.thumb_func
 1836              		.fpu softvfp
 1837              		.type	m2m_wifi_request_scan_passive, %function
 1838              	m2m_wifi_request_scan_passive:
 1839              	.LFB353:
 1840              		.loc 1 762 0
 1841              		.cfi_startproc
 1842              		@ args = 0, pretend = 0, frame = 8
 1843              		@ frame_needed = 0, uses_anonymous_args = 0
 1844              	.LVL212:
 1845              		.loc 1 765 0
 1846 0820 144B     		ldr	r3, .L171
 1847 0822 1B79     		ldrb	r3, [r3, #4]	@ zero_extendqisi2
 1848 0824 F3B9     		cbnz	r3, .L166
 1849              		.loc 1 767 0
 1850 0826 431E     		subs	r3, r0, #1
 1851 0828 DBB2     		uxtb	r3, r3
ARM GAS  C:\Users\RAKIBU~1\AppData\Local\Temp\ccQ3AEax.s 			page 34


 1852 082a 0D2B     		cmp	r3, #13
 1853 082c 01D9     		bls	.L164
 1854              		.loc 1 767 0 is_stmt 0 discriminator 1
 1855 082e FF28     		cmp	r0, #255
 1856 0830 1BD1     		bne	.L167
 1857              	.L164:
 1858              		.loc 1 762 0 is_stmt 1
 1859 0832 00B5     		push	{lr}
 1860              		.cfi_def_cfa_offset 4
 1861              		.cfi_offset 14, -4
 1862 0834 87B0     		sub	sp, sp, #28
 1863              		.cfi_def_cfa_offset 32
 1864              	.LBB20:
 1865              		.loc 1 770 0
 1866 0836 8DF81400 		strb	r0, [sp, #20]
 1867              		.loc 1 772 0
 1868 083a ADF81610 		strh	r1, [sp, #22]	@ movhi
 1869              		.loc 1 774 0
 1870 083e 0023     		movs	r3, #0
 1871 0840 0293     		str	r3, [sp, #8]
 1872 0842 0193     		str	r3, [sp, #4]
 1873 0844 0093     		str	r3, [sp]
 1874 0846 0423     		movs	r3, #4
 1875 0848 05AA     		add	r2, sp, #20
 1876 084a 2321     		movs	r1, #35
 1877              	.LVL213:
 1878 084c 0120     		movs	r0, #1
 1879              	.LVL214:
 1880 084e FFF7FEFF 		bl	hif_send
 1881              	.LVL215:
 1882              		.loc 1 775 0
 1883 0852 0346     		mov	r3, r0
 1884 0854 10B9     		cbnz	r0, .L163
 1885              		.loc 1 777 0
 1886 0856 074A     		ldr	r2, .L171
 1887 0858 0121     		movs	r1, #1
 1888 085a 1171     		strb	r1, [r2, #4]
 1889              	.L163:
 1890              	.LVL216:
 1891              	.LBE20:
 1892              		.loc 1 790 0
 1893 085c 1846     		mov	r0, r3
 1894 085e 07B0     		add	sp, sp, #28
 1895              		.cfi_def_cfa_offset 4
 1896              		@ sp needed
 1897 0860 5DF804FB 		ldr	pc, [sp], #4
 1898              	.LVL217:
 1899              	.L166:
 1900              		.cfi_def_cfa_offset 0
 1901              		.cfi_restore 14
 1902              		.loc 1 787 0
 1903 0864 6FF00D03 		mvn	r3, #13
 1904 0868 01E0     		b	.L169
 1905              	.L167:
 1906              		.loc 1 782 0
 1907 086a 6FF00E03 		mvn	r3, #14
 1908              	.L169:
ARM GAS  C:\Users\RAKIBU~1\AppData\Local\Temp\ccQ3AEax.s 			page 35


 1909              	.LVL218:
 1910              		.loc 1 790 0
 1911 086e 1846     		mov	r0, r3
 1912              	.LVL219:
 1913 0870 7047     		bx	lr
 1914              	.L172:
 1915 0872 00BF     		.align	2
 1916              	.L171:
 1917 0874 00000000 		.word	.LANCHOR0
 1918              		.cfi_endproc
 1919              	.LFE353:
 1920              		.size	m2m_wifi_request_scan_passive, .-m2m_wifi_request_scan_passive
 1921              		.align	1
 1922 0878 AFF30080 		.p2align 4,,15
 1922      AFF30080 
 1923              		.global	m2m_wifi_request_scan_ssid_list
 1924              		.syntax unified
 1925              		.thumb
 1926              		.thumb_func
 1927              		.fpu softvfp
 1928              		.type	m2m_wifi_request_scan_ssid_list, %function
 1929              	m2m_wifi_request_scan_ssid_list:
 1930              	.LFB354:
 1931              		.loc 1 793 0
 1932              		.cfi_startproc
 1933              		@ args = 0, pretend = 0, frame = 8
 1934              		@ frame_needed = 0, uses_anonymous_args = 0
 1935              	.LVL220:
 1936              		.loc 1 796 0
 1937 0880 1E4B     		ldr	r3, .L189
 1938 0882 1B79     		ldrb	r3, [r3, #4]	@ zero_extendqisi2
 1939 0884 8BBB     		cbnz	r3, .L180
 1940              		.loc 1 798 0
 1941 0886 431E     		subs	r3, r0, #1
 1942 0888 DBB2     		uxtb	r3, r3
 1943 088a 0D2B     		cmp	r3, #13
 1944 088c 01D9     		bls	.L175
 1945              		.loc 1 798 0 is_stmt 0 discriminator 2
 1946 088e FF28     		cmp	r0, #255
 1947 0890 2ED1     		bne	.L181
 1948              	.L175:
 1949              		.loc 1 798 0 discriminator 3
 1950 0892 81B3     		cbz	r1, .L182
 1951              	.LVL221:
 1952              	.LBB21:
 1953              		.loc 1 802 0 is_stmt 1
 1954 0894 0A78     		ldrb	r2, [r1]	@ zero_extendqisi2
 1955              	.LVL222:
 1956              		.loc 1 803 0
 1957 0896 042A     		cmp	r2, #4
 1958 0898 0DD8     		bhi	.L187
 1959              	.LBE21:
 1960              		.loc 1 793 0
 1961 089a 10B5     		push	{r4, lr}
 1962              		.cfi_def_cfa_offset 8
 1963              		.cfi_offset 4, -8
 1964              		.cfi_offset 14, -4
ARM GAS  C:\Users\RAKIBU~1\AppData\Local\Temp\ccQ3AEax.s 			page 36


 1965 089c 86B0     		sub	sp, sp, #24
 1966              		.cfi_def_cfa_offset 32
 1967              	.LBB22:
 1968              		.loc 1 805 0
 1969 089e 0124     		movs	r4, #1
 1970              	.LVL223:
 1971              	.L176:
 1972              		.loc 1 806 0
 1973 08a0 6AB1     		cbz	r2, .L188
 1974              		.loc 1 808 0
 1975 08a2 0B5D     		ldrb	r3, [r1, r4]	@ zero_extendqisi2
 1976 08a4 202B     		cmp	r3, #32
 1977 08a6 1BD8     		bhi	.L178
 1978              		.loc 1 811 0
 1979 08a8 2344     		add	r3, r3, r4
 1980 08aa 9BB2     		uxth	r3, r3
 1981 08ac 0133     		adds	r3, r3, #1
 1982 08ae 9CB2     		uxth	r4, r3
 1983              	.LVL224:
 1984              		.loc 1 812 0
 1985 08b0 013A     		subs	r2, r2, #1
 1986              	.LVL225:
 1987 08b2 D2B2     		uxtb	r2, r2
 1988              	.LVL226:
 1989 08b4 F4E7     		b	.L176
 1990              	.LVL227:
 1991              	.L187:
 1992              		.cfi_def_cfa_offset 0
 1993              		.cfi_restore 4
 1994              		.cfi_restore 14
 1995              	.LBE22:
 1996              		.loc 1 794 0
 1997 08b6 6FF00E03 		mvn	r3, #14
 1998              	.LVL228:
 1999              	.L185:
 2000              		.loc 1 830 0
 2001 08ba 1846     		mov	r0, r3
 2002              	.LVL229:
 2003 08bc 7047     		bx	lr
 2004              	.LVL230:
 2005              	.L188:
 2006              		.cfi_def_cfa_offset 32
 2007              		.cfi_offset 4, -8
 2008              		.cfi_offset 14, -4
 2009              	.LBB23:
 2010              		.loc 1 815 0
 2011 08be 06AA     		add	r2, sp, #24
 2012              	.LVL231:
 2013 08c0 02F8040D 		strb	r0, [r2, #-4]!
 2014              		.loc 1 816 0
 2015 08c4 0423     		movs	r3, #4
 2016 08c6 0293     		str	r3, [sp, #8]
 2017 08c8 0194     		str	r4, [sp, #4]
 2018 08ca 0091     		str	r1, [sp]
 2019 08cc A121     		movs	r1, #161
 2020              	.LVL232:
 2021 08ce 0120     		movs	r0, #1
ARM GAS  C:\Users\RAKIBU~1\AppData\Local\Temp\ccQ3AEax.s 			page 37


 2022              	.LVL233:
 2023 08d0 FFF7FEFF 		bl	hif_send
 2024              	.LVL234:
 2025              		.loc 1 817 0
 2026 08d4 0346     		mov	r3, r0
 2027 08d6 28B9     		cbnz	r0, .L174
 2028              		.loc 1 819 0
 2029 08d8 084A     		ldr	r2, .L189
 2030 08da 0121     		movs	r1, #1
 2031 08dc 1171     		strb	r1, [r2, #4]
 2032              	.LVL235:
 2033 08de 01E0     		b	.L174
 2034              	.LVL236:
 2035              	.L178:
 2036              	.LBE23:
 2037              		.loc 1 794 0
 2038 08e0 6FF00E03 		mvn	r3, #14
 2039              	.LVL237:
 2040              	.L174:
 2041              		.loc 1 830 0
 2042 08e4 1846     		mov	r0, r3
 2043 08e6 06B0     		add	sp, sp, #24
 2044              		.cfi_def_cfa_offset 8
 2045              		@ sp needed
 2046 08e8 10BD     		pop	{r4, pc}
 2047              	.LVL238:
 2048              	.L180:
 2049              		.cfi_def_cfa_offset 0
 2050              		.cfi_restore 4
 2051              		.cfi_restore 14
 2052              		.loc 1 826 0
 2053 08ea 6FF00D03 		mvn	r3, #13
 2054 08ee E4E7     		b	.L185
 2055              	.L181:
 2056              		.loc 1 794 0
 2057 08f0 6FF00E03 		mvn	r3, #14
 2058 08f4 E1E7     		b	.L185
 2059              	.L182:
 2060 08f6 6FF00E03 		mvn	r3, #14
 2061 08fa DEE7     		b	.L185
 2062              	.L190:
 2063              		.align	2
 2064              	.L189:
 2065 08fc 00000000 		.word	.LANCHOR0
 2066              		.cfi_endproc
 2067              	.LFE354:
 2068              		.size	m2m_wifi_request_scan_ssid_list, .-m2m_wifi_request_scan_ssid_list
 2069              		.align	1
 2070              		.p2align 4,,15
 2071              		.global	m2m_wifi_wps
 2072              		.syntax unified
 2073              		.thumb
 2074              		.thumb_func
 2075              		.fpu softvfp
 2076              		.type	m2m_wifi_wps, %function
 2077              	m2m_wifi_wps:
 2078              	.LFB355:
ARM GAS  C:\Users\RAKIBU~1\AppData\Local\Temp\ccQ3AEax.s 			page 38


 2079              		.loc 1 832 0
 2080              		.cfi_startproc
 2081              		@ args = 0, pretend = 0, frame = 16
 2082              		@ frame_needed = 0, uses_anonymous_args = 0
 2083              	.LVL239:
 2084 0900 00B5     		push	{lr}
 2085              		.cfi_def_cfa_offset 4
 2086              		.cfi_offset 14, -4
 2087 0902 89B0     		sub	sp, sp, #36
 2088              		.cfi_def_cfa_offset 40
 2089              		.loc 1 837 0
 2090 0904 0C4B     		ldr	r3, .L195
 2091 0906 0022     		movs	r2, #0
 2092 0908 1A71     		strb	r2, [r3, #4]
 2093              		.loc 1 838 0
 2094 090a 8DF81400 		strb	r0, [sp, #20]
 2095              		.loc 1 840 0
 2096 090e 60B1     		cbz	r0, .L194
 2097              	.LVL240:
 2098              	.L192:
 2099              		.loc 1 842 0
 2100 0910 0023     		movs	r3, #0
 2101 0912 0293     		str	r3, [sp, #8]
 2102 0914 0193     		str	r3, [sp, #4]
 2103 0916 0093     		str	r3, [sp]
 2104 0918 0C23     		movs	r3, #12
 2105 091a 05AA     		add	r2, sp, #20
 2106 091c 2F21     		movs	r1, #47
 2107 091e 0120     		movs	r0, #1
 2108 0920 FFF7FEFF 		bl	hif_send
 2109              	.LVL241:
 2110              		.loc 1 843 0
 2111 0924 09B0     		add	sp, sp, #36
 2112              		.cfi_remember_state
 2113              		.cfi_def_cfa_offset 4
 2114              		@ sp needed
 2115 0926 5DF804FB 		ldr	pc, [sp], #4
 2116              	.LVL242:
 2117              	.L194:
 2118              		.cfi_restore_state
 2119              		.loc 1 841 0
 2120 092a 0822     		movs	r2, #8
 2121 092c 0DF11500 		add	r0, sp, #21
 2122              	.LVL243:
 2123 0930 FFF7FEFF 		bl	m2m_memcpy
 2124              	.LVL244:
 2125 0934 ECE7     		b	.L192
 2126              	.L196:
 2127 0936 00BF     		.align	2
 2128              	.L195:
 2129 0938 00000000 		.word	.LANCHOR0
 2130              		.cfi_endproc
 2131              	.LFE355:
 2132              		.size	m2m_wifi_wps, .-m2m_wifi_wps
 2133              		.align	1
 2134 093c AFF30080 		.p2align 4,,15
 2135              		.global	m2m_wifi_wps_disable
ARM GAS  C:\Users\RAKIBU~1\AppData\Local\Temp\ccQ3AEax.s 			page 39


 2136              		.syntax unified
 2137              		.thumb
 2138              		.thumb_func
 2139              		.fpu softvfp
 2140              		.type	m2m_wifi_wps_disable, %function
 2141              	m2m_wifi_wps_disable:
 2142              	.LFB356:
 2143              		.loc 1 845 0
 2144              		.cfi_startproc
 2145              		@ args = 0, pretend = 0, frame = 0
 2146              		@ frame_needed = 0, uses_anonymous_args = 0
 2147 0940 00B5     		push	{lr}
 2148              		.cfi_def_cfa_offset 4
 2149              		.cfi_offset 14, -4
 2150 0942 85B0     		sub	sp, sp, #20
 2151              		.cfi_def_cfa_offset 24
 2152              	.LVL245:
 2153              		.loc 1 847 0
 2154 0944 0022     		movs	r2, #0
 2155 0946 0292     		str	r2, [sp, #8]
 2156 0948 0192     		str	r2, [sp, #4]
 2157 094a 0092     		str	r2, [sp]
 2158 094c 1346     		mov	r3, r2
 2159 094e 3121     		movs	r1, #49
 2160 0950 0120     		movs	r0, #1
 2161 0952 FFF7FEFF 		bl	hif_send
 2162              	.LVL246:
 2163              		.loc 1 849 0
 2164 0956 05B0     		add	sp, sp, #20
 2165              		.cfi_def_cfa_offset 4
 2166              		@ sp needed
 2167 0958 5DF804FB 		ldr	pc, [sp], #4
 2168              		.cfi_endproc
 2169              	.LFE356:
 2170              		.size	m2m_wifi_wps_disable, .-m2m_wifi_wps_disable
 2171              		.align	1
 2172 095c AFF30080 		.p2align 4,,15
 2173              		.global	m2m_wifi_req_client_ctrl
 2174              		.syntax unified
 2175              		.thumb
 2176              		.thumb_func
 2177              		.fpu softvfp
 2178              		.type	m2m_wifi_req_client_ctrl, %function
 2179              	m2m_wifi_req_client_ctrl:
 2180              	.LFB357:
 2181              		.loc 1 862 0
 2182              		.cfi_startproc
 2183              		@ args = 0, pretend = 0, frame = 0
 2184              		@ frame_needed = 0, uses_anonymous_args = 0
 2185              		@ link register save eliminated.
 2186              	.LVL247:
 2187              		.loc 1 873 0
 2188 0960 0020     		movs	r0, #0
 2189              	.LVL248:
 2190 0962 7047     		bx	lr
 2191              		.cfi_endproc
 2192              	.LFE357:
ARM GAS  C:\Users\RAKIBU~1\AppData\Local\Temp\ccQ3AEax.s 			page 40


 2193              		.size	m2m_wifi_req_client_ctrl, .-m2m_wifi_req_client_ctrl
 2194              		.align	1
 2195 0964 AFF30080 		.p2align 4,,15
 2195      AFF30080 
 2195      AFF30080 
 2196              		.global	m2m_wifi_req_server_init
 2197              		.syntax unified
 2198              		.thumb
 2199              		.thumb_func
 2200              		.fpu softvfp
 2201              		.type	m2m_wifi_req_server_init, %function
 2202              	m2m_wifi_req_server_init:
 2203              	.LFB358:
 2204              		.loc 1 885 0
 2205              		.cfi_startproc
 2206              		@ args = 0, pretend = 0, frame = 0
 2207              		@ frame_needed = 0, uses_anonymous_args = 0
 2208              		@ link register save eliminated.
 2209              	.LVL249:
 2210              		.loc 1 895 0
 2211 0970 0020     		movs	r0, #0
 2212              	.LVL250:
 2213 0972 7047     		bx	lr
 2214              		.cfi_endproc
 2215              	.LFE358:
 2216              		.size	m2m_wifi_req_server_init, .-m2m_wifi_req_server_init
 2217              		.align	1
 2218 0974 AFF30080 		.p2align 4,,15
 2218      AFF30080 
 2218      AFF30080 
 2219              		.global	m2m_wifi_p2p
 2220              		.syntax unified
 2221              		.thumb
 2222              		.thumb_func
 2223              		.fpu softvfp
 2224              		.type	m2m_wifi_p2p, %function
 2225              	m2m_wifi_p2p:
 2226              	.LFB359:
 2227              		.loc 1 897 0
 2228              		.cfi_startproc
 2229              		@ args = 0, pretend = 0, frame = 8
 2230              		@ frame_needed = 0, uses_anonymous_args = 0
 2231              	.LVL251:
 2232              		.loc 1 899 0
 2233 0980 0128     		cmp	r0, #1
 2234 0982 03D0     		beq	.L202
 2235              		.loc 1 899 0 is_stmt 0 discriminator 1
 2236 0984 0628     		cmp	r0, #6
 2237 0986 01D0     		beq	.L202
 2238              		.loc 1 899 0 discriminator 2
 2239 0988 0B28     		cmp	r0, #11
 2240 098a 10D1     		bne	.L204
 2241              	.L202:
 2242              		.loc 1 897 0 is_stmt 1
 2243 098c 00B5     		push	{lr}
 2244              		.cfi_def_cfa_offset 4
 2245              		.cfi_offset 14, -4
ARM GAS  C:\Users\RAKIBU~1\AppData\Local\Temp\ccQ3AEax.s 			page 41


 2246 098e 87B0     		sub	sp, sp, #28
 2247              		.cfi_def_cfa_offset 32
 2248              	.LBB24:
 2249              		.loc 1 902 0
 2250 0990 06AA     		add	r2, sp, #24
 2251 0992 02F8040D 		strb	r0, [r2, #-4]!
 2252              		.loc 1 903 0
 2253 0996 0023     		movs	r3, #0
 2254 0998 0293     		str	r3, [sp, #8]
 2255 099a 0193     		str	r3, [sp, #4]
 2256 099c 0093     		str	r3, [sp]
 2257 099e 0423     		movs	r3, #4
 2258 09a0 5B21     		movs	r1, #91
 2259 09a2 0120     		movs	r0, #1
 2260              	.LVL252:
 2261 09a4 FFF7FEFF 		bl	hif_send
 2262              	.LVL253:
 2263              	.LBE24:
 2264              		.loc 1 911 0
 2265 09a8 07B0     		add	sp, sp, #28
 2266              		.cfi_def_cfa_offset 4
 2267              		@ sp needed
 2268 09aa 5DF804FB 		ldr	pc, [sp], #4
 2269              	.LVL254:
 2270              	.L204:
 2271              		.cfi_def_cfa_offset 0
 2272              		.cfi_restore 14
 2273              		.loc 1 908 0
 2274 09ae 6FF00B00 		mvn	r0, #11
 2275              	.LVL255:
 2276              		.loc 1 911 0
 2277 09b2 7047     		bx	lr
 2278              		.cfi_endproc
 2279              	.LFE359:
 2280              		.size	m2m_wifi_p2p, .-m2m_wifi_p2p
 2281              		.align	1
 2282 09b4 AFF30080 		.p2align 4,,15
 2282      AFF30080 
 2282      AFF30080 
 2283              		.global	m2m_wifi_p2p_disconnect
 2284              		.syntax unified
 2285              		.thumb
 2286              		.thumb_func
 2287              		.fpu softvfp
 2288              		.type	m2m_wifi_p2p_disconnect, %function
 2289              	m2m_wifi_p2p_disconnect:
 2290              	.LFB360:
 2291              		.loc 1 913 0
 2292              		.cfi_startproc
 2293              		@ args = 0, pretend = 0, frame = 0
 2294              		@ frame_needed = 0, uses_anonymous_args = 0
 2295 09c0 00B5     		push	{lr}
 2296              		.cfi_def_cfa_offset 4
 2297              		.cfi_offset 14, -4
 2298 09c2 85B0     		sub	sp, sp, #20
 2299              		.cfi_def_cfa_offset 24
 2300              	.LVL256:
ARM GAS  C:\Users\RAKIBU~1\AppData\Local\Temp\ccQ3AEax.s 			page 42


 2301              		.loc 1 915 0
 2302 09c4 0022     		movs	r2, #0
 2303 09c6 0292     		str	r2, [sp, #8]
 2304 09c8 0192     		str	r2, [sp, #4]
 2305 09ca 0092     		str	r2, [sp]
 2306 09cc 1346     		mov	r3, r2
 2307 09ce 5C21     		movs	r1, #92
 2308 09d0 0120     		movs	r0, #1
 2309 09d2 FFF7FEFF 		bl	hif_send
 2310              	.LVL257:
 2311              		.loc 1 917 0
 2312 09d6 05B0     		add	sp, sp, #20
 2313              		.cfi_def_cfa_offset 4
 2314              		@ sp needed
 2315 09d8 5DF804FB 		ldr	pc, [sp], #4
 2316              		.cfi_endproc
 2317              	.LFE360:
 2318              		.size	m2m_wifi_p2p_disconnect, .-m2m_wifi_p2p_disconnect
 2319              		.align	1
 2320 09dc AFF30080 		.p2align 4,,15
 2321              		.global	m2m_wifi_enable_ap
 2322              		.syntax unified
 2323              		.thumb
 2324              		.thumb_func
 2325              		.fpu softvfp
 2326              		.type	m2m_wifi_enable_ap, %function
 2327              	m2m_wifi_enable_ap:
 2328              	.LFB361:
 2329              		.loc 1 919 0
 2330              		.cfi_startproc
 2331              		@ args = 0, pretend = 0, frame = 0
 2332              		@ frame_needed = 0, uses_anonymous_args = 0
 2333              	.LVL258:
 2334 09e0 10B5     		push	{r4, lr}
 2335              		.cfi_def_cfa_offset 8
 2336              		.cfi_offset 4, -8
 2337              		.cfi_offset 14, -4
 2338 09e2 84B0     		sub	sp, sp, #16
 2339              		.cfi_def_cfa_offset 24
 2340 09e4 0446     		mov	r4, r0
 2341              	.LVL259:
 2342              		.loc 1 921 0
 2343 09e6 FFF74BFC 		bl	m2m_validate_ap_parameters
 2344              	.LVL260:
 2345 09ea 58B9     		cbnz	r0, .L212
 2346              		.loc 1 923 0
 2347 09ec 0023     		movs	r3, #0
 2348 09ee 0293     		str	r3, [sp, #8]
 2349 09f0 0193     		str	r3, [sp, #4]
 2350 09f2 0093     		str	r3, [sp]
 2351 09f4 8823     		movs	r3, #136
 2352 09f6 2246     		mov	r2, r4
 2353 09f8 4621     		movs	r1, #70
 2354 09fa 0120     		movs	r0, #1
 2355 09fc FFF7FEFF 		bl	hif_send
 2356              	.LVL261:
 2357              	.L211:
ARM GAS  C:\Users\RAKIBU~1\AppData\Local\Temp\ccQ3AEax.s 			page 43


 2358              		.loc 1 926 0
 2359 0a00 04B0     		add	sp, sp, #16
 2360              		.cfi_remember_state
 2361              		.cfi_def_cfa_offset 8
 2362              		@ sp needed
 2363 0a02 10BD     		pop	{r4, pc}
 2364              	.LVL262:
 2365              	.L212:
 2366              		.cfi_restore_state
 2367              		.loc 1 920 0
 2368 0a04 6FF00B00 		mvn	r0, #11
 2369 0a08 FAE7     		b	.L211
 2370              		.cfi_endproc
 2371              	.LFE361:
 2372              		.size	m2m_wifi_enable_ap, .-m2m_wifi_enable_ap
 2373              		.align	1
 2374 0a0a 00BFAFF3 		.p2align 4,,15
 2374      0080
 2375              		.global	m2m_wifi_set_gains
 2376              		.syntax unified
 2377              		.thumb
 2378              		.thumb_func
 2379              		.fpu softvfp
 2380              		.type	m2m_wifi_set_gains, %function
 2381              	m2m_wifi_set_gains:
 2382              	.LFB362:
 2383              		.loc 1 929 0
 2384              		.cfi_startproc
 2385              		@ args = 0, pretend = 0, frame = 0
 2386              		@ frame_needed = 0, uses_anonymous_args = 0
 2387              	.LVL263:
 2388              		.loc 1 931 0
 2389 0a10 70B1     		cbz	r0, .L216
 2390              		.loc 1 929 0
 2391 0a12 00B5     		push	{lr}
 2392              		.cfi_def_cfa_offset 4
 2393              		.cfi_offset 14, -4
 2394 0a14 85B0     		sub	sp, sp, #20
 2395              		.cfi_def_cfa_offset 24
 2396 0a16 0246     		mov	r2, r0
 2397              		.loc 1 933 0
 2398 0a18 0023     		movs	r3, #0
 2399 0a1a 0293     		str	r3, [sp, #8]
 2400 0a1c 0193     		str	r3, [sp, #4]
 2401 0a1e 0093     		str	r3, [sp]
 2402 0a20 0423     		movs	r3, #4
 2403 0a22 2221     		movs	r1, #34
 2404 0a24 0120     		movs	r0, #1
 2405              	.LVL264:
 2406 0a26 FFF7FEFF 		bl	hif_send
 2407              	.LVL265:
 2408              		.loc 1 936 0
 2409 0a2a 05B0     		add	sp, sp, #20
 2410              		.cfi_def_cfa_offset 4
 2411              		@ sp needed
 2412 0a2c 5DF804FB 		ldr	pc, [sp], #4
 2413              	.LVL266:
ARM GAS  C:\Users\RAKIBU~1\AppData\Local\Temp\ccQ3AEax.s 			page 44


 2414              	.L216:
 2415              		.cfi_def_cfa_offset 0
 2416              		.cfi_restore 14
 2417              		.loc 1 930 0
 2418 0a30 6FF00B00 		mvn	r0, #11
 2419              	.LVL267:
 2420              		.loc 1 936 0
 2421 0a34 7047     		bx	lr
 2422              		.cfi_endproc
 2423              	.LFE362:
 2424              		.size	m2m_wifi_set_gains, .-m2m_wifi_set_gains
 2425              		.align	1
 2426 0a36 00BFAFF3 		.p2align 4,,15
 2426      0080AFF3 
 2426      0080
 2427              		.global	m2m_wifi_disable_ap
 2428              		.syntax unified
 2429              		.thumb
 2430              		.thumb_func
 2431              		.fpu softvfp
 2432              		.type	m2m_wifi_disable_ap, %function
 2433              	m2m_wifi_disable_ap:
 2434              	.LFB363:
 2435              		.loc 1 938 0
 2436              		.cfi_startproc
 2437              		@ args = 0, pretend = 0, frame = 0
 2438              		@ frame_needed = 0, uses_anonymous_args = 0
 2439 0a40 00B5     		push	{lr}
 2440              		.cfi_def_cfa_offset 4
 2441              		.cfi_offset 14, -4
 2442 0a42 85B0     		sub	sp, sp, #20
 2443              		.cfi_def_cfa_offset 24
 2444              	.LVL268:
 2445              		.loc 1 940 0
 2446 0a44 0022     		movs	r2, #0
 2447 0a46 0292     		str	r2, [sp, #8]
 2448 0a48 0192     		str	r2, [sp, #4]
 2449 0a4a 0092     		str	r2, [sp]
 2450 0a4c 1346     		mov	r3, r2
 2451 0a4e 4721     		movs	r1, #71
 2452 0a50 0120     		movs	r0, #1
 2453 0a52 FFF7FEFF 		bl	hif_send
 2454              	.LVL269:
 2455              		.loc 1 942 0
 2456 0a56 05B0     		add	sp, sp, #20
 2457              		.cfi_def_cfa_offset 4
 2458              		@ sp needed
 2459 0a58 5DF804FB 		ldr	pc, [sp], #4
 2460              		.cfi_endproc
 2461              	.LFE363:
 2462              		.size	m2m_wifi_disable_ap, .-m2m_wifi_disable_ap
 2463              		.align	1
 2464 0a5c AFF30080 		.p2align 4,,15
 2465              		.global	m2m_wifi_req_curr_rssi
 2466              		.syntax unified
 2467              		.thumb
 2468              		.thumb_func
ARM GAS  C:\Users\RAKIBU~1\AppData\Local\Temp\ccQ3AEax.s 			page 45


 2469              		.fpu softvfp
 2470              		.type	m2m_wifi_req_curr_rssi, %function
 2471              	m2m_wifi_req_curr_rssi:
 2472              	.LFB364:
 2473              		.loc 1 951 0
 2474              		.cfi_startproc
 2475              		@ args = 0, pretend = 0, frame = 0
 2476              		@ frame_needed = 0, uses_anonymous_args = 0
 2477 0a60 00B5     		push	{lr}
 2478              		.cfi_def_cfa_offset 4
 2479              		.cfi_offset 14, -4
 2480 0a62 85B0     		sub	sp, sp, #20
 2481              		.cfi_def_cfa_offset 24
 2482              	.LVL270:
 2483              		.loc 1 953 0
 2484 0a64 0022     		movs	r2, #0
 2485 0a66 0292     		str	r2, [sp, #8]
 2486 0a68 0192     		str	r2, [sp, #4]
 2487 0a6a 0092     		str	r2, [sp]
 2488 0a6c 1346     		mov	r3, r2
 2489 0a6e 0321     		movs	r1, #3
 2490 0a70 0120     		movs	r0, #1
 2491 0a72 FFF7FEFF 		bl	hif_send
 2492              	.LVL271:
 2493              		.loc 1 955 0
 2494 0a76 05B0     		add	sp, sp, #20
 2495              		.cfi_def_cfa_offset 4
 2496              		@ sp needed
 2497 0a78 5DF804FB 		ldr	pc, [sp], #4
 2498              		.cfi_endproc
 2499              	.LFE364:
 2500              		.size	m2m_wifi_req_curr_rssi, .-m2m_wifi_req_curr_rssi
 2501              		.align	1
 2502 0a7c AFF30080 		.p2align 4,,15
 2503              		.global	m2m_wifi_send_ethernet_pkt
 2504              		.syntax unified
 2505              		.thumb
 2506              		.thumb_func
 2507              		.fpu softvfp
 2508              		.type	m2m_wifi_send_ethernet_pkt, %function
 2509              	m2m_wifi_send_ethernet_pkt:
 2510              	.LFB365:
 2511              		.loc 1 957 0
 2512              		.cfi_startproc
 2513              		@ args = 0, pretend = 0, frame = 8
 2514              		@ frame_needed = 0, uses_anonymous_args = 0
 2515              	.LVL272:
 2516              		.loc 1 959 0
 2517 0a80 A0B1     		cbz	r0, .L227
 2518              		.loc 1 959 0 is_stmt 0 discriminator 1
 2519 0a82 B1B1     		cbz	r1, .L228
 2520              		.loc 1 957 0 is_stmt 1
 2521 0a84 00B5     		push	{lr}
 2522              		.cfi_def_cfa_offset 4
 2523              		.cfi_offset 14, -4
 2524 0a86 87B0     		sub	sp, sp, #28
 2525              		.cfi_def_cfa_offset 32
ARM GAS  C:\Users\RAKIBU~1\AppData\Local\Temp\ccQ3AEax.s 			page 46


 2526              	.LBB25:
 2527              		.loc 1 963 0
 2528 0a88 ADF81410 		strh	r1, [sp, #20]	@ movhi
 2529              		.loc 1 964 0
 2530 0a8c 0E22     		movs	r2, #14
 2531 0a8e ADF81620 		strh	r2, [sp, #22]	@ movhi
 2532              		.loc 1 965 0
 2533 0a92 1A22     		movs	r2, #26
 2534 0a94 0292     		str	r2, [sp, #8]
 2535 0a96 0191     		str	r1, [sp, #4]
 2536 0a98 0090     		str	r0, [sp]
 2537 0a9a 0423     		movs	r3, #4
 2538 0a9c 05AA     		add	r2, sp, #20
 2539 0a9e 9C21     		movs	r1, #156
 2540              	.LVL273:
 2541 0aa0 0120     		movs	r0, #1
 2542              	.LVL274:
 2543 0aa2 FFF7FEFF 		bl	hif_send
 2544              	.LVL275:
 2545              	.LBE25:
 2546              		.loc 1 969 0
 2547 0aa6 07B0     		add	sp, sp, #28
 2548              		.cfi_def_cfa_offset 4
 2549              		@ sp needed
 2550 0aa8 5DF804FB 		ldr	pc, [sp], #4
 2551              	.LVL276:
 2552              	.L227:
 2553              		.cfi_def_cfa_offset 0
 2554              		.cfi_restore 14
 2555              		.loc 1 958 0
 2556 0aac 4FF0FF30 		mov	r0, #-1
 2557              	.LVL277:
 2558 0ab0 7047     		bx	lr
 2559              	.LVL278:
 2560              	.L228:
 2561 0ab2 4FF0FF30 		mov	r0, #-1
 2562              	.LVL279:
 2563              		.loc 1 969 0
 2564 0ab6 7047     		bx	lr
 2565              		.cfi_endproc
 2566              	.LFE365:
 2567              		.size	m2m_wifi_send_ethernet_pkt, .-m2m_wifi_send_ethernet_pkt
 2568              		.align	1
 2569 0ab8 AFF30080 		.p2align 4,,15
 2569      AFF30080 
 2570              		.global	m2m_wifi_get_otp_mac_address
 2571              		.syntax unified
 2572              		.thumb
 2573              		.thumb_func
 2574              		.fpu softvfp
 2575              		.type	m2m_wifi_get_otp_mac_address, %function
 2576              	m2m_wifi_get_otp_mac_address:
 2577              	.LFB366:
 2578              		.loc 1 984 0
 2579              		.cfi_startproc
 2580              		@ args = 0, pretend = 0, frame = 0
 2581              		@ frame_needed = 0, uses_anonymous_args = 0
ARM GAS  C:\Users\RAKIBU~1\AppData\Local\Temp\ccQ3AEax.s 			page 47


 2582              	.LVL280:
 2583 0ac0 38B5     		push	{r3, r4, r5, lr}
 2584              		.cfi_def_cfa_offset 16
 2585              		.cfi_offset 3, -16
 2586              		.cfi_offset 4, -12
 2587              		.cfi_offset 5, -8
 2588              		.cfi_offset 14, -4
 2589 0ac2 0446     		mov	r4, r0
 2590 0ac4 0D46     		mov	r5, r1
 2591              	.LVL281:
 2592              		.loc 1 986 0
 2593 0ac6 FFF7FEFF 		bl	hif_chip_wake
 2594              	.LVL282:
 2595              		.loc 1 987 0
 2596 0aca 0346     		mov	r3, r0
 2597 0acc 08B1     		cbz	r0, .L236
 2598              	.LVL283:
 2599              	.L234:
 2600              		.loc 1 996 0
 2601 0ace 1846     		mov	r0, r3
 2602 0ad0 38BD     		pop	{r3, r4, r5, pc}
 2603              	.LVL284:
 2604              	.L236:
 2605              		.loc 1 989 0
 2606 0ad2 2946     		mov	r1, r5
 2607 0ad4 2046     		mov	r0, r4
 2608              	.LVL285:
 2609 0ad6 FFF7FEFF 		bl	nmi_get_otp_mac_address
 2610              	.LVL286:
 2611              		.loc 1 990 0
 2612 0ada 0346     		mov	r3, r0
 2613 0adc 0028     		cmp	r0, #0
 2614 0ade F6D1     		bne	.L234
 2615              		.loc 1 992 0
 2616 0ae0 FFF7FEFF 		bl	hif_chip_sleep
 2617              	.LVL287:
 2618 0ae4 0346     		mov	r3, r0
 2619              	.LVL288:
 2620 0ae6 F2E7     		b	.L234
 2621              		.cfi_endproc
 2622              	.LFE366:
 2623              		.size	m2m_wifi_get_otp_mac_address, .-m2m_wifi_get_otp_mac_address
 2624              		.align	1
 2625 0ae8 AFF30080 		.p2align 4,,15
 2625      AFF30080 
 2626              		.global	m2m_wifi_get_mac_address
 2627              		.syntax unified
 2628              		.thumb
 2629              		.thumb_func
 2630              		.fpu softvfp
 2631              		.type	m2m_wifi_get_mac_address, %function
 2632              	m2m_wifi_get_mac_address:
 2633              	.LFB367:
 2634              		.loc 1 1008 0
 2635              		.cfi_startproc
 2636              		@ args = 0, pretend = 0, frame = 0
 2637              		@ frame_needed = 0, uses_anonymous_args = 0
ARM GAS  C:\Users\RAKIBU~1\AppData\Local\Temp\ccQ3AEax.s 			page 48


 2638              	.LVL289:
 2639 0af0 10B5     		push	{r4, lr}
 2640              		.cfi_def_cfa_offset 8
 2641              		.cfi_offset 4, -8
 2642              		.cfi_offset 14, -4
 2643 0af2 0446     		mov	r4, r0
 2644              	.LVL290:
 2645              		.loc 1 1010 0
 2646 0af4 FFF7FEFF 		bl	hif_chip_wake
 2647              	.LVL291:
 2648              		.loc 1 1011 0
 2649 0af8 0346     		mov	r3, r0
 2650 0afa 08B1     		cbz	r0, .L240
 2651              	.LVL292:
 2652              	.L238:
 2653              		.loc 1 1021 0
 2654 0afc 1846     		mov	r0, r3
 2655 0afe 10BD     		pop	{r4, pc}
 2656              	.LVL293:
 2657              	.L240:
 2658              		.loc 1 1013 0
 2659 0b00 2046     		mov	r0, r4
 2660              	.LVL294:
 2661 0b02 FFF7FEFF 		bl	nmi_get_mac_address
 2662              	.LVL295:
 2663              		.loc 1 1014 0
 2664 0b06 0346     		mov	r3, r0
 2665 0b08 0028     		cmp	r0, #0
 2666 0b0a F7D1     		bne	.L238
 2667              		.loc 1 1016 0
 2668 0b0c FFF7FEFF 		bl	hif_chip_sleep
 2669              	.LVL296:
 2670 0b10 0346     		mov	r3, r0
 2671              	.LVL297:
 2672 0b12 F3E7     		b	.L238
 2673              		.cfi_endproc
 2674              	.LFE367:
 2675              		.size	m2m_wifi_get_mac_address, .-m2m_wifi_get_mac_address
 2676              		.align	1
 2677 0b14 AFF30080 		.p2align 4,,15
 2677      AFF30080 
 2677      AFF30080 
 2678              		.global	m2m_wifi_req_scan_result
 2679              		.syntax unified
 2680              		.thumb
 2681              		.thumb_func
 2682              		.fpu softvfp
 2683              		.type	m2m_wifi_req_scan_result, %function
 2684              	m2m_wifi_req_scan_result:
 2685              	.LFB368:
 2686              		.loc 1 1040 0
 2687              		.cfi_startproc
 2688              		@ args = 0, pretend = 0, frame = 8
 2689              		@ frame_needed = 0, uses_anonymous_args = 0
 2690              	.LVL298:
 2691 0b20 00B5     		push	{lr}
 2692              		.cfi_def_cfa_offset 4
ARM GAS  C:\Users\RAKIBU~1\AppData\Local\Temp\ccQ3AEax.s 			page 49


 2693              		.cfi_offset 14, -4
 2694 0b22 87B0     		sub	sp, sp, #28
 2695              		.cfi_def_cfa_offset 32
 2696              	.LVL299:
 2697              		.loc 1 1043 0
 2698 0b24 06AA     		add	r2, sp, #24
 2699 0b26 02F8040D 		strb	r0, [r2, #-4]!
 2700              		.loc 1 1044 0
 2701 0b2a 0023     		movs	r3, #0
 2702 0b2c 0293     		str	r3, [sp, #8]
 2703 0b2e 0193     		str	r3, [sp, #4]
 2704 0b30 0093     		str	r3, [sp]
 2705 0b32 0423     		movs	r3, #4
 2706 0b34 1221     		movs	r1, #18
 2707 0b36 0120     		movs	r0, #1
 2708              	.LVL300:
 2709 0b38 FFF7FEFF 		bl	hif_send
 2710              	.LVL301:
 2711              		.loc 1 1046 0
 2712 0b3c 07B0     		add	sp, sp, #28
 2713              		.cfi_def_cfa_offset 4
 2714              		@ sp needed
 2715 0b3e 5DF804FB 		ldr	pc, [sp], #4
 2716              		.cfi_endproc
 2717              	.LFE368:
 2718              		.size	m2m_wifi_req_scan_result, .-m2m_wifi_req_scan_result
 2719              		.align	1
 2720 0b42 00BFAFF3 		.p2align 4,,15
 2720      0080AFF3 
 2720      0080AFF3 
 2720      0080
 2721              		.global	m2m_wifi_get_num_ap_found
 2722              		.syntax unified
 2723              		.thumb
 2724              		.thumb_func
 2725              		.fpu softvfp
 2726              		.type	m2m_wifi_get_num_ap_found, %function
 2727              	m2m_wifi_get_num_ap_found:
 2728              	.LFB369:
 2729              		.loc 1 1060 0
 2730              		.cfi_startproc
 2731              		@ args = 0, pretend = 0, frame = 0
 2732              		@ frame_needed = 0, uses_anonymous_args = 0
 2733              		@ link register save eliminated.
 2734              		.loc 1 1061 0
 2735 0b50 014B     		ldr	r3, .L244
 2736 0b52 5879     		ldrb	r0, [r3, #5]	@ zero_extendqisi2
 2737              		.loc 1 1062 0
 2738 0b54 7047     		bx	lr
 2739              	.L245:
 2740 0b56 00BF     		.align	2
 2741              	.L244:
 2742 0b58 00000000 		.word	.LANCHOR0
 2743              		.cfi_endproc
 2744              	.LFE369:
 2745              		.size	m2m_wifi_get_num_ap_found, .-m2m_wifi_get_num_ap_found
 2746              		.align	1
ARM GAS  C:\Users\RAKIBU~1\AppData\Local\Temp\ccQ3AEax.s 			page 50


 2747 0b5c AFF30080 		.p2align 4,,15
 2748              		.global	m2m_wifi_get_sleep_mode
 2749              		.syntax unified
 2750              		.thumb
 2751              		.thumb_func
 2752              		.fpu softvfp
 2753              		.type	m2m_wifi_get_sleep_mode, %function
 2754              	m2m_wifi_get_sleep_mode:
 2755              	.LFB370:
 2756              		.loc 1 1070 0
 2757              		.cfi_startproc
 2758              		@ args = 0, pretend = 0, frame = 0
 2759              		@ frame_needed = 0, uses_anonymous_args = 0
 2760 0b60 08B5     		push	{r3, lr}
 2761              		.cfi_def_cfa_offset 8
 2762              		.cfi_offset 3, -8
 2763              		.cfi_offset 14, -4
 2764              		.loc 1 1071 0
 2765 0b62 FFF7FEFF 		bl	hif_get_sleep_mode
 2766              	.LVL302:
 2767              		.loc 1 1072 0
 2768 0b66 08BD     		pop	{r3, pc}
 2769              		.cfi_endproc
 2770              	.LFE370:
 2771              		.size	m2m_wifi_get_sleep_mode, .-m2m_wifi_get_sleep_mode
 2772              		.align	1
 2773 0b68 AFF30080 		.p2align 4,,15
 2773      AFF30080 
 2774              		.global	m2m_wifi_set_sleep_mode
 2775              		.syntax unified
 2776              		.thumb
 2777              		.thumb_func
 2778              		.fpu softvfp
 2779              		.type	m2m_wifi_set_sleep_mode, %function
 2780              	m2m_wifi_set_sleep_mode:
 2781              	.LFB371:
 2782              		.loc 1 1088 0
 2783              		.cfi_startproc
 2784              		@ args = 0, pretend = 0, frame = 8
 2785              		@ frame_needed = 0, uses_anonymous_args = 0
 2786              	.LVL303:
 2787 0b70 30B5     		push	{r4, r5, lr}
 2788              		.cfi_def_cfa_offset 12
 2789              		.cfi_offset 4, -12
 2790              		.cfi_offset 5, -8
 2791              		.cfi_offset 14, -4
 2792 0b72 87B0     		sub	sp, sp, #28
 2793              		.cfi_def_cfa_offset 40
 2794 0b74 0446     		mov	r4, r0
 2795              	.LVL304:
 2796              		.loc 1 1091 0
 2797 0b76 8DF81400 		strb	r0, [sp, #20]
 2798              		.loc 1 1092 0
 2799 0b7a 8DF81510 		strb	r1, [sp, #21]
 2800              		.loc 1 1093 0
 2801 0b7e 0023     		movs	r3, #0
 2802 0b80 0293     		str	r3, [sp, #8]
ARM GAS  C:\Users\RAKIBU~1\AppData\Local\Temp\ccQ3AEax.s 			page 51


 2803 0b82 0193     		str	r3, [sp, #4]
 2804 0b84 0093     		str	r3, [sp]
 2805 0b86 0423     		movs	r3, #4
 2806 0b88 05AA     		add	r2, sp, #20
 2807 0b8a 2D21     		movs	r1, #45
 2808              	.LVL305:
 2809 0b8c 0120     		movs	r0, #1
 2810              	.LVL306:
 2811 0b8e FFF7FEFF 		bl	hif_send
 2812              	.LVL307:
 2813 0b92 0546     		mov	r5, r0
 2814              	.LVL308:
 2815              		.loc 1 1095 0
 2816 0b94 2046     		mov	r0, r4
 2817 0b96 FFF7FEFF 		bl	hif_set_sleep_mode
 2818              	.LVL309:
 2819              		.loc 1 1097 0
 2820 0b9a 2846     		mov	r0, r5
 2821 0b9c 07B0     		add	sp, sp, #28
 2822              		.cfi_def_cfa_offset 12
 2823              		@ sp needed
 2824 0b9e 30BD     		pop	{r4, r5, pc}
 2825              		.cfi_endproc
 2826              	.LFE371:
 2827              		.size	m2m_wifi_set_sleep_mode, .-m2m_wifi_set_sleep_mode
 2828              		.align	1
 2829              		.p2align 4,,15
 2830              		.global	m2m_wifi_request_sleep
 2831              		.syntax unified
 2832              		.thumb
 2833              		.thumb_func
 2834              		.fpu softvfp
 2835              		.type	m2m_wifi_request_sleep, %function
 2836              	m2m_wifi_request_sleep:
 2837              	.LFB372:
 2838              		.loc 1 1108 0
 2839              		.cfi_startproc
 2840              		@ args = 0, pretend = 0, frame = 8
 2841              		@ frame_needed = 0, uses_anonymous_args = 0
 2842              	.LVL310:
 2843 0ba0 10B5     		push	{r4, lr}
 2844              		.cfi_def_cfa_offset 8
 2845              		.cfi_offset 4, -8
 2846              		.cfi_offset 14, -4
 2847 0ba2 86B0     		sub	sp, sp, #24
 2848              		.cfi_def_cfa_offset 32
 2849 0ba4 0446     		mov	r4, r0
 2850              	.LVL311:
 2851              		.loc 1 1111 0
 2852 0ba6 FFF7FEFF 		bl	hif_get_sleep_mode
 2853              	.LVL312:
 2854              		.loc 1 1112 0
 2855 0baa 0428     		cmp	r0, #4
 2856 0bac 02D0     		beq	.L254
 2857              		.loc 1 1109 0
 2858 0bae 0020     		movs	r0, #0
 2859              	.LVL313:
ARM GAS  C:\Users\RAKIBU~1\AppData\Local\Temp\ccQ3AEax.s 			page 52


 2860              	.L251:
 2861              		.loc 1 1119 0
 2862 0bb0 06B0     		add	sp, sp, #24
 2863              		.cfi_remember_state
 2864              		.cfi_def_cfa_offset 8
 2865              		@ sp needed
 2866 0bb2 10BD     		pop	{r4, pc}
 2867              	.LVL314:
 2868              	.L254:
 2869              		.cfi_restore_state
 2870              	.LBB26:
 2871              		.loc 1 1115 0
 2872 0bb4 06AA     		add	r2, sp, #24
 2873 0bb6 42F8044D 		str	r4, [r2, #-4]!
 2874              		.loc 1 1116 0
 2875 0bba 0023     		movs	r3, #0
 2876 0bbc 0293     		str	r3, [sp, #8]
 2877 0bbe 0193     		str	r3, [sp, #4]
 2878 0bc0 0093     		str	r3, [sp]
 2879 0bc2 0423     		movs	r3, #4
 2880 0bc4 3A21     		movs	r1, #58
 2881 0bc6 0120     		movs	r0, #1
 2882              	.LVL315:
 2883 0bc8 FFF7FEFF 		bl	hif_send
 2884              	.LVL316:
 2885 0bcc F0E7     		b	.L251
 2886              	.LBE26:
 2887              		.cfi_endproc
 2888              	.LFE372:
 2889              		.size	m2m_wifi_request_sleep, .-m2m_wifi_request_sleep
 2890              		.align	1
 2891 0bce 00BF     		.p2align 4,,15
 2892              		.global	m2m_wifi_set_device_name
 2893              		.syntax unified
 2894              		.thumb
 2895              		.thumb_func
 2896              		.fpu softvfp
 2897              		.type	m2m_wifi_set_device_name, %function
 2898              	m2m_wifi_set_device_name:
 2899              	.LFB373:
 2900              		.loc 1 1131 0
 2901              		.cfi_startproc
 2902              		@ args = 0, pretend = 0, frame = 48
 2903              		@ frame_needed = 0, uses_anonymous_args = 0
 2904              	.LVL317:
 2905 0bd0 00B5     		push	{lr}
 2906              		.cfi_def_cfa_offset 4
 2907              		.cfi_offset 14, -4
 2908 0bd2 91B0     		sub	sp, sp, #68
 2909              		.cfi_def_cfa_offset 72
 2910              		.loc 1 1133 0
 2911 0bd4 2F29     		cmp	r1, #47
 2912 0bd6 00D9     		bls	.L256
 2913              		.loc 1 1135 0
 2914 0bd8 3021     		movs	r1, #48
 2915              	.LVL318:
 2916              	.L256:
ARM GAS  C:\Users\RAKIBU~1\AppData\Local\Temp\ccQ3AEax.s 			page 53


 2917              		.loc 1 1138 0
 2918 0bda 4A1C     		adds	r2, r1, #1
 2919              	.LVL319:
 2920              		.loc 1 1139 0
 2921 0bdc D2B2     		uxtb	r2, r2
 2922 0bde 0146     		mov	r1, r0
 2923 0be0 04A8     		add	r0, sp, #16
 2924              	.LVL320:
 2925 0be2 FFF7FEFF 		bl	m2m_memcpy
 2926              	.LVL321:
 2927              		.loc 1 1140 0
 2928 0be6 0023     		movs	r3, #0
 2929 0be8 0293     		str	r3, [sp, #8]
 2930 0bea 0193     		str	r3, [sp, #4]
 2931 0bec 0093     		str	r3, [sp]
 2932 0bee 3023     		movs	r3, #48
 2933 0bf0 04AA     		add	r2, sp, #16
 2934 0bf2 0721     		movs	r1, #7
 2935 0bf4 0120     		movs	r0, #1
 2936 0bf6 FFF7FEFF 		bl	hif_send
 2937              	.LVL322:
 2938              		.loc 1 1142 0
 2939 0bfa 11B0     		add	sp, sp, #68
 2940              		.cfi_def_cfa_offset 4
 2941              		@ sp needed
 2942 0bfc 5DF804FB 		ldr	pc, [sp], #4
 2943              		.cfi_endproc
 2944              	.LFE373:
 2945              		.size	m2m_wifi_set_device_name, .-m2m_wifi_set_device_name
 2946              		.align	1
 2947              		.p2align 4,,15
 2948              		.global	m2m_wifi_get_firmware_version
 2949              		.syntax unified
 2950              		.thumb
 2951              		.thumb_func
 2952              		.fpu softvfp
 2953              		.type	m2m_wifi_get_firmware_version, %function
 2954              	m2m_wifi_get_firmware_version:
 2955              	.LFB374:
 2956              		.loc 1 1144 0
 2957              		.cfi_startproc
 2958              		@ args = 0, pretend = 0, frame = 0
 2959              		@ frame_needed = 0, uses_anonymous_args = 0
 2960              	.LVL323:
 2961 0c00 38B5     		push	{r3, r4, r5, lr}
 2962              		.cfi_def_cfa_offset 16
 2963              		.cfi_offset 3, -16
 2964              		.cfi_offset 4, -12
 2965              		.cfi_offset 5, -8
 2966              		.cfi_offset 14, -4
 2967 0c02 0546     		mov	r5, r0
 2968              	.LVL324:
 2969              		.loc 1 1146 0
 2970 0c04 FFF7FEFF 		bl	hif_chip_wake
 2971              	.LVL325:
 2972              		.loc 1 1147 0
 2973 0c08 0446     		mov	r4, r0
ARM GAS  C:\Users\RAKIBU~1\AppData\Local\Temp\ccQ3AEax.s 			page 54


 2974 0c0a 08B1     		cbz	r0, .L262
 2975              	.LVL326:
 2976              	.L260:
 2977              		.loc 1 1153 0
 2978 0c0c 2046     		mov	r0, r4
 2979 0c0e 38BD     		pop	{r3, r4, r5, pc}
 2980              	.LVL327:
 2981              	.L262:
 2982              		.loc 1 1149 0
 2983 0c10 2846     		mov	r0, r5
 2984              	.LVL328:
 2985 0c12 FFF7FEFF 		bl	nm_get_firmware_full_info
 2986              	.LVL329:
 2987 0c16 0446     		mov	r4, r0
 2988              	.LVL330:
 2989              		.loc 1 1150 0
 2990 0c18 FFF7FEFF 		bl	hif_chip_sleep
 2991              	.LVL331:
 2992 0c1c F6E7     		b	.L260
 2993              		.cfi_endproc
 2994              	.LFE374:
 2995              		.size	m2m_wifi_get_firmware_version, .-m2m_wifi_get_firmware_version
 2996              		.align	1
 2997 0c1e 00BF     		.p2align 4,,15
 2998              		.global	m2m_wifi_start_provision_mode
 2999              		.syntax unified
 3000              		.thumb
 3001              		.thumb_func
 3002              		.fpu softvfp
 3003              		.type	m2m_wifi_start_provision_mode, %function
 3004              	m2m_wifi_start_provision_mode:
 3005              	.LFB375:
 3006              		.loc 1 1192 0
 3007              		.cfi_startproc
 3008              		@ args = 0, pretend = 0, frame = 208
 3009              		@ frame_needed = 0, uses_anonymous_args = 0
 3010              	.LVL332:
 3011              		.loc 1 1195 0
 3012 0c20 60B3     		cbz	r0, .L267
 3013              		.loc 1 1192 0
 3014 0c22 70B5     		push	{r4, r5, r6, lr}
 3015              		.cfi_def_cfa_offset 16
 3016              		.cfi_offset 4, -16
 3017              		.cfi_offset 5, -12
 3018              		.cfi_offset 6, -8
 3019              		.cfi_offset 14, -4
 3020 0c24 B8B0     		sub	sp, sp, #224
 3021              		.cfi_def_cfa_offset 240
 3022 0c26 0446     		mov	r4, r0
 3023 0c28 1646     		mov	r6, r2
 3024 0c2a 0D46     		mov	r5, r1
 3025              	.LBB27:
 3026              		.loc 1 1198 0
 3027 0c2c FFF728FB 		bl	m2m_validate_ap_parameters
 3028              	.LVL333:
 3029 0c30 18B1     		cbz	r0, .L273
 3030              	.LBE27:
ARM GAS  C:\Users\RAKIBU~1\AppData\Local\Temp\ccQ3AEax.s 			page 55


 3031              		.loc 1 1193 0
 3032 0c32 6FF00B00 		mvn	r0, #11
 3033              	.LVL334:
 3034              	.L264:
 3035              		.loc 1 1222 0
 3036 0c36 38B0     		add	sp, sp, #224
 3037              		.cfi_remember_state
 3038              		.cfi_def_cfa_offset 16
 3039              		@ sp needed
 3040 0c38 70BD     		pop	{r4, r5, r6, pc}
 3041              	.LVL335:
 3042              	.L273:
 3043              		.cfi_restore_state
 3044              	.LBB28:
 3045              		.loc 1 1200 0
 3046 0c3a 8822     		movs	r2, #136
 3047 0c3c 2146     		mov	r1, r4
 3048 0c3e 05A8     		add	r0, sp, #20
 3049 0c40 FFF7FEFF 		bl	m2m_memcpy
 3050              	.LVL336:
 3051              		.loc 1 1201 0
 3052 0c44 2846     		mov	r0, r5
 3053 0c46 FFF7FEFF 		bl	m2m_strlen
 3054              	.LVL337:
 3055 0c4a A0B1     		cbz	r0, .L266
 3056              		.loc 1 1201 0 is_stmt 0 discriminator 1
 3057 0c4c 9DB1     		cbz	r5, .L266
 3058              		.loc 1 1206 0 is_stmt 1
 3059 0c4e 4022     		movs	r2, #64
 3060 0c50 2946     		mov	r1, r5
 3061 0c52 27A8     		add	r0, sp, #156
 3062 0c54 FFF7FEFF 		bl	m2m_memcpy
 3063              	.LVL338:
 3064              		.loc 1 1207 0
 3065 0c58 8DF8DC60 		strb	r6, [sp, #220]
 3066              		.loc 1 1211 0
 3067 0c5c 0023     		movs	r3, #0
 3068 0c5e 094A     		ldr	r2, .L274
 3069 0c60 1371     		strb	r3, [r2, #4]
 3070              		.loc 1 1212 0
 3071 0c62 0293     		str	r3, [sp, #8]
 3072 0c64 0193     		str	r3, [sp, #4]
 3073 0c66 0093     		str	r3, [sp]
 3074 0c68 CC23     		movs	r3, #204
 3075 0c6a 05AA     		add	r2, sp, #20
 3076 0c6c 8821     		movs	r1, #136
 3077 0c6e 0120     		movs	r0, #1
 3078 0c70 FFF7FEFF 		bl	hif_send
 3079              	.LVL339:
 3080 0c74 DFE7     		b	.L264
 3081              	.LVL340:
 3082              	.L266:
 3083              	.LBE28:
 3084              		.loc 1 1193 0
 3085 0c76 6FF00B00 		mvn	r0, #11
 3086 0c7a DCE7     		b	.L264
 3087              	.LVL341:
ARM GAS  C:\Users\RAKIBU~1\AppData\Local\Temp\ccQ3AEax.s 			page 56


 3088              	.L267:
 3089              		.cfi_def_cfa_offset 0
 3090              		.cfi_restore 4
 3091              		.cfi_restore 5
 3092              		.cfi_restore 6
 3093              		.cfi_restore 14
 3094 0c7c 6FF00B00 		mvn	r0, #11
 3095              	.LVL342:
 3096              		.loc 1 1222 0
 3097 0c80 7047     		bx	lr
 3098              	.L275:
 3099 0c82 00BF     		.align	2
 3100              	.L274:
 3101 0c84 00000000 		.word	.LANCHOR0
 3102              		.cfi_endproc
 3103              	.LFE375:
 3104              		.size	m2m_wifi_start_provision_mode, .-m2m_wifi_start_provision_mode
 3105              		.align	1
 3106 0c88 AFF30080 		.p2align 4,,15
 3106      AFF30080 
 3107              		.global	m2m_wifi_stop_provision_mode
 3108              		.syntax unified
 3109              		.thumb
 3110              		.thumb_func
 3111              		.fpu softvfp
 3112              		.type	m2m_wifi_stop_provision_mode, %function
 3113              	m2m_wifi_stop_provision_mode:
 3114              	.LFB376:
 3115              		.loc 1 1225 0
 3116              		.cfi_startproc
 3117              		@ args = 0, pretend = 0, frame = 0
 3118              		@ frame_needed = 0, uses_anonymous_args = 0
 3119 0c90 00B5     		push	{lr}
 3120              		.cfi_def_cfa_offset 4
 3121              		.cfi_offset 14, -4
 3122 0c92 85B0     		sub	sp, sp, #20
 3123              		.cfi_def_cfa_offset 24
 3124              		.loc 1 1226 0
 3125 0c94 0022     		movs	r2, #0
 3126 0c96 0292     		str	r2, [sp, #8]
 3127 0c98 0192     		str	r2, [sp, #4]
 3128 0c9a 0092     		str	r2, [sp]
 3129 0c9c 1346     		mov	r3, r2
 3130 0c9e 0A21     		movs	r1, #10
 3131 0ca0 0120     		movs	r0, #1
 3132 0ca2 FFF7FEFF 		bl	hif_send
 3133              	.LVL343:
 3134              		.loc 1 1227 0
 3135 0ca6 05B0     		add	sp, sp, #20
 3136              		.cfi_def_cfa_offset 4
 3137              		@ sp needed
 3138 0ca8 5DF804FB 		ldr	pc, [sp], #4
 3139              		.cfi_endproc
 3140              	.LFE376:
 3141              		.size	m2m_wifi_stop_provision_mode, .-m2m_wifi_stop_provision_mode
 3142              		.align	1
 3143 0cac AFF30080 		.p2align 4,,15
ARM GAS  C:\Users\RAKIBU~1\AppData\Local\Temp\ccQ3AEax.s 			page 57


 3144              		.global	m2m_wifi_get_connection_info
 3145              		.syntax unified
 3146              		.thumb
 3147              		.thumb_func
 3148              		.fpu softvfp
 3149              		.type	m2m_wifi_get_connection_info, %function
 3150              	m2m_wifi_get_connection_info:
 3151              	.LFB377:
 3152              		.loc 1 1230 0
 3153              		.cfi_startproc
 3154              		@ args = 0, pretend = 0, frame = 0
 3155              		@ frame_needed = 0, uses_anonymous_args = 0
 3156 0cb0 00B5     		push	{lr}
 3157              		.cfi_def_cfa_offset 4
 3158              		.cfi_offset 14, -4
 3159 0cb2 85B0     		sub	sp, sp, #20
 3160              		.cfi_def_cfa_offset 24
 3161              		.loc 1 1231 0
 3162 0cb4 0022     		movs	r2, #0
 3163 0cb6 0292     		str	r2, [sp, #8]
 3164 0cb8 0192     		str	r2, [sp, #4]
 3165 0cba 0092     		str	r2, [sp]
 3166 0cbc 1346     		mov	r3, r2
 3167 0cbe 0521     		movs	r1, #5
 3168 0cc0 0120     		movs	r0, #1
 3169 0cc2 FFF7FEFF 		bl	hif_send
 3170              	.LVL344:
 3171              		.loc 1 1232 0
 3172 0cc6 05B0     		add	sp, sp, #20
 3173              		.cfi_def_cfa_offset 4
 3174              		@ sp needed
 3175 0cc8 5DF804FB 		ldr	pc, [sp], #4
 3176              		.cfi_endproc
 3177              	.LFE377:
 3178              		.size	m2m_wifi_get_connection_info, .-m2m_wifi_get_connection_info
 3179              		.align	1
 3180 0ccc AFF30080 		.p2align 4,,15
 3181              		.global	m2m_wifi_set_sytem_time
 3182              		.syntax unified
 3183              		.thumb
 3184              		.thumb_func
 3185              		.fpu softvfp
 3186              		.type	m2m_wifi_set_sytem_time, %function
 3187              	m2m_wifi_set_sytem_time:
 3188              	.LFB378:
 3189              		.loc 1 1235 0
 3190              		.cfi_startproc
 3191              		@ args = 0, pretend = 0, frame = 8
 3192              		@ frame_needed = 0, uses_anonymous_args = 0
 3193              	.LVL345:
 3194 0cd0 00B5     		push	{lr}
 3195              		.cfi_def_cfa_offset 4
 3196              		.cfi_offset 14, -4
 3197 0cd2 87B0     		sub	sp, sp, #28
 3198              		.cfi_def_cfa_offset 32
 3199 0cd4 06AA     		add	r2, sp, #24
 3200 0cd6 42F8040D 		str	r0, [r2, #-4]!
ARM GAS  C:\Users\RAKIBU~1\AppData\Local\Temp\ccQ3AEax.s 			page 58


 3201              		.loc 1 1239 0
 3202 0cda 0023     		movs	r3, #0
 3203 0cdc 0293     		str	r3, [sp, #8]
 3204 0cde 0193     		str	r3, [sp, #4]
 3205 0ce0 0093     		str	r3, [sp]
 3206 0ce2 0823     		movs	r3, #8
 3207 0ce4 0B21     		movs	r1, #11
 3208 0ce6 0120     		movs	r0, #1
 3209              	.LVL346:
 3210 0ce8 FFF7FEFF 		bl	hif_send
 3211              	.LVL347:
 3212              		.loc 1 1240 0
 3213 0cec 07B0     		add	sp, sp, #28
 3214              		.cfi_def_cfa_offset 4
 3215              		@ sp needed
 3216 0cee 5DF804FB 		ldr	pc, [sp], #4
 3217              		.cfi_endproc
 3218              	.LFE378:
 3219              		.size	m2m_wifi_set_sytem_time, .-m2m_wifi_set_sytem_time
 3220              		.align	1
 3221 0cf2 00BFAFF3 		.p2align 4,,15
 3221      0080AFF3 
 3221      0080AFF3 
 3221      0080
 3222              		.global	m2m_wifi_get_sytem_time
 3223              		.syntax unified
 3224              		.thumb
 3225              		.thumb_func
 3226              		.fpu softvfp
 3227              		.type	m2m_wifi_get_sytem_time, %function
 3228              	m2m_wifi_get_sytem_time:
 3229              	.LFB379:
 3230              		.loc 1 1250 0
 3231              		.cfi_startproc
 3232              		@ args = 0, pretend = 0, frame = 0
 3233              		@ frame_needed = 0, uses_anonymous_args = 0
 3234 0d00 00B5     		push	{lr}
 3235              		.cfi_def_cfa_offset 4
 3236              		.cfi_offset 14, -4
 3237 0d02 85B0     		sub	sp, sp, #20
 3238              		.cfi_def_cfa_offset 24
 3239              		.loc 1 1251 0
 3240 0d04 0022     		movs	r2, #0
 3241 0d06 0292     		str	r2, [sp, #8]
 3242 0d08 0192     		str	r2, [sp, #4]
 3243 0d0a 0092     		str	r2, [sp]
 3244 0d0c 1346     		mov	r3, r2
 3245 0d0e 1A21     		movs	r1, #26
 3246 0d10 0120     		movs	r0, #1
 3247 0d12 FFF7FEFF 		bl	hif_send
 3248              	.LVL348:
 3249              		.loc 1 1252 0
 3250 0d16 05B0     		add	sp, sp, #20
 3251              		.cfi_def_cfa_offset 4
 3252              		@ sp needed
 3253 0d18 5DF804FB 		ldr	pc, [sp], #4
 3254              		.cfi_endproc
ARM GAS  C:\Users\RAKIBU~1\AppData\Local\Temp\ccQ3AEax.s 			page 59


 3255              	.LFE379:
 3256              		.size	m2m_wifi_get_sytem_time, .-m2m_wifi_get_sytem_time
 3257              		.align	1
 3258 0d1c AFF30080 		.p2align 4,,15
 3259              		.global	m2m_wifi_enable_sntp
 3260              		.syntax unified
 3261              		.thumb
 3262              		.thumb_func
 3263              		.fpu softvfp
 3264              		.type	m2m_wifi_enable_sntp, %function
 3265              	m2m_wifi_enable_sntp:
 3266              	.LFB380:
 3267              		.loc 1 1255 0
 3268              		.cfi_startproc
 3269              		@ args = 0, pretend = 0, frame = 0
 3270              		@ frame_needed = 0, uses_anonymous_args = 0
 3271              	.LVL349:
 3272 0d20 00B5     		push	{lr}
 3273              		.cfi_def_cfa_offset 4
 3274              		.cfi_offset 14, -4
 3275 0d22 85B0     		sub	sp, sp, #20
 3276              		.cfi_def_cfa_offset 24
 3277              		.loc 1 1258 0
 3278 0d24 58B9     		cbnz	r0, .L288
 3279 0d26 0D21     		movs	r1, #13
 3280              	.L285:
 3281              	.LVL350:
 3282              		.loc 1 1259 0 discriminator 4
 3283 0d28 0022     		movs	r2, #0
 3284 0d2a 0292     		str	r2, [sp, #8]
 3285 0d2c 0192     		str	r2, [sp, #4]
 3286 0d2e 0092     		str	r2, [sp]
 3287 0d30 1346     		mov	r3, r2
 3288 0d32 0120     		movs	r0, #1
 3289              	.LVL351:
 3290 0d34 FFF7FEFF 		bl	hif_send
 3291              	.LVL352:
 3292              		.loc 1 1260 0 discriminator 4
 3293 0d38 05B0     		add	sp, sp, #20
 3294              		.cfi_remember_state
 3295              		.cfi_def_cfa_offset 4
 3296              		@ sp needed
 3297 0d3a 5DF804FB 		ldr	pc, [sp], #4
 3298              	.LVL353:
 3299              	.L288:
 3300              		.cfi_restore_state
 3301              		.loc 1 1258 0
 3302 0d3e 0C21     		movs	r1, #12
 3303 0d40 F2E7     		b	.L285
 3304              		.cfi_endproc
 3305              	.LFE380:
 3306              		.size	m2m_wifi_enable_sntp, .-m2m_wifi_enable_sntp
 3307              		.align	1
 3308 0d42 00BFAFF3 		.p2align 4,,15
 3308      0080AFF3 
 3308      0080AFF3 
 3308      0080
ARM GAS  C:\Users\RAKIBU~1\AppData\Local\Temp\ccQ3AEax.s 			page 60


 3309              		.global	m2m_wifi_set_power_profile
 3310              		.syntax unified
 3311              		.thumb
 3312              		.thumb_func
 3313              		.fpu softvfp
 3314              		.type	m2m_wifi_set_power_profile, %function
 3315              	m2m_wifi_set_power_profile:
 3316              	.LFB381:
 3317              		.loc 1 1273 0
 3318              		.cfi_startproc
 3319              		@ args = 0, pretend = 0, frame = 8
 3320              		@ frame_needed = 0, uses_anonymous_args = 0
 3321              	.LVL354:
 3322 0d50 00B5     		push	{lr}
 3323              		.cfi_def_cfa_offset 4
 3324              		.cfi_offset 14, -4
 3325 0d52 87B0     		sub	sp, sp, #28
 3326              		.cfi_def_cfa_offset 32
 3327              	.LVL355:
 3328              		.loc 1 1276 0
 3329 0d54 06AA     		add	r2, sp, #24
 3330 0d56 02F8040D 		strb	r0, [r2, #-4]!
 3331              		.loc 1 1277 0
 3332 0d5a 0023     		movs	r3, #0
 3333 0d5c 0293     		str	r3, [sp, #8]
 3334 0d5e 0193     		str	r3, [sp, #4]
 3335 0d60 0093     		str	r3, [sp]
 3336 0d62 0423     		movs	r3, #4
 3337 0d64 1621     		movs	r1, #22
 3338 0d66 0120     		movs	r0, #1
 3339              	.LVL356:
 3340 0d68 FFF7FEFF 		bl	hif_send
 3341              	.LVL357:
 3342              		.loc 1 1279 0
 3343 0d6c 07B0     		add	sp, sp, #28
 3344              		.cfi_def_cfa_offset 4
 3345              		@ sp needed
 3346 0d6e 5DF804FB 		ldr	pc, [sp], #4
 3347              		.cfi_endproc
 3348              	.LFE381:
 3349              		.size	m2m_wifi_set_power_profile, .-m2m_wifi_set_power_profile
 3350              		.align	1
 3351 0d72 00BFAFF3 		.p2align 4,,15
 3351      0080AFF3 
 3351      0080AFF3 
 3351      0080
 3352              		.global	m2m_wifi_set_tx_power
 3353              		.syntax unified
 3354              		.thumb
 3355              		.thumb_func
 3356              		.fpu softvfp
 3357              		.type	m2m_wifi_set_tx_power, %function
 3358              	m2m_wifi_set_tx_power:
 3359              	.LFB382:
 3360              		.loc 1 1291 0
 3361              		.cfi_startproc
 3362              		@ args = 0, pretend = 0, frame = 8
ARM GAS  C:\Users\RAKIBU~1\AppData\Local\Temp\ccQ3AEax.s 			page 61


 3363              		@ frame_needed = 0, uses_anonymous_args = 0
 3364              	.LVL358:
 3365 0d80 00B5     		push	{lr}
 3366              		.cfi_def_cfa_offset 4
 3367              		.cfi_offset 14, -4
 3368 0d82 87B0     		sub	sp, sp, #28
 3369              		.cfi_def_cfa_offset 32
 3370              	.LVL359:
 3371              		.loc 1 1294 0
 3372 0d84 06AA     		add	r2, sp, #24
 3373 0d86 02F8040D 		strb	r0, [r2, #-4]!
 3374              		.loc 1 1295 0
 3375 0d8a 0023     		movs	r3, #0
 3376 0d8c 0293     		str	r3, [sp, #8]
 3377 0d8e 0193     		str	r3, [sp, #4]
 3378 0d90 0093     		str	r3, [sp]
 3379 0d92 0423     		movs	r3, #4
 3380 0d94 1721     		movs	r1, #23
 3381 0d96 0120     		movs	r0, #1
 3382              	.LVL360:
 3383 0d98 FFF7FEFF 		bl	hif_send
 3384              	.LVL361:
 3385              		.loc 1 1297 0
 3386 0d9c 07B0     		add	sp, sp, #28
 3387              		.cfi_def_cfa_offset 4
 3388              		@ sp needed
 3389 0d9e 5DF804FB 		ldr	pc, [sp], #4
 3390              		.cfi_endproc
 3391              	.LFE382:
 3392              		.size	m2m_wifi_set_tx_power, .-m2m_wifi_set_tx_power
 3393              		.align	1
 3394 0da2 00BFAFF3 		.p2align 4,,15
 3394      0080AFF3 
 3394      0080AFF3 
 3394      0080
 3395              		.global	m2m_wifi_enable_firmware_logs
 3396              		.syntax unified
 3397              		.thumb
 3398              		.thumb_func
 3399              		.fpu softvfp
 3400              		.type	m2m_wifi_enable_firmware_logs, %function
 3401              	m2m_wifi_enable_firmware_logs:
 3402              	.LFB383:
 3403              		.loc 1 1311 0
 3404              		.cfi_startproc
 3405              		@ args = 0, pretend = 0, frame = 8
 3406              		@ frame_needed = 0, uses_anonymous_args = 0
 3407              	.LVL362:
 3408 0db0 00B5     		push	{lr}
 3409              		.cfi_def_cfa_offset 4
 3410              		.cfi_offset 14, -4
 3411 0db2 87B0     		sub	sp, sp, #28
 3412              		.cfi_def_cfa_offset 32
 3413              	.LVL363:
 3414              		.loc 1 1314 0
 3415 0db4 06AA     		add	r2, sp, #24
 3416 0db6 02F8040D 		strb	r0, [r2, #-4]!
ARM GAS  C:\Users\RAKIBU~1\AppData\Local\Temp\ccQ3AEax.s 			page 62


 3417              		.loc 1 1315 0
 3418 0dba 0023     		movs	r3, #0
 3419 0dbc 0293     		str	r3, [sp, #8]
 3420 0dbe 0193     		str	r3, [sp, #4]
 3421 0dc0 0093     		str	r3, [sp]
 3422 0dc2 0423     		movs	r3, #4
 3423 0dc4 1921     		movs	r1, #25
 3424 0dc6 0120     		movs	r0, #1
 3425              	.LVL364:
 3426 0dc8 FFF7FEFF 		bl	hif_send
 3427              	.LVL365:
 3428              		.loc 1 1317 0
 3429 0dcc 07B0     		add	sp, sp, #28
 3430              		.cfi_def_cfa_offset 4
 3431              		@ sp needed
 3432 0dce 5DF804FB 		ldr	pc, [sp], #4
 3433              		.cfi_endproc
 3434              	.LFE383:
 3435              		.size	m2m_wifi_enable_firmware_logs, .-m2m_wifi_enable_firmware_logs
 3436              		.align	1
 3437 0dd2 00BFAFF3 		.p2align 4,,15
 3437      0080AFF3 
 3437      0080AFF3 
 3437      0080
 3438              		.global	m2m_wifi_set_battery_voltage
 3439              		.syntax unified
 3440              		.thumb
 3441              		.thumb_func
 3442              		.fpu softvfp
 3443              		.type	m2m_wifi_set_battery_voltage, %function
 3444              	m2m_wifi_set_battery_voltage:
 3445              	.LFB384:
 3446              		.loc 1 1331 0
 3447              		.cfi_startproc
 3448              		@ args = 0, pretend = 0, frame = 8
 3449              		@ frame_needed = 0, uses_anonymous_args = 0
 3450              	.LVL366:
 3451 0de0 00B5     		push	{lr}
 3452              		.cfi_def_cfa_offset 4
 3453              		.cfi_offset 14, -4
 3454 0de2 87B0     		sub	sp, sp, #28
 3455              		.cfi_def_cfa_offset 32
 3456              	.LVL367:
 3457              		.loc 1 1333 0
 3458 0de4 0023     		movs	r3, #0
 3459 0de6 ADF81630 		strh	r3, [sp, #22]	@ movhi
 3460              		.loc 1 1334 0
 3461 0dea 06AA     		add	r2, sp, #24
 3462 0dec 22F8040D 		strh	r0, [r2, #-4]!	@ movhi
 3463              		.loc 1 1335 0
 3464 0df0 0293     		str	r3, [sp, #8]
 3465 0df2 0193     		str	r3, [sp, #4]
 3466 0df4 0093     		str	r3, [sp]
 3467 0df6 0423     		movs	r3, #4
 3468 0df8 1821     		movs	r1, #24
 3469 0dfa 0120     		movs	r0, #1
 3470              	.LVL368:
ARM GAS  C:\Users\RAKIBU~1\AppData\Local\Temp\ccQ3AEax.s 			page 63


 3471 0dfc FFF7FEFF 		bl	hif_send
 3472              	.LVL369:
 3473              		.loc 1 1337 0
 3474 0e00 07B0     		add	sp, sp, #28
 3475              		.cfi_def_cfa_offset 4
 3476              		@ sp needed
 3477 0e02 5DF804FB 		ldr	pc, [sp], #4
 3478              		.cfi_endproc
 3479              	.LFE384:
 3480              		.size	m2m_wifi_set_battery_voltage, .-m2m_wifi_set_battery_voltage
 3481              		.align	1
 3482 0e06 00BFAFF3 		.p2align 4,,15
 3482      0080AFF3 
 3482      0080
 3483              		.global	m2m_wifi_prng_get_random_bytes
 3484              		.syntax unified
 3485              		.thumb
 3486              		.thumb_func
 3487              		.fpu softvfp
 3488              		.type	m2m_wifi_prng_get_random_bytes, %function
 3489              	m2m_wifi_prng_get_random_bytes:
 3490              	.LFB385:
 3491              		.loc 1 1348 0
 3492              		.cfi_startproc
 3493              		@ args = 0, pretend = 0, frame = 8
 3494              		@ frame_needed = 0, uses_anonymous_args = 0
 3495              	.LVL370:
 3496 0e10 00B5     		push	{lr}
 3497              		.cfi_def_cfa_offset 4
 3498              		.cfi_offset 14, -4
 3499 0e12 87B0     		sub	sp, sp, #28
 3500              		.cfi_def_cfa_offset 32
 3501              	.LVL371:
 3502              		.loc 1 1350 0
 3503 0e14 0023     		movs	r3, #0
 3504 0e16 0593     		str	r3, [sp, #20]
 3505              		.loc 1 1351 0
 3506 0e18 40F23363 		movw	r3, #1587
 3507 0e1c 9942     		cmp	r1, r3
 3508 0e1e 11D8     		bhi	.L299
 3509              		.loc 1 1351 0 is_stmt 0 discriminator 1
 3510 0e20 98B1     		cbz	r0, .L300
 3511              		.loc 1 1353 0 is_stmt 1
 3512 0e22 ADF81410 		strh	r1, [sp, #20]	@ movhi
 3513              		.loc 1 1354 0
 3514 0e26 06AA     		add	r2, sp, #24
 3515 0e28 42F8080D 		str	r0, [r2, #-8]!
 3516              		.loc 1 1355 0
 3517 0e2c 0023     		movs	r3, #0
 3518 0e2e 0293     		str	r3, [sp, #8]
 3519 0e30 0193     		str	r3, [sp, #4]
 3520 0e32 0093     		str	r3, [sp]
 3521 0e34 0823     		movs	r3, #8
 3522 0e36 9F21     		movs	r1, #159
 3523              	.LVL372:
 3524 0e38 0120     		movs	r0, #1
 3525              	.LVL373:
ARM GAS  C:\Users\RAKIBU~1\AppData\Local\Temp\ccQ3AEax.s 			page 64


 3526 0e3a FFF7FEFF 		bl	hif_send
 3527              	.LVL374:
 3528              	.L298:
 3529              		.loc 1 1362 0
 3530 0e3e 07B0     		add	sp, sp, #28
 3531              		.cfi_remember_state
 3532              		.cfi_def_cfa_offset 4
 3533              		@ sp needed
 3534 0e40 5DF804FB 		ldr	pc, [sp], #4
 3535              	.LVL375:
 3536              	.L299:
 3537              		.cfi_restore_state
 3538              		.loc 1 1349 0
 3539 0e44 6FF00B00 		mvn	r0, #11
 3540              	.LVL376:
 3541 0e48 F9E7     		b	.L298
 3542              	.LVL377:
 3543              	.L300:
 3544 0e4a 6FF00B00 		mvn	r0, #11
 3545              	.LVL378:
 3546 0e4e F6E7     		b	.L298
 3547              		.cfi_endproc
 3548              	.LFE385:
 3549              		.size	m2m_wifi_prng_get_random_bytes, .-m2m_wifi_prng_get_random_bytes
 3550              		.bss
 3551              		.align	2
 3552              		.set	.LANCHOR0,. + 0
 3553              		.type	gpfAppWifiCb, %object
 3554              		.size	gpfAppWifiCb, 4
 3555              	gpfAppWifiCb:
 3556 0000 00000000 		.space	4
 3557              		.type	gu8scanInProgress, %object
 3558              		.size	gu8scanInProgress, 1
 3559              	gu8scanInProgress:
 3560 0004 00       		.space	1
 3561              		.type	gu8ChNum, %object
 3562              		.size	gu8ChNum, 1
 3563              	gu8ChNum:
 3564 0005 00       		.space	1
 3565              		.section	.rodata.str1.4,"aMS",%progbits,1
 3566              		.align	2
 3567              	.LC0:
 3568 0000 4669726D 		.ascii	"Firmware ver   : %u.%u.%u Svnrev %u\012\000"
 3568      77617265 
 3568      20766572 
 3568      2020203A 
 3568      2025752E 
 3569 0025 000000   		.space	3
 3570              	.LC1:
 3571 0028 4669726D 		.ascii	"Firmware Build %s Time %s\012\000"
 3571      77617265 
 3571      20427569 
 3571      6C642025 
 3571      73205469 
 3572 0043 00       		.space	1
 3573              	.LC2:
 3574 0044 4669726D 		.ascii	"Firmware Min driver ver : %u.%u.%u\012\000"
ARM GAS  C:\Users\RAKIBU~1\AppData\Local\Temp\ccQ3AEax.s 			page 65


 3574      77617265 
 3574      204D696E 
 3574      20647269 
 3574      76657220 
 3575              	.LC3:
 3576 0068 44726976 		.ascii	"Driver ver: %u.%u.%u\012\000"
 3576      65722076 
 3576      65723A20 
 3576      25752E25 
 3576      752E2575 
 3577 007e 0000     		.space	2
 3578              	.LC4:
 3579 0080 31303A35 		.ascii	"10:50:00\000"
 3579      303A3030 
 3579      00
 3580 0089 000000   		.space	3
 3581              	.LC5:
 3582 008c 4E6F7620 		.ascii	"Nov  9 2020\000"
 3582      20392032 
 3582      30323000 
 3583              	.LC6:
 3584 0098 44726976 		.ascii	"Driver built at %s\011%s\012\000"
 3584      65722062 
 3584      75696C74 
 3584      20617420 
 3584      25730925 
 3585              		.text
 3586              	.Letext0:
 3587              		.file 2 "c:\\chibistudio\\tools\\gnu tools arm embedded\\7.0 2017q4\\arm-none-eabi\\include\\machi
 3588              		.file 3 "c:\\chibistudio\\tools\\gnu tools arm embedded\\7.0 2017q4\\lib\\gcc\\arm-none-eabi\\7.2.
 3589              		.file 4 "c:\\chibistudio\\tools\\gnu tools arm embedded\\7.0 2017q4\\arm-none-eabi\\include\\sys\\
 3590              		.file 5 "c:\\chibistudio\\tools\\gnu tools arm embedded\\7.0 2017q4\\arm-none-eabi\\include\\sys\\
 3591              		.file 6 "c:\\chibistudio\\tools\\gnu tools arm embedded\\7.0 2017q4\\arm-none-eabi\\include\\sys\\
 3592              		.file 7 "c:\\chibistudio\\tools\\gnu tools arm embedded\\7.0 2017q4\\arm-none-eabi\\include\\sys\\
 3593              		.file 8 "./winc1500/bsp/include/nm_bsp.h"
 3594              		.file 9 "c:\\chibistudio\\tools\\gnu tools arm embedded\\7.0 2017q4\\arm-none-eabi\\include\\stdin
 3595              		.file 10 "../../../ChibiOSRepo/chibios191/os/common/ports/ARMCMx/compilers/GCC/chtypes.h"
 3596              		.file 11 "../../../ChibiOSRepo/chibios191/os/rt/include/chsystypes.h"
 3597              		.file 12 "../../../ChibiOSRepo/chibios191/os/rt/include/chschd.h"
 3598              		.file 13 "../../../ChibiOSRepo/chibios191/os/rt/include/chtime.h"
 3599              		.file 14 "../../../ChibiOSRepo/chibios191/os/common/ext/ARM/CMSIS/Core/Include/core_cm4.h"
 3600              		.file 15 "../../../ChibiOSRepo/chibios191/os/common/ext/ST/STM32F4xx/system_stm32f4xx.h"
 3601              		.file 16 "../../../ChibiOSRepo/chibios191/os/common/ext/ST/STM32F4xx/stm32f407xx.h"
 3602              		.file 17 "../../../ChibiOSRepo/chibios191/os/common/ports/ARMCMx/chcore.h"
 3603              		.file 18 "../../../ChibiOSRepo/chibios191/os/common/ports/ARMCMx/chcore_v7m.h"
 3604              		.file 19 "../../../ChibiOSRepo/chibios191/os/hal/ports/STM32/LLD/TIMv1/stm32_tim.h"
 3605              		.file 20 "../../../ChibiOSRepo/chibios191/os/rt/include/chtrace.h"
 3606              		.file 21 "../../../ChibiOSRepo/chibios191/os/rt/include/chtm.h"
 3607              		.file 22 "../../../ChibiOSRepo/chibios191/os/rt/include/chstats.h"
 3608              		.file 23 "../../../ChibiOSRepo/chibios191/os/rt/include/chsem.h"
 3609              		.file 24 "../../../ChibiOSRepo/chibios191/os/rt/include/chmtx.h"
 3610              		.file 25 "../../../ChibiOSRepo/chibios191/os/rt/include/chsys.h"
 3611              		.file 26 "../../../ChibiOSRepo/chibios191/os/rt/include/chregistry.h"
 3612              		.file 27 "../../../ChibiOSRepo/chibios191/os/rt/include/chevents.h"
 3613              		.file 28 "../../../ChibiOSRepo/chibios191/os/oslib/include/chmemcore.h"
 3614              		.file 29 "../../../ChibiOSRepo/chibios191/os/oslib/include/chmempools.h"
 3615              		.file 30 "../../../ChibiOSRepo/chibios191/os/oslib/include/chfactory.h"
ARM GAS  C:\Users\RAKIBU~1\AppData\Local\Temp\ccQ3AEax.s 			page 66


 3616              		.file 31 "../../../ChibiOSRepo/chibios191/os/hal/ports/STM32/LLD/DMAv2/stm32_dma.h"
 3617              		.file 32 "../../../ChibiOSRepo/chibios191/os/hal/include/hal_ioblock.h"
 3618              		.file 33 "../../../ChibiOSRepo/chibios191/os/hal/include/hal_persistent.h"
 3619              		.file 34 "../../../ChibiOSRepo/chibios191/os/hal/include/hal_queues.h"
 3620              		.file 35 "../../../ChibiOSRepo/chibios191/os/hal/include/hal_pal.h"
 3621              		.file 36 "../../../ChibiOSRepo/chibios191/os/hal/ports/STM32/LLD/GPIOv2/stm32_gpio.h"
 3622              		.file 37 "../../../ChibiOSRepo/chibios191/os/hal/ports/STM32/LLD/GPIOv2/hal_pal_lld.h"
 3623              		.file 38 "../../../ChibiOSRepo/chibios191/os/hal/include/hal_gpt.h"
 3624              		.file 39 "../../../ChibiOSRepo/chibios191/os/hal/ports/STM32/LLD/TIMv1/hal_gpt_lld.h"
 3625              		.file 40 "../../../ChibiOSRepo/chibios191/os/hal/include/hal_i2c.h"
 3626              		.file 41 "../../../ChibiOSRepo/chibios191/os/hal/ports/STM32/LLD/I2Cv1/hal_i2c_lld.h"
 3627              		.file 42 "c:\\chibistudio\\tools\\gnu tools arm embedded\\7.0 2017q4\\arm-none-eabi\\include\\time
 3628              		.file 43 "../../../ChibiOSRepo/chibios191/os/hal/include/hal_rtc.h"
 3629              		.file 44 "../../../ChibiOSRepo/chibios191/os/hal/ports/STM32/LLD/RTCv2/hal_rtc_lld.h"
 3630              		.file 45 "../../../ChibiOSRepo/chibios191/os/hal/include/hal_serial.h"
 3631              		.file 46 "../../../ChibiOSRepo/chibios191/os/hal/ports/STM32/LLD/USARTv1/hal_serial_lld.h"
 3632              		.file 47 "../../../ChibiOSRepo/chibios191/os/hal/include/hal_sdc.h"
 3633              		.file 48 "../../../ChibiOSRepo/chibios191/os/hal/ports/STM32/LLD/SDIOv1/hal_sdc_lld.h"
 3634              		.file 49 "../../../ChibiOSRepo/chibios191/os/hal/include/hal_spi.h"
 3635              		.file 50 "../../../ChibiOSRepo/chibios191/os/hal/ports/STM32/LLD/SPIv1/hal_spi_lld.h"
 3636              		.file 51 "./winc1500/driver/include/m2m_types.h"
 3637              		.file 52 "./winc1500/driver/source/nmdrv.h"
 3638              		.file 53 "./winc1500/driver/include/m2m_wifi.h"
 3639              		.file 54 "./winc1500/driver/source/m2m_hif.h"
 3640              		.file 55 "./winc1500/common/include/nm_common.h"
 3641              		.file 56 "./winc1500/driver/source/nmasic.h"