ARM GAS  C:\Users\RAKIBU~1\AppData\Local\Temp\ccHpOcqR.s 			page 1


   1              		.cpu cortex-m4
   2              		.eabi_attribute 20, 1
   3              		.eabi_attribute 21, 1
   4              		.eabi_attribute 23, 3
   5              		.eabi_attribute 24, 1
   6              		.eabi_attribute 25, 1
   7              		.eabi_attribute 26, 1
   8              		.eabi_attribute 30, 1
   9              		.eabi_attribute 34, 1
  10              		.eabi_attribute 18, 4
  11              		.file	"m2m_ssl.c"
  12              		.text
  13              	.Ltext0:
  14              		.cfi_sections	.debug_frame
  15              		.align	1
  16              		.p2align 4,,15
  17              		.syntax unified
  18              		.thumb
  19              		.thumb_func
  20              		.fpu softvfp
  21              		.type	m2m_ssl_cb, %function
  22              	m2m_ssl_cb:
  23              	.LFB328:
  24              		.file 1 "./winc1500/driver/source/m2m_ssl.c"
  25              		.loc 1 75 0
  26              		.cfi_startproc
  27              		@ args = 0, pretend = 0, frame = 112
  28              		@ frame_needed = 0, uses_anonymous_args = 0
  29              	.LVL0:
  30 0000 10B5     		push	{r4, lr}
  31              		.cfi_def_cfa_offset 8
  32              		.cfi_offset 4, -8
  33              		.cfi_offset 14, -4
  34 0002 9CB0     		sub	sp, sp, #112
  35              		.cfi_def_cfa_offset 120
  36 0004 1446     		mov	r4, r2
  37              	.LVL1:
  38              		.loc 1 77 0
  39 0006 0128     		cmp	r0, #1
  40 0008 03D0     		beq	.L3
  41 000a 0628     		cmp	r0, #6
  42 000c 14D0     		beq	.L4
  43              	.LVL2:
  44              	.L1:
  45              		.loc 1 109 0
  46 000e 1CB0     		add	sp, sp, #112
  47              		.cfi_remember_state
  48              		.cfi_def_cfa_offset 8
  49              		@ sp needed
  50 0010 10BD     		pop	{r4, pc}
  51              	.LVL3:
  52              	.L3:
  53              		.cfi_restore_state
  54              	.LBB2:
  55              		.loc 1 82 0
  56 0012 0023     		movs	r3, #0
  57 0014 7022     		movs	r2, #112
ARM GAS  C:\Users\RAKIBU~1\AppData\Local\Temp\ccHpOcqR.s 			page 2


  58              	.LVL4:
  59 0016 6946     		mov	r1, sp
  60              	.LVL5:
  61 0018 2046     		mov	r0, r4
  62              	.LVL6:
  63 001a FFF7FEFF 		bl	hif_receive
  64              	.LVL7:
  65              		.loc 1 83 0
  66 001e 0028     		cmp	r0, #0
  67 0020 F5D1     		bne	.L1
  68              		.loc 1 85 0
  69 0022 0D4B     		ldr	r3, .L8
  70 0024 1B68     		ldr	r3, [r3]
  71 0026 002B     		cmp	r3, #0
  72 0028 F1D0     		beq	.L1
  73              		.loc 1 87 0
  74 002a 7034     		adds	r4, r4, #112
  75              	.LVL8:
  76 002c 0A4A     		ldr	r2, .L8
  77 002e 5460     		str	r4, [r2, #4]
  78              		.loc 1 88 0
  79 0030 6946     		mov	r1, sp
  80 0032 0120     		movs	r0, #1
  81              	.LVL9:
  82 0034 9847     		blx	r3
  83              	.LVL10:
  84              	.LBE2:
  85              		.loc 1 92 0
  86 0036 EAE7     		b	.L1
  87              	.LVL11:
  88              	.L4:
  89              	.LBB3:
  90              		.loc 1 96 0
  91 0038 0023     		movs	r3, #0
  92 003a 0422     		movs	r2, #4
  93              	.LVL12:
  94 003c 6946     		mov	r1, sp
  95              	.LVL13:
  96 003e 2046     		mov	r0, r4
  97              	.LVL14:
  98 0040 FFF7FEFF 		bl	hif_receive
  99              	.LVL15:
 100              		.loc 1 97 0
 101 0044 0028     		cmp	r0, #0
 102 0046 E2D1     		bne	.L1
 103              		.loc 1 99 0
 104 0048 034B     		ldr	r3, .L8
 105 004a 1B68     		ldr	r3, [r3]
 106 004c 002B     		cmp	r3, #0
 107 004e DED0     		beq	.L1
 108              		.loc 1 100 0
 109 0050 6946     		mov	r1, sp
 110 0052 0620     		movs	r0, #6
 111              	.LVL16:
 112 0054 9847     		blx	r3
 113              	.LVL17:
 114              	.LBE3:
ARM GAS  C:\Users\RAKIBU~1\AppData\Local\Temp\ccHpOcqR.s 			page 3


 115              		.loc 1 109 0
 116 0056 DAE7     		b	.L1
 117              	.L9:
 118              		.align	2
 119              	.L8:
 120 0058 00000000 		.word	.LANCHOR0
 121              		.cfi_endproc
 122              	.LFE328:
 123              		.size	m2m_ssl_cb, .-m2m_ssl_cb
 124              		.align	1
 125 005c AFF30080 		.p2align 4,,15
 126              		.global	m2m_ssl_handshake_rsp
 127              		.syntax unified
 128              		.thumb
 129              		.thumb_func
 130              		.fpu softvfp
 131              		.type	m2m_ssl_handshake_rsp, %function
 132              	m2m_ssl_handshake_rsp:
 133              	.LFB329:
 134              		.loc 1 124 0
 135              		.cfi_startproc
 136              		@ args = 0, pretend = 0, frame = 0
 137              		@ frame_needed = 0, uses_anonymous_args = 0
 138              	.LVL18:
 139 0060 00B5     		push	{lr}
 140              		.cfi_def_cfa_offset 4
 141              		.cfi_offset 14, -4
 142 0062 85B0     		sub	sp, sp, #20
 143              		.cfi_def_cfa_offset 24
 144              	.LVL19:
 145              		.loc 1 127 0
 146 0064 7023     		movs	r3, #112
 147 0066 0293     		str	r3, [sp, #8]
 148 0068 0192     		str	r2, [sp, #4]
 149 006a 0091     		str	r1, [sp]
 150 006c 0246     		mov	r2, r0
 151              	.LVL20:
 152 006e 8221     		movs	r1, #130
 153              	.LVL21:
 154 0070 0520     		movs	r0, #5
 155              	.LVL22:
 156 0072 FFF7FEFF 		bl	hif_send
 157              	.LVL23:
 158              		.loc 1 130 0
 159 0076 05B0     		add	sp, sp, #20
 160              		.cfi_def_cfa_offset 4
 161              		@ sp needed
 162 0078 5DF804FB 		ldr	pc, [sp], #4
 163              		.cfi_endproc
 164              	.LFE329:
 165              		.size	m2m_ssl_handshake_rsp, .-m2m_ssl_handshake_rsp
 166              		.align	1
 167 007c AFF30080 		.p2align 4,,15
 168              		.global	m2m_ssl_send_certs_to_winc
 169              		.syntax unified
 170              		.thumb
 171              		.thumb_func
ARM GAS  C:\Users\RAKIBU~1\AppData\Local\Temp\ccHpOcqR.s 			page 4


 172              		.fpu softvfp
 173              		.type	m2m_ssl_send_certs_to_winc, %function
 174              	m2m_ssl_send_certs_to_winc:
 175              	.LFB330:
 176              		.loc 1 142 0
 177              		.cfi_startproc
 178              		@ args = 0, pretend = 0, frame = 0
 179              		@ frame_needed = 0, uses_anonymous_args = 0
 180              	.LVL24:
 181 0080 00B5     		push	{lr}
 182              		.cfi_def_cfa_offset 4
 183              		.cfi_offset 14, -4
 184 0082 85B0     		sub	sp, sp, #20
 185              		.cfi_def_cfa_offset 24
 186              	.LVL25:
 187              		.loc 1 145 0
 188 0084 89B2     		uxth	r1, r1
 189              	.LVL26:
 190 0086 0022     		movs	r2, #0
 191 0088 0292     		str	r2, [sp, #8]
 192 008a 0191     		str	r1, [sp, #4]
 193 008c 0090     		str	r0, [sp]
 194 008e 1346     		mov	r3, r2
 195 0090 8421     		movs	r1, #132
 196 0092 0520     		movs	r0, #5
 197              	.LVL27:
 198 0094 FFF7FEFF 		bl	hif_send
 199              	.LVL28:
 200              		.loc 1 148 0
 201 0098 05B0     		add	sp, sp, #20
 202              		.cfi_def_cfa_offset 4
 203              		@ sp needed
 204 009a 5DF804FB 		ldr	pc, [sp], #4
 205              		.cfi_endproc
 206              	.LFE330:
 207              		.size	m2m_ssl_send_certs_to_winc, .-m2m_ssl_send_certs_to_winc
 208              		.align	1
 209 009e 00BF     		.p2align 4,,15
 210              		.global	m2m_ssl_retrieve_cert
 211              		.syntax unified
 212              		.thumb
 213              		.thumb_func
 214              		.fpu softvfp
 215              		.type	m2m_ssl_retrieve_cert, %function
 216              	m2m_ssl_retrieve_cert:
 217              	.LFB331:
 218              		.loc 1 164 0
 219              		.cfi_startproc
 220              		@ args = 0, pretend = 0, frame = 8
 221              		@ frame_needed = 0, uses_anonymous_args = 0
 222              	.LVL29:
 223 00a0 F0B5     		push	{r4, r5, r6, r7, lr}
 224              		.cfi_def_cfa_offset 20
 225              		.cfi_offset 4, -20
 226              		.cfi_offset 5, -16
 227              		.cfi_offset 6, -12
 228              		.cfi_offset 7, -8
ARM GAS  C:\Users\RAKIBU~1\AppData\Local\Temp\ccHpOcqR.s 			page 5


 229              		.cfi_offset 14, -4
 230 00a2 83B0     		sub	sp, sp, #12
 231              		.cfi_def_cfa_offset 32
 232 00a4 8446     		mov	ip, r0
 233              	.LVL30:
 234              		.loc 1 169 0
 235 00a6 434C     		ldr	r4, .L19
 236 00a8 6068     		ldr	r0, [r4, #4]
 237              	.LVL31:
 238 00aa 0028     		cmp	r0, #0
 239 00ac 7FD0     		beq	.L17
 240 00ae 1D46     		mov	r5, r3
 241 00b0 1746     		mov	r7, r2
 242 00b2 0E46     		mov	r6, r1
 243 00b4 6446     		mov	r4, ip
 244              		.loc 1 171 0
 245 00b6 0023     		movs	r3, #0
 246              	.LVL32:
 247 00b8 0222     		movs	r2, #2
 248              	.LVL33:
 249 00ba 6146     		mov	r1, ip
 250              	.LVL34:
 251 00bc FFF7FEFF 		bl	hif_receive
 252              	.LVL35:
 253 00c0 0028     		cmp	r0, #0
 254 00c2 6BD1     		bne	.L16
 255              		.loc 1 172 0
 256 00c4 3B4B     		ldr	r3, .L19
 257 00c6 5868     		ldr	r0, [r3, #4]
 258 00c8 0230     		adds	r0, r0, #2
 259 00ca 5860     		str	r0, [r3, #4]
 260              		.loc 1 174 0
 261 00cc 0023     		movs	r3, #0
 262 00ce 0222     		movs	r2, #2
 263 00d0 0DEB0201 		add	r1, sp, r2
 264 00d4 FFF7FEFF 		bl	hif_receive
 265              	.LVL36:
 266 00d8 0028     		cmp	r0, #0
 267 00da 5FD1     		bne	.L16
 268              		.loc 1 175 0
 269 00dc 354B     		ldr	r3, .L19
 270 00de 5868     		ldr	r0, [r3, #4]
 271 00e0 0230     		adds	r0, r0, #2
 272 00e2 5860     		str	r0, [r3, #4]
 273              		.loc 1 177 0
 274 00e4 0023     		movs	r3, #0
 275 00e6 0222     		movs	r2, #2
 276 00e8 0DF10601 		add	r1, sp, #6
 277 00ec FFF7FEFF 		bl	hif_receive
 278              	.LVL37:
 279 00f0 0028     		cmp	r0, #0
 280 00f2 53D1     		bne	.L16
 281              		.loc 1 178 0
 282 00f4 2F4B     		ldr	r3, .L19
 283 00f6 5868     		ldr	r0, [r3, #4]
 284 00f8 0230     		adds	r0, r0, #2
 285 00fa 5860     		str	r0, [r3, #4]
ARM GAS  C:\Users\RAKIBU~1\AppData\Local\Temp\ccHpOcqR.s 			page 6


 286              		.loc 1 180 0
 287 00fc 0023     		movs	r3, #0
 288 00fe 0222     		movs	r2, #2
 289 0100 01A9     		add	r1, sp, #4
 290 0102 FFF7FEFF 		bl	hif_receive
 291              	.LVL38:
 292 0106 0028     		cmp	r0, #0
 293 0108 48D1     		bne	.L16
 294              		.loc 1 181 0
 295 010a 2A4B     		ldr	r3, .L19
 296 010c 5868     		ldr	r0, [r3, #4]
 297 010e 0230     		adds	r0, r0, #2
 298 0110 5860     		str	r0, [r3, #4]
 299              		.loc 1 183 0
 300 0112 2288     		ldrh	r2, [r4]
 301 0114 130A     		lsrs	r3, r2, #8
 302 0116 43EA0223 		orr	r3, r3, r2, lsl #8
 303 011a 2380     		strh	r3, [r4]	@ movhi
 304              		.loc 1 184 0
 305 011c BDF80220 		ldrh	r2, [sp, #2]
 306 0120 140A     		lsrs	r4, r2, #8
 307              	.LVL39:
 308 0122 44EA0224 		orr	r4, r4, r2, lsl #8
 309 0126 A4B2     		uxth	r4, r4
 310 0128 A5F84040 		strh	r4, [r5, #64]	@ movhi
 311              		.loc 1 185 0
 312 012c BDF80620 		ldrh	r2, [sp, #6]
 313 0130 130A     		lsrs	r3, r2, #8
 314 0132 43EA0223 		orr	r3, r3, r2, lsl #8
 315 0136 ADF80630 		strh	r3, [sp, #6]	@ movhi
 316              		.loc 1 186 0
 317 013a BDF80420 		ldrh	r2, [sp, #4]
 318 013e 130A     		lsrs	r3, r2, #8
 319 0140 43EA0223 		orr	r3, r3, r2, lsl #8
 320 0144 ADF80430 		strh	r3, [sp, #4]	@ movhi
 321              		.loc 1 188 0
 322 0148 6400     		lsls	r4, r4, #1
 323 014a A2B2     		uxth	r2, r4
 324 014c 0023     		movs	r3, #0
 325 014e 2946     		mov	r1, r5
 326 0150 FFF7FEFF 		bl	hif_receive
 327              	.LVL40:
 328 0154 10BB     		cbnz	r0, .L16
 329              		.loc 1 189 0
 330 0156 B5F84020 		ldrh	r2, [r5, #64]
 331 015a 164B     		ldr	r3, .L19
 332 015c 5868     		ldr	r0, [r3, #4]
 333 015e 00EB4200 		add	r0, r0, r2, lsl #1
 334 0162 5860     		str	r0, [r3, #4]
 335              		.loc 1 191 0
 336 0164 0023     		movs	r3, #0
 337 0166 BDF80620 		ldrh	r2, [sp, #6]
 338 016a 3146     		mov	r1, r6
 339 016c FFF7FEFF 		bl	hif_receive
 340              	.LVL41:
 341 0170 A0B9     		cbnz	r0, .L16
 342              		.loc 1 192 0
ARM GAS  C:\Users\RAKIBU~1\AppData\Local\Temp\ccHpOcqR.s 			page 7


 343 0172 BDF80600 		ldrh	r0, [sp, #6]
 344 0176 0F4B     		ldr	r3, .L19
 345 0178 5A68     		ldr	r2, [r3, #4]
 346 017a 1044     		add	r0, r0, r2
 347 017c 5860     		str	r0, [r3, #4]
 348              		.loc 1 194 0
 349 017e 0023     		movs	r3, #0
 350 0180 BDF80420 		ldrh	r2, [sp, #4]
 351 0184 3946     		mov	r1, r7
 352 0186 FFF7FEFF 		bl	hif_receive
 353              	.LVL42:
 354 018a 38B9     		cbnz	r0, .L16
 355              		.loc 1 195 0
 356 018c 094A     		ldr	r2, .L19
 357 018e BDF80430 		ldrh	r3, [sp, #4]
 358 0192 5168     		ldr	r1, [r2, #4]
 359 0194 0B44     		add	r3, r3, r1
 360 0196 5360     		str	r3, [r2, #4]
 361              	.LVL43:
 362              	.L15:
 363              		.loc 1 206 0
 364 0198 03B0     		add	sp, sp, #12
 365              		.cfi_remember_state
 366              		.cfi_def_cfa_offset 20
 367              		@ sp needed
 368 019a F0BD     		pop	{r4, r5, r6, r7, pc}
 369              	.LVL44:
 370              	.L16:
 371              		.cfi_restore_state
 372              		.loc 1 203 0
 373 019c 0123     		movs	r3, #1
 374 019e 0022     		movs	r2, #0
 375 01a0 1146     		mov	r1, r2
 376 01a2 1046     		mov	r0, r2
 377 01a4 FFF7FEFF 		bl	hif_receive
 378              	.LVL45:
 379              		.loc 1 202 0
 380 01a8 6FF00B00 		mvn	r0, #11
 381 01ac F4E7     		b	.L15
 382              	.LVL46:
 383              	.L17:
 384              		.loc 1 169 0
 385 01ae 6FF00B00 		mvn	r0, #11
 386 01b2 F1E7     		b	.L15
 387              	.L20:
 388              		.align	2
 389              	.L19:
 390 01b4 00000000 		.word	.LANCHOR0
 391              		.cfi_endproc
 392              	.LFE331:
 393              		.size	m2m_ssl_retrieve_cert, .-m2m_ssl_retrieve_cert
 394              		.align	1
 395 01b8 AFF30080 		.p2align 4,,15
 395      AFF30080 
 396              		.global	m2m_ssl_retrieve_hash
 397              		.syntax unified
 398              		.thumb
ARM GAS  C:\Users\RAKIBU~1\AppData\Local\Temp\ccHpOcqR.s 			page 8


 399              		.thumb_func
 400              		.fpu softvfp
 401              		.type	m2m_ssl_retrieve_hash, %function
 402              	m2m_ssl_retrieve_hash:
 403              	.LFB332:
 404              		.loc 1 218 0
 405              		.cfi_startproc
 406              		@ args = 0, pretend = 0, frame = 0
 407              		@ frame_needed = 0, uses_anonymous_args = 0
 408              	.LVL47:
 409 01c0 10B5     		push	{r4, lr}
 410              		.cfi_def_cfa_offset 8
 411              		.cfi_offset 4, -8
 412              		.cfi_offset 14, -4
 413              	.LVL48:
 414              		.loc 1 222 0
 415 01c2 0C4B     		ldr	r3, .L27
 416 01c4 5C68     		ldr	r4, [r3, #4]
 417 01c6 8CB1     		cbz	r4, .L23
 418 01c8 0A46     		mov	r2, r1
 419 01ca 0146     		mov	r1, r0
 420              	.LVL49:
 421              		.loc 1 224 0
 422 01cc 0023     		movs	r3, #0
 423 01ce 2046     		mov	r0, r4
 424              	.LVL50:
 425 01d0 FFF7FEFF 		bl	hif_receive
 426              	.LVL51:
 427 01d4 08B9     		cbnz	r0, .L26
 428              		.loc 1 220 0
 429 01d6 0020     		movs	r0, #0
 430              	.LVL52:
 431              	.L22:
 432              		.loc 1 235 0
 433 01d8 10BD     		pop	{r4, pc}
 434              	.LVL53:
 435              	.L26:
 436              		.loc 1 232 0
 437 01da 0123     		movs	r3, #1
 438 01dc 0022     		movs	r2, #0
 439 01de 1146     		mov	r1, r2
 440 01e0 1046     		mov	r0, r2
 441 01e2 FFF7FEFF 		bl	hif_receive
 442              	.LVL54:
 443              		.loc 1 231 0
 444 01e6 6FF00B00 		mvn	r0, #11
 445 01ea F5E7     		b	.L22
 446              	.LVL55:
 447              	.L23:
 448              		.loc 1 222 0
 449 01ec 6FF00B00 		mvn	r0, #11
 450              	.LVL56:
 451 01f0 F2E7     		b	.L22
 452              	.L28:
 453 01f2 00BF     		.align	2
 454              	.L27:
 455 01f4 00000000 		.word	.LANCHOR0
ARM GAS  C:\Users\RAKIBU~1\AppData\Local\Temp\ccHpOcqR.s 			page 9


 456              		.cfi_endproc
 457              	.LFE332:
 458              		.size	m2m_ssl_retrieve_hash, .-m2m_ssl_retrieve_hash
 459              		.align	1
 460 01f8 AFF30080 		.p2align 4,,15
 460      AFF30080 
 461              		.global	m2m_ssl_stop_processing_certs
 462              		.syntax unified
 463              		.thumb
 464              		.thumb_func
 465              		.fpu softvfp
 466              		.type	m2m_ssl_stop_processing_certs, %function
 467              	m2m_ssl_stop_processing_certs:
 468              	.LFB333:
 469              		.loc 1 242 0
 470              		.cfi_startproc
 471              		@ args = 0, pretend = 0, frame = 0
 472              		@ frame_needed = 0, uses_anonymous_args = 0
 473 0200 08B5     		push	{r3, lr}
 474              		.cfi_def_cfa_offset 8
 475              		.cfi_offset 3, -8
 476              		.cfi_offset 14, -4
 477              		.loc 1 243 0
 478 0202 0123     		movs	r3, #1
 479 0204 0022     		movs	r2, #0
 480 0206 1146     		mov	r1, r2
 481 0208 1046     		mov	r0, r2
 482 020a FFF7FEFF 		bl	hif_receive
 483              	.LVL57:
 484              		.loc 1 244 0
 485 020e 08BD     		pop	{r3, pc}
 486              		.cfi_endproc
 487              	.LFE333:
 488              		.size	m2m_ssl_stop_processing_certs, .-m2m_ssl_stop_processing_certs
 489              		.align	1
 490              		.p2align 4,,15
 491              		.global	m2m_ssl_ecc_process_done
 492              		.syntax unified
 493              		.thumb
 494              		.thumb_func
 495              		.fpu softvfp
 496              		.type	m2m_ssl_ecc_process_done, %function
 497              	m2m_ssl_ecc_process_done:
 498              	.LFB334:
 499              		.loc 1 251 0
 500              		.cfi_startproc
 501              		@ args = 0, pretend = 0, frame = 0
 502              		@ frame_needed = 0, uses_anonymous_args = 0
 503              		@ link register save eliminated.
 504              		.loc 1 252 0
 505 0210 014B     		ldr	r3, .L32
 506 0212 0022     		movs	r2, #0
 507 0214 5A60     		str	r2, [r3, #4]
 508              		.loc 1 253 0
 509 0216 7047     		bx	lr
 510              	.L33:
 511              		.align	2
ARM GAS  C:\Users\RAKIBU~1\AppData\Local\Temp\ccHpOcqR.s 			page 10


 512              	.L32:
 513 0218 00000000 		.word	.LANCHOR0
 514              		.cfi_endproc
 515              	.LFE334:
 516              		.size	m2m_ssl_ecc_process_done, .-m2m_ssl_ecc_process_done
 517              		.align	1
 518 021c AFF30080 		.p2align 4,,15
 519              		.global	m2m_ssl_set_active_ciphersuites
 520              		.syntax unified
 521              		.thumb
 522              		.thumb_func
 523              		.fpu softvfp
 524              		.type	m2m_ssl_set_active_ciphersuites, %function
 525              	m2m_ssl_set_active_ciphersuites:
 526              	.LFB335:
 527              		.loc 1 276 0
 528              		.cfi_startproc
 529              		@ args = 0, pretend = 0, frame = 8
 530              		@ frame_needed = 0, uses_anonymous_args = 0
 531              	.LVL58:
 532 0220 00B5     		push	{lr}
 533              		.cfi_def_cfa_offset 4
 534              		.cfi_offset 14, -4
 535 0222 87B0     		sub	sp, sp, #28
 536              		.cfi_def_cfa_offset 32
 537              	.LVL59:
 538              		.loc 1 280 0
 539 0224 06AA     		add	r2, sp, #24
 540 0226 42F8040D 		str	r0, [r2, #-4]!
 541              		.loc 1 281 0
 542 022a 0023     		movs	r3, #0
 543 022c 0293     		str	r3, [sp, #8]
 544 022e 0193     		str	r3, [sp, #4]
 545 0230 0093     		str	r3, [sp]
 546 0232 0423     		movs	r3, #4
 547 0234 0521     		movs	r1, #5
 548 0236 0846     		mov	r0, r1
 549              	.LVL60:
 550 0238 FFF7FEFF 		bl	hif_send
 551              	.LVL61:
 552              		.loc 1 284 0
 553 023c 07B0     		add	sp, sp, #28
 554              		.cfi_def_cfa_offset 4
 555              		@ sp needed
 556 023e 5DF804FB 		ldr	pc, [sp], #4
 557              		.cfi_endproc
 558              	.LFE335:
 559              		.size	m2m_ssl_set_active_ciphersuites, .-m2m_ssl_set_active_ciphersuites
 560              		.align	1
 561 0242 00BFAFF3 		.p2align 4,,15
 561      0080AFF3 
 561      0080AFF3 
 561      0080
 562              		.global	m2m_ssl_init
 563              		.syntax unified
 564              		.thumb
 565              		.thumb_func
ARM GAS  C:\Users\RAKIBU~1\AppData\Local\Temp\ccHpOcqR.s 			page 11


 566              		.fpu softvfp
 567              		.type	m2m_ssl_init, %function
 568              	m2m_ssl_init:
 569              	.LFB336:
 570              		.loc 1 294 0
 571              		.cfi_startproc
 572              		@ args = 0, pretend = 0, frame = 0
 573              		@ frame_needed = 0, uses_anonymous_args = 0
 574              	.LVL62:
 575 0250 08B5     		push	{r3, lr}
 576              		.cfi_def_cfa_offset 8
 577              		.cfi_offset 3, -8
 578              		.cfi_offset 14, -4
 579              	.LVL63:
 580              		.loc 1 297 0
 581 0252 044B     		ldr	r3, .L38
 582 0254 1860     		str	r0, [r3]
 583              		.loc 1 298 0
 584 0256 0022     		movs	r2, #0
 585 0258 5A60     		str	r2, [r3, #4]
 586              		.loc 1 300 0
 587 025a 0349     		ldr	r1, .L38+4
 588 025c 0520     		movs	r0, #5
 589              	.LVL64:
 590 025e FFF7FEFF 		bl	hif_register_cb
 591              	.LVL65:
 592              		.loc 1 306 0
 593 0262 08BD     		pop	{r3, pc}
 594              	.L39:
 595              		.align	2
 596              	.L38:
 597 0264 00000000 		.word	.LANCHOR0
 598 0268 00000000 		.word	m2m_ssl_cb
 599              		.cfi_endproc
 600              	.LFE336:
 601              		.size	m2m_ssl_init, .-m2m_ssl_init
 602              		.bss
 603              		.align	2
 604              		.set	.LANCHOR0,. + 0
 605              		.type	gpfAppSSLCb, %object
 606              		.size	gpfAppSSLCb, 4
 607              	gpfAppSSLCb:
 608 0000 00000000 		.space	4
 609              		.type	gu32HIFAddr, %object
 610              		.size	gu32HIFAddr, 4
 611              	gu32HIFAddr:
 612 0004 00000000 		.space	4
 613              		.text
 614              	.Letext0:
 615              		.file 2 "./winc1500/bsp/include/nm_bsp.h"
 616              		.file 3 "c:\\chibistudio\\tools\\gnu tools arm embedded\\7.0 2017q4\\lib\\gcc\\arm-none-eabi\\7.2.
 617              		.file 4 "c:\\chibistudio\\tools\\gnu tools arm embedded\\7.0 2017q4\\arm-none-eabi\\include\\machi
 618              		.file 5 "c:\\chibistudio\\tools\\gnu tools arm embedded\\7.0 2017q4\\arm-none-eabi\\include\\sys\\
 619              		.file 6 "c:\\chibistudio\\tools\\gnu tools arm embedded\\7.0 2017q4\\arm-none-eabi\\include\\stdin
 620              		.file 7 "../../../ChibiOSRepo/chibios191/os/common/ports/ARMCMx/compilers/GCC/chtypes.h"
 621              		.file 8 "../../../ChibiOSRepo/chibios191/os/rt/include/chsystypes.h"
 622              		.file 9 "../../../ChibiOSRepo/chibios191/os/rt/include/chschd.h"
ARM GAS  C:\Users\RAKIBU~1\AppData\Local\Temp\ccHpOcqR.s 			page 12


 623              		.file 10 "../../../ChibiOSRepo/chibios191/os/rt/include/chtime.h"
 624              		.file 11 "../../../ChibiOSRepo/chibios191/os/common/ext/ARM/CMSIS/Core/Include/core_cm4.h"
 625              		.file 12 "../../../ChibiOSRepo/chibios191/os/common/ext/ST/STM32F4xx/system_stm32f4xx.h"
 626              		.file 13 "../../../ChibiOSRepo/chibios191/os/common/ext/ST/STM32F4xx/stm32f407xx.h"
 627              		.file 14 "../../../ChibiOSRepo/chibios191/os/common/ports/ARMCMx/chcore.h"
 628              		.file 15 "../../../ChibiOSRepo/chibios191/os/common/ports/ARMCMx/chcore_v7m.h"
 629              		.file 16 "../../../ChibiOSRepo/chibios191/os/hal/ports/STM32/LLD/TIMv1/stm32_tim.h"
 630              		.file 17 "../../../ChibiOSRepo/chibios191/os/rt/include/chtrace.h"
 631              		.file 18 "../../../ChibiOSRepo/chibios191/os/rt/include/chtm.h"
 632              		.file 19 "../../../ChibiOSRepo/chibios191/os/rt/include/chstats.h"
 633              		.file 20 "../../../ChibiOSRepo/chibios191/os/rt/include/chsem.h"
 634              		.file 21 "../../../ChibiOSRepo/chibios191/os/rt/include/chmtx.h"
 635              		.file 22 "../../../ChibiOSRepo/chibios191/os/rt/include/chsys.h"
 636              		.file 23 "../../../ChibiOSRepo/chibios191/os/rt/include/chregistry.h"
 637              		.file 24 "../../../ChibiOSRepo/chibios191/os/rt/include/chevents.h"
 638              		.file 25 "../../../ChibiOSRepo/chibios191/os/oslib/include/chmemcore.h"
 639              		.file 26 "../../../ChibiOSRepo/chibios191/os/oslib/include/chmempools.h"
 640              		.file 27 "../../../ChibiOSRepo/chibios191/os/oslib/include/chfactory.h"
 641              		.file 28 "../../../ChibiOSRepo/chibios191/os/hal/ports/STM32/LLD/DMAv2/stm32_dma.h"
 642              		.file 29 "../../../ChibiOSRepo/chibios191/os/hal/include/hal_ioblock.h"
 643              		.file 30 "../../../ChibiOSRepo/chibios191/os/hal/include/hal_persistent.h"
 644              		.file 31 "../../../ChibiOSRepo/chibios191/os/hal/include/hal_queues.h"
 645              		.file 32 "../../../ChibiOSRepo/chibios191/os/hal/include/hal_pal.h"
 646              		.file 33 "../../../ChibiOSRepo/chibios191/os/hal/ports/STM32/LLD/GPIOv2/stm32_gpio.h"
 647              		.file 34 "../../../ChibiOSRepo/chibios191/os/hal/ports/STM32/LLD/GPIOv2/hal_pal_lld.h"
 648              		.file 35 "../../../ChibiOSRepo/chibios191/os/hal/include/hal_gpt.h"
 649              		.file 36 "../../../ChibiOSRepo/chibios191/os/hal/ports/STM32/LLD/TIMv1/hal_gpt_lld.h"
 650              		.file 37 "../../../ChibiOSRepo/chibios191/os/hal/include/hal_i2c.h"
 651              		.file 38 "../../../ChibiOSRepo/chibios191/os/hal/ports/STM32/LLD/I2Cv1/hal_i2c_lld.h"
 652              		.file 39 "c:\\chibistudio\\tools\\gnu tools arm embedded\\7.0 2017q4\\arm-none-eabi\\include\\sys\
 653              		.file 40 "c:\\chibistudio\\tools\\gnu tools arm embedded\\7.0 2017q4\\arm-none-eabi\\include\\sys\
 654              		.file 41 "c:\\chibistudio\\tools\\gnu tools arm embedded\\7.0 2017q4\\arm-none-eabi\\include\\sys\
 655              		.file 42 "c:\\chibistudio\\tools\\gnu tools arm embedded\\7.0 2017q4\\arm-none-eabi\\include\\time
 656              		.file 43 "../../../ChibiOSRepo/chibios191/os/hal/include/hal_rtc.h"
 657              		.file 44 "../../../ChibiOSRepo/chibios191/os/hal/ports/STM32/LLD/RTCv2/hal_rtc_lld.h"
 658              		.file 45 "../../../ChibiOSRepo/chibios191/os/hal/include/hal_serial.h"
 659              		.file 46 "../../../ChibiOSRepo/chibios191/os/hal/ports/STM32/LLD/USARTv1/hal_serial_lld.h"
 660              		.file 47 "../../../ChibiOSRepo/chibios191/os/hal/include/hal_sdc.h"
 661              		.file 48 "../../../ChibiOSRepo/chibios191/os/hal/ports/STM32/LLD/SDIOv1/hal_sdc_lld.h"
 662              		.file 49 "../../../ChibiOSRepo/chibios191/os/hal/include/hal_spi.h"
 663              		.file 50 "../../../ChibiOSRepo/chibios191/os/hal/ports/STM32/LLD/SPIv1/hal_spi_lld.h"
 664              		.file 51 "./winc1500/driver/include/m2m_types.h"
 665              		.file 52 "./winc1500/driver/include/ecc_types.h"
 666              		.file 53 "./winc1500/driver/include/m2m_ssl.h"
 667              		.file 54 "./winc1500/driver/source/m2m_hif.h"