ARM GAS  C:\Users\RAKIBU~1\AppData\Local\Temp\ccQ3AEax.s 			page 1


   1              		.cpu cortex-m4
   2              		.eabi_attribute 20, 1
   3              		.eabi_attribute 21, 1
   4              		.eabi_attribute 23, 3
   5              		.eabi_attribute 24, 1
   6              		.eabi_attribute 25, 1
   7              		.eabi_attribute 26, 1
   8              		.eabi_attribute 30, 1
   9              		.eabi_attribute 34, 1
  10              		.eabi_attribute 18, 4
  11              		.file	"m2m_wifi.c"
  12              		.text
  13              	.Ltext0:
  14              		.cfi_sections	.debug_frame
  15              		.align	1
  16              		.p2align 4,,15
  17              		.syntax unified
  18              		.thumb
  19              		.thumb_func
  20              		.fpu softvfp
  21              		.type	m2m_validate_scan_options, %function
  22              	m2m_validate_scan_options:
  23              	.LFB334:
  24              		.file 1 "./winc1500/driver/source/m2m_wifi.c"
  25              		.loc 1 400 0
  26              		.cfi_startproc
  27              		@ args = 0, pretend = 0, frame = 0
  28              		@ frame_needed = 0, uses_anonymous_args = 0
  29              		@ link register save eliminated.
  30              	.LVL0:
  31              		.loc 1 403 0
  32 0000 98B1     		cbz	r0, .L3
  33              		.loc 1 410 0
  34 0002 0378     		ldrb	r3, [r0]	@ zero_extendqisi2
  35 0004 A3B1     		cbz	r3, .L4
  36              		.loc 1 417 0
  37 0006 4378     		ldrb	r3, [r0, #1]	@ zero_extendqisi2
  38 0008 0A3B     		subs	r3, r3, #10
  39 000a DBB2     		uxtb	r3, r3
  40 000c F02B     		cmp	r3, #240
  41 000e 12D8     		bhi	.L5
  42              		.loc 1 424 0
  43 0010 8378     		ldrb	r3, [r0, #2]	@ zero_extendqisi2
  44 0012 013B     		subs	r3, r3, #1
  45 0014 DBB2     		uxtb	r3, r3
  46 0016 012B     		cmp	r3, #1
  47 0018 10D8     		bhi	.L6
  48              		.loc 1 431 0
  49 001a 90F90330 		ldrsb	r3, [r0, #3]
  50 001e 6333     		adds	r3, r3, #99
  51 0020 DBB2     		uxtb	r3, r3
  52 0022 622B     		cmp	r3, #98
  53 0024 0DD8     		bhi	.L7
  54              		.loc 1 401 0
  55 0026 0020     		movs	r0, #0
  56              	.LVL1:
  57 0028 7047     		bx	lr
ARM GAS  C:\Users\RAKIBU~1\AppData\Local\Temp\ccQ3AEax.s 			page 2


  58              	.LVL2:
  59              	.L3:
  60              		.loc 1 406 0
  61 002a 6FF00B00 		mvn	r0, #11
  62              	.LVL3:
  63 002e 7047     		bx	lr
  64              	.LVL4:
  65              	.L4:
  66              		.loc 1 413 0
  67 0030 6FF00B00 		mvn	r0, #11
  68              	.LVL5:
  69 0034 7047     		bx	lr
  70              	.LVL6:
  71              	.L5:
  72              		.loc 1 420 0
  73 0036 6FF00B00 		mvn	r0, #11
  74              	.LVL7:
  75 003a 7047     		bx	lr
  76              	.LVL8:
  77              	.L6:
  78              		.loc 1 427 0
  79 003c 6FF00B00 		mvn	r0, #11
  80              	.LVL9:
  81 0040 7047     		bx	lr
  82              	.LVL10:
  83              	.L7:
  84              		.loc 1 434 0
  85 0042 6FF00B00 		mvn	r0, #11
  86              	.LVL11:
  87              	.L2:
  88              		.loc 1 439 0
  89 0046 7047     		bx	lr
  90              		.cfi_endproc
  91              	.LFE334:
  92              		.size	m2m_validate_scan_options, .-m2m_validate_scan_options
  93              		.align	1
  94 0048 AFF30080 		.p2align 4,,15
  94      AFF30080 
  95              		.syntax unified
  96              		.thumb
  97              		.thumb_func
  98              		.fpu softvfp
  99              		.type	m2m_wifi_cb, %function
 100              	m2m_wifi_cb:
 101              	.LFB331:
 102              		.loc 1 88 0
 103              		.cfi_startproc
 104              		@ args = 0, pretend = 0, frame = 112
 105              		@ frame_needed = 0, uses_anonymous_args = 0
 106              	.LVL12:
 107 0050 10B5     		push	{r4, lr}
 108              		.cfi_def_cfa_offset 8
 109              		.cfi_offset 4, -8
 110              		.cfi_offset 14, -4
 111 0052 9CB0     		sub	sp, sp, #112
 112              		.cfi_def_cfa_offset 120
 113 0054 1446     		mov	r4, r2
ARM GAS  C:\Users\RAKIBU~1\AppData\Local\Temp\ccQ3AEax.s 			page 3


 114              		.loc 1 90 0
 115 0056 2C28     		cmp	r0, #44
 116 0058 36D0     		beq	.L34
 117              		.loc 1 99 0
 118 005a 1B28     		cmp	r0, #27
 119 005c 44D0     		beq	.L35
 120              		.loc 1 108 0
 121 005e 0628     		cmp	r0, #6
 122 0060 52D0     		beq	.L36
 123              		.loc 1 117 0
 124 0062 0E28     		cmp	r0, #14
 125 0064 3ED0     		beq	.L8
 126              		.loc 1 129 0
 127 0066 3228     		cmp	r0, #50
 128 0068 5ED0     		beq	.L37
 129              		.loc 1 138 0
 130 006a 2F28     		cmp	r0, #47
 131 006c 6CD0     		beq	.L38
 132              		.loc 1 148 0
 133 006e 3428     		cmp	r0, #52
 134 0070 7FD0     		beq	.L39
 135              		.loc 1 160 0
 136 0072 1128     		cmp	r0, #17
 137 0074 00F08E80 		beq	.L40
 138              		.loc 1 171 0
 139 0078 1328     		cmp	r0, #19
 140 007a 00F0A180 		beq	.L41
 141              		.loc 1 180 0
 142 007e 0428     		cmp	r0, #4
 143 0080 00F0AE80 		beq	.L42
 144              		.loc 1 188 0
 145 0084 6528     		cmp	r0, #101
 146 0086 00F0BD80 		beq	.L43
 147              		.loc 1 196 0
 148 008a 0928     		cmp	r0, #9
 149 008c 00F0CC80 		beq	.L44
 150              		.loc 1 205 0
 151 0090 2A28     		cmp	r0, #42
 152 0092 00F0DB80 		beq	.L45
 153              		.loc 1 215 0
 154 0096 2028     		cmp	r0, #32
 155 0098 24D1     		bne	.L8
 156              	.LBB2:
 157              		.loc 1 218 0
 158 009a 0023     		movs	r3, #0
 159 009c 0822     		movs	r2, #8
 160              	.LVL13:
 161 009e 01A9     		add	r1, sp, #4
 162              	.LVL14:
 163 00a0 2046     		mov	r0, r4
 164              	.LVL15:
 165 00a2 FFF7FEFF 		bl	hif_receive
 166              	.LVL16:
 167 00a6 E8B9     		cbnz	r0, .L8
 168              		.loc 1 220 0
 169 00a8 0123     		movs	r3, #1
 170 00aa BDF80820 		ldrh	r2, [sp, #8]
ARM GAS  C:\Users\RAKIBU~1\AppData\Local\Temp\ccQ3AEax.s 			page 4


 171 00ae 0199     		ldr	r1, [sp, #4]
 172 00b0 04F10800 		add	r0, r4, #8
 173 00b4 FFF7FEFF 		bl	hif_receive
 174              	.LVL17:
 175 00b8 A0B9     		cbnz	r0, .L8
 176              		.loc 1 222 0
 177 00ba 6E4B     		ldr	r3, .L46
 178 00bc 1B68     		ldr	r3, [r3]
 179 00be 8BB1     		cbz	r3, .L8
 180              		.loc 1 223 0
 181 00c0 01A9     		add	r1, sp, #4
 182 00c2 2020     		movs	r0, #32
 183 00c4 9847     		blx	r3
 184              	.LVL18:
 185              	.LBE2:
 186              		.loc 1 297 0
 187 00c6 0DE0     		b	.L8
 188              	.LVL19:
 189              	.L34:
 190              	.LBB3:
 191              		.loc 1 93 0
 192 00c8 0023     		movs	r3, #0
 193 00ca 0422     		movs	r2, #4
 194              	.LVL20:
 195 00cc 0DEB0201 		add	r1, sp, r2
 196              	.LVL21:
 197 00d0 2046     		mov	r0, r4
 198              	.LVL22:
 199 00d2 FFF7FEFF 		bl	hif_receive
 200              	.LVL23:
 201 00d6 28B9     		cbnz	r0, .L8
 202              		.loc 1 95 0
 203 00d8 664B     		ldr	r3, .L46
 204 00da 1B68     		ldr	r3, [r3]
 205 00dc 13B1     		cbz	r3, .L8
 206              		.loc 1 96 0
 207 00de 01A9     		add	r1, sp, #4
 208 00e0 2C20     		movs	r0, #44
 209 00e2 9847     		blx	r3
 210              	.LVL24:
 211              	.L8:
 212              	.LBE3:
 213              		.loc 1 297 0
 214 00e4 1CB0     		add	sp, sp, #112
 215              		.cfi_remember_state
 216              		.cfi_def_cfa_offset 8
 217              		@ sp needed
 218 00e6 10BD     		pop	{r4, pc}
 219              	.LVL25:
 220              	.L35:
 221              		.cfi_restore_state
 222              	.LBB4:
 223              		.loc 1 102 0
 224 00e8 0023     		movs	r3, #0
 225 00ea 0822     		movs	r2, #8
 226              	.LVL26:
 227 00ec 01A9     		add	r1, sp, #4
ARM GAS  C:\Users\RAKIBU~1\AppData\Local\Temp\ccQ3AEax.s 			page 5


 228              	.LVL27:
 229 00ee 2046     		mov	r0, r4
 230              	.LVL28:
 231 00f0 FFF7FEFF 		bl	hif_receive
 232              	.LVL29:
 233 00f4 0028     		cmp	r0, #0
 234 00f6 F5D1     		bne	.L8
 235              		.loc 1 104 0
 236 00f8 5E4B     		ldr	r3, .L46
 237 00fa 1B68     		ldr	r3, [r3]
 238 00fc 002B     		cmp	r3, #0
 239 00fe F1D0     		beq	.L8
 240              		.loc 1 105 0
 241 0100 01A9     		add	r1, sp, #4
 242 0102 1B20     		movs	r0, #27
 243 0104 9847     		blx	r3
 244              	.LVL30:
 245 0106 EDE7     		b	.L8
 246              	.LVL31:
 247              	.L36:
 248              	.LBE4:
 249              	.LBB5:
 250              		.loc 1 111 0
 251 0108 0123     		movs	r3, #1
 252 010a 3022     		movs	r2, #48
 253              	.LVL32:
 254 010c 01A9     		add	r1, sp, #4
 255              	.LVL33:
 256 010e 2046     		mov	r0, r4
 257              	.LVL34:
 258 0110 FFF7FEFF 		bl	hif_receive
 259              	.LVL35:
 260 0114 0028     		cmp	r0, #0
 261 0116 E5D1     		bne	.L8
 262              		.loc 1 113 0
 263 0118 564B     		ldr	r3, .L46
 264 011a 1B68     		ldr	r3, [r3]
 265 011c 002B     		cmp	r3, #0
 266 011e E1D0     		beq	.L8
 267              		.loc 1 114 0
 268 0120 01A9     		add	r1, sp, #4
 269 0122 0620     		movs	r0, #6
 270 0124 9847     		blx	r3
 271              	.LVL36:
 272 0126 DDE7     		b	.L8
 273              	.LVL37:
 274              	.L37:
 275              	.LBE5:
 276              	.LBB6:
 277              		.loc 1 132 0
 278 0128 0023     		movs	r3, #0
 279 012a 1422     		movs	r2, #20
 280              	.LVL38:
 281 012c 01A9     		add	r1, sp, #4
 282              	.LVL39:
 283 012e 2046     		mov	r0, r4
 284              	.LVL40:
ARM GAS  C:\Users\RAKIBU~1\AppData\Local\Temp\ccQ3AEax.s 			page 6


 285 0130 FFF7FEFF 		bl	hif_receive
 286              	.LVL41:
 287 0134 0028     		cmp	r0, #0
 288 0136 D5D1     		bne	.L8
 289              		.loc 1 134 0
 290 0138 4E4B     		ldr	r3, .L46
 291 013a 1B68     		ldr	r3, [r3]
 292 013c 002B     		cmp	r3, #0
 293 013e D1D0     		beq	.L8
 294              		.loc 1 135 0
 295 0140 01A9     		add	r1, sp, #4
 296 0142 3220     		movs	r0, #50
 297 0144 9847     		blx	r3
 298              	.LVL42:
 299 0146 CDE7     		b	.L8
 300              	.LVL43:
 301              	.L38:
 302              	.LBE6:
 303              	.LBB7:
 304              		.loc 1 141 0
 305 0148 6422     		movs	r2, #100
 306              	.LVL44:
 307 014a 0021     		movs	r1, #0
 308              	.LVL45:
 309 014c 01A8     		add	r0, sp, #4
 310              	.LVL46:
 311 014e FFF7FEFF 		bl	m2m_memset
 312              	.LVL47:
 313              		.loc 1 142 0
 314 0152 0023     		movs	r3, #0
 315 0154 6422     		movs	r2, #100
 316 0156 01A9     		add	r1, sp, #4
 317 0158 2046     		mov	r0, r4
 318 015a FFF7FEFF 		bl	hif_receive
 319              	.LVL48:
 320 015e 0028     		cmp	r0, #0
 321 0160 C0D1     		bne	.L8
 322              		.loc 1 144 0
 323 0162 444B     		ldr	r3, .L46
 324 0164 1B68     		ldr	r3, [r3]
 325 0166 002B     		cmp	r3, #0
 326 0168 BCD0     		beq	.L8
 327              		.loc 1 145 0
 328 016a 01A9     		add	r1, sp, #4
 329 016c 2F20     		movs	r0, #47
 330 016e 9847     		blx	r3
 331              	.LVL49:
 332 0170 B8E7     		b	.L8
 333              	.LVL50:
 334              	.L39:
 335              	.LBE7:
 336              	.LBB8:
 337              		.loc 1 151 0
 338 0172 0023     		movs	r3, #0
 339 0174 0422     		movs	r2, #4
 340              	.LVL51:
 341 0176 0DEB0201 		add	r1, sp, r2
ARM GAS  C:\Users\RAKIBU~1\AppData\Local\Temp\ccQ3AEax.s 			page 7


 342              	.LVL52:
 343 017a 2046     		mov	r0, r4
 344              	.LVL53:
 345 017c FFF7FEFF 		bl	hif_receive
 346              	.LVL54:
 347 0180 0028     		cmp	r0, #0
 348 0182 AFD1     		bne	.L8
 349              		.loc 1 155 0
 350 0184 3B4B     		ldr	r3, .L46
 351 0186 1B68     		ldr	r3, [r3]
 352 0188 002B     		cmp	r3, #0
 353 018a ABD0     		beq	.L8
 354              		.loc 1 156 0
 355 018c 0021     		movs	r1, #0
 356 018e 3420     		movs	r0, #52
 357 0190 9847     		blx	r3
 358              	.LVL55:
 359 0192 A7E7     		b	.L8
 360              	.LVL56:
 361              	.L40:
 362              	.LBE8:
 363              	.LBB9:
 364              		.loc 1 163 0
 365 0194 0023     		movs	r3, #0
 366 0196 374A     		ldr	r2, .L46
 367              	.LVL57:
 368 0198 1371     		strb	r3, [r2, #4]
 369              		.loc 1 164 0
 370 019a 0422     		movs	r2, #4
 371 019c 0DEB0201 		add	r1, sp, r2
 372              	.LVL58:
 373 01a0 2046     		mov	r0, r4
 374              	.LVL59:
 375 01a2 FFF7FEFF 		bl	hif_receive
 376              	.LVL60:
 377 01a6 0028     		cmp	r0, #0
 378 01a8 9CD1     		bne	.L8
 379              		.loc 1 166 0
 380 01aa 9DF80420 		ldrb	r2, [sp, #4]	@ zero_extendqisi2
 381 01ae 314B     		ldr	r3, .L46
 382 01b0 5A71     		strb	r2, [r3, #5]
 383              		.loc 1 167 0
 384 01b2 1B68     		ldr	r3, [r3]
 385 01b4 002B     		cmp	r3, #0
 386 01b6 95D0     		beq	.L8
 387              		.loc 1 168 0
 388 01b8 01A9     		add	r1, sp, #4
 389 01ba 1120     		movs	r0, #17
 390 01bc 9847     		blx	r3
 391              	.LVL61:
 392 01be 91E7     		b	.L8
 393              	.LVL62:
 394              	.L41:
 395              	.LBE9:
 396              	.LBB10:
 397              		.loc 1 174 0
 398 01c0 0023     		movs	r3, #0
ARM GAS  C:\Users\RAKIBU~1\AppData\Local\Temp\ccQ3AEax.s 			page 8


 399 01c2 2C22     		movs	r2, #44
 400              	.LVL63:
 401 01c4 01A9     		add	r1, sp, #4
 402              	.LVL64:
 403 01c6 2046     		mov	r0, r4
 404              	.LVL65:
 405 01c8 FFF7FEFF 		bl	hif_receive
 406              	.LVL66:
 407 01cc 0028     		cmp	r0, #0
 408 01ce 89D1     		bne	.L8
 409              		.loc 1 176 0
 410 01d0 284B     		ldr	r3, .L46
 411 01d2 1B68     		ldr	r3, [r3]
 412 01d4 002B     		cmp	r3, #0
 413 01d6 85D0     		beq	.L8
 414              		.loc 1 177 0
 415 01d8 01A9     		add	r1, sp, #4
 416 01da 1320     		movs	r0, #19
 417 01dc 9847     		blx	r3
 418              	.LVL67:
 419 01de 81E7     		b	.L8
 420              	.LVL68:
 421              	.L42:
 422              	.LBE10:
 423              		.loc 1 182 0
 424 01e0 0023     		movs	r3, #0
 425 01e2 0422     		movs	r2, #4
 426              	.LVL69:
 427 01e4 1AA9     		add	r1, sp, #104
 428              	.LVL70:
 429 01e6 2046     		mov	r0, r4
 430              	.LVL71:
 431 01e8 FFF7FEFF 		bl	hif_receive
 432              	.LVL72:
 433 01ec 0028     		cmp	r0, #0
 434 01ee 7FF479AF 		bne	.L8
 435              		.loc 1 184 0
 436 01f2 204B     		ldr	r3, .L46
 437 01f4 1B68     		ldr	r3, [r3]
 438 01f6 002B     		cmp	r3, #0
 439 01f8 3FF474AF 		beq	.L8
 440              		.loc 1 185 0
 441 01fc 1AA9     		add	r1, sp, #104
 442 01fe 0420     		movs	r0, #4
 443 0200 9847     		blx	r3
 444              	.LVL73:
 445 0202 6FE7     		b	.L8
 446              	.LVL74:
 447              	.L43:
 448              		.loc 1 190 0
 449 0204 0023     		movs	r3, #0
 450 0206 0422     		movs	r2, #4
 451              	.LVL75:
 452 0208 1AA9     		add	r1, sp, #104
 453              	.LVL76:
 454 020a 2046     		mov	r0, r4
 455              	.LVL77:
ARM GAS  C:\Users\RAKIBU~1\AppData\Local\Temp\ccQ3AEax.s 			page 9


 456 020c FFF7FEFF 		bl	hif_receive
 457              	.LVL78:
 458 0210 0028     		cmp	r0, #0
 459 0212 7FF467AF 		bne	.L8
 460              		.loc 1 192 0
 461 0216 174B     		ldr	r3, .L46
 462 0218 1B68     		ldr	r3, [r3]
 463 021a 002B     		cmp	r3, #0
 464 021c 3FF462AF 		beq	.L8
 465              		.loc 1 193 0
 466 0220 1AA9     		add	r1, sp, #104
 467 0222 6520     		movs	r0, #101
 468 0224 9847     		blx	r3
 469              	.LVL79:
 470 0226 5DE7     		b	.L8
 471              	.LVL80:
 472              	.L44:
 473              	.LBB11:
 474              		.loc 1 199 0
 475 0228 0123     		movs	r3, #1
 476 022a 6422     		movs	r2, #100
 477              	.LVL81:
 478 022c 01A9     		add	r1, sp, #4
 479              	.LVL82:
 480 022e 2046     		mov	r0, r4
 481              	.LVL83:
 482 0230 FFF7FEFF 		bl	hif_receive
 483              	.LVL84:
 484 0234 0028     		cmp	r0, #0
 485 0236 7FF455AF 		bne	.L8
 486              		.loc 1 201 0
 487 023a 0E4B     		ldr	r3, .L46
 488 023c 1B68     		ldr	r3, [r3]
 489 023e 002B     		cmp	r3, #0
 490 0240 3FF450AF 		beq	.L8
 491              		.loc 1 202 0
 492 0244 01A9     		add	r1, sp, #4
 493 0246 0920     		movs	r0, #9
 494 0248 9847     		blx	r3
 495              	.LVL85:
 496 024a 4BE7     		b	.L8
 497              	.LVL86:
 498              	.L45:
 499              	.LBE11:
 500              	.LBB12:
 501              		.loc 1 208 0
 502 024c 0123     		movs	r3, #1
 503 024e 0422     		movs	r2, #4
 504              	.LVL87:
 505 0250 0DEB0201 		add	r1, sp, r2
 506              	.LVL88:
 507 0254 2046     		mov	r0, r4
 508              	.LVL89:
 509 0256 FFF7FEFF 		bl	hif_receive
 510              	.LVL90:
 511 025a 0028     		cmp	r0, #0
 512 025c 7FF442AF 		bne	.L8
ARM GAS  C:\Users\RAKIBU~1\AppData\Local\Temp\ccQ3AEax.s 			page 10


 513              		.loc 1 210 0
 514 0260 044B     		ldr	r3, .L46
 515 0262 1B68     		ldr	r3, [r3]
 516 0264 002B     		cmp	r3, #0
 517 0266 3FF43DAF 		beq	.L8
 518              		.loc 1 211 0
 519 026a 01A9     		add	r1, sp, #4
 520 026c 2A20     		movs	r0, #42
 521 026e 9847     		blx	r3
 522              	.LVL91:
 523 0270 38E7     		b	.L8
 524              	.L47:
 525 0272 00BF     		.align	2
 526              	.L46:
 527 0274 00000000 		.word	.LANCHOR0
 528              	.LBE12:
 529              		.cfi_endproc
 530              	.LFE331:
 531              		.size	m2m_wifi_cb, .-m2m_wifi_cb
 532              		.align	1
 533 0278 AFF30080 		.p2align 4,,15
 533      AFF30080 
 534              		.syntax unified
 535              		.thumb
 536              		.thumb_func
 537              		.fpu softvfp
 538              		.type	m2m_validate_ap_parameters, %function
 539              	m2m_validate_ap_parameters:
 540              	.LFB333:
 541              		.loc 1 315 0
 542              		.cfi_startproc
 543              		@ args = 0, pretend = 0, frame = 0
 544              		@ frame_needed = 0, uses_anonymous_args = 0
 545              	.LVL92:
 546              		.loc 1 318 0
 547 0280 0028     		cmp	r0, #0
 548 0282 40D0     		beq	.L53
 549              		.loc 1 315 0
 550 0284 10B5     		push	{r4, lr}
 551              		.cfi_def_cfa_offset 8
 552              		.cfi_offset 4, -8
 553              		.cfi_offset 14, -4
 554 0286 0446     		mov	r4, r0
 555              		.loc 1 325 0
 556 0288 FFF7FEFF 		bl	m2m_strlen
 557              	.LVL93:
 558 028c 0028     		cmp	r0, #0
 559 028e 3DD0     		beq	.L54
 560              		.loc 1 325 0 is_stmt 0 discriminator 1
 561 0290 2046     		mov	r0, r4
 562 0292 FFF7FEFF 		bl	m2m_strlen
 563              	.LVL94:
 564 0296 2028     		cmp	r0, #32
 565 0298 3BD8     		bhi	.L55
 566              		.loc 1 332 0 is_stmt 1
 567 029a 94F82130 		ldrb	r3, [r4, #33]	@ zero_extendqisi2
 568 029e 013B     		subs	r3, r3, #1
ARM GAS  C:\Users\RAKIBU~1\AppData\Local\Temp\ccQ3AEax.s 			page 11


 569 02a0 DBB2     		uxtb	r3, r3
 570 02a2 0D2B     		cmp	r3, #13
 571 02a4 38D8     		bhi	.L56
 572              		.loc 1 339 0
 573 02a6 94F84130 		ldrb	r3, [r4, #65]	@ zero_extendqisi2
 574 02aa 2BB9     		cbnz	r3, .L50
 575              		.loc 1 339 0 is_stmt 0 discriminator 1
 576 02ac 94F84230 		ldrb	r3, [r4, #66]	@ zero_extendqisi2
 577 02b0 13B9     		cbnz	r3, .L50
 578              		.loc 1 341 0 is_stmt 1
 579 02b2 94F84330 		ldrb	r3, [r4, #67]	@ zero_extendqisi2
 580 02b6 93B3     		cbz	r3, .L57
 581              	.L50:
 582              		.loc 1 349 0
 583 02b8 94F83F30 		ldrb	r3, [r4, #63]	@ zero_extendqisi2
 584 02bc 012B     		cmp	r3, #1
 585 02be 31D0     		beq	.L58
 586              		.loc 1 353 0
 587 02c0 032B     		cmp	r3, #3
 588 02c2 08D0     		beq	.L69
 589              		.loc 1 379 0
 590 02c4 022B     		cmp	r3, #2
 591 02c6 3BD1     		bne	.L63
 592              		.loc 1 382 0
 593 02c8 94F82330 		ldrb	r3, [r4, #35]	@ zero_extendqisi2
 594 02cc 083B     		subs	r3, r3, #8
 595 02ce 382B     		cmp	r3, #56
 596 02d0 39D8     		bhi	.L64
 597              		.loc 1 316 0
 598 02d2 0020     		movs	r0, #0
 599              	.LVL95:
 600              	.L49:
 601              		.loc 1 398 0
 602 02d4 10BD     		pop	{r4, pc}
 603              	.LVL96:
 604              	.L69:
 605              		.loc 1 356 0
 606 02d6 94F82230 		ldrb	r3, [r4, #34]	@ zero_extendqisi2
 607 02da 013B     		subs	r3, r3, #1
 608 02dc DBB2     		uxtb	r3, r3
 609 02de 032B     		cmp	r3, #3
 610 02e0 22D8     		bhi	.L59
 611              		.loc 1 363 0
 612 02e2 94F82330 		ldrb	r3, [r4, #35]	@ zero_extendqisi2
 613 02e6 0A2B     		cmp	r3, #10
 614 02e8 01D0     		beq	.L52
 615              		.loc 1 363 0 is_stmt 0 discriminator 1
 616 02ea 1A2B     		cmp	r3, #26
 617 02ec 1FD1     		bne	.L60
 618              	.L52:
 619              		.loc 1 372 0 is_stmt 1
 620 02ee 2434     		adds	r4, r4, #36
 621              	.LVL97:
 622 02f0 2046     		mov	r0, r4
 623 02f2 FFF7FEFF 		bl	m2m_strlen
 624              	.LVL98:
 625 02f6 E8B1     		cbz	r0, .L61
ARM GAS  C:\Users\RAKIBU~1\AppData\Local\Temp\ccQ3AEax.s 			page 12


 626              		.loc 1 372 0 is_stmt 0 discriminator 1
 627 02f8 2046     		mov	r0, r4
 628 02fa FFF7FEFF 		bl	m2m_strlen
 629              	.LVL99:
 630 02fe 1A28     		cmp	r0, #26
 631 0300 1BD8     		bhi	.L62
 632              		.loc 1 316 0 is_stmt 1
 633 0302 0020     		movs	r0, #0
 634 0304 E6E7     		b	.L49
 635              	.LVL100:
 636              	.L53:
 637              		.cfi_def_cfa_offset 0
 638              		.cfi_restore 4
 639              		.cfi_restore 14
 640              		.loc 1 321 0
 641 0306 6FF00B00 		mvn	r0, #11
 642              	.LVL101:
 643              		.loc 1 398 0
 644 030a 7047     		bx	lr
 645              	.LVL102:
 646              	.L54:
 647              		.cfi_def_cfa_offset 8
 648              		.cfi_offset 4, -8
 649              		.cfi_offset 14, -4
 650              		.loc 1 328 0
 651 030c 6FF00B00 		mvn	r0, #11
 652 0310 E0E7     		b	.L49
 653              	.L55:
 654 0312 6FF00B00 		mvn	r0, #11
 655 0316 DDE7     		b	.L49
 656              	.L56:
 657              		.loc 1 335 0
 658 0318 6FF00B00 		mvn	r0, #11
 659 031c DAE7     		b	.L49
 660              	.L57:
 661              		.loc 1 344 0
 662 031e 6FF00B00 		mvn	r0, #11
 663 0322 D7E7     		b	.L49
 664              	.L58:
 665              		.loc 1 316 0
 666 0324 0020     		movs	r0, #0
 667 0326 D5E7     		b	.L49
 668              	.L59:
 669              		.loc 1 359 0
 670 0328 6FF00B00 		mvn	r0, #11
 671 032c D2E7     		b	.L49
 672              	.L60:
 673              		.loc 1 368 0
 674 032e 6FF00B00 		mvn	r0, #11
 675 0332 CFE7     		b	.L49
 676              	.LVL103:
 677              	.L61:
 678              		.loc 1 375 0
 679 0334 6FF00B00 		mvn	r0, #11
 680 0338 CCE7     		b	.L49
 681              	.L62:
 682 033a 6FF00B00 		mvn	r0, #11
ARM GAS  C:\Users\RAKIBU~1\AppData\Local\Temp\ccQ3AEax.s 			page 13


 683 033e C9E7     		b	.L49
 684              	.LVL104:
 685              	.L63:
 686              		.loc 1 392 0
 687 0340 6FF00B00 		mvn	r0, #11
 688 0344 C6E7     		b	.L49
 689              	.L64:
 690              		.loc 1 385 0
 691 0346 6FF00B00 		mvn	r0, #11
 692 034a C3E7     		b	.L49
 693              		.cfi_endproc
 694              	.LFE333:
 695              		.size	m2m_validate_ap_parameters, .-m2m_validate_ap_parameters
 696              		.align	1
 697 034c AFF30080 		.p2align 4,,15
 698              		.global	m2m_wifi_download_mode
 699              		.syntax unified
 700              		.thumb
 701              		.thumb_func
 702              		.fpu softvfp
 703              		.type	m2m_wifi_download_mode, %function
 704              	m2m_wifi_download_mode:
 705              	.LFB332:
 706              		.loc 1 300 0
 707              		.cfi_startproc
 708              		@ args = 0, pretend = 0, frame = 0
 709              		@ frame_needed = 0, uses_anonymous_args = 0
 710 0350 10B5     		push	{r4, lr}
 711              		.cfi_def_cfa_offset 8
 712              		.cfi_offset 4, -8
 713              		.cfi_offset 14, -4
 714              	.LVL105:
 715              		.loc 1 303 0
 716 0352 FFF7FEFF 		bl	nm_drv_init_download_mode
 717              	.LVL106:
 718              		.loc 1 304 0
 719 0356 0446     		mov	r4, r0
 720 0358 08B1     		cbz	r0, .L73
 721              	.LVL107:
 722              	.L71:
 723              		.loc 1 312 0
 724 035a 2046     		mov	r0, r4
 725 035c 10BD     		pop	{r4, pc}
 726              	.LVL108:
 727              	.L73:
 728              		.loc 1 308 0
 729 035e FFF7FEFF 		bl	enable_interrupts
 730              	.LVL109:
 731 0362 FAE7     		b	.L71
 732              		.cfi_endproc
 733              	.LFE332:
 734              		.size	m2m_wifi_download_mode, .-m2m_wifi_download_mode
 735              		.align	1
 736 0364 AFF30080 		.p2align 4,,15
 736      AFF30080 
 736      AFF30080 
 737              		.global	m2m_wifi_send_crl
ARM GAS  C:\Users\RAKIBU~1\AppData\Local\Temp\ccQ3AEax.s 			page 14


 738              		.syntax unified
 739              		.thumb
 740              		.thumb_func
 741              		.fpu softvfp
 742              		.type	m2m_wifi_send_crl, %function
 743              	m2m_wifi_send_crl:
 744              	.LFB335:
 745              		.loc 1 442 0
 746              		.cfi_startproc
 747              		@ args = 0, pretend = 0, frame = 0
 748              		@ frame_needed = 0, uses_anonymous_args = 0
 749              	.LVL110:
 750 0370 00B5     		push	{lr}
 751              		.cfi_def_cfa_offset 4
 752              		.cfi_offset 14, -4
 753 0372 85B0     		sub	sp, sp, #20
 754              		.cfi_def_cfa_offset 24
 755              	.LVL111:
 756              		.loc 1 444 0
 757 0374 0022     		movs	r2, #0
 758 0376 0292     		str	r2, [sp, #8]
 759 0378 4FF42B73 		mov	r3, #684
 760 037c 0193     		str	r3, [sp, #4]
 761 037e 0090     		str	r0, [sp]
 762 0380 1346     		mov	r3, r2
 763 0382 8321     		movs	r1, #131
 764 0384 0520     		movs	r0, #5
 765              	.LVL112:
 766 0386 FFF7FEFF 		bl	hif_send
 767              	.LVL113:
 768              		.loc 1 446 0
 769 038a 05B0     		add	sp, sp, #20
 770              		.cfi_def_cfa_offset 4
 771              		@ sp needed
 772 038c 5DF804FB 		ldr	pc, [sp], #4
 773              		.cfi_endproc
 774              	.LFE335:
 775              		.size	m2m_wifi_send_crl, .-m2m_wifi_send_crl
 776              		.align	1
 777              		.p2align 4,,15
 778              		.global	m2m_wifi_init
 779              		.syntax unified
 780              		.thumb
 781              		.thumb_func
 782              		.fpu softvfp
 783              		.type	m2m_wifi_init, %function
 784              	m2m_wifi_init:
 785              	.LFB336:
 786              		.loc 1 449 0
 787              		.cfi_startproc
 788              		@ args = 0, pretend = 0, frame = 48
 789              		@ frame_needed = 0, uses_anonymous_args = 0
 790              	.LVL114:
 791 0390 10B5     		push	{r4, lr}
 792              		.cfi_def_cfa_offset 8
 793              		.cfi_offset 4, -8
 794              		.cfi_offset 14, -4
ARM GAS  C:\Users\RAKIBU~1\AppData\Local\Temp\ccQ3AEax.s 			page 15


 795 0392 8EB0     		sub	sp, sp, #56
 796              		.cfi_def_cfa_offset 64
 797              	.LVL115:
 798              		.loc 1 452 0
 799 0394 0123     		movs	r3, #1
 800 0396 8DF80F30 		strb	r3, [sp, #15]
 801              		.loc 1 454 0
 802 039a 0028     		cmp	r0, #0
 803 039c 45D0     		beq	.L79
 804              		.loc 1 459 0
 805 039e 0268     		ldr	r2, [r0]
 806 03a0 234B     		ldr	r3, .L83
 807 03a2 1A60     		str	r2, [r3]
 808              		.loc 1 471 0
 809 03a4 0022     		movs	r2, #0
 810 03a6 1A71     		strb	r2, [r3, #4]
 811              		.loc 1 473 0
 812 03a8 0DF10F00 		add	r0, sp, #15
 813              	.LVL116:
 814 03ac FFF7FEFF 		bl	nm_drv_init
 815              	.LVL117:
 816              		.loc 1 474 0
 817 03b0 0446     		mov	r4, r0
 818 03b2 10B1     		cbz	r0, .L81
 819              	.LVL118:
 820              	.L77:
 821              		.loc 1 499 0
 822 03b4 2046     		mov	r0, r4
 823 03b6 0EB0     		add	sp, sp, #56
 824              		.cfi_remember_state
 825              		.cfi_def_cfa_offset 8
 826              		@ sp needed
 827 03b8 10BD     		pop	{r4, pc}
 828              	.LVL119:
 829              	.L81:
 830              		.cfi_restore_state
 831              		.loc 1 476 0
 832 03ba FFF7FEFF 		bl	hif_init
 833              	.LVL120:
 834              		.loc 1 477 0
 835 03be 0446     		mov	r4, r0
 836 03c0 18B1     		cbz	r0, .L82
 837              	.L78:
 838              		.loc 1 496 0
 839 03c2 0020     		movs	r0, #0
 840              	.LVL121:
 841 03c4 FFF7FEFF 		bl	nm_drv_deinit
 842              	.LVL122:
 843 03c8 F4E7     		b	.L77
 844              	.LVL123:
 845              	.L82:
 846              		.loc 1 479 0
 847 03ca 1A49     		ldr	r1, .L83+4
 848 03cc 0120     		movs	r0, #1
 849              	.LVL124:
 850 03ce FFF7FEFF 		bl	hif_register_cb
 851              	.LVL125:
ARM GAS  C:\Users\RAKIBU~1\AppData\Local\Temp\ccQ3AEax.s 			page 16


 852              		.loc 1 481 0
 853 03d2 04A8     		add	r0, sp, #16
 854 03d4 FFF7FEFF 		bl	nm_get_firmware_full_info
 855              	.LVL126:
 856 03d8 0446     		mov	r4, r0
 857              	.LVL127:
 858              		.loc 1 483 0
 859 03da 9DF81410 		ldrb	r1, [sp, #20]	@ zero_extendqisi2
 860 03de 9DF81520 		ldrb	r2, [sp, #21]	@ zero_extendqisi2
 861 03e2 9DF81630 		ldrb	r3, [sp, #22]	@ zero_extendqisi2
 862 03e6 BDF83000 		ldrh	r0, [sp, #48]
 863 03ea 0090     		str	r0, [sp]
 864 03ec 1248     		ldr	r0, .L83+8
 865 03ee FFF7FEFF 		bl	myPrintf
 866              	.LVL128:
 867              		.loc 1 484 0
 868 03f2 0DF12602 		add	r2, sp, #38
 869 03f6 0DF11A01 		add	r1, sp, #26
 870 03fa 1048     		ldr	r0, .L83+12
 871 03fc FFF7FEFF 		bl	myPrintf
 872              	.LVL129:
 873              		.loc 1 485 0
 874 0400 9DF81930 		ldrb	r3, [sp, #25]	@ zero_extendqisi2
 875 0404 9DF81820 		ldrb	r2, [sp, #24]	@ zero_extendqisi2
 876 0408 9DF81710 		ldrb	r1, [sp, #23]	@ zero_extendqisi2
 877 040c 0C48     		ldr	r0, .L83+16
 878 040e FFF7FEFF 		bl	myPrintf
 879              	.LVL130:
 880              		.loc 1 486 0
 881 0412 0423     		movs	r3, #4
 882 0414 0522     		movs	r2, #5
 883 0416 1321     		movs	r1, #19
 884 0418 0A48     		ldr	r0, .L83+20
 885 041a FFF7FEFF 		bl	myPrintf
 886              	.LVL131:
 887              		.loc 1 487 0
 888 041e 0A4A     		ldr	r2, .L83+24
 889 0420 0A49     		ldr	r1, .L83+28
 890 0422 0B48     		ldr	r0, .L83+32
 891 0424 FFF7FEFF 		bl	myPrintf
 892              	.LVL132:
 893              		.loc 1 493 0
 894 0428 C4E7     		b	.L77
 895              	.LVL133:
 896              	.L79:
 897              		.loc 1 455 0
 898 042a 6FF00B04 		mvn	r4, #11
 899 042e C1E7     		b	.L77
 900              	.L84:
 901              		.align	2
 902              	.L83:
 903 0430 00000000 		.word	.LANCHOR0
 904 0434 00000000 		.word	m2m_wifi_cb
 905 0438 00000000 		.word	.LC0
 906 043c 28000000 		.word	.LC1
 907 0440 44000000 		.word	.LC2
 908 0444 68000000 		.word	.LC3
ARM GAS  C:\Users\RAKIBU~1\AppData\Local\Temp\ccQ3AEax.s 			page 17


 909 0448 80000000 		.word	.LC4
 910 044c 8C000000 		.word	.LC5
 911 0450 98000000 		.word	.LC6
 912              		.cfi_endproc
 913              	.LFE336:
 914              		.size	m2m_wifi_init, .-m2m_wifi_init
 915              		.align	1
 916 0454 AFF30080 		.p2align 4,,15
 916      AFF30080 
 916      AFF30080 
 917              		.global	m2m_wifi_deinit
 918              		.syntax unified
 919              		.thumb
 920              		.thumb_func
 921              		.fpu softvfp
 922              		.type	m2m_wifi_deinit, %function
 923              	m2m_wifi_deinit:
 924              	.LFB337:
 925              		.loc 1 502 0
 926              		.cfi_startproc
 927              		@ args = 0, pretend = 0, frame = 0
 928              		@ frame_needed = 0, uses_anonymous_args = 0
 929              	.LVL134:
 930 0460 08B5     		push	{r3, lr}
 931              		.cfi_def_cfa_offset 8
 932              		.cfi_offset 3, -8
 933              		.cfi_offset 14, -4
 934              		.loc 1 505 0
 935 0462 0020     		movs	r0, #0
 936              	.LVL135:
 937 0464 FFF7FEFF 		bl	hif_deinit
 938              	.LVL136:
 939              		.loc 1 507 0
 940 0468 0020     		movs	r0, #0
 941 046a FFF7FEFF 		bl	nm_drv_deinit
 942              	.LVL137:
 943              		.loc 1 510 0
 944 046e 0020     		movs	r0, #0
 945 0470 08BD     		pop	{r3, pc}
 946              		.cfi_endproc
 947              	.LFE337:
 948              		.size	m2m_wifi_deinit, .-m2m_wifi_deinit
 949              		.align	1
 950 0472 00BFAFF3 		.p2align 4,,15
 950      0080AFF3 
 950      0080AFF3 
 950      0080
 951              		.global	m2m_wifi_handle_events
 952              		.syntax unified
 953              		.thumb
 954              		.thumb_func
 955              		.fpu softvfp
 956              		.type	m2m_wifi_handle_events, %function
 957              	m2m_wifi_handle_events:
 958              	.LFB338:
 959              		.loc 1 514 0
 960              		.cfi_startproc
ARM GAS  C:\Users\RAKIBU~1\AppData\Local\Temp\ccQ3AEax.s 			page 18


 961              		@ args = 0, pretend = 0, frame = 0
 962              		@ frame_needed = 0, uses_anonymous_args = 0
 963              	.LVL138:
 964 0480 08B5     		push	{r3, lr}
 965              		.cfi_def_cfa_offset 8
 966              		.cfi_offset 3, -8
 967              		.cfi_offset 14, -4
 968              		.loc 1 516 0
 969 0482 FFF7FEFF 		bl	hif_handle_isr
 970              	.LVL139:
 971              		.loc 1 517 0
 972 0486 08BD     		pop	{r3, pc}
 973              		.cfi_endproc
 974              	.LFE338:
 975              		.size	m2m_wifi_handle_events, .-m2m_wifi_handle_events
 976              		.align	1
 977 0488 AFF30080 		.p2align 4,,15
 977      AFF30080 
 978              		.global	m2m_wifi_default_connect
 979              		.syntax unified
 980              		.thumb
 981              		.thumb_func
 982              		.fpu softvfp
 983              		.type	m2m_wifi_default_connect, %function
 984              	m2m_wifi_default_connect:
 985              	.LFB339:
 986              		.loc 1 520 0
 987              		.cfi_startproc
 988              		@ args = 0, pretend = 0, frame = 0
 989              		@ frame_needed = 0, uses_anonymous_args = 0
 990 0490 00B5     		push	{lr}
 991              		.cfi_def_cfa_offset 4
 992              		.cfi_offset 14, -4
 993 0492 85B0     		sub	sp, sp, #20
 994              		.cfi_def_cfa_offset 24
 995              		.loc 1 521 0
 996 0494 0022     		movs	r2, #0
 997 0496 0292     		str	r2, [sp, #8]
 998 0498 0192     		str	r2, [sp, #4]
 999 049a 0092     		str	r2, [sp]
 1000 049c 1346     		mov	r3, r2
 1001 049e 2921     		movs	r1, #41
 1002 04a0 0120     		movs	r0, #1
 1003 04a2 FFF7FEFF 		bl	hif_send
 1004              	.LVL140:
 1005              		.loc 1 522 0
 1006 04a6 05B0     		add	sp, sp, #20
 1007              		.cfi_def_cfa_offset 4
 1008              		@ sp needed
 1009 04a8 5DF804FB 		ldr	pc, [sp], #4
 1010              		.cfi_endproc
 1011              	.LFE339:
 1012              		.size	m2m_wifi_default_connect, .-m2m_wifi_default_connect
 1013              		.align	1
 1014 04ac AFF30080 		.p2align 4,,15
 1015              		.global	m2m_wifi_connect_sc
 1016              		.syntax unified
ARM GAS  C:\Users\RAKIBU~1\AppData\Local\Temp\ccQ3AEax.s 			page 19


 1017              		.thumb
 1018              		.thumb_func
 1019              		.fpu softvfp
 1020              		.type	m2m_wifi_connect_sc, %function
 1021              	m2m_wifi_connect_sc:
 1022              	.LFB341:
 1023              		.loc 1 529 0
 1024              		.cfi_startproc
 1025              		@ args = 8, pretend = 0, frame = 112
 1026              		@ frame_needed = 0, uses_anonymous_args = 0
 1027              	.LVL141:
 1028 04b0 2DE9F041 		push	{r4, r5, r6, r7, r8, lr}
 1029              		.cfi_def_cfa_offset 24
 1030              		.cfi_offset 4, -24
 1031              		.cfi_offset 5, -20
 1032              		.cfi_offset 6, -16
 1033              		.cfi_offset 7, -12
 1034              		.cfi_offset 8, -8
 1035              		.cfi_offset 14, -4
 1036 04b4 A0B0     		sub	sp, sp, #128
 1037              		.cfi_def_cfa_offset 152
 1038 04b6 8046     		mov	r8, r0
 1039 04b8 0D46     		mov	r5, r1
 1040 04ba 1446     		mov	r4, r2
 1041 04bc 1E46     		mov	r6, r3
 1042 04be BDF89870 		ldrh	r7, [sp, #152]
 1043              	.LVL142:
 1044              		.loc 1 534 0
 1045 04c2 012A     		cmp	r2, #1
 1046 04c4 04D0     		beq	.L92
 1047              		.loc 1 536 0
 1048 04c6 002B     		cmp	r3, #0
 1049 04c8 00F08680 		beq	.L102
 1050              		.loc 1 542 0
 1051 04cc 022A     		cmp	r2, #2
 1052 04ce 36D0     		beq	.L115
 1053              	.LVL143:
 1054              	.L92:
 1055              		.loc 1 558 0
 1056 04d0 6B1E     		subs	r3, r5, #1
 1057 04d2 DBB2     		uxtb	r3, r3
 1058 04d4 1F2B     		cmp	r3, #31
 1059 04d6 00F28B80 		bhi	.L108
 1060              		.loc 1 565 0
 1061 04da 7B1E     		subs	r3, r7, #1
 1062 04dc 9BB2     		uxth	r3, r3
 1063 04de 0D2B     		cmp	r3, #13
 1064 04e0 02D9     		bls	.L96
 1065              		.loc 1 567 0
 1066 04e2 FF2F     		cmp	r7, #255
 1067 04e4 40F08780 		bne	.L109
 1068              	.L96:
 1069              		.loc 1 576 0
 1070 04e8 2A46     		mov	r2, r5
 1071 04ea 4146     		mov	r1, r8
 1072 04ec 0DF15A00 		add	r0, sp, #90
 1073 04f0 FFF7FEFF 		bl	m2m_memcpy
ARM GAS  C:\Users\RAKIBU~1\AppData\Local\Temp\ccQ3AEax.s 			page 20


 1074              	.LVL144:
 1075              		.loc 1 577 0
 1076 04f4 20AB     		add	r3, sp, #128
 1077 04f6 1D44     		add	r5, r5, r3
 1078 04f8 0023     		movs	r3, #0
 1079 04fa 05F8263C 		strb	r3, [r5, #-38]
 1080              		.loc 1 578 0
 1081 04fe ADF85870 		strh	r7, [sp, #88]	@ movhi
 1082              		.loc 1 580 0
 1083 0502 9DF89C30 		ldrb	r3, [sp, #156]	@ zero_extendqisi2
 1084 0506 0033     		adds	r3, r3, #0
 1085 0508 18BF     		it	ne
 1086 050a 0123     		movne	r3, #1
 1087 050c 8DF87B30 		strb	r3, [sp, #123]
 1088              	.LVL145:
 1089              		.loc 1 582 0
 1090 0510 8DF85540 		strb	r4, [sp, #85]
 1091              		.loc 1 584 0
 1092 0514 032C     		cmp	r4, #3
 1093 0516 2FD0     		beq	.L116
 1094              		.loc 1 609 0
 1095 0518 022C     		cmp	r4, #2
 1096 051a 4AD0     		beq	.L117
 1097              		.loc 1 620 0
 1098 051c 042C     		cmp	r4, #4
 1099 051e 55D0     		beq	.L118
 1100              		.loc 1 624 0
 1101 0520 012C     		cmp	r4, #1
 1102 0522 74D1     		bne	.L113
 1103              	.L99:
 1104              		.loc 1 635 0
 1105 0524 0023     		movs	r3, #0
 1106 0526 0293     		str	r3, [sp, #8]
 1107 0528 0193     		str	r3, [sp, #4]
 1108 052a 0093     		str	r3, [sp]
 1109 052c 6C23     		movs	r3, #108
 1110 052e 05AA     		add	r2, sp, #20
 1111              	.LVL146:
 1112 0530 2821     		movs	r1, #40
 1113 0532 0120     		movs	r0, #1
 1114 0534 FFF7FEFF 		bl	hif_send
 1115              	.LVL147:
 1116              	.L93:
 1117              		.loc 1 639 0
 1118 0538 20B0     		add	sp, sp, #128
 1119              		.cfi_remember_state
 1120              		.cfi_def_cfa_offset 24
 1121              		@ sp needed
 1122 053a BDE8F081 		pop	{r4, r5, r6, r7, r8, pc}
 1123              	.LVL148:
 1124              	.L115:
 1125              		.cfi_restore_state
 1126              		.loc 1 542 0 discriminator 1
 1127 053e 1846     		mov	r0, r3
 1128              	.LVL149:
 1129 0540 FFF7FEFF 		bl	m2m_strlen
 1130              	.LVL150:
ARM GAS  C:\Users\RAKIBU~1\AppData\Local\Temp\ccQ3AEax.s 			page 21


 1131 0544 4028     		cmp	r0, #64
 1132 0546 C3D1     		bne	.L92
 1133              	.LBB13:
 1134              		.loc 1 544 0
 1135 0548 0023     		movs	r3, #0
 1136 054a 01E0     		b	.L94
 1137              	.LVL151:
 1138              	.L119:
 1139              		.loc 1 554 0
 1140 054c 0133     		adds	r3, r3, #1
 1141              	.LVL152:
 1142 054e DBB2     		uxtb	r3, r3
 1143              	.LVL153:
 1144              	.L94:
 1145              		.loc 1 546 0
 1146 0550 3F2B     		cmp	r3, #63
 1147 0552 BDD8     		bhi	.L92
 1148              		.loc 1 548 0
 1149 0554 F25C     		ldrb	r2, [r6, r3]	@ zero_extendqisi2
 1150 0556 2F2A     		cmp	r2, #47
 1151 0558 41D9     		bls	.L104
 1152              		.loc 1 548 0 is_stmt 0 discriminator 1
 1153 055a A2F13A01 		sub	r1, r2, #58
 1154 055e C9B2     		uxtb	r1, r1
 1155 0560 0629     		cmp	r1, #6
 1156 0562 3FD9     		bls	.L105
 1157              		.loc 1 548 0 discriminator 2
 1158 0564 A2F14701 		sub	r1, r2, #71
 1159 0568 C9B2     		uxtb	r1, r1
 1160 056a 1929     		cmp	r1, #25
 1161 056c 3DD9     		bls	.L106
 1162              		.loc 1 548 0 discriminator 3
 1163 056e 662A     		cmp	r2, #102
 1164 0570 ECD9     		bls	.L119
 1165              		.loc 1 551 0 is_stmt 1
 1166 0572 6FF00B00 		mvn	r0, #11
 1167 0576 DFE7     		b	.L93
 1168              	.LVL154:
 1169              	.L116:
 1170              	.LBE13:
 1171              	.LBB14:
 1172              		.loc 1 588 0
 1173 0578 3378     		ldrb	r3, [r6]	@ zero_extendqisi2
 1174 057a 013B     		subs	r3, r3, #1
 1175 057c DBB2     		uxtb	r3, r3
 1176 057e 8DF81430 		strb	r3, [sp, #20]
 1177              		.loc 1 590 0
 1178 0582 032B     		cmp	r3, #3
 1179 0584 3AD8     		bhi	.L110
 1180              		.loc 1 596 0
 1181 0586 7378     		ldrb	r3, [r6, #1]	@ zero_extendqisi2
 1182 0588 013B     		subs	r3, r3, #1
 1183 058a DBB2     		uxtb	r3, r3
 1184 058c 8DF81530 		strb	r3, [sp, #21]
 1185              		.loc 1 597 0
 1186 0590 0A2B     		cmp	r3, #10
 1187 0592 01D0     		beq	.L98
ARM GAS  C:\Users\RAKIBU~1\AppData\Local\Temp\ccQ3AEax.s 			page 22


 1188              		.loc 1 597 0 is_stmt 0 discriminator 1
 1189 0594 1A2B     		cmp	r3, #26
 1190 0596 34D1     		bne	.L111
 1191              	.L98:
 1192              		.loc 1 603 0 is_stmt 1
 1193 0598 7278     		ldrb	r2, [r6, #1]	@ zero_extendqisi2
 1194 059a B11C     		adds	r1, r6, #2
 1195 059c 0DF11600 		add	r0, sp, #22
 1196 05a0 FFF7FEFF 		bl	m2m_memcpy
 1197              	.LVL155:
 1198              		.loc 1 604 0
 1199 05a4 7378     		ldrb	r3, [r6, #1]	@ zero_extendqisi2
 1200 05a6 20AA     		add	r2, sp, #128
 1201 05a8 1344     		add	r3, r3, r2
 1202 05aa 0022     		movs	r2, #0
 1203 05ac 03F86A2C 		strb	r2, [r3, #-106]
 1204              	.LBE14:
 1205 05b0 B8E7     		b	.L99
 1206              	.LVL156:
 1207              	.L117:
 1208              	.LBB15:
 1209              		.loc 1 611 0
 1210 05b2 3046     		mov	r0, r6
 1211 05b4 FFF7FEFF 		bl	m2m_strlen
 1212              	.LVL157:
 1213              		.loc 1 612 0
 1214 05b8 431E     		subs	r3, r0, #1
 1215 05ba 9BB2     		uxth	r3, r3
 1216 05bc 3F2B     		cmp	r3, #63
 1217 05be 23D8     		bhi	.L112
 1218              		.loc 1 618 0
 1219 05c0 421C     		adds	r2, r0, #1
 1220 05c2 3146     		mov	r1, r6
 1221 05c4 05A8     		add	r0, sp, #20
 1222              	.LVL158:
 1223 05c6 FFF7FEFF 		bl	m2m_memcpy
 1224              	.LVL159:
 1225              	.LBE15:
 1226 05ca ABE7     		b	.L99
 1227              	.L118:
 1228              		.loc 1 622 0
 1229 05cc 3E22     		movs	r2, #62
 1230 05ce 3146     		mov	r1, r6
 1231 05d0 05A8     		add	r0, sp, #20
 1232              	.LVL160:
 1233 05d2 FFF7FEFF 		bl	m2m_memcpy
 1234              	.LVL161:
 1235 05d6 A5E7     		b	.L99
 1236              	.LVL162:
 1237              	.L102:
 1238              		.loc 1 539 0
 1239 05d8 6FF00B00 		mvn	r0, #11
 1240              	.LVL163:
 1241 05dc ACE7     		b	.L93
 1242              	.LVL164:
 1243              	.L104:
 1244              	.LBB16:
ARM GAS  C:\Users\RAKIBU~1\AppData\Local\Temp\ccQ3AEax.s 			page 23


 1245              		.loc 1 551 0
 1246 05de 6FF00B00 		mvn	r0, #11
 1247 05e2 A9E7     		b	.L93
 1248              	.L105:
 1249 05e4 6FF00B00 		mvn	r0, #11
 1250 05e8 A6E7     		b	.L93
 1251              	.L106:
 1252 05ea 6FF00B00 		mvn	r0, #11
 1253 05ee A3E7     		b	.L93
 1254              	.LVL165:
 1255              	.L108:
 1256              	.LBE16:
 1257              		.loc 1 561 0
 1258 05f0 6FF00B00 		mvn	r0, #11
 1259 05f4 A0E7     		b	.L93
 1260              	.L109:
 1261              		.loc 1 570 0
 1262 05f6 6FF00B00 		mvn	r0, #11
 1263 05fa 9DE7     		b	.L93
 1264              	.LVL166:
 1265              	.L110:
 1266              	.LBB17:
 1267              		.loc 1 593 0
 1268 05fc 6FF00B00 		mvn	r0, #11
 1269 0600 9AE7     		b	.L93
 1270              	.L111:
 1271              		.loc 1 600 0
 1272 0602 6FF00B00 		mvn	r0, #11
 1273 0606 97E7     		b	.L93
 1274              	.LVL167:
 1275              	.L112:
 1276              	.LBE17:
 1277              	.LBB18:
 1278              		.loc 1 615 0
 1279 0608 6FF00B00 		mvn	r0, #11
 1280              	.LVL168:
 1281 060c 94E7     		b	.L93
 1282              	.L113:
 1283              	.LBE18:
 1284              		.loc 1 631 0
 1285 060e 6FF00B00 		mvn	r0, #11
 1286 0612 91E7     		b	.L93
 1287              		.cfi_endproc
 1288              	.LFE341:
 1289              		.size	m2m_wifi_connect_sc, .-m2m_wifi_connect_sc
 1290              		.align	1
 1291 0614 AFF30080 		.p2align 4,,15
 1291      AFF30080 
 1291      AFF30080 
 1292              		.global	m2m_wifi_connect
 1293              		.syntax unified
 1294              		.thumb
 1295              		.thumb_func
 1296              		.fpu softvfp
 1297              		.type	m2m_wifi_connect, %function
 1298              	m2m_wifi_connect:
 1299              	.LFB340:
ARM GAS  C:\Users\RAKIBU~1\AppData\Local\Temp\ccQ3AEax.s 			page 24


 1300              		.loc 1 525 0
 1301              		.cfi_startproc
 1302              		@ args = 4, pretend = 0, frame = 0
 1303              		@ frame_needed = 0, uses_anonymous_args = 0
 1304              	.LVL169:
 1305 0620 10B5     		push	{r4, lr}
 1306              		.cfi_def_cfa_offset 8
 1307              		.cfi_offset 4, -8
 1308              		.cfi_offset 14, -4
 1309 0622 82B0     		sub	sp, sp, #8
 1310              		.cfi_def_cfa_offset 16
 1311              		.loc 1 526 0
 1312 0624 0024     		movs	r4, #0
 1313 0626 0194     		str	r4, [sp, #4]
 1314 0628 BDF81040 		ldrh	r4, [sp, #16]
 1315 062c 0094     		str	r4, [sp]
 1316 062e FFF7FEFF 		bl	m2m_wifi_connect_sc
 1317              	.LVL170:
 1318              		.loc 1 527 0
 1319 0632 02B0     		add	sp, sp, #8
 1320              		.cfi_def_cfa_offset 8
 1321              		@ sp needed
 1322 0634 10BD     		pop	{r4, pc}
 1323              		.cfi_endproc
 1324              	.LFE340:
 1325              		.size	m2m_wifi_connect, .-m2m_wifi_connect
 1326              		.align	1
 1327 0636 00BFAFF3 		.p2align 4,,15
 1327      0080AFF3 
 1327      0080
 1328              		.global	m2m_wifi_disconnect
 1329              		.syntax unified
 1330              		.thumb
 1331              		.thumb_func
 1332              		.fpu softvfp
 1333              		.type	m2m_wifi_disconnect, %function
 1334              	m2m_wifi_disconnect:
 1335              	.LFB342:
 1336              		.loc 1 642 0
 1337              		.cfi_startproc
 1338              		@ args = 0, pretend = 0, frame = 0
 1339              		@ frame_needed = 0, uses_anonymous_args = 0
 1340 0640 00B5     		push	{lr}
 1341              		.cfi_def_cfa_offset 4
 1342              		.cfi_offset 14, -4
 1343 0642 85B0     		sub	sp, sp, #20
 1344              		.cfi_def_cfa_offset 24
 1345              		.loc 1 643 0
 1346 0644 0022     		movs	r2, #0
 1347 0646 0292     		str	r2, [sp, #8]
 1348 0648 0192     		str	r2, [sp, #4]
 1349 064a 0092     		str	r2, [sp]
 1350 064c 1346     		mov	r3, r2
 1351 064e 2B21     		movs	r1, #43
 1352 0650 0120     		movs	r0, #1
 1353 0652 FFF7FEFF 		bl	hif_send
 1354              	.LVL171:
ARM GAS  C:\Users\RAKIBU~1\AppData\Local\Temp\ccQ3AEax.s 			page 25


 1355              		.loc 1 644 0
 1356 0656 05B0     		add	sp, sp, #20
 1357              		.cfi_def_cfa_offset 4
 1358              		@ sp needed
 1359 0658 5DF804FB 		ldr	pc, [sp], #4
 1360              		.cfi_endproc
 1361              	.LFE342:
 1362              		.size	m2m_wifi_disconnect, .-m2m_wifi_disconnect
 1363              		.align	1
 1364 065c AFF30080 		.p2align 4,,15
 1365              		.global	m2m_wifi_set_mac_address
 1366              		.syntax unified
 1367              		.thumb
 1368              		.thumb_func
 1369              		.fpu softvfp
 1370              		.type	m2m_wifi_set_mac_address, %function
 1371              	m2m_wifi_set_mac_address:
 1372              	.LFB343:
 1373              		.loc 1 646 0
 1374              		.cfi_startproc
 1375              		@ args = 0, pretend = 0, frame = 8
 1376              		@ frame_needed = 0, uses_anonymous_args = 0
 1377              	.LVL172:
 1378 0660 00B5     		push	{lr}
 1379              		.cfi_def_cfa_offset 4
 1380              		.cfi_offset 14, -4
 1381 0662 87B0     		sub	sp, sp, #28
 1382              		.cfi_def_cfa_offset 32
 1383              		.loc 1 648 0
 1384 0664 0622     		movs	r2, #6
 1385 0666 0146     		mov	r1, r0
 1386 0668 04A8     		add	r0, sp, #16
 1387              	.LVL173:
 1388 066a FFF7FEFF 		bl	m2m_memcpy
 1389              	.LVL174:
 1390              		.loc 1 649 0
 1391 066e 0023     		movs	r3, #0
 1392 0670 0293     		str	r3, [sp, #8]
 1393 0672 0193     		str	r3, [sp, #4]
 1394 0674 0093     		str	r3, [sp]
 1395 0676 0823     		movs	r3, #8
 1396 0678 04AA     		add	r2, sp, #16
 1397 067a 0221     		movs	r1, #2
 1398 067c 0120     		movs	r0, #1
 1399 067e FFF7FEFF 		bl	hif_send
 1400              	.LVL175:
 1401              		.loc 1 651 0
 1402 0682 07B0     		add	sp, sp, #28
 1403              		.cfi_def_cfa_offset 4
 1404              		@ sp needed
 1405 0684 5DF804FB 		ldr	pc, [sp], #4
 1406              		.cfi_endproc
 1407              	.LFE343:
 1408              		.size	m2m_wifi_set_mac_address, .-m2m_wifi_set_mac_address
 1409              		.align	1
 1410 0688 AFF30080 		.p2align 4,,15
 1410      AFF30080 
ARM GAS  C:\Users\RAKIBU~1\AppData\Local\Temp\ccQ3AEax.s 			page 26


 1411              		.global	m2m_wifi_set_static_ip
 1412              		.syntax unified
 1413              		.thumb
 1414              		.thumb_func
 1415              		.fpu softvfp
 1416              		.type	m2m_wifi_set_static_ip, %function
 1417              	m2m_wifi_set_static_ip:
 1418              	.LFB344:
 1419              		.loc 1 654 0
 1420              		.cfi_startproc
 1421              		@ args = 0, pretend = 0, frame = 0
 1422              		@ frame_needed = 0, uses_anonymous_args = 0
 1423              	.LVL176:
 1424 0690 00B5     		push	{lr}
 1425              		.cfi_def_cfa_offset 4
 1426              		.cfi_offset 14, -4
 1427 0692 85B0     		sub	sp, sp, #20
 1428              		.cfi_def_cfa_offset 24
 1429              		.loc 1 661 0
 1430 0694 0023     		movs	r3, #0
 1431 0696 0293     		str	r3, [sp, #8]
 1432 0698 0193     		str	r3, [sp, #4]
 1433 069a 0093     		str	r3, [sp]
 1434 069c 1423     		movs	r3, #20
 1435 069e 0246     		mov	r2, r0
 1436 06a0 0A21     		movs	r1, #10
 1437 06a2 0220     		movs	r0, #2
 1438              	.LVL177:
 1439 06a4 FFF7FEFF 		bl	hif_send
 1440              	.LVL178:
 1441              		.loc 1 663 0
 1442 06a8 05B0     		add	sp, sp, #20
 1443              		.cfi_def_cfa_offset 4
 1444              		@ sp needed
 1445 06aa 5DF804FB 		ldr	pc, [sp], #4
 1446              		.cfi_endproc
 1447              	.LFE344:
 1448              		.size	m2m_wifi_set_static_ip, .-m2m_wifi_set_static_ip
 1449              		.align	1
 1450 06ae 00BF     		.p2align 4,,15
 1451              		.global	m2m_wifi_request_dhcp_client
 1452              		.syntax unified
 1453              		.thumb
 1454              		.thumb_func
 1455              		.fpu softvfp
 1456              		.type	m2m_wifi_request_dhcp_client, %function
 1457              	m2m_wifi_request_dhcp_client:
 1458              	.LFB345:
 1459              		.loc 1 666 0
 1460              		.cfi_startproc
 1461              		@ args = 0, pretend = 0, frame = 0
 1462              		@ frame_needed = 0, uses_anonymous_args = 0
 1463              		@ link register save eliminated.
 1464              		.loc 1 669 0
 1465 06b0 0020     		movs	r0, #0
 1466 06b2 7047     		bx	lr
 1467              		.cfi_endproc
ARM GAS  C:\Users\RAKIBU~1\AppData\Local\Temp\ccQ3AEax.s 			page 27


 1468              	.LFE345:
 1469              		.size	m2m_wifi_request_dhcp_client, .-m2m_wifi_request_dhcp_client
 1470              		.align	1
 1471 06b4 AFF30080 		.p2align 4,,15
 1471      AFF30080 
 1471      AFF30080 
 1472              		.global	m2m_wifi_request_dhcp_server
 1473              		.syntax unified
 1474              		.thumb
 1475              		.thumb_func
 1476              		.fpu softvfp
 1477              		.type	m2m_wifi_request_dhcp_server, %function
 1478              	m2m_wifi_request_dhcp_server:
 1479              	.LFB346:
 1480              		.loc 1 671 0
 1481              		.cfi_startproc
 1482              		@ args = 0, pretend = 0, frame = 0
 1483              		@ frame_needed = 0, uses_anonymous_args = 0
 1484              		@ link register save eliminated.
 1485              	.LVL179:
 1486              		.loc 1 675 0
 1487 06c0 0020     		movs	r0, #0
 1488              	.LVL180:
 1489 06c2 7047     		bx	lr
 1490              		.cfi_endproc
 1491              	.LFE346:
 1492              		.size	m2m_wifi_request_dhcp_server, .-m2m_wifi_request_dhcp_server
 1493              		.align	1
 1494 06c4 AFF30080 		.p2align 4,,15
 1494      AFF30080 
 1494      AFF30080 
 1495              		.global	m2m_wifi_enable_dhcp
 1496              		.syntax unified
 1497              		.thumb
 1498              		.thumb_func
 1499              		.fpu softvfp
 1500              		.type	m2m_wifi_enable_dhcp, %function
 1501              	m2m_wifi_enable_dhcp:
 1502              	.LFB347:
 1503              		.loc 1 688 0
 1504              		.cfi_startproc
 1505              		@ args = 0, pretend = 0, frame = 0
 1506              		@ frame_needed = 0, uses_anonymous_args = 0
 1507              	.LVL181:
 1508 06d0 00B5     		push	{lr}
 1509              		.cfi_def_cfa_offset 4
 1510              		.cfi_offset 14, -4
 1511 06d2 85B0     		sub	sp, sp, #20
 1512              		.cfi_def_cfa_offset 24
 1513              		.loc 1 691 0
 1514 06d4 58B9     		cbnz	r0, .L134
 1515 06d6 0C21     		movs	r1, #12
 1516              	.L131:
 1517              	.LVL182:
 1518              		.loc 1 692 0 discriminator 4
 1519 06d8 0022     		movs	r2, #0
 1520 06da 0292     		str	r2, [sp, #8]
ARM GAS  C:\Users\RAKIBU~1\AppData\Local\Temp\ccQ3AEax.s 			page 28


 1521 06dc 0192     		str	r2, [sp, #4]
 1522 06de 0092     		str	r2, [sp]
 1523 06e0 1346     		mov	r3, r2
 1524 06e2 0220     		movs	r0, #2
 1525              	.LVL183:
 1526 06e4 FFF7FEFF 		bl	hif_send
 1527              	.LVL184:
 1528              		.loc 1 695 0 discriminator 4
 1529 06e8 05B0     		add	sp, sp, #20
 1530              		.cfi_remember_state
 1531              		.cfi_def_cfa_offset 4
 1532              		@ sp needed
 1533 06ea 5DF804FB 		ldr	pc, [sp], #4
 1534              	.LVL185:
 1535              	.L134:
 1536              		.cfi_restore_state
 1537              		.loc 1 691 0
 1538 06ee 0B21     		movs	r1, #11
 1539 06f0 F2E7     		b	.L131
 1540              		.cfi_endproc
 1541              	.LFE347:
 1542              		.size	m2m_wifi_enable_dhcp, .-m2m_wifi_enable_dhcp
 1543              		.align	1
 1544 06f2 00BFAFF3 		.p2align 4,,15
 1544      0080AFF3 
 1544      0080AFF3 
 1544      0080
 1545              		.global	m2m_wifi_set_lsn_int
 1546              		.syntax unified
 1547              		.thumb
 1548              		.thumb_func
 1549              		.fpu softvfp
 1550              		.type	m2m_wifi_set_lsn_int, %function
 1551              	m2m_wifi_set_lsn_int:
 1552              	.LFB348:
 1553              		.loc 1 698 0
 1554              		.cfi_startproc
 1555              		@ args = 0, pretend = 0, frame = 0
 1556              		@ frame_needed = 0, uses_anonymous_args = 0
 1557              	.LVL186:
 1558 0700 00B5     		push	{lr}
 1559              		.cfi_def_cfa_offset 4
 1560              		.cfi_offset 14, -4
 1561 0702 85B0     		sub	sp, sp, #20
 1562              		.cfi_def_cfa_offset 24
 1563              		.loc 1 699 0
 1564 0704 0023     		movs	r3, #0
 1565 0706 0293     		str	r3, [sp, #8]
 1566 0708 0193     		str	r3, [sp, #4]
 1567 070a 0093     		str	r3, [sp]
 1568 070c 0423     		movs	r3, #4
 1569 070e 0246     		mov	r2, r0
 1570 0710 3921     		movs	r1, #57
 1571 0712 0120     		movs	r0, #1
 1572              	.LVL187:
 1573 0714 FFF7FEFF 		bl	hif_send
 1574              	.LVL188:
ARM GAS  C:\Users\RAKIBU~1\AppData\Local\Temp\ccQ3AEax.s 			page 29


 1575              		.loc 1 700 0
 1576 0718 05B0     		add	sp, sp, #20
 1577              		.cfi_def_cfa_offset 4
 1578              		@ sp needed
 1579 071a 5DF804FB 		ldr	pc, [sp], #4
 1580              		.cfi_endproc
 1581              	.LFE348:
 1582              		.size	m2m_wifi_set_lsn_int, .-m2m_wifi_set_lsn_int
 1583              		.align	1
 1584 071e 00BF     		.p2align 4,,15
 1585              		.global	m2m_wifi_set_cust_InfoElement
 1586              		.syntax unified
 1587              		.thumb
 1588              		.thumb_func
 1589              		.fpu softvfp
 1590              		.type	m2m_wifi_set_cust_InfoElement, %function
 1591              	m2m_wifi_set_cust_InfoElement:
 1592              	.LFB349:
 1593              		.loc 1 703 0
 1594              		.cfi_startproc
 1595              		@ args = 0, pretend = 0, frame = 0
 1596              		@ frame_needed = 0, uses_anonymous_args = 0
 1597              	.LVL189:
 1598              		.loc 1 706 0
 1599 0720 90B1     		cbz	r0, .L139
 1600 0722 0246     		mov	r2, r0
 1601              		.loc 1 708 0
 1602 0724 0378     		ldrb	r3, [r0]	@ zero_extendqisi2
 1603 0726 591C     		adds	r1, r3, #1
 1604 0728 FB29     		cmp	r1, #251
 1605 072a 10DC     		bgt	.L140
 1606              		.loc 1 703 0
 1607 072c 00B5     		push	{lr}
 1608              		.cfi_def_cfa_offset 4
 1609              		.cfi_offset 14, -4
 1610 072e 85B0     		sub	sp, sp, #20
 1611              		.cfi_def_cfa_offset 24
 1612              		.loc 1 710 0
 1613 0730 0021     		movs	r1, #0
 1614 0732 0291     		str	r1, [sp, #8]
 1615 0734 0191     		str	r1, [sp, #4]
 1616 0736 0091     		str	r1, [sp]
 1617 0738 0133     		adds	r3, r3, #1
 1618 073a 8F21     		movs	r1, #143
 1619 073c 0120     		movs	r0, #1
 1620              	.LVL190:
 1621 073e FFF7FEFF 		bl	hif_send
 1622              	.LVL191:
 1623              		.loc 1 714 0
 1624 0742 05B0     		add	sp, sp, #20
 1625              		.cfi_def_cfa_offset 4
 1626              		@ sp needed
 1627 0744 5DF804FB 		ldr	pc, [sp], #4
 1628              	.LVL192:
 1629              	.L139:
 1630              		.cfi_def_cfa_offset 0
 1631              		.cfi_restore 14
ARM GAS  C:\Users\RAKIBU~1\AppData\Local\Temp\ccQ3AEax.s 			page 30


 1632              		.loc 1 705 0
 1633 0748 6FF00B00 		mvn	r0, #11
 1634              	.LVL193:
 1635 074c 7047     		bx	lr
 1636              	.LVL194:
 1637              	.L140:
 1638 074e 6FF00B00 		mvn	r0, #11
 1639              	.LVL195:
 1640              		.loc 1 714 0
 1641 0752 7047     		bx	lr
 1642              		.cfi_endproc
 1643              	.LFE349:
 1644              		.size	m2m_wifi_set_cust_InfoElement, .-m2m_wifi_set_cust_InfoElement
 1645              		.align	1
 1646 0754 AFF30080 		.p2align 4,,15
 1646      AFF30080 
 1646      AFF30080 
 1647              		.global	m2m_wifi_set_scan_options
 1648              		.syntax unified
 1649              		.thumb
 1650              		.thumb_func
 1651              		.fpu softvfp
 1652              		.type	m2m_wifi_set_scan_options, %function
 1653              	m2m_wifi_set_scan_options:
 1654              	.LFB350:
 1655              		.loc 1 717 0
 1656              		.cfi_startproc
 1657              		@ args = 0, pretend = 0, frame = 0
 1658              		@ frame_needed = 0, uses_anonymous_args = 0
 1659              	.LVL196:
 1660 0760 10B5     		push	{r4, lr}
 1661              		.cfi_def_cfa_offset 8
 1662              		.cfi_offset 4, -8
 1663              		.cfi_offset 14, -4
 1664 0762 84B0     		sub	sp, sp, #16
 1665              		.cfi_def_cfa_offset 24
 1666 0764 0446     		mov	r4, r0
 1667              	.LVL197:
 1668              		.loc 1 719 0
 1669 0766 FFF74BFC 		bl	m2m_validate_scan_options
 1670              	.LVL198:
 1671 076a 58B9     		cbnz	r0, .L147
 1672              		.loc 1 721 0
 1673 076c 0023     		movs	r3, #0
 1674 076e 0293     		str	r3, [sp, #8]
 1675 0770 0193     		str	r3, [sp, #4]
 1676 0772 0093     		str	r3, [sp]
 1677 0774 0423     		movs	r3, #4
 1678 0776 2246     		mov	r2, r4
 1679 0778 1421     		movs	r1, #20
 1680 077a 0120     		movs	r0, #1
 1681 077c FFF7FEFF 		bl	hif_send
 1682              	.LVL199:
 1683              	.L146:
 1684              		.loc 1 724 0
 1685 0780 04B0     		add	sp, sp, #16
 1686              		.cfi_remember_state
ARM GAS  C:\Users\RAKIBU~1\AppData\Local\Temp\ccQ3AEax.s 			page 31


 1687              		.cfi_def_cfa_offset 8
 1688              		@ sp needed
 1689 0782 10BD     		pop	{r4, pc}
 1690              	.LVL200:
 1691              	.L147:
 1692              		.cfi_restore_state
 1693              		.loc 1 718 0
 1694 0784 6FF00B00 		mvn	r0, #11
 1695 0788 FAE7     		b	.L146
 1696              		.cfi_endproc
 1697              	.LFE350:
 1698              		.size	m2m_wifi_set_scan_options, .-m2m_wifi_set_scan_options
 1699              		.align	1
 1700 078a 00BFAFF3 		.p2align 4,,15
 1700      0080
 1701              		.global	m2m_wifi_set_scan_region
 1702              		.syntax unified
 1703              		.thumb
 1704              		.thumb_func
 1705              		.fpu softvfp
 1706              		.type	m2m_wifi_set_scan_region, %function
 1707              	m2m_wifi_set_scan_region:
 1708              	.LFB351:
 1709              		.loc 1 726 0
 1710              		.cfi_startproc
 1711              		@ args = 0, pretend = 0, frame = 8
 1712              		@ frame_needed = 0, uses_anonymous_args = 0
 1713              	.LVL201:
 1714 0790 00B5     		push	{lr}
 1715              		.cfi_def_cfa_offset 4
 1716              		.cfi_offset 14, -4
 1717 0792 87B0     		sub	sp, sp, #28
 1718              		.cfi_def_cfa_offset 32
 1719              	.LVL202:
 1720              		.loc 1 729 0
 1721 0794 06AA     		add	r2, sp, #24
 1722 0796 22F8040D 		strh	r0, [r2, #-4]!	@ movhi
 1723              		.loc 1 730 0
 1724 079a 0023     		movs	r3, #0
 1725 079c 0293     		str	r3, [sp, #8]
 1726 079e 0193     		str	r3, [sp, #4]
 1727 07a0 0093     		str	r3, [sp]
 1728 07a2 0423     		movs	r3, #4
 1729 07a4 1521     		movs	r1, #21
 1730 07a6 0120     		movs	r0, #1
 1731              	.LVL203:
 1732 07a8 FFF7FEFF 		bl	hif_send
 1733              	.LVL204:
 1734              		.loc 1 732 0
 1735 07ac 07B0     		add	sp, sp, #28
 1736              		.cfi_def_cfa_offset 4
 1737              		@ sp needed
 1738 07ae 5DF804FB 		ldr	pc, [sp], #4
 1739              		.cfi_endproc
 1740              	.LFE351:
 1741              		.size	m2m_wifi_set_scan_region, .-m2m_wifi_set_scan_region
 1742              		.align	1
ARM GAS  C:\Users\RAKIBU~1\AppData\Local\Temp\ccQ3AEax.s 			page 32


 1743 07b2 00BFAFF3 		.p2align 4,,15
 1743      0080AFF3 
 1743      0080AFF3 
 1743      0080
 1744              		.global	m2m_wifi_request_scan
 1745              		.syntax unified
 1746              		.thumb
 1747              		.thumb_func
 1748              		.fpu softvfp
 1749              		.type	m2m_wifi_request_scan, %function
 1750              	m2m_wifi_request_scan:
 1751              	.LFB352:
 1752              		.loc 1 734 0
 1753              		.cfi_startproc
 1754              		@ args = 0, pretend = 0, frame = 8
 1755              		@ frame_needed = 0, uses_anonymous_args = 0
 1756              	.LVL205:
 1757              		.loc 1 737 0
 1758 07c0 134B     		ldr	r3, .L160
 1759 07c2 1B79     		ldrb	r3, [r3, #4]	@ zero_extendqisi2
 1760 07c4 E3B9     		cbnz	r3, .L155
 1761              		.loc 1 739 0
 1762 07c6 431E     		subs	r3, r0, #1
 1763 07c8 DBB2     		uxtb	r3, r3
 1764 07ca 0D2B     		cmp	r3, #13
 1765 07cc 01D9     		bls	.L153
 1766              		.loc 1 739 0 is_stmt 0 discriminator 1
 1767 07ce FF28     		cmp	r0, #255
 1768 07d0 19D1     		bne	.L156
 1769              	.L153:
 1770              		.loc 1 734 0 is_stmt 1
 1771 07d2 00B5     		push	{lr}
 1772              		.cfi_def_cfa_offset 4
 1773              		.cfi_offset 14, -4
 1774 07d4 87B0     		sub	sp, sp, #28
 1775              		.cfi_def_cfa_offset 32
 1776              	.LBB19:
 1777              		.loc 1 742 0
 1778 07d6 06AA     		add	r2, sp, #24
 1779 07d8 02F8040D 		strb	r0, [r2, #-4]!
 1780              		.loc 1 743 0
 1781 07dc 0023     		movs	r3, #0
 1782 07de 0293     		str	r3, [sp, #8]
 1783 07e0 0193     		str	r3, [sp, #4]
 1784 07e2 0093     		str	r3, [sp]
 1785 07e4 0423     		movs	r3, #4
 1786 07e6 1021     		movs	r1, #16
 1787 07e8 0120     		movs	r0, #1
 1788              	.LVL206:
 1789 07ea FFF7FEFF 		bl	hif_send
 1790              	.LVL207:
 1791              		.loc 1 744 0
 1792 07ee 0346     		mov	r3, r0
 1793 07f0 10B9     		cbnz	r0, .L152
 1794              		.loc 1 746 0
 1795 07f2 074A     		ldr	r2, .L160
 1796 07f4 0121     		movs	r1, #1
ARM GAS  C:\Users\RAKIBU~1\AppData\Local\Temp\ccQ3AEax.s 			page 33


 1797 07f6 1171     		strb	r1, [r2, #4]
 1798              	.L152:
 1799              	.LVL208:
 1800              	.LBE19:
 1801              		.loc 1 759 0
 1802 07f8 1846     		mov	r0, r3
 1803 07fa 07B0     		add	sp, sp, #28
 1804              		.cfi_def_cfa_offset 4
 1805              		@ sp needed
 1806 07fc 5DF804FB 		ldr	pc, [sp], #4
 1807              	.LVL209:
 1808              	.L155:
 1809              		.cfi_def_cfa_offset 0
 1810              		.cfi_restore 14
 1811              		.loc 1 756 0
 1812 0800 6FF00D03 		mvn	r3, #13
 1813 0804 01E0     		b	.L158
 1814              	.L156:
 1815              		.loc 1 751 0
 1816 0806 6FF00E03 		mvn	r3, #14
 1817              	.L158:
 1818              	.LVL210:
 1819              		.loc 1 759 0
 1820 080a 1846     		mov	r0, r3
 1821              	.LVL211:
 1822 080c 7047     		bx	lr
 1823              	.L161:
 1824 080e 00BF     		.align	2
 1825              	.L160:
 1826 0810 00000000 		.word	.LANCHOR0
 1827              		.cfi_endproc
 1828              	.LFE352:
 1829              		.size	m2m_wifi_request_scan, .-m2m_wifi_request_scan
 1830              		.align	1
 1831 0814 AFF30080 		.p2align 4,,15
 1831      AFF30080 
 1831      AFF30080 
 1832              		.global	m2m_wifi_request_scan_passive
 1833              		.syntax unified
 1834              		.thumb
 1835              		.thumb_func
 1836              		.fpu softvfp
 1837              		.type	m2m_wifi_request_scan_passive, %function
 1838              	m2m_wifi_request_scan_passive:
 1839              	.LFB353:
 1840              		.loc 1 762 0
 1841              		.cfi_startproc
 1842              		@ args = 0, pretend = 0, frame = 8
 1843              		@ frame_needed = 0, uses_anonymous_args = 0
 1844              	.LVL212:
 1845              		.loc 1 765 0
 1846 0820 144B     		ldr	r3, .L171
 1847 0822 1B79     		ldrb	r3, [r3, #4]	@ zero_extendqisi2
 1848 0824 F3B9     		cbnz	r3, .L166
 1849              		.loc 1 767 0
 1850 0826 431E     		subs	r3, r0, #1
 1851 0828 DBB2     		uxtb	r3, r3
ARM GAS  C:\Users\RAKIBU~1\AppData\Local\Temp\ccQ3AEax.s 			page 34


 1852 082a 0D2B     		cmp	r3, #13
 1853 082c 01D9     		bls	.L164
 1854              		.loc 1 767 0 is_stmt 0 discriminator 1
 1855 082e FF28     		cmp	r0, #255
 1856 0830 1BD1     		bne	.L167
 1857              	.L164:
 1858              		.loc 1 762 0 is_stmt 1
 1859 0832 00B5     		push	{lr}
 1860              		.cfi_def_cfa_offset 4
 1861              		.cfi_offset 14, -4
 1862 0834 87B0     		sub	sp, sp, #28
 1863              		.cfi_def_cfa_offset 32
 1864              	.LBB20:
 1865              		.loc 1 770 0
 1866 0836 8DF81400 		strb	r0, [sp, #20]
 1867              		.loc 1 772 0
 1868 083a ADF81610 		strh	r1, [sp, #22]	@ movhi
 1869              		.loc 1 774 0
 1870 083e 0023     		movs	r3, #0
 1871 0840 0293     		str	r3, [sp, #8]
 1872 0842 0193     		str	r3, [sp, #4]
 1873 0844 0093     		str	r3, [sp]
 1874 0846 0423     		movs	r3, #4
 1875 0848 05AA     		add	r2, sp, #20
 1876 084a 2321     		movs	r1, #35
 1877              	.LVL213:
 1878 084c 0120     		movs	r0, #1
 1879              	.LVL214:
 1880 084e FFF7FEFF 		bl	hif_send
 1881              	.LVL215:
 1882              		.loc 1 775 0
 1883 0852 0346     		mov	r3, r0
 1884 0854 10B9     		cbnz	r0, .L163
 1885              		.loc 1 777 0
 1886 0856 074A     		ldr	r2, .L171
 1887 0858 0121     		movs	r1, #1
 1888 085a 1171     		strb	r1, [r2, #4]
 1889              	.L163:
 1890              	.LVL216:
 1891              	.LBE20:
 1892              		.loc 1 790 0
 1893 085c 1846     		mov	r0, r3
 1894 085e 07B0     		add	sp, sp, #28
 1895              		.cfi_def_cfa_offset 4
 1896              		@ sp needed
 1897 0860 5DF804FB 		ldr	pc, [sp], #4
 1898              	.LVL217:
 1899              	.L166:
 1900              		.cfi_def_cfa_offset 0
 1901              		.cfi_restore 14
 1902              		.loc 1 787 0
 1903 0864 6FF00D03 		mvn	r3, #13
 1904 0868 01E0     		b	.L169
 1905              	.L167:
 1906              		.loc 1 782 0
 1907 086a 6FF00E03 		mvn	r3, #14
 1908              	.L169:
ARM GAS  C:\Users\RAKIBU~1\AppData\Local\Temp\ccQ3AEax.s 			page 35


 1909              	.LVL218:
 1910              		.loc 1 790 0
 1911 086e 1846     		mov	r0, r3
 1912              	.LVL219:
 1913 0870 7047     		bx	lr
 1914              	.L172:
 1915 0872 00BF     		.align	2
 1916              	.L171:
 1917 0874 00000000 		.word	.LANCHOR0
 1918              		.cfi_endproc
 1919              	.LFE353:
 1920              		.size	m2m_wifi_request_scan_passive, .-m2m_wifi_request_scan_passive
 1921              		.align	1
 1922 0878 AFF30080 		.p2align 4,,15
 1922      AFF30080 
 1923              		.global	m2m_wifi_request_scan_ssid_list
 1924              		.syntax unified
 1925              		.thumb
 1926              		.thumb_func
 1927              		.fpu softvfp
 1928              		.type	m2m_wifi_request_scan_ssid_list, %function
 1929              	m2m_wifi_request_scan_ssid_list:
 1930              	.LFB354:
 1931              		.loc 1 793 0
 1932              		.cfi_startproc
 1933              		@ args = 0, pretend = 0, frame = 8
 1934              		@ frame_needed = 0, uses_anonymous_args = 0
 1935              	.LVL220:
 1936              		.loc 1 796 0
 1937 0880 1E4B     		ldr	r3, .L189
 1938 0882 1B79     		ldrb	r3, [r3, #4]	@ zero_extendqisi2
 1939 0884 8BBB     		cbnz	r3, .L180
 1940              		.loc 1 798 0
 1941 0886 431E     		subs	r3, r0, #1
 1942 0888 DBB2     		uxtb	r3, r3
 1943 088a 0D2B     		cmp	r3, #13
 1944 088c 01D9     		bls	.L175
 1945              		.loc 1 798 0 is_stmt 0 discriminator 2
 1946 088e FF28     		cmp	r0, #255
 1947 0890 2ED1     		bne	.L181
 1948              	.L175:
 1949              		.loc 1 798 0 discriminator 3
 1950 0892 81B3     		cbz	r1, .L182
 1951              	.LVL221:
 1952              	.LBB21:
 1953              		.loc 1 802 0 is_stmt 1
 1954 0894 0A78     		ldrb	r2, [r1]	@ zero_extendqisi2
 1955              	.LVL222:
 1956              		.loc 1 803 0
 1957 0896 042A     		cmp	r2, #4
 1958 0898 0DD8     		bhi	.L187
 1959              	.LBE21:
 1960              		.loc 1 793 0
 1961 089a 10B5     		push	{r4, lr}
 1962              		.cfi_def_cfa_offset 8
 1963              		.cfi_offset 4, -8
 1964              		.cfi_offset 14, -4
ARM GAS  C:\Users\RAKIBU~1\AppData\Local\Temp\ccQ3AEax.s 			page 36


 1965 089c 86B0     		sub	sp, sp, #24
 1966              		.cfi_def_cfa_offset 32
 1967              	.LBB22:
 1968              		.loc 1 805 0
 1969 089e 0124     		movs	r4, #1
 1970              	.LVL223:
 1971              	.L176:
 1972              		.loc 1 806 0
 1973 08a0 6AB1     		cbz	r2, .L188
 1974              		.loc 1 808 0
 1975 08a2 0B5D     		ldrb	r3, [r1, r4]	@ zero_extendqisi2
 1976 08a4 202B     		cmp	r3, #32
 1977 08a6 1BD8     		bhi	.L178
 1978              		.loc 1 811 0
 1979 08a8 2344     		add	r3, r3, r4
 1980 08aa 9BB2     		uxth	r3, r3
 1981 08ac 0133     		adds	r3, r3, #1
 1982 08ae 9CB2     		uxth	r4, r3
 1983              	.LVL224:
 1984              		.loc 1 812 0
 1985 08b0 013A     		subs	r2, r2, #1
 1986              	.LVL225:
 1987 08b2 D2B2     		uxtb	r2, r2
 1988              	.LVL226:
 1989 08b4 F4E7     		b	.L176
 1990              	.LVL227:
 1991              	.L187:
 1992              		.cfi_def_cfa_offset 0
 1993              		.cfi_restore 4
 1994              		.cfi_restore 14
 1995              	.LBE22:
 1996              		.loc 1 794 0
 1997 08b6 6FF00E03 		mvn	r3, #14
 1998              	.LVL228:
 1999              	.L185:
 2000              		.loc 1 830 0
 2001 08ba 1846     		mov	r0, r3
 2002              	.LVL229:
 2003 08bc 7047     		bx	lr
 2004              	.LVL230:
 2005              	.L188:
 2006              		.cfi_def_cfa_offset 32
 2007              		.cfi_offset 4, -8
 2008              		.cfi_offset 14, -4
 2009              	.LBB23:
 2010              		.loc 1 815 0
 2011 08be 06AA     		add	r2, sp, #24
 2012              	.LVL231:
 2013 08c0 02F8040D 		strb	r0, [r2, #-4]!
 2014              		.loc 1 816 0
 2015 08c4 0423     		movs	r3, #4
 2016 08c6 0293     		str	r3, [sp, #8]
 2017 08c8 0194     		str	r4, [sp, #4]
 2018 08ca 0091     		str	r1, [sp]
 2019 08cc A121     		movs	r1, #161
 2020              	.LVL232:
 2021 08ce 0120     		movs	r0, #1
ARM GAS  C:\Users\RAKIBU~1\AppData\Local\Temp\ccQ3AEax.s 			page 37


 2022              	.LVL233:
 2023 08d0 FFF7FEFF 		bl	hif_send
 2024              	.LVL234:
 2025              		.loc 1 817 0
 2026 08d4 0346     		mov	r3, r0
 2027 08d6 28B9     		cbnz	r0, .L174
 2028              		.loc 1 819 0
 2029 08d8 084A     		ldr	r2, .L189
 2030 08da 0121     		movs	r1, #1
 2031 08dc 1171     		strb	r1, [r2, #4]
 2032              	.LVL235:
 2033 08de 01E0     		b	.L174
 2034              	.LVL236:
 2035              	.L178:
 2036              	.LBE23:
 2037              		.loc 1 794 0
 2038 08e0 6FF00E03 		mvn	r3, #14
 2039              	.LVL237:
 2040              	.L174:
 2041              		.loc 1 830 0
 2042 08e4 1846     		mov	r0, r3
 2043 08e6 06B0     		add	sp, sp, #24
 2044              		.cfi_def_cfa_offset 8
 2045              		@ sp needed
 2046 08e8 10BD     		pop	{r4, pc}
 2047              	.LVL238:
 2048              	.L180:
 2049              		.cfi_def_cfa_offset 0
 2050              		.cfi_restore 4
 2051              		.cfi_restore 14
 2052              		.loc 1 826 0
 2053 08ea 6FF00D03 		mvn	r3, #13
 2054 08ee E4E7     		b	.L185
 2055              	.L181:
 2056              		.loc 1 794 0
 2057 08f0 6FF00E03 		mvn	r3, #14
 2058 08f4 E1E7     		b	.L185
 2059              	.L182:
 2060 08f6 6FF00E03 		mvn	r3, #14
 2061 08fa DEE7     		b	.L185
 2062              	.L190:
 2063              		.align	2
 2064              	.L189:
 2065 08fc 00000000 		.word	.LANCHOR0
 2066              		.cfi_endproc
 2067              	.LFE354:
 2068              		.size	m2m_wifi_request_scan_ssid_list, .-m2m_wifi_request_scan_ssid_list
 2069              		.align	1
 2070              		.p2align 4,,15
 2071              		.global	m2m_wifi_wps
 2072              		.syntax unified
 2073              		.thumb
 2074              		.thumb_func
 2075              		.fpu softvfp
 2076              		.type	m2m_wifi_wps, %function
 2077              	m2m_wifi_wps:
 2078              	.LFB355:
ARM GAS  C:\Users\RAKIBU~1\AppData\Local\Temp\ccQ3AEax.s 			page 38


 2079              		.loc 1 832 0
 2080              		.cfi_startproc
 2081              		@ args = 0, pretend = 0, frame = 16
 2082              		@ frame_needed = 0, uses_anonymous_args = 0
 2083              	.LVL239:
 2084 0900 00B5     		push	{lr}
 2085              		.cfi_def_cfa_offset 4
 2086              		.cfi_offset 14, -4
 2087 0902 89B0     		sub	sp, sp, #36
 2088              		.cfi_def_cfa_offset 40
 2089              		.loc 1 837 0
 2090 0904 0C4B     		ldr	r3, .L195
 2091 0906 0022     		movs	r2, #0
 2092 0908 1A71     		strb	r2, [r3, #4]
 2093              		.loc 1 838 0
 2094 090a 8DF81400 		strb	r0, [sp, #20]
 2095              		.loc 1 840 0
 2096 090e 60B1     		cbz	r0, .L194
 2097              	.LVL240:
 2098              	.L192:
 2099              		.loc 1 842 0
 2100 0910 0023     		movs	r3, #0
 2101 0912 0293     		str	r3, [sp, #8]
 2102 0914 0193     		str	r3, [sp, #4]
 2103 0916 0093     		str	r3, [sp]
 2104 0918 0C23     		movs	r3, #12
 2105 091a 05AA     		add	r2, sp, #20
 2106 091c 2F21     		movs	r1, #47
 2107 091e 0120     		movs	r0, #1
 2108 0920 FFF7FEFF 		bl	hif_send
 2109              	.LVL241:
 2110              		.loc 1 843 0
 2111 0924 09B0     		add	sp, sp, #36
 2112              		.cfi_remember_state
 2113              		.cfi_def_cfa_offset 4
 2114              		@ sp needed
 2115 0926 5DF804FB 		ldr	pc, [sp], #4
 2116              	.LVL242:
 2117              	.L194:
 2118              		.cfi_restore_state
 2119              		.loc 1 841 0
 2120 092a 0822     		movs	r2, #8
 2121 092c 0DF11500 		add	r0, sp, #21
 2122              	.LVL243:
 2123 0930 FFF7FEFF 		bl	m2m_memcpy
 2124              	.LVL244:
 2125 0934 ECE7     		b	.L192
 2126              	.L196:
 2127 0936 00BF     		.align	2
 2128              	.L195:
 2129 0938 00000000 		.word	.LANCHOR0
 2130              		.cfi_endproc
 2131              	.LFE355:
 2132              		.size	m2m_wifi_wps, .-m2m_wifi_wps
 2133              		.align	1
 2134 093c AFF30080 		.p2align 4,,15
 2135              		.global	m2m_wifi_wps_disable
ARM GAS  C:\Users\RAKIBU~1\AppData\Local\Temp\ccQ3AEax.s 			page 39


 2136              		.syntax unified
 2137              		.thumb
 2138              		.thumb_func
 2139              		.fpu softvfp
 2140              		.type	m2m_wifi_wps_disable, %function
 2141              	m2m_wifi_wps_disable:
 2142              	.LFB356:
 2143              		.loc 1 845 0
 2144              		.cfi_startproc
 2145              		@ args = 0, pretend = 0, frame = 0
 2146              		@ frame_needed = 0, uses_anonymous_args = 0
 2147 0940 00B5     		push	{lr}
 2148              		.cfi_def_cfa_offset 4
 2149              		.cfi_offset 14, -4
 2150 0942 85B0     		sub	sp, sp, #20
 2151              		.cfi_def_cfa_offset 24
 2152              	.LVL245:
 2153              		.loc 1 847 0
 2154 0944 0022     		movs	r2, #0
 2155 0946 0292     		str	r2, [sp, #8]
 2156 0948 0192     		str	r2, [sp, #4]
 2157 094a 0092     		str	r2, [sp]
 2158 094c 1346     		mov	r3, r2
 2159 094e 3121     		movs	r1, #49
 2160 0950 0120     		movs	r0, #1
 2161 0952 FFF7FEFF 		bl	hif_send
 2162              	.LVL246:
 2163              		.loc 1 849 0
 2164 0956 05B0     		add	sp, sp, #20
 2165              		.cfi_def_cfa_offset 4
 2166              		@ sp needed
 2167 0958 5DF804FB 		ldr	pc, [sp], #4
 2168              		.cfi_endproc
 2169              	.LFE356:
 2170              		.size	m2m_wifi_wps_disable, .-m2m_wifi_wps_disable
 2171              		.align	1
 2172 095c AFF30080 		.p2align 4,,15
 2173              		.global	m2m_wifi_req_client_ctrl
 2174              		.syntax unified
 2175              		.thumb
 2176              		.thumb_func
 2177              		.fpu softvfp
 2178              		.type	m2m_wifi_req_client_ctrl, %function
 2179              	m2m_wifi_req_client_ctrl:
 2180              	.LFB357:
 2181              		.loc 1 862 0
 2182              		.cfi_startproc
 2183              		@ args = 0, pretend = 0, frame = 0
 2184              		@ frame_needed = 0, uses_anonymous_args = 0
 2185              		@ link register save eliminated.
 2186              	.LVL247:
 2187              		.loc 1 873 0
 2188 0960 0020     		movs	r0, #0
 2189              	.LVL248:
 2190 0962 7047     		bx	lr
 2191              		.cfi_endproc
 2192              	.LFE357:
ARM GAS  C:\Users\RAKIBU~1\AppData\Local\Temp\ccQ3AEax.s 			page 40


 2193              		.size	m2m_wifi_req_client_ctrl, .-m2m_wifi_req_client_ctrl
 2194              		.align	1
 2195 0964 AFF30080 		.p2align 4,,15
 2195      AFF30080 
 2195      AFF30080 
 2196              		.global	m2m_wifi_req_server_init
 2197              		.syntax unified
 2198              		.thumb
 2199              		.thumb_func
 2200              		.fpu softvfp
 2201              		.type	m2m_wifi_req_server_init, %function
 2202              	m2m_wifi_req_server_init:
 2203              	.LFB358:
 2204              		.loc 1 885 0
 2205              		.cfi_startproc
 2206              		@ args = 0, pretend = 0, frame = 0
 2207              		@ frame_needed = 0, uses_anonymous_args = 0
 2208              		@ link register save eliminated.
 2209              	.LVL249:
 2210              		.loc 1 895 0
 2211 0970 0020     		movs	r0, #0
 2212              	.LVL250:
 2213 0972 7047     		bx	lr
 2214              		.cfi_endproc
 2215              	.LFE358:
 2216              		.size	m2m_wifi_req_server_init, .-m2m_wifi_req_server_init
 2217              		.align	1
 2218 0974 AFF30080 		.p2align 4,,15
 2218      AFF30080 
 2218      AFF30080 
 2219              		.global	m2m_wifi_p2p
 2220              		.syntax unified
 2221              		.thumb
 2222              		.thumb_func
 2223              		.fpu softvfp
 2224              		.type	m2m_wifi_p2p, %function
 2225              	m2m_wifi_p2p:
 2226              	.LFB359:
 2227              		.loc 1 897 0
 2228              		.cfi_startproc
 2229              		@ args = 0, pretend = 0, frame = 8
 2230              		@ frame_needed = 0, uses_anonymous_args = 0
 2231              	.LVL251:
 2232              		.loc 1 899 0
 2233 0980 0128     		cmp	r0, #1
 2234 0982 03D0     		beq	.L202
 2235              		.loc 1 899 0 is_stmt 0 discriminator 1
 2236 0984 0628     		cmp	r0, #6
 2237 0986 01D0     		beq	.L202
 2238              		.loc 1 899 0 discriminator 2
 2239 0988 0B28     		cmp	r0, #11
 2240 098a 10D1     		bne	.L204
 2241              	.L202:
 2242              		.loc 1 897 0 is_stmt 1
 2243 098c 00B5     		push	{lr}
 2244              		.cfi_def_cfa_offset 4
 2245              		.cfi_offset 14, -4
ARM GAS  C:\Users\RAKIBU~1\AppData\Local\Temp\ccQ3AEax.s 			page 41


 2246 098e 87B0     		sub	sp, sp, #28
 2247              		.cfi_def_cfa_offset 32
 2248              	.LBB24:
 2249              		.loc 1 902 0
 2250 0990 06AA     		add	r2, sp, #24
 2251 0992 02F8040D 		strb	r0, [r2, #-4]!
 2252              		.loc 1 903 0
 2253 0996 0023     		movs	r3, #0
 2254 0998 0293     		str	r3, [sp, #8]
 2255 099a 0193     		str	r3, [sp, #4]
 2256 099c 0093     		str	r3, [sp]
 2257 099e 0423     		movs	r3, #4
 2258 09a0 5B21     		movs	r1, #91
 2259 09a2 0120     		movs	r0, #1
 2260              	.LVL252:
 2261 09a4 FFF7FEFF 		bl	hif_send
 2262              	.LVL253:
 2263              	.LBE24:
 2264              		.loc 1 911 0
 2265 09a8 07B0     		add	sp, sp, #28
 2266              		.cfi_def_cfa_offset 4
 2267              		@ sp needed
 2268 09aa 5DF804FB 		ldr	pc, [sp], #4
 2269              	.LVL254:
 2270              	.L204:
 2271              		.cfi_def_cfa_offset 0
 2272              		.cfi_restore 14
 2273              		.loc 1 908 0
 2274 09ae 6FF00B00 		mvn	r0, #11
 2275              	.LVL255:
 2276              		.loc 1 911 0
 2277 09b2 7047     		bx	lr
 2278              		.cfi_endproc
 2279              	.LFE359:
 2280              		.size	m2m_wifi_p2p, .-m2m_wifi_p2p
 2281              		.align	1
 2282 09b4 AFF30080 		.p2align 4,,15
 2282      AFF30080 
 2282      AFF30080 
 2283              		.global	m2m_wifi_p2p_disconnect
 2284              		.syntax unified
 2285              		.thumb
 2286              		.thumb_func
 2287              		.fpu softvfp
 2288              		.type	m2m_wifi_p2p_disconnect, %function
 2289              	m2m_wifi_p2p_disconnect:
 2290              	.LFB360:
 2291              		.loc 1 913 0
 2292              		.cfi_startproc
 2293              		@ args = 0, pretend = 0, frame = 0
 2294              		@ frame_needed = 0, uses_anonymous_args = 0
 2295 09c0 00B5     		push	{lr}
 2296              		.cfi_def_cfa_offset 4
 2297              		.cfi_offset 14, -4
 2298 09c2 85B0     		sub	sp, sp, #20
 2299              		.cfi_def_cfa_offset 24
 2300              	.LVL256:
ARM GAS  C:\Users\RAKIBU~1\AppData\Local\Temp\ccQ3AEax.s 			page 42


 2301              		.loc 1 915 0
 2302 09c4 0022     		movs	r2, #0
 2303 09c6 0292     		str	r2, [sp, #8]
 2304 09c8 0192     		str	r2, [sp, #4]
 2305 09ca 0092     		str	r2, [sp]
 2306 09cc 1346     		mov	r3, r2
 2307 09ce 5C21     		movs	r1, #92
 2308 09d0 0120     		movs	r0, #1
 2309 09d2 FFF7FEFF 		bl	hif_send
 2310              	.LVL257:
 2311              		.loc 1 917 0
 2312 09d6 05B0     		add	sp, sp, #20
 2313              		.cfi_def_cfa_offset 4
 2314              		@ sp needed
 2315 09d8 5DF804FB 		ldr	pc, [sp], #4
 2316              		.cfi_endproc
 2317              	.LFE360:
 2318              		.size	m2m_wifi_p2p_disconnect, .-m2m_wifi_p2p_disconnect
 2319              		.align	1
 2320 09dc AFF30080 		.p2align 4,,15
 2321              		.global	m2m_wifi_enable_ap
 2322              		.syntax unified
 2323              		.thumb
 2324              		.thumb_func
 2325              		.fpu softvfp
 2326              		.type	m2m_wifi_enable_ap, %function
 2327              	m2m_wifi_enable_ap:
 2328              	.LFB361:
 2329              		.loc 1 919 0
 2330              		.cfi_startproc
 2331              		@ args = 0, pretend = 0, frame = 0
 2332              		@ frame_needed = 0, uses_anonymous_args = 0
 2333              	.LVL258:
 2334 09e0 10B5     		push	{r4, lr}
 2335              		.cfi_def_cfa_offset 8
 2336              		.cfi_offset 4, -8
 2337              		.cfi_offset 14, -4
 2338 09e2 84B0     		sub	sp, sp, #16
 2339              		.cfi_def_cfa_offset 24
 2340 09e4 0446     		mov	r4, r0
 2341              	.LVL259:
 2342              		.loc 1 921 0
 2343 09e6 FFF74BFC 		bl	m2m_validate_ap_parameters
 2344              	.LVL260:
 2345 09ea 58B9     		cbnz	r0, .L212
 2346              		.loc 1 923 0
 2347 09ec 0023     		movs	r3, #0
 2348 09ee 0293     		str	r3, [sp, #8]
 2349 09f0 0193     		str	r3, [sp, #4]
 2350 09f2 0093     		str	r3, [sp]
 2351 09f4 8823     		movs	r3, #136
 2352 09f6 2246     		mov	r2, r4
 2353 09f8 4621     		movs	r1, #70
 2354 09fa 0120     		movs	r0, #1
 2355 09fc FFF7FEFF 		bl	hif_send
 2356              	.LVL261:
 2357              	.L211:
ARM GAS  C:\Users\RAKIBU~1\AppData\Local\Temp\ccQ3AEax.s 			page 43


 2358              		.loc 1 926 0
 2359 0a00 04B0     		add	sp, sp, #16
 2360              		.cfi_remember_state
 2361              		.cfi_def_cfa_offset 8
 2362              		@ sp needed
 2363 0a02 10BD     		pop	{r4, pc}
 2364              	.LVL262:
 2365              	.L212:
 2366              		.cfi_restore_state
 2367              		.loc 1 920 0
 2368 0a04 6FF00B00 		mvn	r0, #11
 2369 0a08 FAE7     		b	.L211
 2370              		.cfi_endproc
 2371              	.LFE361:
 2372              		.size	m2m_wifi_enable_ap, .-m2m_wifi_enable_ap
 2373              		.align	1
 2374 0a0a 00BFAFF3 		.p2align 4,,15
 2374      0080
 2375              		.global	m2m_wifi_set_gains
 2376              		.syntax unified
 2377              		.thumb
 2378              		.thumb_func
 2379              		.fpu softvfp
 2380              		.type	m2m_wifi_set_gains, %function
 2381              	m2m_wifi_set_gains:
 2382              	.LFB362:
 2383              		.loc 1 929 0
 2384              		.cfi_startproc
 2385              		@ args = 0, pretend = 0, frame = 0
 2386              		@ frame_needed = 0, uses_anonymous_args = 0
 2387              	.LVL263:
 2388              		.loc 1 931 0
 2389 0a10 70B1     		cbz	r0, .L216
 2390              		.loc 1 929 0
 2391 0a12 00B5     		push	{lr}
 2392              		.cfi_def_cfa_offset 4
 2393              		.cfi_offset 14, -4
 2394 0a14 85B0     		sub	sp, sp, #20
 2395              		.cfi_def_cfa_offset 24
 2396 0a16 0246     		mov	r2, r0
 2397              		.loc 1 933 0
 2398 0a18 0023     		movs	r3, #0
 2399 0a1a 0293     		str	r3, [sp, #8]
 2400 0a1c 0193     		str	r3, [sp, #4]
 2401 0a1e 0093     		str	r3, [sp]
 2402 0a20 0423     		movs	r3, #4
 2403 0a22 2221     		movs	r1, #34
 2404 0a24 0120     		movs	r0, #1
 2405              	.LVL264:
 2406 0a26 FFF7FEFF 		bl	hif_send
 2407              	.LVL265:
 2408              		.loc 1 936 0
 2409 0a2a 05B0     		add	sp, sp, #20
 2410              		.cfi_def_cfa_offset 4
 2411              		@ sp needed
 2412 0a2c 5DF804FB 		ldr	pc, [sp], #4
 2413              	.LVL266:
ARM GAS  C:\Users\RAKIBU~1\AppData\Local\Temp\ccQ3AEax.s 			page 44


 2414              	.L216:
 2415              		.cfi_def_cfa_offset 0
 2416              		.cfi_restore 14
 2417              		.loc 1 930 0
 2418 0a30 6FF00B00 		mvn	r0, #11
 2419              	.LVL267:
 2420              		.loc 1 936 0
 2421 0a34 7047     		bx	lr
 2422              		.cfi_endproc
 2423              	.LFE362:
 2424              		.size	m2m_wifi_set_gains, .-m2m_wifi_set_gains
 2425              		.align	1
 2426 0a36 00BFAFF3 		.p2align 4,,15
 2426      0080AFF3 
 2426      0080
 2427              		.global	m2m_wifi_disable_ap
 2428              		.syntax unified
 2429              		.thumb
 2430              		.thumb_func
 2431              		.fpu softvfp
 2432              		.type	m2m_wifi_disable_ap, %function
 2433              	m2m_wifi_disable_ap:
 2434              	.LFB363:
 2435              		.loc 1 938 0
 2436              		.cfi_startproc
 2437              		@ args = 0, pretend = 0, frame = 0
 2438              		@ frame_needed = 0, uses_anonymous_args = 0
 2439 0a40 00B5     		push	{lr}
 2440              		.cfi_def_cfa_offset 4
 2441              		.cfi_offset 14, -4
 2442 0a42 85B0     		sub	sp, sp, #20
 2443              		.cfi_def_cfa_offset 24
 2444              	.LVL268:
 2445              		.loc 1 940 0
 2446 0a44 0022     		movs	r2, #0
 2447 0a46 0292     		str	r2, [sp, #8]
 2448 0a48 0192     		str	r2, [sp, #4]
 2449 0a4a 0092     		str	r2, [sp]
 2450 0a4c 1346     		mov	r3, r2
 2451 0a4e 4721     		movs	r1, #71
 2452 0a50 0120     		movs	r0, #1
 2453 0a52 FFF7FEFF 		bl	hif_send
 2454              	.LVL269:
 2455              		.loc 1 942 0
 2456 0a56 05B0     		add	sp, sp, #20
 2457              		.cfi_def_cfa_offset 4
 2458              		@ sp needed
 2459 0a58 5DF804FB 		ldr	pc, [sp], #4
 2460              		.cfi_endproc
 2461              	.LFE363:
 2462              		.size	m2m_wifi_disable_ap, .-m2m_wifi_disable_ap
 2463              		.align	1
 2464 0a5c AFF30080 		.p2align 4,,15
 2465              		.global	m2m_wifi_req_curr_rssi
 2466              		.syntax unified
 2467              		.thumb
 2468              		.thumb_func
ARM GAS  C:\Users\RAKIBU~1\AppData\Local\Temp\ccQ3AEax.s 			page 45


 2469              		.fpu softvfp
 2470              		.type	m2m_wifi_req_curr_rssi, %function
 2471              	m2m_wifi_req_curr_rssi:
 2472              	.LFB364:
 2473              		.loc 1 951 0
 2474              		.cfi_startproc
 2475              		@ args = 0, pretend = 0, frame = 0
 2476              		@ frame_needed = 0, uses_anonymous_args = 0
 2477 0a60 00B5     		push	{lr}
 2478              		.cfi_def_cfa_offset 4
 2479              		.cfi_offset 14, -4
 2480 0a62 85B0     		sub	sp, sp, #20
 2481              		.cfi_def_cfa_offset 24
 2482              	.LVL270:
 2483              		.loc 1 953 0
 2484 0a64 0022     		movs	r2, #0
 2485 0a66 0292     		str	r2, [sp, #8]
 2486 0a68 0192     		str	r2, [sp, #4]
 2487 0a6a 0092     		str	r2, [sp]
 2488 0a6c 1346     		mov	r3, r2
 2489 0a6e 0321     		movs	r1, #3
 2490 0a70 0120     		movs	r0, #1
 2491 0a72 FFF7FEFF 		bl	hif_send
 2492              	.LVL271:
 2493              		.loc 1 955 0
 2494 0a76 05B0     		add	sp, sp, #20
 2495              		.cfi_def_cfa_offset 4
 2496              		@ sp needed
 2497 0a78 5DF804FB 		ldr	pc, [sp], #4
 2498              		.cfi_endproc
 2499              	.LFE364:
 2500              		.size	m2m_wifi_req_curr_rssi, .-m2m_wifi_req_curr_rssi
 2501              		.align	1
 2502 0a7c AFF30080 		.p2align 4,,15
 2503              		.global	m2m_wifi_send_ethernet_pkt
 2504              		.syntax unified
 2505              		.thumb
 2506              		.thumb_func
 2507              		.fpu softvfp
 2508              		.type	m2m_wifi_send_ethernet_pkt, %function
 2509              	m2m_wifi_send_ethernet_pkt:
 2510              	.LFB365:
 2511              		.loc 1 957 0
 2512              		.cfi_startproc
 2513              		@ args = 0, pretend = 0, frame = 8
 2514              		@ frame_needed = 0, uses_anonymous_args = 0
 2515              	.LVL272:
 2516              		.loc 1 959 0
 2517 0a80 A0B1     		cbz	r0, .L227
 2518              		.loc 1 959 0 is_stmt 0 discriminator 1
 2519 0a82 B1B1     		cbz	r1, .L228
 2520              		.loc 1 957 0 is_stmt 1
 2521 0a84 00B5     		push	{lr}
 2522              		.cfi_def_cfa_offset 4
 2523              		.cfi_offset 14, -4
 2524 0a86 87B0     		sub	sp, sp, #28
 2525              		.cfi_def_cfa_offset 32
ARM GAS  C:\Users\RAKIBU~1\AppData\Local\Temp\ccQ3AEax.s 			page 46


 2526              	.LBB25:
 2527              		.loc 1 963 0
 2528 0a88 ADF81410 		strh	r1, [sp, #20]	@ movhi
 2529              		.loc 1 964 0
 2530 0a8c 0E22     		movs	r2, #14
 2531 0a8e ADF81620 		strh	r2, [sp, #22]	@ movhi
 2532              		.loc 1 965 0
 2533 0a92 1A22     		movs	r2, #26
 2534 0a94 0292     		str	r2, [sp, #8]
 2535 0a96 0191     		str	r1, [sp, #4]
 2536 0a98 0090     		str	r0, [sp]
 2537 0a9a 0423     		movs	r3, #4
 2538 0a9c 05AA     		add	r2, sp, #20
 2539 0a9e 9C21     		movs	r1, #156
 2540              	.LVL273:
 2541 0aa0 0120     		movs	r0, #1
 2542              	.LVL274:
 2543 0aa2 FFF7FEFF 		bl	hif_send
 2544              	.LVL275:
 2545              	.LBE25:
 2546              		.loc 1 969 0
 2547 0aa6 07B0     		add	sp, sp, #28
 2548              		.cfi_def_cfa_offset 4
 2549              		@ sp needed
 2550 0aa8 5DF804FB 		ldr	pc, [sp], #4
 2551              	.LVL276:
 2552              	.L227:
 2553              		.cfi_def_cfa_offset 0
 2554              		.cfi_restore 14
 2555              		.loc 1 958 0
 2556 0aac 4FF0FF30 		mov	r0, #-1
 2557              	.LVL277:
 2558 0ab0 7047     		bx	lr
 2559              	.LVL278:
 2560              	.L228:
 2561 0ab2 4FF0FF30 		mov	r0, #-1
 2562              	.LVL279:
 2563              		.loc 1 969 0
 2564 0ab6 7047     		bx	lr
 2565              		.cfi_endproc
 2566              	.LFE365:
 2567              		.size	m2m_wifi_send_ethernet_pkt, .-m2m_wifi_send_ethernet_pkt
 2568              		.align	1
 2569 0ab8 AFF30080 		.p2align 4,,15
 2569      AFF30080 
 2570              		.global	m2m_wifi_get_otp_mac_address
 2571              		.syntax unified
 2572              		.thumb
 2573              		.thumb_func
 2574              		.fpu softvfp
 2575              		.type	m2m_wifi_get_otp_mac_address, %function
 2576              	m2m_wifi_get_otp_mac_address:
 2577              	.LFB366:
 2578              		.loc 1 984 0
 2579              		.cfi_startproc
 2580              		@ args = 0, pretend = 0, frame = 0
 2581              		@ frame_needed = 0, uses_anonymous_args = 0
ARM GAS  C:\Users\RAKIBU~1\AppData\Local\Temp\ccQ3AEax.s 			page 47


 2582              	.LVL280:
 2583 0ac0 38B5     		push	{r3, r4, r5, lr}
 2584              		.cfi_def_cfa_offset 16
 2585              		.cfi_offset 3, -16
 2586              		.cfi_offset 4, -12
 2587              		.cfi_offset 5, -8
 2588              		.cfi_offset 14, -4
 2589 0ac2 0446     		mov	r4, r0
 2590 0ac4 0D46     		mov	r5, r1
 2591              	.LVL281:
 2592              		.loc 1 986 0
 2593 0ac6 FFF7FEFF 		bl	hif_chip_wake
 2594              	.LVL282:
 2595              		.loc 1 987 0
 2596 0aca 0346     		mov	r3, r0
 2597 0acc 08B1     		cbz	r0, .L236
 2598              	.LVL283:
 2599              	.L234:
 2600              		.loc 1 996 0
 2601 0ace 1846     		mov	r0, r3
 2602 0ad0 38BD     		pop	{r3, r4, r5, pc}
 2603              	.LVL284:
 2604              	.L236:
 2605              		.loc 1 989 0
 2606 0ad2 2946     		mov	r1, r5
 2607 0ad4 2046     		mov	r0, r4
 2608              	.LVL285:
 2609 0ad6 FFF7FEFF 		bl	nmi_get_otp_mac_address
 2610              	.LVL286:
 2611              		.loc 1 990 0
 2612 0ada 0346     		mov	r3, r0
 2613 0adc 0028     		cmp	r0, #0
 2614 0ade F6D1     		bne	.L234
 2615              		.loc 1 992 0
 2616 0ae0 FFF7FEFF 		bl	hif_chip_sleep
 2617              	.LVL287:
 2618 0ae4 0346     		mov	r3, r0
 2619              	.LVL288:
 2620 0ae6 F2E7     		b	.L234
 2621              		.cfi_endproc
 2622              	.LFE366:
 2623              		.size	m2m_wifi_get_otp_mac_address, .-m2m_wifi_get_otp_mac_address
 2624              		.align	1
 2625 0ae8 AFF30080 		.p2align 4,,15
 2625      AFF30080 
 2626              		.global	m2m_wifi_get_mac_address
 2627              		.syntax unified
 2628              		.thumb
 2629              		.thumb_func
 2630              		.fpu softvfp
 2631              		.type	m2m_wifi_get_mac_address, %function
 2632              	m2m_wifi_get_mac_address:
 2633              	.LFB367:
 2634              		.loc 1 1008 0
 2635              		.cfi_startproc
 2636              		@ args = 0, pretend = 0, frame = 0
 2637              		@ frame_needed = 0, uses_anonymous_args = 0
ARM GAS  C:\Users\RAKIBU~1\AppData\Local\Temp\ccQ3AEax.s 			page 48


 2638              	.LVL289:
 2639 0af0 10B5     		push	{r4, lr}
 2640              		.cfi_def_cfa_offset 8
 2641              		.cfi_offset 4, -8
 2642              		.cfi_offset 14, -4
 2643 0af2 0446     		mov	r4, r0
 2644              	.LVL290:
 2645              		.loc 1 1010 0
 2646 0af4 FFF7FEFF 		bl	hif_chip_wake
 2647              	.LVL291:
 2648              		.loc 1 1011 0
 2649 0af8 0346     		mov	r3, r0
 2650 0afa 08B1     		cbz	r0, .L240
 2651              	.LVL292:
 2652              	.L238:
 2653              		.loc 1 1021 0
 2654 0afc 1846     		mov	r0, r3
 2655 0afe 10BD     		pop	{r4, pc}
 2656              	.LVL293:
 2657              	.L240:
 2658              		.loc 1 1013 0
 2659 0b00 2046     		mov	r0, r4
 2660              	.LVL294:
 2661 0b02 FFF7FEFF 		bl	nmi_get_mac_address
 2662              	.LVL295:
 2663              		.loc 1 1014 0
 2664 0b06 0346     		mov	r3, r0
 2665 0b08 0028     		cmp	r0, #0
 2666 0b0a F7D1     		bne	.L238
 2667              		.loc 1 1016 0
 2668 0b0c FFF7FEFF 		bl	hif_chip_sleep
 2669              	.LVL296:
 2670 0b10 0346     		mov	r3, r0
 2671              	.LVL297:
 2672 0b12 F3E7     		b	.L238
 2673              		.cfi_endproc
 2674              	.LFE367:
 2675              		.size	m2m_wifi_get_mac_address, .-m2m_wifi_get_mac_address
 2676              		.align	1
 2677 0b14 AFF30080 		.p2align 4,,15
 2677      AFF30080 
 2677      AFF30080 
 2678              		.global	m2m_wifi_req_scan_result
 2679              		.syntax unified
 2680              		.thumb
 2681              		.thumb_func
 2682              		.fpu softvfp
 2683              		.type	m2m_wifi_req_scan_result, %function
 2684              	m2m_wifi_req_scan_result:
 2685              	.LFB368:
 2686              		.loc 1 1040 0
 2687              		.cfi_startproc
 2688              		@ args = 0, pretend = 0, frame = 8
 2689              		@ frame_needed = 0, uses_anonymous_args = 0
 2690              	.LVL298:
 2691 0b20 00B5     		push	{lr}
 2692              		.cfi_def_cfa_offset 4
ARM GAS  C:\Users\RAKIBU~1\AppData\Local\Temp\ccQ3AEax.s 			page 49


 2693              		.cfi_offset 14, -4
 2694 0b22 87B0     		sub	sp, sp, #28
 2695              		.cfi_def_cfa_offset 32
 2696              	.LVL299:
 2697              		.loc 1 1043 0
 2698 0b24 06AA     		add	r2, sp, #24
 2699 0b26 02F8040D 		strb	r0, [r2, #-4]!
 2700              		.loc 1 1044 0
 2701 0b2a 0023     		movs	r3, #0
 2702 0b2c 0293     		str	r3, [sp, #8]
 2703 0b2e 0193     		str	r3, [sp, #4]
 2704 0b30 0093     		str	r3, [sp]
 2705 0b32 0423     		movs	r3, #4
 2706 0b34 1221     		movs	r1, #18
 2707 0b36 0120     		movs	r0, #1
 2708              	.LVL300:
 2709 0b38 FFF7FEFF 		bl	hif_send
 2710              	.LVL301:
 2711              		.loc 1 1046 0
 2712 0b3c 07B0     		add	sp, sp, #28
 2713              		.cfi_def_cfa_offset 4
 2714              		@ sp needed
 2715 0b3e 5DF804FB 		ldr	pc, [sp], #4
 2716              		.cfi_endproc
 2717              	.LFE368:
 2718              		.size	m2m_wifi_req_scan_result, .-m2m_wifi_req_scan_result
 2719              		.align	1
 2720 0b42 00BFAFF3 		.p2align 4,,15
 2720      0080AFF3 
 2720      0080AFF3 
 2720      0080
 2721              		.global	m2m_wifi_get_num_ap_found
 2722              		.syntax unified
 2723              		.thumb
 2724              		.thumb_func
 2725              		.fpu softvfp
 2726              		.type	m2m_wifi_get_num_ap_found, %function
 2727              	m2m_wifi_get_num_ap_found:
 2728              	.LFB369:
 2729              		.loc 1 1060 0
 2730              		.cfi_startproc
 2731              		@ args = 0, pretend = 0, frame = 0
 2732              		@ frame_needed = 0, uses_anonymous_args = 0
 2733              		@ link register save eliminated.
 2734              		.loc 1 1061 0
 2735 0b50 014B     		ldr	r3, .L244
 2736 0b52 5879     		ldrb	r0, [r3, #5]	@ zero_extendqisi2
 2737              		.loc 1 1062 0
 2738 0b54 7047     		bx	lr
 2739              	.L245:
 2740 0b56 00BF     		.align	2
 2741              	.L244:
 2742 0b58 00000000 		.word	.LANCHOR0
 2743              		.cfi_endproc
 2744              	.LFE369:
 2745              		.size	m2m_wifi_get_num_ap_found, .-m2m_wifi_get_num_ap_found
 2746              		.align	1
ARM GAS  C:\Users\RAKIBU~1\AppData\Local\Temp\ccQ3AEax.s 			page 50


 2747 0b5c AFF30080 		.p2align 4,,15
 2748              		.global	m2m_wifi_get_sleep_mode
 2749              		.syntax unified
 2750              		.thumb
 2751              		.thumb_func
 2752              		.fpu softvfp
 2753              		.type	m2m_wifi_get_sleep_mode, %function
 2754              	m2m_wifi_get_sleep_mode:
 2755              	.LFB370:
 2756              		.loc 1 1070 0
 2757              		.cfi_startproc
 2758              		@ args = 0, pretend = 0, frame = 0
 2759              		@ frame_needed = 0, uses_anonymous_args = 0
 2760 0b60 08B5     		push	{r3, lr}
 2761              		.cfi_def_cfa_offset 8
 2762              		.cfi_offset 3, -8
 2763              		.cfi_offset 14, -4
 2764              		.loc 1 1071 0
 2765 0b62 FFF7FEFF 		bl	hif_get_sleep_mode
 2766              	.LVL302:
 2767              		.loc 1 1072 0
 2768 0b66 08BD     		pop	{r3, pc}
 2769              		.cfi_endproc
 2770              	.LFE370:
 2771              		.size	m2m_wifi_get_sleep_mode, .-m2m_wifi_get_sleep_mode
 2772              		.align	1
 2773 0b68 AFF30080 		.p2align 4,,15
 2773      AFF30080 
 2774              		.global	m2m_wifi_set_sleep_mode
 2775              		.syntax unified
 2776              		.thumb
 2777              		.thumb_func
 2778              		.fpu softvfp
 2779              		.type	m2m_wifi_set_sleep_mode, %function
 2780              	m2m_wifi_set_sleep_mode:
 2781              	.LFB371:
 2782              		.loc 1 1088 0
 2783              		.cfi_startproc
 2784              		@ args = 0, pretend = 0, frame = 8
 2785              		@ frame_needed = 0, uses_anonymous_args = 0
 2786              	.LVL303:
 2787 0b70 30B5     		push	{r4, r5, lr}
 2788              		.cfi_def_cfa_offset 12
 2789              		.cfi_offset 4, -12
 2790              		.cfi_offset 5, -8
 2791              		.cfi_offset 14, -4
 2792 0b72 87B0     		sub	sp, sp, #28
 2793              		.cfi_def_cfa_offset 40
 2794 0b74 0446     		mov	r4, r0
 2795              	.LVL304:
 2796              		.loc 1 1091 0
 2797 0b76 8DF81400 		strb	r0, [sp, #20]
 2798              		.loc 1 1092 0
 2799 0b7a 8DF81510 		strb	r1, [sp, #21]
 2800              		.loc 1 1093 0
 2801 0b7e 0023     		movs	r3, #0
 2802 0b80 0293     		str	r3, [sp, #8]
ARM GAS  C:\Users\RAKIBU~1\AppData\Local\Temp\ccQ3AEax.s 			page 51


 2803 0b82 0193     		str	r3, [sp, #4]
 2804 0b84 0093     		str	r3, [sp]
 2805 0b86 0423     		movs	r3, #4
 2806 0b88 05AA     		add	r2, sp, #20
 2807 0b8a 2D21     		movs	r1, #45
 2808              	.LVL305:
 2809 0b8c 0120     		movs	r0, #1
 2810              	.LVL306:
 2811 0b8e FFF7FEFF 		bl	hif_send
 2812              	.LVL307:
 2813 0b92 0546     		mov	r5, r0
 2814              	.LVL308:
 2815              		.loc 1 1095 0
 2816 0b94 2046     		mov	r0, r4
 2817 0b96 FFF7FEFF 		bl	hif_set_sleep_mode
 2818              	.LVL309:
 2819              		.loc 1 1097 0
 2820 0b9a 2846     		mov	r0, r5
 2821 0b9c 07B0     		add	sp, sp, #28
 2822              		.cfi_def_cfa_offset 12
 2823              		@ sp needed
 2824 0b9e 30BD     		pop	{r4, r5, pc}
 2825              		.cfi_endproc
 2826              	.LFE371:
 2827              		.size	m2m_wifi_set_sleep_mode, .-m2m_wifi_set_sleep_mode
 2828              		.align	1
 2829              		.p2align 4,,15
 2830              		.global	m2m_wifi_request_sleep
 2831              		.syntax unified
 2832              		.thumb
 2833              		.thumb_func
 2834              		.fpu softvfp
 2835              		.type	m2m_wifi_request_sleep, %function
 2836              	m2m_wifi_request_sleep:
 2837              	.LFB372:
 2838              		.loc 1 1108 0
 2839              		.cfi_startproc
 2840              		@ args = 0, pretend = 0, frame = 8
 2841              		@ frame_needed = 0, uses_anonymous_args = 0
 2842              	.LVL310:
 2843 0ba0 10B5     		push	{r4, lr}
 2844              		.cfi_def_cfa_offset 8
 2845              		.cfi_offset 4, -8
 2846              		.cfi_offset 14, -4
 2847 0ba2 86B0     		sub	sp, sp, #24
 2848              		.cfi_def_cfa_offset 32
 2849 0ba4 0446     		mov	r4, r0
 2850              	.LVL311:
 2851              		.loc 1 1111 0
 2852 0ba6 FFF7FEFF 		bl	hif_get_sleep_mode
 2853              	.LVL312:
 2854              		.loc 1 1112 0
 2855 0baa 0428     		cmp	r0, #4
 2856 0bac 02D0     		beq	.L254
 2857              		.loc 1 1109 0
 2858 0bae 0020     		movs	r0, #0
 2859              	.LVL313:
ARM GAS  C:\Users\RAKIBU~1\AppData\Local\Temp\ccQ3AEax.s 			page 52


 2860              	.L251:
 2861              		.loc 1 1119 0
 2862 0bb0 06B0     		add	sp, sp, #24
 2863              		.cfi_remember_state
 2864              		.cfi_def_cfa_offset 8
 2865              		@ sp needed
 2866 0bb2 10BD     		pop	{r4, pc}
 2867              	.LVL314:
 2868              	.L254:
 2869              		.cfi_restore_state
 2870              	.LBB26:
 2871              		.loc 1 1115 0
 2872 0bb4 06AA     		add	r2, sp, #24
 2873 0bb6 42F8044D 		str	r4, [r2, #-4]!
 2874              		.loc 1 1116 0
 2875 0bba 0023     		movs	r3, #0
 2876 0bbc 0293     		str	r3, [sp, #8]
 2877 0bbe 0193     		str	r3, [sp, #4]
 2878 0bc0 0093     		str	r3, [sp]
 2879 0bc2 0423     		movs	r3, #4
 2880 0bc4 3A21     		movs	r1, #58
 2881 0bc6 0120     		movs	r0, #1
 2882              	.LVL315:
 2883 0bc8 FFF7FEFF 		bl	hif_send
 2884              	.LVL316:
 2885 0bcc F0E7     		b	.L251
 2886              	.LBE26:
 2887              		.cfi_endproc
 2888              	.LFE372:
 2889              		.size	m2m_wifi_request_sleep, .-m2m_wifi_request_sleep
 2890              		.align	1
 2891 0bce 00BF     		.p2align 4,,15
 2892              		.global	m2m_wifi_set_device_name
 2893              		.syntax unified
 2894              		.thumb
 2895              		.thumb_func
 2896              		.fpu softvfp
 2897              		.type	m2m_wifi_set_device_name, %function
 2898              	m2m_wifi_set_device_name:
 2899              	.LFB373:
 2900              		.loc 1 1131 0
 2901              		.cfi_startproc
 2902              		@ args = 0, pretend = 0, frame = 48
 2903              		@ frame_needed = 0, uses_anonymous_args = 0
 2904              	.LVL317:
 2905 0bd0 00B5     		push	{lr}
 2906              		.cfi_def_cfa_offset 4
 2907              		.cfi_offset 14, -4
 2908 0bd2 91B0     		sub	sp, sp, #68
 2909              		.cfi_def_cfa_offset 72
 2910              		.loc 1 1133 0
 2911 0bd4 2F29     		cmp	r1, #47
 2912 0bd6 00D9     		bls	.L256
 2913              		.loc 1 1135 0
 2914 0bd8 3021     		movs	r1, #48
 2915              	.LVL318:
 2916              	.L256:
ARM GAS  C:\Users\RAKIBU~1\AppData\Local\Temp\ccQ3AEax.s 			page 53


 2917              		.loc 1 1138 0
 2918 0bda 4A1C     		adds	r2, r1, #1
 2919              	.LVL319:
 2920              		.loc 1 1139 0
 2921 0bdc D2B2     		uxtb	r2, r2
 2922 0bde 0146     		mov	r1, r0
 2923 0be0 04A8     		add	r0, sp, #16
 2924              	.LVL320:
 2925 0be2 FFF7FEFF 		bl	m2m_memcpy
 2926              	.LVL321:
 2927              		.loc 1 1140 0
 2928 0be6 0023     		movs	r3, #0
 2929 0be8 0293     		str	r3, [sp, #8]
 2930 0bea 0193     		str	r3, [sp, #4]
 2931 0bec 0093     		str	r3, [sp]
 2932 0bee 3023     		movs	r3, #48
 2933 0bf0 04AA     		add	r2, sp, #16
 2934 0bf2 0721     		movs	r1, #7
 2935 0bf4 0120     		movs	r0, #1
 2936 0bf6 FFF7FEFF 		bl	hif_send
 2937              	.LVL322:
 2938              		.loc 1 1142 0
 2939 0bfa 11B0     		add	sp, sp, #68
 2940              		.cfi_def_cfa_offset 4
 2941              		@ sp needed
 2942 0bfc 5DF804FB 		ldr	pc, [sp], #4
 2943              		.cfi_endproc
 2944              	.LFE373:
 2945              		.size	m2m_wifi_set_device_name, .-m2m_wifi_set_device_name
 2946              		.align	1
 2947              		.p2align 4,,15
 2948              		.global	m2m_wifi_get_firmware_version
 2949              		.syntax unified
 2950              		.thumb
 2951              		.thumb_func
 2952              		.fpu softvfp
 2953              		.type	m2m_wifi_get_firmware_version, %function
 2954              	m2m_wifi_get_firmware_version:
 2955              	.LFB374:
 2956              		.loc 1 1144 0
 2957              		.cfi_startproc
 2958              		@ args = 0, pretend = 0, frame = 0
 2959              		@ frame_needed = 0, uses_anonymous_args = 0
 2960              	.LVL323:
 2961 0c00 38B5     		push	{r3, r4, r5, lr}
 2962              		.cfi_def_cfa_offset 16
 2963              		.cfi_offset 3, -16
 2964              		.cfi_offset 4, -12
 2965              		.cfi_offset 5, -8
 2966              		.cfi_offset 14, -4
 2967 0c02 0546     		mov	r5, r0
 2968              	.LVL324:
 2969              		.loc 1 1146 0
 2970 0c04 FFF7FEFF 		bl	hif_chip_wake
 2971              	.LVL325:
 2972              		.loc 1 1147 0
 2973 0c08 0446     		mov	r4, r0
ARM GAS  C:\Users\RAKIBU~1\AppData\Local\Temp\ccQ3AEax.s 			page 54


 2974 0c0a 08B1     		cbz	r0, .L262
 2975              	.LVL326:
 2976              	.L260:
 2977              		.loc 1 1153 0
 2978 0c0c 2046     		mov	r0, r4
 2979 0c0e 38BD     		pop	{r3, r4, r5, pc}
 2980              	.LVL327:
 2981              	.L262:
 2982              		.loc 1 1149 0
 2983 0c10 2846     		mov	r0, r5
 2984              	.LVL328:
 2985 0c12 FFF7FEFF 		bl	nm_get_firmware_full_info
 2986              	.LVL329:
 2987 0c16 0446     		mov	r4, r0
 2988              	.LVL330:
 2989              		.loc 1 1150 0
 2990 0c18 FFF7FEFF 		bl	hif_chip_sleep
 2991              	.LVL331:
 2992 0c1c F6E7     		b	.L260
 2993              		.cfi_endproc
 2994              	.LFE374:
 2995              		.size	m2m_wifi_get_firmware_version, .-m2m_wifi_get_firmware_version
 2996              		.align	1
 2997 0c1e 00BF     		.p2align 4,,15
 2998              		.global	m2m_wifi_start_provision_mode
 2999              		.syntax unified
 3000              		.thumb
 3001              		.thumb_func
 3002              		.fpu softvfp
 3003              		.type	m2m_wifi_start_provision_mode, %function
 3004              	m2m_wifi_start_provision_mode:
 3005              	.LFB375:
 3006              		.loc 1 1192 0
 3007              		.cfi_startproc
 3008              		@ args = 0, pretend = 0, frame = 208
 3009              		@ frame_needed = 0, uses_anonymous_args = 0
 3010              	.LVL332:
 3011              		.loc 1 1195 0
 3012 0c20 60B3     		cbz	r0, .L267
 3013              		.loc 1 1192 0
 3014 0c22 70B5     		push	{r4, r5, r6, lr}
 3015              		.cfi_def_cfa_offset 16
 3016              		.cfi_offset 4, -16
 3017              		.cfi_offset 5, -12
 3018              		.cfi_offset 6, -8
 3019              		.cfi_offset 14, -4
 3020 0c24 B8B0     		sub	sp, sp, #224
 3021              		.cfi_def_cfa_offset 240
 3022 0c26 0446     		mov	r4, r0
 3023 0c28 1646     		mov	r6, r2
 3024 0c2a 0D46     		mov	r5, r1
 3025              	.LBB27:
 3026              		.loc 1 1198 0
 3027 0c2c FFF728FB 		bl	m2m_validate_ap_parameters
 3028              	.LVL333:
 3029 0c30 18B1     		cbz	r0, .L273
 3030              	.LBE27:
ARM GAS  C:\Users\RAKIBU~1\AppData\Local\Temp\ccQ3AEax.s 			page 55


 3031              		.loc 1 1193 0
 3032 0c32 6FF00B00 		mvn	r0, #11
 3033              	.LVL334:
 3034              	.L264:
 3035              		.loc 1 1222 0
 3036 0c36 38B0     		add	sp, sp, #224
 3037              		.cfi_remember_state
 3038              		.cfi_def_cfa_offset 16
 3039              		@ sp needed
 3040 0c38 70BD     		pop	{r4, r5, r6, pc}
 3041              	.LVL335:
 3042              	.L273:
 3043              		.cfi_restore_state
 3044              	.LBB28:
 3045              		.loc 1 1200 0
 3046 0c3a 8822     		movs	r2, #136
 3047 0c3c 2146     		mov	r1, r4
 3048 0c3e 05A8     		add	r0, sp, #20
 3049 0c40 FFF7FEFF 		bl	m2m_memcpy
 3050              	.LVL336:
 3051              		.loc 1 1201 0
 3052 0c44 2846     		mov	r0, r5
 3053 0c46 FFF7FEFF 		bl	m2m_strlen
 3054              	.LVL337:
 3055 0c4a A0B1     		cbz	r0, .L266
 3056              		.loc 1 1201 0 is_stmt 0 discriminator 1
 3057 0c4c 9DB1     		cbz	r5, .L266
 3058              		.loc 1 1206 0 is_stmt 1
 3059 0c4e 4022     		movs	r2, #64
 3060 0c50 2946     		mov	r1, r5
 3061 0c52 27A8     		add	r0, sp, #156
 3062 0c54 FFF7FEFF 		bl	m2m_memcpy
 3063              	.LVL338:
 3064              		.loc 1 1207 0
 3065 0c58 8DF8DC60 		strb	r6, [sp, #220]
 3066              		.loc 1 1211 0
 3067 0c5c 0023     		movs	r3, #0
 3068 0c5e 094A     		ldr	r2, .L274
 3069 0c60 1371     		strb	r3, [r2, #4]
 3070              		.loc 1 1212 0
 3071 0c62 0293     		str	r3, [sp, #8]
 3072 0c64 0193     		str	r3, [sp, #4]
 3073 0c66 0093     		str	r3, [sp]
 3074 0c68 CC23     		movs	r3, #204
 3075 0c6a 05AA     		add	r2, sp, #20
 3076 0c6c 8821     		movs	r1, #136
 3077 0c6e 0120     		movs	r0, #1
 3078 0c70 FFF7FEFF 		bl	hif_send
 3079              	.LVL339:
 3080 0c74 DFE7     		b	.L264
 3081              	.LVL340:
 3082              	.L266:
 3083              	.LBE28:
 3084              		.loc 1 1193 0
 3085 0c76 6FF00B00 		mvn	r0, #11
 3086 0c7a DCE7     		b	.L264
 3087              	.LVL341:
ARM GAS  C:\Users\RAKIBU~1\AppData\Local\Temp\ccQ3AEax.s 			page 56


 3088              	.L267:
 3089              		.cfi_def_cfa_offset 0
 3090              		.cfi_restore 4
 3091              		.cfi_restore 5
 3092              		.cfi_restore 6
 3093              		.cfi_restore 14
 3094 0c7c 6FF00B00 		mvn	r0, #11
 3095              	.LVL342:
 3096              		.loc 1 1222 0
 3097 0c80 7047     		bx	lr
 3098              	.L275:
 3099 0c82 00BF     		.align	2
 3100              	.L274:
 3101 0c84 00000000 		.word	.LANCHOR0
 3102              		.cfi_endproc
 3103              	.LFE375:
 3104              		.size	m2m_wifi_start_provision_mode, .-m2m_wifi_start_provision_mode
 3105              		.align	1
 3106 0c88 AFF30080 		.p2align 4,,15
 3106      AFF30080 
 3107              		.global	m2m_wifi_stop_provision_mode
 3108              		.syntax unified
 3109              		.thumb
 3110              		.thumb_func
 3111              		.fpu softvfp
 3112              		.type	m2m_wifi_stop_provision_mode, %function
 3113              	m2m_wifi_stop_provision_mode:
 3114              	.LFB376:
 3115              		.loc 1 1225 0
 3116              		.cfi_startproc
 3117              		@ args = 0, pretend = 0, frame = 0
 3118              		@ frame_needed = 0, uses_anonymous_args = 0
 3119 0c90 00B5     		push	{lr}
 3120              		.cfi_def_cfa_offset 4
 3121              		.cfi_offset 14, -4
 3122 0c92 85B0     		sub	sp, sp, #20
 3123              		.cfi_def_cfa_offset 24
 3124              		.loc 1 1226 0
 3125 0c94 0022     		movs	r2, #0
 3126 0c96 0292     		str	r2, [sp, #8]
 3127 0c98 0192     		str	r2, [sp, #4]
 3128 0c9a 0092     		str	r2, [sp]
 3129 0c9c 1346     		mov	r3, r2
 3130 0c9e 0A21     		movs	r1, #10
 3131 0ca0 0120     		movs	r0, #1
 3132 0ca2 FFF7FEFF 		bl	hif_send
 3133              	.LVL343:
 3134              		.loc 1 1227 0
 3135 0ca6 05B0     		add	sp, sp, #20
 3136              		.cfi_def_cfa_offset 4
 3137              		@ sp needed
 3138 0ca8 5DF804FB 		ldr	pc, [sp], #4
 3139              		.cfi_endproc
 3140              	.LFE376:
 3141              		.size	m2m_wifi_stop_provision_mode, .-m2m_wifi_stop_provision_mode
 3142              		.align	1
 3143 0cac AFF30080 		.p2align 4,,15
ARM GAS  C:\Users\RAKIBU~1\AppData\Local\Temp\ccQ3AEax.s 			page 57


 3144              		.global	m2m_wifi_get_connection_info
 3145              		.syntax unified
 3146              		.thumb
 3147              		.thumb_func
 3148              		.fpu softvfp
 3149              		.type	m2m_wifi_get_connection_info, %function
 3150              	m2m_wifi_get_connection_info:
 3151              	.LFB377:
 3152              		.loc 1 1230 0
 3153              		.cfi_startproc
 3154              		@ args = 0, pretend = 0, frame = 0
 3155              		@ frame_needed = 0, uses_anonymous_args = 0
 3156 0cb0 00B5     		push	{lr}
 3157              		.cfi_def_cfa_offset 4
 3158              		.cfi_offset 14, -4
 3159 0cb2 85B0     		sub	sp, sp, #20
 3160              		.cfi_def_cfa_offset 24
 3161              		.loc 1 1231 0
 3162 0cb4 0022     		movs	r2, #0
 3163 0cb6 0292     		str	r2, [sp, #8]
 3164 0cb8 0192     		str	r2, [sp, #4]
 3165 0cba 0092     		str	r2, [sp]
 3166 0cbc 1346     		mov	r3, r2
 3167 0cbe 0521     		movs	r1, #5
 3168 0cc0 0120     		movs	r0, #1
 3169 0cc2 FFF7FEFF 		bl	hif_send
 3170              	.LVL344:
 3171              		.loc 1 1232 0
 3172 0cc6 05B0     		add	sp, sp, #20
 3173              		.cfi_def_cfa_offset 4
 3174              		@ sp needed
 3175 0cc8 5DF804FB 		ldr	pc, [sp], #4
 3176              		.cfi_endproc
 3177              	.LFE377:
 3178              		.size	m2m_wifi_get_connection_info, .-m2m_wifi_get_connection_info
 3179              		.align	1
 3180 0ccc AFF30080 		.p2align 4,,15
 3181              		.global	m2m_wifi_set_sytem_time
 3182              		.syntax unified
 3183              		.thumb
 3184              		.thumb_func
 3185              		.fpu softvfp
 3186              		.type	m2m_wifi_set_sytem_time, %function
 3187              	m2m_wifi_set_sytem_time:
 3188              	.LFB378:
 3189              		.loc 1 1235 0
 3190              		.cfi_startproc
 3191              		@ args = 0, pretend = 0, frame = 8
 3192              		@ frame_needed = 0, uses_anonymous_args = 0
 3193              	.LVL345:
 3194 0cd0 00B5     		push	{lr}
 3195              		.cfi_def_cfa_offset 4
 3196              		.cfi_offset 14, -4
 3197 0cd2 87B0     		sub	sp, sp, #28
 3198              		.cfi_def_cfa_offset 32
 3199 0cd4 06AA     		add	r2, sp, #24
 3200 0cd6 42F8040D 		str	r0, [r2, #-4]!
ARM GAS  C:\Users\RAKIBU~1\AppData\Local\Temp\ccQ3AEax.s 			page 58


 3201              		.loc 1 1239 0
 3202 0cda 0023     		movs	r3, #0
 3203 0cdc 0293     		str	r3, [sp, #8]
 3204 0cde 0193     		str	r3, [sp, #4]
 3205 0ce0 0093     		str	r3, [sp]
 3206 0ce2 0823     		movs	r3, #8
 3207 0ce4 0B21     		movs	r1, #11
 3208 0ce6 0120     		movs	r0, #1
 3209              	.LVL346:
 3210 0ce8 FFF7FEFF 		bl	hif_send
 3211              	.LVL347:
 3212              		.loc 1 1240 0
 3213 0cec 07B0     		add	sp, sp, #28
 3214              		.cfi_def_cfa_offset 4
 3215              		@ sp needed
 3216 0cee 5DF804FB 		ldr	pc, [sp], #4
 3217              		.cfi_endproc
 3218              	.LFE378:
 3219              		.size	m2m_wifi_set_sytem_time, .-m2m_wifi_set_sytem_time
 3220              		.align	1
 3221 0cf2 00BFAFF3 		.p2align 4,,15
 3221      0080AFF3 
 3221      0080AFF3 
 3221      0080
 3222              		.global	m2m_wifi_get_sytem_time
 3223              		.syntax unified
 3224              		.thumb
 3225              		.thumb_func
 3226              		.fpu softvfp
 3227              		.type	m2m_wifi_get_sytem_time, %function
 3228              	m2m_wifi_get_sytem_time:
 3229              	.LFB379:
 3230              		.loc 1 1250 0
 3231              		.cfi_startproc
 3232              		@ args = 0, pretend = 0, frame = 0
 3233              		@ frame_needed = 0, uses_anonymous_args = 0
 3234 0d00 00B5     		push	{lr}
 3235              		.cfi_def_cfa_offset 4
 3236              		.cfi_offset 14, -4
 3237 0d02 85B0     		sub	sp, sp, #20
 3238              		.cfi_def_cfa_offset 24
 3239              		.loc 1 1251 0
 3240 0d04 0022     		movs	r2, #0
 3241 0d06 0292     		str	r2, [sp, #8]
 3242 0d08 0192     		str	r2, [sp, #4]
 3243 0d0a 0092     		str	r2, [sp]
 3244 0d0c 1346     		mov	r3, r2
 3245 0d0e 1A21     		movs	r1, #26
 3246 0d10 0120     		movs	r0, #1
 3247 0d12 FFF7FEFF 		bl	hif_send
 3248              	.LVL348:
 3249              		.loc 1 1252 0
 3250 0d16 05B0     		add	sp, sp, #20
 3251              		.cfi_def_cfa_offset 4
 3252              		@ sp needed
 3253 0d18 5DF804FB 		ldr	pc, [sp], #4
 3254              		.cfi_endproc
ARM GAS  C:\Users\RAKIBU~1\AppData\Local\Temp\ccQ3AEax.s 			page 59


 3255              	.LFE379:
 3256              		.size	m2m_wifi_get_sytem_time, .-m2m_wifi_get_sytem_time
 3257              		.align	1
 3258 0d1c AFF30080 		.p2align 4,,15
 3259              		.global	m2m_wifi_enable_sntp
 3260              		.syntax unified
 3261              		.thumb
 3262              		.thumb_func
 3263              		.fpu softvfp
 3264              		.type	m2m_wifi_enable_sntp, %function
 3265              	m2m_wifi_enable_sntp:
 3266              	.LFB380:
 3267              		.loc 1 1255 0
 3268              		.cfi_startproc
 3269              		@ args = 0, pretend = 0, frame = 0
 3270              		@ frame_needed = 0, uses_anonymous_args = 0
 3271              	.LVL349:
 3272 0d20 00B5     		push	{lr}
 3273              		.cfi_def_cfa_offset 4
 3274              		.cfi_offset 14, -4
 3275 0d22 85B0     		sub	sp, sp, #20
 3276              		.cfi_def_cfa_offset 24
 3277              		.loc 1 1258 0
 3278 0d24 58B9     		cbnz	r0, .L288
 3279 0d26 0D21     		movs	r1, #13
 3280              	.L285:
 3281              	.LVL350:
 3282              		.loc 1 1259 0 discriminator 4
 3283 0d28 0022     		movs	r2, #0
 3284 0d2a 0292     		str	r2, [sp, #8]
 3285 0d2c 0192     		str	r2, [sp, #4]
 3286 0d2e 0092     		str	r2, [sp]
 3287 0d30 1346     		mov	r3, r2
 3288 0d32 0120     		movs	r0, #1
 3289              	.LVL351:
 3290 0d34 FFF7FEFF 		bl	hif_send
 3291              	.LVL352:
 3292              		.loc 1 1260 0 discriminator 4
 3293 0d38 05B0     		add	sp, sp, #20
 3294              		.cfi_remember_state
 3295              		.cfi_def_cfa_offset 4
 3296              		@ sp needed
 3297 0d3a 5DF804FB 		ldr	pc, [sp], #4
 3298              	.LVL353:
 3299              	.L288:
 3300              		.cfi_restore_state
 3301              		.loc 1 1258 0
 3302 0d3e 0C21     		movs	r1, #12
 3303 0d40 F2E7     		b	.L285
 3304              		.cfi_endproc
 3305              	.LFE380:
 3306              		.size	m2m_wifi_enable_sntp, .-m2m_wifi_enable_sntp
 3307              		.align	1
 3308 0d42 00BFAFF3 		.p2align 4,,15
 3308      0080AFF3 
 3308      0080AFF3 
 3308      0080
ARM GAS  C:\Users\RAKIBU~1\AppData\Local\Temp\ccQ3AEax.s 			page 60


 3309              		.global	m2m_wifi_set_power_profile
 3310              		.syntax unified
 3311              		.thumb
 3312              		.thumb_func
 3313              		.fpu softvfp
 3314              		.type	m2m_wifi_set_power_profile, %function
 3315              	m2m_wifi_set_power_profile:
 3316              	.LFB381:
 3317              		.loc 1 1273 0
 3318              		.cfi_startproc
 3319              		@ args = 0, pretend = 0, frame = 8
 3320              		@ frame_needed = 0, uses_anonymous_args = 0
 3321              	.LVL354:
 3322 0d50 00B5     		push	{lr}
 3323              		.cfi_def_cfa_offset 4
 3324              		.cfi_offset 14, -4
 3325 0d52 87B0     		sub	sp, sp, #28
 3326              		.cfi_def_cfa_offset 32
 3327              	.LVL355:
 3328              		.loc 1 1276 0
 3329 0d54 06AA     		add	r2, sp, #24
 3330 0d56 02F8040D 		strb	r0, [r2, #-4]!
 3331              		.loc 1 1277 0
 3332 0d5a 0023     		movs	r3, #0
 3333 0d5c 0293     		str	r3, [sp, #8]
 3334 0d5e 0193     		str	r3, [sp, #4]
 3335 0d60 0093     		str	r3, [sp]
 3336 0d62 0423     		movs	r3, #4
 3337 0d64 1621     		movs	r1, #22
 3338 0d66 0120     		movs	r0, #1
 3339              	.LVL356:
 3340 0d68 FFF7FEFF 		bl	hif_send
 3341              	.LVL357:
 3342              		.loc 1 1279 0
 3343 0d6c 07B0     		add	sp, sp, #28
 3344              		.cfi_def_cfa_offset 4
 3345              		@ sp needed
 3346 0d6e 5DF804FB 		ldr	pc, [sp], #4
 3347              		.cfi_endproc
 3348              	.LFE381:
 3349              		.size	m2m_wifi_set_power_profile, .-m2m_wifi_set_power_profile
 3350              		.align	1
 3351 0d72 00BFAFF3 		.p2align 4,,15
 3351      0080AFF3 
 3351      0080AFF3 
 3351      0080
 3352              		.global	m2m_wifi_set_tx_power
 3353              		.syntax unified
 3354              		.thumb
 3355              		.thumb_func
 3356              		.fpu softvfp
 3357              		.type	m2m_wifi_set_tx_power, %function
 3358              	m2m_wifi_set_tx_power:
 3359              	.LFB382:
 3360              		.loc 1 1291 0
 3361              		.cfi_startproc
 3362              		@ args = 0, pretend = 0, frame = 8
ARM GAS  C:\Users\RAKIBU~1\AppData\Local\Temp\ccQ3AEax.s 			page 61


 3363              		@ frame_needed = 0, uses_anonymous_args = 0
 3364              	.LVL358:
 3365 0d80 00B5     		push	{lr}
 3366              		.cfi_def_cfa_offset 4
 3367              		.cfi_offset 14, -4
 3368 0d82 87B0     		sub	sp, sp, #28
 3369              		.cfi_def_cfa_offset 32
 3370              	.LVL359:
 3371              		.loc 1 1294 0
 3372 0d84 06AA     		add	r2, sp, #24
 3373 0d86 02F8040D 		strb	r0, [r2, #-4]!
 3374              		.loc 1 1295 0
 3375 0d8a 0023     		movs	r3, #0
 3376 0d8c 0293     		str	r3, [sp, #8]
 3377 0d8e 0193     		str	r3, [sp, #4]
 3378 0d90 0093     		str	r3, [sp]
 3379 0d92 0423     		movs	r3, #4
 3380 0d94 1721     		movs	r1, #23
 3381 0d96 0120     		movs	r0, #1
 3382              	.LVL360:
 3383 0d98 FFF7FEFF 		bl	hif_send
 3384              	.LVL361:
 3385              		.loc 1 1297 0
 3386 0d9c 07B0     		add	sp, sp, #28
 3387              		.cfi_def_cfa_offset 4
 3388              		@ sp needed
 3389 0d9e 5DF804FB 		ldr	pc, [sp], #4
 3390              		.cfi_endproc
 3391              	.LFE382:
 3392              		.size	m2m_wifi_set_tx_power, .-m2m_wifi_set_tx_power
 3393              		.align	1
 3394 0da2 00BFAFF3 		.p2align 4,,15
 3394      0080AFF3 
 3394      0080AFF3 
 3394      0080
 3395              		.global	m2m_wifi_enable_firmware_logs
 3396              		.syntax unified
 3397              		.thumb
 3398              		.thumb_func
 3399              		.fpu softvfp
 3400              		.type	m2m_wifi_enable_firmware_logs, %function
 3401              	m2m_wifi_enable_firmware_logs:
 3402              	.LFB383:
 3403              		.loc 1 1311 0
 3404              		.cfi_startproc
 3405              		@ args = 0, pretend = 0, frame = 8
 3406              		@ frame_needed = 0, uses_anonymous_args = 0
 3407              	.LVL362:
 3408 0db0 00B5     		push	{lr}
 3409              		.cfi_def_cfa_offset 4
 3410              		.cfi_offset 14, -4
 3411 0db2 87B0     		sub	sp, sp, #28
 3412              		.cfi_def_cfa_offset 32
 3413              	.LVL363:
 3414              		.loc 1 1314 0
 3415 0db4 06AA     		add	r2, sp, #24
 3416 0db6 02F8040D 		strb	r0, [r2, #-4]!
ARM GAS  C:\Users\RAKIBU~1\AppData\Local\Temp\ccQ3AEax.s 			page 62


 3417              		.loc 1 1315 0
 3418 0dba 0023     		movs	r3, #0
 3419 0dbc 0293     		str	r3, [sp, #8]
 3420 0dbe 0193     		str	r3, [sp, #4]
 3421 0dc0 0093     		str	r3, [sp]
 3422 0dc2 0423     		movs	r3, #4
 3423 0dc4 1921     		movs	r1, #25
 3424 0dc6 0120     		movs	r0, #1
 3425              	.LVL364:
 3426 0dc8 FFF7FEFF 		bl	hif_send
 3427              	.LVL365:
 3428              		.loc 1 1317 0
 3429 0dcc 07B0     		add	sp, sp, #28
 3430              		.cfi_def_cfa_offset 4
 3431              		@ sp needed
 3432 0dce 5DF804FB 		ldr	pc, [sp], #4
 3433              		.cfi_endproc
 3434              	.LFE383:
 3435              		.size	m2m_wifi_enable_firmware_logs, .-m2m_wifi_enable_firmware_logs
 3436              		.align	1
 3437 0dd2 00BFAFF3 		.p2align 4,,15
 3437      0080AFF3 
 3437      0080AFF3 
 3437      0080
 3438              		.global	m2m_wifi_set_battery_voltage
 3439              		.syntax unified
 3440              		.thumb
 3441              		.thumb_func
 3442              		.fpu softvfp
 3443              		.type	m2m_wifi_set_battery_voltage, %function
 3444              	m2m_wifi_set_battery_voltage:
 3445              	.LFB384:
 3446              		.loc 1 1331 0
 3447              		.cfi_startproc
 3448              		@ args = 0, pretend = 0, frame = 8
 3449              		@ frame_needed = 0, uses_anonymous_args = 0
 3450              	.LVL366:
 3451 0de0 00B5     		push	{lr}
 3452              		.cfi_def_cfa_offset 4
 3453              		.cfi_offset 14, -4
 3454 0de2 87B0     		sub	sp, sp, #28
 3455              		.cfi_def_cfa_offset 32
 3456              	.LVL367:
 3457              		.loc 1 1333 0
 3458 0de4 0023     		movs	r3, #0
 3459 0de6 ADF81630 		strh	r3, [sp, #22]	@ movhi
 3460              		.loc 1 1334 0
 3461 0dea 06AA     		add	r2, sp, #24
 3462 0dec 22F8040D 		strh	r0, [r2, #-4]!	@ movhi
 3463              		.loc 1 1335 0
 3464 0df0 0293     		str	r3, [sp, #8]
 3465 0df2 0193     		str	r3, [sp, #4]
 3466 0df4 0093     		str	r3, [sp]
 3467 0df6 0423     		movs	r3, #4
 3468 0df8 1821     		movs	r1, #24
 3469 0dfa 0120     		movs	r0, #1
 3470              	.LVL368:
ARM GAS  C:\Users\RAKIBU~1\AppData\Local\Temp\ccQ3AEax.s 			page 63


 3471 0dfc FFF7FEFF 		bl	hif_send
 3472              	.LVL369:
 3473              		.loc 1 1337 0
 3474 0e00 07B0     		add	sp, sp, #28
 3475              		.cfi_def_cfa_offset 4
 3476              		@ sp needed
 3477 0e02 5DF804FB 		ldr	pc, [sp], #4
 3478              		.cfi_endproc
 3479              	.LFE384:
 3480              		.size	m2m_wifi_set_battery_voltage, .-m2m_wifi_set_battery_voltage
 3481              		.align	1
 3482 0e06 00BFAFF3 		.p2align 4,,15
 3482      0080AFF3 
 3482      0080
 3483              		.global	m2m_wifi_prng_get_random_bytes
 3484              		.syntax unified
 3485              		.thumb
 3486              		.thumb_func
 3487              		.fpu softvfp
 3488              		.type	m2m_wifi_prng_get_random_bytes, %function
 3489              	m2m_wifi_prng_get_random_bytes:
 3490              	.LFB385:
 3491              		.loc 1 1348 0
 3492              		.cfi_startproc
 3493              		@ args = 0, pretend = 0, frame = 8
 3494              		@ frame_needed = 0, uses_anonymous_args = 0
 3495              	.LVL370:
 3496 0e10 00B5     		push	{lr}
 3497              		.cfi_def_cfa_offset 4
 3498              		.cfi_offset 14, -4
 3499 0e12 87B0     		sub	sp, sp, #28
 3500              		.cfi_def_cfa_offset 32
 3501              	.LVL371:
 3502              		.loc 1 1350 0
 3503 0e14 0023     		movs	r3, #0
 3504 0e16 0593     		str	r3, [sp, #20]
 3505              		.loc 1 1351 0
 3506 0e18 40F23363 		movw	r3, #1587
 3507 0e1c 9942     		cmp	r1, r3
 3508 0e1e 11D8     		bhi	.L299
 3509              		.loc 1 1351 0 is_stmt 0 discriminator 1
 3510 0e20 98B1     		cbz	r0, .L300
 3511              		.loc 1 1353 0 is_stmt 1
 3512 0e22 ADF81410 		strh	r1, [sp, #20]	@ movhi
 3513              		.loc 1 1354 0
 3514 0e26 06AA     		add	r2, sp, #24
 3515 0e28 42F8080D 		str	r0, [r2, #-8]!
 3516              		.loc 1 1355 0
 3517 0e2c 0023     		movs	r3, #0
 3518 0e2e 0293     		str	r3, [sp, #8]
 3519 0e30 0193     		str	r3, [sp, #4]
 3520 0e32 0093     		str	r3, [sp]
 3521 0e34 0823     		movs	r3, #8
 3522 0e36 9F21     		movs	r1, #159
 3523              	.LVL372:
 3524 0e38 0120     		movs	r0, #1
 3525              	.LVL373:
ARM GAS  C:\Users\RAKIBU~1\AppData\Local\Temp\ccQ3AEax.s 			page 64


 3526 0e3a FFF7FEFF 		bl	hif_send
 3527              	.LVL374:
 3528              	.L298:
 3529              		.loc 1 1362 0
 3530 0e3e 07B0     		add	sp, sp, #28
 3531              		.cfi_remember_state
 3532              		.cfi_def_cfa_offset 4
 3533              		@ sp needed
 3534 0e40 5DF804FB 		ldr	pc, [sp], #4
 3535              	.LVL375:
 3536              	.L299:
 3537              		.cfi_restore_state
 3538              		.loc 1 1349 0
 3539 0e44 6FF00B00 		mvn	r0, #11
 3540              	.LVL376:
 3541 0e48 F9E7     		b	.L298
 3542              	.LVL377:
 3543              	.L300:
 3544 0e4a 6FF00B00 		mvn	r0, #11
 3545              	.LVL378:
 3546 0e4e F6E7     		b	.L298
 3547              		.cfi_endproc
 3548              	.LFE385:
 3549              		.size	m2m_wifi_prng_get_random_bytes, .-m2m_wifi_prng_get_random_bytes
 3550              		.bss
 3551              		.align	2
 3552              		.set	.LANCHOR0,. + 0
 3553              		.type	gpfAppWifiCb, %object
 3554              		.size	gpfAppWifiCb, 4
 3555              	gpfAppWifiCb:
 3556 0000 00000000 		.space	4
 3557              		.type	gu8scanInProgress, %object
 3558              		.size	gu8scanInProgress, 1
 3559              	gu8scanInProgress:
 3560 0004 00       		.space	1
 3561              		.type	gu8ChNum, %object
 3562              		.size	gu8ChNum, 1
 3563              	gu8ChNum:
 3564 0005 00       		.space	1
 3565              		.section	.rodata.str1.4,"aMS",%progbits,1
 3566              		.align	2
 3567              	.LC0:
 3568 0000 4669726D 		.ascii	"Firmware ver   : %u.%u.%u Svnrev %u\012\000"
 3568      77617265 
 3568      20766572 
 3568      2020203A 
 3568      2025752E 
 3569 0025 000000   		.space	3
 3570              	.LC1:
 3571 0028 4669726D 		.ascii	"Firmware Build %s Time %s\012\000"
 3571      77617265 
 3571      20427569 
 3571      6C642025 
 3571      73205469 
 3572 0043 00       		.space	1
 3573              	.LC2:
 3574 0044 4669726D 		.ascii	"Firmware Min driver ver : %u.%u.%u\012\000"
ARM GAS  C:\Users\RAKIBU~1\AppData\Local\Temp\ccQ3AEax.s 			page 65


 3574      77617265 
 3574      204D696E 
 3574      20647269 
 3574      76657220 
 3575              	.LC3:
 3576 0068 44726976 		.ascii	"Driver ver: %u.%u.%u\012\000"
 3576      65722076 
 3576      65723A20 
 3576      25752E25 
 3576      752E2575 
 3577 007e 0000     		.space	2
 3578              	.LC4:
 3579 0080 31303A35 		.ascii	"10:50:00\000"
 3579      303A3030 
 3579      00
 3580 0089 000000   		.space	3
 3581              	.LC5:
 3582 008c 4E6F7620 		.ascii	"Nov  9 2020\000"
 3582      20392032 
 3582      30323000 
 3583              	.LC6:
 3584 0098 44726976 		.ascii	"Driver built at %s\011%s\012\000"
 3584      65722062 
 3584      75696C74 
 3584      20617420 
 3584      25730925 
 3585              		.text
 3586              	.Letext0:
 3587              		.file 2 "c:\\chibistudio\\tools\\gnu tools arm embedded\\7.0 2017q4\\arm-none-eabi\\include\\machi
 3588              		.file 3 "c:\\chibistudio\\tools\\gnu tools arm embedded\\7.0 2017q4\\lib\\gcc\\arm-none-eabi\\7.2.
 3589              		.file 4 "c:\\chibistudio\\tools\\gnu tools arm embedded\\7.0 2017q4\\arm-none-eabi\\include\\sys\\
 3590              		.file 5 "c:\\chibistudio\\tools\\gnu tools arm embedded\\7.0 2017q4\\arm-none-eabi\\include\\sys\\
 3591              		.file 6 "c:\\chibistudio\\tools\\gnu tools arm embedded\\7.0 2017q4\\arm-none-eabi\\include\\sys\\
 3592              		.file 7 "c:\\chibistudio\\tools\\gnu tools arm embedded\\7.0 2017q4\\arm-none-eabi\\include\\sys\\
 3593              		.file 8 "./winc1500/bsp/include/nm_bsp.h"
 3594              		.file 9 "c:\\chibistudio\\tools\\gnu tools arm embedded\\7.0 2017q4\\arm-none-eabi\\include\\stdin
 3595              		.file 10 "../../../ChibiOSRepo/chibios191/os/common/ports/ARMCMx/compilers/GCC/chtypes.h"
 3596              		.file 11 "../../../ChibiOSRepo/chibios191/os/rt/include/chsystypes.h"
 3597              		.file 12 "../../../ChibiOSRepo/chibios191/os/rt/include/chschd.h"
 3598              		.file 13 "../../../ChibiOSRepo/chibios191/os/rt/include/chtime.h"
 3599              		.file 14 "../../../ChibiOSRepo/chibios191/os/common/ext/ARM/CMSIS/Core/Include/core_cm4.h"
 3600              		.file 15 "../../../ChibiOSRepo/chibios191/os/common/ext/ST/STM32F4xx/system_stm32f4xx.h"
 3601              		.file 16 "../../../ChibiOSRepo/chibios191/os/common/ext/ST/STM32F4xx/stm32f407xx.h"
 3602              		.file 17 "../../../ChibiOSRepo/chibios191/os/common/ports/ARMCMx/chcore.h"
 3603              		.file 18 "../../../ChibiOSRepo/chibios191/os/common/ports/ARMCMx/chcore_v7m.h"
 3604              		.file 19 "../../../ChibiOSRepo/chibios191/os/hal/ports/STM32/LLD/TIMv1/stm32_tim.h"
 3605              		.file 20 "../../../ChibiOSRepo/chibios191/os/rt/include/chtrace.h"
 3606              		.file 21 "../../../ChibiOSRepo/chibios191/os/rt/include/chtm.h"
 3607              		.file 22 "../../../ChibiOSRepo/chibios191/os/rt/include/chstats.h"
 3608              		.file 23 "../../../ChibiOSRepo/chibios191/os/rt/include/chsem.h"
 3609              		.file 24 "../../../ChibiOSRepo/chibios191/os/rt/include/chmtx.h"
 3610              		.file 25 "../../../ChibiOSRepo/chibios191/os/rt/include/chsys.h"
 3611              		.file 26 "../../../ChibiOSRepo/chibios191/os/rt/include/chregistry.h"
 3612              		.file 27 "../../../ChibiOSRepo/chibios191/os/rt/include/chevents.h"
 3613              		.file 28 "../../../ChibiOSRepo/chibios191/os/oslib/include/chmemcore.h"
 3614              		.file 29 "../../../ChibiOSRepo/chibios191/os/oslib/include/chmempools.h"
 3615              		.file 30 "../../../ChibiOSRepo/chibios191/os/oslib/include/chfactory.h"
ARM GAS  C:\Users\RAKIBU~1\AppData\Local\Temp\ccQ3AEax.s 			page 66


 3616              		.file 31 "../../../ChibiOSRepo/chibios191/os/hal/ports/STM32/LLD/DMAv2/stm32_dma.h"
 3617              		.file 32 "../../../ChibiOSRepo/chibios191/os/hal/include/hal_ioblock.h"
 3618              		.file 33 "../../../ChibiOSRepo/chibios191/os/hal/include/hal_persistent.h"
 3619              		.file 34 "../../../ChibiOSRepo/chibios191/os/hal/include/hal_queues.h"
 3620              		.file 35 "../../../ChibiOSRepo/chibios191/os/hal/include/hal_pal.h"
 3621              		.file 36 "../../../ChibiOSRepo/chibios191/os/hal/ports/STM32/LLD/GPIOv2/stm32_gpio.h"
 3622              		.file 37 "../../../ChibiOSRepo/chibios191/os/hal/ports/STM32/LLD/GPIOv2/hal_pal_lld.h"
 3623              		.file 38 "../../../ChibiOSRepo/chibios191/os/hal/include/hal_gpt.h"
 3624              		.file 39 "../../../ChibiOSRepo/chibios191/os/hal/ports/STM32/LLD/TIMv1/hal_gpt_lld.h"
 3625              		.file 40 "../../../ChibiOSRepo/chibios191/os/hal/include/hal_i2c.h"
 3626              		.file 41 "../../../ChibiOSRepo/chibios191/os/hal/ports/STM32/LLD/I2Cv1/hal_i2c_lld.h"
 3627              		.file 42 "c:\\chibistudio\\tools\\gnu tools arm embedded\\7.0 2017q4\\arm-none-eabi\\include\\time
 3628              		.file 43 "../../../ChibiOSRepo/chibios191/os/hal/include/hal_rtc.h"
 3629              		.file 44 "../../../ChibiOSRepo/chibios191/os/hal/ports/STM32/LLD/RTCv2/hal_rtc_lld.h"
 3630              		.file 45 "../../../ChibiOSRepo/chibios191/os/hal/include/hal_serial.h"
 3631              		.file 46 "../../../ChibiOSRepo/chibios191/os/hal/ports/STM32/LLD/USARTv1/hal_serial_lld.h"
 3632              		.file 47 "../../../ChibiOSRepo/chibios191/os/hal/include/hal_sdc.h"
 3633              		.file 48 "../../../ChibiOSRepo/chibios191/os/hal/ports/STM32/LLD/SDIOv1/hal_sdc_lld.h"
 3634              		.file 49 "../../../ChibiOSRepo/chibios191/os/hal/include/hal_spi.h"
 3635              		.file 50 "../../../ChibiOSRepo/chibios191/os/hal/ports/STM32/LLD/SPIv1/hal_spi_lld.h"
 3636              		.file 51 "./winc1500/driver/include/m2m_types.h"
 3637              		.file 52 "./winc1500/driver/source/nmdrv.h"
 3638              		.file 53 "./winc1500/driver/include/m2m_wifi.h"
 3639              		.file 54 "./winc1500/driver/source/m2m_hif.h"
 3640              		.file 55 "./winc1500/common/include/nm_common.h"
 3641              		.file 56 "./winc1500/driver/source/nmasic.h"
 3642              		.section	.debug_info,"",%progbits
 3643              	.Ldebug_info0:
 3644 0000 FF580000 		.4byte	0x58ff
 3645 0004 0400     		.2byte	0x4
 3646 0006 00000000 		.4byte	.Ldebug_abbrev0
 3647 000a 04       		.byte	0x4
 3648 000b 01       		.uleb128 0x1
 3649 000c C72B0000 		.4byte	.LASF987
 3650 0010 0C       		.byte	0xc
 3651 0011 C91C0000 		.4byte	.LASF988
 3652 0015 AA130000 		.4byte	.LASF989
 3653 0019 00000000 		.4byte	.Ltext0
 3654 001d 500E0000 		.4byte	.Letext0-.Ltext0
 3655 0021 00000000 		.4byte	.Ldebug_line0
 3656 0025 02       		.uleb128 0x2
 3657 0026 01       		.byte	0x1
 3658 0027 06       		.byte	0x6
 3659 0028 671B0000 		.4byte	.LASF0
 3660 002c 03       		.uleb128 0x3
 3661 002d 58010000 		.4byte	.LASF3
 3662 0031 02       		.byte	0x2
 3663 0032 2B       		.byte	0x2b
 3664 0033 37000000 		.4byte	0x37
 3665 0037 02       		.uleb128 0x2
 3666 0038 01       		.byte	0x1
 3667 0039 08       		.byte	0x8
 3668 003a 900C0000 		.4byte	.LASF1
 3669 003e 02       		.uleb128 0x2
 3670 003f 02       		.byte	0x2
 3671 0040 05       		.byte	0x5
 3672 0041 A2310000 		.4byte	.LASF2
ARM GAS  C:\Users\RAKIBU~1\AppData\Local\Temp\ccQ3AEax.s 			page 67


 3673 0045 03       		.uleb128 0x3
 3674 0046 FA0A0000 		.4byte	.LASF4
 3675 004a 02       		.byte	0x2
 3676 004b 39       		.byte	0x39
 3677 004c 50000000 		.4byte	0x50
 3678 0050 02       		.uleb128 0x2
 3679 0051 02       		.byte	0x2
 3680 0052 07       		.byte	0x7
 3681 0053 3C1B0000 		.4byte	.LASF5
 3682 0057 03       		.uleb128 0x3
 3683 0058 02270000 		.4byte	.LASF6
 3684 005c 02       		.byte	0x2
 3685 005d 4D       		.byte	0x4d
 3686 005e 62000000 		.4byte	0x62
 3687 0062 02       		.uleb128 0x2
 3688 0063 04       		.byte	0x4
 3689 0064 05       		.byte	0x5
 3690 0065 801E0000 		.4byte	.LASF7
 3691 0069 03       		.uleb128 0x3
 3692 006a 16270000 		.4byte	.LASF8
 3693 006e 02       		.byte	0x2
 3694 006f 4F       		.byte	0x4f
 3695 0070 74000000 		.4byte	0x74
 3696 0074 02       		.uleb128 0x2
 3697 0075 04       		.byte	0x4
 3698 0076 07       		.byte	0x7
 3699 0077 10210000 		.4byte	.LASF9
 3700 007b 02       		.uleb128 0x2
 3701 007c 08       		.byte	0x8
 3702 007d 05       		.byte	0x5
 3703 007e 092D0000 		.4byte	.LASF10
 3704 0082 03       		.uleb128 0x3
 3705 0083 6A150000 		.4byte	.LASF11
 3706 0087 02       		.byte	0x2
 3707 0088 69       		.byte	0x69
 3708 0089 8D000000 		.4byte	0x8d
 3709 008d 02       		.uleb128 0x2
 3710 008e 08       		.byte	0x8
 3711 008f 07       		.byte	0x7
 3712 0090 4C290000 		.4byte	.LASF12
 3713 0094 04       		.uleb128 0x4
 3714 0095 04       		.byte	0x4
 3715 0096 05       		.byte	0x5
 3716 0097 696E7400 		.ascii	"int\000"
 3717 009b 02       		.uleb128 0x2
 3718 009c 04       		.byte	0x4
 3719 009d 07       		.byte	0x7
 3720 009e 1E310000 		.4byte	.LASF13
 3721 00a2 03       		.uleb128 0x3
 3722 00a3 B4110000 		.4byte	.LASF14
 3723 00a7 03       		.byte	0x3
 3724 00a8 D8       		.byte	0xd8
 3725 00a9 9B000000 		.4byte	0x9b
 3726 00ad 05       		.uleb128 0x5
 3727 00ae A2000000 		.4byte	0xa2
 3728 00b2 02       		.uleb128 0x2
 3729 00b3 08       		.byte	0x8
ARM GAS  C:\Users\RAKIBU~1\AppData\Local\Temp\ccQ3AEax.s 			page 68


 3730 00b4 04       		.byte	0x4
 3731 00b5 85200000 		.4byte	.LASF15
 3732 00b9 06       		.uleb128 0x6
 3733 00ba 04       		.byte	0x4
 3734 00bb 03       		.uleb128 0x3
 3735 00bc C80A0000 		.4byte	.LASF16
 3736 00c0 04       		.byte	0x4
 3737 00c1 22       		.byte	0x22
 3738 00c2 C6000000 		.4byte	0xc6
 3739 00c6 07       		.uleb128 0x7
 3740 00c7 04       		.byte	0x4
 3741 00c8 CC000000 		.4byte	0xcc
 3742 00cc 08       		.uleb128 0x8
 3743 00cd E2080000 		.4byte	.LASF123
 3744 00d1 03       		.uleb128 0x3
 3745 00d2 90110000 		.4byte	.LASF17
 3746 00d6 05       		.byte	0x5
 3747 00d7 2C       		.byte	0x2c
 3748 00d8 62000000 		.4byte	0x62
 3749 00dc 03       		.uleb128 0x3
 3750 00dd B5250000 		.4byte	.LASF18
 3751 00e1 05       		.byte	0x5
 3752 00e2 72       		.byte	0x72
 3753 00e3 62000000 		.4byte	0x62
 3754 00e7 09       		.uleb128 0x9
 3755 00e8 46130000 		.4byte	.LASF19
 3756 00ec 03       		.byte	0x3
 3757 00ed 6501     		.2byte	0x165
 3758 00ef 9B000000 		.4byte	0x9b
 3759 00f3 0A       		.uleb128 0xa
 3760 00f4 04       		.byte	0x4
 3761 00f5 05       		.byte	0x5
 3762 00f6 A6       		.byte	0xa6
 3763 00f7 12010000 		.4byte	0x112
 3764 00fb 0B       		.uleb128 0xb
 3765 00fc 871D0000 		.4byte	.LASF20
 3766 0100 05       		.byte	0x5
 3767 0101 A8       		.byte	0xa8
 3768 0102 E7000000 		.4byte	0xe7
 3769 0106 0B       		.uleb128 0xb
 3770 0107 FC120000 		.4byte	.LASF21
 3771 010b 05       		.byte	0x5
 3772 010c A9       		.byte	0xa9
 3773 010d 12010000 		.4byte	0x112
 3774 0111 00       		.byte	0
 3775 0112 0C       		.uleb128 0xc
 3776 0113 37000000 		.4byte	0x37
 3777 0117 22010000 		.4byte	0x122
 3778 011b 0D       		.uleb128 0xd
 3779 011c 9B000000 		.4byte	0x9b
 3780 0120 03       		.byte	0x3
 3781 0121 00       		.byte	0
 3782 0122 0E       		.uleb128 0xe
 3783 0123 08       		.byte	0x8
 3784 0124 05       		.byte	0x5
 3785 0125 A3       		.byte	0xa3
 3786 0126 43010000 		.4byte	0x143
ARM GAS  C:\Users\RAKIBU~1\AppData\Local\Temp\ccQ3AEax.s 			page 69


 3787 012a 0F       		.uleb128 0xf
 3788 012b CA110000 		.4byte	.LASF22
 3789 012f 05       		.byte	0x5
 3790 0130 A5       		.byte	0xa5
 3791 0131 94000000 		.4byte	0x94
 3792 0135 00       		.byte	0
 3793 0136 0F       		.uleb128 0xf
 3794 0137 53270000 		.4byte	.LASF23
 3795 013b 05       		.byte	0x5
 3796 013c AA       		.byte	0xaa
 3797 013d F3000000 		.4byte	0xf3
 3798 0141 04       		.byte	0x4
 3799 0142 00       		.byte	0
 3800 0143 03       		.uleb128 0x3
 3801 0144 30260000 		.4byte	.LASF24
 3802 0148 05       		.byte	0x5
 3803 0149 AB       		.byte	0xab
 3804 014a 22010000 		.4byte	0x122
 3805 014e 03       		.uleb128 0x3
 3806 014f A82B0000 		.4byte	.LASF25
 3807 0153 05       		.byte	0x5
 3808 0154 AF       		.byte	0xaf
 3809 0155 BB000000 		.4byte	0xbb
 3810 0159 03       		.uleb128 0x3
 3811 015a A1190000 		.4byte	.LASF26
 3812 015e 06       		.byte	0x6
 3813 015f 16       		.byte	0x16
 3814 0160 74000000 		.4byte	0x74
 3815 0164 10       		.uleb128 0x10
 3816 0165 4F230000 		.4byte	.LASF31
 3817 0169 18       		.byte	0x18
 3818 016a 06       		.byte	0x6
 3819 016b 2F       		.byte	0x2f
 3820 016c B7010000 		.4byte	0x1b7
 3821 0170 0F       		.uleb128 0xf
 3822 0171 D1150000 		.4byte	.LASF27
 3823 0175 06       		.byte	0x6
 3824 0176 31       		.byte	0x31
 3825 0177 B7010000 		.4byte	0x1b7
 3826 017b 00       		.byte	0
 3827 017c 11       		.uleb128 0x11
 3828 017d 5F6B00   		.ascii	"_k\000"
 3829 0180 06       		.byte	0x6
 3830 0181 32       		.byte	0x32
 3831 0182 94000000 		.4byte	0x94
 3832 0186 04       		.byte	0x4
 3833 0187 0F       		.uleb128 0xf
 3834 0188 32200000 		.4byte	.LASF28
 3835 018c 06       		.byte	0x6
 3836 018d 32       		.byte	0x32
 3837 018e 94000000 		.4byte	0x94
 3838 0192 08       		.byte	0x8
 3839 0193 0F       		.uleb128 0xf
 3840 0194 56300000 		.4byte	.LASF29
 3841 0198 06       		.byte	0x6
 3842 0199 32       		.byte	0x32
 3843 019a 94000000 		.4byte	0x94
ARM GAS  C:\Users\RAKIBU~1\AppData\Local\Temp\ccQ3AEax.s 			page 70


 3844 019e 0C       		.byte	0xc
 3845 019f 0F       		.uleb128 0xf
 3846 01a0 2B0D0000 		.4byte	.LASF30
 3847 01a4 06       		.byte	0x6
 3848 01a5 32       		.byte	0x32
 3849 01a6 94000000 		.4byte	0x94
 3850 01aa 10       		.byte	0x10
 3851 01ab 11       		.uleb128 0x11
 3852 01ac 5F7800   		.ascii	"_x\000"
 3853 01af 06       		.byte	0x6
 3854 01b0 33       		.byte	0x33
 3855 01b1 BD010000 		.4byte	0x1bd
 3856 01b5 14       		.byte	0x14
 3857 01b6 00       		.byte	0
 3858 01b7 07       		.uleb128 0x7
 3859 01b8 04       		.byte	0x4
 3860 01b9 64010000 		.4byte	0x164
 3861 01bd 0C       		.uleb128 0xc
 3862 01be 59010000 		.4byte	0x159
 3863 01c2 CD010000 		.4byte	0x1cd
 3864 01c6 0D       		.uleb128 0xd
 3865 01c7 9B000000 		.4byte	0x9b
 3866 01cb 00       		.byte	0
 3867 01cc 00       		.byte	0
 3868 01cd 10       		.uleb128 0x10
 3869 01ce 350A0000 		.4byte	.LASF32
 3870 01d2 24       		.byte	0x24
 3871 01d3 06       		.byte	0x6
 3872 01d4 37       		.byte	0x37
 3873 01d5 46020000 		.4byte	0x246
 3874 01d9 0F       		.uleb128 0xf
 3875 01da 6E170000 		.4byte	.LASF33
 3876 01de 06       		.byte	0x6
 3877 01df 39       		.byte	0x39
 3878 01e0 94000000 		.4byte	0x94
 3879 01e4 00       		.byte	0
 3880 01e5 0F       		.uleb128 0xf
 3881 01e6 73300000 		.4byte	.LASF34
 3882 01ea 06       		.byte	0x6
 3883 01eb 3A       		.byte	0x3a
 3884 01ec 94000000 		.4byte	0x94
 3885 01f0 04       		.byte	0x4
 3886 01f1 0F       		.uleb128 0xf
 3887 01f2 12130000 		.4byte	.LASF35
 3888 01f6 06       		.byte	0x6
 3889 01f7 3B       		.byte	0x3b
 3890 01f8 94000000 		.4byte	0x94
 3891 01fc 08       		.byte	0x8
 3892 01fd 0F       		.uleb128 0xf
 3893 01fe D3140000 		.4byte	.LASF36
 3894 0202 06       		.byte	0x6
 3895 0203 3C       		.byte	0x3c
 3896 0204 94000000 		.4byte	0x94
 3897 0208 0C       		.byte	0xc
 3898 0209 0F       		.uleb128 0xf
 3899 020a 86020000 		.4byte	.LASF37
 3900 020e 06       		.byte	0x6
ARM GAS  C:\Users\RAKIBU~1\AppData\Local\Temp\ccQ3AEax.s 			page 71


 3901 020f 3D       		.byte	0x3d
 3902 0210 94000000 		.4byte	0x94
 3903 0214 10       		.byte	0x10
 3904 0215 0F       		.uleb128 0xf
 3905 0216 050F0000 		.4byte	.LASF38
 3906 021a 06       		.byte	0x6
 3907 021b 3E       		.byte	0x3e
 3908 021c 94000000 		.4byte	0x94
 3909 0220 14       		.byte	0x14
 3910 0221 0F       		.uleb128 0xf
 3911 0222 290C0000 		.4byte	.LASF39
 3912 0226 06       		.byte	0x6
 3913 0227 3F       		.byte	0x3f
 3914 0228 94000000 		.4byte	0x94
 3915 022c 18       		.byte	0x18
 3916 022d 0F       		.uleb128 0xf
 3917 022e A90A0000 		.4byte	.LASF40
 3918 0232 06       		.byte	0x6
 3919 0233 40       		.byte	0x40
 3920 0234 94000000 		.4byte	0x94
 3921 0238 1C       		.byte	0x1c
 3922 0239 0F       		.uleb128 0xf
 3923 023a 330C0000 		.4byte	.LASF41
 3924 023e 06       		.byte	0x6
 3925 023f 41       		.byte	0x41
 3926 0240 94000000 		.4byte	0x94
 3927 0244 20       		.byte	0x20
 3928 0245 00       		.byte	0
 3929 0246 12       		.uleb128 0x12
 3930 0247 7F170000 		.4byte	.LASF42
 3931 024b 0801     		.2byte	0x108
 3932 024d 06       		.byte	0x6
 3933 024e 4A       		.byte	0x4a
 3934 024f 86020000 		.4byte	0x286
 3935 0253 0F       		.uleb128 0xf
 3936 0254 0C150000 		.4byte	.LASF43
 3937 0258 06       		.byte	0x6
 3938 0259 4B       		.byte	0x4b
 3939 025a 86020000 		.4byte	0x286
 3940 025e 00       		.byte	0
 3941 025f 0F       		.uleb128 0xf
 3942 0260 020C0000 		.4byte	.LASF44
 3943 0264 06       		.byte	0x6
 3944 0265 4C       		.byte	0x4c
 3945 0266 86020000 		.4byte	0x286
 3946 026a 80       		.byte	0x80
 3947 026b 13       		.uleb128 0x13
 3948 026c 8F020000 		.4byte	.LASF45
 3949 0270 06       		.byte	0x6
 3950 0271 4E       		.byte	0x4e
 3951 0272 59010000 		.4byte	0x159
 3952 0276 0001     		.2byte	0x100
 3953 0278 13       		.uleb128 0x13
 3954 0279 60270000 		.4byte	.LASF46
 3955 027d 06       		.byte	0x6
 3956 027e 51       		.byte	0x51
 3957 027f 59010000 		.4byte	0x159
ARM GAS  C:\Users\RAKIBU~1\AppData\Local\Temp\ccQ3AEax.s 			page 72


 3958 0283 0401     		.2byte	0x104
 3959 0285 00       		.byte	0
 3960 0286 0C       		.uleb128 0xc
 3961 0287 B9000000 		.4byte	0xb9
 3962 028b 96020000 		.4byte	0x296
 3963 028f 0D       		.uleb128 0xd
 3964 0290 9B000000 		.4byte	0x9b
 3965 0294 1F       		.byte	0x1f
 3966 0295 00       		.byte	0
 3967 0296 12       		.uleb128 0x12
 3968 0297 BC010000 		.4byte	.LASF47
 3969 029b 9001     		.2byte	0x190
 3970 029d 06       		.byte	0x6
 3971 029e 5D       		.byte	0x5d
 3972 029f D4020000 		.4byte	0x2d4
 3973 02a3 0F       		.uleb128 0xf
 3974 02a4 D1150000 		.4byte	.LASF27
 3975 02a8 06       		.byte	0x6
 3976 02a9 5E       		.byte	0x5e
 3977 02aa D4020000 		.4byte	0x2d4
 3978 02ae 00       		.byte	0
 3979 02af 0F       		.uleb128 0xf
 3980 02b0 A5020000 		.4byte	.LASF48
 3981 02b4 06       		.byte	0x6
 3982 02b5 5F       		.byte	0x5f
 3983 02b6 94000000 		.4byte	0x94
 3984 02ba 04       		.byte	0x4
 3985 02bb 0F       		.uleb128 0xf
 3986 02bc 23260000 		.4byte	.LASF49
 3987 02c0 06       		.byte	0x6
 3988 02c1 61       		.byte	0x61
 3989 02c2 DA020000 		.4byte	0x2da
 3990 02c6 08       		.byte	0x8
 3991 02c7 0F       		.uleb128 0xf
 3992 02c8 7F170000 		.4byte	.LASF42
 3993 02cc 06       		.byte	0x6
 3994 02cd 62       		.byte	0x62
 3995 02ce 46020000 		.4byte	0x246
 3996 02d2 88       		.byte	0x88
 3997 02d3 00       		.byte	0
 3998 02d4 07       		.uleb128 0x7
 3999 02d5 04       		.byte	0x4
 4000 02d6 96020000 		.4byte	0x296
 4001 02da 0C       		.uleb128 0xc
 4002 02db EA020000 		.4byte	0x2ea
 4003 02df EA020000 		.4byte	0x2ea
 4004 02e3 0D       		.uleb128 0xd
 4005 02e4 9B000000 		.4byte	0x9b
 4006 02e8 1F       		.byte	0x1f
 4007 02e9 00       		.byte	0
 4008 02ea 07       		.uleb128 0x7
 4009 02eb 04       		.byte	0x4
 4010 02ec F0020000 		.4byte	0x2f0
 4011 02f0 14       		.uleb128 0x14
 4012 02f1 10       		.uleb128 0x10
 4013 02f2 C21C0000 		.4byte	.LASF50
 4014 02f6 08       		.byte	0x8
ARM GAS  C:\Users\RAKIBU~1\AppData\Local\Temp\ccQ3AEax.s 			page 73


 4015 02f7 06       		.byte	0x6
 4016 02f8 75       		.byte	0x75
 4017 02f9 16030000 		.4byte	0x316
 4018 02fd 0F       		.uleb128 0xf
 4019 02fe 42090000 		.4byte	.LASF51
 4020 0302 06       		.byte	0x6
 4021 0303 76       		.byte	0x76
 4022 0304 16030000 		.4byte	0x316
 4023 0308 00       		.byte	0
 4024 0309 0F       		.uleb128 0xf
 4025 030a 870D0000 		.4byte	.LASF52
 4026 030e 06       		.byte	0x6
 4027 030f 77       		.byte	0x77
 4028 0310 94000000 		.4byte	0x94
 4029 0314 04       		.byte	0x4
 4030 0315 00       		.byte	0
 4031 0316 07       		.uleb128 0x7
 4032 0317 04       		.byte	0x4
 4033 0318 37000000 		.4byte	0x37
 4034 031c 10       		.uleb128 0x10
 4035 031d 1B260000 		.4byte	.LASF53
 4036 0321 68       		.byte	0x68
 4037 0322 06       		.byte	0x6
 4038 0323 B5       		.byte	0xb5
 4039 0324 46040000 		.4byte	0x446
 4040 0328 11       		.uleb128 0x11
 4041 0329 5F7000   		.ascii	"_p\000"
 4042 032c 06       		.byte	0x6
 4043 032d B6       		.byte	0xb6
 4044 032e 16030000 		.4byte	0x316
 4045 0332 00       		.byte	0
 4046 0333 11       		.uleb128 0x11
 4047 0334 5F7200   		.ascii	"_r\000"
 4048 0337 06       		.byte	0x6
 4049 0338 B7       		.byte	0xb7
 4050 0339 94000000 		.4byte	0x94
 4051 033d 04       		.byte	0x4
 4052 033e 11       		.uleb128 0x11
 4053 033f 5F7700   		.ascii	"_w\000"
 4054 0342 06       		.byte	0x6
 4055 0343 B8       		.byte	0xb8
 4056 0344 94000000 		.4byte	0x94
 4057 0348 08       		.byte	0x8
 4058 0349 0F       		.uleb128 0xf
 4059 034a 3C030000 		.4byte	.LASF54
 4060 034e 06       		.byte	0x6
 4061 034f B9       		.byte	0xb9
 4062 0350 3E000000 		.4byte	0x3e
 4063 0354 0C       		.byte	0xc
 4064 0355 0F       		.uleb128 0xf
 4065 0356 C7250000 		.4byte	.LASF55
 4066 035a 06       		.byte	0x6
 4067 035b BA       		.byte	0xba
 4068 035c 3E000000 		.4byte	0x3e
 4069 0360 0E       		.byte	0xe
 4070 0361 11       		.uleb128 0x11
 4071 0362 5F626600 		.ascii	"_bf\000"
ARM GAS  C:\Users\RAKIBU~1\AppData\Local\Temp\ccQ3AEax.s 			page 74


 4072 0366 06       		.byte	0x6
 4073 0367 BB       		.byte	0xbb
 4074 0368 F1020000 		.4byte	0x2f1
 4075 036c 10       		.byte	0x10
 4076 036d 0F       		.uleb128 0xf
 4077 036e 05070000 		.4byte	.LASF56
 4078 0372 06       		.byte	0x6
 4079 0373 BC       		.byte	0xbc
 4080 0374 94000000 		.4byte	0x94
 4081 0378 18       		.byte	0x18
 4082 0379 0F       		.uleb128 0xf
 4083 037a 3F160000 		.4byte	.LASF57
 4084 037e 06       		.byte	0x6
 4085 037f C3       		.byte	0xc3
 4086 0380 B9000000 		.4byte	0xb9
 4087 0384 1C       		.byte	0x1c
 4088 0385 0F       		.uleb128 0xf
 4089 0386 BA310000 		.4byte	.LASF58
 4090 038a 06       		.byte	0x6
 4091 038b C5       		.byte	0xc5
 4092 038c B3050000 		.4byte	0x5b3
 4093 0390 20       		.byte	0x20
 4094 0391 0F       		.uleb128 0xf
 4095 0392 F10D0000 		.4byte	.LASF59
 4096 0396 06       		.byte	0x6
 4097 0397 C7       		.byte	0xc7
 4098 0398 E2050000 		.4byte	0x5e2
 4099 039c 24       		.byte	0x24
 4100 039d 0F       		.uleb128 0xf
 4101 039e 1F1B0000 		.4byte	.LASF60
 4102 03a2 06       		.byte	0x6
 4103 03a3 CA       		.byte	0xca
 4104 03a4 06060000 		.4byte	0x606
 4105 03a8 28       		.byte	0x28
 4106 03a9 0F       		.uleb128 0xf
 4107 03aa 27220000 		.4byte	.LASF61
 4108 03ae 06       		.byte	0x6
 4109 03af CB       		.byte	0xcb
 4110 03b0 20060000 		.4byte	0x620
 4111 03b4 2C       		.byte	0x2c
 4112 03b5 11       		.uleb128 0x11
 4113 03b6 5F756200 		.ascii	"_ub\000"
 4114 03ba 06       		.byte	0x6
 4115 03bb CE       		.byte	0xce
 4116 03bc F1020000 		.4byte	0x2f1
 4117 03c0 30       		.byte	0x30
 4118 03c1 11       		.uleb128 0x11
 4119 03c2 5F757000 		.ascii	"_up\000"
 4120 03c6 06       		.byte	0x6
 4121 03c7 CF       		.byte	0xcf
 4122 03c8 16030000 		.4byte	0x316
 4123 03cc 38       		.byte	0x38
 4124 03cd 11       		.uleb128 0x11
 4125 03ce 5F757200 		.ascii	"_ur\000"
 4126 03d2 06       		.byte	0x6
 4127 03d3 D0       		.byte	0xd0
 4128 03d4 94000000 		.4byte	0x94
ARM GAS  C:\Users\RAKIBU~1\AppData\Local\Temp\ccQ3AEax.s 			page 75


 4129 03d8 3C       		.byte	0x3c
 4130 03d9 0F       		.uleb128 0xf
 4131 03da E4240000 		.4byte	.LASF62
 4132 03de 06       		.byte	0x6
 4133 03df D3       		.byte	0xd3
 4134 03e0 26060000 		.4byte	0x626
 4135 03e4 40       		.byte	0x40
 4136 03e5 0F       		.uleb128 0xf
 4137 03e6 44040000 		.4byte	.LASF63
 4138 03ea 06       		.byte	0x6
 4139 03eb D4       		.byte	0xd4
 4140 03ec 36060000 		.4byte	0x636
 4141 03f0 43       		.byte	0x43
 4142 03f1 11       		.uleb128 0x11
 4143 03f2 5F6C6200 		.ascii	"_lb\000"
 4144 03f6 06       		.byte	0x6
 4145 03f7 D7       		.byte	0xd7
 4146 03f8 F1020000 		.4byte	0x2f1
 4147 03fc 44       		.byte	0x44
 4148 03fd 0F       		.uleb128 0xf
 4149 03fe C8240000 		.4byte	.LASF64
 4150 0402 06       		.byte	0x6
 4151 0403 DA       		.byte	0xda
 4152 0404 94000000 		.4byte	0x94
 4153 0408 4C       		.byte	0x4c
 4154 0409 0F       		.uleb128 0xf
 4155 040a 901C0000 		.4byte	.LASF65
 4156 040e 06       		.byte	0x6
 4157 040f DB       		.byte	0xdb
 4158 0410 D1000000 		.4byte	0xd1
 4159 0414 50       		.byte	0x50
 4160 0415 0F       		.uleb128 0xf
 4161 0416 04080000 		.4byte	.LASF66
 4162 041a 06       		.byte	0x6
 4163 041b DE       		.byte	0xde
 4164 041c 64040000 		.4byte	0x464
 4165 0420 54       		.byte	0x54
 4166 0421 0F       		.uleb128 0xf
 4167 0422 3E040000 		.4byte	.LASF67
 4168 0426 06       		.byte	0x6
 4169 0427 E2       		.byte	0xe2
 4170 0428 4E010000 		.4byte	0x14e
 4171 042c 58       		.byte	0x58
 4172 042d 0F       		.uleb128 0xf
 4173 042e B3010000 		.4byte	.LASF68
 4174 0432 06       		.byte	0x6
 4175 0433 E4       		.byte	0xe4
 4176 0434 43010000 		.4byte	0x143
 4177 0438 5C       		.byte	0x5c
 4178 0439 0F       		.uleb128 0xf
 4179 043a 412D0000 		.4byte	.LASF69
 4180 043e 06       		.byte	0x6
 4181 043f E5       		.byte	0xe5
 4182 0440 94000000 		.4byte	0x94
 4183 0444 64       		.byte	0x64
 4184 0445 00       		.byte	0
 4185 0446 15       		.uleb128 0x15
ARM GAS  C:\Users\RAKIBU~1\AppData\Local\Temp\ccQ3AEax.s 			page 76


 4186 0447 94000000 		.4byte	0x94
 4187 044b 64040000 		.4byte	0x464
 4188 044f 16       		.uleb128 0x16
 4189 0450 64040000 		.4byte	0x464
 4190 0454 16       		.uleb128 0x16
 4191 0455 B9000000 		.4byte	0xb9
 4192 0459 16       		.uleb128 0x16
 4193 045a A1050000 		.4byte	0x5a1
 4194 045e 16       		.uleb128 0x16
 4195 045f 94000000 		.4byte	0x94
 4196 0463 00       		.byte	0
 4197 0464 07       		.uleb128 0x7
 4198 0465 04       		.byte	0x4
 4199 0466 6F040000 		.4byte	0x46f
 4200 046a 17       		.uleb128 0x17
 4201 046b 64040000 		.4byte	0x464
 4202 046f 18       		.uleb128 0x18
 4203 0470 F8080000 		.4byte	.LASF70
 4204 0474 2804     		.2byte	0x428
 4205 0476 06       		.byte	0x6
 4206 0477 3902     		.2byte	0x239
 4207 0479 A1050000 		.4byte	0x5a1
 4208 047d 19       		.uleb128 0x19
 4209 047e 94140000 		.4byte	.LASF71
 4210 0482 06       		.byte	0x6
 4211 0483 3B02     		.2byte	0x23b
 4212 0485 94000000 		.4byte	0x94
 4213 0489 00       		.byte	0
 4214 048a 19       		.uleb128 0x19
 4215 048b 63100000 		.4byte	.LASF72
 4216 048f 06       		.byte	0x6
 4217 0490 4002     		.2byte	0x240
 4218 0492 8D060000 		.4byte	0x68d
 4219 0496 04       		.byte	0x4
 4220 0497 19       		.uleb128 0x19
 4221 0498 9E0C0000 		.4byte	.LASF73
 4222 049c 06       		.byte	0x6
 4223 049d 4002     		.2byte	0x240
 4224 049f 8D060000 		.4byte	0x68d
 4225 04a3 08       		.byte	0x8
 4226 04a4 19       		.uleb128 0x19
 4227 04a5 C20B0000 		.4byte	.LASF74
 4228 04a9 06       		.byte	0x6
 4229 04aa 4002     		.2byte	0x240
 4230 04ac 8D060000 		.4byte	0x68d
 4231 04b0 0C       		.byte	0xc
 4232 04b1 19       		.uleb128 0x19
 4233 04b2 A0020000 		.4byte	.LASF75
 4234 04b6 06       		.byte	0x6
 4235 04b7 4202     		.2byte	0x242
 4236 04b9 94000000 		.4byte	0x94
 4237 04bd 10       		.byte	0x10
 4238 04be 19       		.uleb128 0x19
 4239 04bf 781F0000 		.4byte	.LASF76
 4240 04c3 06       		.byte	0x6
 4241 04c4 4302     		.2byte	0x243
 4242 04c6 6F080000 		.4byte	0x86f
ARM GAS  C:\Users\RAKIBU~1\AppData\Local\Temp\ccQ3AEax.s 			page 77


 4243 04ca 14       		.byte	0x14
 4244 04cb 19       		.uleb128 0x19
 4245 04cc DA2A0000 		.4byte	.LASF77
 4246 04d0 06       		.byte	0x6
 4247 04d1 4602     		.2byte	0x246
 4248 04d3 94000000 		.4byte	0x94
 4249 04d7 30       		.byte	0x30
 4250 04d8 19       		.uleb128 0x19
 4251 04d9 3F2E0000 		.4byte	.LASF78
 4252 04dd 06       		.byte	0x6
 4253 04de 4702     		.2byte	0x247
 4254 04e0 84080000 		.4byte	0x884
 4255 04e4 34       		.byte	0x34
 4256 04e5 19       		.uleb128 0x19
 4257 04e6 572B0000 		.4byte	.LASF79
 4258 04ea 06       		.byte	0x6
 4259 04eb 4902     		.2byte	0x249
 4260 04ed 94000000 		.4byte	0x94
 4261 04f1 38       		.byte	0x38
 4262 04f2 19       		.uleb128 0x19
 4263 04f3 62250000 		.4byte	.LASF80
 4264 04f7 06       		.byte	0x6
 4265 04f8 4B02     		.2byte	0x24b
 4266 04fa 95080000 		.4byte	0x895
 4267 04fe 3C       		.byte	0x3c
 4268 04ff 19       		.uleb128 0x19
 4269 0500 CA0B0000 		.4byte	.LASF81
 4270 0504 06       		.byte	0x6
 4271 0505 4E02     		.2byte	0x24e
 4272 0507 B7010000 		.4byte	0x1b7
 4273 050b 40       		.byte	0x40
 4274 050c 19       		.uleb128 0x19
 4275 050d B80B0000 		.4byte	.LASF82
 4276 0511 06       		.byte	0x6
 4277 0512 4F02     		.2byte	0x24f
 4278 0514 94000000 		.4byte	0x94
 4279 0518 44       		.byte	0x44
 4280 0519 19       		.uleb128 0x19
 4281 051a BD270000 		.4byte	.LASF83
 4282 051e 06       		.byte	0x6
 4283 051f 5002     		.2byte	0x250
 4284 0521 B7010000 		.4byte	0x1b7
 4285 0525 48       		.byte	0x48
 4286 0526 19       		.uleb128 0x19
 4287 0527 441C0000 		.4byte	.LASF84
 4288 052b 06       		.byte	0x6
 4289 052c 5102     		.2byte	0x251
 4290 052e 9B080000 		.4byte	0x89b
 4291 0532 4C       		.byte	0x4c
 4292 0533 19       		.uleb128 0x19
 4293 0534 A8030000 		.4byte	.LASF85
 4294 0538 06       		.byte	0x6
 4295 0539 5402     		.2byte	0x254
 4296 053b 94000000 		.4byte	0x94
 4297 053f 50       		.byte	0x50
 4298 0540 19       		.uleb128 0x19
 4299 0541 3E120000 		.4byte	.LASF86
ARM GAS  C:\Users\RAKIBU~1\AppData\Local\Temp\ccQ3AEax.s 			page 78


 4300 0545 06       		.byte	0x6
 4301 0546 5502     		.2byte	0x255
 4302 0548 A1050000 		.4byte	0x5a1
 4303 054c 54       		.byte	0x54
 4304 054d 19       		.uleb128 0x19
 4305 054e 6D130000 		.4byte	.LASF87
 4306 0552 06       		.byte	0x6
 4307 0553 7802     		.2byte	0x278
 4308 0555 4D080000 		.4byte	0x84d
 4309 0559 58       		.byte	0x58
 4310 055a 1A       		.uleb128 0x1a
 4311 055b BC010000 		.4byte	.LASF47
 4312 055f 06       		.byte	0x6
 4313 0560 7C02     		.2byte	0x27c
 4314 0562 D4020000 		.4byte	0x2d4
 4315 0566 4801     		.2byte	0x148
 4316 0568 1A       		.uleb128 0x1a
 4317 0569 68230000 		.4byte	.LASF88
 4318 056d 06       		.byte	0x6
 4319 056e 7D02     		.2byte	0x27d
 4320 0570 96020000 		.4byte	0x296
 4321 0574 4C01     		.2byte	0x14c
 4322 0576 1A       		.uleb128 0x1a
 4323 0577 CA030000 		.4byte	.LASF89
 4324 057b 06       		.byte	0x6
 4325 057c 8102     		.2byte	0x281
 4326 057e AC080000 		.4byte	0x8ac
 4327 0582 DC02     		.2byte	0x2dc
 4328 0584 1A       		.uleb128 0x1a
 4329 0585 08250000 		.4byte	.LASF90
 4330 0589 06       		.byte	0x6
 4331 058a 8602     		.2byte	0x286
 4332 058c 52060000 		.4byte	0x652
 4333 0590 E002     		.2byte	0x2e0
 4334 0592 1A       		.uleb128 0x1a
 4335 0593 36090000 		.4byte	.LASF91
 4336 0597 06       		.byte	0x6
 4337 0598 8802     		.2byte	0x288
 4338 059a B8080000 		.4byte	0x8b8
 4339 059e EC02     		.2byte	0x2ec
 4340 05a0 00       		.byte	0
 4341 05a1 07       		.uleb128 0x7
 4342 05a2 04       		.byte	0x4
 4343 05a3 A7050000 		.4byte	0x5a7
 4344 05a7 02       		.uleb128 0x2
 4345 05a8 01       		.byte	0x1
 4346 05a9 08       		.byte	0x8
 4347 05aa 49220000 		.4byte	.LASF92
 4348 05ae 17       		.uleb128 0x17
 4349 05af A7050000 		.4byte	0x5a7
 4350 05b3 07       		.uleb128 0x7
 4351 05b4 04       		.byte	0x4
 4352 05b5 46040000 		.4byte	0x446
 4353 05b9 15       		.uleb128 0x15
 4354 05ba 94000000 		.4byte	0x94
 4355 05be D7050000 		.4byte	0x5d7
 4356 05c2 16       		.uleb128 0x16
ARM GAS  C:\Users\RAKIBU~1\AppData\Local\Temp\ccQ3AEax.s 			page 79


 4357 05c3 64040000 		.4byte	0x464
 4358 05c7 16       		.uleb128 0x16
 4359 05c8 B9000000 		.4byte	0xb9
 4360 05cc 16       		.uleb128 0x16
 4361 05cd D7050000 		.4byte	0x5d7
 4362 05d1 16       		.uleb128 0x16
 4363 05d2 94000000 		.4byte	0x94
 4364 05d6 00       		.byte	0
 4365 05d7 07       		.uleb128 0x7
 4366 05d8 04       		.byte	0x4
 4367 05d9 AE050000 		.4byte	0x5ae
 4368 05dd 05       		.uleb128 0x5
 4369 05de D7050000 		.4byte	0x5d7
 4370 05e2 07       		.uleb128 0x7
 4371 05e3 04       		.byte	0x4
 4372 05e4 B9050000 		.4byte	0x5b9
 4373 05e8 15       		.uleb128 0x15
 4374 05e9 DC000000 		.4byte	0xdc
 4375 05ed 06060000 		.4byte	0x606
 4376 05f1 16       		.uleb128 0x16
 4377 05f2 64040000 		.4byte	0x464
 4378 05f6 16       		.uleb128 0x16
 4379 05f7 B9000000 		.4byte	0xb9
 4380 05fb 16       		.uleb128 0x16
 4381 05fc DC000000 		.4byte	0xdc
 4382 0600 16       		.uleb128 0x16
 4383 0601 94000000 		.4byte	0x94
 4384 0605 00       		.byte	0
 4385 0606 07       		.uleb128 0x7
 4386 0607 04       		.byte	0x4
 4387 0608 E8050000 		.4byte	0x5e8
 4388 060c 15       		.uleb128 0x15
 4389 060d 94000000 		.4byte	0x94
 4390 0611 20060000 		.4byte	0x620
 4391 0615 16       		.uleb128 0x16
 4392 0616 64040000 		.4byte	0x464
 4393 061a 16       		.uleb128 0x16
 4394 061b B9000000 		.4byte	0xb9
 4395 061f 00       		.byte	0
 4396 0620 07       		.uleb128 0x7
 4397 0621 04       		.byte	0x4
 4398 0622 0C060000 		.4byte	0x60c
 4399 0626 0C       		.uleb128 0xc
 4400 0627 37000000 		.4byte	0x37
 4401 062b 36060000 		.4byte	0x636
 4402 062f 0D       		.uleb128 0xd
 4403 0630 9B000000 		.4byte	0x9b
 4404 0634 02       		.byte	0x2
 4405 0635 00       		.byte	0
 4406 0636 0C       		.uleb128 0xc
 4407 0637 37000000 		.4byte	0x37
 4408 063b 46060000 		.4byte	0x646
 4409 063f 0D       		.uleb128 0xd
 4410 0640 9B000000 		.4byte	0x9b
 4411 0644 00       		.byte	0
 4412 0645 00       		.byte	0
 4413 0646 09       		.uleb128 0x9
ARM GAS  C:\Users\RAKIBU~1\AppData\Local\Temp\ccQ3AEax.s 			page 80


 4414 0647 36300000 		.4byte	.LASF93
 4415 064b 06       		.byte	0x6
 4416 064c 1F01     		.2byte	0x11f
 4417 064e 1C030000 		.4byte	0x31c
 4418 0652 1B       		.uleb128 0x1b
 4419 0653 55220000 		.4byte	.LASF94
 4420 0657 0C       		.byte	0xc
 4421 0658 06       		.byte	0x6
 4422 0659 2301     		.2byte	0x123
 4423 065b 87060000 		.4byte	0x687
 4424 065f 19       		.uleb128 0x19
 4425 0660 D1150000 		.4byte	.LASF27
 4426 0664 06       		.byte	0x6
 4427 0665 2501     		.2byte	0x125
 4428 0667 87060000 		.4byte	0x687
 4429 066b 00       		.byte	0
 4430 066c 19       		.uleb128 0x19
 4431 066d 29140000 		.4byte	.LASF95
 4432 0671 06       		.byte	0x6
 4433 0672 2601     		.2byte	0x126
 4434 0674 94000000 		.4byte	0x94
 4435 0678 04       		.byte	0x4
 4436 0679 19       		.uleb128 0x19
 4437 067a 721F0000 		.4byte	.LASF96
 4438 067e 06       		.byte	0x6
 4439 067f 2701     		.2byte	0x127
 4440 0681 8D060000 		.4byte	0x68d
 4441 0685 08       		.byte	0x8
 4442 0686 00       		.byte	0
 4443 0687 07       		.uleb128 0x7
 4444 0688 04       		.byte	0x4
 4445 0689 52060000 		.4byte	0x652
 4446 068d 07       		.uleb128 0x7
 4447 068e 04       		.byte	0x4
 4448 068f 46060000 		.4byte	0x646
 4449 0693 1B       		.uleb128 0x1b
 4450 0694 0B320000 		.4byte	.LASF97
 4451 0698 0E       		.byte	0xe
 4452 0699 06       		.byte	0x6
 4453 069a 3F01     		.2byte	0x13f
 4454 069c C8060000 		.4byte	0x6c8
 4455 06a0 19       		.uleb128 0x19
 4456 06a1 FF1A0000 		.4byte	.LASF98
 4457 06a5 06       		.byte	0x6
 4458 06a6 4001     		.2byte	0x140
 4459 06a8 C8060000 		.4byte	0x6c8
 4460 06ac 00       		.byte	0
 4461 06ad 19       		.uleb128 0x19
 4462 06ae 840F0000 		.4byte	.LASF99
 4463 06b2 06       		.byte	0x6
 4464 06b3 4101     		.2byte	0x141
 4465 06b5 C8060000 		.4byte	0x6c8
 4466 06b9 06       		.byte	0x6
 4467 06ba 19       		.uleb128 0x19
 4468 06bb B3050000 		.4byte	.LASF100
 4469 06bf 06       		.byte	0x6
 4470 06c0 4201     		.2byte	0x142
ARM GAS  C:\Users\RAKIBU~1\AppData\Local\Temp\ccQ3AEax.s 			page 81


 4471 06c2 50000000 		.4byte	0x50
 4472 06c6 0C       		.byte	0xc
 4473 06c7 00       		.byte	0
 4474 06c8 0C       		.uleb128 0xc
 4475 06c9 50000000 		.4byte	0x50
 4476 06cd D8060000 		.4byte	0x6d8
 4477 06d1 0D       		.uleb128 0xd
 4478 06d2 9B000000 		.4byte	0x9b
 4479 06d6 02       		.byte	0x2
 4480 06d7 00       		.byte	0
 4481 06d8 1C       		.uleb128 0x1c
 4482 06d9 D0       		.byte	0xd0
 4483 06da 06       		.byte	0x6
 4484 06db 5902     		.2byte	0x259
 4485 06dd D9070000 		.4byte	0x7d9
 4486 06e1 19       		.uleb128 0x19
 4487 06e2 140B0000 		.4byte	.LASF101
 4488 06e6 06       		.byte	0x6
 4489 06e7 5B02     		.2byte	0x25b
 4490 06e9 9B000000 		.4byte	0x9b
 4491 06ed 00       		.byte	0
 4492 06ee 19       		.uleb128 0x19
 4493 06ef 8B1A0000 		.4byte	.LASF102
 4494 06f3 06       		.byte	0x6
 4495 06f4 5C02     		.2byte	0x25c
 4496 06f6 A1050000 		.4byte	0x5a1
 4497 06fa 04       		.byte	0x4
 4498 06fb 19       		.uleb128 0x19
 4499 06fc 6A1D0000 		.4byte	.LASF103
 4500 0700 06       		.byte	0x6
 4501 0701 5D02     		.2byte	0x25d
 4502 0703 D9070000 		.4byte	0x7d9
 4503 0707 08       		.byte	0x8
 4504 0708 19       		.uleb128 0x19
 4505 0709 BB110000 		.4byte	.LASF104
 4506 070d 06       		.byte	0x6
 4507 070e 5E02     		.2byte	0x25e
 4508 0710 CD010000 		.4byte	0x1cd
 4509 0714 24       		.byte	0x24
 4510 0715 19       		.uleb128 0x19
 4511 0716 B5290000 		.4byte	.LASF105
 4512 071a 06       		.byte	0x6
 4513 071b 5F02     		.2byte	0x25f
 4514 071d 94000000 		.4byte	0x94
 4515 0721 48       		.byte	0x48
 4516 0722 19       		.uleb128 0x19
 4517 0723 C91F0000 		.4byte	.LASF106
 4518 0727 06       		.byte	0x6
 4519 0728 6002     		.2byte	0x260
 4520 072a 8D000000 		.4byte	0x8d
 4521 072e 50       		.byte	0x50
 4522 072f 19       		.uleb128 0x19
 4523 0730 2B310000 		.4byte	.LASF107
 4524 0734 06       		.byte	0x6
 4525 0735 6102     		.2byte	0x261
 4526 0737 93060000 		.4byte	0x693
 4527 073b 58       		.byte	0x58
ARM GAS  C:\Users\RAKIBU~1\AppData\Local\Temp\ccQ3AEax.s 			page 82


 4528 073c 19       		.uleb128 0x19
 4529 073d FB240000 		.4byte	.LASF108
 4530 0741 06       		.byte	0x6
 4531 0742 6202     		.2byte	0x262
 4532 0744 43010000 		.4byte	0x143
 4533 0748 68       		.byte	0x68
 4534 0749 19       		.uleb128 0x19
 4535 074a 60090000 		.4byte	.LASF109
 4536 074e 06       		.byte	0x6
 4537 074f 6302     		.2byte	0x263
 4538 0751 43010000 		.4byte	0x143
 4539 0755 70       		.byte	0x70
 4540 0756 19       		.uleb128 0x19
 4541 0757 E91E0000 		.4byte	.LASF110
 4542 075b 06       		.byte	0x6
 4543 075c 6402     		.2byte	0x264
 4544 075e 43010000 		.4byte	0x143
 4545 0762 78       		.byte	0x78
 4546 0763 19       		.uleb128 0x19
 4547 0764 ED1C0000 		.4byte	.LASF111
 4548 0768 06       		.byte	0x6
 4549 0769 6502     		.2byte	0x265
 4550 076b E9070000 		.4byte	0x7e9
 4551 076f 80       		.byte	0x80
 4552 0770 19       		.uleb128 0x19
 4553 0771 FE150000 		.4byte	.LASF112
 4554 0775 06       		.byte	0x6
 4555 0776 6602     		.2byte	0x266
 4556 0778 F9070000 		.4byte	0x7f9
 4557 077c 88       		.byte	0x88
 4558 077d 19       		.uleb128 0x19
 4559 077e F6230000 		.4byte	.LASF113
 4560 0782 06       		.byte	0x6
 4561 0783 6702     		.2byte	0x267
 4562 0785 94000000 		.4byte	0x94
 4563 0789 A0       		.byte	0xa0
 4564 078a 19       		.uleb128 0x19
 4565 078b D00F0000 		.4byte	.LASF114
 4566 078f 06       		.byte	0x6
 4567 0790 6802     		.2byte	0x268
 4568 0792 43010000 		.4byte	0x143
 4569 0796 A4       		.byte	0xa4
 4570 0797 19       		.uleb128 0x19
 4571 0798 03130000 		.4byte	.LASF115
 4572 079c 06       		.byte	0x6
 4573 079d 6902     		.2byte	0x269
 4574 079f 43010000 		.4byte	0x143
 4575 07a3 AC       		.byte	0xac
 4576 07a4 19       		.uleb128 0x19
 4577 07a5 0F0D0000 		.4byte	.LASF116
 4578 07a9 06       		.byte	0x6
 4579 07aa 6A02     		.2byte	0x26a
 4580 07ac 43010000 		.4byte	0x143
 4581 07b0 B4       		.byte	0xb4
 4582 07b1 19       		.uleb128 0x19
 4583 07b2 15180000 		.4byte	.LASF117
 4584 07b6 06       		.byte	0x6
ARM GAS  C:\Users\RAKIBU~1\AppData\Local\Temp\ccQ3AEax.s 			page 83


 4585 07b7 6B02     		.2byte	0x26b
 4586 07b9 43010000 		.4byte	0x143
 4587 07bd BC       		.byte	0xbc
 4588 07be 19       		.uleb128 0x19
 4589 07bf B31D0000 		.4byte	.LASF118
 4590 07c3 06       		.byte	0x6
 4591 07c4 6C02     		.2byte	0x26c
 4592 07c6 43010000 		.4byte	0x143
 4593 07ca C4       		.byte	0xc4
 4594 07cb 19       		.uleb128 0x19
 4595 07cc 3B260000 		.4byte	.LASF119
 4596 07d0 06       		.byte	0x6
 4597 07d1 6D02     		.2byte	0x26d
 4598 07d3 94000000 		.4byte	0x94
 4599 07d7 CC       		.byte	0xcc
 4600 07d8 00       		.byte	0
 4601 07d9 0C       		.uleb128 0xc
 4602 07da A7050000 		.4byte	0x5a7
 4603 07de E9070000 		.4byte	0x7e9
 4604 07e2 0D       		.uleb128 0xd
 4605 07e3 9B000000 		.4byte	0x9b
 4606 07e7 19       		.byte	0x19
 4607 07e8 00       		.byte	0
 4608 07e9 0C       		.uleb128 0xc
 4609 07ea A7050000 		.4byte	0x5a7
 4610 07ee F9070000 		.4byte	0x7f9
 4611 07f2 0D       		.uleb128 0xd
 4612 07f3 9B000000 		.4byte	0x9b
 4613 07f7 07       		.byte	0x7
 4614 07f8 00       		.byte	0
 4615 07f9 0C       		.uleb128 0xc
 4616 07fa A7050000 		.4byte	0x5a7
 4617 07fe 09080000 		.4byte	0x809
 4618 0802 0D       		.uleb128 0xd
 4619 0803 9B000000 		.4byte	0x9b
 4620 0807 17       		.byte	0x17
 4621 0808 00       		.byte	0
 4622 0809 1C       		.uleb128 0x1c
 4623 080a F0       		.byte	0xf0
 4624 080b 06       		.byte	0x6
 4625 080c 7202     		.2byte	0x272
 4626 080e 2D080000 		.4byte	0x82d
 4627 0812 19       		.uleb128 0x19
 4628 0813 BC1F0000 		.4byte	.LASF120
 4629 0817 06       		.byte	0x6
 4630 0818 7502     		.2byte	0x275
 4631 081a 2D080000 		.4byte	0x82d
 4632 081e 00       		.byte	0
 4633 081f 19       		.uleb128 0x19
 4634 0820 7B100000 		.4byte	.LASF121
 4635 0824 06       		.byte	0x6
 4636 0825 7602     		.2byte	0x276
 4637 0827 3D080000 		.4byte	0x83d
 4638 082b 78       		.byte	0x78
 4639 082c 00       		.byte	0
 4640 082d 0C       		.uleb128 0xc
 4641 082e 16030000 		.4byte	0x316
ARM GAS  C:\Users\RAKIBU~1\AppData\Local\Temp\ccQ3AEax.s 			page 84


 4642 0832 3D080000 		.4byte	0x83d
 4643 0836 0D       		.uleb128 0xd
 4644 0837 9B000000 		.4byte	0x9b
 4645 083b 1D       		.byte	0x1d
 4646 083c 00       		.byte	0
 4647 083d 0C       		.uleb128 0xc
 4648 083e 9B000000 		.4byte	0x9b
 4649 0842 4D080000 		.4byte	0x84d
 4650 0846 0D       		.uleb128 0xd
 4651 0847 9B000000 		.4byte	0x9b
 4652 084b 1D       		.byte	0x1d
 4653 084c 00       		.byte	0
 4654 084d 1D       		.uleb128 0x1d
 4655 084e F0       		.byte	0xf0
 4656 084f 06       		.byte	0x6
 4657 0850 5702     		.2byte	0x257
 4658 0852 6F080000 		.4byte	0x86f
 4659 0856 1E       		.uleb128 0x1e
 4660 0857 F8080000 		.4byte	.LASF70
 4661 085b 06       		.byte	0x6
 4662 085c 6E02     		.2byte	0x26e
 4663 085e D8060000 		.4byte	0x6d8
 4664 0862 1E       		.uleb128 0x1e
 4665 0863 85040000 		.4byte	.LASF122
 4666 0867 06       		.byte	0x6
 4667 0868 7702     		.2byte	0x277
 4668 086a 09080000 		.4byte	0x809
 4669 086e 00       		.byte	0
 4670 086f 0C       		.uleb128 0xc
 4671 0870 A7050000 		.4byte	0x5a7
 4672 0874 7F080000 		.4byte	0x87f
 4673 0878 0D       		.uleb128 0xd
 4674 0879 9B000000 		.4byte	0x9b
 4675 087d 18       		.byte	0x18
 4676 087e 00       		.byte	0
 4677 087f 08       		.uleb128 0x8
 4678 0880 10250000 		.4byte	.LASF124
 4679 0884 07       		.uleb128 0x7
 4680 0885 04       		.byte	0x4
 4681 0886 7F080000 		.4byte	0x87f
 4682 088a 1F       		.uleb128 0x1f
 4683 088b 95080000 		.4byte	0x895
 4684 088f 16       		.uleb128 0x16
 4685 0890 64040000 		.4byte	0x464
 4686 0894 00       		.byte	0
 4687 0895 07       		.uleb128 0x7
 4688 0896 04       		.byte	0x4
 4689 0897 8A080000 		.4byte	0x88a
 4690 089b 07       		.uleb128 0x7
 4691 089c 04       		.byte	0x4
 4692 089d B7010000 		.4byte	0x1b7
 4693 08a1 1F       		.uleb128 0x1f
 4694 08a2 AC080000 		.4byte	0x8ac
 4695 08a6 16       		.uleb128 0x16
 4696 08a7 94000000 		.4byte	0x94
 4697 08ab 00       		.byte	0
 4698 08ac 07       		.uleb128 0x7
ARM GAS  C:\Users\RAKIBU~1\AppData\Local\Temp\ccQ3AEax.s 			page 85


 4699 08ad 04       		.byte	0x4
 4700 08ae B2080000 		.4byte	0x8b2
 4701 08b2 07       		.uleb128 0x7
 4702 08b3 04       		.byte	0x4
 4703 08b4 A1080000 		.4byte	0x8a1
 4704 08b8 0C       		.uleb128 0xc
 4705 08b9 46060000 		.4byte	0x646
 4706 08bd C8080000 		.4byte	0x8c8
 4707 08c1 0D       		.uleb128 0xd
 4708 08c2 9B000000 		.4byte	0x9b
 4709 08c6 02       		.byte	0x2
 4710 08c7 00       		.byte	0
 4711 08c8 20       		.uleb128 0x20
 4712 08c9 9C240000 		.4byte	.LASF125
 4713 08cd 06       		.byte	0x6
 4714 08ce 0703     		.2byte	0x307
 4715 08d0 64040000 		.4byte	0x464
 4716 08d4 20       		.uleb128 0x20
 4717 08d5 AD2A0000 		.4byte	.LASF126
 4718 08d9 06       		.byte	0x6
 4719 08da 0803     		.2byte	0x308
 4720 08dc 6A040000 		.4byte	0x46a
 4721 08e0 03       		.uleb128 0x3
 4722 08e1 DD110000 		.4byte	.LASF127
 4723 08e5 07       		.byte	0x7
 4724 08e6 18       		.byte	0x18
 4725 08e7 2C000000 		.4byte	0x2c
 4726 08eb 17       		.uleb128 0x17
 4727 08ec E0080000 		.4byte	0x8e0
 4728 08f0 03       		.uleb128 0x3
 4729 08f1 E8020000 		.4byte	.LASF128
 4730 08f5 07       		.byte	0x7
 4731 08f6 24       		.byte	0x24
 4732 08f7 45000000 		.4byte	0x45
 4733 08fb 03       		.uleb128 0x3
 4734 08fc 6F050000 		.4byte	.LASF129
 4735 0900 07       		.byte	0x7
 4736 0901 2C       		.byte	0x2c
 4737 0902 57000000 		.4byte	0x57
 4738 0906 05       		.uleb128 0x5
 4739 0907 FB080000 		.4byte	0x8fb
 4740 090b 03       		.uleb128 0x3
 4741 090c 14200000 		.4byte	.LASF130
 4742 0910 07       		.byte	0x7
 4743 0911 30       		.byte	0x30
 4744 0912 69000000 		.4byte	0x69
 4745 0916 05       		.uleb128 0x5
 4746 0917 0B090000 		.4byte	0x90b
 4747 091b 17       		.uleb128 0x17
 4748 091c 16090000 		.4byte	0x916
 4749 0920 03       		.uleb128 0x3
 4750 0921 800E0000 		.4byte	.LASF131
 4751 0925 07       		.byte	0x7
 4752 0926 3C       		.byte	0x3c
 4753 0927 82000000 		.4byte	0x82
 4754 092b 03       		.uleb128 0x3
 4755 092c 0E070000 		.4byte	.LASF132
ARM GAS  C:\Users\RAKIBU~1\AppData\Local\Temp\ccQ3AEax.s 			page 86


 4756 0930 08       		.byte	0x8
 4757 0931 5E       		.byte	0x5e
 4758 0932 37000000 		.4byte	0x37
 4759 0936 05       		.uleb128 0x5
 4760 0937 2B090000 		.4byte	0x92b
 4761 093b 03       		.uleb128 0x3
 4762 093c D3200000 		.4byte	.LASF133
 4763 0940 08       		.byte	0x8
 4764 0941 65       		.byte	0x65
 4765 0942 50000000 		.4byte	0x50
 4766 0946 03       		.uleb128 0x3
 4767 0947 97220000 		.4byte	.LASF134
 4768 094b 08       		.byte	0x8
 4769 094c 6C       		.byte	0x6c
 4770 094d 74000000 		.4byte	0x74
 4771 0951 03       		.uleb128 0x3
 4772 0952 EC190000 		.4byte	.LASF135
 4773 0956 08       		.byte	0x8
 4774 0957 72       		.byte	0x72
 4775 0958 25000000 		.4byte	0x25
 4776 095c 03       		.uleb128 0x3
 4777 095d 7A310000 		.4byte	.LASF136
 4778 0961 09       		.byte	0x9
 4779 0962 34       		.byte	0x34
 4780 0963 9B000000 		.4byte	0x9b
 4781 0967 03       		.uleb128 0x3
 4782 0968 27110000 		.4byte	.LASF137
 4783 096c 0A       		.byte	0xa
 4784 096d 27       		.byte	0x27
 4785 096e 0B090000 		.4byte	0x90b
 4786 0972 03       		.uleb128 0x3
 4787 0973 0D090000 		.4byte	.LASF138
 4788 0977 0A       		.byte	0xa
 4789 0978 28       		.byte	0x28
 4790 0979 20090000 		.4byte	0x920
 4791 097d 03       		.uleb128 0x3
 4792 097e 8D170000 		.4byte	.LASF139
 4793 0982 0A       		.byte	0xa
 4794 0983 2A       		.byte	0x2a
 4795 0984 E0080000 		.4byte	0x8e0
 4796 0988 03       		.uleb128 0x3
 4797 0989 A42A0000 		.4byte	.LASF140
 4798 098d 0A       		.byte	0xa
 4799 098e 2B       		.byte	0x2b
 4800 098f E0080000 		.4byte	0x8e0
 4801 0993 03       		.uleb128 0x3
 4802 0994 40170000 		.4byte	.LASF141
 4803 0998 0A       		.byte	0xa
 4804 0999 2C       		.byte	0x2c
 4805 099a E0080000 		.4byte	0x8e0
 4806 099e 03       		.uleb128 0x3
 4807 099f EF090000 		.4byte	.LASF142
 4808 09a3 0A       		.byte	0xa
 4809 09a4 2E       		.byte	0x2e
 4810 09a5 0B090000 		.4byte	0x90b
 4811 09a9 03       		.uleb128 0x3
 4812 09aa 76000000 		.4byte	.LASF143
ARM GAS  C:\Users\RAKIBU~1\AppData\Local\Temp\ccQ3AEax.s 			page 87


 4813 09ae 0A       		.byte	0xa
 4814 09af 2F       		.byte	0x2f
 4815 09b0 FB080000 		.4byte	0x8fb
 4816 09b4 03       		.uleb128 0x3
 4817 09b5 A6200000 		.4byte	.LASF144
 4818 09b9 0A       		.byte	0xa
 4819 09ba 31       		.byte	0x31
 4820 09bb 0B090000 		.4byte	0x90b
 4821 09bf 03       		.uleb128 0x3
 4822 09c0 472E0000 		.4byte	.LASF145
 4823 09c4 0A       		.byte	0xa
 4824 09c5 32       		.byte	0x32
 4825 09c6 0B090000 		.4byte	0x90b
 4826 09ca 03       		.uleb128 0x3
 4827 09cb 1D240000 		.4byte	.LASF146
 4828 09cf 0A       		.byte	0xa
 4829 09d0 33       		.byte	0x33
 4830 09d1 FB080000 		.4byte	0x8fb
 4831 09d5 03       		.uleb128 0x3
 4832 09d6 911B0000 		.4byte	.LASF147
 4833 09da 0A       		.byte	0xa
 4834 09db 34       		.byte	0x34
 4835 09dc 0B090000 		.4byte	0x90b
 4836 09e0 03       		.uleb128 0x3
 4837 09e1 36050000 		.4byte	.LASF148
 4838 09e5 0B       		.byte	0xb
 4839 09e6 34       		.byte	0x34
 4840 09e7 EB090000 		.4byte	0x9eb
 4841 09eb 10       		.uleb128 0x10
 4842 09ec D40C0000 		.4byte	.LASF149
 4843 09f0 60       		.byte	0x60
 4844 09f1 0C       		.byte	0xc
 4845 09f2 8E       		.byte	0x8e
 4846 09f3 D60A0000 		.4byte	0xad6
 4847 09f7 0F       		.uleb128 0xf
 4848 09f8 10290000 		.4byte	.LASF150
 4849 09fc 0C       		.byte	0xc
 4850 09fd 8F       		.byte	0x8f
 4851 09fe 0B0B0000 		.4byte	0xb0b
 4852 0a02 00       		.byte	0
 4853 0a03 0F       		.uleb128 0xf
 4854 0a04 73020000 		.4byte	.LASF151
 4855 0a08 0C       		.byte	0xc
 4856 0a09 90       		.byte	0x90
 4857 0a0a 9E090000 		.4byte	0x99e
 4858 0a0e 08       		.byte	0x8
 4859 0a0f 11       		.uleb128 0x11
 4860 0a10 63747800 		.ascii	"ctx\000"
 4861 0a14 0C       		.byte	0xc
 4862 0a15 91       		.byte	0x91
 4863 0a16 04130000 		.4byte	0x1304
 4864 0a1a 0C       		.byte	0xc
 4865 0a1b 0F       		.uleb128 0xf
 4866 0a1c 920B0000 		.4byte	.LASF152
 4867 0a20 0C       		.byte	0xc
 4868 0a21 93       		.byte	0x93
 4869 0a22 E10A0000 		.4byte	0xae1
ARM GAS  C:\Users\RAKIBU~1\AppData\Local\Temp\ccQ3AEax.s 			page 88


 4870 0a26 10       		.byte	0x10
 4871 0a27 0F       		.uleb128 0xf
 4872 0a28 5A030000 		.4byte	.LASF153
 4873 0a2c 0C       		.byte	0xc
 4874 0a2d 94       		.byte	0x94
 4875 0a2e E10A0000 		.4byte	0xae1
 4876 0a32 14       		.byte	0x14
 4877 0a33 0F       		.uleb128 0xf
 4878 0a34 73190000 		.4byte	.LASF154
 4879 0a38 0C       		.byte	0xc
 4880 0a39 9B       		.byte	0x9b
 4881 0a3a D7050000 		.4byte	0x5d7
 4882 0a3e 18       		.byte	0x18
 4883 0a3f 0F       		.uleb128 0xf
 4884 0a40 3C1D0000 		.4byte	.LASF155
 4885 0a44 0C       		.byte	0xc
 4886 0a45 A4       		.byte	0xa4
 4887 0a46 84170000 		.4byte	0x1784
 4888 0a4a 1C       		.byte	0x1c
 4889 0a4b 0F       		.uleb128 0xf
 4890 0a4c B61C0000 		.4byte	.LASF156
 4891 0a50 0C       		.byte	0xc
 4892 0a51 A9       		.byte	0xa9
 4893 0a52 88090000 		.4byte	0x988
 4894 0a56 20       		.byte	0x20
 4895 0a57 0F       		.uleb128 0xf
 4896 0a58 50320000 		.4byte	.LASF157
 4897 0a5c 0C       		.byte	0xc
 4898 0a5d AD       		.byte	0xad
 4899 0a5e 7D090000 		.4byte	0x97d
 4900 0a62 21       		.byte	0x21
 4901 0a63 0F       		.uleb128 0xf
 4902 0a64 32070000 		.4byte	.LASF158
 4903 0a68 0C       		.byte	0xc
 4904 0a69 B2       		.byte	0xb2
 4905 0a6a 93090000 		.4byte	0x993
 4906 0a6e 22       		.byte	0x22
 4907 0a6f 21       		.uleb128 0x21
 4908 0a70 7500     		.ascii	"u\000"
 4909 0a72 0C       		.byte	0xc
 4910 0a73 0301     		.2byte	0x103
 4911 0a75 BA160000 		.4byte	0x16ba
 4912 0a79 24       		.byte	0x24
 4913 0a7a 19       		.uleb128 0x19
 4914 0a7b DA260000 		.4byte	.LASF159
 4915 0a7f 0C       		.byte	0xc
 4916 0a80 0801     		.2byte	0x108
 4917 0a82 E70A0000 		.4byte	0xae7
 4918 0a86 28       		.byte	0x28
 4919 0a87 19       		.uleb128 0x19
 4920 0a88 781C0000 		.4byte	.LASF160
 4921 0a8c 0C       		.byte	0xc
 4922 0a8d 0E01     		.2byte	0x10e
 4923 0a8f 0B0B0000 		.4byte	0xb0b
 4924 0a93 2C       		.byte	0x2c
 4925 0a94 19       		.uleb128 0x19
 4926 0a95 AA010000 		.4byte	.LASF161
ARM GAS  C:\Users\RAKIBU~1\AppData\Local\Temp\ccQ3AEax.s 			page 89


 4927 0a99 0C       		.byte	0xc
 4928 0a9a 1401     		.2byte	0x114
 4929 0a9c B4090000 		.4byte	0x9b4
 4930 0aa0 34       		.byte	0x34
 4931 0aa1 19       		.uleb128 0x19
 4932 0aa2 8E070000 		.4byte	.LASF162
 4933 0aa6 0C       		.byte	0xc
 4934 0aa7 1B01     		.2byte	0x11b
 4935 0aa9 7E170000 		.4byte	0x177e
 4936 0aad 38       		.byte	0x38
 4937 0aae 19       		.uleb128 0x19
 4938 0aaf 47320000 		.4byte	.LASF163
 4939 0ab3 0C       		.byte	0xc
 4940 0ab4 1F01     		.2byte	0x11f
 4941 0ab6 9E090000 		.4byte	0x99e
 4942 0aba 3C       		.byte	0x3c
 4943 0abb 19       		.uleb128 0x19
 4944 0abc E71D0000 		.4byte	.LASF164
 4945 0ac0 0C       		.byte	0xc
 4946 0ac1 2601     		.2byte	0x126
 4947 0ac3 B9000000 		.4byte	0xb9
 4948 0ac7 40       		.byte	0x40
 4949 0ac8 19       		.uleb128 0x19
 4950 0ac9 BC1C0000 		.4byte	.LASF165
 4951 0acd 0C       		.byte	0xc
 4952 0ace 2C01     		.2byte	0x12c
 4953 0ad0 6B160000 		.4byte	0x166b
 4954 0ad4 48       		.byte	0x48
 4955 0ad5 00       		.byte	0
 4956 0ad6 03       		.uleb128 0x3
 4957 0ad7 DF2F0000 		.4byte	.LASF166
 4958 0adb 0B       		.byte	0xb
 4959 0adc 39       		.byte	0x39
 4960 0add E10A0000 		.4byte	0xae1
 4961 0ae1 07       		.uleb128 0x7
 4962 0ae2 04       		.byte	0x4
 4963 0ae3 E0090000 		.4byte	0x9e0
 4964 0ae7 03       		.uleb128 0x3
 4965 0ae8 91080000 		.4byte	.LASF167
 4966 0aec 0B       		.byte	0xb
 4967 0aed 3E       		.byte	0x3e
 4968 0aee F20A0000 		.4byte	0xaf2
 4969 0af2 10       		.uleb128 0x10
 4970 0af3 72320000 		.4byte	.LASF168
 4971 0af7 04       		.byte	0x4
 4972 0af8 0C       		.byte	0xc
 4973 0af9 7C       		.byte	0x7c
 4974 0afa 0B0B0000 		.4byte	0xb0b
 4975 0afe 0F       		.uleb128 0xf
 4976 0aff 55030000 		.4byte	.LASF169
 4977 0b03 0C       		.byte	0xc
 4978 0b04 7D       		.byte	0x7d
 4979 0b05 E10A0000 		.4byte	0xae1
 4980 0b09 00       		.byte	0
 4981 0b0a 00       		.byte	0
 4982 0b0b 03       		.uleb128 0x3
 4983 0b0c 191E0000 		.4byte	.LASF170
ARM GAS  C:\Users\RAKIBU~1\AppData\Local\Temp\ccQ3AEax.s 			page 90


 4984 0b10 0B       		.byte	0xb
 4985 0b11 45       		.byte	0x45
 4986 0b12 160B0000 		.4byte	0xb16
 4987 0b16 10       		.uleb128 0x10
 4988 0b17 B9030000 		.4byte	.LASF171
 4989 0b1b 08       		.byte	0x8
 4990 0b1c 0C       		.byte	0xc
 4991 0b1d 83       		.byte	0x83
 4992 0b1e 3B0B0000 		.4byte	0xb3b
 4993 0b22 0F       		.uleb128 0xf
 4994 0b23 55030000 		.4byte	.LASF169
 4995 0b27 0C       		.byte	0xc
 4996 0b28 84       		.byte	0x84
 4997 0b29 E10A0000 		.4byte	0xae1
 4998 0b2d 00       		.byte	0
 4999 0b2e 0F       		.uleb128 0xf
 5000 0b2f D8310000 		.4byte	.LASF172
 5001 0b33 0C       		.byte	0xc
 5002 0b34 85       		.byte	0x85
 5003 0b35 E10A0000 		.4byte	0xae1
 5004 0b39 04       		.byte	0x4
 5005 0b3a 00       		.byte	0
 5006 0b3b 03       		.uleb128 0x3
 5007 0b3c C70C0000 		.4byte	.LASF173
 5008 0b40 0B       		.byte	0xb
 5009 0b41 4C       		.byte	0x4c
 5010 0b42 460B0000 		.4byte	0xb46
 5011 0b46 1B       		.uleb128 0x1b
 5012 0b47 E2260000 		.4byte	.LASF174
 5013 0b4b 1C       		.byte	0x1c
 5014 0b4c 0C       		.byte	0xc
 5015 0b4d 5E01     		.2byte	0x15e
 5016 0b4f A20B0000 		.4byte	0xba2
 5017 0b53 19       		.uleb128 0x19
 5018 0b54 10290000 		.4byte	.LASF150
 5019 0b58 0C       		.byte	0xc
 5020 0b59 5F01     		.2byte	0x15f
 5021 0b5b 0B0B0000 		.4byte	0xb0b
 5022 0b5f 00       		.byte	0
 5023 0b60 19       		.uleb128 0x19
 5024 0b61 73020000 		.4byte	.LASF151
 5025 0b65 0C       		.byte	0xc
 5026 0b66 6001     		.2byte	0x160
 5027 0b68 9E090000 		.4byte	0x99e
 5028 0b6c 08       		.byte	0x8
 5029 0b6d 21       		.uleb128 0x21
 5030 0b6e 63747800 		.ascii	"ctx\000"
 5031 0b72 0C       		.byte	0xc
 5032 0b73 6201     		.2byte	0x162
 5033 0b75 04130000 		.4byte	0x1304
 5034 0b79 0C       		.byte	0xc
 5035 0b7a 19       		.uleb128 0x19
 5036 0b7b 920B0000 		.4byte	.LASF152
 5037 0b7f 0C       		.byte	0xc
 5038 0b80 6501     		.2byte	0x165
 5039 0b82 E10A0000 		.4byte	0xae1
 5040 0b86 10       		.byte	0x10
ARM GAS  C:\Users\RAKIBU~1\AppData\Local\Temp\ccQ3AEax.s 			page 91


 5041 0b87 19       		.uleb128 0x19
 5042 0b88 5A030000 		.4byte	.LASF153
 5043 0b8c 0C       		.byte	0xc
 5044 0b8d 6601     		.2byte	0x166
 5045 0b8f E10A0000 		.4byte	0xae1
 5046 0b93 14       		.byte	0x14
 5047 0b94 19       		.uleb128 0x19
 5048 0b95 A41B0000 		.4byte	.LASF175
 5049 0b99 0C       		.byte	0xc
 5050 0b9a 6901     		.2byte	0x169
 5051 0b9c E10A0000 		.4byte	0xae1
 5052 0ba0 18       		.byte	0x18
 5053 0ba1 00       		.byte	0
 5054 0ba2 03       		.uleb128 0x3
 5055 0ba3 96250000 		.4byte	.LASF176
 5056 0ba7 0B       		.byte	0xb
 5057 0ba8 51       		.byte	0x51
 5058 0ba9 AD0B0000 		.4byte	0xbad
 5059 0bad 07       		.uleb128 0x7
 5060 0bae 04       		.byte	0x4
 5061 0baf B30B0000 		.4byte	0xbb3
 5062 0bb3 1F       		.uleb128 0x1f
 5063 0bb4 BE0B0000 		.4byte	0xbbe
 5064 0bb8 16       		.uleb128 0x16
 5065 0bb9 B9000000 		.4byte	0xb9
 5066 0bbd 00       		.byte	0
 5067 0bbe 03       		.uleb128 0x3
 5068 0bbf AA100000 		.4byte	.LASF177
 5069 0bc3 0B       		.byte	0xb
 5070 0bc4 56       		.byte	0x56
 5071 0bc5 C90B0000 		.4byte	0xbc9
 5072 0bc9 1B       		.uleb128 0x1b
 5073 0bca 2E2A0000 		.4byte	.LASF178
 5074 0bce 18       		.byte	0x18
 5075 0bcf 0C       		.byte	0xc
 5076 0bd0 3901     		.2byte	0x139
 5077 0bd2 180C0000 		.4byte	0xc18
 5078 0bd6 19       		.uleb128 0x19
 5079 0bd7 55030000 		.4byte	.LASF169
 5080 0bdb 0C       		.byte	0xc
 5081 0bdc 3A01     		.2byte	0x13a
 5082 0bde 8A170000 		.4byte	0x178a
 5083 0be2 00       		.byte	0
 5084 0be3 19       		.uleb128 0x19
 5085 0be4 D8310000 		.4byte	.LASF172
 5086 0be8 0C       		.byte	0xc
 5087 0be9 3B01     		.2byte	0x13b
 5088 0beb 8A170000 		.4byte	0x178a
 5089 0bef 04       		.byte	0x4
 5090 0bf0 19       		.uleb128 0x19
 5091 0bf1 C60D0000 		.4byte	.LASF179
 5092 0bf5 0C       		.byte	0xc
 5093 0bf6 3C01     		.2byte	0x13c
 5094 0bf8 280D0000 		.4byte	0xd28
 5095 0bfc 08       		.byte	0x8
 5096 0bfd 19       		.uleb128 0x19
 5097 0bfe 771D0000 		.4byte	.LASF180
ARM GAS  C:\Users\RAKIBU~1\AppData\Local\Temp\ccQ3AEax.s 			page 92


 5098 0c02 0C       		.byte	0xc
 5099 0c03 3D01     		.2byte	0x13d
 5100 0c05 A20B0000 		.4byte	0xba2
 5101 0c09 10       		.byte	0x10
 5102 0c0a 21       		.uleb128 0x21
 5103 0c0b 70617200 		.ascii	"par\000"
 5104 0c0f 0C       		.byte	0xc
 5105 0c10 3F01     		.2byte	0x13f
 5106 0c12 B9000000 		.4byte	0xb9
 5107 0c16 14       		.byte	0x14
 5108 0c17 00       		.byte	0
 5109 0c18 03       		.uleb128 0x3
 5110 0c19 B12B0000 		.4byte	.LASF181
 5111 0c1d 0B       		.byte	0xb
 5112 0c1e 5B       		.byte	0x5b
 5113 0c1f 230C0000 		.4byte	0xc23
 5114 0c23 1B       		.uleb128 0x1b
 5115 0c24 3F050000 		.4byte	.LASF182
 5116 0c28 18       		.byte	0x18
 5117 0c29 0C       		.byte	0xc
 5118 0c2a 4901     		.2byte	0x149
 5119 0c2c 650C0000 		.4byte	0xc65
 5120 0c30 19       		.uleb128 0x19
 5121 0c31 55030000 		.4byte	.LASF169
 5122 0c35 0C       		.byte	0xc
 5123 0c36 4A01     		.2byte	0x14a
 5124 0c38 8A170000 		.4byte	0x178a
 5125 0c3c 00       		.byte	0
 5126 0c3d 19       		.uleb128 0x19
 5127 0c3e D8310000 		.4byte	.LASF172
 5128 0c42 0C       		.byte	0xc
 5129 0c43 4C01     		.2byte	0x14c
 5130 0c45 8A170000 		.4byte	0x178a
 5131 0c49 04       		.byte	0x4
 5132 0c4a 19       		.uleb128 0x19
 5133 0c4b C60D0000 		.4byte	.LASF179
 5134 0c4f 0C       		.byte	0xc
 5135 0c50 4E01     		.2byte	0x14e
 5136 0c52 280D0000 		.4byte	0xd28
 5137 0c56 08       		.byte	0x8
 5138 0c57 19       		.uleb128 0x19
 5139 0c58 3B1C0000 		.4byte	.LASF183
 5140 0c5c 0C       		.byte	0xc
 5141 0c5d 5601     		.2byte	0x156
 5142 0c5f 1D0D0000 		.4byte	0xd1d
 5143 0c63 10       		.byte	0x10
 5144 0c64 00       		.byte	0
 5145 0c65 03       		.uleb128 0x3
 5146 0c66 990D0000 		.4byte	.LASF184
 5147 0c6a 0B       		.byte	0xb
 5148 0c6b 60       		.byte	0x60
 5149 0c6c 700C0000 		.4byte	0xc70
 5150 0c70 18       		.uleb128 0x18
 5151 0c71 2B270000 		.4byte	.LASF185
 5152 0c75 1408     		.2byte	0x814
 5153 0c77 0C       		.byte	0xc
 5154 0c78 7001     		.2byte	0x170
ARM GAS  C:\Users\RAKIBU~1\AppData\Local\Temp\ccQ3AEax.s 			page 93


 5155 0c7a B30C0000 		.4byte	0xcb3
 5156 0c7e 19       		.uleb128 0x19
 5157 0c7f A9190000 		.4byte	.LASF186
 5158 0c83 0C       		.byte	0xc
 5159 0c84 7801     		.2byte	0x178
 5160 0c86 DD050000 		.4byte	0x5dd
 5161 0c8a 00       		.byte	0
 5162 0c8b 19       		.uleb128 0x19
 5163 0c8c 21190000 		.4byte	.LASF187
 5164 0c90 0C       		.byte	0xc
 5165 0c91 7D01     		.2byte	0x17d
 5166 0c93 CA090000 		.4byte	0x9ca
 5167 0c97 04       		.byte	0x4
 5168 0c98 19       		.uleb128 0x19
 5169 0c99 B0030000 		.4byte	.LASF188
 5170 0c9d 0C       		.byte	0xc
 5171 0c9e 8101     		.2byte	0x181
 5172 0ca0 CA090000 		.4byte	0x9ca
 5173 0ca4 08       		.byte	0x8
 5174 0ca5 19       		.uleb128 0x19
 5175 0ca6 81240000 		.4byte	.LASF189
 5176 0caa 0C       		.byte	0xc
 5177 0cab 8701     		.2byte	0x187
 5178 0cad FD150000 		.4byte	0x15fd
 5179 0cb1 0C       		.byte	0xc
 5180 0cb2 00       		.byte	0
 5181 0cb3 03       		.uleb128 0x3
 5182 0cb4 4C010000 		.4byte	.LASF190
 5183 0cb8 0B       		.byte	0xb
 5184 0cb9 65       		.byte	0x65
 5185 0cba BE0C0000 		.4byte	0xcbe
 5186 0cbe 18       		.uleb128 0x18
 5187 0cbf 221D0000 		.4byte	.LASF191
 5188 0cc3 F008     		.2byte	0x8f0
 5189 0cc5 0C       		.byte	0xc
 5190 0cc6 9001     		.2byte	0x190
 5191 0cc8 1D0D0000 		.4byte	0xd1d
 5192 0ccc 19       		.uleb128 0x19
 5193 0ccd 8B080000 		.4byte	.LASF192
 5194 0cd1 0C       		.byte	0xc
 5195 0cd2 9401     		.2byte	0x194
 5196 0cd4 3B0B0000 		.4byte	0xb3b
 5197 0cd8 00       		.byte	0
 5198 0cd9 19       		.uleb128 0x19
 5199 0cda 0A080000 		.4byte	.LASF193
 5200 0cde 0C       		.byte	0xc
 5201 0cdf 9801     		.2byte	0x198
 5202 0ce1 180C0000 		.4byte	0xc18
 5203 0ce5 20       		.byte	0x20
 5204 0ce6 21       		.uleb128 0x21
 5205 0ce7 64626700 		.ascii	"dbg\000"
 5206 0ceb 0C       		.byte	0xc
 5207 0cec 9C01     		.2byte	0x19c
 5208 0cee 650C0000 		.4byte	0xc65
 5209 0cf2 38       		.byte	0x38
 5210 0cf3 1A       		.uleb128 0x1a
 5211 0cf4 891E0000 		.4byte	.LASF194
ARM GAS  C:\Users\RAKIBU~1\AppData\Local\Temp\ccQ3AEax.s 			page 94


 5212 0cf8 0C       		.byte	0xc
 5213 0cf9 A001     		.2byte	0x1a0
 5214 0cfb E0090000 		.4byte	0x9e0
 5215 0cff 5008     		.2byte	0x850
 5216 0d01 22       		.uleb128 0x22
 5217 0d02 746D00   		.ascii	"tm\000"
 5218 0d05 0C       		.byte	0xc
 5219 0d06 A501     		.2byte	0x1a5
 5220 0d08 1D160000 		.4byte	0x161d
 5221 0d0c B008     		.2byte	0x8b0
 5222 0d0e 1A       		.uleb128 0x1a
 5223 0d0f 10240000 		.4byte	.LASF195
 5224 0d13 0C       		.byte	0xc
 5225 0d14 AB01     		.2byte	0x1ab
 5226 0d16 AF160000 		.4byte	0x16af
 5227 0d1a B808     		.2byte	0x8b8
 5228 0d1c 00       		.byte	0
 5229 0d1d 03       		.uleb128 0x3
 5230 0d1e 88050000 		.4byte	.LASF196
 5231 0d22 0D       		.byte	0xd
 5232 0d23 6D       		.byte	0x6d
 5233 0d24 0B090000 		.4byte	0x90b
 5234 0d28 03       		.uleb128 0x3
 5235 0d29 69260000 		.4byte	.LASF197
 5236 0d2d 0D       		.byte	0xd
 5237 0d2e 77       		.byte	0x77
 5238 0d2f 20090000 		.4byte	0x920
 5239 0d33 0C       		.uleb128 0xc
 5240 0d34 0B090000 		.4byte	0x90b
 5241 0d38 430D0000 		.4byte	0xd43
 5242 0d3c 0D       		.uleb128 0xd
 5243 0d3d 9B000000 		.4byte	0x9b
 5244 0d41 01       		.byte	0x1
 5245 0d42 00       		.byte	0
 5246 0d43 20       		.uleb128 0x20
 5247 0d44 25290000 		.4byte	.LASF198
 5248 0d48 0E       		.byte	0xe
 5249 0d49 0408     		.2byte	0x804
 5250 0d4b 06090000 		.4byte	0x906
 5251 0d4f 23       		.uleb128 0x23
 5252 0d50 981C0000 		.4byte	.LASF199
 5253 0d54 0F       		.byte	0xf
 5254 0d55 4C       		.byte	0x4c
 5255 0d56 0B090000 		.4byte	0x90b
 5256 0d5a 0C       		.uleb128 0xc
 5257 0d5b EB080000 		.4byte	0x8eb
 5258 0d5f 6A0D0000 		.4byte	0xd6a
 5259 0d63 0D       		.uleb128 0xd
 5260 0d64 9B000000 		.4byte	0x9b
 5261 0d68 0F       		.byte	0xf
 5262 0d69 00       		.byte	0
 5263 0d6a 17       		.uleb128 0x17
 5264 0d6b 5A0D0000 		.4byte	0xd5a
 5265 0d6f 23       		.uleb128 0x23
 5266 0d70 DB2E0000 		.4byte	.LASF200
 5267 0d74 0F       		.byte	0xf
 5268 0d75 4E       		.byte	0x4e
ARM GAS  C:\Users\RAKIBU~1\AppData\Local\Temp\ccQ3AEax.s 			page 95


 5269 0d76 6A0D0000 		.4byte	0xd6a
 5270 0d7a 0C       		.uleb128 0xc
 5271 0d7b EB080000 		.4byte	0x8eb
 5272 0d7f 8A0D0000 		.4byte	0xd8a
 5273 0d83 0D       		.uleb128 0xd
 5274 0d84 9B000000 		.4byte	0x9b
 5275 0d88 07       		.byte	0x7
 5276 0d89 00       		.byte	0
 5277 0d8a 17       		.uleb128 0x17
 5278 0d8b 7A0D0000 		.4byte	0xd7a
 5279 0d8f 23       		.uleb128 0x23
 5280 0d90 7E220000 		.4byte	.LASF201
 5281 0d94 0F       		.byte	0xf
 5282 0d95 4F       		.byte	0x4f
 5283 0d96 8A0D0000 		.4byte	0xd8a
 5284 0d9a 1C       		.uleb128 0x1c
 5285 0d9b 18       		.byte	0x18
 5286 0d9c 10       		.byte	0x10
 5287 0d9d 6A01     		.2byte	0x16a
 5288 0d9f F10D0000 		.4byte	0xdf1
 5289 0da3 21       		.uleb128 0x21
 5290 0da4 435200   		.ascii	"CR\000"
 5291 0da7 10       		.byte	0x10
 5292 0da8 6C01     		.2byte	0x16c
 5293 0daa 16090000 		.4byte	0x916
 5294 0dae 00       		.byte	0
 5295 0daf 19       		.uleb128 0x19
 5296 0db0 B0290000 		.4byte	.LASF202
 5297 0db4 10       		.byte	0x10
 5298 0db5 6D01     		.2byte	0x16d
 5299 0db7 16090000 		.4byte	0x916
 5300 0dbb 04       		.byte	0x4
 5301 0dbc 21       		.uleb128 0x21
 5302 0dbd 50415200 		.ascii	"PAR\000"
 5303 0dc1 10       		.byte	0x10
 5304 0dc2 6E01     		.2byte	0x16e
 5305 0dc4 16090000 		.4byte	0x916
 5306 0dc8 08       		.byte	0x8
 5307 0dc9 19       		.uleb128 0x19
 5308 0dca B8050000 		.4byte	.LASF203
 5309 0dce 10       		.byte	0x10
 5310 0dcf 6F01     		.2byte	0x16f
 5311 0dd1 16090000 		.4byte	0x916
 5312 0dd5 0C       		.byte	0xc
 5313 0dd6 19       		.uleb128 0x19
 5314 0dd7 330B0000 		.4byte	.LASF204
 5315 0ddb 10       		.byte	0x10
 5316 0ddc 7001     		.2byte	0x170
 5317 0dde 16090000 		.4byte	0x916
 5318 0de2 10       		.byte	0x10
 5319 0de3 21       		.uleb128 0x21
 5320 0de4 46435200 		.ascii	"FCR\000"
 5321 0de8 10       		.byte	0x10
 5322 0de9 7101     		.2byte	0x171
 5323 0deb 16090000 		.4byte	0x916
 5324 0def 14       		.byte	0x14
 5325 0df0 00       		.byte	0
ARM GAS  C:\Users\RAKIBU~1\AppData\Local\Temp\ccQ3AEax.s 			page 96


 5326 0df1 09       		.uleb128 0x9
 5327 0df2 4D0B0000 		.4byte	.LASF205
 5328 0df6 10       		.byte	0x10
 5329 0df7 7201     		.2byte	0x172
 5330 0df9 9A0D0000 		.4byte	0xd9a
 5331 0dfd 0C       		.uleb128 0xc
 5332 0dfe 16090000 		.4byte	0x916
 5333 0e02 0D0E0000 		.4byte	0xe0d
 5334 0e06 0D       		.uleb128 0xd
 5335 0e07 9B000000 		.4byte	0x9b
 5336 0e0b 01       		.byte	0x1
 5337 0e0c 00       		.byte	0
 5338 0e0d 05       		.uleb128 0x5
 5339 0e0e FD0D0000 		.4byte	0xdfd
 5340 0e12 0C       		.uleb128 0xc
 5341 0e13 16090000 		.4byte	0x916
 5342 0e17 220E0000 		.4byte	0xe22
 5343 0e1b 0D       		.uleb128 0xd
 5344 0e1c 9B000000 		.4byte	0x9b
 5345 0e20 03       		.byte	0x3
 5346 0e21 00       		.byte	0
 5347 0e22 05       		.uleb128 0x5
 5348 0e23 120E0000 		.4byte	0xe12
 5349 0e27 1C       		.uleb128 0x1c
 5350 0e28 24       		.byte	0x24
 5351 0e29 10       		.byte	0x10
 5352 0e2a 3D02     		.2byte	0x23d
 5353 0e2c A50E0000 		.4byte	0xea5
 5354 0e30 21       		.uleb128 0x21
 5355 0e31 43523100 		.ascii	"CR1\000"
 5356 0e35 10       		.byte	0x10
 5357 0e36 3F02     		.2byte	0x23f
 5358 0e38 16090000 		.4byte	0x916
 5359 0e3c 00       		.byte	0
 5360 0e3d 21       		.uleb128 0x21
 5361 0e3e 43523200 		.ascii	"CR2\000"
 5362 0e42 10       		.byte	0x10
 5363 0e43 4002     		.2byte	0x240
 5364 0e45 16090000 		.4byte	0x916
 5365 0e49 04       		.byte	0x4
 5366 0e4a 19       		.uleb128 0x19
 5367 0e4b 89320000 		.4byte	.LASF206
 5368 0e4f 10       		.byte	0x10
 5369 0e50 4102     		.2byte	0x241
 5370 0e52 16090000 		.4byte	0x916
 5371 0e56 08       		.byte	0x8
 5372 0e57 19       		.uleb128 0x19
 5373 0e58 8E320000 		.4byte	.LASF207
 5374 0e5c 10       		.byte	0x10
 5375 0e5d 4202     		.2byte	0x242
 5376 0e5f 16090000 		.4byte	0x916
 5377 0e63 0C       		.byte	0xc
 5378 0e64 21       		.uleb128 0x21
 5379 0e65 445200   		.ascii	"DR\000"
 5380 0e68 10       		.byte	0x10
 5381 0e69 4302     		.2byte	0x243
 5382 0e6b 16090000 		.4byte	0x916
ARM GAS  C:\Users\RAKIBU~1\AppData\Local\Temp\ccQ3AEax.s 			page 97


 5383 0e6f 10       		.byte	0x10
 5384 0e70 21       		.uleb128 0x21
 5385 0e71 53523100 		.ascii	"SR1\000"
 5386 0e75 10       		.byte	0x10
 5387 0e76 4402     		.2byte	0x244
 5388 0e78 16090000 		.4byte	0x916
 5389 0e7c 14       		.byte	0x14
 5390 0e7d 21       		.uleb128 0x21
 5391 0e7e 53523200 		.ascii	"SR2\000"
 5392 0e82 10       		.byte	0x10
 5393 0e83 4502     		.2byte	0x245
 5394 0e85 16090000 		.4byte	0x916
 5395 0e89 18       		.byte	0x18
 5396 0e8a 21       		.uleb128 0x21
 5397 0e8b 43435200 		.ascii	"CCR\000"
 5398 0e8f 10       		.byte	0x10
 5399 0e90 4602     		.2byte	0x246
 5400 0e92 16090000 		.4byte	0x916
 5401 0e96 1C       		.byte	0x1c
 5402 0e97 19       		.uleb128 0x19
 5403 0e98 35080000 		.4byte	.LASF208
 5404 0e9c 10       		.byte	0x10
 5405 0e9d 4702     		.2byte	0x247
 5406 0e9f 16090000 		.4byte	0x916
 5407 0ea3 20       		.byte	0x20
 5408 0ea4 00       		.byte	0
 5409 0ea5 09       		.uleb128 0x9
 5410 0ea6 53170000 		.4byte	.LASF209
 5411 0eaa 10       		.byte	0x10
 5412 0eab 4802     		.2byte	0x248
 5413 0ead 270E0000 		.4byte	0xe27
 5414 0eb1 1C       		.uleb128 0x1c
 5415 0eb2 A0       		.byte	0xa0
 5416 0eb3 10       		.byte	0x10
 5417 0eb4 8B02     		.2byte	0x28b
 5418 0eb6 C0100000 		.4byte	0x10c0
 5419 0eba 21       		.uleb128 0x21
 5420 0ebb 545200   		.ascii	"TR\000"
 5421 0ebe 10       		.byte	0x10
 5422 0ebf 8D02     		.2byte	0x28d
 5423 0ec1 16090000 		.4byte	0x916
 5424 0ec5 00       		.byte	0
 5425 0ec6 21       		.uleb128 0x21
 5426 0ec7 445200   		.ascii	"DR\000"
 5427 0eca 10       		.byte	0x10
 5428 0ecb 8E02     		.2byte	0x28e
 5429 0ecd 16090000 		.4byte	0x916
 5430 0ed1 04       		.byte	0x4
 5431 0ed2 21       		.uleb128 0x21
 5432 0ed3 435200   		.ascii	"CR\000"
 5433 0ed6 10       		.byte	0x10
 5434 0ed7 8F02     		.2byte	0x28f
 5435 0ed9 16090000 		.4byte	0x916
 5436 0edd 08       		.byte	0x8
 5437 0ede 21       		.uleb128 0x21
 5438 0edf 49535200 		.ascii	"ISR\000"
 5439 0ee3 10       		.byte	0x10
ARM GAS  C:\Users\RAKIBU~1\AppData\Local\Temp\ccQ3AEax.s 			page 98


 5440 0ee4 9002     		.2byte	0x290
 5441 0ee6 16090000 		.4byte	0x916
 5442 0eea 0C       		.byte	0xc
 5443 0eeb 19       		.uleb128 0x19
 5444 0eec BC2E0000 		.4byte	.LASF210
 5445 0ef0 10       		.byte	0x10
 5446 0ef1 9102     		.2byte	0x291
 5447 0ef3 16090000 		.4byte	0x916
 5448 0ef7 10       		.byte	0x10
 5449 0ef8 19       		.uleb128 0x19
 5450 0ef9 16290000 		.4byte	.LASF211
 5451 0efd 10       		.byte	0x10
 5452 0efe 9202     		.2byte	0x292
 5453 0f00 16090000 		.4byte	0x916
 5454 0f04 14       		.byte	0x14
 5455 0f05 19       		.uleb128 0x19
 5456 0f06 0D1D0000 		.4byte	.LASF212
 5457 0f0a 10       		.byte	0x10
 5458 0f0b 9302     		.2byte	0x293
 5459 0f0d 16090000 		.4byte	0x916
 5460 0f11 18       		.byte	0x18
 5461 0f12 19       		.uleb128 0x19
 5462 0f13 832B0000 		.4byte	.LASF213
 5463 0f17 10       		.byte	0x10
 5464 0f18 9402     		.2byte	0x294
 5465 0f1a 16090000 		.4byte	0x916
 5466 0f1e 1C       		.byte	0x1c
 5467 0f1f 19       		.uleb128 0x19
 5468 0f20 B02C0000 		.4byte	.LASF214
 5469 0f24 10       		.byte	0x10
 5470 0f25 9502     		.2byte	0x295
 5471 0f27 16090000 		.4byte	0x916
 5472 0f2b 20       		.byte	0x20
 5473 0f2c 21       		.uleb128 0x21
 5474 0f2d 57505200 		.ascii	"WPR\000"
 5475 0f31 10       		.byte	0x10
 5476 0f32 9602     		.2byte	0x296
 5477 0f34 16090000 		.4byte	0x916
 5478 0f38 24       		.byte	0x24
 5479 0f39 21       		.uleb128 0x21
 5480 0f3a 53535200 		.ascii	"SSR\000"
 5481 0f3e 10       		.byte	0x10
 5482 0f3f 9702     		.2byte	0x297
 5483 0f41 16090000 		.4byte	0x916
 5484 0f45 28       		.byte	0x28
 5485 0f46 19       		.uleb128 0x19
 5486 0f47 B30E0000 		.4byte	.LASF215
 5487 0f4b 10       		.byte	0x10
 5488 0f4c 9802     		.2byte	0x298
 5489 0f4e 16090000 		.4byte	0x916
 5490 0f52 2C       		.byte	0x2c
 5491 0f53 19       		.uleb128 0x19
 5492 0f54 620A0000 		.4byte	.LASF216
 5493 0f58 10       		.byte	0x10
 5494 0f59 9902     		.2byte	0x299
 5495 0f5b 16090000 		.4byte	0x916
 5496 0f5f 30       		.byte	0x30
ARM GAS  C:\Users\RAKIBU~1\AppData\Local\Temp\ccQ3AEax.s 			page 99


 5497 0f60 19       		.uleb128 0x19
 5498 0f61 592F0000 		.4byte	.LASF217
 5499 0f65 10       		.byte	0x10
 5500 0f66 9A02     		.2byte	0x29a
 5501 0f68 16090000 		.4byte	0x916
 5502 0f6c 34       		.byte	0x34
 5503 0f6d 19       		.uleb128 0x19
 5504 0f6e 6C1E0000 		.4byte	.LASF218
 5505 0f72 10       		.byte	0x10
 5506 0f73 9B02     		.2byte	0x29b
 5507 0f75 16090000 		.4byte	0x916
 5508 0f79 38       		.byte	0x38
 5509 0f7a 19       		.uleb128 0x19
 5510 0f7b BD050000 		.4byte	.LASF219
 5511 0f7f 10       		.byte	0x10
 5512 0f80 9C02     		.2byte	0x29c
 5513 0f82 16090000 		.4byte	0x916
 5514 0f86 3C       		.byte	0x3c
 5515 0f87 19       		.uleb128 0x19
 5516 0f88 9B140000 		.4byte	.LASF220
 5517 0f8c 10       		.byte	0x10
 5518 0f8d 9D02     		.2byte	0x29d
 5519 0f8f 16090000 		.4byte	0x916
 5520 0f93 40       		.byte	0x40
 5521 0f94 19       		.uleb128 0x19
 5522 0f95 3B270000 		.4byte	.LASF221
 5523 0f99 10       		.byte	0x10
 5524 0f9a 9E02     		.2byte	0x29e
 5525 0f9c 16090000 		.4byte	0x916
 5526 0fa0 44       		.byte	0x44
 5527 0fa1 19       		.uleb128 0x19
 5528 0fa2 FF0D0000 		.4byte	.LASF222
 5529 0fa6 10       		.byte	0x10
 5530 0fa7 9F02     		.2byte	0x29f
 5531 0fa9 16090000 		.4byte	0x916
 5532 0fad 48       		.byte	0x48
 5533 0fae 19       		.uleb128 0x19
 5534 0faf 57280000 		.4byte	.LASF223
 5535 0fb3 10       		.byte	0x10
 5536 0fb4 A002     		.2byte	0x2a0
 5537 0fb6 0B090000 		.4byte	0x90b
 5538 0fba 4C       		.byte	0x4c
 5539 0fbb 19       		.uleb128 0x19
 5540 0fbc 300D0000 		.4byte	.LASF224
 5541 0fc0 10       		.byte	0x10
 5542 0fc1 A102     		.2byte	0x2a1
 5543 0fc3 16090000 		.4byte	0x916
 5544 0fc7 50       		.byte	0x50
 5545 0fc8 19       		.uleb128 0x19
 5546 0fc9 C51B0000 		.4byte	.LASF225
 5547 0fcd 10       		.byte	0x10
 5548 0fce A202     		.2byte	0x2a2
 5549 0fd0 16090000 		.4byte	0x916
 5550 0fd4 54       		.byte	0x54
 5551 0fd5 19       		.uleb128 0x19
 5552 0fd6 9C0E0000 		.4byte	.LASF226
 5553 0fda 10       		.byte	0x10
ARM GAS  C:\Users\RAKIBU~1\AppData\Local\Temp\ccQ3AEax.s 			page 100


 5554 0fdb A302     		.2byte	0x2a3
 5555 0fdd 16090000 		.4byte	0x916
 5556 0fe1 58       		.byte	0x58
 5557 0fe2 19       		.uleb128 0x19
 5558 0fe3 400F0000 		.4byte	.LASF227
 5559 0fe7 10       		.byte	0x10
 5560 0fe8 A402     		.2byte	0x2a4
 5561 0fea 16090000 		.4byte	0x916
 5562 0fee 5C       		.byte	0x5c
 5563 0fef 19       		.uleb128 0x19
 5564 0ff0 29100000 		.4byte	.LASF228
 5565 0ff4 10       		.byte	0x10
 5566 0ff5 A502     		.2byte	0x2a5
 5567 0ff7 16090000 		.4byte	0x916
 5568 0ffb 60       		.byte	0x60
 5569 0ffc 19       		.uleb128 0x19
 5570 0ffd FE100000 		.4byte	.LASF229
 5571 1001 10       		.byte	0x10
 5572 1002 A602     		.2byte	0x2a6
 5573 1004 16090000 		.4byte	0x916
 5574 1008 64       		.byte	0x64
 5575 1009 19       		.uleb128 0x19
 5576 100a 97110000 		.4byte	.LASF230
 5577 100e 10       		.byte	0x10
 5578 100f A702     		.2byte	0x2a7
 5579 1011 16090000 		.4byte	0x916
 5580 1015 68       		.byte	0x68
 5581 1016 19       		.uleb128 0x19
 5582 1017 05120000 		.4byte	.LASF231
 5583 101b 10       		.byte	0x10
 5584 101c A802     		.2byte	0x2a8
 5585 101e 16090000 		.4byte	0x916
 5586 1022 6C       		.byte	0x6c
 5587 1023 19       		.uleb128 0x19
 5588 1024 C8120000 		.4byte	.LASF232
 5589 1028 10       		.byte	0x10
 5590 1029 A902     		.2byte	0x2a9
 5591 102b 16090000 		.4byte	0x916
 5592 102f 70       		.byte	0x70
 5593 1030 19       		.uleb128 0x19
 5594 1031 7B130000 		.4byte	.LASF233
 5595 1035 10       		.byte	0x10
 5596 1036 AA02     		.2byte	0x2aa
 5597 1038 16090000 		.4byte	0x916
 5598 103c 74       		.byte	0x74
 5599 103d 19       		.uleb128 0x19
 5600 103e 0E020000 		.4byte	.LASF234
 5601 1042 10       		.byte	0x10
 5602 1043 AB02     		.2byte	0x2ab
 5603 1045 16090000 		.4byte	0x916
 5604 1049 78       		.byte	0x78
 5605 104a 19       		.uleb128 0x19
 5606 104b AA020000 		.4byte	.LASF235
 5607 104f 10       		.byte	0x10
 5608 1050 AC02     		.2byte	0x2ac
 5609 1052 16090000 		.4byte	0x916
 5610 1056 7C       		.byte	0x7c
ARM GAS  C:\Users\RAKIBU~1\AppData\Local\Temp\ccQ3AEax.s 			page 101


 5611 1057 19       		.uleb128 0x19
 5612 1058 72030000 		.4byte	.LASF236
 5613 105c 10       		.byte	0x10
 5614 105d AD02     		.2byte	0x2ad
 5615 105f 16090000 		.4byte	0x916
 5616 1063 80       		.byte	0x80
 5617 1064 19       		.uleb128 0x19
 5618 1065 37040000 		.4byte	.LASF237
 5619 1069 10       		.byte	0x10
 5620 106a AE02     		.2byte	0x2ae
 5621 106c 16090000 		.4byte	0x916
 5622 1070 84       		.byte	0x84
 5623 1071 19       		.uleb128 0x19
 5624 1072 DE040000 		.4byte	.LASF238
 5625 1076 10       		.byte	0x10
 5626 1077 AF02     		.2byte	0x2af
 5627 1079 16090000 		.4byte	0x916
 5628 107d 88       		.byte	0x88
 5629 107e 19       		.uleb128 0x19
 5630 107f CD050000 		.4byte	.LASF239
 5631 1083 10       		.byte	0x10
 5632 1084 B002     		.2byte	0x2b0
 5633 1086 16090000 		.4byte	0x916
 5634 108a 8C       		.byte	0x8c
 5635 108b 19       		.uleb128 0x19
 5636 108c EC060000 		.4byte	.LASF240
 5637 1090 10       		.byte	0x10
 5638 1091 B102     		.2byte	0x2b1
 5639 1093 16090000 		.4byte	0x916
 5640 1097 90       		.byte	0x90
 5641 1098 19       		.uleb128 0x19
 5642 1099 11080000 		.4byte	.LASF241
 5643 109d 10       		.byte	0x10
 5644 109e B202     		.2byte	0x2b2
 5645 10a0 16090000 		.4byte	0x916
 5646 10a4 94       		.byte	0x94
 5647 10a5 19       		.uleb128 0x19
 5648 10a6 3B090000 		.4byte	.LASF242
 5649 10aa 10       		.byte	0x10
 5650 10ab B302     		.2byte	0x2b3
 5651 10ad 16090000 		.4byte	0x916
 5652 10b1 98       		.byte	0x98
 5653 10b2 19       		.uleb128 0x19
 5654 10b3 270A0000 		.4byte	.LASF243
 5655 10b7 10       		.byte	0x10
 5656 10b8 B402     		.2byte	0x2b4
 5657 10ba 16090000 		.4byte	0x916
 5658 10be 9C       		.byte	0x9c
 5659 10bf 00       		.byte	0
 5660 10c0 09       		.uleb128 0x9
 5661 10c1 1B220000 		.4byte	.LASF244
 5662 10c5 10       		.byte	0x10
 5663 10c6 B502     		.2byte	0x2b5
 5664 10c8 B10E0000 		.4byte	0xeb1
 5665 10cc 1C       		.uleb128 0x1c
 5666 10cd 84       		.byte	0x84
 5667 10ce 10       		.byte	0x10
ARM GAS  C:\Users\RAKIBU~1\AppData\Local\Temp\ccQ3AEax.s 			page 102


 5668 10cf BB02     		.2byte	0x2bb
 5669 10d1 DA110000 		.4byte	0x11da
 5670 10d5 19       		.uleb128 0x19
 5671 10d6 2C1D0000 		.4byte	.LASF245
 5672 10da 10       		.byte	0x10
 5673 10db BD02     		.2byte	0x2bd
 5674 10dd 16090000 		.4byte	0x916
 5675 10e1 00       		.byte	0
 5676 10e2 19       		.uleb128 0x19
 5677 10e3 1E2B0000 		.4byte	.LASF246
 5678 10e7 10       		.byte	0x10
 5679 10e8 BE02     		.2byte	0x2be
 5680 10ea 16090000 		.4byte	0x916
 5681 10ee 04       		.byte	0x4
 5682 10ef 21       		.uleb128 0x21
 5683 10f0 41524700 		.ascii	"ARG\000"
 5684 10f4 10       		.byte	0x10
 5685 10f5 BF02     		.2byte	0x2bf
 5686 10f7 16090000 		.4byte	0x916
 5687 10fb 08       		.byte	0x8
 5688 10fc 21       		.uleb128 0x21
 5689 10fd 434D4400 		.ascii	"CMD\000"
 5690 1101 10       		.byte	0x10
 5691 1102 C002     		.2byte	0x2c0
 5692 1104 16090000 		.4byte	0x916
 5693 1108 0C       		.byte	0xc
 5694 1109 19       		.uleb128 0x19
 5695 110a FB210000 		.4byte	.LASF247
 5696 110e 10       		.byte	0x10
 5697 110f C102     		.2byte	0x2c1
 5698 1111 1B090000 		.4byte	0x91b
 5699 1115 10       		.byte	0x10
 5700 1116 19       		.uleb128 0x19
 5701 1117 48090000 		.4byte	.LASF248
 5702 111b 10       		.byte	0x10
 5703 111c C202     		.2byte	0x2c2
 5704 111e 1B090000 		.4byte	0x91b
 5705 1122 14       		.byte	0x14
 5706 1123 19       		.uleb128 0x19
 5707 1124 4E090000 		.4byte	.LASF249
 5708 1128 10       		.byte	0x10
 5709 1129 C302     		.2byte	0x2c3
 5710 112b 1B090000 		.4byte	0x91b
 5711 112f 18       		.byte	0x18
 5712 1130 19       		.uleb128 0x19
 5713 1131 54090000 		.4byte	.LASF250
 5714 1135 10       		.byte	0x10
 5715 1136 C402     		.2byte	0x2c4
 5716 1138 1B090000 		.4byte	0x91b
 5717 113c 1C       		.byte	0x1c
 5718 113d 19       		.uleb128 0x19
 5719 113e 5A090000 		.4byte	.LASF251
 5720 1142 10       		.byte	0x10
 5721 1143 C502     		.2byte	0x2c5
 5722 1145 1B090000 		.4byte	0x91b
 5723 1149 20       		.byte	0x20
 5724 114a 19       		.uleb128 0x19
ARM GAS  C:\Users\RAKIBU~1\AppData\Local\Temp\ccQ3AEax.s 			page 103


 5725 114b D2190000 		.4byte	.LASF252
 5726 114f 10       		.byte	0x10
 5727 1150 C602     		.2byte	0x2c6
 5728 1152 16090000 		.4byte	0x916
 5729 1156 24       		.byte	0x24
 5730 1157 19       		.uleb128 0x19
 5731 1158 EF1B0000 		.4byte	.LASF253
 5732 115c 10       		.byte	0x10
 5733 115d C702     		.2byte	0x2c7
 5734 115f 16090000 		.4byte	0x916
 5735 1163 28       		.byte	0x28
 5736 1164 19       		.uleb128 0x19
 5737 1165 D1300000 		.4byte	.LASF254
 5738 1169 10       		.byte	0x10
 5739 116a C802     		.2byte	0x2c8
 5740 116c 16090000 		.4byte	0x916
 5741 1170 2C       		.byte	0x2c
 5742 1171 19       		.uleb128 0x19
 5743 1172 82320000 		.4byte	.LASF255
 5744 1176 10       		.byte	0x10
 5745 1177 C902     		.2byte	0x2c9
 5746 1179 1B090000 		.4byte	0x91b
 5747 117d 30       		.byte	0x30
 5748 117e 21       		.uleb128 0x21
 5749 117f 53544100 		.ascii	"STA\000"
 5750 1183 10       		.byte	0x10
 5751 1184 CA02     		.2byte	0x2ca
 5752 1186 1B090000 		.4byte	0x91b
 5753 118a 34       		.byte	0x34
 5754 118b 21       		.uleb128 0x21
 5755 118c 49435200 		.ascii	"ICR\000"
 5756 1190 10       		.byte	0x10
 5757 1191 CB02     		.2byte	0x2cb
 5758 1193 16090000 		.4byte	0x916
 5759 1197 38       		.byte	0x38
 5760 1198 19       		.uleb128 0x19
 5761 1199 5B270000 		.4byte	.LASF256
 5762 119d 10       		.byte	0x10
 5763 119e CC02     		.2byte	0x2cc
 5764 11a0 16090000 		.4byte	0x916
 5765 11a4 3C       		.byte	0x3c
 5766 11a5 19       		.uleb128 0x19
 5767 11a6 29280000 		.4byte	.LASF257
 5768 11aa 10       		.byte	0x10
 5769 11ab CD02     		.2byte	0x2cd
 5770 11ad 330D0000 		.4byte	0xd33
 5771 11b1 40       		.byte	0x40
 5772 11b2 19       		.uleb128 0x19
 5773 11b3 BE1A0000 		.4byte	.LASF258
 5774 11b7 10       		.byte	0x10
 5775 11b8 CE02     		.2byte	0x2ce
 5776 11ba 1B090000 		.4byte	0x91b
 5777 11be 48       		.byte	0x48
 5778 11bf 19       		.uleb128 0x19
 5779 11c0 33280000 		.4byte	.LASF259
 5780 11c4 10       		.byte	0x10
 5781 11c5 CF02     		.2byte	0x2cf
ARM GAS  C:\Users\RAKIBU~1\AppData\Local\Temp\ccQ3AEax.s 			page 104


 5782 11c7 DA110000 		.4byte	0x11da
 5783 11cb 4C       		.byte	0x4c
 5784 11cc 19       		.uleb128 0x19
 5785 11cd B10C0000 		.4byte	.LASF260
 5786 11d1 10       		.byte	0x10
 5787 11d2 D002     		.2byte	0x2d0
 5788 11d4 16090000 		.4byte	0x916
 5789 11d8 80       		.byte	0x80
 5790 11d9 00       		.byte	0
 5791 11da 0C       		.uleb128 0xc
 5792 11db 0B090000 		.4byte	0x90b
 5793 11df EA110000 		.4byte	0x11ea
 5794 11e3 0D       		.uleb128 0xd
 5795 11e4 9B000000 		.4byte	0x9b
 5796 11e8 0C       		.byte	0xc
 5797 11e9 00       		.byte	0
 5798 11ea 09       		.uleb128 0x9
 5799 11eb 63290000 		.4byte	.LASF261
 5800 11ef 10       		.byte	0x10
 5801 11f0 D102     		.2byte	0x2d1
 5802 11f2 CC100000 		.4byte	0x10cc
 5803 11f6 1C       		.uleb128 0x1c
 5804 11f7 24       		.byte	0x24
 5805 11f8 10       		.byte	0x10
 5806 11f9 D702     		.2byte	0x2d7
 5807 11fb 73120000 		.4byte	0x1273
 5808 11ff 21       		.uleb128 0x21
 5809 1200 43523100 		.ascii	"CR1\000"
 5810 1204 10       		.byte	0x10
 5811 1205 D902     		.2byte	0x2d9
 5812 1207 16090000 		.4byte	0x916
 5813 120b 00       		.byte	0
 5814 120c 21       		.uleb128 0x21
 5815 120d 43523200 		.ascii	"CR2\000"
 5816 1211 10       		.byte	0x10
 5817 1212 DA02     		.2byte	0x2da
 5818 1214 16090000 		.4byte	0x916
 5819 1218 04       		.byte	0x4
 5820 1219 21       		.uleb128 0x21
 5821 121a 535200   		.ascii	"SR\000"
 5822 121d 10       		.byte	0x10
 5823 121e DB02     		.2byte	0x2db
 5824 1220 16090000 		.4byte	0x916
 5825 1224 08       		.byte	0x8
 5826 1225 21       		.uleb128 0x21
 5827 1226 445200   		.ascii	"DR\000"
 5828 1229 10       		.byte	0x10
 5829 122a DC02     		.2byte	0x2dc
 5830 122c 16090000 		.4byte	0x916
 5831 1230 0C       		.byte	0xc
 5832 1231 19       		.uleb128 0x19
 5833 1232 D70A0000 		.4byte	.LASF262
 5834 1236 10       		.byte	0x10
 5835 1237 DD02     		.2byte	0x2dd
 5836 1239 16090000 		.4byte	0x916
 5837 123d 10       		.byte	0x10
 5838 123e 19       		.uleb128 0x19
ARM GAS  C:\Users\RAKIBU~1\AppData\Local\Temp\ccQ3AEax.s 			page 105


 5839 123f 630F0000 		.4byte	.LASF263
 5840 1243 10       		.byte	0x10
 5841 1244 DE02     		.2byte	0x2de
 5842 1246 16090000 		.4byte	0x916
 5843 124a 14       		.byte	0x14
 5844 124b 19       		.uleb128 0x19
 5845 124c F80D0000 		.4byte	.LASF264
 5846 1250 10       		.byte	0x10
 5847 1251 DF02     		.2byte	0x2df
 5848 1253 16090000 		.4byte	0x916
 5849 1257 18       		.byte	0x18
 5850 1258 19       		.uleb128 0x19
 5851 1259 8E2C0000 		.4byte	.LASF265
 5852 125d 10       		.byte	0x10
 5853 125e E002     		.2byte	0x2e0
 5854 1260 16090000 		.4byte	0x916
 5855 1264 1C       		.byte	0x1c
 5856 1265 19       		.uleb128 0x19
 5857 1266 B80A0000 		.4byte	.LASF266
 5858 126a 10       		.byte	0x10
 5859 126b E102     		.2byte	0x2e1
 5860 126d 16090000 		.4byte	0x916
 5861 1271 20       		.byte	0x20
 5862 1272 00       		.byte	0
 5863 1273 09       		.uleb128 0x9
 5864 1274 E2290000 		.4byte	.LASF267
 5865 1278 10       		.byte	0x10
 5866 1279 E202     		.2byte	0x2e2
 5867 127b F6110000 		.4byte	0x11f6
 5868 127f 1C       		.uleb128 0x1c
 5869 1280 1C       		.byte	0x1c
 5870 1281 10       		.byte	0x10
 5871 1282 0603     		.2byte	0x306
 5872 1284 E2120000 		.4byte	0x12e2
 5873 1288 21       		.uleb128 0x21
 5874 1289 535200   		.ascii	"SR\000"
 5875 128c 10       		.byte	0x10
 5876 128d 0803     		.2byte	0x308
 5877 128f 16090000 		.4byte	0x916
 5878 1293 00       		.byte	0
 5879 1294 21       		.uleb128 0x21
 5880 1295 445200   		.ascii	"DR\000"
 5881 1298 10       		.byte	0x10
 5882 1299 0903     		.2byte	0x309
 5883 129b 16090000 		.4byte	0x916
 5884 129f 04       		.byte	0x4
 5885 12a0 21       		.uleb128 0x21
 5886 12a1 42525200 		.ascii	"BRR\000"
 5887 12a5 10       		.byte	0x10
 5888 12a6 0A03     		.2byte	0x30a
 5889 12a8 16090000 		.4byte	0x916
 5890 12ac 08       		.byte	0x8
 5891 12ad 21       		.uleb128 0x21
 5892 12ae 43523100 		.ascii	"CR1\000"
 5893 12b2 10       		.byte	0x10
 5894 12b3 0B03     		.2byte	0x30b
 5895 12b5 16090000 		.4byte	0x916
ARM GAS  C:\Users\RAKIBU~1\AppData\Local\Temp\ccQ3AEax.s 			page 106


 5896 12b9 0C       		.byte	0xc
 5897 12ba 21       		.uleb128 0x21
 5898 12bb 43523200 		.ascii	"CR2\000"
 5899 12bf 10       		.byte	0x10
 5900 12c0 0C03     		.2byte	0x30c
 5901 12c2 16090000 		.4byte	0x916
 5902 12c6 10       		.byte	0x10
 5903 12c7 21       		.uleb128 0x21
 5904 12c8 43523300 		.ascii	"CR3\000"
 5905 12cc 10       		.byte	0x10
 5906 12cd 0D03     		.2byte	0x30d
 5907 12cf 16090000 		.4byte	0x916
 5908 12d3 14       		.byte	0x14
 5909 12d4 19       		.uleb128 0x19
 5910 12d5 E1120000 		.4byte	.LASF268
 5911 12d9 10       		.byte	0x10
 5912 12da 0E03     		.2byte	0x30e
 5913 12dc 16090000 		.4byte	0x916
 5914 12e0 18       		.byte	0x18
 5915 12e1 00       		.byte	0
 5916 12e2 09       		.uleb128 0x9
 5917 12e3 4B1E0000 		.4byte	.LASF269
 5918 12e7 10       		.byte	0x10
 5919 12e8 0F03     		.2byte	0x30f
 5920 12ea 7F120000 		.4byte	0x127f
 5921 12ee 03       		.uleb128 0x3
 5922 12ef 9D200000 		.4byte	.LASF270
 5923 12f3 11       		.byte	0x11
 5924 12f4 65       		.byte	0x65
 5925 12f5 B9000000 		.4byte	0xb9
 5926 12f9 03       		.uleb128 0x3
 5927 12fa 3E0C0000 		.4byte	.LASF271
 5928 12fe 11       		.byte	0x11
 5929 12ff 6D       		.byte	0x6d
 5930 1300 20090000 		.4byte	0x920
 5931 1304 10       		.uleb128 0x10
 5932 1305 FD160000 		.4byte	.LASF272
 5933 1309 04       		.byte	0x4
 5934 130a 11       		.byte	0x11
 5935 130b 89       		.byte	0x89
 5936 130c 1C130000 		.4byte	0x131c
 5937 1310 11       		.uleb128 0x11
 5938 1311 737000   		.ascii	"sp\000"
 5939 1314 11       		.byte	0x11
 5940 1315 8A       		.byte	0x8a
 5941 1316 98130000 		.4byte	0x1398
 5942 131a 00       		.byte	0
 5943 131b 00       		.byte	0
 5944 131c 1B       		.uleb128 0x1b
 5945 131d 13000000 		.4byte	.LASF273
 5946 1321 24       		.byte	0x24
 5947 1322 12       		.byte	0x12
 5948 1323 6001     		.2byte	0x160
 5949 1325 98130000 		.4byte	0x1398
 5950 1329 21       		.uleb128 0x21
 5951 132a 723400   		.ascii	"r4\000"
 5952 132d 12       		.byte	0x12
ARM GAS  C:\Users\RAKIBU~1\AppData\Local\Temp\ccQ3AEax.s 			page 107


 5953 132e 7301     		.2byte	0x173
 5954 1330 EE120000 		.4byte	0x12ee
 5955 1334 00       		.byte	0
 5956 1335 21       		.uleb128 0x21
 5957 1336 723500   		.ascii	"r5\000"
 5958 1339 12       		.byte	0x12
 5959 133a 7401     		.2byte	0x174
 5960 133c EE120000 		.4byte	0x12ee
 5961 1340 04       		.byte	0x4
 5962 1341 21       		.uleb128 0x21
 5963 1342 723600   		.ascii	"r6\000"
 5964 1345 12       		.byte	0x12
 5965 1346 7501     		.2byte	0x175
 5966 1348 EE120000 		.4byte	0x12ee
 5967 134c 08       		.byte	0x8
 5968 134d 21       		.uleb128 0x21
 5969 134e 723700   		.ascii	"r7\000"
 5970 1351 12       		.byte	0x12
 5971 1352 7601     		.2byte	0x176
 5972 1354 EE120000 		.4byte	0x12ee
 5973 1358 0C       		.byte	0xc
 5974 1359 21       		.uleb128 0x21
 5975 135a 723800   		.ascii	"r8\000"
 5976 135d 12       		.byte	0x12
 5977 135e 7701     		.2byte	0x177
 5978 1360 EE120000 		.4byte	0x12ee
 5979 1364 10       		.byte	0x10
 5980 1365 21       		.uleb128 0x21
 5981 1366 723900   		.ascii	"r9\000"
 5982 1369 12       		.byte	0x12
 5983 136a 7801     		.2byte	0x178
 5984 136c EE120000 		.4byte	0x12ee
 5985 1370 14       		.byte	0x14
 5986 1371 21       		.uleb128 0x21
 5987 1372 72313000 		.ascii	"r10\000"
 5988 1376 12       		.byte	0x12
 5989 1377 7901     		.2byte	0x179
 5990 1379 EE120000 		.4byte	0x12ee
 5991 137d 18       		.byte	0x18
 5992 137e 21       		.uleb128 0x21
 5993 137f 72313100 		.ascii	"r11\000"
 5994 1383 12       		.byte	0x12
 5995 1384 7A01     		.2byte	0x17a
 5996 1386 EE120000 		.4byte	0x12ee
 5997 138a 1C       		.byte	0x1c
 5998 138b 21       		.uleb128 0x21
 5999 138c 6C7200   		.ascii	"lr\000"
 6000 138f 12       		.byte	0x12
 6001 1390 7B01     		.2byte	0x17b
 6002 1392 EE120000 		.4byte	0x12ee
 6003 1396 20       		.byte	0x20
 6004 1397 00       		.byte	0
 6005 1398 07       		.uleb128 0x7
 6006 1399 04       		.byte	0x4
 6007 139a 1C130000 		.4byte	0x131c
 6008 139e 1C       		.uleb128 0x1c
 6009 139f 60       		.byte	0x60
ARM GAS  C:\Users\RAKIBU~1\AppData\Local\Temp\ccQ3AEax.s 			page 108


 6010 13a0 13       		.byte	0x13
 6011 13a1 F501     		.2byte	0x1f5
 6012 13a3 AA140000 		.4byte	0x14aa
 6013 13a7 21       		.uleb128 0x21
 6014 13a8 43523100 		.ascii	"CR1\000"
 6015 13ac 13       		.byte	0x13
 6016 13ad F601     		.2byte	0x1f6
 6017 13af 16090000 		.4byte	0x916
 6018 13b3 00       		.byte	0
 6019 13b4 21       		.uleb128 0x21
 6020 13b5 43523200 		.ascii	"CR2\000"
 6021 13b9 13       		.byte	0x13
 6022 13ba F701     		.2byte	0x1f7
 6023 13bc 16090000 		.4byte	0x916
 6024 13c0 04       		.byte	0x4
 6025 13c1 19       		.uleb128 0x19
 6026 13c2 0C2A0000 		.4byte	.LASF274
 6027 13c6 13       		.byte	0x13
 6028 13c7 F801     		.2byte	0x1f8
 6029 13c9 16090000 		.4byte	0x916
 6030 13cd 08       		.byte	0x8
 6031 13ce 19       		.uleb128 0x19
 6032 13cf AD0D0000 		.4byte	.LASF275
 6033 13d3 13       		.byte	0x13
 6034 13d4 F901     		.2byte	0x1f9
 6035 13d6 16090000 		.4byte	0x916
 6036 13da 0C       		.byte	0xc
 6037 13db 21       		.uleb128 0x21
 6038 13dc 535200   		.ascii	"SR\000"
 6039 13df 13       		.byte	0x13
 6040 13e0 FA01     		.2byte	0x1fa
 6041 13e2 16090000 		.4byte	0x916
 6042 13e6 10       		.byte	0x10
 6043 13e7 21       		.uleb128 0x21
 6044 13e8 45475200 		.ascii	"EGR\000"
 6045 13ec 13       		.byte	0x13
 6046 13ed FB01     		.2byte	0x1fb
 6047 13ef 16090000 		.4byte	0x916
 6048 13f3 14       		.byte	0x14
 6049 13f4 19       		.uleb128 0x19
 6050 13f5 0C310000 		.4byte	.LASF276
 6051 13f9 13       		.byte	0x13
 6052 13fa FC01     		.2byte	0x1fc
 6053 13fc 16090000 		.4byte	0x916
 6054 1400 18       		.byte	0x18
 6055 1401 19       		.uleb128 0x19
 6056 1402 12310000 		.4byte	.LASF277
 6057 1406 13       		.byte	0x13
 6058 1407 FD01     		.2byte	0x1fd
 6059 1409 16090000 		.4byte	0x916
 6060 140d 1C       		.byte	0x1c
 6061 140e 19       		.uleb128 0x19
 6062 140f B30A0000 		.4byte	.LASF278
 6063 1413 13       		.byte	0x13
 6064 1414 FE01     		.2byte	0x1fe
 6065 1416 16090000 		.4byte	0x916
 6066 141a 20       		.byte	0x20
ARM GAS  C:\Users\RAKIBU~1\AppData\Local\Temp\ccQ3AEax.s 			page 109


 6067 141b 21       		.uleb128 0x21
 6068 141c 434E5400 		.ascii	"CNT\000"
 6069 1420 13       		.byte	0x13
 6070 1421 FF01     		.2byte	0x1ff
 6071 1423 16090000 		.4byte	0x916
 6072 1427 24       		.byte	0x24
 6073 1428 21       		.uleb128 0x21
 6074 1429 50534300 		.ascii	"PSC\000"
 6075 142d 13       		.byte	0x13
 6076 142e 0002     		.2byte	0x200
 6077 1430 16090000 		.4byte	0x916
 6078 1434 28       		.byte	0x28
 6079 1435 21       		.uleb128 0x21
 6080 1436 41525200 		.ascii	"ARR\000"
 6081 143a 13       		.byte	0x13
 6082 143b 0102     		.2byte	0x201
 6083 143d 16090000 		.4byte	0x916
 6084 1441 2C       		.byte	0x2c
 6085 1442 21       		.uleb128 0x21
 6086 1443 52435200 		.ascii	"RCR\000"
 6087 1447 13       		.byte	0x13
 6088 1448 0202     		.2byte	0x202
 6089 144a 16090000 		.4byte	0x916
 6090 144e 30       		.byte	0x30
 6091 144f 21       		.uleb128 0x21
 6092 1450 43435200 		.ascii	"CCR\000"
 6093 1454 13       		.byte	0x13
 6094 1455 0302     		.2byte	0x203
 6095 1457 220E0000 		.4byte	0xe22
 6096 145b 34       		.byte	0x34
 6097 145c 19       		.uleb128 0x19
 6098 145d CE020000 		.4byte	.LASF279
 6099 1461 13       		.byte	0x13
 6100 1462 0402     		.2byte	0x204
 6101 1464 16090000 		.4byte	0x916
 6102 1468 44       		.byte	0x44
 6103 1469 21       		.uleb128 0x21
 6104 146a 44435200 		.ascii	"DCR\000"
 6105 146e 13       		.byte	0x13
 6106 146f 0502     		.2byte	0x205
 6107 1471 16090000 		.4byte	0x916
 6108 1475 48       		.byte	0x48
 6109 1476 19       		.uleb128 0x19
 6110 1477 141D0000 		.4byte	.LASF280
 6111 147b 13       		.byte	0x13
 6112 147c 0602     		.2byte	0x206
 6113 147e 16090000 		.4byte	0x916
 6114 1482 4C       		.byte	0x4c
 6115 1483 21       		.uleb128 0x21
 6116 1484 4F5200   		.ascii	"OR\000"
 6117 1487 13       		.byte	0x13
 6118 1488 0702     		.2byte	0x207
 6119 148a 16090000 		.4byte	0x916
 6120 148e 50       		.byte	0x50
 6121 148f 19       		.uleb128 0x19
 6122 1490 18310000 		.4byte	.LASF281
 6123 1494 13       		.byte	0x13
ARM GAS  C:\Users\RAKIBU~1\AppData\Local\Temp\ccQ3AEax.s 			page 110


 6124 1495 0802     		.2byte	0x208
 6125 1497 16090000 		.4byte	0x916
 6126 149b 54       		.byte	0x54
 6127 149c 19       		.uleb128 0x19
 6128 149d E7190000 		.4byte	.LASF282
 6129 14a1 13       		.byte	0x13
 6130 14a2 0902     		.2byte	0x209
 6131 14a4 0D0E0000 		.4byte	0xe0d
 6132 14a8 58       		.byte	0x58
 6133 14a9 00       		.byte	0
 6134 14aa 09       		.uleb128 0x9
 6135 14ab F7280000 		.4byte	.LASF283
 6136 14af 13       		.byte	0x13
 6137 14b0 0A02     		.2byte	0x20a
 6138 14b2 9E130000 		.4byte	0x139e
 6139 14b6 0E       		.uleb128 0xe
 6140 14b7 08       		.byte	0x8
 6141 14b8 14       		.byte	0x14
 6142 14b9 7F       		.byte	0x7f
 6143 14ba D7140000 		.4byte	0x14d7
 6144 14be 11       		.uleb128 0x11
 6145 14bf 6E747000 		.ascii	"ntp\000"
 6146 14c3 14       		.byte	0x14
 6147 14c4 83       		.byte	0x83
 6148 14c5 E10A0000 		.4byte	0xae1
 6149 14c9 00       		.byte	0
 6150 14ca 0F       		.uleb128 0xf
 6151 14cb AE250000 		.4byte	.LASF284
 6152 14cf 14       		.byte	0x14
 6153 14d0 87       		.byte	0x87
 6154 14d1 B9000000 		.4byte	0xb9
 6155 14d5 04       		.byte	0x4
 6156 14d6 00       		.byte	0
 6157 14d7 0E       		.uleb128 0xe
 6158 14d8 04       		.byte	0x4
 6159 14d9 14       		.byte	0x14
 6160 14da 8C       		.byte	0x8c
 6161 14db EC140000 		.4byte	0x14ec
 6162 14df 0F       		.uleb128 0xf
 6163 14e0 73190000 		.4byte	.LASF154
 6164 14e4 14       		.byte	0x14
 6165 14e5 90       		.byte	0x90
 6166 14e6 D7050000 		.4byte	0x5d7
 6167 14ea 00       		.byte	0
 6168 14eb 00       		.byte	0
 6169 14ec 0E       		.uleb128 0xe
 6170 14ed 04       		.byte	0x4
 6171 14ee 14       		.byte	0x14
 6172 14ef 95       		.byte	0x95
 6173 14f0 01150000 		.4byte	0x1501
 6174 14f4 0F       		.uleb128 0xf
 6175 14f5 C9210000 		.4byte	.LASF285
 6176 14f9 14       		.byte	0x14
 6177 14fa 99       		.byte	0x99
 6178 14fb D7050000 		.4byte	0x5d7
 6179 14ff 00       		.byte	0
 6180 1500 00       		.byte	0
ARM GAS  C:\Users\RAKIBU~1\AppData\Local\Temp\ccQ3AEax.s 			page 111


 6181 1501 0E       		.uleb128 0xe
 6182 1502 08       		.byte	0x8
 6183 1503 14       		.byte	0x14
 6184 1504 9E       		.byte	0x9e
 6185 1505 22150000 		.4byte	0x1522
 6186 1509 11       		.uleb128 0x11
 6187 150a 75703100 		.ascii	"up1\000"
 6188 150e 14       		.byte	0x14
 6189 150f A2       		.byte	0xa2
 6190 1510 B9000000 		.4byte	0xb9
 6191 1514 00       		.byte	0
 6192 1515 11       		.uleb128 0x11
 6193 1516 75703200 		.ascii	"up2\000"
 6194 151a 14       		.byte	0x14
 6195 151b A6       		.byte	0xa6
 6196 151c B9000000 		.4byte	0xb9
 6197 1520 04       		.byte	0x4
 6198 1521 00       		.byte	0
 6199 1522 0A       		.uleb128 0xa
 6200 1523 08       		.byte	0x8
 6201 1524 14       		.byte	0x14
 6202 1525 7B       		.byte	0x7b
 6203 1526 56150000 		.4byte	0x1556
 6204 152a 24       		.uleb128 0x24
 6205 152b 737700   		.ascii	"sw\000"
 6206 152e 14       		.byte	0x14
 6207 152f 88       		.byte	0x88
 6208 1530 B6140000 		.4byte	0x14b6
 6209 1534 24       		.uleb128 0x24
 6210 1535 69737200 		.ascii	"isr\000"
 6211 1539 14       		.byte	0x14
 6212 153a 91       		.byte	0x91
 6213 153b D7140000 		.4byte	0x14d7
 6214 153f 0B       		.uleb128 0xb
 6215 1540 8D1D0000 		.4byte	.LASF286
 6216 1544 14       		.byte	0x14
 6217 1545 9A       		.byte	0x9a
 6218 1546 EC140000 		.4byte	0x14ec
 6219 154a 0B       		.uleb128 0xb
 6220 154b 0D2F0000 		.4byte	.LASF287
 6221 154f 14       		.byte	0x14
 6222 1550 A7       		.byte	0xa7
 6223 1551 01150000 		.4byte	0x1501
 6224 1555 00       		.byte	0
 6225 1556 0E       		.uleb128 0xe
 6226 1557 10       		.byte	0x10
 6227 1558 14       		.byte	0x14
 6228 1559 68       		.byte	0x68
 6229 155a A2150000 		.4byte	0x15a2
 6230 155e 25       		.uleb128 0x25
 6231 155f C30A0000 		.4byte	.LASF288
 6232 1563 14       		.byte	0x14
 6233 1564 6C       		.byte	0x6c
 6234 1565 0B090000 		.4byte	0x90b
 6235 1569 04       		.byte	0x4
 6236 156a 03       		.byte	0x3
 6237 156b 1D       		.byte	0x1d
ARM GAS  C:\Users\RAKIBU~1\AppData\Local\Temp\ccQ3AEax.s 			page 112


 6238 156c 00       		.byte	0
 6239 156d 25       		.uleb128 0x25
 6240 156e B61C0000 		.4byte	.LASF156
 6241 1572 14       		.byte	0x14
 6242 1573 70       		.byte	0x70
 6243 1574 0B090000 		.4byte	0x90b
 6244 1578 04       		.byte	0x4
 6245 1579 05       		.byte	0x5
 6246 157a 18       		.byte	0x18
 6247 157b 00       		.byte	0
 6248 157c 25       		.uleb128 0x25
 6249 157d 23030000 		.4byte	.LASF289
 6250 1581 14       		.byte	0x14
 6251 1582 76       		.byte	0x76
 6252 1583 0B090000 		.4byte	0x90b
 6253 1587 04       		.byte	0x4
 6254 1588 18       		.byte	0x18
 6255 1589 00       		.byte	0
 6256 158a 00       		.byte	0
 6257 158b 0F       		.uleb128 0xf
 6258 158c 461E0000 		.4byte	.LASF290
 6259 1590 14       		.byte	0x14
 6260 1591 7A       		.byte	0x7a
 6261 1592 1D0D0000 		.4byte	0xd1d
 6262 1596 04       		.byte	0x4
 6263 1597 11       		.uleb128 0x11
 6264 1598 7500     		.ascii	"u\000"
 6265 159a 14       		.byte	0x14
 6266 159b A8       		.byte	0xa8
 6267 159c 22150000 		.4byte	0x1522
 6268 15a0 08       		.byte	0x8
 6269 15a1 00       		.byte	0
 6270 15a2 03       		.uleb128 0x3
 6271 15a3 F1020000 		.4byte	.LASF291
 6272 15a7 14       		.byte	0x14
 6273 15a8 A9       		.byte	0xa9
 6274 15a9 56150000 		.4byte	0x1556
 6275 15ad 26       		.uleb128 0x26
 6276 15ae 0808     		.2byte	0x808
 6277 15b0 14       		.byte	0x14
 6278 15b1 AF       		.byte	0xaf
 6279 15b2 E7150000 		.4byte	0x15e7
 6280 15b6 0F       		.uleb128 0xf
 6281 15b7 142B0000 		.4byte	.LASF292
 6282 15bb 14       		.byte	0x14
 6283 15bc B3       		.byte	0xb3
 6284 15bd F0080000 		.4byte	0x8f0
 6285 15c1 00       		.byte	0
 6286 15c2 0F       		.uleb128 0xf
 6287 15c3 35110000 		.4byte	.LASF293
 6288 15c7 14       		.byte	0x14
 6289 15c8 B7       		.byte	0xb7
 6290 15c9 F0080000 		.4byte	0x8f0
 6291 15cd 02       		.byte	0x2
 6292 15ce 11       		.uleb128 0x11
 6293 15cf 70747200 		.ascii	"ptr\000"
 6294 15d3 14       		.byte	0x14
ARM GAS  C:\Users\RAKIBU~1\AppData\Local\Temp\ccQ3AEax.s 			page 113


 6295 15d4 BB       		.byte	0xbb
 6296 15d5 E7150000 		.4byte	0x15e7
 6297 15d9 04       		.byte	0x4
 6298 15da 0F       		.uleb128 0xf
 6299 15db EF230000 		.4byte	.LASF294
 6300 15df 14       		.byte	0x14
 6301 15e0 BF       		.byte	0xbf
 6302 15e1 ED150000 		.4byte	0x15ed
 6303 15e5 08       		.byte	0x8
 6304 15e6 00       		.byte	0
 6305 15e7 07       		.uleb128 0x7
 6306 15e8 04       		.byte	0x4
 6307 15e9 A2150000 		.4byte	0x15a2
 6308 15ed 0C       		.uleb128 0xc
 6309 15ee A2150000 		.4byte	0x15a2
 6310 15f2 FD150000 		.4byte	0x15fd
 6311 15f6 0D       		.uleb128 0xd
 6312 15f7 9B000000 		.4byte	0x9b
 6313 15fb 7F       		.byte	0x7f
 6314 15fc 00       		.byte	0
 6315 15fd 03       		.uleb128 0x3
 6316 15fe 1F000000 		.4byte	.LASF295
 6317 1602 14       		.byte	0x14
 6318 1603 C0       		.byte	0xc0
 6319 1604 AD150000 		.4byte	0x15ad
 6320 1608 0E       		.uleb128 0xe
 6321 1609 04       		.byte	0x4
 6322 160a 15       		.byte	0x15
 6323 160b 38       		.byte	0x38
 6324 160c 1D160000 		.4byte	0x161d
 6325 1610 0F       		.uleb128 0xf
 6326 1611 70290000 		.4byte	.LASF296
 6327 1615 15       		.byte	0x15
 6328 1616 3C       		.byte	0x3c
 6329 1617 67090000 		.4byte	0x967
 6330 161b 00       		.byte	0
 6331 161c 00       		.byte	0
 6332 161d 03       		.uleb128 0x3
 6333 161e 58120000 		.4byte	.LASF297
 6334 1622 15       		.byte	0x15
 6335 1623 3D       		.byte	0x3d
 6336 1624 08160000 		.4byte	0x1608
 6337 1628 0E       		.uleb128 0xe
 6338 1629 18       		.byte	0x18
 6339 162a 15       		.byte	0x15
 6340 162b 48       		.byte	0x48
 6341 162c 6B160000 		.4byte	0x166b
 6342 1630 0F       		.uleb128 0xf
 6343 1631 BE0A0000 		.4byte	.LASF298
 6344 1635 15       		.byte	0x15
 6345 1636 49       		.byte	0x49
 6346 1637 67090000 		.4byte	0x967
 6347 163b 00       		.byte	0
 6348 163c 0F       		.uleb128 0xf
 6349 163d 56020000 		.4byte	.LASF299
 6350 1641 15       		.byte	0x15
 6351 1642 4A       		.byte	0x4a
ARM GAS  C:\Users\RAKIBU~1\AppData\Local\Temp\ccQ3AEax.s 			page 114


 6352 1643 67090000 		.4byte	0x967
 6353 1647 04       		.byte	0x4
 6354 1648 0F       		.uleb128 0xf
 6355 1649 F81F0000 		.4byte	.LASF300
 6356 164d 15       		.byte	0x15
 6357 164e 4B       		.byte	0x4b
 6358 164f 67090000 		.4byte	0x967
 6359 1653 08       		.byte	0x8
 6360 1654 11       		.uleb128 0x11
 6361 1655 6E00     		.ascii	"n\000"
 6362 1657 15       		.byte	0x15
 6363 1658 4C       		.byte	0x4c
 6364 1659 D5090000 		.4byte	0x9d5
 6365 165d 0C       		.byte	0xc
 6366 165e 0F       		.uleb128 0xf
 6367 165f 671F0000 		.4byte	.LASF301
 6368 1663 15       		.byte	0x15
 6369 1664 4D       		.byte	0x4d
 6370 1665 72090000 		.4byte	0x972
 6371 1669 10       		.byte	0x10
 6372 166a 00       		.byte	0
 6373 166b 03       		.uleb128 0x3
 6374 166c C12D0000 		.4byte	.LASF302
 6375 1670 15       		.byte	0x15
 6376 1671 4E       		.byte	0x4e
 6377 1672 28160000 		.4byte	0x1628
 6378 1676 0E       		.uleb128 0xe
 6379 1677 38       		.byte	0x38
 6380 1678 16       		.byte	0x16
 6381 1679 38       		.byte	0x38
 6382 167a AF160000 		.4byte	0x16af
 6383 167e 0F       		.uleb128 0xf
 6384 167f F7090000 		.4byte	.LASF303
 6385 1683 16       		.byte	0x16
 6386 1684 39       		.byte	0x39
 6387 1685 D5090000 		.4byte	0x9d5
 6388 1689 00       		.byte	0
 6389 168a 0F       		.uleb128 0xf
 6390 168b 890E0000 		.4byte	.LASF304
 6391 168f 16       		.byte	0x16
 6392 1690 3A       		.byte	0x3a
 6393 1691 D5090000 		.4byte	0x9d5
 6394 1695 04       		.byte	0x4
 6395 1696 0F       		.uleb128 0xf
 6396 1697 832C0000 		.4byte	.LASF305
 6397 169b 16       		.byte	0x16
 6398 169c 3B       		.byte	0x3b
 6399 169d 6B160000 		.4byte	0x166b
 6400 16a1 08       		.byte	0x8
 6401 16a2 0F       		.uleb128 0xf
 6402 16a3 90000000 		.4byte	.LASF306
 6403 16a7 16       		.byte	0x16
 6404 16a8 3D       		.byte	0x3d
 6405 16a9 6B160000 		.4byte	0x166b
 6406 16ad 20       		.byte	0x20
 6407 16ae 00       		.byte	0
 6408 16af 03       		.uleb128 0x3
ARM GAS  C:\Users\RAKIBU~1\AppData\Local\Temp\ccQ3AEax.s 			page 115


 6409 16b0 41080000 		.4byte	.LASF307
 6410 16b4 16       		.byte	0x16
 6411 16b5 3F       		.byte	0x3f
 6412 16b6 76160000 		.4byte	0x1676
 6413 16ba 0A       		.uleb128 0xa
 6414 16bb 04       		.byte	0x4
 6415 16bc 0C       		.byte	0xc
 6416 16bd C6       		.byte	0xc6
 6417 16be 1C170000 		.4byte	0x171c
 6418 16c2 0B       		.uleb128 0xb
 6419 16c3 05150000 		.4byte	.LASF308
 6420 16c7 0C       		.byte	0xc
 6421 16c8 CD       		.byte	0xcd
 6422 16c9 A9090000 		.4byte	0x9a9
 6423 16cd 0B       		.uleb128 0xb
 6424 16ce 19120000 		.4byte	.LASF309
 6425 16d2 0C       		.byte	0xc
 6426 16d3 D4       		.byte	0xd4
 6427 16d4 A9090000 		.4byte	0x9a9
 6428 16d8 0B       		.uleb128 0xb
 6429 16d9 AE250000 		.4byte	.LASF284
 6430 16dd 0C       		.byte	0xc
 6431 16de DB       		.byte	0xdb
 6432 16df B9000000 		.4byte	0xb9
 6433 16e3 0B       		.uleb128 0xb
 6434 16e4 AE1F0000 		.4byte	.LASF310
 6435 16e8 0C       		.byte	0xc
 6436 16e9 E2       		.byte	0xe2
 6437 16ea 1C170000 		.4byte	0x171c
 6438 16ee 0B       		.uleb128 0xb
 6439 16ef 0B000000 		.4byte	.LASF311
 6440 16f3 0C       		.byte	0xc
 6441 16f4 E7       		.byte	0xe7
 6442 16f5 A9090000 		.4byte	0x9a9
 6443 16f9 0B       		.uleb128 0xb
 6444 16fa 62010000 		.4byte	.LASF312
 6445 16fe 0C       		.byte	0xc
 6446 16ff F0       		.byte	0xf0
 6447 1700 47170000 		.4byte	0x1747
 6448 1704 0B       		.uleb128 0xb
 6449 1705 14260000 		.4byte	.LASF313
 6450 1709 0C       		.byte	0xc
 6451 170a F9       		.byte	0xf9
 6452 170b 7E170000 		.4byte	0x177e
 6453 170f 1E       		.uleb128 0x1e
 6454 1710 822A0000 		.4byte	.LASF314
 6455 1714 0C       		.byte	0xc
 6456 1715 0101     		.2byte	0x101
 6457 1717 B4090000 		.4byte	0x9b4
 6458 171b 00       		.byte	0
 6459 171c 07       		.uleb128 0x7
 6460 171d 04       		.byte	0x4
 6461 171e D60A0000 		.4byte	0xad6
 6462 1722 10       		.uleb128 0x10
 6463 1723 921D0000 		.4byte	.LASF315
 6464 1727 0C       		.byte	0xc
 6465 1728 17       		.byte	0x17
ARM GAS  C:\Users\RAKIBU~1\AppData\Local\Temp\ccQ3AEax.s 			page 116


 6466 1729 34       		.byte	0x34
 6467 172a 47170000 		.4byte	0x1747
 6468 172e 0F       		.uleb128 0xf
 6469 172f 10290000 		.4byte	.LASF150
 6470 1733 17       		.byte	0x17
 6471 1734 35       		.byte	0x35
 6472 1735 0B0B0000 		.4byte	0xb0b
 6473 1739 00       		.byte	0
 6474 173a 11       		.uleb128 0x11
 6475 173b 636E7400 		.ascii	"cnt\000"
 6476 173f 17       		.byte	0x17
 6477 1740 37       		.byte	0x37
 6478 1741 CA090000 		.4byte	0x9ca
 6479 1745 08       		.byte	0x8
 6480 1746 00       		.byte	0
 6481 1747 07       		.uleb128 0x7
 6482 1748 04       		.byte	0x4
 6483 1749 22170000 		.4byte	0x1722
 6484 174d 10       		.uleb128 0x10
 6485 174e 8A0F0000 		.4byte	.LASF316
 6486 1752 10       		.byte	0x10
 6487 1753 18       		.byte	0x18
 6488 1754 39       		.byte	0x39
 6489 1755 7E170000 		.4byte	0x177e
 6490 1759 0F       		.uleb128 0xf
 6491 175a 10290000 		.4byte	.LASF150
 6492 175e 18       		.byte	0x18
 6493 175f 3A       		.byte	0x3a
 6494 1760 0B0B0000 		.4byte	0xb0b
 6495 1764 00       		.byte	0
 6496 1765 0F       		.uleb128 0xf
 6497 1766 76110000 		.4byte	.LASF317
 6498 176a 18       		.byte	0x18
 6499 176b 3C       		.byte	0x3c
 6500 176c E10A0000 		.4byte	0xae1
 6501 1770 08       		.byte	0x8
 6502 1771 0F       		.uleb128 0xf
 6503 1772 55030000 		.4byte	.LASF169
 6504 1776 18       		.byte	0x18
 6505 1777 3E       		.byte	0x3e
 6506 1778 C9180000 		.4byte	0x18c9
 6507 177c 0C       		.byte	0xc
 6508 177d 00       		.byte	0
 6509 177e 07       		.uleb128 0x7
 6510 177f 04       		.byte	0x4
 6511 1780 4D170000 		.4byte	0x174d
 6512 1784 07       		.uleb128 0x7
 6513 1785 04       		.byte	0x4
 6514 1786 F9120000 		.4byte	0x12f9
 6515 178a 07       		.uleb128 0x7
 6516 178b 04       		.byte	0x4
 6517 178c BE0B0000 		.4byte	0xbbe
 6518 1790 27       		.uleb128 0x27
 6519 1791 636800   		.ascii	"ch\000"
 6520 1794 0C       		.byte	0xc
 6521 1795 C701     		.2byte	0x1c7
 6522 1797 B30C0000 		.4byte	0xcb3
ARM GAS  C:\Users\RAKIBU~1\AppData\Local\Temp\ccQ3AEax.s 			page 117


 6523 179b 0C       		.uleb128 0xc
 6524 179c F9120000 		.4byte	0x12f9
 6525 17a0 A6170000 		.4byte	0x17a6
 6526 17a4 28       		.uleb128 0x28
 6527 17a5 00       		.byte	0
 6528 17a6 20       		.uleb128 0x20
 6529 17a7 57110000 		.4byte	.LASF318
 6530 17ab 19       		.byte	0x19
 6531 17ac 1701     		.2byte	0x117
 6532 17ae 9B170000 		.4byte	0x179b
 6533 17b2 0E       		.uleb128 0xe
 6534 17b3 16       		.byte	0x16
 6535 17b4 1A       		.byte	0x1a
 6536 17b5 34       		.byte	0x34
 6537 17b6 93180000 		.4byte	0x1893
 6538 17ba 0F       		.uleb128 0xf
 6539 17bb D2110000 		.4byte	.LASF319
 6540 17bf 1A       		.byte	0x1a
 6541 17c0 35       		.byte	0x35
 6542 17c1 93180000 		.4byte	0x1893
 6543 17c5 00       		.byte	0
 6544 17c6 0F       		.uleb128 0xf
 6545 17c7 910A0000 		.4byte	.LASF320
 6546 17cb 1A       		.byte	0x1a
 6547 17cc 36       		.byte	0x36
 6548 17cd E0080000 		.4byte	0x8e0
 6549 17d1 04       		.byte	0x4
 6550 17d2 0F       		.uleb128 0xf
 6551 17d3 35110000 		.4byte	.LASF293
 6552 17d7 1A       		.byte	0x1a
 6553 17d8 37       		.byte	0x37
 6554 17d9 E0080000 		.4byte	0x8e0
 6555 17dd 05       		.byte	0x5
 6556 17de 0F       		.uleb128 0xf
 6557 17df C9300000 		.4byte	.LASF321
 6558 17e3 1A       		.byte	0x1a
 6559 17e4 38       		.byte	0x38
 6560 17e5 F0080000 		.4byte	0x8f0
 6561 17e9 06       		.byte	0x6
 6562 17ea 0F       		.uleb128 0xf
 6563 17eb 3E130000 		.4byte	.LASF322
 6564 17ef 1A       		.byte	0x1a
 6565 17f0 39       		.byte	0x39
 6566 17f1 E0080000 		.4byte	0x8e0
 6567 17f5 08       		.byte	0x8
 6568 17f6 0F       		.uleb128 0xf
 6569 17f7 F2050000 		.4byte	.LASF323
 6570 17fb 1A       		.byte	0x1a
 6571 17fc 3A       		.byte	0x3a
 6572 17fd E0080000 		.4byte	0x8e0
 6573 1801 09       		.byte	0x9
 6574 1802 0F       		.uleb128 0xf
 6575 1803 232A0000 		.4byte	.LASF324
 6576 1807 1A       		.byte	0x1a
 6577 1808 3B       		.byte	0x3b
 6578 1809 E0080000 		.4byte	0x8e0
 6579 180d 0A       		.byte	0xa
ARM GAS  C:\Users\RAKIBU~1\AppData\Local\Temp\ccQ3AEax.s 			page 118


 6580 180e 0F       		.uleb128 0xf
 6581 180f 75150000 		.4byte	.LASF325
 6582 1813 1A       		.byte	0x1a
 6583 1814 3C       		.byte	0x3c
 6584 1815 E0080000 		.4byte	0x8e0
 6585 1819 0B       		.byte	0xb
 6586 181a 0F       		.uleb128 0xf
 6587 181b 191C0000 		.4byte	.LASF326
 6588 181f 1A       		.byte	0x1a
 6589 1820 3D       		.byte	0x3d
 6590 1821 E0080000 		.4byte	0x8e0
 6591 1825 0C       		.byte	0xc
 6592 1826 0F       		.uleb128 0xf
 6593 1827 DA280000 		.4byte	.LASF327
 6594 182b 1A       		.byte	0x1a
 6595 182c 3E       		.byte	0x3e
 6596 182d E0080000 		.4byte	0x8e0
 6597 1831 0D       		.byte	0xd
 6598 1832 0F       		.uleb128 0xf
 6599 1833 11220000 		.4byte	.LASF328
 6600 1837 1A       		.byte	0x1a
 6601 1838 3F       		.byte	0x3f
 6602 1839 E0080000 		.4byte	0x8e0
 6603 183d 0E       		.byte	0xe
 6604 183e 0F       		.uleb128 0xf
 6605 183f 8A2B0000 		.4byte	.LASF329
 6606 1843 1A       		.byte	0x1a
 6607 1844 40       		.byte	0x40
 6608 1845 E0080000 		.4byte	0x8e0
 6609 1849 0F       		.byte	0xf
 6610 184a 0F       		.uleb128 0xf
 6611 184b 1D200000 		.4byte	.LASF330
 6612 184f 1A       		.byte	0x1a
 6613 1850 41       		.byte	0x41
 6614 1851 E0080000 		.4byte	0x8e0
 6615 1855 10       		.byte	0x10
 6616 1856 0F       		.uleb128 0xf
 6617 1857 77240000 		.4byte	.LASF331
 6618 185b 1A       		.byte	0x1a
 6619 185c 42       		.byte	0x42
 6620 185d E0080000 		.4byte	0x8e0
 6621 1861 11       		.byte	0x11
 6622 1862 0F       		.uleb128 0xf
 6623 1863 CF1D0000 		.4byte	.LASF332
 6624 1867 1A       		.byte	0x1a
 6625 1868 43       		.byte	0x43
 6626 1869 E0080000 		.4byte	0x8e0
 6627 186d 12       		.byte	0x12
 6628 186e 0F       		.uleb128 0xf
 6629 186f 2E040000 		.4byte	.LASF333
 6630 1873 1A       		.byte	0x1a
 6631 1874 44       		.byte	0x44
 6632 1875 E0080000 		.4byte	0x8e0
 6633 1879 13       		.byte	0x13
 6634 187a 0F       		.uleb128 0xf
 6635 187b 91200000 		.4byte	.LASF334
 6636 187f 1A       		.byte	0x1a
ARM GAS  C:\Users\RAKIBU~1\AppData\Local\Temp\ccQ3AEax.s 			page 119


 6637 1880 45       		.byte	0x45
 6638 1881 E0080000 		.4byte	0x8e0
 6639 1885 14       		.byte	0x14
 6640 1886 0F       		.uleb128 0xf
 6641 1887 E61B0000 		.4byte	.LASF335
 6642 188b 1A       		.byte	0x1a
 6643 188c 46       		.byte	0x46
 6644 188d E0080000 		.4byte	0x8e0
 6645 1891 15       		.byte	0x15
 6646 1892 00       		.byte	0
 6647 1893 0C       		.uleb128 0xc
 6648 1894 A7050000 		.4byte	0x5a7
 6649 1898 A3180000 		.4byte	0x18a3
 6650 189c 0D       		.uleb128 0xd
 6651 189d 9B000000 		.4byte	0x9b
 6652 18a1 03       		.byte	0x3
 6653 18a2 00       		.byte	0
 6654 18a3 03       		.uleb128 0x3
 6655 18a4 21270000 		.4byte	.LASF336
 6656 18a8 1A       		.byte	0x1a
 6657 18a9 47       		.byte	0x47
 6658 18aa B2170000 		.4byte	0x17b2
 6659 18ae 17       		.uleb128 0x17
 6660 18af A3180000 		.4byte	0x18a3
 6661 18b3 23       		.uleb128 0x23
 6662 18b4 93290000 		.4byte	.LASF337
 6663 18b8 1A       		.byte	0x1a
 6664 18b9 6C       		.byte	0x6c
 6665 18ba AE180000 		.4byte	0x18ae
 6666 18be 03       		.uleb128 0x3
 6667 18bf A7270000 		.4byte	.LASF338
 6668 18c3 18       		.byte	0x18
 6669 18c4 34       		.byte	0x34
 6670 18c5 4D170000 		.4byte	0x174d
 6671 18c9 07       		.uleb128 0x7
 6672 18ca 04       		.byte	0x4
 6673 18cb BE180000 		.4byte	0x18be
 6674 18cf 03       		.uleb128 0x3
 6675 18d0 0F0F0000 		.4byte	.LASF339
 6676 18d4 1B       		.byte	0x1b
 6677 18d5 34       		.byte	0x34
 6678 18d6 DA180000 		.4byte	0x18da
 6679 18da 10       		.uleb128 0x10
 6680 18db 87310000 		.4byte	.LASF340
 6681 18df 14       		.byte	0x14
 6682 18e0 1B       		.byte	0x1b
 6683 18e1 39       		.byte	0x39
 6684 18e2 23190000 		.4byte	0x1923
 6685 18e6 0F       		.uleb128 0xf
 6686 18e7 55030000 		.4byte	.LASF169
 6687 18eb 1B       		.byte	0x1b
 6688 18ec 3A       		.byte	0x3a
 6689 18ed 23190000 		.4byte	0x1923
 6690 18f1 00       		.byte	0
 6691 18f2 0F       		.uleb128 0xf
 6692 18f3 D8120000 		.4byte	.LASF341
 6693 18f7 1B       		.byte	0x1b
ARM GAS  C:\Users\RAKIBU~1\AppData\Local\Temp\ccQ3AEax.s 			page 120


 6694 18f8 3D       		.byte	0x3d
 6695 18f9 E10A0000 		.4byte	0xae1
 6696 18fd 04       		.byte	0x4
 6697 18fe 0F       		.uleb128 0xf
 6698 18ff E4300000 		.4byte	.LASF342
 6699 1903 1B       		.byte	0x1b
 6700 1904 3F       		.byte	0x3f
 6701 1905 B4090000 		.4byte	0x9b4
 6702 1909 08       		.byte	0x8
 6703 190a 0F       		.uleb128 0xf
 6704 190b 50320000 		.4byte	.LASF157
 6705 190f 1B       		.byte	0x1b
 6706 1910 41       		.byte	0x41
 6707 1911 BF090000 		.4byte	0x9bf
 6708 1915 0C       		.byte	0xc
 6709 1916 0F       		.uleb128 0xf
 6710 1917 CC260000 		.4byte	.LASF343
 6711 191b 1B       		.byte	0x1b
 6712 191c 43       		.byte	0x43
 6713 191d BF090000 		.4byte	0x9bf
 6714 1921 10       		.byte	0x10
 6715 1922 00       		.byte	0
 6716 1923 07       		.uleb128 0x7
 6717 1924 04       		.byte	0x4
 6718 1925 CF180000 		.4byte	0x18cf
 6719 1929 10       		.uleb128 0x10
 6720 192a 972A0000 		.4byte	.LASF344
 6721 192e 04       		.byte	0x4
 6722 192f 1B       		.byte	0x1b
 6723 1930 4A       		.byte	0x4a
 6724 1931 42190000 		.4byte	0x1942
 6725 1935 0F       		.uleb128 0xf
 6726 1936 55030000 		.4byte	.LASF169
 6727 193a 1B       		.byte	0x1b
 6728 193b 4B       		.byte	0x4b
 6729 193c 23190000 		.4byte	0x1923
 6730 1940 00       		.byte	0
 6731 1941 00       		.byte	0
 6732 1942 03       		.uleb128 0x3
 6733 1943 D61A0000 		.4byte	.LASF345
 6734 1947 1B       		.byte	0x1b
 6735 1948 4E       		.byte	0x4e
 6736 1949 29190000 		.4byte	0x1929
 6737 194d 02       		.uleb128 0x2
 6738 194e 01       		.byte	0x1
 6739 194f 02       		.byte	0x2
 6740 1950 80010000 		.4byte	.LASF346
 6741 1954 03       		.uleb128 0x3
 6742 1955 27020000 		.4byte	.LASF347
 6743 1959 1C       		.byte	0x1c
 6744 195a 47       		.byte	0x47
 6745 195b 5F190000 		.4byte	0x195f
 6746 195f 07       		.uleb128 0x7
 6747 1960 04       		.byte	0x4
 6748 1961 65190000 		.4byte	0x1965
 6749 1965 15       		.uleb128 0x15
 6750 1966 B9000000 		.4byte	0xb9
ARM GAS  C:\Users\RAKIBU~1\AppData\Local\Temp\ccQ3AEax.s 			page 121


 6751 196a 79190000 		.4byte	0x1979
 6752 196e 16       		.uleb128 0x16
 6753 196f A2000000 		.4byte	0xa2
 6754 1973 16       		.uleb128 0x16
 6755 1974 9B000000 		.4byte	0x9b
 6756 1978 00       		.byte	0
 6757 1979 0E       		.uleb128 0xe
 6758 197a 08       		.byte	0x8
 6759 197b 1C       		.byte	0x1c
 6760 197c 51       		.byte	0x51
 6761 197d 9A190000 		.4byte	0x199a
 6762 1981 0F       		.uleb128 0xf
 6763 1982 9C290000 		.4byte	.LASF348
 6764 1986 1C       		.byte	0x1c
 6765 1987 55       		.byte	0x55
 6766 1988 9A190000 		.4byte	0x199a
 6767 198c 00       		.byte	0
 6768 198d 0F       		.uleb128 0xf
 6769 198e A71F0000 		.4byte	.LASF349
 6770 1992 1C       		.byte	0x1c
 6771 1993 59       		.byte	0x59
 6772 1994 9A190000 		.4byte	0x199a
 6773 1998 04       		.byte	0x4
 6774 1999 00       		.byte	0
 6775 199a 07       		.uleb128 0x7
 6776 199b 04       		.byte	0x4
 6777 199c E0080000 		.4byte	0x8e0
 6778 19a0 03       		.uleb128 0x3
 6779 19a1 C9140000 		.4byte	.LASF350
 6780 19a5 1C       		.byte	0x1c
 6781 19a6 5A       		.byte	0x5a
 6782 19a7 79190000 		.4byte	0x1979
 6783 19ab 23       		.uleb128 0x23
 6784 19ac 00000000 		.4byte	.LASF351
 6785 19b0 1C       		.byte	0x1c
 6786 19b1 65       		.byte	0x65
 6787 19b2 A0190000 		.4byte	0x19a0
 6788 19b6 10       		.uleb128 0x10
 6789 19b7 8D0D0000 		.4byte	.LASF352
 6790 19bb 04       		.byte	0x4
 6791 19bc 1D       		.byte	0x1d
 6792 19bd 38       		.byte	0x38
 6793 19be CF190000 		.4byte	0x19cf
 6794 19c2 0F       		.uleb128 0xf
 6795 19c3 55030000 		.4byte	.LASF169
 6796 19c7 1D       		.byte	0x1d
 6797 19c8 39       		.byte	0x39
 6798 19c9 CF190000 		.4byte	0x19cf
 6799 19cd 00       		.byte	0
 6800 19ce 00       		.byte	0
 6801 19cf 07       		.uleb128 0x7
 6802 19d0 04       		.byte	0x4
 6803 19d1 B6190000 		.4byte	0x19b6
 6804 19d5 0E       		.uleb128 0xe
 6805 19d6 10       		.byte	0x10
 6806 19d7 1D       		.byte	0x1d
 6807 19d8 40       		.byte	0x40
ARM GAS  C:\Users\RAKIBU~1\AppData\Local\Temp\ccQ3AEax.s 			page 122


 6808 19d9 0E1A0000 		.4byte	0x1a0e
 6809 19dd 0F       		.uleb128 0xf
 6810 19de 55030000 		.4byte	.LASF169
 6811 19e2 1D       		.byte	0x1d
 6812 19e3 41       		.byte	0x41
 6813 19e4 CF190000 		.4byte	0x19cf
 6814 19e8 00       		.byte	0
 6815 19e9 0F       		.uleb128 0xf
 6816 19ea F9110000 		.4byte	.LASF353
 6817 19ee 1D       		.byte	0x1d
 6818 19ef 42       		.byte	0x42
 6819 19f0 A2000000 		.4byte	0xa2
 6820 19f4 04       		.byte	0x4
 6821 19f5 0F       		.uleb128 0xf
 6822 19f6 71230000 		.4byte	.LASF354
 6823 19fa 1D       		.byte	0x1d
 6824 19fb 44       		.byte	0x44
 6825 19fc 9B000000 		.4byte	0x9b
 6826 1a00 08       		.byte	0x8
 6827 1a01 0F       		.uleb128 0xf
 6828 1a02 E3010000 		.4byte	.LASF355
 6829 1a06 1D       		.byte	0x1d
 6830 1a07 45       		.byte	0x45
 6831 1a08 54190000 		.4byte	0x1954
 6832 1a0c 0C       		.byte	0xc
 6833 1a0d 00       		.byte	0
 6834 1a0e 03       		.uleb128 0x3
 6835 1a0f AC310000 		.4byte	.LASF356
 6836 1a13 1D       		.byte	0x1d
 6837 1a14 47       		.byte	0x47
 6838 1a15 D5190000 		.4byte	0x19d5
 6839 1a19 10       		.uleb128 0x10
 6840 1a1a 79030000 		.4byte	.LASF357
 6841 1a1e 10       		.byte	0x10
 6842 1a1f 1E       		.byte	0x1e
 6843 1a20 A9       		.byte	0xa9
 6844 1a21 4A1A0000 		.4byte	0x1a4a
 6845 1a25 0F       		.uleb128 0xf
 6846 1a26 55030000 		.4byte	.LASF169
 6847 1a2a 1E       		.byte	0x1e
 6848 1a2b AD       		.byte	0xad
 6849 1a2c 4A1A0000 		.4byte	0x1a4a
 6850 1a30 00       		.byte	0
 6851 1a31 0F       		.uleb128 0xf
 6852 1a32 32070000 		.4byte	.LASF158
 6853 1a36 1E       		.byte	0x1e
 6854 1a37 B1       		.byte	0xb1
 6855 1a38 D5090000 		.4byte	0x9d5
 6856 1a3c 04       		.byte	0x4
 6857 1a3d 0F       		.uleb128 0xf
 6858 1a3e 73190000 		.4byte	.LASF154
 6859 1a42 1E       		.byte	0x1e
 6860 1a43 B3       		.byte	0xb3
 6861 1a44 E9070000 		.4byte	0x7e9
 6862 1a48 08       		.byte	0x8
 6863 1a49 00       		.byte	0
 6864 1a4a 07       		.uleb128 0x7
ARM GAS  C:\Users\RAKIBU~1\AppData\Local\Temp\ccQ3AEax.s 			page 123


 6865 1a4b 04       		.byte	0x4
 6866 1a4c 191A0000 		.4byte	0x1a19
 6867 1a50 03       		.uleb128 0x3
 6868 1a51 D91D0000 		.4byte	.LASF358
 6869 1a55 1E       		.byte	0x1e
 6870 1a56 B7       		.byte	0xb7
 6871 1a57 191A0000 		.4byte	0x1a19
 6872 1a5b 10       		.uleb128 0x10
 6873 1a5c 470A0000 		.4byte	.LASF359
 6874 1a60 04       		.byte	0x4
 6875 1a61 1E       		.byte	0x1e
 6876 1a62 BC       		.byte	0xbc
 6877 1a63 741A0000 		.4byte	0x1a74
 6878 1a67 0F       		.uleb128 0xf
 6879 1a68 55030000 		.4byte	.LASF169
 6880 1a6c 1E       		.byte	0x1e
 6881 1a6d BD       		.byte	0xbd
 6882 1a6e 741A0000 		.4byte	0x1a74
 6883 1a72 00       		.byte	0
 6884 1a73 00       		.byte	0
 6885 1a74 07       		.uleb128 0x7
 6886 1a75 04       		.byte	0x4
 6887 1a76 501A0000 		.4byte	0x1a50
 6888 1a7a 03       		.uleb128 0x3
 6889 1a7b AE150000 		.4byte	.LASF360
 6890 1a7f 1E       		.byte	0x1e
 6891 1a80 BE       		.byte	0xbe
 6892 1a81 5B1A0000 		.4byte	0x1a5b
 6893 1a85 1B       		.uleb128 0x1b
 6894 1a86 10030000 		.4byte	.LASF361
 6895 1a8a 48       		.byte	0x48
 6896 1a8b 1E       		.byte	0x1e
 6897 1a8c 3E01     		.2byte	0x13e
 6898 1a8e 081B0000 		.4byte	0x1b08
 6899 1a92 21       		.uleb128 0x21
 6900 1a93 6D747800 		.ascii	"mtx\000"
 6901 1a97 1E       		.byte	0x1e
 6902 1a98 4301     		.2byte	0x143
 6903 1a9a BE180000 		.4byte	0x18be
 6904 1a9e 00       		.byte	0
 6905 1a9f 19       		.uleb128 0x19
 6906 1aa0 6A100000 		.4byte	.LASF362
 6907 1aa4 1E       		.byte	0x1e
 6908 1aa5 4A01     		.2byte	0x14a
 6909 1aa7 7A1A0000 		.4byte	0x1a7a
 6910 1aab 10       		.byte	0x10
 6911 1aac 19       		.uleb128 0x19
 6912 1aad F7250000 		.4byte	.LASF363
 6913 1ab1 1E       		.byte	0x1e
 6914 1ab2 4E01     		.2byte	0x14e
 6915 1ab4 0E1A0000 		.4byte	0x1a0e
 6916 1ab8 14       		.byte	0x14
 6917 1ab9 19       		.uleb128 0x19
 6918 1aba 0B200000 		.4byte	.LASF364
 6919 1abe 1E       		.byte	0x1e
 6920 1abf 5301     		.2byte	0x153
 6921 1ac1 7A1A0000 		.4byte	0x1a7a
ARM GAS  C:\Users\RAKIBU~1\AppData\Local\Temp\ccQ3AEax.s 			page 124


 6922 1ac5 24       		.byte	0x24
 6923 1ac6 19       		.uleb128 0x19
 6924 1ac7 7A2B0000 		.4byte	.LASF365
 6925 1acb 1E       		.byte	0x1e
 6926 1acc 5901     		.2byte	0x159
 6927 1ace 7A1A0000 		.4byte	0x1a7a
 6928 1ad2 28       		.byte	0x28
 6929 1ad3 19       		.uleb128 0x19
 6930 1ad4 96100000 		.4byte	.LASF366
 6931 1ad8 1E       		.byte	0x1e
 6932 1ad9 5D01     		.2byte	0x15d
 6933 1adb 0E1A0000 		.4byte	0x1a0e
 6934 1adf 2C       		.byte	0x2c
 6935 1ae0 19       		.uleb128 0x19
 6936 1ae1 D1280000 		.4byte	.LASF367
 6937 1ae5 1E       		.byte	0x1e
 6938 1ae6 6301     		.2byte	0x163
 6939 1ae8 7A1A0000 		.4byte	0x1a7a
 6940 1aec 3C       		.byte	0x3c
 6941 1aed 19       		.uleb128 0x19
 6942 1aee 77120000 		.4byte	.LASF368
 6943 1af2 1E       		.byte	0x1e
 6944 1af3 6901     		.2byte	0x169
 6945 1af5 7A1A0000 		.4byte	0x1a7a
 6946 1af9 40       		.byte	0x40
 6947 1afa 19       		.uleb128 0x19
 6948 1afb 14150000 		.4byte	.LASF369
 6949 1aff 1E       		.byte	0x1e
 6950 1b00 6F01     		.2byte	0x16f
 6951 1b02 7A1A0000 		.4byte	0x1a7a
 6952 1b06 44       		.byte	0x44
 6953 1b07 00       		.byte	0
 6954 1b08 09       		.uleb128 0x9
 6955 1b09 EC010000 		.4byte	.LASF370
 6956 1b0d 1E       		.byte	0x1e
 6957 1b0e 7101     		.2byte	0x171
 6958 1b10 851A0000 		.4byte	0x1a85
 6959 1b14 20       		.uleb128 0x20
 6960 1b15 00260000 		.4byte	.LASF371
 6961 1b19 1E       		.byte	0x1e
 6962 1b1a 7C01     		.2byte	0x17c
 6963 1b1c 081B0000 		.4byte	0x1b08
 6964 1b20 1C       		.uleb128 0x1c
 6965 1b21 0C       		.byte	0xc
 6966 1b22 1F       		.byte	0x1f
 6967 1b23 A201     		.2byte	0x1a2
 6968 1b25 781B0000 		.4byte	0x1b78
 6969 1b29 19       		.uleb128 0x19
 6970 1b2a 38310000 		.4byte	.LASF372
 6971 1b2e 1F       		.byte	0x1f
 6972 1b2f A301     		.2byte	0x1a3
 6973 1b31 781B0000 		.4byte	0x1b78
 6974 1b35 00       		.byte	0
 6975 1b36 19       		.uleb128 0x19
 6976 1b37 DD140000 		.4byte	.LASF373
 6977 1b3b 1F       		.byte	0x1f
 6978 1b3c A401     		.2byte	0x1a4
ARM GAS  C:\Users\RAKIBU~1\AppData\Local\Temp\ccQ3AEax.s 			page 125


 6979 1b3e 7E1B0000 		.4byte	0x1b7e
 6980 1b42 04       		.byte	0x4
 6981 1b43 19       		.uleb128 0x19
 6982 1b44 3F310000 		.4byte	.LASF374
 6983 1b48 1F       		.byte	0x1f
 6984 1b49 A801     		.2byte	0x1a8
 6985 1b4b E0080000 		.4byte	0x8e0
 6986 1b4f 08       		.byte	0x8
 6987 1b50 19       		.uleb128 0x19
 6988 1b51 04110000 		.4byte	.LASF375
 6989 1b55 1F       		.byte	0x1f
 6990 1b56 AA01     		.2byte	0x1aa
 6991 1b58 E0080000 		.4byte	0x8e0
 6992 1b5c 09       		.byte	0x9
 6993 1b5d 19       		.uleb128 0x19
 6994 1b5e 9D270000 		.4byte	.LASF376
 6995 1b62 1F       		.byte	0x1f
 6996 1b63 AC01     		.2byte	0x1ac
 6997 1b65 E0080000 		.4byte	0x8e0
 6998 1b69 0A       		.byte	0xa
 6999 1b6a 19       		.uleb128 0x19
 7000 1b6b 56050000 		.4byte	.LASF377
 7001 1b6f 1F       		.byte	0x1f
 7002 1b70 AD01     		.2byte	0x1ad
 7003 1b72 E0080000 		.4byte	0x8e0
 7004 1b76 0B       		.byte	0xb
 7005 1b77 00       		.byte	0
 7006 1b78 07       		.uleb128 0x7
 7007 1b79 04       		.byte	0x4
 7008 1b7a F10D0000 		.4byte	0xdf1
 7009 1b7e 07       		.uleb128 0x7
 7010 1b7f 04       		.byte	0x4
 7011 1b80 16090000 		.4byte	0x916
 7012 1b84 09       		.uleb128 0x9
 7013 1b85 02180000 		.4byte	.LASF378
 7014 1b89 1F       		.byte	0x1f
 7015 1b8a AE01     		.2byte	0x1ae
 7016 1b8c 201B0000 		.4byte	0x1b20
 7017 1b90 17       		.uleb128 0x17
 7018 1b91 841B0000 		.4byte	0x1b84
 7019 1b95 0C       		.uleb128 0xc
 7020 1b96 901B0000 		.4byte	0x1b90
 7021 1b9a A51B0000 		.4byte	0x1ba5
 7022 1b9e 0D       		.uleb128 0xd
 7023 1b9f 9B000000 		.4byte	0x9b
 7024 1ba3 0F       		.byte	0xf
 7025 1ba4 00       		.byte	0
 7026 1ba5 17       		.uleb128 0x17
 7027 1ba6 951B0000 		.4byte	0x1b95
 7028 1baa 20       		.uleb128 0x20
 7029 1bab DC230000 		.4byte	.LASF379
 7030 1baf 1F       		.byte	0x1f
 7031 1bb0 9002     		.2byte	0x290
 7032 1bb2 A51B0000 		.4byte	0x1ba5
 7033 1bb6 15       		.uleb128 0x15
 7034 1bb7 A2000000 		.4byte	0xa2
 7035 1bbb CF1B0000 		.4byte	0x1bcf
ARM GAS  C:\Users\RAKIBU~1\AppData\Local\Temp\ccQ3AEax.s 			page 126


 7036 1bbf 16       		.uleb128 0x16
 7037 1bc0 B9000000 		.4byte	0xb9
 7038 1bc4 16       		.uleb128 0x16
 7039 1bc5 CF1B0000 		.4byte	0x1bcf
 7040 1bc9 16       		.uleb128 0x16
 7041 1bca A2000000 		.4byte	0xa2
 7042 1bce 00       		.byte	0
 7043 1bcf 07       		.uleb128 0x7
 7044 1bd0 04       		.byte	0x4
 7045 1bd1 EB080000 		.4byte	0x8eb
 7046 1bd5 07       		.uleb128 0x7
 7047 1bd6 04       		.byte	0x4
 7048 1bd7 B61B0000 		.4byte	0x1bb6
 7049 1bdb 15       		.uleb128 0x15
 7050 1bdc A2000000 		.4byte	0xa2
 7051 1be0 F41B0000 		.4byte	0x1bf4
 7052 1be4 16       		.uleb128 0x16
 7053 1be5 B9000000 		.4byte	0xb9
 7054 1be9 16       		.uleb128 0x16
 7055 1bea 9A190000 		.4byte	0x199a
 7056 1bee 16       		.uleb128 0x16
 7057 1bef A2000000 		.4byte	0xa2
 7058 1bf3 00       		.byte	0
 7059 1bf4 07       		.uleb128 0x7
 7060 1bf5 04       		.byte	0x4
 7061 1bf6 DB1B0000 		.4byte	0x1bdb
 7062 1bfa 15       		.uleb128 0x15
 7063 1bfb A9090000 		.4byte	0x9a9
 7064 1bff 0E1C0000 		.4byte	0x1c0e
 7065 1c03 16       		.uleb128 0x16
 7066 1c04 B9000000 		.4byte	0xb9
 7067 1c08 16       		.uleb128 0x16
 7068 1c09 E0080000 		.4byte	0x8e0
 7069 1c0d 00       		.byte	0
 7070 1c0e 07       		.uleb128 0x7
 7071 1c0f 04       		.byte	0x4
 7072 1c10 FA1B0000 		.4byte	0x1bfa
 7073 1c14 15       		.uleb128 0x15
 7074 1c15 A9090000 		.4byte	0x9a9
 7075 1c19 231C0000 		.4byte	0x1c23
 7076 1c1d 16       		.uleb128 0x16
 7077 1c1e B9000000 		.4byte	0xb9
 7078 1c22 00       		.byte	0
 7079 1c23 07       		.uleb128 0x7
 7080 1c24 04       		.byte	0x4
 7081 1c25 141C0000 		.4byte	0x1c14
 7082 1c29 15       		.uleb128 0x15
 7083 1c2a A9090000 		.4byte	0x9a9
 7084 1c2e 421C0000 		.4byte	0x1c42
 7085 1c32 16       		.uleb128 0x16
 7086 1c33 B9000000 		.4byte	0xb9
 7087 1c37 16       		.uleb128 0x16
 7088 1c38 E0080000 		.4byte	0x8e0
 7089 1c3c 16       		.uleb128 0x16
 7090 1c3d 280D0000 		.4byte	0xd28
 7091 1c41 00       		.byte	0
 7092 1c42 07       		.uleb128 0x7
ARM GAS  C:\Users\RAKIBU~1\AppData\Local\Temp\ccQ3AEax.s 			page 127


 7093 1c43 04       		.byte	0x4
 7094 1c44 291C0000 		.4byte	0x1c29
 7095 1c48 15       		.uleb128 0x15
 7096 1c49 A9090000 		.4byte	0x9a9
 7097 1c4d 5C1C0000 		.4byte	0x1c5c
 7098 1c51 16       		.uleb128 0x16
 7099 1c52 B9000000 		.4byte	0xb9
 7100 1c56 16       		.uleb128 0x16
 7101 1c57 280D0000 		.4byte	0xd28
 7102 1c5b 00       		.byte	0
 7103 1c5c 07       		.uleb128 0x7
 7104 1c5d 04       		.byte	0x4
 7105 1c5e 481C0000 		.4byte	0x1c48
 7106 1c62 15       		.uleb128 0x15
 7107 1c63 A2000000 		.4byte	0xa2
 7108 1c67 801C0000 		.4byte	0x1c80
 7109 1c6b 16       		.uleb128 0x16
 7110 1c6c B9000000 		.4byte	0xb9
 7111 1c70 16       		.uleb128 0x16
 7112 1c71 CF1B0000 		.4byte	0x1bcf
 7113 1c75 16       		.uleb128 0x16
 7114 1c76 A2000000 		.4byte	0xa2
 7115 1c7a 16       		.uleb128 0x16
 7116 1c7b 280D0000 		.4byte	0xd28
 7117 1c7f 00       		.byte	0
 7118 1c80 07       		.uleb128 0x7
 7119 1c81 04       		.byte	0x4
 7120 1c82 621C0000 		.4byte	0x1c62
 7121 1c86 15       		.uleb128 0x15
 7122 1c87 A2000000 		.4byte	0xa2
 7123 1c8b A41C0000 		.4byte	0x1ca4
 7124 1c8f 16       		.uleb128 0x16
 7125 1c90 B9000000 		.4byte	0xb9
 7126 1c94 16       		.uleb128 0x16
 7127 1c95 9A190000 		.4byte	0x199a
 7128 1c99 16       		.uleb128 0x16
 7129 1c9a A2000000 		.4byte	0xa2
 7130 1c9e 16       		.uleb128 0x16
 7131 1c9f 280D0000 		.4byte	0xd28
 7132 1ca3 00       		.byte	0
 7133 1ca4 07       		.uleb128 0x7
 7134 1ca5 04       		.byte	0x4
 7135 1ca6 861C0000 		.4byte	0x1c86
 7136 1caa 15       		.uleb128 0x15
 7137 1cab A9090000 		.4byte	0x9a9
 7138 1caf C31C0000 		.4byte	0x1cc3
 7139 1cb3 16       		.uleb128 0x16
 7140 1cb4 B9000000 		.4byte	0xb9
 7141 1cb8 16       		.uleb128 0x16
 7142 1cb9 9B000000 		.4byte	0x9b
 7143 1cbd 16       		.uleb128 0x16
 7144 1cbe B9000000 		.4byte	0xb9
 7145 1cc2 00       		.byte	0
 7146 1cc3 07       		.uleb128 0x7
 7147 1cc4 04       		.byte	0x4
 7148 1cc5 AA1C0000 		.4byte	0x1caa
 7149 1cc9 29       		.uleb128 0x29
ARM GAS  C:\Users\RAKIBU~1\AppData\Local\Temp\ccQ3AEax.s 			page 128


 7150 1cca 07       		.byte	0x7
 7151 1ccb 01       		.byte	0x1
 7152 1ccc 37000000 		.4byte	0x37
 7153 1cd0 20       		.byte	0x20
 7154 1cd1 28       		.byte	0x28
 7155 1cd2 0D1D0000 		.4byte	0x1d0d
 7156 1cd6 2A       		.uleb128 0x2a
 7157 1cd7 C41D0000 		.4byte	.LASF380
 7158 1cdb 00       		.byte	0
 7159 1cdc 2A       		.uleb128 0x2a
 7160 1cdd 25130000 		.4byte	.LASF381
 7161 1ce1 01       		.byte	0x1
 7162 1ce2 2A       		.uleb128 0x2a
 7163 1ce3 FA0E0000 		.4byte	.LASF382
 7164 1ce7 02       		.byte	0x2
 7165 1ce8 2A       		.uleb128 0x2a
 7166 1ce9 3F250000 		.4byte	.LASF383
 7167 1ced 03       		.byte	0x3
 7168 1cee 2A       		.uleb128 0x2a
 7169 1cef 992F0000 		.4byte	.LASF384
 7170 1cf3 04       		.byte	0x4
 7171 1cf4 2A       		.uleb128 0x2a
 7172 1cf5 DD0A0000 		.4byte	.LASF385
 7173 1cf9 05       		.byte	0x5
 7174 1cfa 2A       		.uleb128 0x2a
 7175 1cfb 68270000 		.4byte	.LASF386
 7176 1cff 06       		.byte	0x6
 7177 1d00 2A       		.uleb128 0x2a
 7178 1d01 3A200000 		.4byte	.LASF387
 7179 1d05 07       		.byte	0x7
 7180 1d06 2A       		.uleb128 0x2a
 7181 1d07 5E2F0000 		.4byte	.LASF388
 7182 1d0b 08       		.byte	0x8
 7183 1d0c 00       		.byte	0
 7184 1d0d 03       		.uleb128 0x3
 7185 1d0e 291E0000 		.4byte	.LASF389
 7186 1d12 20       		.byte	0x20
 7187 1d13 32       		.byte	0x32
 7188 1d14 C91C0000 		.4byte	0x1cc9
 7189 1d18 0E       		.uleb128 0xe
 7190 1d19 08       		.byte	0x8
 7191 1d1a 20       		.byte	0x20
 7192 1d1b 37       		.byte	0x37
 7193 1d1c 391D0000 		.4byte	0x1d39
 7194 1d20 0F       		.uleb128 0xf
 7195 1d21 960A0000 		.4byte	.LASF390
 7196 1d25 20       		.byte	0x20
 7197 1d26 38       		.byte	0x38
 7198 1d27 0B090000 		.4byte	0x90b
 7199 1d2b 00       		.byte	0
 7200 1d2c 0F       		.uleb128 0xf
 7201 1d2d 77260000 		.4byte	.LASF391
 7202 1d31 20       		.byte	0x20
 7203 1d32 39       		.byte	0x39
 7204 1d33 0B090000 		.4byte	0x90b
 7205 1d37 04       		.byte	0x4
 7206 1d38 00       		.byte	0
ARM GAS  C:\Users\RAKIBU~1\AppData\Local\Temp\ccQ3AEax.s 			page 129


 7207 1d39 03       		.uleb128 0x3
 7208 1d3a 3C290000 		.4byte	.LASF392
 7209 1d3e 20       		.byte	0x20
 7210 1d3f 3A       		.byte	0x3a
 7211 1d40 181D0000 		.4byte	0x1d18
 7212 1d44 15       		.uleb128 0x15
 7213 1d45 4D190000 		.4byte	0x194d
 7214 1d49 531D0000 		.4byte	0x1d53
 7215 1d4d 16       		.uleb128 0x16
 7216 1d4e B9000000 		.4byte	0xb9
 7217 1d52 00       		.byte	0
 7218 1d53 07       		.uleb128 0x7
 7219 1d54 04       		.byte	0x4
 7220 1d55 441D0000 		.4byte	0x1d44
 7221 1d59 15       		.uleb128 0x15
 7222 1d5a 4D190000 		.4byte	0x194d
 7223 1d5e 771D0000 		.4byte	0x1d77
 7224 1d62 16       		.uleb128 0x16
 7225 1d63 B9000000 		.4byte	0xb9
 7226 1d67 16       		.uleb128 0x16
 7227 1d68 0B090000 		.4byte	0x90b
 7228 1d6c 16       		.uleb128 0x16
 7229 1d6d 9A190000 		.4byte	0x199a
 7230 1d71 16       		.uleb128 0x16
 7231 1d72 0B090000 		.4byte	0x90b
 7232 1d76 00       		.byte	0
 7233 1d77 07       		.uleb128 0x7
 7234 1d78 04       		.byte	0x4
 7235 1d79 591D0000 		.4byte	0x1d59
 7236 1d7d 15       		.uleb128 0x15
 7237 1d7e 4D190000 		.4byte	0x194d
 7238 1d82 9B1D0000 		.4byte	0x1d9b
 7239 1d86 16       		.uleb128 0x16
 7240 1d87 B9000000 		.4byte	0xb9
 7241 1d8b 16       		.uleb128 0x16
 7242 1d8c 0B090000 		.4byte	0x90b
 7243 1d90 16       		.uleb128 0x16
 7244 1d91 CF1B0000 		.4byte	0x1bcf
 7245 1d95 16       		.uleb128 0x16
 7246 1d96 0B090000 		.4byte	0x90b
 7247 1d9a 00       		.byte	0
 7248 1d9b 07       		.uleb128 0x7
 7249 1d9c 04       		.byte	0x4
 7250 1d9d 7D1D0000 		.4byte	0x1d7d
 7251 1da1 15       		.uleb128 0x15
 7252 1da2 4D190000 		.4byte	0x194d
 7253 1da6 B51D0000 		.4byte	0x1db5
 7254 1daa 16       		.uleb128 0x16
 7255 1dab B9000000 		.4byte	0xb9
 7256 1daf 16       		.uleb128 0x16
 7257 1db0 B51D0000 		.4byte	0x1db5
 7258 1db4 00       		.byte	0
 7259 1db5 07       		.uleb128 0x7
 7260 1db6 04       		.byte	0x4
 7261 1db7 391D0000 		.4byte	0x1d39
 7262 1dbb 07       		.uleb128 0x7
 7263 1dbc 04       		.byte	0x4
ARM GAS  C:\Users\RAKIBU~1\AppData\Local\Temp\ccQ3AEax.s 			page 130


 7264 1dbd A11D0000 		.4byte	0x1da1
 7265 1dc1 0C       		.uleb128 0xc
 7266 1dc2 0B090000 		.4byte	0x90b
 7267 1dc6 D11D0000 		.4byte	0x1dd1
 7268 1dca 0D       		.uleb128 0xd
 7269 1dcb 9B000000 		.4byte	0x9b
 7270 1dcf 03       		.byte	0x3
 7271 1dd0 00       		.byte	0
 7272 1dd1 29       		.uleb128 0x29
 7273 1dd2 07       		.byte	0x7
 7274 1dd3 01       		.byte	0x1
 7275 1dd4 37000000 		.4byte	0x37
 7276 1dd8 21       		.byte	0x21
 7277 1dd9 34       		.byte	0x34
 7278 1dda FD1D0000 		.4byte	0x1dfd
 7279 1dde 2A       		.uleb128 0x2a
 7280 1ddf 011F0000 		.4byte	.LASF393
 7281 1de3 00       		.byte	0
 7282 1de4 2A       		.uleb128 0x2a
 7283 1de5 FF080000 		.4byte	.LASF394
 7284 1de9 02       		.byte	0x2
 7285 1dea 2A       		.uleb128 0x2a
 7286 1deb 95150000 		.4byte	.LASF395
 7287 1def 03       		.byte	0x3
 7288 1df0 2A       		.uleb128 0x2a
 7289 1df1 200F0000 		.4byte	.LASF396
 7290 1df5 05       		.byte	0x5
 7291 1df6 2A       		.uleb128 0x2a
 7292 1df7 B6230000 		.4byte	.LASF397
 7293 1dfb 06       		.byte	0x6
 7294 1dfc 00       		.byte	0
 7295 1dfd 03       		.uleb128 0x3
 7296 1dfe EC220000 		.4byte	.LASF398
 7297 1e02 21       		.byte	0x21
 7298 1e03 3A       		.byte	0x3a
 7299 1e04 D11D0000 		.4byte	0x1dd1
 7300 1e08 03       		.uleb128 0x3
 7301 1e09 D90E0000 		.4byte	.LASF399
 7302 1e0d 21       		.byte	0x21
 7303 1e0e 3F       		.byte	0x3f
 7304 1e0f 0B090000 		.4byte	0x90b
 7305 1e13 15       		.uleb128 0x15
 7306 1e14 A2000000 		.4byte	0xa2
 7307 1e18 221E0000 		.4byte	0x1e22
 7308 1e1c 16       		.uleb128 0x16
 7309 1e1d B9000000 		.4byte	0xb9
 7310 1e21 00       		.byte	0
 7311 1e22 07       		.uleb128 0x7
 7312 1e23 04       		.byte	0x4
 7313 1e24 131E0000 		.4byte	0x1e13
 7314 1e28 15       		.uleb128 0x15
 7315 1e29 FD1D0000 		.4byte	0x1dfd
 7316 1e2d 461E0000 		.4byte	0x1e46
 7317 1e31 16       		.uleb128 0x16
 7318 1e32 B9000000 		.4byte	0xb9
 7319 1e36 16       		.uleb128 0x16
 7320 1e37 081E0000 		.4byte	0x1e08
ARM GAS  C:\Users\RAKIBU~1\AppData\Local\Temp\ccQ3AEax.s 			page 131


 7321 1e3b 16       		.uleb128 0x16
 7322 1e3c A2000000 		.4byte	0xa2
 7323 1e40 16       		.uleb128 0x16
 7324 1e41 9A190000 		.4byte	0x199a
 7325 1e45 00       		.byte	0
 7326 1e46 07       		.uleb128 0x7
 7327 1e47 04       		.byte	0x4
 7328 1e48 281E0000 		.4byte	0x1e28
 7329 1e4c 15       		.uleb128 0x15
 7330 1e4d FD1D0000 		.4byte	0x1dfd
 7331 1e51 6A1E0000 		.4byte	0x1e6a
 7332 1e55 16       		.uleb128 0x16
 7333 1e56 B9000000 		.4byte	0xb9
 7334 1e5a 16       		.uleb128 0x16
 7335 1e5b 081E0000 		.4byte	0x1e08
 7336 1e5f 16       		.uleb128 0x16
 7337 1e60 A2000000 		.4byte	0xa2
 7338 1e64 16       		.uleb128 0x16
 7339 1e65 CF1B0000 		.4byte	0x1bcf
 7340 1e69 00       		.byte	0
 7341 1e6a 07       		.uleb128 0x7
 7342 1e6b 04       		.byte	0x4
 7343 1e6c 4C1E0000 		.4byte	0x1e4c
 7344 1e70 03       		.uleb128 0x3
 7345 1e71 46120000 		.4byte	.LASF400
 7346 1e75 22       		.byte	0x22
 7347 1e76 3A       		.byte	0x3a
 7348 1e77 7B1E0000 		.4byte	0x1e7b
 7349 1e7b 10       		.uleb128 0x10
 7350 1e7c 61150000 		.4byte	.LASF401
 7351 1e80 24       		.byte	0x24
 7352 1e81 22       		.byte	0x22
 7353 1e82 4B       		.byte	0x4b
 7354 1e83 E81E0000 		.4byte	0x1ee8
 7355 1e87 0F       		.uleb128 0xf
 7356 1e88 67080000 		.4byte	.LASF402
 7357 1e8c 22       		.byte	0x22
 7358 1e8d 4C       		.byte	0x4c
 7359 1e8e 0B0B0000 		.4byte	0xb0b
 7360 1e92 00       		.byte	0
 7361 1e93 0F       		.uleb128 0xf
 7362 1e94 141F0000 		.4byte	.LASF403
 7363 1e98 22       		.byte	0x22
 7364 1e99 4D       		.byte	0x4d
 7365 1e9a AD000000 		.4byte	0xad
 7366 1e9e 08       		.byte	0x8
 7367 1e9f 0F       		.uleb128 0xf
 7368 1ea0 C7160000 		.4byte	.LASF404
 7369 1ea4 22       		.byte	0x22
 7370 1ea5 4E       		.byte	0x4e
 7371 1ea6 9A190000 		.4byte	0x199a
 7372 1eaa 0C       		.byte	0xc
 7373 1eab 0F       		.uleb128 0xf
 7374 1eac FF060000 		.4byte	.LASF405
 7375 1eb0 22       		.byte	0x22
 7376 1eb1 4F       		.byte	0x4f
 7377 1eb2 9A190000 		.4byte	0x199a
ARM GAS  C:\Users\RAKIBU~1\AppData\Local\Temp\ccQ3AEax.s 			page 132


 7378 1eb6 10       		.byte	0x10
 7379 1eb7 0F       		.uleb128 0xf
 7380 1eb8 B5210000 		.4byte	.LASF406
 7381 1ebc 22       		.byte	0x22
 7382 1ebd 51       		.byte	0x51
 7383 1ebe 9A190000 		.4byte	0x199a
 7384 1ec2 14       		.byte	0x14
 7385 1ec3 0F       		.uleb128 0xf
 7386 1ec4 B41F0000 		.4byte	.LASF407
 7387 1ec8 22       		.byte	0x22
 7388 1ec9 52       		.byte	0x52
 7389 1eca 9A190000 		.4byte	0x199a
 7390 1ece 18       		.byte	0x18
 7391 1ecf 0F       		.uleb128 0xf
 7392 1ed0 0B260000 		.4byte	.LASF408
 7393 1ed4 22       		.byte	0x22
 7394 1ed5 53       		.byte	0x53
 7395 1ed6 E81E0000 		.4byte	0x1ee8
 7396 1eda 1C       		.byte	0x1c
 7397 1edb 0F       		.uleb128 0xf
 7398 1edc D3220000 		.4byte	.LASF409
 7399 1ee0 22       		.byte	0x22
 7400 1ee1 54       		.byte	0x54
 7401 1ee2 B9000000 		.4byte	0xb9
 7402 1ee6 20       		.byte	0x20
 7403 1ee7 00       		.byte	0
 7404 1ee8 03       		.uleb128 0x3
 7405 1ee9 B6060000 		.4byte	.LASF410
 7406 1eed 22       		.byte	0x22
 7407 1eee 41       		.byte	0x41
 7408 1eef F31E0000 		.4byte	0x1ef3
 7409 1ef3 07       		.uleb128 0x7
 7410 1ef4 04       		.byte	0x4
 7411 1ef5 F91E0000 		.4byte	0x1ef9
 7412 1ef9 1F       		.uleb128 0x1f
 7413 1efa 041F0000 		.4byte	0x1f04
 7414 1efe 16       		.uleb128 0x16
 7415 1eff 041F0000 		.4byte	0x1f04
 7416 1f03 00       		.byte	0
 7417 1f04 07       		.uleb128 0x7
 7418 1f05 04       		.byte	0x4
 7419 1f06 701E0000 		.4byte	0x1e70
 7420 1f0a 03       		.uleb128 0x3
 7421 1f0b A0080000 		.4byte	.LASF411
 7422 1f0f 22       		.byte	0x22
 7423 1f10 61       		.byte	0x61
 7424 1f11 701E0000 		.4byte	0x1e70
 7425 1f15 03       		.uleb128 0x3
 7426 1f16 FC310000 		.4byte	.LASF412
 7427 1f1a 22       		.byte	0x22
 7428 1f1b 6D       		.byte	0x6d
 7429 1f1c 701E0000 		.4byte	0x1e70
 7430 1f20 03       		.uleb128 0x3
 7431 1f21 28230000 		.4byte	.LASF413
 7432 1f25 23       		.byte	0x23
 7433 1f26 94       		.byte	0x94
 7434 1f27 AD0B0000 		.4byte	0xbad
ARM GAS  C:\Users\RAKIBU~1\AppData\Local\Temp\ccQ3AEax.s 			page 133


 7435 1f2b 0E       		.uleb128 0xe
 7436 1f2c 10       		.byte	0x10
 7437 1f2d 23       		.byte	0x23
 7438 1f2e 9A       		.byte	0x9a
 7439 1f2f 571F0000 		.4byte	0x1f57
 7440 1f33 0F       		.uleb128 0xf
 7441 1f34 A60B0000 		.4byte	.LASF414
 7442 1f38 23       		.byte	0x23
 7443 1f39 9F       		.byte	0x9f
 7444 1f3a 0B0B0000 		.4byte	0xb0b
 7445 1f3e 00       		.byte	0
 7446 1f3f 11       		.uleb128 0x11
 7447 1f40 636200   		.ascii	"cb\000"
 7448 1f43 23       		.byte	0x23
 7449 1f44 A5       		.byte	0xa5
 7450 1f45 201F0000 		.4byte	0x1f20
 7451 1f49 08       		.byte	0x8
 7452 1f4a 11       		.uleb128 0x11
 7453 1f4b 61726700 		.ascii	"arg\000"
 7454 1f4f 23       		.byte	0x23
 7455 1f50 A9       		.byte	0xa9
 7456 1f51 B9000000 		.4byte	0xb9
 7457 1f55 0C       		.byte	0xc
 7458 1f56 00       		.byte	0
 7459 1f57 03       		.uleb128 0x3
 7460 1f58 140C0000 		.4byte	.LASF415
 7461 1f5c 23       		.byte	0x23
 7462 1f5d AB       		.byte	0xab
 7463 1f5e 2B1F0000 		.4byte	0x1f2b
 7464 1f62 0E       		.uleb128 0xe
 7465 1f63 04       		.byte	0x4
 7466 1f64 24       		.byte	0x24
 7467 1f65 5B       		.byte	0x5b
 7468 1f66 831F0000 		.4byte	0x1f83
 7469 1f6a 11       		.uleb128 0x11
 7470 1f6b 73657400 		.ascii	"set\000"
 7471 1f6f 24       		.byte	0x24
 7472 1f70 5C       		.byte	0x5c
 7473 1f71 F0080000 		.4byte	0x8f0
 7474 1f75 00       		.byte	0
 7475 1f76 0F       		.uleb128 0xf
 7476 1f77 E1270000 		.4byte	.LASF416
 7477 1f7b 24       		.byte	0x24
 7478 1f7c 5D       		.byte	0x5d
 7479 1f7d F0080000 		.4byte	0x8f0
 7480 1f81 02       		.byte	0x2
 7481 1f82 00       		.byte	0
 7482 1f83 0A       		.uleb128 0xa
 7483 1f84 04       		.byte	0x4
 7484 1f85 24       		.byte	0x24
 7485 1f86 59       		.byte	0x59
 7486 1f87 9E1F0000 		.4byte	0x1f9e
 7487 1f8b 24       		.uleb128 0x24
 7488 1f8c 5700     		.ascii	"W\000"
 7489 1f8e 24       		.byte	0x24
 7490 1f8f 5A       		.byte	0x5a
 7491 1f90 0B090000 		.4byte	0x90b
ARM GAS  C:\Users\RAKIBU~1\AppData\Local\Temp\ccQ3AEax.s 			page 134


 7492 1f94 24       		.uleb128 0x24
 7493 1f95 4800     		.ascii	"H\000"
 7494 1f97 24       		.byte	0x24
 7495 1f98 5E       		.byte	0x5e
 7496 1f99 621F0000 		.4byte	0x1f62
 7497 1f9d 00       		.byte	0
 7498 1f9e 05       		.uleb128 0x5
 7499 1f9f 831F0000 		.4byte	0x1f83
 7500 1fa3 0E       		.uleb128 0xe
 7501 1fa4 28       		.byte	0x28
 7502 1fa5 24       		.byte	0x24
 7503 1fa6 51       		.byte	0x51
 7504 1fa7 24200000 		.4byte	0x2024
 7505 1fab 0F       		.uleb128 0xf
 7506 1fac E7270000 		.4byte	.LASF417
 7507 1fb0 24       		.byte	0x24
 7508 1fb1 53       		.byte	0x53
 7509 1fb2 16090000 		.4byte	0x916
 7510 1fb6 00       		.byte	0
 7511 1fb7 0F       		.uleb128 0xf
 7512 1fb8 CC040000 		.4byte	.LASF418
 7513 1fbc 24       		.byte	0x24
 7514 1fbd 54       		.byte	0x54
 7515 1fbe 16090000 		.4byte	0x916
 7516 1fc2 04       		.byte	0x4
 7517 1fc3 0F       		.uleb128 0xf
 7518 1fc4 F4120000 		.4byte	.LASF419
 7519 1fc8 24       		.byte	0x24
 7520 1fc9 55       		.byte	0x55
 7521 1fca 16090000 		.4byte	0x916
 7522 1fce 08       		.byte	0x8
 7523 1fcf 0F       		.uleb128 0xf
 7524 1fd0 FC260000 		.4byte	.LASF420
 7525 1fd4 24       		.byte	0x24
 7526 1fd5 56       		.byte	0x56
 7527 1fd6 16090000 		.4byte	0x916
 7528 1fda 0C       		.byte	0xc
 7529 1fdb 11       		.uleb128 0x11
 7530 1fdc 49445200 		.ascii	"IDR\000"
 7531 1fe0 24       		.byte	0x24
 7532 1fe1 57       		.byte	0x57
 7533 1fe2 16090000 		.4byte	0x916
 7534 1fe6 10       		.byte	0x10
 7535 1fe7 11       		.uleb128 0x11
 7536 1fe8 4F445200 		.ascii	"ODR\000"
 7537 1fec 24       		.byte	0x24
 7538 1fed 58       		.byte	0x58
 7539 1fee 16090000 		.4byte	0x916
 7540 1ff2 14       		.byte	0x14
 7541 1ff3 0F       		.uleb128 0xf
 7542 1ff4 FD170000 		.4byte	.LASF421
 7543 1ff8 24       		.byte	0x24
 7544 1ff9 5F       		.byte	0x5f
 7545 1ffa 9E1F0000 		.4byte	0x1f9e
 7546 1ffe 18       		.byte	0x18
 7547 1fff 0F       		.uleb128 0xf
 7548 2000 03230000 		.4byte	.LASF422
ARM GAS  C:\Users\RAKIBU~1\AppData\Local\Temp\ccQ3AEax.s 			page 135


 7549 2004 24       		.byte	0x24
 7550 2005 60       		.byte	0x60
 7551 2006 16090000 		.4byte	0x916
 7552 200a 1C       		.byte	0x1c
 7553 200b 0F       		.uleb128 0xf
 7554 200c 72240000 		.4byte	.LASF423
 7555 2010 24       		.byte	0x24
 7556 2011 61       		.byte	0x61
 7557 2012 16090000 		.4byte	0x916
 7558 2016 20       		.byte	0x20
 7559 2017 0F       		.uleb128 0xf
 7560 2018 6D240000 		.4byte	.LASF424
 7561 201c 24       		.byte	0x24
 7562 201d 62       		.byte	0x62
 7563 201e 16090000 		.4byte	0x916
 7564 2022 24       		.byte	0x24
 7565 2023 00       		.byte	0
 7566 2024 03       		.uleb128 0x3
 7567 2025 F8140000 		.4byte	.LASF425
 7568 2029 24       		.byte	0x24
 7569 202a 63       		.byte	0x63
 7570 202b A31F0000 		.4byte	0x1fa3
 7571 202f 03       		.uleb128 0x3
 7572 2030 1E1F0000 		.4byte	.LASF426
 7573 2034 25       		.byte	0x25
 7574 2035 D9       		.byte	0xd9
 7575 2036 3A200000 		.4byte	0x203a
 7576 203a 07       		.uleb128 0x7
 7577 203b 04       		.byte	0x4
 7578 203c 24200000 		.4byte	0x2024
 7579 2040 0C       		.uleb128 0xc
 7580 2041 571F0000 		.4byte	0x1f57
 7581 2045 50200000 		.4byte	0x2050
 7582 2049 0D       		.uleb128 0xd
 7583 204a 9B000000 		.4byte	0x9b
 7584 204e 0F       		.byte	0xf
 7585 204f 00       		.byte	0
 7586 2050 20       		.uleb128 0x20
 7587 2051 9F260000 		.4byte	.LASF427
 7588 2055 25       		.byte	0x25
 7589 2056 EB01     		.2byte	0x1eb
 7590 2058 40200000 		.4byte	0x2040
 7591 205c 29       		.uleb128 0x29
 7592 205d 07       		.byte	0x7
 7593 205e 01       		.byte	0x1
 7594 205f 37000000 		.4byte	0x37
 7595 2063 26       		.byte	0x26
 7596 2064 31       		.byte	0x31
 7597 2065 88200000 		.4byte	0x2088
 7598 2069 2A       		.uleb128 0x2a
 7599 206a 7C1D0000 		.4byte	.LASF428
 7600 206e 00       		.byte	0
 7601 206f 2A       		.uleb128 0x2a
 7602 2070 251B0000 		.4byte	.LASF429
 7603 2074 01       		.byte	0x1
 7604 2075 2A       		.uleb128 0x2a
 7605 2076 66210000 		.4byte	.LASF430
ARM GAS  C:\Users\RAKIBU~1\AppData\Local\Temp\ccQ3AEax.s 			page 136


 7606 207a 02       		.byte	0x2
 7607 207b 2A       		.uleb128 0x2a
 7608 207c 050B0000 		.4byte	.LASF431
 7609 2080 03       		.byte	0x3
 7610 2081 2A       		.uleb128 0x2a
 7611 2082 F3060000 		.4byte	.LASF432
 7612 2086 04       		.byte	0x4
 7613 2087 00       		.byte	0
 7614 2088 03       		.uleb128 0x3
 7615 2089 82190000 		.4byte	.LASF433
 7616 208d 26       		.byte	0x26
 7617 208e 37       		.byte	0x37
 7618 208f 5C200000 		.4byte	0x205c
 7619 2093 03       		.uleb128 0x3
 7620 2094 F71E0000 		.4byte	.LASF434
 7621 2098 26       		.byte	0x26
 7622 2099 3C       		.byte	0x3c
 7623 209a 9E200000 		.4byte	0x209e
 7624 209e 1B       		.uleb128 0x1b
 7625 209f F71E0000 		.4byte	.LASF434
 7626 20a3 10       		.byte	0x10
 7627 20a4 27       		.byte	0x27
 7628 20a5 E102     		.2byte	0x2e1
 7629 20a7 E0200000 		.4byte	0x20e0
 7630 20ab 19       		.uleb128 0x19
 7631 20ac B61C0000 		.4byte	.LASF156
 7632 20b0 27       		.byte	0x27
 7633 20b1 E502     		.2byte	0x2e5
 7634 20b3 88200000 		.4byte	0x2088
 7635 20b7 00       		.byte	0
 7636 20b8 19       		.uleb128 0x19
 7637 20b9 EA240000 		.4byte	.LASF435
 7638 20bd 27       		.byte	0x27
 7639 20be E902     		.2byte	0x2e9
 7640 20c0 5D210000 		.4byte	0x215d
 7641 20c4 04       		.byte	0x4
 7642 20c5 19       		.uleb128 0x19
 7643 20c6 70110000 		.4byte	.LASF436
 7644 20ca 27       		.byte	0x27
 7645 20cb F102     		.2byte	0x2f1
 7646 20cd 0B090000 		.4byte	0x90b
 7647 20d1 08       		.byte	0x8
 7648 20d2 21       		.uleb128 0x21
 7649 20d3 74696D00 		.ascii	"tim\000"
 7650 20d7 27       		.byte	0x27
 7651 20d8 F502     		.2byte	0x2f5
 7652 20da 63210000 		.4byte	0x2163
 7653 20de 0C       		.byte	0xc
 7654 20df 00       		.byte	0
 7655 20e0 03       		.uleb128 0x3
 7656 20e1 B9160000 		.4byte	.LASF437
 7657 20e5 26       		.byte	0x26
 7658 20e6 43       		.byte	0x43
 7659 20e7 EB200000 		.4byte	0x20eb
 7660 20eb 07       		.uleb128 0x7
 7661 20ec 04       		.byte	0x4
 7662 20ed F1200000 		.4byte	0x20f1
ARM GAS  C:\Users\RAKIBU~1\AppData\Local\Temp\ccQ3AEax.s 			page 137


 7663 20f1 1F       		.uleb128 0x1f
 7664 20f2 FC200000 		.4byte	0x20fc
 7665 20f6 16       		.uleb128 0x16
 7666 20f7 FC200000 		.4byte	0x20fc
 7667 20fb 00       		.byte	0
 7668 20fc 07       		.uleb128 0x7
 7669 20fd 04       		.byte	0x4
 7670 20fe 93200000 		.4byte	0x2093
 7671 2102 09       		.uleb128 0x9
 7672 2103 1F0C0000 		.4byte	.LASF438
 7673 2107 27       		.byte	0x27
 7674 2108 B702     		.2byte	0x2b7
 7675 210a 0B090000 		.4byte	0x90b
 7676 210e 1C       		.uleb128 0x1c
 7677 210f 10       		.byte	0x10
 7678 2110 27       		.byte	0x27
 7679 2111 C202     		.2byte	0x2c2
 7680 2113 4C210000 		.4byte	0x214c
 7681 2117 19       		.uleb128 0x19
 7682 2118 3D300000 		.4byte	.LASF439
 7683 211c 27       		.byte	0x27
 7684 211d C802     		.2byte	0x2c8
 7685 211f 02210000 		.4byte	0x2102
 7686 2123 00       		.byte	0
 7687 2124 19       		.uleb128 0x19
 7688 2125 191D0000 		.4byte	.LASF440
 7689 2129 27       		.byte	0x27
 7690 212a CF02     		.2byte	0x2cf
 7691 212c E0200000 		.4byte	0x20e0
 7692 2130 04       		.byte	0x4
 7693 2131 21       		.uleb128 0x21
 7694 2132 63723200 		.ascii	"cr2\000"
 7695 2136 27       		.byte	0x27
 7696 2137 D502     		.2byte	0x2d5
 7697 2139 0B090000 		.4byte	0x90b
 7698 213d 08       		.byte	0x8
 7699 213e 19       		.uleb128 0x19
 7700 213f 84100000 		.4byte	.LASF441
 7701 2143 27       		.byte	0x27
 7702 2144 DB02     		.2byte	0x2db
 7703 2146 0B090000 		.4byte	0x90b
 7704 214a 0C       		.byte	0xc
 7705 214b 00       		.byte	0
 7706 214c 09       		.uleb128 0x9
 7707 214d 80090000 		.4byte	.LASF442
 7708 2151 27       		.byte	0x27
 7709 2152 DC02     		.2byte	0x2dc
 7710 2154 0E210000 		.4byte	0x210e
 7711 2158 17       		.uleb128 0x17
 7712 2159 4C210000 		.4byte	0x214c
 7713 215d 07       		.uleb128 0x7
 7714 215e 04       		.byte	0x4
 7715 215f 58210000 		.4byte	0x2158
 7716 2163 07       		.uleb128 0x7
 7717 2164 04       		.byte	0x4
 7718 2165 AA140000 		.4byte	0x14aa
 7719 2169 20       		.uleb128 0x20
ARM GAS  C:\Users\RAKIBU~1\AppData\Local\Temp\ccQ3AEax.s 			page 138


 7720 216a 932F0000 		.4byte	.LASF443
 7721 216e 27       		.byte	0x27
 7722 216f 3803     		.2byte	0x338
 7723 2171 93200000 		.4byte	0x2093
 7724 2175 29       		.uleb128 0x29
 7725 2176 07       		.byte	0x7
 7726 2177 01       		.byte	0x1
 7727 2178 37000000 		.4byte	0x37
 7728 217c 28       		.byte	0x28
 7729 217d 4C       		.byte	0x4c
 7730 217e A7210000 		.4byte	0x21a7
 7731 2182 2A       		.uleb128 0x2a
 7732 2183 75090000 		.4byte	.LASF444
 7733 2187 00       		.byte	0
 7734 2188 2A       		.uleb128 0x2a
 7735 2189 81120000 		.4byte	.LASF445
 7736 218d 01       		.byte	0x1
 7737 218e 2A       		.uleb128 0x2a
 7738 218f 9F0A0000 		.4byte	.LASF446
 7739 2193 02       		.byte	0x2
 7740 2194 2A       		.uleb128 0x2a
 7741 2195 1E070000 		.4byte	.LASF447
 7742 2199 03       		.byte	0x3
 7743 219a 2A       		.uleb128 0x2a
 7744 219b 28050000 		.4byte	.LASF448
 7745 219f 04       		.byte	0x4
 7746 21a0 2A       		.uleb128 0x2a
 7747 21a1 FA180000 		.4byte	.LASF449
 7748 21a5 05       		.byte	0x5
 7749 21a6 00       		.byte	0
 7750 21a7 03       		.uleb128 0x3
 7751 21a8 34160000 		.4byte	.LASF450
 7752 21ac 28       		.byte	0x28
 7753 21ad 53       		.byte	0x53
 7754 21ae 75210000 		.4byte	0x2175
 7755 21b2 09       		.uleb128 0x9
 7756 21b3 DF1E0000 		.4byte	.LASF451
 7757 21b7 29       		.byte	0x29
 7758 21b8 6A01     		.2byte	0x16a
 7759 21ba F0080000 		.4byte	0x8f0
 7760 21be 09       		.uleb128 0x9
 7761 21bf C2050000 		.4byte	.LASF452
 7762 21c3 29       		.byte	0x29
 7763 21c4 6F01     		.2byte	0x16f
 7764 21c6 0B090000 		.4byte	0x90b
 7765 21ca 2B       		.uleb128 0x2b
 7766 21cb 07       		.byte	0x7
 7767 21cc 01       		.byte	0x1
 7768 21cd 37000000 		.4byte	0x37
 7769 21d1 29       		.byte	0x29
 7770 21d2 7401     		.2byte	0x174
 7771 21d4 EB210000 		.4byte	0x21eb
 7772 21d8 2A       		.uleb128 0x2a
 7773 21d9 3C070000 		.4byte	.LASF453
 7774 21dd 01       		.byte	0x1
 7775 21de 2A       		.uleb128 0x2a
 7776 21df 7C000000 		.4byte	.LASF454
ARM GAS  C:\Users\RAKIBU~1\AppData\Local\Temp\ccQ3AEax.s 			page 139


 7777 21e3 02       		.byte	0x2
 7778 21e4 2A       		.uleb128 0x2a
 7779 21e5 DE0C0000 		.4byte	.LASF455
 7780 21e9 03       		.byte	0x3
 7781 21ea 00       		.byte	0
 7782 21eb 09       		.uleb128 0x9
 7783 21ec 45310000 		.4byte	.LASF456
 7784 21f0 29       		.byte	0x29
 7785 21f1 7801     		.2byte	0x178
 7786 21f3 CA210000 		.4byte	0x21ca
 7787 21f7 2B       		.uleb128 0x2b
 7788 21f8 07       		.byte	0x7
 7789 21f9 01       		.byte	0x1
 7790 21fa 37000000 		.4byte	0x37
 7791 21fe 29       		.byte	0x29
 7792 21ff 7D01     		.2byte	0x17d
 7793 2201 18220000 		.4byte	0x2218
 7794 2205 2A       		.uleb128 0x2a
 7795 2206 E9080000 		.4byte	.LASF457
 7796 220a 01       		.byte	0x1
 7797 220b 2A       		.uleb128 0x2a
 7798 220c B7300000 		.4byte	.LASF458
 7799 2210 02       		.byte	0x2
 7800 2211 2A       		.uleb128 0x2a
 7801 2212 5B0E0000 		.4byte	.LASF459
 7802 2216 03       		.byte	0x3
 7803 2217 00       		.byte	0
 7804 2218 09       		.uleb128 0x9
 7805 2219 530A0000 		.4byte	.LASF460
 7806 221d 29       		.byte	0x29
 7807 221e 8101     		.2byte	0x181
 7808 2220 F7210000 		.4byte	0x21f7
 7809 2224 1C       		.uleb128 0x1c
 7810 2225 0C       		.byte	0xc
 7811 2226 29       		.byte	0x29
 7812 2227 8601     		.2byte	0x186
 7813 2229 55220000 		.4byte	0x2255
 7814 222d 19       		.uleb128 0x19
 7815 222e 4F1B0000 		.4byte	.LASF461
 7816 2232 29       		.byte	0x29
 7817 2233 8801     		.2byte	0x188
 7818 2235 EB210000 		.4byte	0x21eb
 7819 2239 00       		.byte	0
 7820 223a 19       		.uleb128 0x19
 7821 223b 7C050000 		.4byte	.LASF462
 7822 223f 29       		.byte	0x29
 7823 2240 8901     		.2byte	0x189
 7824 2242 0B090000 		.4byte	0x90b
 7825 2246 04       		.byte	0x4
 7826 2247 19       		.uleb128 0x19
 7827 2248 3C320000 		.4byte	.LASF463
 7828 224c 29       		.byte	0x29
 7829 224d 8C01     		.2byte	0x18c
 7830 224f 18220000 		.4byte	0x2218
 7831 2253 08       		.byte	0x8
 7832 2254 00       		.byte	0
 7833 2255 09       		.uleb128 0x9
ARM GAS  C:\Users\RAKIBU~1\AppData\Local\Temp\ccQ3AEax.s 			page 140


 7834 2256 DE020000 		.4byte	.LASF464
 7835 225a 29       		.byte	0x29
 7836 225b 8E01     		.2byte	0x18e
 7837 225d 24220000 		.4byte	0x2224
 7838 2261 17       		.uleb128 0x17
 7839 2262 55220000 		.4byte	0x2255
 7840 2266 09       		.uleb128 0x9
 7841 2267 14070000 		.4byte	.LASF465
 7842 226b 29       		.byte	0x29
 7843 226c 9301     		.2byte	0x193
 7844 226e 72220000 		.4byte	0x2272
 7845 2272 1B       		.uleb128 0x1b
 7846 2273 14070000 		.4byte	.LASF465
 7847 2277 38       		.byte	0x38
 7848 2278 29       		.byte	0x29
 7849 2279 9801     		.2byte	0x198
 7850 227b 0F230000 		.4byte	0x230f
 7851 227f 19       		.uleb128 0x19
 7852 2280 B61C0000 		.4byte	.LASF156
 7853 2284 29       		.byte	0x29
 7854 2285 9C01     		.2byte	0x19c
 7855 2287 A7210000 		.4byte	0x21a7
 7856 228b 00       		.byte	0
 7857 228c 19       		.uleb128 0x19
 7858 228d EA240000 		.4byte	.LASF435
 7859 2291 29       		.byte	0x29
 7860 2292 A001     		.2byte	0x1a0
 7861 2294 0F230000 		.4byte	0x230f
 7862 2298 04       		.byte	0x4
 7863 2299 19       		.uleb128 0x19
 7864 229a 3F020000 		.4byte	.LASF466
 7865 229e 29       		.byte	0x29
 7866 229f A401     		.2byte	0x1a4
 7867 22a1 BE210000 		.4byte	0x21be
 7868 22a5 08       		.byte	0x8
 7869 22a6 19       		.uleb128 0x19
 7870 22a7 2F110000 		.4byte	.LASF467
 7871 22ab 29       		.byte	0x29
 7872 22ac A901     		.2byte	0x1a9
 7873 22ae BE180000 		.4byte	0x18be
 7874 22b2 0C       		.byte	0xc
 7875 22b3 19       		.uleb128 0x19
 7876 22b4 7F0A0000 		.4byte	.LASF468
 7877 22b8 29       		.byte	0x29
 7878 22b9 B201     		.2byte	0x1b2
 7879 22bb D60A0000 		.4byte	0xad6
 7880 22bf 1C       		.byte	0x1c
 7881 22c0 19       		.uleb128 0x19
 7882 22c1 8A120000 		.4byte	.LASF469
 7883 22c5 29       		.byte	0x29
 7884 22c6 B601     		.2byte	0x1b6
 7885 22c8 B2210000 		.4byte	0x21b2
 7886 22cc 20       		.byte	0x20
 7887 22cd 19       		.uleb128 0x19
 7888 22ce AE0B0000 		.4byte	.LASF470
 7889 22d2 29       		.byte	0x29
 7890 22d3 BA01     		.2byte	0x1ba
ARM GAS  C:\Users\RAKIBU~1\AppData\Local\Temp\ccQ3AEax.s 			page 141


 7891 22d5 0B090000 		.4byte	0x90b
 7892 22d9 24       		.byte	0x24
 7893 22da 19       		.uleb128 0x19
 7894 22db 4F180000 		.4byte	.LASF471
 7895 22df 29       		.byte	0x29
 7896 22e0 BE01     		.2byte	0x1be
 7897 22e2 0B090000 		.4byte	0x90b
 7898 22e6 28       		.byte	0x28
 7899 22e7 19       		.uleb128 0x19
 7900 22e8 A4010000 		.4byte	.LASF472
 7901 22ec 29       		.byte	0x29
 7902 22ed C201     		.2byte	0x1c2
 7903 22ef 15230000 		.4byte	0x2315
 7904 22f3 2C       		.byte	0x2c
 7905 22f4 19       		.uleb128 0x19
 7906 22f5 0A030000 		.4byte	.LASF473
 7907 22f9 29       		.byte	0x29
 7908 22fa C601     		.2byte	0x1c6
 7909 22fc 15230000 		.4byte	0x2315
 7910 2300 30       		.byte	0x30
 7911 2301 21       		.uleb128 0x21
 7912 2302 69326300 		.ascii	"i2c\000"
 7913 2306 29       		.byte	0x29
 7914 2307 CA01     		.2byte	0x1ca
 7915 2309 1B230000 		.4byte	0x231b
 7916 230d 34       		.byte	0x34
 7917 230e 00       		.byte	0
 7918 230f 07       		.uleb128 0x7
 7919 2310 04       		.byte	0x4
 7920 2311 61220000 		.4byte	0x2261
 7921 2315 07       		.uleb128 0x7
 7922 2316 04       		.byte	0x4
 7923 2317 901B0000 		.4byte	0x1b90
 7924 231b 07       		.uleb128 0x7
 7925 231c 04       		.byte	0x4
 7926 231d A50E0000 		.4byte	0xea5
 7927 2321 20       		.uleb128 0x20
 7928 2322 F7160000 		.4byte	.LASF474
 7929 2326 29       		.byte	0x29
 7930 2327 E001     		.2byte	0x1e0
 7931 2329 66220000 		.4byte	0x2266
 7932 232d 23       		.uleb128 0x23
 7933 232e 1B290000 		.4byte	.LASF475
 7934 2332 2A       		.byte	0x2a
 7935 2333 9A       		.byte	0x9a
 7936 2334 62000000 		.4byte	0x62
 7937 2338 23       		.uleb128 0x23
 7938 2339 5D080000 		.4byte	.LASF476
 7939 233d 2A       		.byte	0x2a
 7940 233e 9B       		.byte	0x9b
 7941 233f 94000000 		.4byte	0x94
 7942 2343 0C       		.uleb128 0xc
 7943 2344 A1050000 		.4byte	0x5a1
 7944 2348 53230000 		.4byte	0x2353
 7945 234c 0D       		.uleb128 0xd
 7946 234d 9B000000 		.4byte	0x9b
 7947 2351 01       		.byte	0x1
ARM GAS  C:\Users\RAKIBU~1\AppData\Local\Temp\ccQ3AEax.s 			page 142


 7948 2352 00       		.byte	0
 7949 2353 23       		.uleb128 0x23
 7950 2354 47160000 		.4byte	.LASF477
 7951 2358 2A       		.byte	0x2a
 7952 2359 9E       		.byte	0x9e
 7953 235a 43230000 		.4byte	0x2343
 7954 235e 03       		.uleb128 0x3
 7955 235f 2E220000 		.4byte	.LASF478
 7956 2363 2B       		.byte	0x2b
 7957 2364 58       		.byte	0x58
 7958 2365 69230000 		.4byte	0x2369
 7959 2369 10       		.uleb128 0x10
 7960 236a 2E220000 		.4byte	.LASF478
 7961 236e 0C       		.byte	0xc
 7962 236f 2B       		.byte	0x2b
 7963 2370 91       		.byte	0x91
 7964 2371 9A230000 		.4byte	0x239a
 7965 2375 11       		.uleb128 0x11
 7966 2376 766D7400 		.ascii	"vmt\000"
 7967 237a 2B       		.byte	0x2b
 7968 237b 96       		.byte	0x96
 7969 237c 4C240000 		.4byte	0x244c
 7970 2380 00       		.byte	0
 7971 2381 11       		.uleb128 0x11
 7972 2382 72746300 		.ascii	"rtc\000"
 7973 2386 2B       		.byte	0x2b
 7974 2387 9C       		.byte	0x9c
 7975 2388 52240000 		.4byte	0x2452
 7976 238c 04       		.byte	0x4
 7977 238d 0F       		.uleb128 0xf
 7978 238e 191D0000 		.4byte	.LASF440
 7979 2392 2B       		.byte	0x2b
 7980 2393 9C       		.byte	0x9c
 7981 2394 E3230000 		.4byte	0x23e3
 7982 2398 08       		.byte	0x8
 7983 2399 00       		.byte	0
 7984 239a 29       		.uleb128 0x29
 7985 239b 07       		.byte	0x7
 7986 239c 01       		.byte	0x1
 7987 239d 37000000 		.4byte	0x37
 7988 23a1 2C       		.byte	0x2c
 7989 23a2 A3       		.byte	0xa3
 7990 23a3 D8230000 		.4byte	0x23d8
 7991 23a7 2A       		.uleb128 0x2a
 7992 23a8 5D050000 		.4byte	.LASF479
 7993 23ac 00       		.byte	0
 7994 23ad 2A       		.uleb128 0x2a
 7995 23ae 341E0000 		.4byte	.LASF480
 7996 23b2 01       		.byte	0x1
 7997 23b3 2A       		.uleb128 0x2a
 7998 23b4 9D280000 		.4byte	.LASF481
 7999 23b8 02       		.byte	0x2
 8000 23b9 2A       		.uleb128 0x2a
 8001 23ba 780C0000 		.4byte	.LASF482
 8002 23be 03       		.byte	0x3
 8003 23bf 2A       		.uleb128 0x2a
 8004 23c0 F6030000 		.4byte	.LASF483
ARM GAS  C:\Users\RAKIBU~1\AppData\Local\Temp\ccQ3AEax.s 			page 143


 8005 23c4 04       		.byte	0x4
 8006 23c5 2A       		.uleb128 0x2a
 8007 23c6 06040000 		.4byte	.LASF484
 8008 23ca 05       		.byte	0x5
 8009 23cb 2A       		.uleb128 0x2a
 8010 23cc 16040000 		.4byte	.LASF485
 8011 23d0 06       		.byte	0x6
 8012 23d1 2A       		.uleb128 0x2a
 8013 23d2 22120000 		.4byte	.LASF486
 8014 23d6 07       		.byte	0x7
 8015 23d7 00       		.byte	0
 8016 23d8 03       		.uleb128 0x3
 8017 23d9 A4040000 		.4byte	.LASF487
 8018 23dd 2C       		.byte	0x2c
 8019 23de AC       		.byte	0xac
 8020 23df 9A230000 		.4byte	0x239a
 8021 23e3 03       		.uleb128 0x3
 8022 23e4 BA0E0000 		.4byte	.LASF488
 8023 23e8 2C       		.byte	0x2c
 8024 23e9 B1       		.byte	0xb1
 8025 23ea EE230000 		.4byte	0x23ee
 8026 23ee 07       		.uleb128 0x7
 8027 23ef 04       		.byte	0x4
 8028 23f0 F4230000 		.4byte	0x23f4
 8029 23f4 1F       		.uleb128 0x1f
 8030 23f5 04240000 		.4byte	0x2404
 8031 23f9 16       		.uleb128 0x16
 8032 23fa 04240000 		.4byte	0x2404
 8033 23fe 16       		.uleb128 0x16
 8034 23ff D8230000 		.4byte	0x23d8
 8035 2403 00       		.byte	0
 8036 2404 07       		.uleb128 0x7
 8037 2405 04       		.byte	0x4
 8038 2406 5E230000 		.4byte	0x235e
 8039 240a 10       		.uleb128 0x10
 8040 240b 4D140000 		.4byte	.LASF489
 8041 240f 10       		.byte	0x10
 8042 2410 2B       		.byte	0x2b
 8043 2411 89       		.byte	0x89
 8044 2412 47240000 		.4byte	0x2447
 8045 2416 0F       		.uleb128 0xf
 8046 2417 46020000 		.4byte	.LASF490
 8047 241b 2B       		.byte	0x2b
 8048 241c 8A       		.byte	0x8a
 8049 241d A2000000 		.4byte	0xa2
 8050 2421 00       		.byte	0
 8051 2422 0F       		.uleb128 0xf
 8052 2423 AE060000 		.4byte	.LASF491
 8053 2427 2B       		.byte	0x2b
 8054 2428 8A       		.byte	0x8a
 8055 2429 221E0000 		.4byte	0x1e22
 8056 242d 04       		.byte	0x4
 8057 242e 0F       		.uleb128 0xf
 8058 242f 37070000 		.4byte	.LASF492
 8059 2433 2B       		.byte	0x2b
 8060 2434 8A       		.byte	0x8a
 8061 2435 461E0000 		.4byte	0x1e46
ARM GAS  C:\Users\RAKIBU~1\AppData\Local\Temp\ccQ3AEax.s 			page 144


 8062 2439 08       		.byte	0x8
 8063 243a 0F       		.uleb128 0xf
 8064 243b C31F0000 		.4byte	.LASF493
 8065 243f 2B       		.byte	0x2b
 8066 2440 8A       		.byte	0x8a
 8067 2441 6A1E0000 		.4byte	0x1e6a
 8068 2445 0C       		.byte	0xc
 8069 2446 00       		.byte	0
 8070 2447 17       		.uleb128 0x17
 8071 2448 0A240000 		.4byte	0x240a
 8072 244c 07       		.uleb128 0x7
 8073 244d 04       		.byte	0x4
 8074 244e 47240000 		.4byte	0x2447
 8075 2452 07       		.uleb128 0x7
 8076 2453 04       		.byte	0x4
 8077 2454 C0100000 		.4byte	0x10c0
 8078 2458 23       		.uleb128 0x23
 8079 2459 60210000 		.4byte	.LASF494
 8080 245d 2B       		.byte	0x2b
 8081 245e A8       		.byte	0xa8
 8082 245f 5E230000 		.4byte	0x235e
 8083 2463 23       		.uleb128 0x23
 8084 2464 03290000 		.4byte	.LASF495
 8085 2468 2B       		.byte	0x2b
 8086 2469 AA       		.byte	0xaa
 8087 246a 0A240000 		.4byte	0x240a
 8088 246e 29       		.uleb128 0x29
 8089 246f 07       		.byte	0x7
 8090 2470 01       		.byte	0x1
 8091 2471 37000000 		.4byte	0x37
 8092 2475 2D       		.byte	0x2d
 8093 2476 58       		.byte	0x58
 8094 2477 8E240000 		.4byte	0x248e
 8095 247b 2A       		.uleb128 0x2a
 8096 247c 94090000 		.4byte	.LASF496
 8097 2480 00       		.byte	0
 8098 2481 2A       		.uleb128 0x2a
 8099 2482 AC110000 		.4byte	.LASF497
 8100 2486 01       		.byte	0x1
 8101 2487 2A       		.uleb128 0x2a
 8102 2488 93320000 		.4byte	.LASF498
 8103 248c 02       		.byte	0x2
 8104 248d 00       		.byte	0
 8105 248e 03       		.uleb128 0x3
 8106 248f BC0D0000 		.4byte	.LASF499
 8107 2493 2D       		.byte	0x2d
 8108 2494 5C       		.byte	0x5c
 8109 2495 6E240000 		.4byte	0x246e
 8110 2499 03       		.uleb128 0x3
 8111 249a 29010000 		.4byte	.LASF500
 8112 249e 2D       		.byte	0x2d
 8113 249f 61       		.byte	0x61
 8114 24a0 A4240000 		.4byte	0x24a4
 8115 24a4 12       		.uleb128 0x12
 8116 24a5 29010000 		.4byte	.LASF500
 8117 24a9 5C02     		.2byte	0x25c
 8118 24ab 2D       		.byte	0x2d
ARM GAS  C:\Users\RAKIBU~1\AppData\Local\Temp\ccQ3AEax.s 			page 145


 8119 24ac 7B       		.byte	0x7b
 8120 24ad 1F250000 		.4byte	0x251f
 8121 24b1 11       		.uleb128 0x11
 8122 24b2 766D7400 		.ascii	"vmt\000"
 8123 24b6 2D       		.byte	0x2d
 8124 24b7 7D       		.byte	0x7d
 8125 24b8 CD250000 		.4byte	0x25cd
 8126 24bc 00       		.byte	0
 8127 24bd 0F       		.uleb128 0xf
 8128 24be 31000000 		.4byte	.LASF501
 8129 24c2 2D       		.byte	0x2d
 8130 24c3 7E       		.byte	0x7e
 8131 24c4 42190000 		.4byte	0x1942
 8132 24c8 04       		.byte	0x4
 8133 24c9 0F       		.uleb128 0xf
 8134 24ca B61C0000 		.4byte	.LASF156
 8135 24ce 2D       		.byte	0x2d
 8136 24cf 7E       		.byte	0x7e
 8137 24d0 8E240000 		.4byte	0x248e
 8138 24d4 08       		.byte	0x8
 8139 24d5 0F       		.uleb128 0xf
 8140 24d6 E41F0000 		.4byte	.LASF502
 8141 24da 2D       		.byte	0x2d
 8142 24db 7E       		.byte	0x7e
 8143 24dc 0A1F0000 		.4byte	0x1f0a
 8144 24e0 0C       		.byte	0xc
 8145 24e1 0F       		.uleb128 0xf
 8146 24e2 2A150000 		.4byte	.LASF503
 8147 24e6 2D       		.byte	0x2d
 8148 24e7 7E       		.byte	0x7e
 8149 24e8 151F0000 		.4byte	0x1f15
 8150 24ec 30       		.byte	0x30
 8151 24ed 11       		.uleb128 0x11
 8152 24ee 696200   		.ascii	"ib\000"
 8153 24f1 2D       		.byte	0x2d
 8154 24f2 7E       		.byte	0x7e
 8155 24f3 D3250000 		.4byte	0x25d3
 8156 24f7 54       		.byte	0x54
 8157 24f8 2C       		.uleb128 0x2c
 8158 24f9 6F6200   		.ascii	"ob\000"
 8159 24fc 2D       		.byte	0x2d
 8160 24fd 7E       		.byte	0x7e
 8161 24fe D3250000 		.4byte	0x25d3
 8162 2502 5401     		.2byte	0x154
 8163 2504 13       		.uleb128 0x13
 8164 2505 91220000 		.4byte	.LASF504
 8165 2509 2D       		.byte	0x2d
 8166 250a 7E       		.byte	0x7e
 8167 250b E3250000 		.4byte	0x25e3
 8168 250f 5402     		.2byte	0x254
 8169 2511 13       		.uleb128 0x13
 8170 2512 41240000 		.4byte	.LASF505
 8171 2516 2D       		.byte	0x2d
 8172 2517 7E       		.byte	0x7e
 8173 2518 E0080000 		.4byte	0x8e0
 8174 251c 5802     		.2byte	0x258
 8175 251e 00       		.byte	0
ARM GAS  C:\Users\RAKIBU~1\AppData\Local\Temp\ccQ3AEax.s 			page 146


 8176 251f 27       		.uleb128 0x27
 8177 2520 53443200 		.ascii	"SD2\000"
 8178 2524 2E       		.byte	0x2e
 8179 2525 4701     		.2byte	0x147
 8180 2527 99240000 		.4byte	0x2499
 8181 252b 27       		.uleb128 0x27
 8182 252c 53443300 		.ascii	"SD3\000"
 8183 2530 2E       		.byte	0x2e
 8184 2531 4A01     		.2byte	0x14a
 8185 2533 99240000 		.4byte	0x2499
 8186 2537 27       		.uleb128 0x27
 8187 2538 53443600 		.ascii	"SD6\000"
 8188 253c 2E       		.byte	0x2e
 8189 253d 5301     		.2byte	0x153
 8190 253f 99240000 		.4byte	0x2499
 8191 2543 10       		.uleb128 0x10
 8192 2544 2E130000 		.4byte	.LASF506
 8193 2548 28       		.byte	0x28
 8194 2549 2D       		.byte	0x2d
 8195 254a 70       		.byte	0x70
 8196 254b C8250000 		.4byte	0x25c8
 8197 254f 0F       		.uleb128 0xf
 8198 2550 46020000 		.4byte	.LASF490
 8199 2554 2D       		.byte	0x2d
 8200 2555 71       		.byte	0x71
 8201 2556 A2000000 		.4byte	0xa2
 8202 255a 00       		.byte	0
 8203 255b 0F       		.uleb128 0xf
 8204 255c C31F0000 		.4byte	.LASF493
 8205 2560 2D       		.byte	0x2d
 8206 2561 71       		.byte	0x71
 8207 2562 D51B0000 		.4byte	0x1bd5
 8208 2566 04       		.byte	0x4
 8209 2567 0F       		.uleb128 0xf
 8210 2568 37070000 		.4byte	.LASF492
 8211 256c 2D       		.byte	0x2d
 8212 256d 71       		.byte	0x71
 8213 256e F41B0000 		.4byte	0x1bf4
 8214 2572 08       		.byte	0x8
 8215 2573 11       		.uleb128 0x11
 8216 2574 70757400 		.ascii	"put\000"
 8217 2578 2D       		.byte	0x2d
 8218 2579 71       		.byte	0x71
 8219 257a 0E1C0000 		.4byte	0x1c0e
 8220 257e 0C       		.byte	0xc
 8221 257f 11       		.uleb128 0x11
 8222 2580 67657400 		.ascii	"get\000"
 8223 2584 2D       		.byte	0x2d
 8224 2585 71       		.byte	0x71
 8225 2586 231C0000 		.4byte	0x1c23
 8226 258a 10       		.byte	0x10
 8227 258b 0F       		.uleb128 0xf
 8228 258c 861A0000 		.4byte	.LASF507
 8229 2590 2D       		.byte	0x2d
 8230 2591 71       		.byte	0x71
 8231 2592 421C0000 		.4byte	0x1c42
 8232 2596 14       		.byte	0x14
ARM GAS  C:\Users\RAKIBU~1\AppData\Local\Temp\ccQ3AEax.s 			page 147


 8233 2597 0F       		.uleb128 0xf
 8234 2598 831F0000 		.4byte	.LASF508
 8235 259c 2D       		.byte	0x2d
 8236 259d 71       		.byte	0x71
 8237 259e 5C1C0000 		.4byte	0x1c5c
 8238 25a2 18       		.byte	0x18
 8239 25a3 0F       		.uleb128 0xf
 8240 25a4 C22C0000 		.4byte	.LASF509
 8241 25a8 2D       		.byte	0x2d
 8242 25a9 71       		.byte	0x71
 8243 25aa 801C0000 		.4byte	0x1c80
 8244 25ae 1C       		.byte	0x1c
 8245 25af 0F       		.uleb128 0xf
 8246 25b0 6D190000 		.4byte	.LASF510
 8247 25b4 2D       		.byte	0x2d
 8248 25b5 71       		.byte	0x71
 8249 25b6 A41C0000 		.4byte	0x1ca4
 8250 25ba 20       		.byte	0x20
 8251 25bb 11       		.uleb128 0x11
 8252 25bc 63746C00 		.ascii	"ctl\000"
 8253 25c0 2D       		.byte	0x2d
 8254 25c1 71       		.byte	0x71
 8255 25c2 C31C0000 		.4byte	0x1cc3
 8256 25c6 24       		.byte	0x24
 8257 25c7 00       		.byte	0
 8258 25c8 17       		.uleb128 0x17
 8259 25c9 43250000 		.4byte	0x2543
 8260 25cd 07       		.uleb128 0x7
 8261 25ce 04       		.byte	0x4
 8262 25cf C8250000 		.4byte	0x25c8
 8263 25d3 0C       		.uleb128 0xc
 8264 25d4 E0080000 		.4byte	0x8e0
 8265 25d8 E3250000 		.4byte	0x25e3
 8266 25dc 0D       		.uleb128 0xd
 8267 25dd 9B000000 		.4byte	0x9b
 8268 25e1 FF       		.byte	0xff
 8269 25e2 00       		.byte	0
 8270 25e3 07       		.uleb128 0x7
 8271 25e4 04       		.byte	0x4
 8272 25e5 E2120000 		.4byte	0x12e2
 8273 25e9 29       		.uleb128 0x29
 8274 25ea 07       		.byte	0x7
 8275 25eb 01       		.byte	0x1
 8276 25ec 37000000 		.4byte	0x37
 8277 25f0 2F       		.byte	0x2f
 8278 25f1 7A       		.byte	0x7a
 8279 25f2 09260000 		.4byte	0x2609
 8280 25f6 2A       		.uleb128 0x2a
 8281 25f7 E5040000 		.4byte	.LASF511
 8282 25fb 00       		.byte	0
 8283 25fc 2A       		.uleb128 0x2a
 8284 25fd F41B0000 		.4byte	.LASF512
 8285 2601 01       		.byte	0x1
 8286 2602 2A       		.uleb128 0x2a
 8287 2603 24180000 		.4byte	.LASF513
 8288 2607 02       		.byte	0x2
 8289 2608 00       		.byte	0
ARM GAS  C:\Users\RAKIBU~1\AppData\Local\Temp\ccQ3AEax.s 			page 148


 8290 2609 03       		.uleb128 0x3
 8291 260a 03240000 		.4byte	.LASF514
 8292 260e 2F       		.byte	0x2f
 8293 260f 7E       		.byte	0x7e
 8294 2610 E9250000 		.4byte	0x25e9
 8295 2614 03       		.uleb128 0x3
 8296 2615 C9220000 		.4byte	.LASF515
 8297 2619 30       		.byte	0x30
 8298 261a DB       		.byte	0xdb
 8299 261b 0B090000 		.4byte	0x90b
 8300 261f 03       		.uleb128 0x3
 8301 2620 E5000000 		.4byte	.LASF516
 8302 2624 30       		.byte	0x30
 8303 2625 E0       		.byte	0xe0
 8304 2626 0B090000 		.4byte	0x90b
 8305 262a 03       		.uleb128 0x3
 8306 262b 242B0000 		.4byte	.LASF517
 8307 262f 30       		.byte	0x30
 8308 2630 E5       		.byte	0xe5
 8309 2631 35260000 		.4byte	0x2635
 8310 2635 1B       		.uleb128 0x1b
 8311 2636 242B0000 		.4byte	.LASF517
 8312 263a 4C       		.byte	0x4c
 8313 263b 30       		.byte	0x30
 8314 263c 0E01     		.2byte	0x10e
 8315 263e EC260000 		.4byte	0x26ec
 8316 2642 21       		.uleb128 0x21
 8317 2643 766D7400 		.ascii	"vmt\000"
 8318 2647 30       		.byte	0x30
 8319 2648 1201     		.2byte	0x112
 8320 264a A5270000 		.4byte	0x27a5
 8321 264e 00       		.byte	0
 8322 264f 19       		.uleb128 0x19
 8323 2650 B61C0000 		.4byte	.LASF156
 8324 2654 30       		.byte	0x30
 8325 2655 1301     		.2byte	0x113
 8326 2657 0D1D0000 		.4byte	0x1d0d
 8327 265b 04       		.byte	0x4
 8328 265c 21       		.uleb128 0x21
 8329 265d 63696400 		.ascii	"cid\000"
 8330 2661 30       		.byte	0x30
 8331 2662 1301     		.2byte	0x113
 8332 2664 C11D0000 		.4byte	0x1dc1
 8333 2668 08       		.byte	0x8
 8334 2669 21       		.uleb128 0x21
 8335 266a 63736400 		.ascii	"csd\000"
 8336 266e 30       		.byte	0x30
 8337 266f 1301     		.2byte	0x113
 8338 2671 C11D0000 		.4byte	0x1dc1
 8339 2675 18       		.byte	0x18
 8340 2676 19       		.uleb128 0x19
 8341 2677 CD250000 		.4byte	.LASF518
 8342 267b 30       		.byte	0x30
 8343 267c 1301     		.2byte	0x113
 8344 267e 0B090000 		.4byte	0x90b
 8345 2682 28       		.byte	0x28
 8346 2683 19       		.uleb128 0x19
ARM GAS  C:\Users\RAKIBU~1\AppData\Local\Temp\ccQ3AEax.s 			page 149


 8347 2684 EA240000 		.4byte	.LASF435
 8348 2688 30       		.byte	0x30
 8349 2689 1701     		.2byte	0x117
 8350 268b AB270000 		.4byte	0x27ab
 8351 268f 2C       		.byte	0x2c
 8352 2690 19       		.uleb128 0x19
 8353 2691 7E1B0000 		.4byte	.LASF519
 8354 2695 30       		.byte	0x30
 8355 2696 1B01     		.2byte	0x11b
 8356 2698 14260000 		.4byte	0x2614
 8357 269c 30       		.byte	0x30
 8358 269d 19       		.uleb128 0x19
 8359 269e 3F020000 		.4byte	.LASF466
 8360 26a2 30       		.byte	0x30
 8361 26a3 1F01     		.2byte	0x11f
 8362 26a5 1F260000 		.4byte	0x261f
 8363 26a9 34       		.byte	0x34
 8364 26aa 21       		.uleb128 0x21
 8365 26ab 72636100 		.ascii	"rca\000"
 8366 26af 30       		.byte	0x30
 8367 26b0 2301     		.2byte	0x123
 8368 26b2 0B090000 		.4byte	0x90b
 8369 26b6 38       		.byte	0x38
 8370 26b7 19       		.uleb128 0x19
 8371 26b8 7F0A0000 		.4byte	.LASF468
 8372 26bc 30       		.byte	0x30
 8373 26bd 2801     		.2byte	0x128
 8374 26bf D60A0000 		.4byte	0xad6
 8375 26c3 3C       		.byte	0x3c
 8376 26c4 19       		.uleb128 0x19
 8377 26c5 5F1F0000 		.4byte	.LASF520
 8378 26c9 30       		.byte	0x30
 8379 26ca 2C01     		.2byte	0x12c
 8380 26cc 0B090000 		.4byte	0x90b
 8381 26d0 40       		.byte	0x40
 8382 26d1 21       		.uleb128 0x21
 8383 26d2 646D6100 		.ascii	"dma\000"
 8384 26d6 30       		.byte	0x30
 8385 26d7 3001     		.2byte	0x130
 8386 26d9 15230000 		.4byte	0x2315
 8387 26dd 44       		.byte	0x44
 8388 26de 19       		.uleb128 0x19
 8389 26df 380B0000 		.4byte	.LASF521
 8390 26e3 30       		.byte	0x30
 8391 26e4 3501     		.2byte	0x135
 8392 26e6 B1270000 		.4byte	0x27b1
 8393 26ea 48       		.byte	0x48
 8394 26eb 00       		.byte	0
 8395 26ec 0E       		.uleb128 0xe
 8396 26ed 08       		.byte	0x8
 8397 26ee 30       		.byte	0x30
 8398 26ef EB       		.byte	0xeb
 8399 26f0 0D270000 		.4byte	0x270d
 8400 26f4 0F       		.uleb128 0xf
 8401 26f5 33120000 		.4byte	.LASF522
 8402 26f9 30       		.byte	0x30
 8403 26fa F4       		.byte	0xf4
ARM GAS  C:\Users\RAKIBU~1\AppData\Local\Temp\ccQ3AEax.s 			page 150


 8404 26fb 9A190000 		.4byte	0x199a
 8405 26ff 00       		.byte	0
 8406 2700 0F       		.uleb128 0xf
 8407 2701 CB2E0000 		.4byte	.LASF523
 8408 2705 30       		.byte	0x30
 8409 2706 F8       		.byte	0xf8
 8410 2707 09260000 		.4byte	0x2609
 8411 270b 04       		.byte	0x4
 8412 270c 00       		.byte	0
 8413 270d 03       		.uleb128 0x3
 8414 270e D0160000 		.4byte	.LASF524
 8415 2712 30       		.byte	0x30
 8416 2713 FA       		.byte	0xfa
 8417 2714 EC260000 		.4byte	0x26ec
 8418 2718 17       		.uleb128 0x17
 8419 2719 0D270000 		.4byte	0x270d
 8420 271d 1B       		.uleb128 0x1b
 8421 271e 002F0000 		.4byte	.LASF525
 8422 2722 24       		.byte	0x24
 8423 2723 30       		.byte	0x30
 8424 2724 0701     		.2byte	0x107
 8425 2726 A0270000 		.4byte	0x27a0
 8426 272a 19       		.uleb128 0x19
 8427 272b 46020000 		.4byte	.LASF490
 8428 272f 30       		.byte	0x30
 8429 2730 0801     		.2byte	0x108
 8430 2732 A2000000 		.4byte	0xa2
 8431 2736 00       		.byte	0
 8432 2737 19       		.uleb128 0x19
 8433 2738 66320000 		.4byte	.LASF526
 8434 273c 30       		.byte	0x30
 8435 273d 0801     		.2byte	0x108
 8436 273f 531D0000 		.4byte	0x1d53
 8437 2743 04       		.byte	0x4
 8438 2744 19       		.uleb128 0x19
 8439 2745 89100000 		.4byte	.LASF527
 8440 2749 30       		.byte	0x30
 8441 274a 0801     		.2byte	0x108
 8442 274c 531D0000 		.4byte	0x1d53
 8443 2750 08       		.byte	0x8
 8444 2751 19       		.uleb128 0x19
 8445 2752 65130000 		.4byte	.LASF528
 8446 2756 30       		.byte	0x30
 8447 2757 0801     		.2byte	0x108
 8448 2759 531D0000 		.4byte	0x1d53
 8449 275d 0C       		.byte	0xc
 8450 275e 19       		.uleb128 0x19
 8451 275f 211A0000 		.4byte	.LASF529
 8452 2763 30       		.byte	0x30
 8453 2764 0801     		.2byte	0x108
 8454 2766 531D0000 		.4byte	0x1d53
 8455 276a 10       		.byte	0x10
 8456 276b 19       		.uleb128 0x19
 8457 276c 37070000 		.4byte	.LASF492
 8458 2770 30       		.byte	0x30
 8459 2771 0801     		.2byte	0x108
 8460 2773 771D0000 		.4byte	0x1d77
ARM GAS  C:\Users\RAKIBU~1\AppData\Local\Temp\ccQ3AEax.s 			page 151


 8461 2777 14       		.byte	0x14
 8462 2778 19       		.uleb128 0x19
 8463 2779 C31F0000 		.4byte	.LASF493
 8464 277d 30       		.byte	0x30
 8465 277e 0801     		.2byte	0x108
 8466 2780 9B1D0000 		.4byte	0x1d9b
 8467 2784 18       		.byte	0x18
 8468 2785 19       		.uleb128 0x19
 8469 2786 8C220000 		.4byte	.LASF530
 8470 278a 30       		.byte	0x30
 8471 278b 0801     		.2byte	0x108
 8472 278d 531D0000 		.4byte	0x1d53
 8473 2791 1C       		.byte	0x1c
 8474 2792 19       		.uleb128 0x19
 8475 2793 D42D0000 		.4byte	.LASF531
 8476 2797 30       		.byte	0x30
 8477 2798 0801     		.2byte	0x108
 8478 279a BB1D0000 		.4byte	0x1dbb
 8479 279e 20       		.byte	0x20
 8480 279f 00       		.byte	0
 8481 27a0 17       		.uleb128 0x17
 8482 27a1 1D270000 		.4byte	0x271d
 8483 27a5 07       		.uleb128 0x7
 8484 27a6 04       		.byte	0x4
 8485 27a7 A0270000 		.4byte	0x27a0
 8486 27ab 07       		.uleb128 0x7
 8487 27ac 04       		.byte	0x4
 8488 27ad 18270000 		.4byte	0x2718
 8489 27b1 07       		.uleb128 0x7
 8490 27b2 04       		.byte	0x4
 8491 27b3 EA110000 		.4byte	0x11ea
 8492 27b7 20       		.uleb128 0x20
 8493 27b8 0B220000 		.4byte	.LASF532
 8494 27bc 30       		.byte	0x30
 8495 27bd 4101     		.2byte	0x141
 8496 27bf 2A260000 		.4byte	0x262a
 8497 27c3 29       		.uleb128 0x29
 8498 27c4 07       		.byte	0x7
 8499 27c5 01       		.byte	0x1
 8500 27c6 37000000 		.4byte	0x37
 8501 27ca 31       		.byte	0x31
 8502 27cb 74       		.byte	0x74
 8503 27cc EF270000 		.4byte	0x27ef
 8504 27d0 2A       		.uleb128 0x2a
 8505 27d1 860A0000 		.4byte	.LASF533
 8506 27d5 00       		.byte	0
 8507 27d6 2A       		.uleb128 0x2a
 8508 27d7 4A040000 		.4byte	.LASF534
 8509 27db 01       		.byte	0x1
 8510 27dc 2A       		.uleb128 0x2a
 8511 27dd 542E0000 		.4byte	.LASF535
 8512 27e1 02       		.byte	0x2
 8513 27e2 2A       		.uleb128 0x2a
 8514 27e3 AE160000 		.4byte	.LASF536
 8515 27e7 03       		.byte	0x3
 8516 27e8 2A       		.uleb128 0x2a
 8517 27e9 B3190000 		.4byte	.LASF537
ARM GAS  C:\Users\RAKIBU~1\AppData\Local\Temp\ccQ3AEax.s 			page 152


 8518 27ed 04       		.byte	0x4
 8519 27ee 00       		.byte	0
 8520 27ef 03       		.uleb128 0x3
 8521 27f0 D3040000 		.4byte	.LASF538
 8522 27f4 31       		.byte	0x31
 8523 27f5 7A       		.byte	0x7a
 8524 27f6 C3270000 		.4byte	0x27c3
 8525 27fa 03       		.uleb128 0x3
 8526 27fb 792C0000 		.4byte	.LASF539
 8527 27ff 31       		.byte	0x31
 8528 2800 7F       		.byte	0x7f
 8529 2801 05280000 		.4byte	0x2805
 8530 2805 10       		.uleb128 0x10
 8531 2806 86060000 		.4byte	.LASF540
 8532 280a 30       		.byte	0x30
 8533 280b 31       		.byte	0x31
 8534 280c C0       		.byte	0xc0
 8535 280d 7E280000 		.4byte	0x287e
 8536 2811 0F       		.uleb128 0xf
 8537 2812 B61C0000 		.4byte	.LASF156
 8538 2816 31       		.byte	0x31
 8539 2817 C4       		.byte	0xc4
 8540 2818 EF270000 		.4byte	0x27ef
 8541 281c 00       		.byte	0
 8542 281d 0F       		.uleb128 0xf
 8543 281e EA240000 		.4byte	.LASF435
 8544 2822 31       		.byte	0x31
 8545 2823 C8       		.byte	0xc8
 8546 2824 1D290000 		.4byte	0x291d
 8547 2828 04       		.byte	0x4
 8548 2829 0F       		.uleb128 0xf
 8549 282a 7F0A0000 		.4byte	.LASF468
 8550 282e 31       		.byte	0x31
 8551 282f CD       		.byte	0xcd
 8552 2830 D60A0000 		.4byte	0xad6
 8553 2834 08       		.byte	0x8
 8554 2835 0F       		.uleb128 0xf
 8555 2836 2F110000 		.4byte	.LASF467
 8556 283a 31       		.byte	0x31
 8557 283b D3       		.byte	0xd3
 8558 283c BE180000 		.4byte	0x18be
 8559 2840 0C       		.byte	0xc
 8560 2841 11       		.uleb128 0x11
 8561 2842 73706900 		.ascii	"spi\000"
 8562 2846 31       		.byte	0x31
 8563 2847 D9       		.byte	0xd9
 8564 2848 23290000 		.4byte	0x2923
 8565 284c 1C       		.byte	0x1c
 8566 284d 0F       		.uleb128 0xf
 8567 284e A4010000 		.4byte	.LASF472
 8568 2852 31       		.byte	0x31
 8569 2853 D9       		.byte	0xd9
 8570 2854 15230000 		.4byte	0x2315
 8571 2858 20       		.byte	0x20
 8572 2859 0F       		.uleb128 0xf
 8573 285a 0A030000 		.4byte	.LASF473
 8574 285e 31       		.byte	0x31
ARM GAS  C:\Users\RAKIBU~1\AppData\Local\Temp\ccQ3AEax.s 			page 153


 8575 285f D9       		.byte	0xd9
 8576 2860 15230000 		.4byte	0x2315
 8577 2864 24       		.byte	0x24
 8578 2865 0F       		.uleb128 0xf
 8579 2866 AE0B0000 		.4byte	.LASF470
 8580 286a 31       		.byte	0x31
 8581 286b D9       		.byte	0xd9
 8582 286c 0B090000 		.4byte	0x90b
 8583 2870 28       		.byte	0x28
 8584 2871 0F       		.uleb128 0xf
 8585 2872 4F180000 		.4byte	.LASF471
 8586 2876 31       		.byte	0x31
 8587 2877 D9       		.byte	0xd9
 8588 2878 0B090000 		.4byte	0x90b
 8589 287c 2C       		.byte	0x2c
 8590 287d 00       		.byte	0
 8591 287e 03       		.uleb128 0x3
 8592 287f D02A0000 		.4byte	.LASF541
 8593 2883 31       		.byte	0x31
 8594 2884 83       		.byte	0x83
 8595 2885 8E280000 		.4byte	0x288e
 8596 2889 17       		.uleb128 0x17
 8597 288a 7E280000 		.4byte	0x287e
 8598 288e 10       		.uleb128 0x10
 8599 288f 47300000 		.4byte	.LASF542
 8600 2893 14       		.byte	0x14
 8601 2894 31       		.byte	0x31
 8602 2895 94       		.byte	0x94
 8603 2896 E3280000 		.4byte	0x28e3
 8604 289a 0F       		.uleb128 0xf
 8605 289b 5C2C0000 		.4byte	.LASF543
 8606 289f 31       		.byte	0x31
 8607 28a0 99       		.byte	0x99
 8608 28a1 4D190000 		.4byte	0x194d
 8609 28a5 00       		.byte	0
 8610 28a6 0F       		.uleb128 0xf
 8611 28a7 890C0000 		.4byte	.LASF544
 8612 28ab 31       		.byte	0x31
 8613 28ac 9E       		.byte	0x9e
 8614 28ad E3280000 		.4byte	0x28e3
 8615 28b1 04       		.byte	0x4
 8616 28b2 0F       		.uleb128 0xf
 8617 28b3 BE2F0000 		.4byte	.LASF545
 8618 28b7 31       		.byte	0x31
 8619 28b8 B3       		.byte	0xb3
 8620 28b9 2F200000 		.4byte	0x202f
 8621 28bd 08       		.byte	0x8
 8622 28be 0F       		.uleb128 0xf
 8623 28bf 0E0C0000 		.4byte	.LASF546
 8624 28c3 31       		.byte	0x31
 8625 28c4 B7       		.byte	0xb7
 8626 28c5 5C090000 		.4byte	0x95c
 8627 28c9 0C       		.byte	0xc
 8628 28ca 11       		.uleb128 0x11
 8629 28cb 63723100 		.ascii	"cr1\000"
 8630 28cf 31       		.byte	0x31
 8631 28d0 BA       		.byte	0xba
ARM GAS  C:\Users\RAKIBU~1\AppData\Local\Temp\ccQ3AEax.s 			page 154


 8632 28d1 F0080000 		.4byte	0x8f0
 8633 28d5 10       		.byte	0x10
 8634 28d6 11       		.uleb128 0x11
 8635 28d7 63723200 		.ascii	"cr2\000"
 8636 28db 31       		.byte	0x31
 8637 28dc BA       		.byte	0xba
 8638 28dd F0080000 		.4byte	0x8f0
 8639 28e1 12       		.byte	0x12
 8640 28e2 00       		.byte	0
 8641 28e3 03       		.uleb128 0x3
 8642 28e4 211C0000 		.4byte	.LASF547
 8643 28e8 31       		.byte	0x31
 8644 28e9 8B       		.byte	0x8b
 8645 28ea EE280000 		.4byte	0x28ee
 8646 28ee 07       		.uleb128 0x7
 8647 28ef 04       		.byte	0x4
 8648 28f0 F4280000 		.4byte	0x28f4
 8649 28f4 1F       		.uleb128 0x1f
 8650 28f5 FF280000 		.4byte	0x28ff
 8651 28f9 16       		.uleb128 0x16
 8652 28fa FF280000 		.4byte	0x28ff
 8653 28fe 00       		.byte	0
 8654 28ff 07       		.uleb128 0x7
 8655 2900 04       		.byte	0x4
 8656 2901 FA270000 		.4byte	0x27fa
 8657 2905 20       		.uleb128 0x20
 8658 2906 A4290000 		.4byte	.LASF548
 8659 290a 32       		.byte	0x32
 8660 290b BD01     		.2byte	0x1bd
 8661 290d FA270000 		.4byte	0x27fa
 8662 2911 20       		.uleb128 0x20
 8663 2912 AA290000 		.4byte	.LASF549
 8664 2916 32       		.byte	0x32
 8665 2917 C101     		.2byte	0x1c1
 8666 2919 FA270000 		.4byte	0x27fa
 8667 291d 07       		.uleb128 0x7
 8668 291e 04       		.byte	0x4
 8669 291f 89280000 		.4byte	0x2889
 8670 2923 07       		.uleb128 0x7
 8671 2924 04       		.byte	0x4
 8672 2925 73120000 		.4byte	0x1273
 8673 2929 1C       		.uleb128 0x1c
 8674 292a 04       		.byte	0x4
 8675 292b 33       		.byte	0x33
 8676 292c F501     		.2byte	0x1f5
 8677 292e 4D290000 		.4byte	0x294d
 8678 2932 19       		.uleb128 0x19
 8679 2933 9A040000 		.4byte	.LASF550
 8680 2937 33       		.byte	0x33
 8681 2938 F601     		.2byte	0x1f6
 8682 293a 2B090000 		.4byte	0x92b
 8683 293e 00       		.byte	0
 8684 293f 19       		.uleb128 0x19
 8685 2940 0C270000 		.4byte	.LASF551
 8686 2944 33       		.byte	0x33
 8687 2945 F901     		.2byte	0x1f9
 8688 2947 4D290000 		.4byte	0x294d
ARM GAS  C:\Users\RAKIBU~1\AppData\Local\Temp\ccQ3AEax.s 			page 155


 8689 294b 01       		.byte	0x1
 8690 294c 00       		.byte	0
 8691 294d 0C       		.uleb128 0xc
 8692 294e 2B090000 		.4byte	0x92b
 8693 2952 5D290000 		.4byte	0x295d
 8694 2956 0D       		.uleb128 0xd
 8695 2957 9B000000 		.4byte	0x9b
 8696 295b 02       		.byte	0x2
 8697 295c 00       		.byte	0
 8698 295d 09       		.uleb128 0x9
 8699 295e 44270000 		.4byte	.LASF552
 8700 2962 33       		.byte	0x33
 8701 2963 FC01     		.2byte	0x1fc
 8702 2965 29290000 		.4byte	0x2929
 8703 2969 1C       		.uleb128 0x1c
 8704 296a 04       		.byte	0x4
 8705 296b 33       		.byte	0x33
 8706 296c 1402     		.2byte	0x214
 8707 296e 8D290000 		.4byte	0x298d
 8708 2972 19       		.uleb128 0x19
 8709 2973 87140000 		.4byte	.LASF553
 8710 2977 33       		.byte	0x33
 8711 2978 1502     		.2byte	0x215
 8712 297a 2B090000 		.4byte	0x92b
 8713 297e 00       		.byte	0
 8714 297f 19       		.uleb128 0x19
 8715 2980 0C270000 		.4byte	.LASF551
 8716 2984 33       		.byte	0x33
 8717 2985 1802     		.2byte	0x218
 8718 2987 4D290000 		.4byte	0x294d
 8719 298b 01       		.byte	0x1
 8720 298c 00       		.byte	0
 8721 298d 09       		.uleb128 0x9
 8722 298e 2C1A0000 		.4byte	.LASF554
 8723 2992 33       		.byte	0x33
 8724 2993 1B02     		.2byte	0x21b
 8725 2995 69290000 		.4byte	0x2969
 8726 2999 1C       		.uleb128 0x1c
 8727 299a 04       		.byte	0x4
 8728 299b 33       		.byte	0x33
 8729 299c 2402     		.2byte	0x224
 8730 299e BD290000 		.4byte	0x29bd
 8731 29a2 19       		.uleb128 0x19
 8732 29a3 8A300000 		.4byte	.LASF555
 8733 29a7 33       		.byte	0x33
 8734 29a8 2502     		.2byte	0x225
 8735 29aa 2B090000 		.4byte	0x92b
 8736 29ae 00       		.byte	0
 8737 29af 19       		.uleb128 0x19
 8738 29b0 0C270000 		.4byte	.LASF551
 8739 29b4 33       		.byte	0x33
 8740 29b5 2802     		.2byte	0x228
 8741 29b7 4D290000 		.4byte	0x294d
 8742 29bb 01       		.byte	0x1
 8743 29bc 00       		.byte	0
 8744 29bd 09       		.uleb128 0x9
 8745 29be 0F2E0000 		.4byte	.LASF556
ARM GAS  C:\Users\RAKIBU~1\AppData\Local\Temp\ccQ3AEax.s 			page 156


 8746 29c2 33       		.byte	0x33
 8747 29c3 2B02     		.2byte	0x22b
 8748 29c5 99290000 		.4byte	0x2999
 8749 29c9 1C       		.uleb128 0x1c
 8750 29ca 04       		.byte	0x4
 8751 29cb 33       		.byte	0x33
 8752 29cc 3402     		.2byte	0x234
 8753 29ce ED290000 		.4byte	0x29ed
 8754 29d2 19       		.uleb128 0x19
 8755 29d3 F1200000 		.4byte	.LASF557
 8756 29d7 33       		.byte	0x33
 8757 29d8 3602     		.2byte	0x236
 8758 29da 3B090000 		.4byte	0x93b
 8759 29de 00       		.byte	0
 8760 29df 19       		.uleb128 0x19
 8761 29e0 63190000 		.4byte	.LASF558
 8762 29e4 33       		.byte	0x33
 8763 29e5 3902     		.2byte	0x239
 8764 29e7 ED290000 		.4byte	0x29ed
 8765 29eb 02       		.byte	0x2
 8766 29ec 00       		.byte	0
 8767 29ed 0C       		.uleb128 0xc
 8768 29ee 2B090000 		.4byte	0x92b
 8769 29f2 FD290000 		.4byte	0x29fd
 8770 29f6 0D       		.uleb128 0xd
 8771 29f7 9B000000 		.4byte	0x9b
 8772 29fb 01       		.byte	0x1
 8773 29fc 00       		.byte	0
 8774 29fd 09       		.uleb128 0x9
 8775 29fe 36010000 		.4byte	.LASF559
 8776 2a02 33       		.byte	0x33
 8777 2a03 3C02     		.2byte	0x23c
 8778 2a05 C9290000 		.4byte	0x29c9
 8779 2a09 2B       		.uleb128 0x2b
 8780 2a0a 07       		.byte	0x7
 8781 2a0b 01       		.byte	0x1
 8782 2a0c 37000000 		.4byte	0x37
 8783 2a10 33       		.byte	0x33
 8784 2a11 4402     		.2byte	0x244
 8785 2a13 482A0000 		.4byte	0x2a48
 8786 2a17 2A       		.uleb128 0x2a
 8787 2a18 A0050000 		.4byte	.LASF560
 8788 2a1c 00       		.byte	0
 8789 2a1d 2A       		.uleb128 0x2a
 8790 2a1e 36210000 		.4byte	.LASF561
 8791 2a22 01       		.byte	0x1
 8792 2a23 2A       		.uleb128 0x2a
 8793 2a24 FB000000 		.4byte	.LASF562
 8794 2a28 02       		.byte	0x2
 8795 2a29 2A       		.uleb128 0x2a
 8796 2a2a 291F0000 		.4byte	.LASF563
 8797 2a2e 03       		.byte	0x3
 8798 2a2f 2A       		.uleb128 0x2a
 8799 2a30 EB170000 		.4byte	.LASF564
 8800 2a34 04       		.byte	0x4
 8801 2a35 2A       		.uleb128 0x2a
 8802 2a36 112A0000 		.4byte	.LASF565
ARM GAS  C:\Users\RAKIBU~1\AppData\Local\Temp\ccQ3AEax.s 			page 157


 8803 2a3a 05       		.byte	0x5
 8804 2a3b 2A       		.uleb128 0x2a
 8805 2a3c 77230000 		.4byte	.LASF566
 8806 2a40 06       		.byte	0x6
 8807 2a41 2A       		.uleb128 0x2a
 8808 2a42 8D190000 		.4byte	.LASF567
 8809 2a46 07       		.byte	0x7
 8810 2a47 00       		.byte	0
 8811 2a48 2B       		.uleb128 0x2b
 8812 2a49 07       		.byte	0x7
 8813 2a4a 01       		.byte	0x1
 8814 2a4b 37000000 		.4byte	0x37
 8815 2a4f 33       		.byte	0x33
 8816 2a50 5502     		.2byte	0x255
 8817 2a52 632A0000 		.4byte	0x2a63
 8818 2a56 2A       		.uleb128 0x2a
 8819 2a57 591E0000 		.4byte	.LASF568
 8820 2a5b 00       		.byte	0
 8821 2a5c 2A       		.uleb128 0x2a
 8822 2a5d 3D280000 		.4byte	.LASF569
 8823 2a61 80       		.byte	0x80
 8824 2a62 00       		.byte	0
 8825 2a63 2B       		.uleb128 0x2b
 8826 2a64 07       		.byte	0x7
 8827 2a65 01       		.byte	0x1
 8828 2a66 37000000 		.4byte	0x37
 8829 2a6a 33       		.byte	0x33
 8830 2a6b 6102     		.2byte	0x261
 8831 2a6d 4A2B0000 		.4byte	0x2b4a
 8832 2a71 2A       		.uleb128 0x2a
 8833 2a72 120A0000 		.4byte	.LASF570
 8834 2a76 01       		.byte	0x1
 8835 2a77 2A       		.uleb128 0x2a
 8836 2a78 B1020000 		.4byte	.LASF571
 8837 2a7c 02       		.byte	0x2
 8838 2a7d 2A       		.uleb128 0x2a
 8839 2a7e DD2D0000 		.4byte	.LASF572
 8840 2a82 03       		.byte	0x3
 8841 2a83 2A       		.uleb128 0x2a
 8842 2a84 B8170000 		.4byte	.LASF573
 8843 2a88 04       		.byte	0x4
 8844 2a89 2A       		.uleb128 0x2a
 8845 2a8a BA090000 		.4byte	.LASF574
 8846 2a8e 05       		.byte	0x5
 8847 2a8f 2A       		.uleb128 0x2a
 8848 2a90 D3170000 		.4byte	.LASF575
 8849 2a94 06       		.byte	0x6
 8850 2a95 2A       		.uleb128 0x2a
 8851 2a96 421F0000 		.4byte	.LASF576
 8852 2a9a 07       		.byte	0x7
 8853 2a9b 2A       		.uleb128 0x2a
 8854 2a9c 31060000 		.4byte	.LASF577
 8855 2aa0 08       		.byte	0x8
 8856 2aa1 2A       		.uleb128 0x2a
 8857 2aa2 13320000 		.4byte	.LASF578
 8858 2aa6 09       		.byte	0x9
 8859 2aa7 2A       		.uleb128 0x2a
ARM GAS  C:\Users\RAKIBU~1\AppData\Local\Temp\ccQ3AEax.s 			page 158


 8860 2aa8 31190000 		.4byte	.LASF579
 8861 2aac 0A       		.byte	0xa
 8862 2aad 2A       		.uleb128 0x2a
 8863 2aae 96070000 		.4byte	.LASF580
 8864 2ab2 0B       		.byte	0xb
 8865 2ab3 2A       		.uleb128 0x2a
 8866 2ab4 A8240000 		.4byte	.LASF581
 8867 2ab8 0C       		.byte	0xc
 8868 2ab9 2A       		.uleb128 0x2a
 8869 2aba 70160000 		.4byte	.LASF582
 8870 2abe 0D       		.byte	0xd
 8871 2abf 2A       		.uleb128 0x2a
 8872 2ac0 122F0000 		.4byte	.LASF583
 8873 2ac4 0E       		.byte	0xe
 8874 2ac5 2A       		.uleb128 0x2a
 8875 2ac6 A1140000 		.4byte	.LASF584
 8876 2aca 0F       		.byte	0xf
 8877 2acb 2A       		.uleb128 0x2a
 8878 2acc 750D0000 		.4byte	.LASF585
 8879 2ad0 10       		.byte	0x10
 8880 2ad1 2A       		.uleb128 0x2a
 8881 2ad2 C0310000 		.4byte	.LASF586
 8882 2ad6 11       		.byte	0x11
 8883 2ad7 2A       		.uleb128 0x2a
 8884 2ad8 8D180000 		.4byte	.LASF587
 8885 2adc 12       		.byte	0x12
 8886 2add 2A       		.uleb128 0x2a
 8887 2ade 6B200000 		.4byte	.LASF588
 8888 2ae2 13       		.byte	0x13
 8889 2ae3 2A       		.uleb128 0x2a
 8890 2ae4 47070000 		.4byte	.LASF589
 8891 2ae8 14       		.byte	0x14
 8892 2ae9 2A       		.uleb128 0x2a
 8893 2aea AA280000 		.4byte	.LASF590
 8894 2aee 15       		.byte	0x15
 8895 2aef 2A       		.uleb128 0x2a
 8896 2af0 C4010000 		.4byte	.LASF591
 8897 2af4 16       		.byte	0x16
 8898 2af5 2A       		.uleb128 0x2a
 8899 2af6 51200000 		.4byte	.LASF592
 8900 2afa 17       		.byte	0x17
 8901 2afb 2A       		.uleb128 0x2a
 8902 2afc 10060000 		.4byte	.LASF593
 8903 2b00 18       		.byte	0x18
 8904 2b01 2A       		.uleb128 0x2a
 8905 2b02 E50B0000 		.4byte	.LASF594
 8906 2b06 19       		.byte	0x19
 8907 2b07 2A       		.uleb128 0x2a
 8908 2b08 71080000 		.4byte	.LASF595
 8909 2b0c 1A       		.byte	0x1a
 8910 2b0d 2A       		.uleb128 0x2a
 8911 2b0e 31150000 		.4byte	.LASF596
 8912 2b12 1B       		.byte	0x1b
 8913 2b13 2A       		.uleb128 0x2a
 8914 2b14 9A2E0000 		.4byte	.LASF597
 8915 2b18 1C       		.byte	0x1c
 8916 2b19 2A       		.uleb128 0x2a
ARM GAS  C:\Users\RAKIBU~1\AppData\Local\Temp\ccQ3AEax.s 			page 159


 8917 2b1a EB300000 		.4byte	.LASF598
 8918 2b1e 1D       		.byte	0x1d
 8919 2b1f 2A       		.uleb128 0x2a
 8920 2b20 531A0000 		.4byte	.LASF599
 8921 2b24 1E       		.byte	0x1e
 8922 2b25 2A       		.uleb128 0x2a
 8923 2b26 7D2F0000 		.4byte	.LASF600
 8924 2b2a 1F       		.byte	0x1f
 8925 2b2b 2A       		.uleb128 0x2a
 8926 2b2c 69010000 		.4byte	.LASF601
 8927 2b30 20       		.byte	0x20
 8928 2b31 2A       		.uleb128 0x2a
 8929 2b32 05190000 		.4byte	.LASF602
 8930 2b36 21       		.byte	0x21
 8931 2b37 2A       		.uleb128 0x2a
 8932 2b38 5C300000 		.4byte	.LASF603
 8933 2b3c 22       		.byte	0x22
 8934 2b3d 2A       		.uleb128 0x2a
 8935 2b3e 6A0F0000 		.4byte	.LASF604
 8936 2b42 23       		.byte	0x23
 8937 2b43 2A       		.uleb128 0x2a
 8938 2b44 F72D0000 		.4byte	.LASF605
 8939 2b48 24       		.byte	0x24
 8940 2b49 00       		.byte	0
 8941 2b4a 2B       		.uleb128 0x2b
 8942 2b4b 07       		.byte	0x7
 8943 2b4c 01       		.byte	0x1
 8944 2b4d 37000000 		.4byte	0x37
 8945 2b51 33       		.byte	0x33
 8946 2b52 E602     		.2byte	0x2e6
 8947 2b54 D12B0000 		.4byte	0x2bd1
 8948 2b58 2A       		.uleb128 0x2a
 8949 2b59 38140000 		.4byte	.LASF606
 8950 2b5d 28       		.byte	0x28
 8951 2b5e 2A       		.uleb128 0x2a
 8952 2b5f 0C010000 		.4byte	.LASF607
 8953 2b63 29       		.byte	0x29
 8954 2b64 2A       		.uleb128 0x2a
 8955 2b65 97210000 		.4byte	.LASF608
 8956 2b69 2A       		.byte	0x2a
 8957 2b6a 2A       		.uleb128 0x2a
 8958 2b6b 7F210000 		.4byte	.LASF609
 8959 2b6f 2B       		.byte	0x2b
 8960 2b70 2A       		.uleb128 0x2a
 8961 2b71 7F260000 		.4byte	.LASF610
 8962 2b75 2C       		.byte	0x2c
 8963 2b76 2A       		.uleb128 0x2a
 8964 2b77 2F100000 		.4byte	.LASF611
 8965 2b7b 2D       		.byte	0x2d
 8966 2b7c 2A       		.uleb128 0x2a
 8967 2b7d EE0F0000 		.4byte	.LASF612
 8968 2b81 2E       		.byte	0x2e
 8969 2b82 2A       		.uleb128 0x2a
 8970 2b83 2B030000 		.4byte	.LASF613
 8971 2b87 2F       		.byte	0x2f
 8972 2b88 2A       		.uleb128 0x2a
 8973 2b89 5C020000 		.4byte	.LASF614
ARM GAS  C:\Users\RAKIBU~1\AppData\Local\Temp\ccQ3AEax.s 			page 160


 8974 2b8d 30       		.byte	0x30
 8975 2b8e 2A       		.uleb128 0x2a
 8976 2b8f 61310000 		.4byte	.LASF615
 8977 2b93 31       		.byte	0x31
 8978 2b94 2A       		.uleb128 0x2a
 8979 2b95 0A170000 		.4byte	.LASF616
 8980 2b99 32       		.byte	0x32
 8981 2b9a 2A       		.uleb128 0x2a
 8982 2b9b BC180000 		.4byte	.LASF617
 8983 2b9f 33       		.byte	0x33
 8984 2ba0 2A       		.uleb128 0x2a
 8985 2ba1 5E1C0000 		.4byte	.LASF618
 8986 2ba5 34       		.byte	0x34
 8987 2ba6 2A       		.uleb128 0x2a
 8988 2ba7 09230000 		.4byte	.LASF619
 8989 2bab 35       		.byte	0x35
 8990 2bac 2A       		.uleb128 0x2a
 8991 2bad AC000000 		.4byte	.LASF620
 8992 2bb1 36       		.byte	0x36
 8993 2bb2 2A       		.uleb128 0x2a
 8994 2bb3 18080000 		.4byte	.LASF621
 8995 2bb7 37       		.byte	0x37
 8996 2bb8 2A       		.uleb128 0x2a
 8997 2bb9 2E2B0000 		.4byte	.LASF622
 8998 2bbd 38       		.byte	0x38
 8999 2bbe 2A       		.uleb128 0x2a
 9000 2bbf F42C0000 		.4byte	.LASF623
 9001 2bc3 39       		.byte	0x39
 9002 2bc4 2A       		.uleb128 0x2a
 9003 2bc5 581D0000 		.4byte	.LASF624
 9004 2bc9 3A       		.byte	0x3a
 9005 2bca 2A       		.uleb128 0x2a
 9006 2bcb E3070000 		.4byte	.LASF625
 9007 2bcf 3B       		.byte	0x3b
 9008 2bd0 00       		.byte	0
 9009 2bd1 2B       		.uleb128 0x2b
 9010 2bd2 07       		.byte	0x7
 9011 2bd3 01       		.byte	0x1
 9012 2bd4 37000000 		.4byte	0x37
 9013 2bd8 33       		.byte	0x33
 9014 2bd9 2D03     		.2byte	0x32d
 9015 2bdb F82B0000 		.4byte	0x2bf8
 9016 2bdf 2A       		.uleb128 0x2a
 9017 2be0 49210000 		.4byte	.LASF626
 9018 2be4 46       		.byte	0x46
 9019 2be5 2A       		.uleb128 0x2a
 9020 2be6 670A0000 		.4byte	.LASF627
 9021 2bea 47       		.byte	0x47
 9022 2beb 2A       		.uleb128 0x2a
 9023 2bec 622B0000 		.4byte	.LASF628
 9024 2bf0 48       		.byte	0x48
 9025 2bf1 2A       		.uleb128 0x2a
 9026 2bf2 E5110000 		.4byte	.LASF629
 9027 2bf6 49       		.byte	0x49
 9028 2bf7 00       		.byte	0
 9029 2bf8 2B       		.uleb128 0x2b
 9030 2bf9 07       		.byte	0x7
ARM GAS  C:\Users\RAKIBU~1\AppData\Local\Temp\ccQ3AEax.s 			page 161


 9031 2bfa 01       		.byte	0x1
 9032 2bfb 37000000 		.4byte	0x37
 9033 2bff 33       		.byte	0x33
 9034 2c00 4103     		.2byte	0x341
 9035 2c02 252C0000 		.4byte	0x2c25
 9036 2c06 2A       		.uleb128 0x2a
 9037 2c07 91160000 		.4byte	.LASF630
 9038 2c0b 5A       		.byte	0x5a
 9039 2c0c 2A       		.uleb128 0x2a
 9040 2c0d DE030000 		.4byte	.LASF631
 9041 2c11 5B       		.byte	0x5b
 9042 2c12 2A       		.uleb128 0x2a
 9043 2c13 881F0000 		.4byte	.LASF632
 9044 2c17 5C       		.byte	0x5c
 9045 2c18 2A       		.uleb128 0x2a
 9046 2c19 B9150000 		.4byte	.LASF633
 9047 2c1d 5D       		.byte	0x5d
 9048 2c1e 2A       		.uleb128 0x2a
 9049 2c1f FB050000 		.4byte	.LASF634
 9050 2c23 5E       		.byte	0x5e
 9051 2c24 00       		.byte	0
 9052 2c25 2B       		.uleb128 0x2b
 9053 2c26 07       		.byte	0x7
 9054 2c27 01       		.byte	0x1
 9055 2c28 37000000 		.4byte	0x37
 9056 2c2c 33       		.byte	0x33
 9057 2c2d 5D03     		.2byte	0x35d
 9058 2c2f 4C2C0000 		.4byte	0x2c4c
 9059 2c33 2A       		.uleb128 0x2a
 9060 2c34 080E0000 		.4byte	.LASF635
 9061 2c38 64       		.byte	0x64
 9062 2c39 2A       		.uleb128 0x2a
 9063 2c3a 522A0000 		.4byte	.LASF636
 9064 2c3e 65       		.byte	0x65
 9065 2c3f 2A       		.uleb128 0x2a
 9066 2c40 61060000 		.4byte	.LASF637
 9067 2c44 66       		.byte	0x66
 9068 2c45 2A       		.uleb128 0x2a
 9069 2c46 E6100000 		.4byte	.LASF638
 9070 2c4a 67       		.byte	0x67
 9071 2c4b 00       		.byte	0
 9072 2c4c 2B       		.uleb128 0x2b
 9073 2c4d 07       		.byte	0x7
 9074 2c4e 01       		.byte	0x1
 9075 2c4f 37000000 		.4byte	0x37
 9076 2c53 33       		.byte	0x33
 9077 2c54 9A03     		.2byte	0x39a
 9078 2c56 6D2C0000 		.4byte	0x2c6d
 9079 2c5a 2A       		.uleb128 0x2a
 9080 2c5b 6B040000 		.4byte	.LASF639
 9081 2c5f 0A       		.byte	0xa
 9082 2c60 2A       		.uleb128 0x2a
 9083 2c61 7E150000 		.4byte	.LASF640
 9084 2c65 0B       		.byte	0xb
 9085 2c66 2A       		.uleb128 0x2a
 9086 2c67 53040000 		.4byte	.LASF641
 9087 2c6b 0C       		.byte	0xc
ARM GAS  C:\Users\RAKIBU~1\AppData\Local\Temp\ccQ3AEax.s 			page 162


 9088 2c6c 00       		.byte	0
 9089 2c6d 2B       		.uleb128 0x2b
 9090 2c6e 07       		.byte	0x7
 9091 2c6f 01       		.byte	0x1
 9092 2c70 37000000 		.4byte	0x37
 9093 2c74 33       		.byte	0x33
 9094 2c75 B803     		.2byte	0x3b8
 9095 2c77 A62C0000 		.4byte	0x2ca6
 9096 2c7b 2A       		.uleb128 0x2a
 9097 2c7c 76180000 		.4byte	.LASF642
 9098 2c80 00       		.byte	0
 9099 2c81 2A       		.uleb128 0x2a
 9100 2c82 CC0D0000 		.4byte	.LASF643
 9101 2c86 01       		.byte	0x1
 9102 2c87 2A       		.uleb128 0x2a
 9103 2c88 C52F0000 		.4byte	.LASF644
 9104 2c8c 02       		.byte	0x2
 9105 2c8d 2A       		.uleb128 0x2a
 9106 2c8e 88030000 		.4byte	.LASF645
 9107 2c92 03       		.byte	0x3
 9108 2c93 2A       		.uleb128 0x2a
 9109 2c94 6C2A0000 		.4byte	.LASF646
 9110 2c98 04       		.byte	0x4
 9111 2c99 2A       		.uleb128 0x2a
 9112 2c9a 1B250000 		.4byte	.LASF647
 9113 2c9e 05       		.byte	0x5
 9114 2c9f 2A       		.uleb128 0x2a
 9115 2ca0 54240000 		.4byte	.LASF648
 9116 2ca4 06       		.byte	0x6
 9117 2ca5 00       		.byte	0
 9118 2ca6 2B       		.uleb128 0x2b
 9119 2ca7 07       		.byte	0x7
 9120 2ca8 01       		.byte	0x1
 9121 2ca9 37000000 		.4byte	0x37
 9122 2cad 33       		.byte	0x33
 9123 2cae DC03     		.2byte	0x3dc
 9124 2cb0 D32C0000 		.4byte	0x2cd3
 9125 2cb4 2A       		.uleb128 0x2a
 9126 2cb5 00050000 		.4byte	.LASF649
 9127 2cb9 00       		.byte	0
 9128 2cba 2A       		.uleb128 0x2a
 9129 2cbb DA220000 		.4byte	.LASF650
 9130 2cbf 01       		.byte	0x1
 9131 2cc0 2A       		.uleb128 0x2a
 9132 2cc1 A7120000 		.4byte	.LASF651
 9133 2cc5 02       		.byte	0x2
 9134 2cc6 2A       		.uleb128 0x2a
 9135 2cc7 A5230000 		.4byte	.LASF652
 9136 2ccb 03       		.byte	0x3
 9137 2ccc 2A       		.uleb128 0x2a
 9138 2ccd 652C0000 		.4byte	.LASF653
 9139 2cd1 04       		.byte	0x4
 9140 2cd2 00       		.byte	0
 9141 2cd3 2B       		.uleb128 0x2b
 9142 2cd4 07       		.byte	0x7
 9143 2cd5 01       		.byte	0x1
 9144 2cd6 37000000 		.4byte	0x37
ARM GAS  C:\Users\RAKIBU~1\AppData\Local\Temp\ccQ3AEax.s 			page 163


 9145 2cda 33       		.byte	0x33
 9146 2cdb 0904     		.2byte	0x409
 9147 2cdd 3C2D0000 		.4byte	0x2d3c
 9148 2ce1 2A       		.uleb128 0x2a
 9149 2ce2 6D2D0000 		.4byte	.LASF654
 9150 2ce6 01       		.byte	0x1
 9151 2ce7 2A       		.uleb128 0x2a
 9152 2ce8 7B2D0000 		.4byte	.LASF655
 9153 2cec 02       		.byte	0x2
 9154 2ced 2A       		.uleb128 0x2a
 9155 2cee 892D0000 		.4byte	.LASF656
 9156 2cf2 03       		.byte	0x3
 9157 2cf3 2A       		.uleb128 0x2a
 9158 2cf4 F0150000 		.4byte	.LASF657
 9159 2cf8 04       		.byte	0x4
 9160 2cf9 2A       		.uleb128 0x2a
 9161 2cfa E3180000 		.4byte	.LASF658
 9162 2cfe 05       		.byte	0x5
 9163 2cff 2A       		.uleb128 0x2a
 9164 2d00 972D0000 		.4byte	.LASF659
 9165 2d04 06       		.byte	0x6
 9166 2d05 2A       		.uleb128 0x2a
 9167 2d06 A52D0000 		.4byte	.LASF660
 9168 2d0a 07       		.byte	0x7
 9169 2d0b 2A       		.uleb128 0x2a
 9170 2d0c 26160000 		.4byte	.LASF661
 9171 2d10 08       		.byte	0x8
 9172 2d11 2A       		.uleb128 0x2a
 9173 2d12 B32D0000 		.4byte	.LASF662
 9174 2d16 09       		.byte	0x9
 9175 2d17 2A       		.uleb128 0x2a
 9176 2d18 C4290000 		.4byte	.LASF663
 9177 2d1c 0A       		.byte	0xa
 9178 2d1d 2A       		.uleb128 0x2a
 9179 2d1e D3290000 		.4byte	.LASF664
 9180 2d22 0B       		.byte	0xb
 9181 2d23 2A       		.uleb128 0x2a
 9182 2d24 61160000 		.4byte	.LASF665
 9183 2d28 0C       		.byte	0xc
 9184 2d29 2A       		.uleb128 0x2a
 9185 2d2a EE290000 		.4byte	.LASF666
 9186 2d2e 0D       		.byte	0xd
 9187 2d2f 2A       		.uleb128 0x2a
 9188 2d30 FD290000 		.4byte	.LASF667
 9189 2d34 0E       		.byte	0xe
 9190 2d35 2A       		.uleb128 0x2a
 9191 2d36 83290000 		.4byte	.LASF668
 9192 2d3a FF       		.byte	0xff
 9193 2d3b 00       		.byte	0
 9194 2d3c 2B       		.uleb128 0x2b
 9195 2d3d 07       		.byte	0x7
 9196 2d3e 01       		.byte	0x1
 9197 2d3f 37000000 		.4byte	0x37
 9198 2d43 33       		.byte	0x33
 9199 2d44 4604     		.2byte	0x446
 9200 2d46 692D0000 		.4byte	0x2d69
 9201 2d4a 2A       		.uleb128 0x2a
ARM GAS  C:\Users\RAKIBU~1\AppData\Local\Temp\ccQ3AEax.s 			page 164


 9202 2d4b E6150000 		.4byte	.LASF669
 9203 2d4f 00       		.byte	0
 9204 2d50 2A       		.uleb128 0x2a
 9205 2d51 600B0000 		.4byte	.LASF670
 9206 2d55 01       		.byte	0x1
 9207 2d56 2A       		.uleb128 0x2a
 9208 2d57 C2270000 		.4byte	.LASF671
 9209 2d5b 02       		.byte	0x2
 9210 2d5c 2A       		.uleb128 0x2a
 9211 2d5d E2140000 		.4byte	.LASF672
 9212 2d61 03       		.byte	0x3
 9213 2d62 2A       		.uleb128 0x2a
 9214 2d63 1B280000 		.4byte	.LASF673
 9215 2d67 04       		.byte	0x4
 9216 2d68 00       		.byte	0
 9217 2d69 2B       		.uleb128 0x2b
 9218 2d6a 07       		.byte	0x7
 9219 2d6b 01       		.byte	0x1
 9220 2d6c 37000000 		.4byte	0x37
 9221 2d70 33       		.byte	0x33
 9222 2d71 6504     		.2byte	0x465
 9223 2d73 962D0000 		.4byte	0x2d96
 9224 2d77 2A       		.uleb128 0x2a
 9225 2d78 431D0000 		.4byte	.LASF674
 9226 2d7c 01       		.byte	0x1
 9227 2d7d 2A       		.uleb128 0x2a
 9228 2d7e B90F0000 		.4byte	.LASF675
 9229 2d82 02       		.byte	0x2
 9230 2d83 2A       		.uleb128 0x2a
 9231 2d84 B6260000 		.4byte	.LASF676
 9232 2d88 03       		.byte	0x3
 9233 2d89 2A       		.uleb128 0x2a
 9234 2d8a E92E0000 		.4byte	.LASF677
 9235 2d8e 04       		.byte	0x4
 9236 2d8f 2A       		.uleb128 0x2a
 9237 2d90 BA100000 		.4byte	.LASF678
 9238 2d94 05       		.byte	0x5
 9239 2d95 00       		.byte	0
 9240 2d96 2B       		.uleb128 0x2b
 9241 2d97 07       		.byte	0x7
 9242 2d98 01       		.byte	0x1
 9243 2d99 37000000 		.4byte	0x37
 9244 2d9d 33       		.byte	0x33
 9245 2d9e 7C04     		.2byte	0x47c
 9246 2da0 B12D0000 		.4byte	0x2db1
 9247 2da4 2A       		.uleb128 0x2a
 9248 2da5 300F0000 		.4byte	.LASF679
 9249 2da9 00       		.byte	0
 9250 2daa 2A       		.uleb128 0x2a
 9251 2dab 2F2F0000 		.4byte	.LASF680
 9252 2daf 04       		.byte	0x4
 9253 2db0 00       		.byte	0
 9254 2db1 1C       		.uleb128 0x1c
 9255 2db2 04       		.byte	0x4
 9256 2db3 33       		.byte	0x33
 9257 2db4 8C04     		.2byte	0x48c
 9258 2db6 D52D0000 		.4byte	0x2dd5
ARM GAS  C:\Users\RAKIBU~1\AppData\Local\Temp\ccQ3AEax.s 			page 165


 9259 2dba 19       		.uleb128 0x19
 9260 2dbb 5A140000 		.4byte	.LASF681
 9261 2dbf 33       		.byte	0x33
 9262 2dc0 8D04     		.2byte	0x48d
 9263 2dc2 3B090000 		.4byte	0x93b
 9264 2dc6 00       		.byte	0
 9265 2dc7 19       		.uleb128 0x19
 9266 2dc8 92050000 		.4byte	.LASF682
 9267 2dcc 33       		.byte	0x33
 9268 2dcd 9504     		.2byte	0x495
 9269 2dcf 3B090000 		.4byte	0x93b
 9270 2dd3 02       		.byte	0x2
 9271 2dd4 00       		.byte	0
 9272 2dd5 09       		.uleb128 0x9
 9273 2dd6 A3090000 		.4byte	.LASF683
 9274 2dda 33       		.byte	0x33
 9275 2ddb 9D04     		.2byte	0x49d
 9276 2ddd B12D0000 		.4byte	0x2db1
 9277 2de1 1C       		.uleb128 0x1c
 9278 2de2 20       		.byte	0x20
 9279 2de3 33       		.byte	0x33
 9280 2de4 A604     		.2byte	0x4a6
 9281 2de6 1F2E0000 		.4byte	0x2e1f
 9282 2dea 19       		.uleb128 0x19
 9283 2deb 32290000 		.4byte	.LASF684
 9284 2def 33       		.byte	0x33
 9285 2df0 A704     		.2byte	0x4a7
 9286 2df2 2B090000 		.4byte	0x92b
 9287 2df6 00       		.byte	0
 9288 2df7 19       		.uleb128 0x19
 9289 2df8 30140000 		.4byte	.LASF685
 9290 2dfc 33       		.byte	0x33
 9291 2dfd AA04     		.2byte	0x4aa
 9292 2dff 2B090000 		.4byte	0x92b
 9293 2e03 01       		.byte	0x1
 9294 2e04 19       		.uleb128 0x19
 9295 2e05 C12E0000 		.4byte	.LASF686
 9296 2e09 33       		.byte	0x33
 9297 2e0a AD04     		.2byte	0x4ad
 9298 2e0c 1F2E0000 		.4byte	0x2e1f
 9299 2e10 02       		.byte	0x2
 9300 2e11 19       		.uleb128 0x19
 9301 2e12 0C270000 		.4byte	.LASF551
 9302 2e16 33       		.byte	0x33
 9303 2e17 B004     		.2byte	0x4b0
 9304 2e19 4D290000 		.4byte	0x294d
 9305 2e1d 1D       		.byte	0x1d
 9306 2e1e 00       		.byte	0
 9307 2e1f 0C       		.uleb128 0xc
 9308 2e20 2B090000 		.4byte	0x92b
 9309 2e24 2F2E0000 		.4byte	0x2e2f
 9310 2e28 0D       		.uleb128 0xd
 9311 2e29 9B000000 		.4byte	0x9b
 9312 2e2d 1A       		.byte	0x1a
 9313 2e2e 00       		.byte	0
 9314 2e2f 09       		.uleb128 0x9
 9315 2e30 ED270000 		.4byte	.LASF687
ARM GAS  C:\Users\RAKIBU~1\AppData\Local\Temp\ccQ3AEax.s 			page 166


 9316 2e34 33       		.byte	0x33
 9317 2e35 B304     		.2byte	0x4b3
 9318 2e37 E12D0000 		.4byte	0x2de1
 9319 2e3b 1C       		.uleb128 0x1c
 9320 2e3c 3E       		.byte	0x3e
 9321 2e3d 33       		.byte	0x33
 9322 2e3e BD04     		.2byte	0x4bd
 9323 2e40 5F2E0000 		.4byte	0x2e5f
 9324 2e44 19       		.uleb128 0x19
 9325 2e45 2F1C0000 		.4byte	.LASF688
 9326 2e49 33       		.byte	0x33
 9327 2e4a BE04     		.2byte	0x4be
 9328 2e4c 5F2E0000 		.4byte	0x2e5f
 9329 2e50 00       		.byte	0
 9330 2e51 19       		.uleb128 0x19
 9331 2e52 78190000 		.4byte	.LASF689
 9332 2e56 33       		.byte	0x33
 9333 2e57 C104     		.2byte	0x4c1
 9334 2e59 6F2E0000 		.4byte	0x2e6f
 9335 2e5d 15       		.byte	0x15
 9336 2e5e 00       		.byte	0
 9337 2e5f 0C       		.uleb128 0xc
 9338 2e60 2B090000 		.4byte	0x92b
 9339 2e64 6F2E0000 		.4byte	0x2e6f
 9340 2e68 0D       		.uleb128 0xd
 9341 2e69 9B000000 		.4byte	0x9b
 9342 2e6d 14       		.byte	0x14
 9343 2e6e 00       		.byte	0
 9344 2e6f 0C       		.uleb128 0xc
 9345 2e70 2B090000 		.4byte	0x92b
 9346 2e74 7F2E0000 		.4byte	0x2e7f
 9347 2e78 0D       		.uleb128 0xd
 9348 2e79 9B000000 		.4byte	0x9b
 9349 2e7d 28       		.byte	0x28
 9350 2e7e 00       		.byte	0
 9351 2e7f 09       		.uleb128 0x9
 9352 2e80 A6180000 		.4byte	.LASF690
 9353 2e84 33       		.byte	0x33
 9354 2e85 C404     		.2byte	0x4c4
 9355 2e87 3B2E0000 		.4byte	0x2e3b
 9356 2e8b 1D       		.uleb128 0x1d
 9357 2e8c 41       		.byte	0x41
 9358 2e8d 33       		.byte	0x33
 9359 2e8e CE04     		.2byte	0x4ce
 9360 2e90 B92E0000 		.4byte	0x2eb9
 9361 2e94 1E       		.uleb128 0x1e
 9362 2e95 42220000 		.4byte	.LASF691
 9363 2e99 33       		.byte	0x33
 9364 2e9a CF04     		.2byte	0x4cf
 9365 2e9c B92E0000 		.4byte	0x2eb9
 9366 2ea0 1E       		.uleb128 0x1e
 9367 2ea1 BE1E0000 		.4byte	.LASF692
 9368 2ea5 33       		.byte	0x33
 9369 2ea6 D204     		.2byte	0x4d2
 9370 2ea8 7F2E0000 		.4byte	0x2e7f
 9371 2eac 1E       		.uleb128 0x1e
 9372 2ead 9F100000 		.4byte	.LASF693
ARM GAS  C:\Users\RAKIBU~1\AppData\Local\Temp\ccQ3AEax.s 			page 167


 9373 2eb1 33       		.byte	0x33
 9374 2eb2 D504     		.2byte	0x4d5
 9375 2eb4 2F2E0000 		.4byte	0x2e2f
 9376 2eb8 00       		.byte	0
 9377 2eb9 0C       		.uleb128 0xc
 9378 2eba 2B090000 		.4byte	0x92b
 9379 2ebe C92E0000 		.4byte	0x2ec9
 9380 2ec2 0D       		.uleb128 0xd
 9381 2ec3 9B000000 		.4byte	0x9b
 9382 2ec7 40       		.byte	0x40
 9383 2ec8 00       		.byte	0
 9384 2ec9 09       		.uleb128 0x9
 9385 2eca 98030000 		.4byte	.LASF694
 9386 2ece 33       		.byte	0x33
 9387 2ecf D804     		.2byte	0x4d8
 9388 2ed1 8B2E0000 		.4byte	0x2e8b
 9389 2ed5 1C       		.uleb128 0x1c
 9390 2ed6 44       		.byte	0x44
 9391 2ed7 33       		.byte	0x33
 9392 2ed8 E204     		.2byte	0x4e2
 9393 2eda 062F0000 		.4byte	0x2f06
 9394 2ede 19       		.uleb128 0x19
 9395 2edf 490C0000 		.4byte	.LASF695
 9396 2ee3 33       		.byte	0x33
 9397 2ee4 E304     		.2byte	0x4e3
 9398 2ee6 C92E0000 		.4byte	0x2ec9
 9399 2eea 00       		.byte	0
 9400 2eeb 19       		.uleb128 0x19
 9401 2eec 210B0000 		.4byte	.LASF696
 9402 2ef0 33       		.byte	0x33
 9403 2ef1 E604     		.2byte	0x4e6
 9404 2ef3 2B090000 		.4byte	0x92b
 9405 2ef7 41       		.byte	0x41
 9406 2ef8 19       		.uleb128 0x19
 9407 2ef9 D20B0000 		.4byte	.LASF697
 9408 2efd 33       		.byte	0x33
 9409 2efe EA04     		.2byte	0x4ea
 9410 2f00 ED290000 		.4byte	0x29ed
 9411 2f04 42       		.byte	0x42
 9412 2f05 00       		.byte	0
 9413 2f06 09       		.uleb128 0x9
 9414 2f07 F00C0000 		.4byte	.LASF698
 9415 2f0b 33       		.byte	0x33
 9416 2f0c ED04     		.2byte	0x4ed
 9417 2f0e D52E0000 		.4byte	0x2ed5
 9418 2f12 1C       		.uleb128 0x1c
 9419 2f13 6C       		.byte	0x6c
 9420 2f14 33       		.byte	0x33
 9421 2f15 F704     		.2byte	0x4f7
 9422 2f17 5D2F0000 		.4byte	0x2f5d
 9423 2f1b 19       		.uleb128 0x19
 9424 2f1c E50E0000 		.4byte	.LASF699
 9425 2f20 33       		.byte	0x33
 9426 2f21 F804     		.2byte	0x4f8
 9427 2f23 062F0000 		.4byte	0x2f06
 9428 2f27 00       		.byte	0
 9429 2f28 19       		.uleb128 0x19
ARM GAS  C:\Users\RAKIBU~1\AppData\Local\Temp\ccQ3AEax.s 			page 168


 9430 2f29 D52E0000 		.4byte	.LASF700
 9431 2f2d 33       		.byte	0x33
 9432 2f2e FB04     		.2byte	0x4fb
 9433 2f30 3B090000 		.4byte	0x93b
 9434 2f34 44       		.byte	0x44
 9435 2f35 19       		.uleb128 0x19
 9436 2f36 2A200000 		.4byte	.LASF701
 9437 2f3a 33       		.byte	0x33
 9438 2f3b FE04     		.2byte	0x4fe
 9439 2f3d 5D2F0000 		.4byte	0x2f5d
 9440 2f41 46       		.byte	0x46
 9441 2f42 19       		.uleb128 0x19
 9442 2f43 F3040000 		.4byte	.LASF702
 9443 2f47 33       		.byte	0x33
 9444 2f48 0105     		.2byte	0x501
 9445 2f4a 2B090000 		.4byte	0x92b
 9446 2f4e 67       		.byte	0x67
 9447 2f4f 19       		.uleb128 0x19
 9448 2f50 D20B0000 		.4byte	.LASF697
 9449 2f54 33       		.byte	0x33
 9450 2f55 0305     		.2byte	0x503
 9451 2f57 6D2F0000 		.4byte	0x2f6d
 9452 2f5b 68       		.byte	0x68
 9453 2f5c 00       		.byte	0
 9454 2f5d 0C       		.uleb128 0xc
 9455 2f5e 2B090000 		.4byte	0x92b
 9456 2f62 6D2F0000 		.4byte	0x2f6d
 9457 2f66 0D       		.uleb128 0xd
 9458 2f67 9B000000 		.4byte	0x9b
 9459 2f6b 20       		.byte	0x20
 9460 2f6c 00       		.byte	0
 9461 2f6d 0C       		.uleb128 0xc
 9462 2f6e 2B090000 		.4byte	0x92b
 9463 2f72 7D2F0000 		.4byte	0x2f7d
 9464 2f76 0D       		.uleb128 0xd
 9465 2f77 9B000000 		.4byte	0x9b
 9466 2f7b 03       		.byte	0x3
 9467 2f7c 00       		.byte	0
 9468 2f7d 09       		.uleb128 0x9
 9469 2f7e 15050000 		.4byte	.LASF703
 9470 2f82 33       		.byte	0x33
 9471 2f83 0605     		.2byte	0x506
 9472 2f85 122F0000 		.4byte	0x2f12
 9473 2f89 1C       		.uleb128 0x1c
 9474 2f8a 0C       		.byte	0xc
 9475 2f8b 33       		.byte	0x33
 9476 2f8c 1305     		.2byte	0x513
 9477 2f8e BA2F0000 		.4byte	0x2fba
 9478 2f92 19       		.uleb128 0x19
 9479 2f93 0B120000 		.4byte	.LASF704
 9480 2f97 33       		.byte	0x33
 9481 2f98 1405     		.2byte	0x514
 9482 2f9a 2B090000 		.4byte	0x92b
 9483 2f9e 00       		.byte	0
 9484 2f9f 19       		.uleb128 0x19
 9485 2fa0 F7220000 		.4byte	.LASF705
 9486 2fa4 33       		.byte	0x33
ARM GAS  C:\Users\RAKIBU~1\AppData\Local\Temp\ccQ3AEax.s 			page 169


 9487 2fa5 1705     		.2byte	0x517
 9488 2fa7 E9070000 		.4byte	0x7e9
 9489 2fab 01       		.byte	0x1
 9490 2fac 19       		.uleb128 0x19
 9491 2fad 0C270000 		.4byte	.LASF551
 9492 2fb1 33       		.byte	0x33
 9493 2fb2 1A05     		.2byte	0x51a
 9494 2fb4 4D290000 		.4byte	0x294d
 9495 2fb8 09       		.byte	0x9
 9496 2fb9 00       		.byte	0
 9497 2fba 09       		.uleb128 0x9
 9498 2fbb 15020000 		.4byte	.LASF706
 9499 2fbf 33       		.byte	0x33
 9500 2fc0 1D05     		.2byte	0x51d
 9501 2fc2 892F0000 		.4byte	0x2f89
 9502 2fc6 1C       		.uleb128 0x1c
 9503 2fc7 64       		.byte	0x64
 9504 2fc8 33       		.byte	0x33
 9505 2fc9 2D05     		.2byte	0x52d
 9506 2fcb 04300000 		.4byte	0x3004
 9507 2fcf 19       		.uleb128 0x19
 9508 2fd0 D3020000 		.4byte	.LASF707
 9509 2fd4 33       		.byte	0x33
 9510 2fd5 2E05     		.2byte	0x52e
 9511 2fd7 2B090000 		.4byte	0x92b
 9512 2fdb 00       		.byte	0
 9513 2fdc 19       		.uleb128 0x19
 9514 2fdd 0B210000 		.4byte	.LASF708
 9515 2fe1 33       		.byte	0x33
 9516 2fe2 3105     		.2byte	0x531
 9517 2fe4 2B090000 		.4byte	0x92b
 9518 2fe8 01       		.byte	0x1
 9519 2fe9 19       		.uleb128 0x19
 9520 2fea 2A200000 		.4byte	.LASF701
 9521 2fee 33       		.byte	0x33
 9522 2fef 3405     		.2byte	0x534
 9523 2ff1 5D2F0000 		.4byte	0x2f5d
 9524 2ff5 02       		.byte	0x2
 9525 2ff6 19       		.uleb128 0x19
 9526 2ff7 42220000 		.4byte	.LASF691
 9527 2ffb 33       		.byte	0x33
 9528 2ffc 3705     		.2byte	0x537
 9529 2ffe B92E0000 		.4byte	0x2eb9
 9530 3002 23       		.byte	0x23
 9531 3003 00       		.byte	0
 9532 3004 09       		.uleb128 0x9
 9533 3005 D7150000 		.4byte	.LASF709
 9534 3009 33       		.byte	0x33
 9535 300a 3A05     		.2byte	0x53a
 9536 300c C62F0000 		.4byte	0x2fc6
 9537 3010 1C       		.uleb128 0x1c
 9538 3011 04       		.byte	0x4
 9539 3012 33       		.byte	0x33
 9540 3013 4805     		.2byte	0x548
 9541 3015 34300000 		.4byte	0x3034
 9542 3019 19       		.uleb128 0x19
 9543 301a BD210000 		.4byte	.LASF710
ARM GAS  C:\Users\RAKIBU~1\AppData\Local\Temp\ccQ3AEax.s 			page 170


 9544 301e 33       		.byte	0x33
 9545 301f 4905     		.2byte	0x549
 9546 3021 51090000 		.4byte	0x951
 9547 3025 00       		.byte	0
 9548 3026 19       		.uleb128 0x19
 9549 3027 0C270000 		.4byte	.LASF551
 9550 302b 33       		.byte	0x33
 9551 302c 4F05     		.2byte	0x54f
 9552 302e 4D290000 		.4byte	0x294d
 9553 3032 01       		.byte	0x1
 9554 3033 00       		.byte	0
 9555 3034 09       		.uleb128 0x9
 9556 3035 6C250000 		.4byte	.LASF711
 9557 3039 33       		.byte	0x33
 9558 303a 5005     		.2byte	0x550
 9559 303c 10300000 		.4byte	0x3010
 9560 3040 1C       		.uleb128 0x1c
 9561 3041 04       		.byte	0x4
 9562 3042 33       		.byte	0x33
 9563 3043 5D05     		.2byte	0x55d
 9564 3045 7E300000 		.4byte	0x307e
 9565 3049 19       		.uleb128 0x19
 9566 304a 9F1A0000 		.4byte	.LASF712
 9567 304e 33       		.byte	0x33
 9568 304f 5E05     		.2byte	0x55e
 9569 3051 2B090000 		.4byte	0x92b
 9570 3055 00       		.byte	0
 9571 3056 19       		.uleb128 0x19
 9572 3057 AB260000 		.4byte	.LASF713
 9573 305b 33       		.byte	0x33
 9574 305c 6205     		.2byte	0x562
 9575 305e 2B090000 		.4byte	0x92b
 9576 3062 01       		.byte	0x1
 9577 3063 19       		.uleb128 0x19
 9578 3064 700E0000 		.4byte	.LASF714
 9579 3068 33       		.byte	0x33
 9580 3069 6705     		.2byte	0x567
 9581 306b 2B090000 		.4byte	0x92b
 9582 306f 02       		.byte	0x2
 9583 3070 19       		.uleb128 0x19
 9584 3071 50080000 		.4byte	.LASF715
 9585 3075 33       		.byte	0x33
 9586 3076 6A05     		.2byte	0x56a
 9587 3078 51090000 		.4byte	0x951
 9588 307c 03       		.byte	0x3
 9589 307d 00       		.byte	0
 9590 307e 09       		.uleb128 0x9
 9591 307f 60030000 		.4byte	.LASF716
 9592 3083 33       		.byte	0x33
 9593 3084 6E05     		.2byte	0x56e
 9594 3086 40300000 		.4byte	0x3040
 9595 308a 1C       		.uleb128 0x1c
 9596 308b 04       		.byte	0x4
 9597 308c 33       		.byte	0x33
 9598 308d 7A05     		.2byte	0x57a
 9599 308f AE300000 		.4byte	0x30ae
 9600 3093 19       		.uleb128 0x19
ARM GAS  C:\Users\RAKIBU~1\AppData\Local\Temp\ccQ3AEax.s 			page 171


 9601 3094 50000000 		.4byte	.LASF717
 9602 3098 33       		.byte	0x33
 9603 3099 7B05     		.2byte	0x57b
 9604 309b 3B090000 		.4byte	0x93b
 9605 309f 00       		.byte	0
 9606 30a0 19       		.uleb128 0x19
 9607 30a1 63190000 		.4byte	.LASF558
 9608 30a5 33       		.byte	0x33
 9609 30a6 7E05     		.2byte	0x57e
 9610 30a8 ED290000 		.4byte	0x29ed
 9611 30ac 02       		.byte	0x2
 9612 30ad 00       		.byte	0
 9613 30ae 09       		.uleb128 0x9
 9614 30af 2F2D0000 		.4byte	.LASF718
 9615 30b3 33       		.byte	0x33
 9616 30b4 8005     		.2byte	0x580
 9617 30b6 8A300000 		.4byte	0x308a
 9618 30ba 1C       		.uleb128 0x1c
 9619 30bb 04       		.byte	0x4
 9620 30bc 33       		.byte	0x33
 9621 30bd 8D05     		.2byte	0x58d
 9622 30bf EB300000 		.4byte	0x30eb
 9623 30c3 19       		.uleb128 0x19
 9624 30c4 BE200000 		.4byte	.LASF719
 9625 30c8 33       		.byte	0x33
 9626 30c9 8E05     		.2byte	0x58e
 9627 30cb 2B090000 		.4byte	0x92b
 9628 30cf 00       		.byte	0
 9629 30d0 19       		.uleb128 0x19
 9630 30d1 920E0000 		.4byte	.LASF720
 9631 30d5 33       		.byte	0x33
 9632 30d6 9105     		.2byte	0x591
 9633 30d8 EB300000 		.4byte	0x30eb
 9634 30dc 01       		.byte	0x1
 9635 30dd 19       		.uleb128 0x19
 9636 30de 83250000 		.4byte	.LASF721
 9637 30e2 33       		.byte	0x33
 9638 30e3 9405     		.2byte	0x594
 9639 30e5 3B090000 		.4byte	0x93b
 9640 30e9 02       		.byte	0x2
 9641 30ea 00       		.byte	0
 9642 30eb 0C       		.uleb128 0xc
 9643 30ec 2B090000 		.4byte	0x92b
 9644 30f0 FB300000 		.4byte	0x30fb
 9645 30f4 0D       		.uleb128 0xd
 9646 30f5 9B000000 		.4byte	0x9b
 9647 30f9 00       		.byte	0
 9648 30fa 00       		.byte	0
 9649 30fb 09       		.uleb128 0x9
 9650 30fc 96310000 		.4byte	.LASF722
 9651 3100 33       		.byte	0x33
 9652 3101 9705     		.2byte	0x597
 9653 3103 BA300000 		.4byte	0x30ba
 9654 3107 1C       		.uleb128 0x1c
 9655 3108 04       		.byte	0x4
 9656 3109 33       		.byte	0x33
 9657 310a B005     		.2byte	0x5b0
ARM GAS  C:\Users\RAKIBU~1\AppData\Local\Temp\ccQ3AEax.s 			page 172


 9658 310c 38310000 		.4byte	0x3138
 9659 3110 19       		.uleb128 0x19
 9660 3111 5B220000 		.4byte	.LASF723
 9661 3115 33       		.byte	0x33
 9662 3116 B105     		.2byte	0x5b1
 9663 3118 2B090000 		.4byte	0x92b
 9664 311c 00       		.byte	0
 9665 311d 19       		.uleb128 0x19
 9666 311e EB280000 		.4byte	.LASF724
 9667 3122 33       		.byte	0x33
 9668 3123 B405     		.2byte	0x5b4
 9669 3125 51090000 		.4byte	0x951
 9670 3129 01       		.byte	0x1
 9671 312a 19       		.uleb128 0x19
 9672 312b 63190000 		.4byte	.LASF558
 9673 312f 33       		.byte	0x33
 9674 3130 B705     		.2byte	0x5b7
 9675 3132 ED290000 		.4byte	0x29ed
 9676 3136 02       		.byte	0x2
 9677 3137 00       		.byte	0
 9678 3138 09       		.uleb128 0x9
 9679 3139 D61B0000 		.4byte	.LASF725
 9680 313d 33       		.byte	0x33
 9681 313e BA05     		.2byte	0x5ba
 9682 3140 07310000 		.4byte	0x3107
 9683 3144 1C       		.uleb128 0x1c
 9684 3145 04       		.byte	0x4
 9685 3146 33       		.byte	0x33
 9686 3147 C505     		.2byte	0x5c5
 9687 3149 68310000 		.4byte	0x3168
 9688 314d 19       		.uleb128 0x19
 9689 314e 9F120000 		.4byte	.LASF726
 9690 3152 33       		.byte	0x33
 9691 3153 C605     		.2byte	0x5c6
 9692 3155 2B090000 		.4byte	0x92b
 9693 3159 00       		.byte	0
 9694 315a 19       		.uleb128 0x19
 9695 315b 0C270000 		.4byte	.LASF551
 9696 315f 33       		.byte	0x33
 9697 3160 C905     		.2byte	0x5c9
 9698 3162 4D290000 		.4byte	0x294d
 9699 3166 01       		.byte	0x1
 9700 3167 00       		.byte	0
 9701 3168 09       		.uleb128 0x9
 9702 3169 500D0000 		.4byte	.LASF727
 9703 316d 33       		.byte	0x33
 9704 316e CC05     		.2byte	0x5cc
 9705 3170 44310000 		.4byte	0x3144
 9706 3174 1C       		.uleb128 0x1c
 9707 3175 2C       		.byte	0x2c
 9708 3176 33       		.byte	0x33
 9709 3177 D705     		.2byte	0x5d7
 9710 3179 D9310000 		.4byte	0x31d9
 9711 317d 19       		.uleb128 0x19
 9712 317e 03220000 		.4byte	.LASF728
 9713 3182 33       		.byte	0x33
 9714 3183 D805     		.2byte	0x5d8
ARM GAS  C:\Users\RAKIBU~1\AppData\Local\Temp\ccQ3AEax.s 			page 173


 9715 3185 2B090000 		.4byte	0x92b
 9716 3189 00       		.byte	0
 9717 318a 19       		.uleb128 0x19
 9718 318b E4280000 		.4byte	.LASF729
 9719 318f 33       		.byte	0x33
 9720 3190 DB05     		.2byte	0x5db
 9721 3192 51090000 		.4byte	0x951
 9722 3196 01       		.byte	0x1
 9723 3197 19       		.uleb128 0x19
 9724 3198 D3020000 		.4byte	.LASF707
 9725 319c 33       		.byte	0x33
 9726 319d DE05     		.2byte	0x5de
 9727 319f 2B090000 		.4byte	0x92b
 9728 31a3 02       		.byte	0x2
 9729 31a4 19       		.uleb128 0x19
 9730 31a5 9E090000 		.4byte	.LASF730
 9731 31a9 33       		.byte	0x33
 9732 31aa E105     		.2byte	0x5e1
 9733 31ac 2B090000 		.4byte	0x92b
 9734 31b0 03       		.byte	0x3
 9735 31b1 19       		.uleb128 0x19
 9736 31b2 4E280000 		.4byte	.LASF731
 9737 31b6 33       		.byte	0x33
 9738 31b7 E405     		.2byte	0x5e4
 9739 31b9 D9310000 		.4byte	0x31d9
 9740 31bd 04       		.byte	0x4
 9741 31be 19       		.uleb128 0x19
 9742 31bf 2A200000 		.4byte	.LASF701
 9743 31c3 33       		.byte	0x33
 9744 31c4 E705     		.2byte	0x5e7
 9745 31c6 5D2F0000 		.4byte	0x2f5d
 9746 31ca 0A       		.byte	0xa
 9747 31cb 19       		.uleb128 0x19
 9748 31cc 892A0000 		.4byte	.LASF732
 9749 31d0 33       		.byte	0x33
 9750 31d1 EA05     		.2byte	0x5ea
 9751 31d3 2B090000 		.4byte	0x92b
 9752 31d7 2B       		.byte	0x2b
 9753 31d8 00       		.byte	0
 9754 31d9 0C       		.uleb128 0xc
 9755 31da 2B090000 		.4byte	0x92b
 9756 31de E9310000 		.4byte	0x31e9
 9757 31e2 0D       		.uleb128 0xd
 9758 31e3 9B000000 		.4byte	0x9b
 9759 31e7 05       		.byte	0x5
 9760 31e8 00       		.byte	0
 9761 31e9 09       		.uleb128 0x9
 9762 31ea F71C0000 		.4byte	.LASF733
 9763 31ee 33       		.byte	0x33
 9764 31ef ED05     		.2byte	0x5ed
 9765 31f1 74310000 		.4byte	0x3174
 9766 31f5 1C       		.uleb128 0x1c
 9767 31f6 04       		.byte	0x4
 9768 31f7 33       		.byte	0x33
 9769 31f8 FA05     		.2byte	0x5fa
 9770 31fa 26320000 		.4byte	0x3226
 9771 31fe 19       		.uleb128 0x19
ARM GAS  C:\Users\RAKIBU~1\AppData\Local\Temp\ccQ3AEax.s 			page 174


 9772 31ff 77290000 		.4byte	.LASF734
 9773 3203 33       		.byte	0x33
 9774 3204 FB05     		.2byte	0x5fb
 9775 3206 2B090000 		.4byte	0x92b
 9776 320a 00       		.byte	0
 9777 320b 19       		.uleb128 0x19
 9778 320c D4030000 		.4byte	.LASF735
 9779 3210 33       		.byte	0x33
 9780 3211 FE05     		.2byte	0x5fe
 9781 3213 2B090000 		.4byte	0x92b
 9782 3217 01       		.byte	0x1
 9783 3218 19       		.uleb128 0x19
 9784 3219 63190000 		.4byte	.LASF558
 9785 321d 33       		.byte	0x33
 9786 321e 0106     		.2byte	0x601
 9787 3220 ED290000 		.4byte	0x29ed
 9788 3224 02       		.byte	0x2
 9789 3225 00       		.byte	0
 9790 3226 09       		.uleb128 0x9
 9791 3227 172D0000 		.4byte	.LASF736
 9792 322b 33       		.byte	0x33
 9793 322c 0406     		.2byte	0x604
 9794 322e F5310000 		.4byte	0x31f5
 9795 3232 1C       		.uleb128 0x1c
 9796 3233 04       		.byte	0x4
 9797 3234 33       		.byte	0x33
 9798 3235 1106     		.2byte	0x611
 9799 3237 63320000 		.4byte	0x3263
 9800 323b 19       		.uleb128 0x19
 9801 323c 46230000 		.4byte	.LASF737
 9802 3240 33       		.byte	0x33
 9803 3241 1206     		.2byte	0x612
 9804 3243 2B090000 		.4byte	0x92b
 9805 3247 00       		.byte	0
 9806 3248 19       		.uleb128 0x19
 9807 3249 932B0000 		.4byte	.LASF738
 9808 324d 33       		.byte	0x33
 9809 324e 1506     		.2byte	0x615
 9810 3250 2B090000 		.4byte	0x92b
 9811 3254 01       		.byte	0x1
 9812 3255 19       		.uleb128 0x19
 9813 3256 63190000 		.4byte	.LASF558
 9814 325a 33       		.byte	0x33
 9815 325b 1806     		.2byte	0x618
 9816 325d ED290000 		.4byte	0x29ed
 9817 3261 02       		.byte	0x2
 9818 3262 00       		.byte	0
 9819 3263 09       		.uleb128 0x9
 9820 3264 AF270000 		.4byte	.LASF739
 9821 3268 33       		.byte	0x33
 9822 3269 1B06     		.2byte	0x61b
 9823 326b 32320000 		.4byte	0x3232
 9824 326f 1C       		.uleb128 0x1c
 9825 3270 04       		.byte	0x4
 9826 3271 33       		.byte	0x33
 9827 3272 2506     		.2byte	0x625
 9828 3274 86320000 		.4byte	0x3286
ARM GAS  C:\Users\RAKIBU~1\AppData\Local\Temp\ccQ3AEax.s 			page 175


 9829 3278 19       		.uleb128 0x19
 9830 3279 602D0000 		.4byte	.LASF740
 9831 327d 33       		.byte	0x33
 9832 327e 2806     		.2byte	0x628
 9833 3280 46090000 		.4byte	0x946
 9834 3284 00       		.byte	0
 9835 3285 00       		.byte	0
 9836 3286 09       		.uleb128 0x9
 9837 3287 CA230000 		.4byte	.LASF741
 9838 328b 33       		.byte	0x33
 9839 328c 2A06     		.2byte	0x62a
 9840 328e 6F320000 		.4byte	0x326f
 9841 3292 1C       		.uleb128 0x1c
 9842 3293 04       		.byte	0x4
 9843 3294 33       		.byte	0x33
 9844 3295 3506     		.2byte	0x635
 9845 3297 B6320000 		.4byte	0x32b6
 9846 329b 19       		.uleb128 0x19
 9847 329c DA240000 		.4byte	.LASF742
 9848 32a0 33       		.byte	0x33
 9849 32a1 3606     		.2byte	0x636
 9850 32a3 3B090000 		.4byte	0x93b
 9851 32a7 00       		.byte	0
 9852 32a8 19       		.uleb128 0x19
 9853 32a9 63190000 		.4byte	.LASF558
 9854 32ad 33       		.byte	0x33
 9855 32ae 3906     		.2byte	0x639
 9856 32b0 ED290000 		.4byte	0x29ed
 9857 32b4 02       		.byte	0x2
 9858 32b5 00       		.byte	0
 9859 32b6 09       		.uleb128 0x9
 9860 32b7 EC0E0000 		.4byte	.LASF743
 9861 32bb 33       		.byte	0x33
 9862 32bc 3C06     		.2byte	0x63c
 9863 32be 92320000 		.4byte	0x3292
 9864 32c2 1C       		.uleb128 0x1c
 9865 32c3 24       		.byte	0x24
 9866 32c4 33       		.byte	0x33
 9867 32c5 6E06     		.2byte	0x66e
 9868 32c7 82330000 		.4byte	0x3382
 9869 32cb 19       		.uleb128 0x19
 9870 32cc BC120000 		.4byte	.LASF744
 9871 32d0 33       		.byte	0x33
 9872 32d1 6F06     		.2byte	0x66f
 9873 32d3 2B090000 		.4byte	0x92b
 9874 32d7 00       		.byte	0
 9875 32d8 19       		.uleb128 0x19
 9876 32d9 430E0000 		.4byte	.LASF745
 9877 32dd 33       		.byte	0x33
 9878 32de 7206     		.2byte	0x672
 9879 32e0 2B090000 		.4byte	0x92b
 9880 32e4 01       		.byte	0x1
 9881 32e5 19       		.uleb128 0x19
 9882 32e6 70210000 		.4byte	.LASF746
 9883 32ea 33       		.byte	0x33
 9884 32eb 7506     		.2byte	0x675
 9885 32ed 2B090000 		.4byte	0x92b
ARM GAS  C:\Users\RAKIBU~1\AppData\Local\Temp\ccQ3AEax.s 			page 176


 9886 32f1 02       		.byte	0x2
 9887 32f2 19       		.uleb128 0x19
 9888 32f3 DA0B0000 		.4byte	.LASF747
 9889 32f7 33       		.byte	0x33
 9890 32f8 7806     		.2byte	0x678
 9891 32fa 2B090000 		.4byte	0x92b
 9892 32fe 03       		.byte	0x3
 9893 32ff 19       		.uleb128 0x19
 9894 3300 A8300000 		.4byte	.LASF748
 9895 3304 33       		.byte	0x33
 9896 3305 7B06     		.2byte	0x67b
 9897 3307 2B090000 		.4byte	0x92b
 9898 330b 04       		.byte	0x4
 9899 330c 19       		.uleb128 0x19
 9900 330d 3A0A0000 		.4byte	.LASF749
 9901 3311 33       		.byte	0x33
 9902 3312 7E06     		.2byte	0x67e
 9903 3314 2B090000 		.4byte	0x92b
 9904 3318 05       		.byte	0x5
 9905 3319 19       		.uleb128 0x19
 9906 331a B8220000 		.4byte	.LASF750
 9907 331e 33       		.byte	0x33
 9908 331f 8106     		.2byte	0x681
 9909 3321 D9310000 		.4byte	0x31d9
 9910 3325 06       		.byte	0x6
 9911 3326 19       		.uleb128 0x19
 9912 3327 C7070000 		.4byte	.LASF751
 9913 332b 33       		.byte	0x33
 9914 332c 8406     		.2byte	0x684
 9915 332e D9310000 		.4byte	0x31d9
 9916 3332 0C       		.byte	0xc
 9917 3333 19       		.uleb128 0x19
 9918 3334 4E280000 		.4byte	.LASF731
 9919 3338 33       		.byte	0x33
 9920 3339 8706     		.2byte	0x687
 9921 333b D9310000 		.4byte	0x31d9
 9922 333f 12       		.byte	0x12
 9923 3340 19       		.uleb128 0x19
 9924 3341 FD090000 		.4byte	.LASF752
 9925 3345 33       		.byte	0x33
 9926 3346 8A06     		.2byte	0x68a
 9927 3348 3B090000 		.4byte	0x93b
 9928 334c 18       		.byte	0x18
 9929 334d 19       		.uleb128 0x19
 9930 334e 0A110000 		.4byte	.LASF753
 9931 3352 33       		.byte	0x33
 9932 3353 8D06     		.2byte	0x68d
 9933 3355 3B090000 		.4byte	0x93b
 9934 3359 1A       		.byte	0x1a
 9935 335a 19       		.uleb128 0x19
 9936 335b 36230000 		.4byte	.LASF754
 9937 335f 33       		.byte	0x33
 9938 3360 9006     		.2byte	0x690
 9939 3362 46090000 		.4byte	0x946
 9940 3366 1C       		.byte	0x1c
 9941 3367 19       		.uleb128 0x19
 9942 3368 D6250000 		.4byte	.LASF755
ARM GAS  C:\Users\RAKIBU~1\AppData\Local\Temp\ccQ3AEax.s 			page 177


 9943 336c 33       		.byte	0x33
 9944 336d 9306     		.2byte	0x693
 9945 336f 51090000 		.4byte	0x951
 9946 3373 20       		.byte	0x20
 9947 3374 19       		.uleb128 0x19
 9948 3375 0C270000 		.4byte	.LASF551
 9949 3379 33       		.byte	0x33
 9950 337a 9606     		.2byte	0x696
 9951 337c 4D290000 		.4byte	0x294d
 9952 3380 21       		.byte	0x21
 9953 3381 00       		.byte	0
 9954 3382 09       		.uleb128 0x9
 9955 3383 4D130000 		.4byte	.LASF756
 9956 3387 33       		.byte	0x33
 9957 3388 9906     		.2byte	0x699
 9958 338a C2320000 		.4byte	0x32c2
 9959 338e 1C       		.uleb128 0x1c
 9960 338f 04       		.byte	0x4
 9961 3390 33       		.byte	0x33
 9962 3391 A506     		.2byte	0x6a5
 9963 3393 B2330000 		.4byte	0x33b2
 9964 3397 19       		.uleb128 0x19
 9965 3398 FD1F0000 		.4byte	.LASF757
 9966 339c 33       		.byte	0x33
 9967 339d A606     		.2byte	0x6a6
 9968 339f 3B090000 		.4byte	0x93b
 9969 33a3 00       		.byte	0
 9970 33a4 19       		.uleb128 0x19
 9971 33a5 8F120000 		.4byte	.LASF758
 9972 33a9 33       		.byte	0x33
 9973 33aa A906     		.2byte	0x6a9
 9974 33ac 3B090000 		.4byte	0x93b
 9975 33b0 02       		.byte	0x2
 9976 33b1 00       		.byte	0
 9977 33b2 09       		.uleb128 0x9
 9978 33b3 12300000 		.4byte	.LASF759
 9979 33b7 33       		.byte	0x33
 9980 33b8 AC06     		.2byte	0x6ac
 9981 33ba 8E330000 		.4byte	0x338e
 9982 33be 1C       		.uleb128 0x1c
 9983 33bf 04       		.byte	0x4
 9984 33c0 33       		.byte	0x33
 9985 33c1 B606     		.2byte	0x6b6
 9986 33c3 E2330000 		.4byte	0x33e2
 9987 33c7 19       		.uleb128 0x19
 9988 33c8 C61A0000 		.4byte	.LASF760
 9989 33cc 33       		.byte	0x33
 9990 33cd B706     		.2byte	0x6b7
 9991 33cf 2B090000 		.4byte	0x92b
 9992 33d3 00       		.byte	0
 9993 33d4 19       		.uleb128 0x19
 9994 33d5 0C270000 		.4byte	.LASF551
 9995 33d9 33       		.byte	0x33
 9996 33da BA06     		.2byte	0x6ba
 9997 33dc 4D290000 		.4byte	0x294d
 9998 33e0 01       		.byte	0x1
 9999 33e1 00       		.byte	0
ARM GAS  C:\Users\RAKIBU~1\AppData\Local\Temp\ccQ3AEax.s 			page 178


 10000 33e2 09       		.uleb128 0x9
 10001 33e3 43030000 		.4byte	.LASF761
 10002 33e7 33       		.byte	0x33
 10003 33e8 BD06     		.2byte	0x6bd
 10004 33ea BE330000 		.4byte	0x33be
 10005 33ee 1C       		.uleb128 0x1c
 10006 33ef 88       		.byte	0x88
 10007 33f0 33       		.byte	0x33
 10008 33f1 C906     		.2byte	0x6c9
 10009 33f3 7A340000 		.4byte	0x347a
 10010 33f7 19       		.uleb128 0x19
 10011 33f8 2A200000 		.4byte	.LASF701
 10012 33fc 33       		.byte	0x33
 10013 33fd CD06     		.2byte	0x6cd
 10014 33ff 5D2F0000 		.4byte	0x2f5d
 10015 3403 00       		.byte	0
 10016 3404 19       		.uleb128 0x19
 10017 3405 C61A0000 		.4byte	.LASF760
 10018 3409 33       		.byte	0x33
 10019 340a D006     		.2byte	0x6d0
 10020 340c 2B090000 		.4byte	0x92b
 10021 3410 21       		.byte	0x21
 10022 3411 19       		.uleb128 0x19
 10023 3412 32290000 		.4byte	.LASF684
 10024 3416 33       		.byte	0x33
 10025 3417 D306     		.2byte	0x6d3
 10026 3419 2B090000 		.4byte	0x92b
 10027 341d 22       		.byte	0x22
 10028 341e 19       		.uleb128 0x19
 10029 341f 30140000 		.4byte	.LASF685
 10030 3423 33       		.byte	0x33
 10031 3424 D606     		.2byte	0x6d6
 10032 3426 2B090000 		.4byte	0x92b
 10033 342a 23       		.byte	0x23
 10034 342b 19       		.uleb128 0x19
 10035 342c C12E0000 		.4byte	.LASF686
 10036 3430 33       		.byte	0x33
 10037 3431 D906     		.2byte	0x6d9
 10038 3433 1F2E0000 		.4byte	0x2e1f
 10039 3437 24       		.byte	0x24
 10040 3438 19       		.uleb128 0x19
 10041 3439 210B0000 		.4byte	.LASF696
 10042 343d 33       		.byte	0x33
 10043 343e DC06     		.2byte	0x6dc
 10044 3440 2B090000 		.4byte	0x92b
 10045 3444 3F       		.byte	0x3f
 10046 3445 19       		.uleb128 0x19
 10047 3446 731B0000 		.4byte	.LASF762
 10048 344a 33       		.byte	0x33
 10049 344b DF06     		.2byte	0x6df
 10050 344d 2B090000 		.4byte	0x92b
 10051 3451 40       		.byte	0x40
 10052 3452 19       		.uleb128 0x19
 10053 3453 571B0000 		.4byte	.LASF763
 10054 3457 33       		.byte	0x33
 10055 3458 E206     		.2byte	0x6e2
 10056 345a 6D2F0000 		.4byte	0x2f6d
ARM GAS  C:\Users\RAKIBU~1\AppData\Local\Temp\ccQ3AEax.s 			page 179


 10057 345e 41       		.byte	0x41
 10058 345f 19       		.uleb128 0x19
 10059 3460 51120000 		.4byte	.LASF764
 10060 3464 33       		.byte	0x33
 10061 3465 E506     		.2byte	0x6e5
 10062 3467 B92E0000 		.4byte	0x2eb9
 10063 346b 45       		.byte	0x45
 10064 346c 19       		.uleb128 0x19
 10065 346d 0C270000 		.4byte	.LASF551
 10066 3471 33       		.byte	0x33
 10067 3472 E806     		.2byte	0x6e8
 10068 3474 ED290000 		.4byte	0x29ed
 10069 3478 86       		.byte	0x86
 10070 3479 00       		.byte	0
 10071 347a 09       		.uleb128 0x9
 10072 347b 0F1B0000 		.4byte	.LASF765
 10073 347f 33       		.byte	0x33
 10074 3480 EB06     		.2byte	0x6eb
 10075 3482 EE330000 		.4byte	0x33ee
 10076 3486 17       		.uleb128 0x17
 10077 3487 7A340000 		.4byte	0x347a
 10078 348b 1C       		.uleb128 0x1c
 10079 348c 08       		.byte	0x8
 10080 348d 33       		.byte	0x33
 10081 348e 2C07     		.2byte	0x72c
 10082 3490 AF340000 		.4byte	0x34af
 10083 3494 19       		.uleb128 0x19
 10084 3495 3B1F0000 		.4byte	.LASF766
 10085 3499 33       		.byte	0x33
 10086 349a 2D07     		.2byte	0x72d
 10087 349c D9310000 		.4byte	0x31d9
 10088 34a0 00       		.byte	0
 10089 34a1 19       		.uleb128 0x19
 10090 34a2 63190000 		.4byte	.LASF558
 10091 34a6 33       		.byte	0x33
 10092 34a7 3007     		.2byte	0x730
 10093 34a9 ED290000 		.4byte	0x29ed
 10094 34ad 06       		.byte	0x6
 10095 34ae 00       		.byte	0
 10096 34af 09       		.uleb128 0x9
 10097 34b0 0A160000 		.4byte	.LASF767
 10098 34b4 33       		.byte	0x33
 10099 34b5 3307     		.2byte	0x733
 10100 34b7 8B340000 		.4byte	0x348b
 10101 34bb 1C       		.uleb128 0x1c
 10102 34bc 30       		.byte	0x30
 10103 34bd 33       		.byte	0x33
 10104 34be 3F07     		.2byte	0x73f
 10105 34c0 D2340000 		.4byte	0x34d2
 10106 34c4 19       		.uleb128 0x19
 10107 34c5 0B1E0000 		.4byte	.LASF768
 10108 34c9 33       		.byte	0x33
 10109 34ca 4007     		.2byte	0x740
 10110 34cc D2340000 		.4byte	0x34d2
 10111 34d0 00       		.byte	0
 10112 34d1 00       		.byte	0
 10113 34d2 0C       		.uleb128 0xc
ARM GAS  C:\Users\RAKIBU~1\AppData\Local\Temp\ccQ3AEax.s 			page 180


 10114 34d3 2B090000 		.4byte	0x92b
 10115 34d7 E2340000 		.4byte	0x34e2
 10116 34db 0D       		.uleb128 0xd
 10117 34dc 9B000000 		.4byte	0x9b
 10118 34e0 2F       		.byte	0x2f
 10119 34e1 00       		.byte	0
 10120 34e2 09       		.uleb128 0x9
 10121 34e3 F2190000 		.4byte	.LASF769
 10122 34e7 33       		.byte	0x33
 10123 34e8 4307     		.2byte	0x743
 10124 34ea BB340000 		.4byte	0x34bb
 10125 34ee 1C       		.uleb128 0x1c
 10126 34ef 14       		.byte	0x14
 10127 34f0 33       		.byte	0x33
 10128 34f1 5007     		.2byte	0x750
 10129 34f3 39350000 		.4byte	0x3539
 10130 34f7 19       		.uleb128 0x19
 10131 34f8 61280000 		.4byte	.LASF770
 10132 34fc 33       		.byte	0x33
 10133 34fd 5107     		.2byte	0x751
 10134 34ff 46090000 		.4byte	0x946
 10135 3503 00       		.byte	0
 10136 3504 19       		.uleb128 0x19
 10137 3505 B72C0000 		.4byte	.LASF771
 10138 3509 33       		.byte	0x33
 10139 350a 5407     		.2byte	0x754
 10140 350c 46090000 		.4byte	0x946
 10141 3510 04       		.byte	0x4
 10142 3511 19       		.uleb128 0x19
 10143 3512 D00A0000 		.4byte	.LASF772
 10144 3516 33       		.byte	0x33
 10145 3517 5707     		.2byte	0x757
 10146 3519 46090000 		.4byte	0x946
 10147 351d 08       		.byte	0x8
 10148 351e 19       		.uleb128 0x19
 10149 351f 980B0000 		.4byte	.LASF773
 10150 3523 33       		.byte	0x33
 10151 3524 5A07     		.2byte	0x75a
 10152 3526 46090000 		.4byte	0x946
 10153 352a 0C       		.byte	0xc
 10154 352b 19       		.uleb128 0x19
 10155 352c A20E0000 		.4byte	.LASF774
 10156 3530 33       		.byte	0x33
 10157 3531 5D07     		.2byte	0x75d
 10158 3533 46090000 		.4byte	0x946
 10159 3537 10       		.byte	0x10
 10160 3538 00       		.byte	0
 10161 3539 09       		.uleb128 0x9
 10162 353a 56320000 		.4byte	.LASF775
 10163 353e 33       		.byte	0x33
 10164 353f 6007     		.2byte	0x760
 10165 3541 EE340000 		.4byte	0x34ee
 10166 3545 1C       		.uleb128 0x1c
 10167 3546 CC       		.byte	0xcc
 10168 3547 33       		.byte	0x33
 10169 3548 7807     		.2byte	0x778
 10170 354a 83350000 		.4byte	0x3583
ARM GAS  C:\Users\RAKIBU~1\AppData\Local\Temp\ccQ3AEax.s 			page 181


 10171 354e 19       		.uleb128 0x19
 10172 354f F0260000 		.4byte	.LASF776
 10173 3553 33       		.byte	0x33
 10174 3554 7907     		.2byte	0x779
 10175 3556 7A340000 		.4byte	0x347a
 10176 355a 00       		.byte	0
 10177 355b 19       		.uleb128 0x19
 10178 355c C81E0000 		.4byte	.LASF777
 10179 3560 33       		.byte	0x33
 10180 3561 7D07     		.2byte	0x77d
 10181 3563 83350000 		.4byte	0x3583
 10182 3567 88       		.byte	0x88
 10183 3568 19       		.uleb128 0x19
 10184 3569 9B000000 		.4byte	.LASF778
 10185 356d 33       		.byte	0x33
 10186 356e 8107     		.2byte	0x781
 10187 3570 2B090000 		.4byte	0x92b
 10188 3574 C8       		.byte	0xc8
 10189 3575 19       		.uleb128 0x19
 10190 3576 0C270000 		.4byte	.LASF551
 10191 357a 33       		.byte	0x33
 10192 357b 8807     		.2byte	0x788
 10193 357d 4D290000 		.4byte	0x294d
 10194 3581 C9       		.byte	0xc9
 10195 3582 00       		.byte	0
 10196 3583 0C       		.uleb128 0xc
 10197 3584 A7050000 		.4byte	0x5a7
 10198 3588 93350000 		.4byte	0x3593
 10199 358c 0D       		.uleb128 0xd
 10200 358d 9B000000 		.4byte	0x9b
 10201 3591 3F       		.byte	0x3f
 10202 3592 00       		.byte	0
 10203 3593 09       		.uleb128 0x9
 10204 3594 C92C0000 		.4byte	.LASF779
 10205 3598 33       		.byte	0x33
 10206 3599 8907     		.2byte	0x789
 10207 359b 45350000 		.4byte	0x3545
 10208 359f 1C       		.uleb128 0x1c
 10209 35a0 64       		.byte	0x64
 10210 35a1 33       		.byte	0x33
 10211 35a2 9307     		.2byte	0x793
 10212 35a4 DD350000 		.4byte	0x35dd
 10213 35a8 19       		.uleb128 0x19
 10214 35a9 2A200000 		.4byte	.LASF701
 10215 35ad 33       		.byte	0x33
 10216 35ae 9407     		.2byte	0x794
 10217 35b0 5D2F0000 		.4byte	0x2f5d
 10218 35b4 00       		.byte	0
 10219 35b5 19       		.uleb128 0x19
 10220 35b6 C20E0000 		.4byte	.LASF780
 10221 35ba 33       		.byte	0x33
 10222 35bb 9807     		.2byte	0x798
 10223 35bd B92E0000 		.4byte	0x2eb9
 10224 35c1 21       		.byte	0x21
 10225 35c2 19       		.uleb128 0x19
 10226 35c3 210B0000 		.4byte	.LASF696
 10227 35c7 33       		.byte	0x33
ARM GAS  C:\Users\RAKIBU~1\AppData\Local\Temp\ccQ3AEax.s 			page 182


 10228 35c8 9C07     		.2byte	0x79c
 10229 35ca 2B090000 		.4byte	0x92b
 10230 35ce 62       		.byte	0x62
 10231 35cf 19       		.uleb128 0x19
 10232 35d0 520E0000 		.4byte	.LASF781
 10233 35d4 33       		.byte	0x33
 10234 35d5 A007     		.2byte	0x7a0
 10235 35d7 2B090000 		.4byte	0x92b
 10236 35db 63       		.byte	0x63
 10237 35dc 00       		.byte	0
 10238 35dd 09       		.uleb128 0x9
 10239 35de 21090000 		.4byte	.LASF782
 10240 35e2 33       		.byte	0x33
 10241 35e3 A607     		.2byte	0x7a6
 10242 35e5 9F350000 		.4byte	0x359f
 10243 35e9 1C       		.uleb128 0x1c
 10244 35ea 30       		.byte	0x30
 10245 35eb 33       		.byte	0x33
 10246 35ec B007     		.2byte	0x7b0
 10247 35ee 41360000 		.4byte	0x3641
 10248 35f2 19       		.uleb128 0x19
 10249 35f3 0B0A0000 		.4byte	.LASF783
 10250 35f7 33       		.byte	0x33
 10251 35f8 B107     		.2byte	0x7b1
 10252 35fa 41360000 		.4byte	0x3641
 10253 35fe 00       		.byte	0
 10254 35ff 19       		.uleb128 0x19
 10255 3600 210B0000 		.4byte	.LASF696
 10256 3604 33       		.byte	0x33
 10257 3605 B307     		.2byte	0x7b3
 10258 3607 2B090000 		.4byte	0x92b
 10259 360b 21       		.byte	0x21
 10260 360c 19       		.uleb128 0x19
 10261 360d 051B0000 		.4byte	.LASF784
 10262 3611 33       		.byte	0x33
 10263 3612 B507     		.2byte	0x7b5
 10264 3614 6D2F0000 		.4byte	0x2f6d
 10265 3618 22       		.byte	0x22
 10266 3619 19       		.uleb128 0x19
 10267 361a 78020000 		.4byte	.LASF785
 10268 361e 33       		.byte	0x33
 10269 361f B707     		.2byte	0x7b7
 10270 3621 D9310000 		.4byte	0x31d9
 10271 3625 26       		.byte	0x26
 10272 3626 19       		.uleb128 0x19
 10273 3627 D6250000 		.4byte	.LASF755
 10274 362b 33       		.byte	0x33
 10275 362c B907     		.2byte	0x7b9
 10276 362e 51090000 		.4byte	0x951
 10277 3632 2C       		.byte	0x2c
 10278 3633 19       		.uleb128 0x19
 10279 3634 0C270000 		.4byte	.LASF551
 10280 3638 33       		.byte	0x33
 10281 3639 BB07     		.2byte	0x7bb
 10282 363b 4D290000 		.4byte	0x294d
 10283 363f 2D       		.byte	0x2d
 10284 3640 00       		.byte	0
ARM GAS  C:\Users\RAKIBU~1\AppData\Local\Temp\ccQ3AEax.s 			page 183


 10285 3641 0C       		.uleb128 0xc
 10286 3642 A7050000 		.4byte	0x5a7
 10287 3646 51360000 		.4byte	0x3651
 10288 364a 0D       		.uleb128 0xd
 10289 364b 9B000000 		.4byte	0x9b
 10290 364f 20       		.byte	0x20
 10291 3650 00       		.byte	0
 10292 3651 09       		.uleb128 0x9
 10293 3652 51310000 		.4byte	.LASF786
 10294 3656 33       		.byte	0x33
 10295 3657 BD07     		.2byte	0x7bd
 10296 3659 E9350000 		.4byte	0x35e9
 10297 365d 1C       		.uleb128 0x1c
 10298 365e 08       		.byte	0x8
 10299 365f 33       		.byte	0x33
 10300 3660 9E08     		.2byte	0x89e
 10301 3662 C2360000 		.4byte	0x36c2
 10302 3666 19       		.uleb128 0x19
 10303 3667 28260000 		.4byte	.LASF787
 10304 366b 33       		.byte	0x33
 10305 366c 9F08     		.2byte	0x89f
 10306 366e 3B090000 		.4byte	0x93b
 10307 3672 00       		.byte	0
 10308 3673 19       		.uleb128 0x19
 10309 3674 73100000 		.4byte	.LASF788
 10310 3678 33       		.byte	0x33
 10311 3679 A008     		.2byte	0x8a0
 10312 367b 2B090000 		.4byte	0x92b
 10313 367f 02       		.byte	0x2
 10314 3680 19       		.uleb128 0x19
 10315 3681 B0070000 		.4byte	.LASF789
 10316 3685 33       		.byte	0x33
 10317 3686 A108     		.2byte	0x8a1
 10318 3688 2B090000 		.4byte	0x92b
 10319 368c 03       		.byte	0x3
 10320 368d 19       		.uleb128 0x19
 10321 368e 2E0A0000 		.4byte	.LASF790
 10322 3692 33       		.byte	0x33
 10323 3693 A208     		.2byte	0x8a2
 10324 3695 2B090000 		.4byte	0x92b
 10325 3699 04       		.byte	0x4
 10326 369a 19       		.uleb128 0x19
 10327 369b 1C130000 		.4byte	.LASF791
 10328 369f 33       		.byte	0x33
 10329 36a0 A308     		.2byte	0x8a3
 10330 36a2 2B090000 		.4byte	0x92b
 10331 36a6 05       		.byte	0x5
 10332 36a7 19       		.uleb128 0x19
 10333 36a8 D62F0000 		.4byte	.LASF792
 10334 36ac 33       		.byte	0x33
 10335 36ad A408     		.2byte	0x8a4
 10336 36af 2B090000 		.4byte	0x92b
 10337 36b3 06       		.byte	0x6
 10338 36b4 19       		.uleb128 0x19
 10339 36b5 811C0000 		.4byte	.LASF793
 10340 36b9 33       		.byte	0x33
 10341 36ba A508     		.2byte	0x8a5
ARM GAS  C:\Users\RAKIBU~1\AppData\Local\Temp\ccQ3AEax.s 			page 184


 10342 36bc 2B090000 		.4byte	0x92b
 10343 36c0 07       		.byte	0x7
 10344 36c1 00       		.byte	0
 10345 36c2 09       		.uleb128 0x9
 10346 36c3 9F250000 		.4byte	.LASF794
 10347 36c7 33       		.byte	0x33
 10348 36c8 A608     		.2byte	0x8a6
 10349 36ca 5D360000 		.4byte	0x365d
 10350 36ce 1C       		.uleb128 0x1c
 10351 36cf 08       		.byte	0x8
 10352 36d0 33       		.byte	0x33
 10353 36d1 C408     		.2byte	0x8c4
 10354 36d3 FF360000 		.4byte	0x36ff
 10355 36d7 19       		.uleb128 0x19
 10356 36d8 F0000000 		.4byte	.LASF795
 10357 36dc 33       		.byte	0x33
 10358 36dd C808     		.2byte	0x8c8
 10359 36df FF360000 		.4byte	0x36ff
 10360 36e3 00       		.byte	0
 10361 36e4 19       		.uleb128 0x19
 10362 36e5 D5270000 		.4byte	.LASF796
 10363 36e9 33       		.byte	0x33
 10364 36ea CC08     		.2byte	0x8cc
 10365 36ec 3B090000 		.4byte	0x93b
 10366 36f0 04       		.byte	0x4
 10367 36f1 19       		.uleb128 0x19
 10368 36f2 63190000 		.4byte	.LASF558
 10369 36f6 33       		.byte	0x33
 10370 36f7 D008     		.2byte	0x8d0
 10371 36f9 ED290000 		.4byte	0x29ed
 10372 36fd 06       		.byte	0x6
 10373 36fe 00       		.byte	0
 10374 36ff 07       		.uleb128 0x7
 10375 3700 04       		.byte	0x4
 10376 3701 2B090000 		.4byte	0x92b
 10377 3705 09       		.uleb128 0x9
 10378 3706 DD100000 		.4byte	.LASF797
 10379 370a 33       		.byte	0x33
 10380 370b D108     		.2byte	0x8d1
 10381 370d CE360000 		.4byte	0x36ce
 10382 3711 1C       		.uleb128 0x1c
 10383 3712 44       		.byte	0x44
 10384 3713 33       		.byte	0x33
 10385 3714 DF08     		.2byte	0x8df
 10386 3716 42370000 		.4byte	0x3742
 10387 371a 19       		.uleb128 0x19
 10388 371b B20D0000 		.4byte	.LASF798
 10389 371f 33       		.byte	0x33
 10390 3720 E008     		.2byte	0x8e0
 10391 3722 2B090000 		.4byte	0x92b
 10392 3726 00       		.byte	0
 10393 3727 19       		.uleb128 0x19
 10394 3728 B0170000 		.4byte	.LASF799
 10395 372c 33       		.byte	0x33
 10396 372d E408     		.2byte	0x8e4
 10397 372f 42370000 		.4byte	0x3742
 10398 3733 01       		.byte	0x1
ARM GAS  C:\Users\RAKIBU~1\AppData\Local\Temp\ccQ3AEax.s 			page 185


 10399 3734 19       		.uleb128 0x19
 10400 3735 0C270000 		.4byte	.LASF551
 10401 3739 33       		.byte	0x33
 10402 373a E808     		.2byte	0x8e8
 10403 373c 4D290000 		.4byte	0x294d
 10404 3740 41       		.byte	0x41
 10405 3741 00       		.byte	0
 10406 3742 0C       		.uleb128 0xc
 10407 3743 2B090000 		.4byte	0x92b
 10408 3747 52370000 		.4byte	0x3752
 10409 374b 0D       		.uleb128 0xd
 10410 374c 9B000000 		.4byte	0x9b
 10411 3750 3F       		.byte	0x3f
 10412 3751 00       		.byte	0
 10413 3752 09       		.uleb128 0x9
 10414 3753 DE0F0000 		.4byte	.LASF800
 10415 3757 33       		.byte	0x33
 10416 3758 EC08     		.2byte	0x8ec
 10417 375a 11370000 		.4byte	0x3711
 10418 375e 2D       		.uleb128 0x2d
 10419 375f AC02     		.2byte	0x2ac
 10420 3761 33       		.byte	0x33
 10421 3762 F508     		.2byte	0x8f5
 10422 3764 AA370000 		.4byte	0x37aa
 10423 3768 19       		.uleb128 0x19
 10424 3769 F1240000 		.4byte	.LASF801
 10425 376d 33       		.byte	0x33
 10426 376e F608     		.2byte	0x8f6
 10427 3770 2B090000 		.4byte	0x92b
 10428 3774 00       		.byte	0
 10429 3775 19       		.uleb128 0x19
 10430 3776 4E220000 		.4byte	.LASF802
 10431 377a 33       		.byte	0x33
 10432 377b FA08     		.2byte	0x8fa
 10433 377d 2B090000 		.4byte	0x92b
 10434 3781 01       		.byte	0x1
 10435 3782 19       		.uleb128 0x19
 10436 3783 81130000 		.4byte	.LASF803
 10437 3787 33       		.byte	0x33
 10438 3788 FE08     		.2byte	0x8fe
 10439 378a 2B090000 		.4byte	0x92b
 10440 378e 02       		.byte	0x2
 10441 378f 19       		.uleb128 0x19
 10442 3790 88130000 		.4byte	.LASF804
 10443 3794 33       		.byte	0x33
 10444 3795 0209     		.2byte	0x902
 10445 3797 2B090000 		.4byte	0x92b
 10446 379b 03       		.byte	0x3
 10447 379c 19       		.uleb128 0x19
 10448 379d CE0E0000 		.4byte	.LASF805
 10449 37a1 33       		.byte	0x33
 10450 37a2 0609     		.2byte	0x906
 10451 37a4 AA370000 		.4byte	0x37aa
 10452 37a8 04       		.byte	0x4
 10453 37a9 00       		.byte	0
 10454 37aa 0C       		.uleb128 0xc
 10455 37ab 52370000 		.4byte	0x3752
ARM GAS  C:\Users\RAKIBU~1\AppData\Local\Temp\ccQ3AEax.s 			page 186


 10456 37af BA370000 		.4byte	0x37ba
 10457 37b3 0D       		.uleb128 0xd
 10458 37b4 9B000000 		.4byte	0x9b
 10459 37b8 09       		.byte	0x9
 10460 37b9 00       		.byte	0
 10461 37ba 09       		.uleb128 0x9
 10462 37bb 5F170000 		.4byte	.LASF806
 10463 37bf 33       		.byte	0x33
 10464 37c0 0A09     		.2byte	0x90a
 10465 37c2 5E370000 		.4byte	0x375e
 10466 37c6 0C       		.uleb128 0xc
 10467 37c7 2B090000 		.4byte	0x92b
 10468 37cb D6370000 		.4byte	0x37d6
 10469 37cf 0D       		.uleb128 0xd
 10470 37d0 9B000000 		.4byte	0x9b
 10471 37d4 07       		.byte	0x7
 10472 37d5 00       		.byte	0
 10473 37d6 0E       		.uleb128 0xe
 10474 37d7 28       		.byte	0x28
 10475 37d8 34       		.byte	0x34
 10476 37d9 34       		.byte	0x34
 10477 37da 6F380000 		.4byte	0x386f
 10478 37de 0F       		.uleb128 0xf
 10479 37df 321D0000 		.4byte	.LASF807
 10480 37e3 34       		.byte	0x34
 10481 37e4 35       		.byte	0x35
 10482 37e5 46090000 		.4byte	0x946
 10483 37e9 00       		.byte	0
 10484 37ea 0F       		.uleb128 0xf
 10485 37eb 95230000 		.4byte	.LASF808
 10486 37ef 34       		.byte	0x34
 10487 37f0 36       		.byte	0x36
 10488 37f1 2B090000 		.4byte	0x92b
 10489 37f5 04       		.byte	0x4
 10490 37f6 0F       		.uleb128 0xf
 10491 37f7 FE010000 		.4byte	.LASF809
 10492 37fb 34       		.byte	0x34
 10493 37fc 37       		.byte	0x37
 10494 37fd 2B090000 		.4byte	0x92b
 10495 3801 05       		.byte	0x5
 10496 3802 0F       		.uleb128 0xf
 10497 3803 E42C0000 		.4byte	.LASF810
 10498 3807 34       		.byte	0x34
 10499 3808 38       		.byte	0x38
 10500 3809 2B090000 		.4byte	0x92b
 10501 380d 06       		.byte	0x6
 10502 380e 0F       		.uleb128 0xf
 10503 380f 6A0C0000 		.4byte	.LASF811
 10504 3813 34       		.byte	0x34
 10505 3814 39       		.byte	0x39
 10506 3815 2B090000 		.4byte	0x92b
 10507 3819 07       		.byte	0x7
 10508 381a 0F       		.uleb128 0xf
 10509 381b 8E240000 		.4byte	.LASF812
 10510 381f 34       		.byte	0x34
 10511 3820 3A       		.byte	0x3a
 10512 3821 2B090000 		.4byte	0x92b
ARM GAS  C:\Users\RAKIBU~1\AppData\Local\Temp\ccQ3AEax.s 			page 187


 10513 3825 08       		.byte	0x8
 10514 3826 0F       		.uleb128 0xf
 10515 3827 E6120000 		.4byte	.LASF813
 10516 382b 34       		.byte	0x34
 10517 382c 3B       		.byte	0x3b
 10518 382d 2B090000 		.4byte	0x92b
 10519 3831 09       		.byte	0x9
 10520 3832 0F       		.uleb128 0xf
 10521 3833 8A090000 		.4byte	.LASF814
 10522 3837 34       		.byte	0x34
 10523 3838 3C       		.byte	0x3c
 10524 3839 6F380000 		.4byte	0x386f
 10525 383d 0A       		.byte	0xa
 10526 383e 0F       		.uleb128 0xf
 10527 383f 38220000 		.4byte	.LASF815
 10528 3843 34       		.byte	0x34
 10529 3844 3D       		.byte	0x3d
 10530 3845 7F380000 		.4byte	0x387f
 10531 3849 16       		.byte	0x16
 10532 384a 0F       		.uleb128 0xf
 10533 384b 892A0000 		.4byte	.LASF732
 10534 384f 34       		.byte	0x34
 10535 3850 3E       		.byte	0x3e
 10536 3851 2B090000 		.4byte	0x92b
 10537 3855 1F       		.byte	0x1f
 10538 3856 0F       		.uleb128 0xf
 10539 3857 F32A0000 		.4byte	.LASF816
 10540 385b 34       		.byte	0x34
 10541 385c 3F       		.byte	0x3f
 10542 385d 3B090000 		.4byte	0x93b
 10543 3861 20       		.byte	0x20
 10544 3862 0F       		.uleb128 0xf
 10545 3863 29190000 		.4byte	.LASF817
 10546 3867 34       		.byte	0x34
 10547 3868 40       		.byte	0x40
 10548 3869 8F380000 		.4byte	0x388f
 10549 386d 22       		.byte	0x22
 10550 386e 00       		.byte	0
 10551 386f 0C       		.uleb128 0xc
 10552 3870 2B090000 		.4byte	0x92b
 10553 3874 7F380000 		.4byte	0x387f
 10554 3878 0D       		.uleb128 0xd
 10555 3879 9B000000 		.4byte	0x9b
 10556 387d 0B       		.byte	0xb
 10557 387e 00       		.byte	0
 10558 387f 0C       		.uleb128 0xc
 10559 3880 2B090000 		.4byte	0x92b
 10560 3884 8F380000 		.4byte	0x388f
 10561 3888 0D       		.uleb128 0xd
 10562 3889 9B000000 		.4byte	0x9b
 10563 388d 08       		.byte	0x8
 10564 388e 00       		.byte	0
 10565 388f 0C       		.uleb128 0xc
 10566 3890 3B090000 		.4byte	0x93b
 10567 3894 9F380000 		.4byte	0x389f
 10568 3898 0D       		.uleb128 0xd
 10569 3899 9B000000 		.4byte	0x9b
ARM GAS  C:\Users\RAKIBU~1\AppData\Local\Temp\ccQ3AEax.s 			page 188


 10570 389d 01       		.byte	0x1
 10571 389e 00       		.byte	0
 10572 389f 03       		.uleb128 0x3
 10573 38a0 BC0C0000 		.4byte	.LASF818
 10574 38a4 34       		.byte	0x34
 10575 38a5 41       		.byte	0x41
 10576 38a6 D6370000 		.4byte	0x37d6
 10577 38aa 09       		.uleb128 0x9
 10578 38ab EB1F0000 		.4byte	.LASF819
 10579 38af 35       		.byte	0x35
 10580 38b0 DD01     		.2byte	0x1dd
 10581 38b2 B6380000 		.4byte	0x38b6
 10582 38b6 07       		.uleb128 0x7
 10583 38b7 04       		.byte	0x4
 10584 38b8 BC380000 		.4byte	0x38bc
 10585 38bc 1F       		.uleb128 0x1f
 10586 38bd CC380000 		.4byte	0x38cc
 10587 38c1 16       		.uleb128 0x16
 10588 38c2 2B090000 		.4byte	0x92b
 10589 38c6 16       		.uleb128 0x16
 10590 38c7 B9000000 		.4byte	0xb9
 10591 38cb 00       		.byte	0
 10592 38cc 09       		.uleb128 0x9
 10593 38cd 440D0000 		.4byte	.LASF820
 10594 38d1 35       		.byte	0x35
 10595 38d2 FC01     		.2byte	0x1fc
 10596 38d4 D8380000 		.4byte	0x38d8
 10597 38d8 07       		.uleb128 0x7
 10598 38d9 04       		.byte	0x4
 10599 38da DE380000 		.4byte	0x38de
 10600 38de 1F       		.uleb128 0x1f
 10601 38df F3380000 		.4byte	0x38f3
 10602 38e3 16       		.uleb128 0x16
 10603 38e4 2B090000 		.4byte	0x92b
 10604 38e8 16       		.uleb128 0x16
 10605 38e9 B9000000 		.4byte	0xb9
 10606 38ed 16       		.uleb128 0x16
 10607 38ee B9000000 		.4byte	0xb9
 10608 38f2 00       		.byte	0
 10609 38f3 09       		.uleb128 0x9
 10610 38f4 3F2F0000 		.4byte	.LASF821
 10611 38f8 35       		.byte	0x35
 10612 38f9 1902     		.2byte	0x219
 10613 38fb FF380000 		.4byte	0x38ff
 10614 38ff 07       		.uleb128 0x7
 10615 3900 04       		.byte	0x4
 10616 3901 05390000 		.4byte	0x3905
 10617 3905 1F       		.uleb128 0x1f
 10618 3906 1A390000 		.4byte	0x391a
 10619 390a 16       		.uleb128 0x16
 10620 390b 1A390000 		.4byte	0x391a
 10621 390f 16       		.uleb128 0x16
 10622 3910 FF360000 		.4byte	0x36ff
 10623 3914 16       		.uleb128 0x16
 10624 3915 3B090000 		.4byte	0x93b
 10625 3919 00       		.byte	0
 10626 391a 07       		.uleb128 0x7
ARM GAS  C:\Users\RAKIBU~1\AppData\Local\Temp\ccQ3AEax.s 			page 189


 10627 391b 04       		.byte	0x4
 10628 391c 82330000 		.4byte	0x3382
 10629 3920 1C       		.uleb128 0x1c
 10630 3921 10       		.byte	0x10
 10631 3922 35       		.byte	0x35
 10632 3923 2F02     		.2byte	0x22f
 10633 3925 78390000 		.4byte	0x3978
 10634 3929 19       		.uleb128 0x19
 10635 392a 33250000 		.4byte	.LASF822
 10636 392e 35       		.byte	0x35
 10637 392f 3002     		.2byte	0x230
 10638 3931 AA380000 		.4byte	0x38aa
 10639 3935 00       		.byte	0
 10640 3936 19       		.uleb128 0x19
 10641 3937 D8180000 		.4byte	.LASF823
 10642 393b 35       		.byte	0x35
 10643 393c 3402     		.2byte	0x234
 10644 393e CC380000 		.4byte	0x38cc
 10645 3942 04       		.byte	0x4
 10646 3943 19       		.uleb128 0x19
 10647 3944 5C260000 		.4byte	.LASF824
 10648 3948 35       		.byte	0x35
 10649 3949 3802     		.2byte	0x238
 10650 394b FF360000 		.4byte	0x36ff
 10651 394f 08       		.byte	0x8
 10652 3950 19       		.uleb128 0x19
 10653 3951 28170000 		.4byte	.LASF825
 10654 3955 35       		.byte	0x35
 10655 3956 3C02     		.2byte	0x23c
 10656 3958 3B090000 		.4byte	0x93b
 10657 395c 0C       		.byte	0xc
 10658 395d 19       		.uleb128 0x19
 10659 395e 57230000 		.4byte	.LASF826
 10660 3962 35       		.byte	0x35
 10661 3963 4002     		.2byte	0x240
 10662 3965 2B090000 		.4byte	0x92b
 10663 3969 0E       		.byte	0xe
 10664 396a 19       		.uleb128 0x19
 10665 396b 811C0000 		.4byte	.LASF793
 10666 396f 35       		.byte	0x35
 10667 3970 4402     		.2byte	0x244
 10668 3972 2B090000 		.4byte	0x92b
 10669 3976 0F       		.byte	0xf
 10670 3977 00       		.byte	0
 10671 3978 09       		.uleb128 0x9
 10672 3979 CC100000 		.4byte	.LASF827
 10673 397d 35       		.byte	0x35
 10674 397e 4802     		.2byte	0x248
 10675 3980 20390000 		.4byte	0x3920
 10676 3984 1C       		.uleb128 0x1c
 10677 3985 18       		.byte	0x18
 10678 3986 35       		.byte	0x35
 10679 3987 7B02     		.2byte	0x27b
 10680 3989 B5390000 		.4byte	0x39b5
 10681 398d 19       		.uleb128 0x19
 10682 398e 33250000 		.4byte	.LASF822
 10683 3992 35       		.byte	0x35
ARM GAS  C:\Users\RAKIBU~1\AppData\Local\Temp\ccQ3AEax.s 			page 190


 10684 3993 7C02     		.2byte	0x27c
 10685 3995 AA380000 		.4byte	0x38aa
 10686 3999 00       		.byte	0
 10687 399a 19       		.uleb128 0x19
 10688 399b 16090000 		.4byte	.LASF828
 10689 399f 35       		.byte	0x35
 10690 39a0 8002     		.2byte	0x280
 10691 39a2 F3380000 		.4byte	0x38f3
 10692 39a6 04       		.byte	0x4
 10693 39a7 19       		.uleb128 0x19
 10694 39a8 D41F0000 		.4byte	.LASF829
 10695 39ac 35       		.byte	0x35
 10696 39ad 8402     		.2byte	0x284
 10697 39af 78390000 		.4byte	0x3978
 10698 39b3 08       		.byte	0x8
 10699 39b4 00       		.byte	0
 10700 39b5 09       		.uleb128 0x9
 10701 39b6 C0190000 		.4byte	.LASF830
 10702 39ba 35       		.byte	0x35
 10703 39bb 8902     		.2byte	0x289
 10704 39bd 84390000 		.4byte	0x3984
 10705 39c1 2E       		.uleb128 0x2e
 10706 39c2 72130000 		.4byte	.LASF831
 10707 39c6 01       		.byte	0x1
 10708 39c7 31       		.byte	0x31
 10709 39c8 36090000 		.4byte	0x936
 10710 39cc 05       		.uleb128 0x5
 10711 39cd 03       		.byte	0x3
 10712 39ce 05000000 		.4byte	gu8ChNum
 10713 39d2 2E       		.uleb128 0x2e
 10714 39d3 74270000 		.4byte	.LASF832
 10715 39d7 01       		.byte	0x1
 10716 39d8 32       		.byte	0x32
 10717 39d9 36090000 		.4byte	0x936
 10718 39dd 05       		.uleb128 0x5
 10719 39de 03       		.byte	0x3
 10720 39df 04000000 		.4byte	gu8scanInProgress
 10721 39e3 2E       		.uleb128 0x2e
 10722 39e4 8D040000 		.4byte	.LASF833
 10723 39e8 01       		.byte	0x1
 10724 39e9 33       		.byte	0x33
 10725 39ea AA380000 		.4byte	0x38aa
 10726 39ee 05       		.uleb128 0x5
 10727 39ef 03       		.byte	0x3
 10728 39f0 00000000 		.4byte	gpfAppWifiCb
 10729 39f4 2F       		.uleb128 0x2f
 10730 39f5 79280000 		.4byte	.LASF836
 10731 39f9 01       		.byte	0x1
 10732 39fa 4305     		.2byte	0x543
 10733 39fc 51090000 		.4byte	0x951
 10734 3a00 100E0000 		.4byte	.LFB385
 10735 3a04 40000000 		.4byte	.LFE385-.LFB385
 10736 3a08 01       		.uleb128 0x1
 10737 3a09 9C       		.byte	0x9c
 10738 3a0a 803A0000 		.4byte	0x3a80
 10739 3a0e 30       		.uleb128 0x30
 10740 3a0f 1E150000 		.4byte	.LASF834
ARM GAS  C:\Users\RAKIBU~1\AppData\Local\Temp\ccQ3AEax.s 			page 191


 10741 3a13 01       		.byte	0x1
 10742 3a14 4305     		.2byte	0x543
 10743 3a16 FF360000 		.4byte	0x36ff
 10744 3a1a 00000000 		.4byte	.LLST101
 10745 3a1e 30       		.uleb128 0x30
 10746 3a1f D5270000 		.4byte	.LASF796
 10747 3a23 01       		.byte	0x1
 10748 3a24 4305     		.2byte	0x543
 10749 3a26 3B090000 		.4byte	0x93b
 10750 3a2a 5F000000 		.4byte	.LLST102
 10751 3a2e 31       		.uleb128 0x31
 10752 3a2f 72657400 		.ascii	"ret\000"
 10753 3a33 01       		.byte	0x1
 10754 3a34 4505     		.2byte	0x545
 10755 3a36 51090000 		.4byte	0x951
 10756 3a3a 97000000 		.4byte	.LLST103
 10757 3a3e 32       		.uleb128 0x32
 10758 3a3f 21170000 		.4byte	.LASF835
 10759 3a43 01       		.byte	0x1
 10760 3a44 4605     		.2byte	0x546
 10761 3a46 05370000 		.4byte	0x3705
 10762 3a4a 02       		.uleb128 0x2
 10763 3a4b 91       		.byte	0x91
 10764 3a4c 70       		.sleb128 -16
 10765 3a4d 33       		.uleb128 0x33
 10766 3a4e 3E0E0000 		.4byte	.LVL374
 10767 3a52 1A580000 		.4byte	0x581a
 10768 3a56 34       		.uleb128 0x34
 10769 3a57 01       		.uleb128 0x1
 10770 3a58 50       		.byte	0x50
 10771 3a59 01       		.uleb128 0x1
 10772 3a5a 31       		.byte	0x31
 10773 3a5b 34       		.uleb128 0x34
 10774 3a5c 01       		.uleb128 0x1
 10775 3a5d 51       		.byte	0x51
 10776 3a5e 02       		.uleb128 0x2
 10777 3a5f 09       		.byte	0x9
 10778 3a60 9F       		.byte	0x9f
 10779 3a61 34       		.uleb128 0x34
 10780 3a62 01       		.uleb128 0x1
 10781 3a63 52       		.byte	0x52
 10782 3a64 02       		.uleb128 0x2
 10783 3a65 91       		.byte	0x91
 10784 3a66 70       		.sleb128 -16
 10785 3a67 34       		.uleb128 0x34
 10786 3a68 01       		.uleb128 0x1
 10787 3a69 53       		.byte	0x53
 10788 3a6a 01       		.uleb128 0x1
 10789 3a6b 38       		.byte	0x38
 10790 3a6c 34       		.uleb128 0x34
 10791 3a6d 02       		.uleb128 0x2
 10792 3a6e 7D       		.byte	0x7d
 10793 3a6f 00       		.sleb128 0
 10794 3a70 01       		.uleb128 0x1
 10795 3a71 30       		.byte	0x30
 10796 3a72 34       		.uleb128 0x34
 10797 3a73 02       		.uleb128 0x2
ARM GAS  C:\Users\RAKIBU~1\AppData\Local\Temp\ccQ3AEax.s 			page 192


 10798 3a74 7D       		.byte	0x7d
 10799 3a75 04       		.sleb128 4
 10800 3a76 01       		.uleb128 0x1
 10801 3a77 30       		.byte	0x30
 10802 3a78 34       		.uleb128 0x34
 10803 3a79 02       		.uleb128 0x2
 10804 3a7a 7D       		.byte	0x7d
 10805 3a7b 08       		.sleb128 8
 10806 3a7c 01       		.uleb128 0x1
 10807 3a7d 30       		.byte	0x30
 10808 3a7e 00       		.byte	0
 10809 3a7f 00       		.byte	0
 10810 3a80 2F       		.uleb128 0x2f
 10811 3a81 AF040000 		.4byte	.LASF837
 10812 3a85 01       		.byte	0x1
 10813 3a86 3205     		.2byte	0x532
 10814 3a88 51090000 		.4byte	0x951
 10815 3a8c E00D0000 		.4byte	.LFB384
 10816 3a90 26000000 		.4byte	.LFE384-.LFB384
 10817 3a94 01       		.uleb128 0x1
 10818 3a95 9C       		.byte	0x9c
 10819 3a96 FB3A0000 		.4byte	0x3afb
 10820 3a9a 30       		.uleb128 0x30
 10821 3a9b C02A0000 		.4byte	.LASF838
 10822 3a9f 01       		.byte	0x1
 10823 3aa0 3205     		.2byte	0x532
 10824 3aa2 3B090000 		.4byte	0x93b
 10825 3aa6 C4000000 		.4byte	.LLST99
 10826 3aaa 31       		.uleb128 0x31
 10827 3aab 72657400 		.ascii	"ret\000"
 10828 3aaf 01       		.byte	0x1
 10829 3ab0 3405     		.2byte	0x534
 10830 3ab2 51090000 		.4byte	0x951
 10831 3ab6 F1000000 		.4byte	.LLST100
 10832 3aba 32       		.uleb128 0x32
 10833 3abb 69120000 		.4byte	.LASF839
 10834 3abf 01       		.byte	0x1
 10835 3ac0 3505     		.2byte	0x535
 10836 3ac2 FD290000 		.4byte	0x29fd
 10837 3ac6 02       		.uleb128 0x2
 10838 3ac7 91       		.byte	0x91
 10839 3ac8 74       		.sleb128 -12
 10840 3ac9 33       		.uleb128 0x33
 10841 3aca 000E0000 		.4byte	.LVL369
 10842 3ace 1A580000 		.4byte	0x581a
 10843 3ad2 34       		.uleb128 0x34
 10844 3ad3 01       		.uleb128 0x1
 10845 3ad4 50       		.byte	0x50
 10846 3ad5 01       		.uleb128 0x1
 10847 3ad6 31       		.byte	0x31
 10848 3ad7 34       		.uleb128 0x34
 10849 3ad8 01       		.uleb128 0x1
 10850 3ad9 51       		.byte	0x51
 10851 3ada 01       		.uleb128 0x1
 10852 3adb 48       		.byte	0x48
 10853 3adc 34       		.uleb128 0x34
 10854 3add 01       		.uleb128 0x1
ARM GAS  C:\Users\RAKIBU~1\AppData\Local\Temp\ccQ3AEax.s 			page 193


 10855 3ade 52       		.byte	0x52
 10856 3adf 02       		.uleb128 0x2
 10857 3ae0 91       		.byte	0x91
 10858 3ae1 74       		.sleb128 -12
 10859 3ae2 34       		.uleb128 0x34
 10860 3ae3 01       		.uleb128 0x1
 10861 3ae4 53       		.byte	0x53
 10862 3ae5 01       		.uleb128 0x1
 10863 3ae6 34       		.byte	0x34
 10864 3ae7 34       		.uleb128 0x34
 10865 3ae8 02       		.uleb128 0x2
 10866 3ae9 7D       		.byte	0x7d
 10867 3aea 00       		.sleb128 0
 10868 3aeb 01       		.uleb128 0x1
 10869 3aec 30       		.byte	0x30
 10870 3aed 34       		.uleb128 0x34
 10871 3aee 02       		.uleb128 0x2
 10872 3aef 7D       		.byte	0x7d
 10873 3af0 04       		.sleb128 4
 10874 3af1 01       		.uleb128 0x1
 10875 3af2 30       		.byte	0x30
 10876 3af3 34       		.uleb128 0x34
 10877 3af4 02       		.uleb128 0x2
 10878 3af5 7D       		.byte	0x7d
 10879 3af6 08       		.sleb128 8
 10880 3af7 01       		.uleb128 0x1
 10881 3af8 30       		.byte	0x30
 10882 3af9 00       		.byte	0
 10883 3afa 00       		.byte	0
 10884 3afb 2F       		.uleb128 0x2f
 10885 3afc 23240000 		.4byte	.LASF840
 10886 3b00 01       		.byte	0x1
 10887 3b01 1E05     		.2byte	0x51e
 10888 3b03 51090000 		.4byte	0x951
 10889 3b07 B00D0000 		.4byte	.LFB383
 10890 3b0b 22000000 		.4byte	.LFE383-.LFB383
 10891 3b0f 01       		.uleb128 0x1
 10892 3b10 9C       		.byte	0x9c
 10893 3b11 763B0000 		.4byte	0x3b76
 10894 3b15 30       		.uleb128 0x30
 10895 3b16 8A300000 		.4byte	.LASF555
 10896 3b1a 01       		.byte	0x1
 10897 3b1b 1E05     		.2byte	0x51e
 10898 3b1d 2B090000 		.4byte	0x92b
 10899 3b21 10010000 		.4byte	.LLST97
 10900 3b25 31       		.uleb128 0x31
 10901 3b26 72657400 		.ascii	"ret\000"
 10902 3b2a 01       		.byte	0x1
 10903 3b2b 2005     		.2byte	0x520
 10904 3b2d 51090000 		.4byte	0x951
 10905 3b31 3D010000 		.4byte	.LLST98
 10906 3b35 32       		.uleb128 0x32
 10907 3b36 DD310000 		.4byte	.LASF841
 10908 3b3a 01       		.byte	0x1
 10909 3b3b 2105     		.2byte	0x521
 10910 3b3d BD290000 		.4byte	0x29bd
 10911 3b41 02       		.uleb128 0x2
ARM GAS  C:\Users\RAKIBU~1\AppData\Local\Temp\ccQ3AEax.s 			page 194


 10912 3b42 91       		.byte	0x91
 10913 3b43 74       		.sleb128 -12
 10914 3b44 33       		.uleb128 0x33
 10915 3b45 CC0D0000 		.4byte	.LVL365
 10916 3b49 1A580000 		.4byte	0x581a
 10917 3b4d 34       		.uleb128 0x34
 10918 3b4e 01       		.uleb128 0x1
 10919 3b4f 50       		.byte	0x50
 10920 3b50 01       		.uleb128 0x1
 10921 3b51 31       		.byte	0x31
 10922 3b52 34       		.uleb128 0x34
 10923 3b53 01       		.uleb128 0x1
 10924 3b54 51       		.byte	0x51
 10925 3b55 01       		.uleb128 0x1
 10926 3b56 49       		.byte	0x49
 10927 3b57 34       		.uleb128 0x34
 10928 3b58 01       		.uleb128 0x1
 10929 3b59 52       		.byte	0x52
 10930 3b5a 02       		.uleb128 0x2
 10931 3b5b 91       		.byte	0x91
 10932 3b5c 74       		.sleb128 -12
 10933 3b5d 34       		.uleb128 0x34
 10934 3b5e 01       		.uleb128 0x1
 10935 3b5f 53       		.byte	0x53
 10936 3b60 01       		.uleb128 0x1
 10937 3b61 34       		.byte	0x34
 10938 3b62 34       		.uleb128 0x34
 10939 3b63 02       		.uleb128 0x2
 10940 3b64 7D       		.byte	0x7d
 10941 3b65 00       		.sleb128 0
 10942 3b66 01       		.uleb128 0x1
 10943 3b67 30       		.byte	0x30
 10944 3b68 34       		.uleb128 0x34
 10945 3b69 02       		.uleb128 0x2
 10946 3b6a 7D       		.byte	0x7d
 10947 3b6b 04       		.sleb128 4
 10948 3b6c 01       		.uleb128 0x1
 10949 3b6d 30       		.byte	0x30
 10950 3b6e 34       		.uleb128 0x34
 10951 3b6f 02       		.uleb128 0x2
 10952 3b70 7D       		.byte	0x7d
 10953 3b71 08       		.sleb128 8
 10954 3b72 01       		.uleb128 0x1
 10955 3b73 30       		.byte	0x30
 10956 3b74 00       		.byte	0
 10957 3b75 00       		.byte	0
 10958 3b76 2F       		.uleb128 0x2f
 10959 3b77 AE080000 		.4byte	.LASF842
 10960 3b7b 01       		.byte	0x1
 10961 3b7c 0A05     		.2byte	0x50a
 10962 3b7e 51090000 		.4byte	0x951
 10963 3b82 800D0000 		.4byte	.LFB382
 10964 3b86 22000000 		.4byte	.LFE382-.LFB382
 10965 3b8a 01       		.uleb128 0x1
 10966 3b8b 9C       		.byte	0x9c
 10967 3b8c F13B0000 		.4byte	0x3bf1
 10968 3b90 30       		.uleb128 0x30
ARM GAS  C:\Users\RAKIBU~1\AppData\Local\Temp\ccQ3AEax.s 			page 195


 10969 3b91 87140000 		.4byte	.LASF553
 10970 3b95 01       		.byte	0x1
 10971 3b96 0A05     		.2byte	0x50a
 10972 3b98 2B090000 		.4byte	0x92b
 10973 3b9c 5C010000 		.4byte	.LLST95
 10974 3ba0 31       		.uleb128 0x31
 10975 3ba1 72657400 		.ascii	"ret\000"
 10976 3ba5 01       		.byte	0x1
 10977 3ba6 0C05     		.2byte	0x50c
 10978 3ba8 51090000 		.4byte	0x951
 10979 3bac 89010000 		.4byte	.LLST96
 10980 3bb0 32       		.uleb128 0x32
 10981 3bb1 B6070000 		.4byte	.LASF843
 10982 3bb5 01       		.byte	0x1
 10983 3bb6 0D05     		.2byte	0x50d
 10984 3bb8 8D290000 		.4byte	0x298d
 10985 3bbc 02       		.uleb128 0x2
 10986 3bbd 91       		.byte	0x91
 10987 3bbe 74       		.sleb128 -12
 10988 3bbf 33       		.uleb128 0x33
 10989 3bc0 9C0D0000 		.4byte	.LVL361
 10990 3bc4 1A580000 		.4byte	0x581a
 10991 3bc8 34       		.uleb128 0x34
 10992 3bc9 01       		.uleb128 0x1
 10993 3bca 50       		.byte	0x50
 10994 3bcb 01       		.uleb128 0x1
 10995 3bcc 31       		.byte	0x31
 10996 3bcd 34       		.uleb128 0x34
 10997 3bce 01       		.uleb128 0x1
 10998 3bcf 51       		.byte	0x51
 10999 3bd0 01       		.uleb128 0x1
 11000 3bd1 47       		.byte	0x47
 11001 3bd2 34       		.uleb128 0x34
 11002 3bd3 01       		.uleb128 0x1
 11003 3bd4 52       		.byte	0x52
 11004 3bd5 02       		.uleb128 0x2
 11005 3bd6 91       		.byte	0x91
 11006 3bd7 74       		.sleb128 -12
 11007 3bd8 34       		.uleb128 0x34
 11008 3bd9 01       		.uleb128 0x1
 11009 3bda 53       		.byte	0x53
 11010 3bdb 01       		.uleb128 0x1
 11011 3bdc 34       		.byte	0x34
 11012 3bdd 34       		.uleb128 0x34
 11013 3bde 02       		.uleb128 0x2
 11014 3bdf 7D       		.byte	0x7d
 11015 3be0 00       		.sleb128 0
 11016 3be1 01       		.uleb128 0x1
 11017 3be2 30       		.byte	0x30
 11018 3be3 34       		.uleb128 0x34
 11019 3be4 02       		.uleb128 0x2
 11020 3be5 7D       		.byte	0x7d
 11021 3be6 04       		.sleb128 4
 11022 3be7 01       		.uleb128 0x1
 11023 3be8 30       		.byte	0x30
 11024 3be9 34       		.uleb128 0x34
 11025 3bea 02       		.uleb128 0x2
ARM GAS  C:\Users\RAKIBU~1\AppData\Local\Temp\ccQ3AEax.s 			page 196


 11026 3beb 7D       		.byte	0x7d
 11027 3bec 08       		.sleb128 8
 11028 3bed 01       		.uleb128 0x1
 11029 3bee 30       		.byte	0x30
 11030 3bef 00       		.byte	0
 11031 3bf0 00       		.byte	0
 11032 3bf1 2F       		.uleb128 0x2f
 11033 3bf2 8F130000 		.4byte	.LASF844
 11034 3bf6 01       		.byte	0x1
 11035 3bf7 F804     		.2byte	0x4f8
 11036 3bf9 51090000 		.4byte	0x951
 11037 3bfd 500D0000 		.4byte	.LFB381
 11038 3c01 22000000 		.4byte	.LFE381-.LFB381
 11039 3c05 01       		.uleb128 0x1
 11040 3c06 9C       		.byte	0x9c
 11041 3c07 6C3C0000 		.4byte	0x3c6c
 11042 3c0b 30       		.uleb128 0x30
 11043 3c0c 9A040000 		.4byte	.LASF550
 11044 3c10 01       		.byte	0x1
 11045 3c11 F804     		.2byte	0x4f8
 11046 3c13 2B090000 		.4byte	0x92b
 11047 3c17 A8010000 		.4byte	.LLST93
 11048 3c1b 31       		.uleb128 0x31
 11049 3c1c 72657400 		.ascii	"ret\000"
 11050 3c20 01       		.byte	0x1
 11051 3c21 FA04     		.2byte	0x4fa
 11052 3c23 51090000 		.4byte	0x951
 11053 3c27 D5010000 		.4byte	.LLST94
 11054 3c2b 32       		.uleb128 0x32
 11055 3c2c DE060000 		.4byte	.LASF845
 11056 3c30 01       		.byte	0x1
 11057 3c31 FB04     		.2byte	0x4fb
 11058 3c33 5D290000 		.4byte	0x295d
 11059 3c37 02       		.uleb128 0x2
 11060 3c38 91       		.byte	0x91
 11061 3c39 74       		.sleb128 -12
 11062 3c3a 33       		.uleb128 0x33
 11063 3c3b 6C0D0000 		.4byte	.LVL357
 11064 3c3f 1A580000 		.4byte	0x581a
 11065 3c43 34       		.uleb128 0x34
 11066 3c44 01       		.uleb128 0x1
 11067 3c45 50       		.byte	0x50
 11068 3c46 01       		.uleb128 0x1
 11069 3c47 31       		.byte	0x31
 11070 3c48 34       		.uleb128 0x34
 11071 3c49 01       		.uleb128 0x1
 11072 3c4a 51       		.byte	0x51
 11073 3c4b 01       		.uleb128 0x1
 11074 3c4c 46       		.byte	0x46
 11075 3c4d 34       		.uleb128 0x34
 11076 3c4e 01       		.uleb128 0x1
 11077 3c4f 52       		.byte	0x52
 11078 3c50 02       		.uleb128 0x2
 11079 3c51 91       		.byte	0x91
 11080 3c52 74       		.sleb128 -12
 11081 3c53 34       		.uleb128 0x34
 11082 3c54 01       		.uleb128 0x1
ARM GAS  C:\Users\RAKIBU~1\AppData\Local\Temp\ccQ3AEax.s 			page 197


 11083 3c55 53       		.byte	0x53
 11084 3c56 01       		.uleb128 0x1
 11085 3c57 34       		.byte	0x34
 11086 3c58 34       		.uleb128 0x34
 11087 3c59 02       		.uleb128 0x2
 11088 3c5a 7D       		.byte	0x7d
 11089 3c5b 00       		.sleb128 0
 11090 3c5c 01       		.uleb128 0x1
 11091 3c5d 30       		.byte	0x30
 11092 3c5e 34       		.uleb128 0x34
 11093 3c5f 02       		.uleb128 0x2
 11094 3c60 7D       		.byte	0x7d
 11095 3c61 04       		.sleb128 4
 11096 3c62 01       		.uleb128 0x1
 11097 3c63 30       		.byte	0x30
 11098 3c64 34       		.uleb128 0x34
 11099 3c65 02       		.uleb128 0x2
 11100 3c66 7D       		.byte	0x7d
 11101 3c67 08       		.sleb128 8
 11102 3c68 01       		.uleb128 0x1
 11103 3c69 30       		.byte	0x30
 11104 3c6a 00       		.byte	0
 11105 3c6b 00       		.byte	0
 11106 3c6c 2F       		.uleb128 0x2f
 11107 3c6d 3E1A0000 		.4byte	.LASF846
 11108 3c71 01       		.byte	0x1
 11109 3c72 E604     		.2byte	0x4e6
 11110 3c74 51090000 		.4byte	0x951
 11111 3c78 200D0000 		.4byte	.LFB380
 11112 3c7c 22000000 		.4byte	.LFE380-.LFB380
 11113 3c80 01       		.uleb128 0x1
 11114 3c81 9C       		.byte	0x9c
 11115 3c82 D23C0000 		.4byte	0x3cd2
 11116 3c86 30       		.uleb128 0x30
 11117 3c87 F82F0000 		.4byte	.LASF847
 11118 3c8b 01       		.byte	0x1
 11119 3c8c E604     		.2byte	0x4e6
 11120 3c8e 2B090000 		.4byte	0x92b
 11121 3c92 F4010000 		.4byte	.LLST91
 11122 3c96 35       		.uleb128 0x35
 11123 3c97 8A1C0000 		.4byte	.LASF848
 11124 3c9b 01       		.byte	0x1
 11125 3c9c E804     		.2byte	0x4e8
 11126 3c9e 2B090000 		.4byte	0x92b
 11127 3ca2 20020000 		.4byte	.LLST92
 11128 3ca6 33       		.uleb128 0x33
 11129 3ca7 380D0000 		.4byte	.LVL352
 11130 3cab 1A580000 		.4byte	0x581a
 11131 3caf 34       		.uleb128 0x34
 11132 3cb0 01       		.uleb128 0x1
 11133 3cb1 50       		.byte	0x50
 11134 3cb2 01       		.uleb128 0x1
 11135 3cb3 31       		.byte	0x31
 11136 3cb4 34       		.uleb128 0x34
 11137 3cb5 01       		.uleb128 0x1
 11138 3cb6 52       		.byte	0x52
 11139 3cb7 01       		.uleb128 0x1
ARM GAS  C:\Users\RAKIBU~1\AppData\Local\Temp\ccQ3AEax.s 			page 198


 11140 3cb8 30       		.byte	0x30
 11141 3cb9 34       		.uleb128 0x34
 11142 3cba 01       		.uleb128 0x1
 11143 3cbb 53       		.byte	0x53
 11144 3cbc 01       		.uleb128 0x1
 11145 3cbd 30       		.byte	0x30
 11146 3cbe 34       		.uleb128 0x34
 11147 3cbf 02       		.uleb128 0x2
 11148 3cc0 7D       		.byte	0x7d
 11149 3cc1 00       		.sleb128 0
 11150 3cc2 01       		.uleb128 0x1
 11151 3cc3 30       		.byte	0x30
 11152 3cc4 34       		.uleb128 0x34
 11153 3cc5 02       		.uleb128 0x2
 11154 3cc6 7D       		.byte	0x7d
 11155 3cc7 04       		.sleb128 4
 11156 3cc8 01       		.uleb128 0x1
 11157 3cc9 30       		.byte	0x30
 11158 3cca 34       		.uleb128 0x34
 11159 3ccb 02       		.uleb128 0x2
 11160 3ccc 7D       		.byte	0x7d
 11161 3ccd 08       		.sleb128 8
 11162 3cce 01       		.uleb128 0x1
 11163 3ccf 30       		.byte	0x30
 11164 3cd0 00       		.byte	0
 11165 3cd1 00       		.byte	0
 11166 3cd2 2F       		.uleb128 0x2f
 11167 3cd3 11100000 		.4byte	.LASF849
 11168 3cd7 01       		.byte	0x1
 11169 3cd8 E104     		.2byte	0x4e1
 11170 3cda 51090000 		.4byte	0x951
 11171 3cde 000D0000 		.4byte	.LFB379
 11172 3ce2 1C000000 		.4byte	.LFE379-.LFB379
 11173 3ce6 01       		.uleb128 0x1
 11174 3ce7 9C       		.byte	0x9c
 11175 3ce8 1D3D0000 		.4byte	0x3d1d
 11176 3cec 33       		.uleb128 0x33
 11177 3ced 160D0000 		.4byte	.LVL348
 11178 3cf1 1A580000 		.4byte	0x581a
 11179 3cf5 34       		.uleb128 0x34
 11180 3cf6 01       		.uleb128 0x1
 11181 3cf7 50       		.byte	0x50
 11182 3cf8 01       		.uleb128 0x1
 11183 3cf9 31       		.byte	0x31
 11184 3cfa 34       		.uleb128 0x34
 11185 3cfb 01       		.uleb128 0x1
 11186 3cfc 51       		.byte	0x51
 11187 3cfd 01       		.uleb128 0x1
 11188 3cfe 4A       		.byte	0x4a
 11189 3cff 34       		.uleb128 0x34
 11190 3d00 01       		.uleb128 0x1
 11191 3d01 52       		.byte	0x52
 11192 3d02 01       		.uleb128 0x1
 11193 3d03 30       		.byte	0x30
 11194 3d04 34       		.uleb128 0x34
 11195 3d05 01       		.uleb128 0x1
 11196 3d06 53       		.byte	0x53
ARM GAS  C:\Users\RAKIBU~1\AppData\Local\Temp\ccQ3AEax.s 			page 199


 11197 3d07 01       		.uleb128 0x1
 11198 3d08 30       		.byte	0x30
 11199 3d09 34       		.uleb128 0x34
 11200 3d0a 02       		.uleb128 0x2
 11201 3d0b 7D       		.byte	0x7d
 11202 3d0c 00       		.sleb128 0
 11203 3d0d 01       		.uleb128 0x1
 11204 3d0e 30       		.byte	0x30
 11205 3d0f 34       		.uleb128 0x34
 11206 3d10 02       		.uleb128 0x2
 11207 3d11 7D       		.byte	0x7d
 11208 3d12 04       		.sleb128 4
 11209 3d13 01       		.uleb128 0x1
 11210 3d14 30       		.byte	0x30
 11211 3d15 34       		.uleb128 0x34
 11212 3d16 02       		.uleb128 0x2
 11213 3d17 7D       		.byte	0x7d
 11214 3d18 08       		.sleb128 8
 11215 3d19 01       		.uleb128 0x1
 11216 3d1a 30       		.byte	0x30
 11217 3d1b 00       		.byte	0
 11218 3d1c 00       		.byte	0
 11219 3d1d 2F       		.uleb128 0x2f
 11220 3d1e 5E000000 		.4byte	.LASF850
 11221 3d22 01       		.byte	0x1
 11222 3d23 D204     		.2byte	0x4d2
 11223 3d25 51090000 		.4byte	0x951
 11224 3d29 D00C0000 		.4byte	.LFB378
 11225 3d2d 22000000 		.4byte	.LFE378-.LFB378
 11226 3d31 01       		.uleb128 0x1
 11227 3d32 9C       		.byte	0x9c
 11228 3d33 793D0000 		.4byte	0x3d79
 11229 3d37 30       		.uleb128 0x30
 11230 3d38 D9190000 		.4byte	.LASF851
 11231 3d3c 01       		.byte	0x1
 11232 3d3d D204     		.2byte	0x4d2
 11233 3d3f 46090000 		.4byte	0x946
 11234 3d43 33020000 		.4byte	.LLST90
 11235 3d47 33       		.uleb128 0x33
 11236 3d48 EC0C0000 		.4byte	.LVL347
 11237 3d4c 1A580000 		.4byte	0x581a
 11238 3d50 34       		.uleb128 0x34
 11239 3d51 01       		.uleb128 0x1
 11240 3d52 50       		.byte	0x50
 11241 3d53 01       		.uleb128 0x1
 11242 3d54 31       		.byte	0x31
 11243 3d55 34       		.uleb128 0x34
 11244 3d56 01       		.uleb128 0x1
 11245 3d57 51       		.byte	0x51
 11246 3d58 01       		.uleb128 0x1
 11247 3d59 3B       		.byte	0x3b
 11248 3d5a 34       		.uleb128 0x34
 11249 3d5b 01       		.uleb128 0x1
 11250 3d5c 52       		.byte	0x52
 11251 3d5d 02       		.uleb128 0x2
 11252 3d5e 91       		.byte	0x91
 11253 3d5f 74       		.sleb128 -12
ARM GAS  C:\Users\RAKIBU~1\AppData\Local\Temp\ccQ3AEax.s 			page 200


 11254 3d60 34       		.uleb128 0x34
 11255 3d61 01       		.uleb128 0x1
 11256 3d62 53       		.byte	0x53
 11257 3d63 01       		.uleb128 0x1
 11258 3d64 38       		.byte	0x38
 11259 3d65 34       		.uleb128 0x34
 11260 3d66 02       		.uleb128 0x2
 11261 3d67 7D       		.byte	0x7d
 11262 3d68 00       		.sleb128 0
 11263 3d69 01       		.uleb128 0x1
 11264 3d6a 30       		.byte	0x30
 11265 3d6b 34       		.uleb128 0x34
 11266 3d6c 02       		.uleb128 0x2
 11267 3d6d 7D       		.byte	0x7d
 11268 3d6e 04       		.sleb128 4
 11269 3d6f 01       		.uleb128 0x1
 11270 3d70 30       		.byte	0x30
 11271 3d71 34       		.uleb128 0x34
 11272 3d72 02       		.uleb128 0x2
 11273 3d73 7D       		.byte	0x7d
 11274 3d74 08       		.sleb128 8
 11275 3d75 01       		.uleb128 0x1
 11276 3d76 30       		.byte	0x30
 11277 3d77 00       		.byte	0
 11278 3d78 00       		.byte	0
 11279 3d79 2F       		.uleb128 0x2f
 11280 3d7a 32180000 		.4byte	.LASF852
 11281 3d7e 01       		.byte	0x1
 11282 3d7f CD04     		.2byte	0x4cd
 11283 3d81 51090000 		.4byte	0x951
 11284 3d85 B00C0000 		.4byte	.LFB377
 11285 3d89 1C000000 		.4byte	.LFE377-.LFB377
 11286 3d8d 01       		.uleb128 0x1
 11287 3d8e 9C       		.byte	0x9c
 11288 3d8f C43D0000 		.4byte	0x3dc4
 11289 3d93 33       		.uleb128 0x33
 11290 3d94 C60C0000 		.4byte	.LVL344
 11291 3d98 1A580000 		.4byte	0x581a
 11292 3d9c 34       		.uleb128 0x34
 11293 3d9d 01       		.uleb128 0x1
 11294 3d9e 50       		.byte	0x50
 11295 3d9f 01       		.uleb128 0x1
 11296 3da0 31       		.byte	0x31
 11297 3da1 34       		.uleb128 0x34
 11298 3da2 01       		.uleb128 0x1
 11299 3da3 51       		.byte	0x51
 11300 3da4 01       		.uleb128 0x1
 11301 3da5 35       		.byte	0x35
 11302 3da6 34       		.uleb128 0x34
 11303 3da7 01       		.uleb128 0x1
 11304 3da8 52       		.byte	0x52
 11305 3da9 01       		.uleb128 0x1
 11306 3daa 30       		.byte	0x30
 11307 3dab 34       		.uleb128 0x34
 11308 3dac 01       		.uleb128 0x1
 11309 3dad 53       		.byte	0x53
 11310 3dae 01       		.uleb128 0x1
ARM GAS  C:\Users\RAKIBU~1\AppData\Local\Temp\ccQ3AEax.s 			page 201


 11311 3daf 30       		.byte	0x30
 11312 3db0 34       		.uleb128 0x34
 11313 3db1 02       		.uleb128 0x2
 11314 3db2 7D       		.byte	0x7d
 11315 3db3 00       		.sleb128 0
 11316 3db4 01       		.uleb128 0x1
 11317 3db5 30       		.byte	0x30
 11318 3db6 34       		.uleb128 0x34
 11319 3db7 02       		.uleb128 0x2
 11320 3db8 7D       		.byte	0x7d
 11321 3db9 04       		.sleb128 4
 11322 3dba 01       		.uleb128 0x1
 11323 3dbb 30       		.byte	0x30
 11324 3dbc 34       		.uleb128 0x34
 11325 3dbd 02       		.uleb128 0x2
 11326 3dbe 7D       		.byte	0x7d
 11327 3dbf 08       		.sleb128 8
 11328 3dc0 01       		.uleb128 0x1
 11329 3dc1 30       		.byte	0x30
 11330 3dc2 00       		.byte	0
 11331 3dc3 00       		.byte	0
 11332 3dc4 2F       		.uleb128 0x2f
 11333 3dc5 5E2E0000 		.4byte	.LASF853
 11334 3dc9 01       		.byte	0x1
 11335 3dca C804     		.2byte	0x4c8
 11336 3dcc 51090000 		.4byte	0x951
 11337 3dd0 900C0000 		.4byte	.LFB376
 11338 3dd4 1C000000 		.4byte	.LFE376-.LFB376
 11339 3dd8 01       		.uleb128 0x1
 11340 3dd9 9C       		.byte	0x9c
 11341 3dda 0F3E0000 		.4byte	0x3e0f
 11342 3dde 33       		.uleb128 0x33
 11343 3ddf A60C0000 		.4byte	.LVL343
 11344 3de3 1A580000 		.4byte	0x581a
 11345 3de7 34       		.uleb128 0x34
 11346 3de8 01       		.uleb128 0x1
 11347 3de9 50       		.byte	0x50
 11348 3dea 01       		.uleb128 0x1
 11349 3deb 31       		.byte	0x31
 11350 3dec 34       		.uleb128 0x34
 11351 3ded 01       		.uleb128 0x1
 11352 3dee 51       		.byte	0x51
 11353 3def 01       		.uleb128 0x1
 11354 3df0 3A       		.byte	0x3a
 11355 3df1 34       		.uleb128 0x34
 11356 3df2 01       		.uleb128 0x1
 11357 3df3 52       		.byte	0x52
 11358 3df4 01       		.uleb128 0x1
 11359 3df5 30       		.byte	0x30
 11360 3df6 34       		.uleb128 0x34
 11361 3df7 01       		.uleb128 0x1
 11362 3df8 53       		.byte	0x53
 11363 3df9 01       		.uleb128 0x1
 11364 3dfa 30       		.byte	0x30
 11365 3dfb 34       		.uleb128 0x34
 11366 3dfc 02       		.uleb128 0x2
 11367 3dfd 7D       		.byte	0x7d
ARM GAS  C:\Users\RAKIBU~1\AppData\Local\Temp\ccQ3AEax.s 			page 202


 11368 3dfe 00       		.sleb128 0
 11369 3dff 01       		.uleb128 0x1
 11370 3e00 30       		.byte	0x30
 11371 3e01 34       		.uleb128 0x34
 11372 3e02 02       		.uleb128 0x2
 11373 3e03 7D       		.byte	0x7d
 11374 3e04 04       		.sleb128 4
 11375 3e05 01       		.uleb128 0x1
 11376 3e06 30       		.byte	0x30
 11377 3e07 34       		.uleb128 0x34
 11378 3e08 02       		.uleb128 0x2
 11379 3e09 7D       		.byte	0x7d
 11380 3e0a 08       		.sleb128 8
 11381 3e0b 01       		.uleb128 0x1
 11382 3e0c 30       		.byte	0x30
 11383 3e0d 00       		.byte	0
 11384 3e0e 00       		.byte	0
 11385 3e0f 2F       		.uleb128 0x2f
 11386 3e10 C4080000 		.4byte	.LASF854
 11387 3e14 01       		.byte	0x1
 11388 3e15 A704     		.2byte	0x4a7
 11389 3e17 51090000 		.4byte	0x951
 11390 3e1b 200C0000 		.4byte	.LFB375
 11391 3e1f 68000000 		.4byte	.LFE375-.LFB375
 11392 3e23 01       		.uleb128 0x1
 11393 3e24 9C       		.byte	0x9c
 11394 3e25 2A3F0000 		.4byte	0x3f2a
 11395 3e29 30       		.uleb128 0x30
 11396 3e2a 42100000 		.4byte	.LASF855
 11397 3e2e 01       		.byte	0x1
 11398 3e2f A704     		.2byte	0x4a7
 11399 3e31 2A3F0000 		.4byte	0x3f2a
 11400 3e35 52020000 		.4byte	.LLST86
 11401 3e39 30       		.uleb128 0x30
 11402 3e3a 0A1A0000 		.4byte	.LASF856
 11403 3e3e 01       		.byte	0x1
 11404 3e3f A704     		.2byte	0x4a7
 11405 3e41 A1050000 		.4byte	0x5a1
 11406 3e45 89020000 		.4byte	.LLST87
 11407 3e49 30       		.uleb128 0x30
 11408 3e4a 3A110000 		.4byte	.LASF857
 11409 3e4e 01       		.byte	0x1
 11410 3e4f A704     		.2byte	0x4a7
 11411 3e51 2B090000 		.4byte	0x92b
 11412 3e55 B2020000 		.4byte	.LLST88
 11413 3e59 35       		.uleb128 0x35
 11414 3e5a F22F0000 		.4byte	.LASF858
 11415 3e5e 01       		.byte	0x1
 11416 3e5f A904     		.2byte	0x4a9
 11417 3e61 51090000 		.4byte	0x951
 11418 3e65 DE020000 		.4byte	.LLST89
 11419 3e69 36       		.uleb128 0x36
 11420 3e6a 98280000 		.4byte	.LASF902
 11421 3e6e 01       		.byte	0x1
 11422 3e6f C404     		.2byte	0x4c4
 11423 3e71 360C0000 		.4byte	.L264
 11424 3e75 37       		.uleb128 0x37
ARM GAS  C:\Users\RAKIBU~1\AppData\Local\Temp\ccQ3AEax.s 			page 203


 11425 3e76 68000000 		.4byte	.Ldebug_ranges0+0x68
 11426 3e7a 32       		.uleb128 0x32
 11427 3e7b A81C0000 		.4byte	.LASF859
 11428 3e7f 01       		.byte	0x1
 11429 3e80 AD04     		.2byte	0x4ad
 11430 3e82 93350000 		.4byte	0x3593
 11431 3e86 03       		.uleb128 0x3
 11432 3e87 91       		.byte	0x91
 11433 3e88 A47E     		.sleb128 -220
 11434 3e8a 38       		.uleb128 0x38
 11435 3e8b 300C0000 		.4byte	.LVL333
 11436 3e8f A1520000 		.4byte	0x52a1
 11437 3e93 9E3E0000 		.4byte	0x3e9e
 11438 3e97 34       		.uleb128 0x34
 11439 3e98 01       		.uleb128 0x1
 11440 3e99 50       		.byte	0x50
 11441 3e9a 02       		.uleb128 0x2
 11442 3e9b 74       		.byte	0x74
 11443 3e9c 00       		.sleb128 0
 11444 3e9d 00       		.byte	0
 11445 3e9e 38       		.uleb128 0x38
 11446 3e9f 440C0000 		.4byte	.LVL336
 11447 3ea3 25580000 		.4byte	0x5825
 11448 3ea7 BF3E0000 		.4byte	0x3ebf
 11449 3eab 34       		.uleb128 0x34
 11450 3eac 01       		.uleb128 0x1
 11451 3ead 50       		.byte	0x50
 11452 3eae 03       		.uleb128 0x3
 11453 3eaf 91       		.byte	0x91
 11454 3eb0 A47E     		.sleb128 -220
 11455 3eb2 34       		.uleb128 0x34
 11456 3eb3 01       		.uleb128 0x1
 11457 3eb4 51       		.byte	0x51
 11458 3eb5 02       		.uleb128 0x2
 11459 3eb6 74       		.byte	0x74
 11460 3eb7 00       		.sleb128 0
 11461 3eb8 34       		.uleb128 0x34
 11462 3eb9 01       		.uleb128 0x1
 11463 3eba 52       		.byte	0x52
 11464 3ebb 02       		.uleb128 0x2
 11465 3ebc 08       		.byte	0x8
 11466 3ebd 88       		.byte	0x88
 11467 3ebe 00       		.byte	0
 11468 3ebf 38       		.uleb128 0x38
 11469 3ec0 4A0C0000 		.4byte	.LVL337
 11470 3ec4 30580000 		.4byte	0x5830
 11471 3ec8 D33E0000 		.4byte	0x3ed3
 11472 3ecc 34       		.uleb128 0x34
 11473 3ecd 01       		.uleb128 0x1
 11474 3ece 50       		.byte	0x50
 11475 3ecf 02       		.uleb128 0x2
 11476 3ed0 75       		.byte	0x75
 11477 3ed1 00       		.sleb128 0
 11478 3ed2 00       		.byte	0
 11479 3ed3 38       		.uleb128 0x38
 11480 3ed4 580C0000 		.4byte	.LVL338
 11481 3ed8 25580000 		.4byte	0x5825
ARM GAS  C:\Users\RAKIBU~1\AppData\Local\Temp\ccQ3AEax.s 			page 204


 11482 3edc F43E0000 		.4byte	0x3ef4
 11483 3ee0 34       		.uleb128 0x34
 11484 3ee1 01       		.uleb128 0x1
 11485 3ee2 50       		.byte	0x50
 11486 3ee3 03       		.uleb128 0x3
 11487 3ee4 91       		.byte	0x91
 11488 3ee5 AC7F     		.sleb128 -84
 11489 3ee7 34       		.uleb128 0x34
 11490 3ee8 01       		.uleb128 0x1
 11491 3ee9 51       		.byte	0x51
 11492 3eea 02       		.uleb128 0x2
 11493 3eeb 75       		.byte	0x75
 11494 3eec 00       		.sleb128 0
 11495 3eed 34       		.uleb128 0x34
 11496 3eee 01       		.uleb128 0x1
 11497 3eef 52       		.byte	0x52
 11498 3ef0 02       		.uleb128 0x2
 11499 3ef1 08       		.byte	0x8
 11500 3ef2 40       		.byte	0x40
 11501 3ef3 00       		.byte	0
 11502 3ef4 33       		.uleb128 0x33
 11503 3ef5 740C0000 		.4byte	.LVL339
 11504 3ef9 1A580000 		.4byte	0x581a
 11505 3efd 34       		.uleb128 0x34
 11506 3efe 01       		.uleb128 0x1
 11507 3eff 50       		.byte	0x50
 11508 3f00 01       		.uleb128 0x1
 11509 3f01 31       		.byte	0x31
 11510 3f02 34       		.uleb128 0x34
 11511 3f03 01       		.uleb128 0x1
 11512 3f04 51       		.byte	0x51
 11513 3f05 02       		.uleb128 0x2
 11514 3f06 09       		.byte	0x9
 11515 3f07 88       		.byte	0x88
 11516 3f08 34       		.uleb128 0x34
 11517 3f09 01       		.uleb128 0x1
 11518 3f0a 52       		.byte	0x52
 11519 3f0b 03       		.uleb128 0x3
 11520 3f0c 91       		.byte	0x91
 11521 3f0d A47E     		.sleb128 -220
 11522 3f0f 34       		.uleb128 0x34
 11523 3f10 01       		.uleb128 0x1
 11524 3f11 53       		.byte	0x53
 11525 3f12 02       		.uleb128 0x2
 11526 3f13 08       		.byte	0x8
 11527 3f14 CC       		.byte	0xcc
 11528 3f15 34       		.uleb128 0x34
 11529 3f16 02       		.uleb128 0x2
 11530 3f17 7D       		.byte	0x7d
 11531 3f18 00       		.sleb128 0
 11532 3f19 01       		.uleb128 0x1
 11533 3f1a 30       		.byte	0x30
 11534 3f1b 34       		.uleb128 0x34
 11535 3f1c 02       		.uleb128 0x2
 11536 3f1d 7D       		.byte	0x7d
 11537 3f1e 04       		.sleb128 4
 11538 3f1f 01       		.uleb128 0x1
ARM GAS  C:\Users\RAKIBU~1\AppData\Local\Temp\ccQ3AEax.s 			page 205


 11539 3f20 30       		.byte	0x30
 11540 3f21 34       		.uleb128 0x34
 11541 3f22 02       		.uleb128 0x2
 11542 3f23 7D       		.byte	0x7d
 11543 3f24 08       		.sleb128 8
 11544 3f25 01       		.uleb128 0x1
 11545 3f26 30       		.byte	0x30
 11546 3f27 00       		.byte	0
 11547 3f28 00       		.byte	0
 11548 3f29 00       		.byte	0
 11549 3f2a 07       		.uleb128 0x7
 11550 3f2b 04       		.byte	0x4
 11551 3f2c 7A340000 		.4byte	0x347a
 11552 3f30 2F       		.uleb128 0x2f
 11553 3f31 212E0000 		.4byte	.LASF860
 11554 3f35 01       		.byte	0x1
 11555 3f36 7704     		.2byte	0x477
 11556 3f38 51090000 		.4byte	0x951
 11557 3f3c 000C0000 		.4byte	.LFB374
 11558 3f40 1E000000 		.4byte	.LFE374-.LFB374
 11559 3f44 01       		.uleb128 0x1
 11560 3f45 9C       		.byte	0x9c
 11561 3f46 913F0000 		.4byte	0x3f91
 11562 3f4a 30       		.uleb128 0x30
 11563 3f4b 941E0000 		.4byte	.LASF861
 11564 3f4f 01       		.byte	0x1
 11565 3f50 7704     		.2byte	0x477
 11566 3f52 913F0000 		.4byte	0x3f91
 11567 3f56 2E030000 		.4byte	.LLST84
 11568 3f5a 31       		.uleb128 0x31
 11569 3f5b 72657400 		.ascii	"ret\000"
 11570 3f5f 01       		.byte	0x1
 11571 3f60 7904     		.2byte	0x479
 11572 3f62 51090000 		.4byte	0x951
 11573 3f66 4C030000 		.4byte	.LLST85
 11574 3f6a 39       		.uleb128 0x39
 11575 3f6b 080C0000 		.4byte	.LVL325
 11576 3f6f 3B580000 		.4byte	0x583b
 11577 3f73 38       		.uleb128 0x38
 11578 3f74 160C0000 		.4byte	.LVL329
 11579 3f78 46580000 		.4byte	0x5846
 11580 3f7c 873F0000 		.4byte	0x3f87
 11581 3f80 34       		.uleb128 0x34
 11582 3f81 01       		.uleb128 0x1
 11583 3f82 50       		.byte	0x50
 11584 3f83 02       		.uleb128 0x2
 11585 3f84 75       		.byte	0x75
 11586 3f85 00       		.sleb128 0
 11587 3f86 00       		.byte	0
 11588 3f87 39       		.uleb128 0x39
 11589 3f88 1C0C0000 		.4byte	.LVL331
 11590 3f8c 51580000 		.4byte	0x5851
 11591 3f90 00       		.byte	0
 11592 3f91 07       		.uleb128 0x7
 11593 3f92 04       		.byte	0x4
 11594 3f93 9F380000 		.4byte	0x389f
 11595 3f97 2F       		.uleb128 0x2f
ARM GAS  C:\Users\RAKIBU~1\AppData\Local\Temp\ccQ3AEax.s 			page 206


 11596 3f98 CC000000 		.4byte	.LASF862
 11597 3f9c 01       		.byte	0x1
 11598 3f9d 6A04     		.2byte	0x46a
 11599 3f9f 51090000 		.4byte	0x951
 11600 3fa3 D00B0000 		.4byte	.LFB373
 11601 3fa7 30000000 		.4byte	.LFE373-.LFB373
 11602 3fab 01       		.uleb128 0x1
 11603 3fac 9C       		.byte	0x9c
 11604 3fad 2E400000 		.4byte	0x402e
 11605 3fb1 30       		.uleb128 0x30
 11606 3fb2 721E0000 		.4byte	.LASF863
 11607 3fb6 01       		.byte	0x1
 11608 3fb7 6A04     		.2byte	0x46a
 11609 3fb9 FF360000 		.4byte	0x36ff
 11610 3fbd 8C030000 		.4byte	.LLST82
 11611 3fc1 30       		.uleb128 0x30
 11612 3fc2 AB2F0000 		.4byte	.LASF864
 11613 3fc6 01       		.byte	0x1
 11614 3fc7 6A04     		.2byte	0x46a
 11615 3fc9 2B090000 		.4byte	0x92b
 11616 3fcd B8030000 		.4byte	.LLST83
 11617 3fd1 32       		.uleb128 0x32
 11618 3fd2 53060000 		.4byte	.LASF865
 11619 3fd6 01       		.byte	0x1
 11620 3fd7 6C04     		.2byte	0x46c
 11621 3fd9 E2340000 		.4byte	0x34e2
 11622 3fdd 02       		.uleb128 0x2
 11623 3fde 91       		.byte	0x91
 11624 3fdf 48       		.sleb128 -56
 11625 3fe0 38       		.uleb128 0x38
 11626 3fe1 E60B0000 		.4byte	.LVL321
 11627 3fe5 25580000 		.4byte	0x5825
 11628 3fe9 FB3F0000 		.4byte	0x3ffb
 11629 3fed 34       		.uleb128 0x34
 11630 3fee 01       		.uleb128 0x1
 11631 3fef 50       		.byte	0x50
 11632 3ff0 02       		.uleb128 0x2
 11633 3ff1 91       		.byte	0x91
 11634 3ff2 48       		.sleb128 -56
 11635 3ff3 34       		.uleb128 0x34
 11636 3ff4 01       		.uleb128 0x1
 11637 3ff5 51       		.byte	0x51
 11638 3ff6 03       		.uleb128 0x3
 11639 3ff7 F3       		.byte	0xf3
 11640 3ff8 01       		.uleb128 0x1
 11641 3ff9 50       		.byte	0x50
 11642 3ffa 00       		.byte	0
 11643 3ffb 33       		.uleb128 0x33
 11644 3ffc FA0B0000 		.4byte	.LVL322
 11645 4000 1A580000 		.4byte	0x581a
 11646 4004 34       		.uleb128 0x34
 11647 4005 01       		.uleb128 0x1
 11648 4006 50       		.byte	0x50
 11649 4007 01       		.uleb128 0x1
 11650 4008 31       		.byte	0x31
 11651 4009 34       		.uleb128 0x34
 11652 400a 01       		.uleb128 0x1
ARM GAS  C:\Users\RAKIBU~1\AppData\Local\Temp\ccQ3AEax.s 			page 207


 11653 400b 51       		.byte	0x51
 11654 400c 01       		.uleb128 0x1
 11655 400d 37       		.byte	0x37
 11656 400e 34       		.uleb128 0x34
 11657 400f 01       		.uleb128 0x1
 11658 4010 52       		.byte	0x52
 11659 4011 02       		.uleb128 0x2
 11660 4012 91       		.byte	0x91
 11661 4013 48       		.sleb128 -56
 11662 4014 34       		.uleb128 0x34
 11663 4015 01       		.uleb128 0x1
 11664 4016 53       		.byte	0x53
 11665 4017 02       		.uleb128 0x2
 11666 4018 08       		.byte	0x8
 11667 4019 30       		.byte	0x30
 11668 401a 34       		.uleb128 0x34
 11669 401b 02       		.uleb128 0x2
 11670 401c 7D       		.byte	0x7d
 11671 401d 00       		.sleb128 0
 11672 401e 01       		.uleb128 0x1
 11673 401f 30       		.byte	0x30
 11674 4020 34       		.uleb128 0x34
 11675 4021 02       		.uleb128 0x2
 11676 4022 7D       		.byte	0x7d
 11677 4023 04       		.sleb128 4
 11678 4024 01       		.uleb128 0x1
 11679 4025 30       		.byte	0x30
 11680 4026 34       		.uleb128 0x34
 11681 4027 02       		.uleb128 0x2
 11682 4028 7D       		.byte	0x7d
 11683 4029 08       		.sleb128 8
 11684 402a 01       		.uleb128 0x1
 11685 402b 30       		.byte	0x30
 11686 402c 00       		.byte	0
 11687 402d 00       		.byte	0
 11688 402e 2F       		.uleb128 0x2f
 11689 402f 492D0000 		.4byte	.LASF866
 11690 4033 01       		.byte	0x1
 11691 4034 5304     		.2byte	0x453
 11692 4036 51090000 		.4byte	0x951
 11693 403a A00B0000 		.4byte	.LFB372
 11694 403e 2E000000 		.4byte	.LFE372-.LFB372
 11695 4042 01       		.uleb128 0x1
 11696 4043 9C       		.byte	0x9c
 11697 4044 D1400000 		.4byte	0x40d1
 11698 4048 30       		.uleb128 0x30
 11699 4049 FD200000 		.4byte	.LASF867
 11700 404d 01       		.byte	0x1
 11701 404e 5304     		.2byte	0x453
 11702 4050 46090000 		.4byte	0x946
 11703 4054 E1030000 		.4byte	.LLST79
 11704 4058 31       		.uleb128 0x31
 11705 4059 72657400 		.ascii	"ret\000"
 11706 405d 01       		.byte	0x1
 11707 405e 5504     		.2byte	0x455
 11708 4060 51090000 		.4byte	0x951
 11709 4064 FF030000 		.4byte	.LLST80
ARM GAS  C:\Users\RAKIBU~1\AppData\Local\Temp\ccQ3AEax.s 			page 208


 11710 4068 35       		.uleb128 0x35
 11711 4069 39170000 		.4byte	.LASF868
 11712 406d 01       		.byte	0x1
 11713 406e 5604     		.2byte	0x456
 11714 4070 2B090000 		.4byte	0x92b
 11715 4074 35040000 		.4byte	.LLST81
 11716 4078 3A       		.uleb128 0x3a
 11717 4079 B40B0000 		.4byte	.LBB26
 11718 407d 1A000000 		.4byte	.LBE26-.LBB26
 11719 4081 C7400000 		.4byte	0x40c7
 11720 4085 32       		.uleb128 0x32
 11721 4086 A11F0000 		.4byte	.LASF869
 11722 408a 01       		.byte	0x1
 11723 408b 5A04     		.2byte	0x45a
 11724 408d 86320000 		.4byte	0x3286
 11725 4091 02       		.uleb128 0x2
 11726 4092 91       		.byte	0x91
 11727 4093 74       		.sleb128 -12
 11728 4094 33       		.uleb128 0x33
 11729 4095 CC0B0000 		.4byte	.LVL316
 11730 4099 1A580000 		.4byte	0x581a
 11731 409d 34       		.uleb128 0x34
 11732 409e 01       		.uleb128 0x1
 11733 409f 50       		.byte	0x50
 11734 40a0 01       		.uleb128 0x1
 11735 40a1 31       		.byte	0x31
 11736 40a2 34       		.uleb128 0x34
 11737 40a3 01       		.uleb128 0x1
 11738 40a4 51       		.byte	0x51
 11739 40a5 02       		.uleb128 0x2
 11740 40a6 08       		.byte	0x8
 11741 40a7 3A       		.byte	0x3a
 11742 40a8 34       		.uleb128 0x34
 11743 40a9 01       		.uleb128 0x1
 11744 40aa 52       		.byte	0x52
 11745 40ab 02       		.uleb128 0x2
 11746 40ac 91       		.byte	0x91
 11747 40ad 74       		.sleb128 -12
 11748 40ae 34       		.uleb128 0x34
 11749 40af 01       		.uleb128 0x1
 11750 40b0 53       		.byte	0x53
 11751 40b1 01       		.uleb128 0x1
 11752 40b2 34       		.byte	0x34
 11753 40b3 34       		.uleb128 0x34
 11754 40b4 02       		.uleb128 0x2
 11755 40b5 7D       		.byte	0x7d
 11756 40b6 00       		.sleb128 0
 11757 40b7 01       		.uleb128 0x1
 11758 40b8 30       		.byte	0x30
 11759 40b9 34       		.uleb128 0x34
 11760 40ba 02       		.uleb128 0x2
 11761 40bb 7D       		.byte	0x7d
 11762 40bc 04       		.sleb128 4
 11763 40bd 01       		.uleb128 0x1
 11764 40be 30       		.byte	0x30
 11765 40bf 34       		.uleb128 0x34
 11766 40c0 02       		.uleb128 0x2
ARM GAS  C:\Users\RAKIBU~1\AppData\Local\Temp\ccQ3AEax.s 			page 209


 11767 40c1 7D       		.byte	0x7d
 11768 40c2 08       		.sleb128 8
 11769 40c3 01       		.uleb128 0x1
 11770 40c4 30       		.byte	0x30
 11771 40c5 00       		.byte	0
 11772 40c6 00       		.byte	0
 11773 40c7 39       		.uleb128 0x39
 11774 40c8 AA0B0000 		.4byte	.LVL312
 11775 40cc 5C580000 		.4byte	0x585c
 11776 40d0 00       		.byte	0
 11777 40d1 2F       		.uleb128 0x2f
 11778 40d2 710B0000 		.4byte	.LASF870
 11779 40d6 01       		.byte	0x1
 11780 40d7 3F04     		.2byte	0x43f
 11781 40d9 51090000 		.4byte	0x951
 11782 40dd 700B0000 		.4byte	.LFB371
 11783 40e1 30000000 		.4byte	.LFE371-.LFB371
 11784 40e5 01       		.uleb128 0x1
 11785 40e6 9C       		.byte	0x9c
 11786 40e7 71410000 		.4byte	0x4171
 11787 40eb 30       		.uleb128 0x30
 11788 40ec 30210000 		.4byte	.LASF871
 11789 40f0 01       		.byte	0x1
 11790 40f1 3F04     		.2byte	0x43f
 11791 40f3 2B090000 		.4byte	0x92b
 11792 40f7 53040000 		.4byte	.LLST76
 11793 40fb 30       		.uleb128 0x30
 11794 40fc 2B0B0000 		.4byte	.LASF872
 11795 4100 01       		.byte	0x1
 11796 4101 3F04     		.2byte	0x43f
 11797 4103 2B090000 		.4byte	0x92b
 11798 4107 80040000 		.4byte	.LLST77
 11799 410b 31       		.uleb128 0x31
 11800 410c 72657400 		.ascii	"ret\000"
 11801 4110 01       		.byte	0x1
 11802 4111 4104     		.2byte	0x441
 11803 4113 51090000 		.4byte	0x951
 11804 4117 AD040000 		.4byte	.LLST78
 11805 411b 32       		.uleb128 0x32
 11806 411c A11F0000 		.4byte	.LASF869
 11807 4120 01       		.byte	0x1
 11808 4121 4204     		.2byte	0x442
 11809 4123 63320000 		.4byte	0x3263
 11810 4127 02       		.uleb128 0x2
 11811 4128 91       		.byte	0x91
 11812 4129 6C       		.sleb128 -20
 11813 412a 38       		.uleb128 0x38
 11814 412b 920B0000 		.4byte	.LVL307
 11815 412f 1A580000 		.4byte	0x581a
 11816 4133 60410000 		.4byte	0x4160
 11817 4137 34       		.uleb128 0x34
 11818 4138 01       		.uleb128 0x1
 11819 4139 50       		.byte	0x50
 11820 413a 01       		.uleb128 0x1
 11821 413b 31       		.byte	0x31
 11822 413c 34       		.uleb128 0x34
 11823 413d 01       		.uleb128 0x1
ARM GAS  C:\Users\RAKIBU~1\AppData\Local\Temp\ccQ3AEax.s 			page 210


 11824 413e 51       		.byte	0x51
 11825 413f 02       		.uleb128 0x2
 11826 4140 08       		.byte	0x8
 11827 4141 2D       		.byte	0x2d
 11828 4142 34       		.uleb128 0x34
 11829 4143 01       		.uleb128 0x1
 11830 4144 52       		.byte	0x52
 11831 4145 02       		.uleb128 0x2
 11832 4146 91       		.byte	0x91
 11833 4147 6C       		.sleb128 -20
 11834 4148 34       		.uleb128 0x34
 11835 4149 01       		.uleb128 0x1
 11836 414a 53       		.byte	0x53
 11837 414b 01       		.uleb128 0x1
 11838 414c 34       		.byte	0x34
 11839 414d 34       		.uleb128 0x34
 11840 414e 02       		.uleb128 0x2
 11841 414f 7D       		.byte	0x7d
 11842 4150 00       		.sleb128 0
 11843 4151 01       		.uleb128 0x1
 11844 4152 30       		.byte	0x30
 11845 4153 34       		.uleb128 0x34
 11846 4154 02       		.uleb128 0x2
 11847 4155 7D       		.byte	0x7d
 11848 4156 04       		.sleb128 4
 11849 4157 01       		.uleb128 0x1
 11850 4158 30       		.byte	0x30
 11851 4159 34       		.uleb128 0x34
 11852 415a 02       		.uleb128 0x2
 11853 415b 7D       		.byte	0x7d
 11854 415c 08       		.sleb128 8
 11855 415d 01       		.uleb128 0x1
 11856 415e 30       		.byte	0x30
 11857 415f 00       		.byte	0
 11858 4160 33       		.uleb128 0x33
 11859 4161 9A0B0000 		.4byte	.LVL309
 11860 4165 67580000 		.4byte	0x5867
 11861 4169 34       		.uleb128 0x34
 11862 416a 01       		.uleb128 0x1
 11863 416b 50       		.byte	0x50
 11864 416c 02       		.uleb128 0x2
 11865 416d 74       		.byte	0x74
 11866 416e 00       		.sleb128 0
 11867 416f 00       		.byte	0
 11868 4170 00       		.byte	0
 11869 4171 2F       		.uleb128 0x2f
 11870 4172 6E1A0000 		.4byte	.LASF873
 11871 4176 01       		.byte	0x1
 11872 4177 2D04     		.2byte	0x42d
 11873 4179 2B090000 		.4byte	0x92b
 11874 417d 600B0000 		.4byte	.LFB370
 11875 4181 08000000 		.4byte	.LFE370-.LFB370
 11876 4185 01       		.uleb128 0x1
 11877 4186 9C       		.byte	0x9c
 11878 4187 95410000 		.4byte	0x4195
 11879 418b 39       		.uleb128 0x39
 11880 418c 660B0000 		.4byte	.LVL302
ARM GAS  C:\Users\RAKIBU~1\AppData\Local\Temp\ccQ3AEax.s 			page 211


 11881 4190 5C580000 		.4byte	0x585c
 11882 4194 00       		.byte	0
 11883 4195 3B       		.uleb128 0x3b
 11884 4196 DD250000 		.4byte	.LASF921
 11885 419a 01       		.byte	0x1
 11886 419b 2304     		.2byte	0x423
 11887 419d 2B090000 		.4byte	0x92b
 11888 41a1 500B0000 		.4byte	.LFB369
 11889 41a5 0C000000 		.4byte	.LFE369-.LFB369
 11890 41a9 01       		.uleb128 0x1
 11891 41aa 9C       		.byte	0x9c
 11892 41ab 2F       		.uleb128 0x2f
 11893 41ac 02280000 		.4byte	.LASF874
 11894 41b0 01       		.byte	0x1
 11895 41b1 0F04     		.2byte	0x40f
 11896 41b3 51090000 		.4byte	0x951
 11897 41b7 200B0000 		.4byte	.LFB368
 11898 41bb 22000000 		.4byte	.LFE368-.LFB368
 11899 41bf 01       		.uleb128 0x1
 11900 41c0 9C       		.byte	0x9c
 11901 41c1 26420000 		.4byte	0x4226
 11902 41c5 30       		.uleb128 0x30
 11903 41c6 3B080000 		.4byte	.LASF875
 11904 41ca 01       		.byte	0x1
 11905 41cb 0F04     		.2byte	0x40f
 11906 41cd 2B090000 		.4byte	0x92b
 11907 41d1 CC040000 		.4byte	.LLST74
 11908 41d5 31       		.uleb128 0x31
 11909 41d6 72657400 		.ascii	"ret\000"
 11910 41da 01       		.byte	0x1
 11911 41db 1104     		.2byte	0x411
 11912 41dd 51090000 		.4byte	0x951
 11913 41e1 F9040000 		.4byte	.LLST75
 11914 41e5 32       		.uleb128 0x32
 11915 41e6 360D0000 		.4byte	.LASF876
 11916 41ea 01       		.byte	0x1
 11917 41eb 1204     		.2byte	0x412
 11918 41ed 68310000 		.4byte	0x3168
 11919 41f1 02       		.uleb128 0x2
 11920 41f2 91       		.byte	0x91
 11921 41f3 74       		.sleb128 -12
 11922 41f4 33       		.uleb128 0x33
 11923 41f5 3C0B0000 		.4byte	.LVL301
 11924 41f9 1A580000 		.4byte	0x581a
 11925 41fd 34       		.uleb128 0x34
 11926 41fe 01       		.uleb128 0x1
 11927 41ff 50       		.byte	0x50
 11928 4200 01       		.uleb128 0x1
 11929 4201 31       		.byte	0x31
 11930 4202 34       		.uleb128 0x34
 11931 4203 01       		.uleb128 0x1
 11932 4204 51       		.byte	0x51
 11933 4205 01       		.uleb128 0x1
 11934 4206 42       		.byte	0x42
 11935 4207 34       		.uleb128 0x34
 11936 4208 01       		.uleb128 0x1
 11937 4209 52       		.byte	0x52
ARM GAS  C:\Users\RAKIBU~1\AppData\Local\Temp\ccQ3AEax.s 			page 212


 11938 420a 02       		.uleb128 0x2
 11939 420b 91       		.byte	0x91
 11940 420c 74       		.sleb128 -12
 11941 420d 34       		.uleb128 0x34
 11942 420e 01       		.uleb128 0x1
 11943 420f 53       		.byte	0x53
 11944 4210 01       		.uleb128 0x1
 11945 4211 34       		.byte	0x34
 11946 4212 34       		.uleb128 0x34
 11947 4213 02       		.uleb128 0x2
 11948 4214 7D       		.byte	0x7d
 11949 4215 00       		.sleb128 0
 11950 4216 01       		.uleb128 0x1
 11951 4217 30       		.byte	0x30
 11952 4218 34       		.uleb128 0x34
 11953 4219 02       		.uleb128 0x2
 11954 421a 7D       		.byte	0x7d
 11955 421b 04       		.sleb128 4
 11956 421c 01       		.uleb128 0x1
 11957 421d 30       		.byte	0x30
 11958 421e 34       		.uleb128 0x34
 11959 421f 02       		.uleb128 0x2
 11960 4220 7D       		.byte	0x7d
 11961 4221 08       		.sleb128 8
 11962 4222 01       		.uleb128 0x1
 11963 4223 30       		.byte	0x30
 11964 4224 00       		.byte	0
 11965 4225 00       		.byte	0
 11966 4226 2F       		.uleb128 0x2f
 11967 4227 510C0000 		.4byte	.LASF877
 11968 422b 01       		.byte	0x1
 11969 422c EF03     		.2byte	0x3ef
 11970 422e 51090000 		.4byte	0x951
 11971 4232 F00A0000 		.4byte	.LFB367
 11972 4236 24000000 		.4byte	.LFE367-.LFB367
 11973 423a 01       		.uleb128 0x1
 11974 423b 9C       		.byte	0x9c
 11975 423c 87420000 		.4byte	0x4287
 11976 4240 30       		.uleb128 0x30
 11977 4241 CB1B0000 		.4byte	.LASF878
 11978 4245 01       		.byte	0x1
 11979 4246 EF03     		.2byte	0x3ef
 11980 4248 FF360000 		.4byte	0x36ff
 11981 424c 18050000 		.4byte	.LLST72
 11982 4250 31       		.uleb128 0x31
 11983 4251 72657400 		.ascii	"ret\000"
 11984 4255 01       		.byte	0x1
 11985 4256 F103     		.2byte	0x3f1
 11986 4258 51090000 		.4byte	0x951
 11987 425c 36050000 		.4byte	.LLST73
 11988 4260 39       		.uleb128 0x39
 11989 4261 F80A0000 		.4byte	.LVL291
 11990 4265 3B580000 		.4byte	0x583b
 11991 4269 38       		.uleb128 0x38
 11992 426a 060B0000 		.4byte	.LVL295
 11993 426e 72580000 		.4byte	0x5872
 11994 4272 7D420000 		.4byte	0x427d
ARM GAS  C:\Users\RAKIBU~1\AppData\Local\Temp\ccQ3AEax.s 			page 213


 11995 4276 34       		.uleb128 0x34
 11996 4277 01       		.uleb128 0x1
 11997 4278 50       		.byte	0x50
 11998 4279 02       		.uleb128 0x2
 11999 427a 74       		.byte	0x74
 12000 427b 00       		.sleb128 0
 12001 427c 00       		.byte	0
 12002 427d 39       		.uleb128 0x39
 12003 427e 100B0000 		.4byte	.LVL296
 12004 4282 51580000 		.4byte	0x5851
 12005 4286 00       		.byte	0
 12006 4287 2F       		.uleb128 0x2f
 12007 4288 DA160000 		.4byte	.LASF879
 12008 428c 01       		.byte	0x1
 12009 428d D703     		.2byte	0x3d7
 12010 428f 51090000 		.4byte	0x951
 12011 4293 C00A0000 		.4byte	.LFB366
 12012 4297 28000000 		.4byte	.LFE366-.LFB366
 12013 429b 01       		.uleb128 0x1
 12014 429c 9C       		.byte	0x9c
 12015 429d FE420000 		.4byte	0x42fe
 12016 42a1 30       		.uleb128 0x30
 12017 42a2 CB1B0000 		.4byte	.LASF878
 12018 42a6 01       		.byte	0x1
 12019 42a7 D703     		.2byte	0x3d7
 12020 42a9 FF360000 		.4byte	0x36ff
 12021 42ad 81050000 		.4byte	.LLST69
 12022 42b1 30       		.uleb128 0x30
 12023 42b2 210E0000 		.4byte	.LASF880
 12024 42b6 01       		.byte	0x1
 12025 42b7 D703     		.2byte	0x3d7
 12026 42b9 FF360000 		.4byte	0x36ff
 12027 42bd 9F050000 		.4byte	.LLST70
 12028 42c1 31       		.uleb128 0x31
 12029 42c2 72657400 		.ascii	"ret\000"
 12030 42c6 01       		.byte	0x1
 12031 42c7 D903     		.2byte	0x3d9
 12032 42c9 51090000 		.4byte	0x951
 12033 42cd BD050000 		.4byte	.LLST71
 12034 42d1 39       		.uleb128 0x39
 12035 42d2 CA0A0000 		.4byte	.LVL282
 12036 42d6 3B580000 		.4byte	0x583b
 12037 42da 38       		.uleb128 0x38
 12038 42db DA0A0000 		.4byte	.LVL286
 12039 42df 7D580000 		.4byte	0x587d
 12040 42e3 F4420000 		.4byte	0x42f4
 12041 42e7 34       		.uleb128 0x34
 12042 42e8 01       		.uleb128 0x1
 12043 42e9 50       		.byte	0x50
 12044 42ea 02       		.uleb128 0x2
 12045 42eb 74       		.byte	0x74
 12046 42ec 00       		.sleb128 0
 12047 42ed 34       		.uleb128 0x34
 12048 42ee 01       		.uleb128 0x1
 12049 42ef 51       		.byte	0x51
 12050 42f0 02       		.uleb128 0x2
 12051 42f1 75       		.byte	0x75
ARM GAS  C:\Users\RAKIBU~1\AppData\Local\Temp\ccQ3AEax.s 			page 214


 12052 42f2 00       		.sleb128 0
 12053 42f3 00       		.byte	0
 12054 42f4 39       		.uleb128 0x39
 12055 42f5 E40A0000 		.4byte	.LVL287
 12056 42f9 51580000 		.4byte	0x5851
 12057 42fd 00       		.byte	0
 12058 42fe 2F       		.uleb128 0x2f
 12059 42ff D0210000 		.4byte	.LASF881
 12060 4303 01       		.byte	0x1
 12061 4304 BC03     		.2byte	0x3bc
 12062 4306 51090000 		.4byte	0x951
 12063 430a 800A0000 		.4byte	.LFB365
 12064 430e 38000000 		.4byte	.LFE365-.LFB365
 12065 4312 01       		.uleb128 0x1
 12066 4313 9C       		.byte	0x9c
 12067 4314 90430000 		.4byte	0x4390
 12068 4318 30       		.uleb128 0x30
 12069 4319 BD250000 		.4byte	.LASF882
 12070 431d 01       		.byte	0x1
 12071 431e BC03     		.2byte	0x3bc
 12072 4320 FF360000 		.4byte	0x36ff
 12073 4324 08060000 		.4byte	.LLST66
 12074 4328 30       		.uleb128 0x30
 12075 4329 FD1F0000 		.4byte	.LASF757
 12076 432d 01       		.byte	0x1
 12077 432e BC03     		.2byte	0x3bc
 12078 4330 3B090000 		.4byte	0x93b
 12079 4334 67060000 		.4byte	.LLST67
 12080 4338 35       		.uleb128 0x35
 12081 4339 F22F0000 		.4byte	.LASF858
 12082 433d 01       		.byte	0x1
 12083 433e BE03     		.2byte	0x3be
 12084 4340 51090000 		.4byte	0x951
 12085 4344 9F060000 		.4byte	.LLST68
 12086 4348 3C       		.uleb128 0x3c
 12087 4349 880A0000 		.4byte	.LBB25
 12088 434d 1E000000 		.4byte	.LBE25-.LBB25
 12089 4351 32       		.uleb128 0x32
 12090 4352 EB210000 		.4byte	.LASF883
 12091 4356 01       		.byte	0x1
 12092 4357 C103     		.2byte	0x3c1
 12093 4359 B2330000 		.4byte	0x33b2
 12094 435d 02       		.uleb128 0x2
 12095 435e 91       		.byte	0x91
 12096 435f 74       		.sleb128 -12
 12097 4360 33       		.uleb128 0x33
 12098 4361 A60A0000 		.4byte	.LVL275
 12099 4365 1A580000 		.4byte	0x581a
 12100 4369 34       		.uleb128 0x34
 12101 436a 01       		.uleb128 0x1
 12102 436b 50       		.byte	0x50
 12103 436c 01       		.uleb128 0x1
 12104 436d 31       		.byte	0x31
 12105 436e 34       		.uleb128 0x34
 12106 436f 01       		.uleb128 0x1
 12107 4370 51       		.byte	0x51
 12108 4371 02       		.uleb128 0x2
ARM GAS  C:\Users\RAKIBU~1\AppData\Local\Temp\ccQ3AEax.s 			page 215


 12109 4372 09       		.byte	0x9
 12110 4373 9C       		.byte	0x9c
 12111 4374 34       		.uleb128 0x34
 12112 4375 01       		.uleb128 0x1
 12113 4376 52       		.byte	0x52
 12114 4377 02       		.uleb128 0x2
 12115 4378 91       		.byte	0x91
 12116 4379 74       		.sleb128 -12
 12117 437a 34       		.uleb128 0x34
 12118 437b 01       		.uleb128 0x1
 12119 437c 53       		.byte	0x53
 12120 437d 01       		.uleb128 0x1
 12121 437e 34       		.byte	0x34
 12122 437f 34       		.uleb128 0x34
 12123 4380 02       		.uleb128 0x2
 12124 4381 7D       		.byte	0x7d
 12125 4382 00       		.sleb128 0
 12126 4383 03       		.uleb128 0x3
 12127 4384 F3       		.byte	0xf3
 12128 4385 01       		.uleb128 0x1
 12129 4386 50       		.byte	0x50
 12130 4387 34       		.uleb128 0x34
 12131 4388 02       		.uleb128 0x2
 12132 4389 7D       		.byte	0x7d
 12133 438a 08       		.sleb128 8
 12134 438b 01       		.uleb128 0x1
 12135 438c 4A       		.byte	0x4a
 12136 438d 00       		.byte	0
 12137 438e 00       		.byte	0
 12138 438f 00       		.byte	0
 12139 4390 2F       		.uleb128 0x2f
 12140 4391 021C0000 		.4byte	.LASF884
 12141 4395 01       		.byte	0x1
 12142 4396 B603     		.2byte	0x3b6
 12143 4398 51090000 		.4byte	0x951
 12144 439c 600A0000 		.4byte	.LFB364
 12145 43a0 1C000000 		.4byte	.LFE364-.LFB364
 12146 43a4 01       		.uleb128 0x1
 12147 43a5 9C       		.byte	0x9c
 12148 43a6 EB430000 		.4byte	0x43eb
 12149 43aa 31       		.uleb128 0x31
 12150 43ab 72657400 		.ascii	"ret\000"
 12151 43af 01       		.byte	0x1
 12152 43b0 B803     		.2byte	0x3b8
 12153 43b2 51090000 		.4byte	0x951
 12154 43b6 D7060000 		.4byte	.LLST65
 12155 43ba 33       		.uleb128 0x33
 12156 43bb 760A0000 		.4byte	.LVL271
 12157 43bf 1A580000 		.4byte	0x581a
 12158 43c3 34       		.uleb128 0x34
 12159 43c4 01       		.uleb128 0x1
 12160 43c5 50       		.byte	0x50
 12161 43c6 01       		.uleb128 0x1
 12162 43c7 31       		.byte	0x31
 12163 43c8 34       		.uleb128 0x34
 12164 43c9 01       		.uleb128 0x1
 12165 43ca 51       		.byte	0x51
ARM GAS  C:\Users\RAKIBU~1\AppData\Local\Temp\ccQ3AEax.s 			page 216


 12166 43cb 01       		.uleb128 0x1
 12167 43cc 33       		.byte	0x33
 12168 43cd 34       		.uleb128 0x34
 12169 43ce 01       		.uleb128 0x1
 12170 43cf 52       		.byte	0x52
 12171 43d0 01       		.uleb128 0x1
 12172 43d1 30       		.byte	0x30
 12173 43d2 34       		.uleb128 0x34
 12174 43d3 01       		.uleb128 0x1
 12175 43d4 53       		.byte	0x53
 12176 43d5 01       		.uleb128 0x1
 12177 43d6 30       		.byte	0x30
 12178 43d7 34       		.uleb128 0x34
 12179 43d8 02       		.uleb128 0x2
 12180 43d9 7D       		.byte	0x7d
 12181 43da 00       		.sleb128 0
 12182 43db 01       		.uleb128 0x1
 12183 43dc 30       		.byte	0x30
 12184 43dd 34       		.uleb128 0x34
 12185 43de 02       		.uleb128 0x2
 12186 43df 7D       		.byte	0x7d
 12187 43e0 04       		.sleb128 4
 12188 43e1 01       		.uleb128 0x1
 12189 43e2 30       		.byte	0x30
 12190 43e3 34       		.uleb128 0x34
 12191 43e4 02       		.uleb128 0x2
 12192 43e5 7D       		.byte	0x7d
 12193 43e6 08       		.sleb128 8
 12194 43e7 01       		.uleb128 0x1
 12195 43e8 30       		.byte	0x30
 12196 43e9 00       		.byte	0
 12197 43ea 00       		.byte	0
 12198 43eb 2F       		.uleb128 0x2f
 12199 43ec 4E250000 		.4byte	.LASF885
 12200 43f0 01       		.byte	0x1
 12201 43f1 A903     		.2byte	0x3a9
 12202 43f3 51090000 		.4byte	0x951
 12203 43f7 400A0000 		.4byte	.LFB363
 12204 43fb 1C000000 		.4byte	.LFE363-.LFB363
 12205 43ff 01       		.uleb128 0x1
 12206 4400 9C       		.byte	0x9c
 12207 4401 47440000 		.4byte	0x4447
 12208 4405 31       		.uleb128 0x31
 12209 4406 72657400 		.ascii	"ret\000"
 12210 440a 01       		.byte	0x1
 12211 440b AB03     		.2byte	0x3ab
 12212 440d 51090000 		.4byte	0x951
 12213 4411 F6060000 		.4byte	.LLST64
 12214 4415 33       		.uleb128 0x33
 12215 4416 560A0000 		.4byte	.LVL269
 12216 441a 1A580000 		.4byte	0x581a
 12217 441e 34       		.uleb128 0x34
 12218 441f 01       		.uleb128 0x1
 12219 4420 50       		.byte	0x50
 12220 4421 01       		.uleb128 0x1
 12221 4422 31       		.byte	0x31
 12222 4423 34       		.uleb128 0x34
ARM GAS  C:\Users\RAKIBU~1\AppData\Local\Temp\ccQ3AEax.s 			page 217


 12223 4424 01       		.uleb128 0x1
 12224 4425 51       		.byte	0x51
 12225 4426 02       		.uleb128 0x2
 12226 4427 08       		.byte	0x8
 12227 4428 47       		.byte	0x47
 12228 4429 34       		.uleb128 0x34
 12229 442a 01       		.uleb128 0x1
 12230 442b 52       		.byte	0x52
 12231 442c 01       		.uleb128 0x1
 12232 442d 30       		.byte	0x30
 12233 442e 34       		.uleb128 0x34
 12234 442f 01       		.uleb128 0x1
 12235 4430 53       		.byte	0x53
 12236 4431 01       		.uleb128 0x1
 12237 4432 30       		.byte	0x30
 12238 4433 34       		.uleb128 0x34
 12239 4434 02       		.uleb128 0x2
 12240 4435 7D       		.byte	0x7d
 12241 4436 00       		.sleb128 0
 12242 4437 01       		.uleb128 0x1
 12243 4438 30       		.byte	0x30
 12244 4439 34       		.uleb128 0x34
 12245 443a 02       		.uleb128 0x2
 12246 443b 7D       		.byte	0x7d
 12247 443c 04       		.sleb128 4
 12248 443d 01       		.uleb128 0x1
 12249 443e 30       		.byte	0x30
 12250 443f 34       		.uleb128 0x34
 12251 4440 02       		.uleb128 0x2
 12252 4441 7D       		.byte	0x7d
 12253 4442 08       		.sleb128 8
 12254 4443 01       		.uleb128 0x1
 12255 4444 30       		.byte	0x30
 12256 4445 00       		.byte	0
 12257 4446 00       		.byte	0
 12258 4447 2F       		.uleb128 0x2f
 12259 4448 86010000 		.4byte	.LASF886
 12260 444c 01       		.byte	0x1
 12261 444d A003     		.2byte	0x3a0
 12262 444f 51090000 		.4byte	0x951
 12263 4453 100A0000 		.4byte	.LFB362
 12264 4457 26000000 		.4byte	.LFE362-.LFB362
 12265 445b 01       		.uleb128 0x1
 12266 445c 9C       		.byte	0x9c
 12267 445d B5440000 		.4byte	0x44b5
 12268 4461 30       		.uleb128 0x30
 12269 4462 2A300000 		.4byte	.LASF887
 12270 4466 01       		.byte	0x1
 12271 4467 A003     		.2byte	0x3a0
 12272 4469 B5440000 		.4byte	0x44b5
 12273 446d 15070000 		.4byte	.LLST62
 12274 4471 31       		.uleb128 0x31
 12275 4472 72657400 		.ascii	"ret\000"
 12276 4476 01       		.byte	0x1
 12277 4477 A203     		.2byte	0x3a2
 12278 4479 51090000 		.4byte	0x951
 12279 447d 5A070000 		.4byte	.LLST63
ARM GAS  C:\Users\RAKIBU~1\AppData\Local\Temp\ccQ3AEax.s 			page 218


 12280 4481 33       		.uleb128 0x33
 12281 4482 2A0A0000 		.4byte	.LVL265
 12282 4486 1A580000 		.4byte	0x581a
 12283 448a 34       		.uleb128 0x34
 12284 448b 01       		.uleb128 0x1
 12285 448c 50       		.byte	0x50
 12286 448d 01       		.uleb128 0x1
 12287 448e 31       		.byte	0x31
 12288 448f 34       		.uleb128 0x34
 12289 4490 01       		.uleb128 0x1
 12290 4491 51       		.byte	0x51
 12291 4492 02       		.uleb128 0x2
 12292 4493 08       		.byte	0x8
 12293 4494 22       		.byte	0x22
 12294 4495 34       		.uleb128 0x34
 12295 4496 01       		.uleb128 0x1
 12296 4497 52       		.byte	0x52
 12297 4498 03       		.uleb128 0x3
 12298 4499 F3       		.byte	0xf3
 12299 449a 01       		.uleb128 0x1
 12300 449b 50       		.byte	0x50
 12301 449c 34       		.uleb128 0x34
 12302 449d 01       		.uleb128 0x1
 12303 449e 53       		.byte	0x53
 12304 449f 01       		.uleb128 0x1
 12305 44a0 34       		.byte	0x34
 12306 44a1 34       		.uleb128 0x34
 12307 44a2 02       		.uleb128 0x2
 12308 44a3 7D       		.byte	0x7d
 12309 44a4 00       		.sleb128 0
 12310 44a5 01       		.uleb128 0x1
 12311 44a6 30       		.byte	0x30
 12312 44a7 34       		.uleb128 0x34
 12313 44a8 02       		.uleb128 0x2
 12314 44a9 7D       		.byte	0x7d
 12315 44aa 04       		.sleb128 4
 12316 44ab 01       		.uleb128 0x1
 12317 44ac 30       		.byte	0x30
 12318 44ad 34       		.uleb128 0x34
 12319 44ae 02       		.uleb128 0x2
 12320 44af 7D       		.byte	0x7d
 12321 44b0 08       		.sleb128 8
 12322 44b1 01       		.uleb128 0x1
 12323 44b2 30       		.byte	0x30
 12324 44b3 00       		.byte	0
 12325 44b4 00       		.byte	0
 12326 44b5 07       		.uleb128 0x7
 12327 44b6 04       		.byte	0x4
 12328 44b7 D52D0000 		.4byte	0x2dd5
 12329 44bb 2F       		.uleb128 0x2f
 12330 44bc 3F2A0000 		.4byte	.LASF888
 12331 44c0 01       		.byte	0x1
 12332 44c1 9603     		.2byte	0x396
 12333 44c3 51090000 		.4byte	0x951
 12334 44c7 E0090000 		.4byte	.LFB361
 12335 44cb 2A000000 		.4byte	.LFE361-.LFB361
 12336 44cf 01       		.uleb128 0x1
ARM GAS  C:\Users\RAKIBU~1\AppData\Local\Temp\ccQ3AEax.s 			page 219


 12337 44d0 9C       		.byte	0x9c
 12338 44d1 3D450000 		.4byte	0x453d
 12339 44d5 30       		.uleb128 0x30
 12340 44d6 FB1D0000 		.4byte	.LASF889
 12341 44da 01       		.byte	0x1
 12342 44db 9603     		.2byte	0x396
 12343 44dd 3D450000 		.4byte	0x453d
 12344 44e1 92070000 		.4byte	.LLST60
 12345 44e5 31       		.uleb128 0x31
 12346 44e6 72657400 		.ascii	"ret\000"
 12347 44ea 01       		.byte	0x1
 12348 44eb 9803     		.2byte	0x398
 12349 44ed 51090000 		.4byte	0x951
 12350 44f1 B0070000 		.4byte	.LLST61
 12351 44f5 38       		.uleb128 0x38
 12352 44f6 EA090000 		.4byte	.LVL260
 12353 44fa A1520000 		.4byte	0x52a1
 12354 44fe 09450000 		.4byte	0x4509
 12355 4502 34       		.uleb128 0x34
 12356 4503 01       		.uleb128 0x1
 12357 4504 50       		.byte	0x50
 12358 4505 02       		.uleb128 0x2
 12359 4506 74       		.byte	0x74
 12360 4507 00       		.sleb128 0
 12361 4508 00       		.byte	0
 12362 4509 33       		.uleb128 0x33
 12363 450a 000A0000 		.4byte	.LVL261
 12364 450e 1A580000 		.4byte	0x581a
 12365 4512 34       		.uleb128 0x34
 12366 4513 01       		.uleb128 0x1
 12367 4514 50       		.byte	0x50
 12368 4515 01       		.uleb128 0x1
 12369 4516 31       		.byte	0x31
 12370 4517 34       		.uleb128 0x34
 12371 4518 01       		.uleb128 0x1
 12372 4519 51       		.byte	0x51
 12373 451a 02       		.uleb128 0x2
 12374 451b 08       		.byte	0x8
 12375 451c 46       		.byte	0x46
 12376 451d 34       		.uleb128 0x34
 12377 451e 01       		.uleb128 0x1
 12378 451f 52       		.byte	0x52
 12379 4520 02       		.uleb128 0x2
 12380 4521 74       		.byte	0x74
 12381 4522 00       		.sleb128 0
 12382 4523 34       		.uleb128 0x34
 12383 4524 01       		.uleb128 0x1
 12384 4525 53       		.byte	0x53
 12385 4526 02       		.uleb128 0x2
 12386 4527 08       		.byte	0x8
 12387 4528 88       		.byte	0x88
 12388 4529 34       		.uleb128 0x34
 12389 452a 02       		.uleb128 0x2
 12390 452b 7D       		.byte	0x7d
 12391 452c 00       		.sleb128 0
 12392 452d 01       		.uleb128 0x1
 12393 452e 30       		.byte	0x30
ARM GAS  C:\Users\RAKIBU~1\AppData\Local\Temp\ccQ3AEax.s 			page 220


 12394 452f 34       		.uleb128 0x34
 12395 4530 02       		.uleb128 0x2
 12396 4531 7D       		.byte	0x7d
 12397 4532 04       		.sleb128 4
 12398 4533 01       		.uleb128 0x1
 12399 4534 30       		.byte	0x30
 12400 4535 34       		.uleb128 0x34
 12401 4536 02       		.uleb128 0x2
 12402 4537 7D       		.byte	0x7d
 12403 4538 08       		.sleb128 8
 12404 4539 01       		.uleb128 0x1
 12405 453a 30       		.byte	0x30
 12406 453b 00       		.byte	0
 12407 453c 00       		.byte	0
 12408 453d 07       		.uleb128 0x7
 12409 453e 04       		.byte	0x4
 12410 453f 86340000 		.4byte	0x3486
 12411 4543 2F       		.uleb128 0x2f
 12412 4544 930F0000 		.4byte	.LASF890
 12413 4548 01       		.byte	0x1
 12414 4549 9003     		.2byte	0x390
 12415 454b 51090000 		.4byte	0x951
 12416 454f C0090000 		.4byte	.LFB360
 12417 4553 1C000000 		.4byte	.LFE360-.LFB360
 12418 4557 01       		.uleb128 0x1
 12419 4558 9C       		.byte	0x9c
 12420 4559 9F450000 		.4byte	0x459f
 12421 455d 31       		.uleb128 0x31
 12422 455e 72657400 		.ascii	"ret\000"
 12423 4562 01       		.byte	0x1
 12424 4563 9203     		.2byte	0x392
 12425 4565 51090000 		.4byte	0x951
 12426 4569 DD070000 		.4byte	.LLST59
 12427 456d 33       		.uleb128 0x33
 12428 456e D6090000 		.4byte	.LVL257
 12429 4572 1A580000 		.4byte	0x581a
 12430 4576 34       		.uleb128 0x34
 12431 4577 01       		.uleb128 0x1
 12432 4578 50       		.byte	0x50
 12433 4579 01       		.uleb128 0x1
 12434 457a 31       		.byte	0x31
 12435 457b 34       		.uleb128 0x34
 12436 457c 01       		.uleb128 0x1
 12437 457d 51       		.byte	0x51
 12438 457e 02       		.uleb128 0x2
 12439 457f 08       		.byte	0x8
 12440 4580 5C       		.byte	0x5c
 12441 4581 34       		.uleb128 0x34
 12442 4582 01       		.uleb128 0x1
 12443 4583 52       		.byte	0x52
 12444 4584 01       		.uleb128 0x1
 12445 4585 30       		.byte	0x30
 12446 4586 34       		.uleb128 0x34
 12447 4587 01       		.uleb128 0x1
 12448 4588 53       		.byte	0x53
 12449 4589 01       		.uleb128 0x1
 12450 458a 30       		.byte	0x30
ARM GAS  C:\Users\RAKIBU~1\AppData\Local\Temp\ccQ3AEax.s 			page 221


 12451 458b 34       		.uleb128 0x34
 12452 458c 02       		.uleb128 0x2
 12453 458d 7D       		.byte	0x7d
 12454 458e 00       		.sleb128 0
 12455 458f 01       		.uleb128 0x1
 12456 4590 30       		.byte	0x30
 12457 4591 34       		.uleb128 0x34
 12458 4592 02       		.uleb128 0x2
 12459 4593 7D       		.byte	0x7d
 12460 4594 04       		.sleb128 4
 12461 4595 01       		.uleb128 0x1
 12462 4596 30       		.byte	0x30
 12463 4597 34       		.uleb128 0x34
 12464 4598 02       		.uleb128 0x2
 12465 4599 7D       		.byte	0x7d
 12466 459a 08       		.sleb128 8
 12467 459b 01       		.uleb128 0x1
 12468 459c 30       		.byte	0x30
 12469 459d 00       		.byte	0
 12470 459e 00       		.byte	0
 12471 459f 2F       		.uleb128 0x2f
 12472 45a0 D7300000 		.4byte	.LASF891
 12473 45a4 01       		.byte	0x1
 12474 45a5 8003     		.2byte	0x380
 12475 45a7 51090000 		.4byte	0x951
 12476 45ab 80090000 		.4byte	.LFB359
 12477 45af 34000000 		.4byte	.LFE359-.LFB359
 12478 45b3 01       		.uleb128 0x1
 12479 45b4 9C       		.byte	0x9c
 12480 45b5 25460000 		.4byte	0x4625
 12481 45b9 30       		.uleb128 0x30
 12482 45ba A4150000 		.4byte	.LASF892
 12483 45be 01       		.byte	0x1
 12484 45bf 8003     		.2byte	0x380
 12485 45c1 2B090000 		.4byte	0x92b
 12486 45c5 FC070000 		.4byte	.LLST57
 12487 45c9 31       		.uleb128 0x31
 12488 45ca 72657400 		.ascii	"ret\000"
 12489 45ce 01       		.byte	0x1
 12490 45cf 8203     		.2byte	0x382
 12491 45d1 51090000 		.4byte	0x951
 12492 45d5 42080000 		.4byte	.LLST58
 12493 45d9 3C       		.uleb128 0x3c
 12494 45da 90090000 		.4byte	.LBB24
 12495 45de 18000000 		.4byte	.LBE24-.LBB24
 12496 45e2 32       		.uleb128 0x32
 12497 45e3 0D1F0000 		.4byte	.LASF893
 12498 45e7 01       		.byte	0x1
 12499 45e8 8503     		.2byte	0x385
 12500 45ea E2330000 		.4byte	0x33e2
 12501 45ee 02       		.uleb128 0x2
 12502 45ef 91       		.byte	0x91
 12503 45f0 74       		.sleb128 -12
 12504 45f1 33       		.uleb128 0x33
 12505 45f2 A8090000 		.4byte	.LVL253
 12506 45f6 1A580000 		.4byte	0x581a
 12507 45fa 34       		.uleb128 0x34
ARM GAS  C:\Users\RAKIBU~1\AppData\Local\Temp\ccQ3AEax.s 			page 222


 12508 45fb 01       		.uleb128 0x1
 12509 45fc 50       		.byte	0x50
 12510 45fd 01       		.uleb128 0x1
 12511 45fe 31       		.byte	0x31
 12512 45ff 34       		.uleb128 0x34
 12513 4600 01       		.uleb128 0x1
 12514 4601 51       		.byte	0x51
 12515 4602 02       		.uleb128 0x2
 12516 4603 08       		.byte	0x8
 12517 4604 5B       		.byte	0x5b
 12518 4605 34       		.uleb128 0x34
 12519 4606 01       		.uleb128 0x1
 12520 4607 52       		.byte	0x52
 12521 4608 02       		.uleb128 0x2
 12522 4609 91       		.byte	0x91
 12523 460a 74       		.sleb128 -12
 12524 460b 34       		.uleb128 0x34
 12525 460c 01       		.uleb128 0x1
 12526 460d 53       		.byte	0x53
 12527 460e 01       		.uleb128 0x1
 12528 460f 34       		.byte	0x34
 12529 4610 34       		.uleb128 0x34
 12530 4611 02       		.uleb128 0x2
 12531 4612 7D       		.byte	0x7d
 12532 4613 00       		.sleb128 0
 12533 4614 01       		.uleb128 0x1
 12534 4615 30       		.byte	0x30
 12535 4616 34       		.uleb128 0x34
 12536 4617 02       		.uleb128 0x2
 12537 4618 7D       		.byte	0x7d
 12538 4619 04       		.sleb128 4
 12539 461a 01       		.uleb128 0x1
 12540 461b 30       		.byte	0x30
 12541 461c 34       		.uleb128 0x34
 12542 461d 02       		.uleb128 0x2
 12543 461e 7D       		.byte	0x7d
 12544 461f 08       		.sleb128 8
 12545 4620 01       		.uleb128 0x1
 12546 4621 30       		.byte	0x30
 12547 4622 00       		.byte	0
 12548 4623 00       		.byte	0
 12549 4624 00       		.byte	0
 12550 4625 2F       		.uleb128 0x2f
 12551 4626 65220000 		.4byte	.LASF894
 12552 462a 01       		.byte	0x1
 12553 462b 7403     		.2byte	0x374
 12554 462d 51090000 		.4byte	0x951
 12555 4631 70090000 		.4byte	.LFB358
 12556 4635 04000000 		.4byte	.LFE358-.LFB358
 12557 4639 01       		.uleb128 0x1
 12558 463a 9C       		.byte	0x9c
 12559 463b 5C460000 		.4byte	0x465c
 12560 463f 3D       		.uleb128 0x3d
 12561 4640 636800   		.ascii	"ch\000"
 12562 4643 01       		.byte	0x1
 12563 4644 7403     		.2byte	0x374
 12564 4646 2B090000 		.4byte	0x92b
ARM GAS  C:\Users\RAKIBU~1\AppData\Local\Temp\ccQ3AEax.s 			page 223


 12565 464a 78080000 		.4byte	.LLST56
 12566 464e 3E       		.uleb128 0x3e
 12567 464f 72657400 		.ascii	"ret\000"
 12568 4653 01       		.byte	0x1
 12569 4654 7603     		.2byte	0x376
 12570 4656 51090000 		.4byte	0x951
 12571 465a 00       		.byte	0
 12572 465b 00       		.byte	0
 12573 465c 2F       		.uleb128 0x2f
 12574 465d 95060000 		.4byte	.LASF895
 12575 4661 01       		.byte	0x1
 12576 4662 5D03     		.2byte	0x35d
 12577 4664 51090000 		.4byte	0x951
 12578 4668 60090000 		.4byte	.LFB357
 12579 466c 04000000 		.4byte	.LFE357-.LFB357
 12580 4670 01       		.uleb128 0x1
 12581 4671 9C       		.byte	0x9c
 12582 4672 94460000 		.4byte	0x4694
 12583 4676 30       		.uleb128 0x30
 12584 4677 B60C0000 		.4byte	.LASF896
 12585 467b 01       		.byte	0x1
 12586 467c 5D03     		.2byte	0x35d
 12587 467e 2B090000 		.4byte	0x92b
 12588 4682 99080000 		.4byte	.LLST55
 12589 4686 3E       		.uleb128 0x3e
 12590 4687 72657400 		.ascii	"ret\000"
 12591 468b 01       		.byte	0x1
 12592 468c 6003     		.2byte	0x360
 12593 468e 51090000 		.4byte	0x951
 12594 4692 00       		.byte	0
 12595 4693 00       		.byte	0
 12596 4694 2F       		.uleb128 0x2f
 12597 4695 93300000 		.4byte	.LASF897
 12598 4699 01       		.byte	0x1
 12599 469a 4C03     		.2byte	0x34c
 12600 469c 51090000 		.4byte	0x951
 12601 46a0 40090000 		.4byte	.LFB356
 12602 46a4 1C000000 		.4byte	.LFE356-.LFB356
 12603 46a8 01       		.uleb128 0x1
 12604 46a9 9C       		.byte	0x9c
 12605 46aa F0460000 		.4byte	0x46f0
 12606 46ae 31       		.uleb128 0x31
 12607 46af 72657400 		.ascii	"ret\000"
 12608 46b3 01       		.byte	0x1
 12609 46b4 4E03     		.2byte	0x34e
 12610 46b6 51090000 		.4byte	0x951
 12611 46ba BA080000 		.4byte	.LLST54
 12612 46be 33       		.uleb128 0x33
 12613 46bf 56090000 		.4byte	.LVL246
 12614 46c3 1A580000 		.4byte	0x581a
 12615 46c7 34       		.uleb128 0x34
 12616 46c8 01       		.uleb128 0x1
 12617 46c9 50       		.byte	0x50
 12618 46ca 01       		.uleb128 0x1
 12619 46cb 31       		.byte	0x31
 12620 46cc 34       		.uleb128 0x34
 12621 46cd 01       		.uleb128 0x1
ARM GAS  C:\Users\RAKIBU~1\AppData\Local\Temp\ccQ3AEax.s 			page 224


 12622 46ce 51       		.byte	0x51
 12623 46cf 02       		.uleb128 0x2
 12624 46d0 08       		.byte	0x8
 12625 46d1 31       		.byte	0x31
 12626 46d2 34       		.uleb128 0x34
 12627 46d3 01       		.uleb128 0x1
 12628 46d4 52       		.byte	0x52
 12629 46d5 01       		.uleb128 0x1
 12630 46d6 30       		.byte	0x30
 12631 46d7 34       		.uleb128 0x34
 12632 46d8 01       		.uleb128 0x1
 12633 46d9 53       		.byte	0x53
 12634 46da 01       		.uleb128 0x1
 12635 46db 30       		.byte	0x30
 12636 46dc 34       		.uleb128 0x34
 12637 46dd 02       		.uleb128 0x2
 12638 46de 7D       		.byte	0x7d
 12639 46df 00       		.sleb128 0
 12640 46e0 01       		.uleb128 0x1
 12641 46e1 30       		.byte	0x30
 12642 46e2 34       		.uleb128 0x34
 12643 46e3 02       		.uleb128 0x2
 12644 46e4 7D       		.byte	0x7d
 12645 46e5 04       		.sleb128 4
 12646 46e6 01       		.uleb128 0x1
 12647 46e7 30       		.byte	0x30
 12648 46e8 34       		.uleb128 0x34
 12649 46e9 02       		.uleb128 0x2
 12650 46ea 7D       		.byte	0x7d
 12651 46eb 08       		.sleb128 8
 12652 46ec 01       		.uleb128 0x1
 12653 46ed 30       		.byte	0x30
 12654 46ee 00       		.byte	0
 12655 46ef 00       		.byte	0
 12656 46f0 2F       		.uleb128 0x2f
 12657 46f1 C6200000 		.4byte	.LASF898
 12658 46f5 01       		.byte	0x1
 12659 46f6 3F03     		.2byte	0x33f
 12660 46f8 51090000 		.4byte	0x951
 12661 46fc 00090000 		.4byte	.LFB355
 12662 4700 3C000000 		.4byte	.LFE355-.LFB355
 12663 4704 01       		.uleb128 0x1
 12664 4705 9C       		.byte	0x9c
 12665 4706 85470000 		.4byte	0x4785
 12666 470a 30       		.uleb128 0x30
 12667 470b 0B120000 		.4byte	.LASF704
 12668 470f 01       		.byte	0x1
 12669 4710 3F03     		.2byte	0x33f
 12670 4712 2B090000 		.4byte	0x92b
 12671 4716 D9080000 		.4byte	.LLST52
 12672 471a 30       		.uleb128 0x30
 12673 471b 30320000 		.4byte	.LASF899
 12674 471f 01       		.byte	0x1
 12675 4720 3F03     		.2byte	0x33f
 12676 4722 D7050000 		.4byte	0x5d7
 12677 4726 1F090000 		.4byte	.LLST53
 12678 472a 32       		.uleb128 0x32
ARM GAS  C:\Users\RAKIBU~1\AppData\Local\Temp\ccQ3AEax.s 			page 225


 12679 472b 0D1F0000 		.4byte	.LASF893
 12680 472f 01       		.byte	0x1
 12681 4730 4103     		.2byte	0x341
 12682 4732 BA2F0000 		.4byte	0x2fba
 12683 4736 02       		.uleb128 0x2
 12684 4737 91       		.byte	0x91
 12685 4738 6C       		.sleb128 -20
 12686 4739 38       		.uleb128 0x38
 12687 473a 24090000 		.4byte	.LVL241
 12688 473e 1A580000 		.4byte	0x581a
 12689 4742 6F470000 		.4byte	0x476f
 12690 4746 34       		.uleb128 0x34
 12691 4747 01       		.uleb128 0x1
 12692 4748 50       		.byte	0x50
 12693 4749 01       		.uleb128 0x1
 12694 474a 31       		.byte	0x31
 12695 474b 34       		.uleb128 0x34
 12696 474c 01       		.uleb128 0x1
 12697 474d 51       		.byte	0x51
 12698 474e 02       		.uleb128 0x2
 12699 474f 08       		.byte	0x8
 12700 4750 2F       		.byte	0x2f
 12701 4751 34       		.uleb128 0x34
 12702 4752 01       		.uleb128 0x1
 12703 4753 52       		.byte	0x52
 12704 4754 02       		.uleb128 0x2
 12705 4755 91       		.byte	0x91
 12706 4756 6C       		.sleb128 -20
 12707 4757 34       		.uleb128 0x34
 12708 4758 01       		.uleb128 0x1
 12709 4759 53       		.byte	0x53
 12710 475a 01       		.uleb128 0x1
 12711 475b 3C       		.byte	0x3c
 12712 475c 34       		.uleb128 0x34
 12713 475d 02       		.uleb128 0x2
 12714 475e 7D       		.byte	0x7d
 12715 475f 00       		.sleb128 0
 12716 4760 01       		.uleb128 0x1
 12717 4761 30       		.byte	0x30
 12718 4762 34       		.uleb128 0x34
 12719 4763 02       		.uleb128 0x2
 12720 4764 7D       		.byte	0x7d
 12721 4765 04       		.sleb128 4
 12722 4766 01       		.uleb128 0x1
 12723 4767 30       		.byte	0x30
 12724 4768 34       		.uleb128 0x34
 12725 4769 02       		.uleb128 0x2
 12726 476a 7D       		.byte	0x7d
 12727 476b 08       		.sleb128 8
 12728 476c 01       		.uleb128 0x1
 12729 476d 30       		.byte	0x30
 12730 476e 00       		.byte	0
 12731 476f 33       		.uleb128 0x33
 12732 4770 34090000 		.4byte	.LVL244
 12733 4774 25580000 		.4byte	0x5825
 12734 4778 34       		.uleb128 0x34
 12735 4779 01       		.uleb128 0x1
ARM GAS  C:\Users\RAKIBU~1\AppData\Local\Temp\ccQ3AEax.s 			page 226


 12736 477a 50       		.byte	0x50
 12737 477b 02       		.uleb128 0x2
 12738 477c 91       		.byte	0x91
 12739 477d 6D       		.sleb128 -19
 12740 477e 34       		.uleb128 0x34
 12741 477f 01       		.uleb128 0x1
 12742 4780 52       		.byte	0x52
 12743 4781 01       		.uleb128 0x1
 12744 4782 38       		.byte	0x38
 12745 4783 00       		.byte	0
 12746 4784 00       		.byte	0
 12747 4785 2F       		.uleb128 0x2f
 12748 4786 67140000 		.4byte	.LASF900
 12749 478a 01       		.byte	0x1
 12750 478b 1803     		.2byte	0x318
 12751 478d 51090000 		.4byte	0x951
 12752 4791 80080000 		.4byte	.LFB354
 12753 4795 80000000 		.4byte	.LFE354-.LFB354
 12754 4799 01       		.uleb128 0x1
 12755 479a 9C       		.byte	0x9c
 12756 479b 45480000 		.4byte	0x4845
 12757 479f 3D       		.uleb128 0x3d
 12758 47a0 636800   		.ascii	"ch\000"
 12759 47a3 01       		.byte	0x1
 12760 47a4 1803     		.2byte	0x318
 12761 47a6 2B090000 		.4byte	0x92b
 12762 47aa 59090000 		.4byte	.LLST47
 12763 47ae 30       		.uleb128 0x30
 12764 47af D8070000 		.4byte	.LASF901
 12765 47b3 01       		.byte	0x1
 12766 47b4 1803     		.2byte	0x318
 12767 47b6 FF360000 		.4byte	0x36ff
 12768 47ba C3090000 		.4byte	.LLST48
 12769 47be 35       		.uleb128 0x35
 12770 47bf F22F0000 		.4byte	.LASF858
 12771 47c3 01       		.byte	0x1
 12772 47c4 1A03     		.2byte	0x31a
 12773 47c6 51090000 		.4byte	0x951
 12774 47ca 140A0000 		.4byte	.LLST49
 12775 47ce 36       		.uleb128 0x36
 12776 47cf A80D0000 		.4byte	.LASF903
 12777 47d3 01       		.byte	0x1
 12778 47d4 3C03     		.2byte	0x33c
 12779 47d6 E4080000 		.4byte	.L174
 12780 47da 37       		.uleb128 0x37
 12781 47db 48000000 		.4byte	.Ldebug_ranges0+0x48
 12782 47df 32       		.uleb128 0x32
 12783 47e0 0D1F0000 		.4byte	.LASF893
 12784 47e4 01       		.byte	0x1
 12785 47e5 2003     		.2byte	0x320
 12786 47e7 FB300000 		.4byte	0x30fb
 12787 47eb 02       		.uleb128 0x2
 12788 47ec 91       		.byte	0x91
 12789 47ed 74       		.sleb128 -12
 12790 47ee 35       		.uleb128 0x35
 12791 47ef 912E0000 		.4byte	.LASF904
 12792 47f3 01       		.byte	0x1
ARM GAS  C:\Users\RAKIBU~1\AppData\Local\Temp\ccQ3AEax.s 			page 227


 12793 47f4 2103     		.2byte	0x321
 12794 47f6 3B090000 		.4byte	0x93b
 12795 47fa 7C0A0000 		.4byte	.LLST50
 12796 47fe 35       		.uleb128 0x35
 12797 47ff 02030000 		.4byte	.LASF905
 12798 4803 01       		.byte	0x1
 12799 4804 2203     		.2byte	0x322
 12800 4806 2B090000 		.4byte	0x92b
 12801 480a B20A0000 		.4byte	.LLST51
 12802 480e 33       		.uleb128 0x33
 12803 480f D4080000 		.4byte	.LVL234
 12804 4813 1A580000 		.4byte	0x581a
 12805 4817 34       		.uleb128 0x34
 12806 4818 01       		.uleb128 0x1
 12807 4819 50       		.byte	0x50
 12808 481a 01       		.uleb128 0x1
 12809 481b 31       		.byte	0x31
 12810 481c 34       		.uleb128 0x34
 12811 481d 01       		.uleb128 0x1
 12812 481e 51       		.byte	0x51
 12813 481f 02       		.uleb128 0x2
 12814 4820 09       		.byte	0x9
 12815 4821 A1       		.byte	0xa1
 12816 4822 34       		.uleb128 0x34
 12817 4823 01       		.uleb128 0x1
 12818 4824 52       		.byte	0x52
 12819 4825 02       		.uleb128 0x2
 12820 4826 91       		.byte	0x91
 12821 4827 74       		.sleb128 -12
 12822 4828 34       		.uleb128 0x34
 12823 4829 01       		.uleb128 0x1
 12824 482a 53       		.byte	0x53
 12825 482b 01       		.uleb128 0x1
 12826 482c 34       		.byte	0x34
 12827 482d 34       		.uleb128 0x34
 12828 482e 02       		.uleb128 0x2
 12829 482f 7D       		.byte	0x7d
 12830 4830 00       		.sleb128 0
 12831 4831 03       		.uleb128 0x3
 12832 4832 F3       		.byte	0xf3
 12833 4833 01       		.uleb128 0x1
 12834 4834 51       		.byte	0x51
 12835 4835 34       		.uleb128 0x34
 12836 4836 02       		.uleb128 0x2
 12837 4837 7D       		.byte	0x7d
 12838 4838 04       		.sleb128 4
 12839 4839 02       		.uleb128 0x2
 12840 483a 74       		.byte	0x74
 12841 483b 00       		.sleb128 0
 12842 483c 34       		.uleb128 0x34
 12843 483d 02       		.uleb128 0x2
 12844 483e 7D       		.byte	0x7d
 12845 483f 08       		.sleb128 8
 12846 4840 01       		.uleb128 0x1
 12847 4841 34       		.byte	0x34
 12848 4842 00       		.byte	0
 12849 4843 00       		.byte	0
ARM GAS  C:\Users\RAKIBU~1\AppData\Local\Temp\ccQ3AEax.s 			page 228


 12850 4844 00       		.byte	0
 12851 4845 2F       		.uleb128 0x2f
 12852 4846 C0060000 		.4byte	.LASF906
 12853 484a 01       		.byte	0x1
 12854 484b F902     		.2byte	0x2f9
 12855 484d 51090000 		.4byte	0x951
 12856 4851 20080000 		.4byte	.LFB353
 12857 4855 58000000 		.4byte	.LFE353-.LFB353
 12858 4859 01       		.uleb128 0x1
 12859 485a 9C       		.byte	0x9c
 12860 485b DA480000 		.4byte	0x48da
 12861 485f 3D       		.uleb128 0x3d
 12862 4860 636800   		.ascii	"ch\000"
 12863 4863 01       		.byte	0x1
 12864 4864 F902     		.2byte	0x2f9
 12865 4866 2B090000 		.4byte	0x92b
 12866 486a E60A0000 		.4byte	.LLST44
 12867 486e 30       		.uleb128 0x30
 12868 486f 871B0000 		.4byte	.LASF907
 12869 4873 01       		.byte	0x1
 12870 4874 F902     		.2byte	0x2f9
 12871 4876 3B090000 		.4byte	0x93b
 12872 487a 2C0B0000 		.4byte	.LLST45
 12873 487e 35       		.uleb128 0x35
 12874 487f F22F0000 		.4byte	.LASF858
 12875 4883 01       		.byte	0x1
 12876 4884 FB02     		.2byte	0x2fb
 12877 4886 51090000 		.4byte	0x951
 12878 488a 640B0000 		.4byte	.LLST46
 12879 488e 3C       		.uleb128 0x3c
 12880 488f 36080000 		.4byte	.LBB20
 12881 4893 26000000 		.4byte	.LBE20-.LBB20
 12882 4897 32       		.uleb128 0x32
 12883 4898 0D1F0000 		.4byte	.LASF893
 12884 489c 01       		.byte	0x1
 12885 489d 0103     		.2byte	0x301
 12886 489f FB300000 		.4byte	0x30fb
 12887 48a3 02       		.uleb128 0x2
 12888 48a4 91       		.byte	0x91
 12889 48a5 74       		.sleb128 -12
 12890 48a6 33       		.uleb128 0x33
 12891 48a7 52080000 		.4byte	.LVL215
 12892 48ab 1A580000 		.4byte	0x581a
 12893 48af 34       		.uleb128 0x34
 12894 48b0 01       		.uleb128 0x1
 12895 48b1 50       		.byte	0x50
 12896 48b2 01       		.uleb128 0x1
 12897 48b3 31       		.byte	0x31
 12898 48b4 34       		.uleb128 0x34
 12899 48b5 01       		.uleb128 0x1
 12900 48b6 51       		.byte	0x51
 12901 48b7 02       		.uleb128 0x2
 12902 48b8 08       		.byte	0x8
 12903 48b9 23       		.byte	0x23
 12904 48ba 34       		.uleb128 0x34
 12905 48bb 01       		.uleb128 0x1
 12906 48bc 52       		.byte	0x52
ARM GAS  C:\Users\RAKIBU~1\AppData\Local\Temp\ccQ3AEax.s 			page 229


 12907 48bd 02       		.uleb128 0x2
 12908 48be 91       		.byte	0x91
 12909 48bf 74       		.sleb128 -12
 12910 48c0 34       		.uleb128 0x34
 12911 48c1 01       		.uleb128 0x1
 12912 48c2 53       		.byte	0x53
 12913 48c3 01       		.uleb128 0x1
 12914 48c4 34       		.byte	0x34
 12915 48c5 34       		.uleb128 0x34
 12916 48c6 02       		.uleb128 0x2
 12917 48c7 7D       		.byte	0x7d
 12918 48c8 00       		.sleb128 0
 12919 48c9 01       		.uleb128 0x1
 12920 48ca 30       		.byte	0x30
 12921 48cb 34       		.uleb128 0x34
 12922 48cc 02       		.uleb128 0x2
 12923 48cd 7D       		.byte	0x7d
 12924 48ce 04       		.sleb128 4
 12925 48cf 01       		.uleb128 0x1
 12926 48d0 30       		.byte	0x30
 12927 48d1 34       		.uleb128 0x34
 12928 48d2 02       		.uleb128 0x2
 12929 48d3 7D       		.byte	0x7d
 12930 48d4 08       		.sleb128 8
 12931 48d5 01       		.uleb128 0x1
 12932 48d6 30       		.byte	0x30
 12933 48d7 00       		.byte	0
 12934 48d8 00       		.byte	0
 12935 48d9 00       		.byte	0
 12936 48da 2F       		.uleb128 0x2f
 12937 48db 7B2E0000 		.4byte	.LASF908
 12938 48df 01       		.byte	0x1
 12939 48e0 DD02     		.2byte	0x2dd
 12940 48e2 51090000 		.4byte	0x951
 12941 48e6 C0070000 		.4byte	.LFB352
 12942 48ea 54000000 		.4byte	.LFE352-.LFB352
 12943 48ee 01       		.uleb128 0x1
 12944 48ef 9C       		.byte	0x9c
 12945 48f0 5E490000 		.4byte	0x495e
 12946 48f4 3D       		.uleb128 0x3d
 12947 48f5 636800   		.ascii	"ch\000"
 12948 48f8 01       		.byte	0x1
 12949 48f9 DD02     		.2byte	0x2dd
 12950 48fb 2B090000 		.4byte	0x92b
 12951 48ff A50B0000 		.4byte	.LLST42
 12952 4903 35       		.uleb128 0x35
 12953 4904 F22F0000 		.4byte	.LASF858
 12954 4908 01       		.byte	0x1
 12955 4909 DF02     		.2byte	0x2df
 12956 490b 51090000 		.4byte	0x951
 12957 490f EB0B0000 		.4byte	.LLST43
 12958 4913 3C       		.uleb128 0x3c
 12959 4914 D6070000 		.4byte	.LBB19
 12960 4918 22000000 		.4byte	.LBE19-.LBB19
 12961 491c 32       		.uleb128 0x32
 12962 491d 0D1F0000 		.4byte	.LASF893
 12963 4921 01       		.byte	0x1
ARM GAS  C:\Users\RAKIBU~1\AppData\Local\Temp\ccQ3AEax.s 			page 230


 12964 4922 E502     		.2byte	0x2e5
 12965 4924 FB300000 		.4byte	0x30fb
 12966 4928 02       		.uleb128 0x2
 12967 4929 91       		.byte	0x91
 12968 492a 74       		.sleb128 -12
 12969 492b 33       		.uleb128 0x33
 12970 492c EE070000 		.4byte	.LVL207
 12971 4930 1A580000 		.4byte	0x581a
 12972 4934 34       		.uleb128 0x34
 12973 4935 01       		.uleb128 0x1
 12974 4936 50       		.byte	0x50
 12975 4937 01       		.uleb128 0x1
 12976 4938 31       		.byte	0x31
 12977 4939 34       		.uleb128 0x34
 12978 493a 01       		.uleb128 0x1
 12979 493b 51       		.byte	0x51
 12980 493c 01       		.uleb128 0x1
 12981 493d 40       		.byte	0x40
 12982 493e 34       		.uleb128 0x34
 12983 493f 01       		.uleb128 0x1
 12984 4940 52       		.byte	0x52
 12985 4941 02       		.uleb128 0x2
 12986 4942 91       		.byte	0x91
 12987 4943 74       		.sleb128 -12
 12988 4944 34       		.uleb128 0x34
 12989 4945 01       		.uleb128 0x1
 12990 4946 53       		.byte	0x53
 12991 4947 01       		.uleb128 0x1
 12992 4948 34       		.byte	0x34
 12993 4949 34       		.uleb128 0x34
 12994 494a 02       		.uleb128 0x2
 12995 494b 7D       		.byte	0x7d
 12996 494c 00       		.sleb128 0
 12997 494d 01       		.uleb128 0x1
 12998 494e 30       		.byte	0x30
 12999 494f 34       		.uleb128 0x34
 13000 4950 02       		.uleb128 0x2
 13001 4951 7D       		.byte	0x7d
 13002 4952 04       		.sleb128 4
 13003 4953 01       		.uleb128 0x1
 13004 4954 30       		.byte	0x30
 13005 4955 34       		.uleb128 0x34
 13006 4956 02       		.uleb128 0x2
 13007 4957 7D       		.byte	0x7d
 13008 4958 08       		.sleb128 8
 13009 4959 01       		.uleb128 0x1
 13010 495a 30       		.byte	0x30
 13011 495b 00       		.byte	0
 13012 495c 00       		.byte	0
 13013 495d 00       		.byte	0
 13014 495e 2F       		.uleb128 0x2f
 13015 495f AC1B0000 		.4byte	.LASF909
 13016 4963 01       		.byte	0x1
 13017 4964 D502     		.2byte	0x2d5
 13018 4966 51090000 		.4byte	0x951
 13019 496a 90070000 		.4byte	.LFB351
 13020 496e 22000000 		.4byte	.LFE351-.LFB351
ARM GAS  C:\Users\RAKIBU~1\AppData\Local\Temp\ccQ3AEax.s 			page 231


 13021 4972 01       		.uleb128 0x1
 13022 4973 9C       		.byte	0x9c
 13023 4974 D9490000 		.4byte	0x49d9
 13024 4978 30       		.uleb128 0x30
 13025 4979 200D0000 		.4byte	.LASF910
 13026 497d 01       		.byte	0x1
 13027 497e D502     		.2byte	0x2d5
 13028 4980 3B090000 		.4byte	0x93b
 13029 4984 2C0C0000 		.4byte	.LLST40
 13030 4988 35       		.uleb128 0x35
 13031 4989 F22F0000 		.4byte	.LASF858
 13032 498d 01       		.byte	0x1
 13033 498e D702     		.2byte	0x2d7
 13034 4990 51090000 		.4byte	0x951
 13035 4994 590C0000 		.4byte	.LLST41
 13036 4998 32       		.uleb128 0x32
 13037 4999 2E1B0000 		.4byte	.LASF911
 13038 499d 01       		.byte	0x1
 13039 499e D802     		.2byte	0x2d8
 13040 49a0 AE300000 		.4byte	0x30ae
 13041 49a4 02       		.uleb128 0x2
 13042 49a5 91       		.byte	0x91
 13043 49a6 74       		.sleb128 -12
 13044 49a7 33       		.uleb128 0x33
 13045 49a8 AC070000 		.4byte	.LVL204
 13046 49ac 1A580000 		.4byte	0x581a
 13047 49b0 34       		.uleb128 0x34
 13048 49b1 01       		.uleb128 0x1
 13049 49b2 50       		.byte	0x50
 13050 49b3 01       		.uleb128 0x1
 13051 49b4 31       		.byte	0x31
 13052 49b5 34       		.uleb128 0x34
 13053 49b6 01       		.uleb128 0x1
 13054 49b7 51       		.byte	0x51
 13055 49b8 01       		.uleb128 0x1
 13056 49b9 45       		.byte	0x45
 13057 49ba 34       		.uleb128 0x34
 13058 49bb 01       		.uleb128 0x1
 13059 49bc 52       		.byte	0x52
 13060 49bd 02       		.uleb128 0x2
 13061 49be 91       		.byte	0x91
 13062 49bf 74       		.sleb128 -12
 13063 49c0 34       		.uleb128 0x34
 13064 49c1 01       		.uleb128 0x1
 13065 49c2 53       		.byte	0x53
 13066 49c3 01       		.uleb128 0x1
 13067 49c4 34       		.byte	0x34
 13068 49c5 34       		.uleb128 0x34
 13069 49c6 02       		.uleb128 0x2
 13070 49c7 7D       		.byte	0x7d
 13071 49c8 00       		.sleb128 0
 13072 49c9 01       		.uleb128 0x1
 13073 49ca 30       		.byte	0x30
 13074 49cb 34       		.uleb128 0x34
 13075 49cc 02       		.uleb128 0x2
 13076 49cd 7D       		.byte	0x7d
 13077 49ce 04       		.sleb128 4
ARM GAS  C:\Users\RAKIBU~1\AppData\Local\Temp\ccQ3AEax.s 			page 232


 13078 49cf 01       		.uleb128 0x1
 13079 49d0 30       		.byte	0x30
 13080 49d1 34       		.uleb128 0x34
 13081 49d2 02       		.uleb128 0x2
 13082 49d3 7D       		.byte	0x7d
 13083 49d4 08       		.sleb128 8
 13084 49d5 01       		.uleb128 0x1
 13085 49d6 30       		.byte	0x30
 13086 49d7 00       		.byte	0
 13087 49d8 00       		.byte	0
 13088 49d9 2F       		.uleb128 0x2f
 13089 49da E51A0000 		.4byte	.LASF912
 13090 49de 01       		.byte	0x1
 13091 49df CC02     		.2byte	0x2cc
 13092 49e1 51090000 		.4byte	0x951
 13093 49e5 60070000 		.4byte	.LFB350
 13094 49e9 2A000000 		.4byte	.LFE350-.LFB350
 13095 49ed 01       		.uleb128 0x1
 13096 49ee 9C       		.byte	0x9c
 13097 49ef 594A0000 		.4byte	0x4a59
 13098 49f3 30       		.uleb128 0x30
 13099 49f4 AB1A0000 		.4byte	.LASF913
 13100 49f8 01       		.byte	0x1
 13101 49f9 CC02     		.2byte	0x2cc
 13102 49fb 594A0000 		.4byte	0x4a59
 13103 49ff 790C0000 		.4byte	.LLST38
 13104 4a03 35       		.uleb128 0x35
 13105 4a04 F22F0000 		.4byte	.LASF858
 13106 4a08 01       		.byte	0x1
 13107 4a09 CE02     		.2byte	0x2ce
 13108 4a0b 51090000 		.4byte	0x951
 13109 4a0f 970C0000 		.4byte	.LLST39
 13110 4a13 38       		.uleb128 0x38
 13111 4a14 6A070000 		.4byte	.LVL198
 13112 4a18 5A520000 		.4byte	0x525a
 13113 4a1c 274A0000 		.4byte	0x4a27
 13114 4a20 34       		.uleb128 0x34
 13115 4a21 01       		.uleb128 0x1
 13116 4a22 50       		.byte	0x50
 13117 4a23 02       		.uleb128 0x2
 13118 4a24 74       		.byte	0x74
 13119 4a25 00       		.sleb128 0
 13120 4a26 00       		.byte	0
 13121 4a27 33       		.uleb128 0x33
 13122 4a28 80070000 		.4byte	.LVL199
 13123 4a2c 1A580000 		.4byte	0x581a
 13124 4a30 34       		.uleb128 0x34
 13125 4a31 01       		.uleb128 0x1
 13126 4a32 50       		.byte	0x50
 13127 4a33 01       		.uleb128 0x1
 13128 4a34 31       		.byte	0x31
 13129 4a35 34       		.uleb128 0x34
 13130 4a36 01       		.uleb128 0x1
 13131 4a37 51       		.byte	0x51
 13132 4a38 01       		.uleb128 0x1
 13133 4a39 44       		.byte	0x44
 13134 4a3a 34       		.uleb128 0x34
ARM GAS  C:\Users\RAKIBU~1\AppData\Local\Temp\ccQ3AEax.s 			page 233


 13135 4a3b 01       		.uleb128 0x1
 13136 4a3c 52       		.byte	0x52
 13137 4a3d 02       		.uleb128 0x2
 13138 4a3e 74       		.byte	0x74
 13139 4a3f 00       		.sleb128 0
 13140 4a40 34       		.uleb128 0x34
 13141 4a41 01       		.uleb128 0x1
 13142 4a42 53       		.byte	0x53
 13143 4a43 01       		.uleb128 0x1
 13144 4a44 34       		.byte	0x34
 13145 4a45 34       		.uleb128 0x34
 13146 4a46 02       		.uleb128 0x2
 13147 4a47 7D       		.byte	0x7d
 13148 4a48 00       		.sleb128 0
 13149 4a49 01       		.uleb128 0x1
 13150 4a4a 30       		.byte	0x30
 13151 4a4b 34       		.uleb128 0x34
 13152 4a4c 02       		.uleb128 0x2
 13153 4a4d 7D       		.byte	0x7d
 13154 4a4e 04       		.sleb128 4
 13155 4a4f 01       		.uleb128 0x1
 13156 4a50 30       		.byte	0x30
 13157 4a51 34       		.uleb128 0x34
 13158 4a52 02       		.uleb128 0x2
 13159 4a53 7D       		.byte	0x7d
 13160 4a54 08       		.sleb128 8
 13161 4a55 01       		.uleb128 0x1
 13162 4a56 30       		.byte	0x30
 13163 4a57 00       		.byte	0
 13164 4a58 00       		.byte	0
 13165 4a59 07       		.uleb128 0x7
 13166 4a5a 04       		.byte	0x4
 13167 4a5b 7E300000 		.4byte	0x307e
 13168 4a5f 2F       		.uleb128 0x2f
 13169 4a60 D4050000 		.4byte	.LASF914
 13170 4a64 01       		.byte	0x1
 13171 4a65 BE02     		.2byte	0x2be
 13172 4a67 51090000 		.4byte	0x951
 13173 4a6b 20070000 		.4byte	.LFB349
 13174 4a6f 34000000 		.4byte	.LFE349-.LFB349
 13175 4a73 01       		.uleb128 0x1
 13176 4a74 9C       		.byte	0x9c
 13177 4a75 C84A0000 		.4byte	0x4ac8
 13178 4a79 30       		.uleb128 0x30
 13179 4a7a DA200000 		.4byte	.LASF915
 13180 4a7e 01       		.byte	0x1
 13181 4a7f BE02     		.2byte	0x2be
 13182 4a81 FF360000 		.4byte	0x36ff
 13183 4a85 C40C0000 		.4byte	.LLST36
 13184 4a89 31       		.uleb128 0x31
 13185 4a8a 72657400 		.ascii	"ret\000"
 13186 4a8e 01       		.byte	0x1
 13187 4a8f C102     		.2byte	0x2c1
 13188 4a91 51090000 		.4byte	0x951
 13189 4a95 1F0D0000 		.4byte	.LLST37
 13190 4a99 33       		.uleb128 0x33
 13191 4a9a 42070000 		.4byte	.LVL191
ARM GAS  C:\Users\RAKIBU~1\AppData\Local\Temp\ccQ3AEax.s 			page 234


 13192 4a9e 1A580000 		.4byte	0x581a
 13193 4aa2 34       		.uleb128 0x34
 13194 4aa3 01       		.uleb128 0x1
 13195 4aa4 50       		.byte	0x50
 13196 4aa5 01       		.uleb128 0x1
 13197 4aa6 31       		.byte	0x31
 13198 4aa7 34       		.uleb128 0x34
 13199 4aa8 01       		.uleb128 0x1
 13200 4aa9 51       		.byte	0x51
 13201 4aaa 02       		.uleb128 0x2
 13202 4aab 09       		.byte	0x9
 13203 4aac 8F       		.byte	0x8f
 13204 4aad 34       		.uleb128 0x34
 13205 4aae 01       		.uleb128 0x1
 13206 4aaf 52       		.byte	0x52
 13207 4ab0 03       		.uleb128 0x3
 13208 4ab1 F3       		.byte	0xf3
 13209 4ab2 01       		.uleb128 0x1
 13210 4ab3 50       		.byte	0x50
 13211 4ab4 34       		.uleb128 0x34
 13212 4ab5 02       		.uleb128 0x2
 13213 4ab6 7D       		.byte	0x7d
 13214 4ab7 00       		.sleb128 0
 13215 4ab8 01       		.uleb128 0x1
 13216 4ab9 30       		.byte	0x30
 13217 4aba 34       		.uleb128 0x34
 13218 4abb 02       		.uleb128 0x2
 13219 4abc 7D       		.byte	0x7d
 13220 4abd 04       		.sleb128 4
 13221 4abe 01       		.uleb128 0x1
 13222 4abf 30       		.byte	0x30
 13223 4ac0 34       		.uleb128 0x34
 13224 4ac1 02       		.uleb128 0x2
 13225 4ac2 7D       		.byte	0x7d
 13226 4ac3 08       		.sleb128 8
 13227 4ac4 01       		.uleb128 0x1
 13228 4ac5 30       		.byte	0x30
 13229 4ac6 00       		.byte	0
 13230 4ac7 00       		.byte	0
 13231 4ac8 2F       		.uleb128 0x2f
 13232 4ac9 DC0D0000 		.4byte	.LASF916
 13233 4acd 01       		.byte	0x1
 13234 4ace B902     		.2byte	0x2b9
 13235 4ad0 51090000 		.4byte	0x951
 13236 4ad4 00070000 		.4byte	.LFB348
 13237 4ad8 1E000000 		.4byte	.LFE348-.LFB348
 13238 4adc 01       		.uleb128 0x1
 13239 4add 9C       		.byte	0x9c
 13240 4ade 264B0000 		.4byte	0x4b26
 13241 4ae2 30       		.uleb128 0x30
 13242 4ae3 7C300000 		.4byte	.LASF917
 13243 4ae7 01       		.byte	0x1
 13244 4ae8 B902     		.2byte	0x2b9
 13245 4aea 264B0000 		.4byte	0x4b26
 13246 4aee 570D0000 		.4byte	.LLST35
 13247 4af2 33       		.uleb128 0x33
 13248 4af3 18070000 		.4byte	.LVL188
ARM GAS  C:\Users\RAKIBU~1\AppData\Local\Temp\ccQ3AEax.s 			page 235


 13249 4af7 1A580000 		.4byte	0x581a
 13250 4afb 34       		.uleb128 0x34
 13251 4afc 01       		.uleb128 0x1
 13252 4afd 50       		.byte	0x50
 13253 4afe 01       		.uleb128 0x1
 13254 4aff 31       		.byte	0x31
 13255 4b00 34       		.uleb128 0x34
 13256 4b01 01       		.uleb128 0x1
 13257 4b02 51       		.byte	0x51
 13258 4b03 02       		.uleb128 0x2
 13259 4b04 08       		.byte	0x8
 13260 4b05 39       		.byte	0x39
 13261 4b06 34       		.uleb128 0x34
 13262 4b07 01       		.uleb128 0x1
 13263 4b08 52       		.byte	0x52
 13264 4b09 03       		.uleb128 0x3
 13265 4b0a F3       		.byte	0xf3
 13266 4b0b 01       		.uleb128 0x1
 13267 4b0c 50       		.byte	0x50
 13268 4b0d 34       		.uleb128 0x34
 13269 4b0e 01       		.uleb128 0x1
 13270 4b0f 53       		.byte	0x53
 13271 4b10 01       		.uleb128 0x1
 13272 4b11 34       		.byte	0x34
 13273 4b12 34       		.uleb128 0x34
 13274 4b13 02       		.uleb128 0x2
 13275 4b14 7D       		.byte	0x7d
 13276 4b15 00       		.sleb128 0
 13277 4b16 01       		.uleb128 0x1
 13278 4b17 30       		.byte	0x30
 13279 4b18 34       		.uleb128 0x34
 13280 4b19 02       		.uleb128 0x2
 13281 4b1a 7D       		.byte	0x7d
 13282 4b1b 04       		.sleb128 4
 13283 4b1c 01       		.uleb128 0x1
 13284 4b1d 30       		.byte	0x30
 13285 4b1e 34       		.uleb128 0x34
 13286 4b1f 02       		.uleb128 0x2
 13287 4b20 7D       		.byte	0x7d
 13288 4b21 08       		.sleb128 8
 13289 4b22 01       		.uleb128 0x1
 13290 4b23 30       		.byte	0x30
 13291 4b24 00       		.byte	0
 13292 4b25 00       		.byte	0
 13293 4b26 07       		.uleb128 0x7
 13294 4b27 04       		.byte	0x4
 13295 4b28 B6320000 		.4byte	0x32b6
 13296 4b2c 2F       		.uleb128 0x2f
 13297 4b2d 4C150000 		.4byte	.LASF918
 13298 4b31 01       		.byte	0x1
 13299 4b32 AF02     		.2byte	0x2af
 13300 4b34 51090000 		.4byte	0x951
 13301 4b38 D0060000 		.4byte	.LFB347
 13302 4b3c 22000000 		.4byte	.LFE347-.LFB347
 13303 4b40 01       		.uleb128 0x1
 13304 4b41 9C       		.byte	0x9c
 13305 4b42 924B0000 		.4byte	0x4b92
ARM GAS  C:\Users\RAKIBU~1\AppData\Local\Temp\ccQ3AEax.s 			page 236


 13306 4b46 30       		.uleb128 0x30
 13307 4b47 4E110000 		.4byte	.LASF919
 13308 4b4b 01       		.byte	0x1
 13309 4b4c AF02     		.2byte	0x2af
 13310 4b4e 2B090000 		.4byte	0x92b
 13311 4b52 830D0000 		.4byte	.LLST33
 13312 4b56 35       		.uleb128 0x35
 13313 4b57 8A1C0000 		.4byte	.LASF848
 13314 4b5b 01       		.byte	0x1
 13315 4b5c B202     		.2byte	0x2b2
 13316 4b5e 2B090000 		.4byte	0x92b
 13317 4b62 AF0D0000 		.4byte	.LLST34
 13318 4b66 33       		.uleb128 0x33
 13319 4b67 E8060000 		.4byte	.LVL184
 13320 4b6b 1A580000 		.4byte	0x581a
 13321 4b6f 34       		.uleb128 0x34
 13322 4b70 01       		.uleb128 0x1
 13323 4b71 50       		.byte	0x50
 13324 4b72 01       		.uleb128 0x1
 13325 4b73 32       		.byte	0x32
 13326 4b74 34       		.uleb128 0x34
 13327 4b75 01       		.uleb128 0x1
 13328 4b76 52       		.byte	0x52
 13329 4b77 01       		.uleb128 0x1
 13330 4b78 30       		.byte	0x30
 13331 4b79 34       		.uleb128 0x34
 13332 4b7a 01       		.uleb128 0x1
 13333 4b7b 53       		.byte	0x53
 13334 4b7c 01       		.uleb128 0x1
 13335 4b7d 30       		.byte	0x30
 13336 4b7e 34       		.uleb128 0x34
 13337 4b7f 02       		.uleb128 0x2
 13338 4b80 7D       		.byte	0x7d
 13339 4b81 00       		.sleb128 0
 13340 4b82 01       		.uleb128 0x1
 13341 4b83 30       		.byte	0x30
 13342 4b84 34       		.uleb128 0x34
 13343 4b85 02       		.uleb128 0x2
 13344 4b86 7D       		.byte	0x7d
 13345 4b87 04       		.sleb128 4
 13346 4b88 01       		.uleb128 0x1
 13347 4b89 30       		.byte	0x30
 13348 4b8a 34       		.uleb128 0x34
 13349 4b8b 02       		.uleb128 0x2
 13350 4b8c 7D       		.byte	0x7d
 13351 4b8d 08       		.sleb128 8
 13352 4b8e 01       		.uleb128 0x1
 13353 4b8f 30       		.byte	0x30
 13354 4b90 00       		.byte	0
 13355 4b91 00       		.byte	0
 13356 4b92 2F       		.uleb128 0x2f
 13357 4b93 59180000 		.4byte	.LASF920
 13358 4b97 01       		.byte	0x1
 13359 4b98 9E02     		.2byte	0x29e
 13360 4b9a 51090000 		.4byte	0x951
 13361 4b9e C0060000 		.4byte	.LFB346
 13362 4ba2 04000000 		.4byte	.LFE346-.LFB346
ARM GAS  C:\Users\RAKIBU~1\AppData\Local\Temp\ccQ3AEax.s 			page 237


 13363 4ba6 01       		.uleb128 0x1
 13364 4ba7 9C       		.byte	0x9c
 13365 4ba8 BD4B0000 		.4byte	0x4bbd
 13366 4bac 30       		.uleb128 0x30
 13367 4bad 8A120000 		.4byte	.LASF469
 13368 4bb1 01       		.byte	0x1
 13369 4bb2 9E02     		.2byte	0x29e
 13370 4bb4 FF360000 		.4byte	0x36ff
 13371 4bb8 C20D0000 		.4byte	.LLST32
 13372 4bbc 00       		.byte	0
 13373 4bbd 3B       		.uleb128 0x3b
 13374 4bbe 460F0000 		.4byte	.LASF922
 13375 4bc2 01       		.byte	0x1
 13376 4bc3 9902     		.2byte	0x299
 13377 4bc5 51090000 		.4byte	0x951
 13378 4bc9 B0060000 		.4byte	.LFB345
 13379 4bcd 04000000 		.4byte	.LFE345-.LFB345
 13380 4bd1 01       		.uleb128 0x1
 13381 4bd2 9C       		.byte	0x9c
 13382 4bd3 2F       		.uleb128 0x2f
 13383 4bd4 2C0E0000 		.4byte	.LASF923
 13384 4bd8 01       		.byte	0x1
 13385 4bd9 8D02     		.2byte	0x28d
 13386 4bdb 51090000 		.4byte	0x951
 13387 4bdf 90060000 		.4byte	.LFB344
 13388 4be3 1E000000 		.4byte	.LFE344-.LFB344
 13389 4be7 01       		.uleb128 0x1
 13390 4be8 9C       		.byte	0x9c
 13391 4be9 304C0000 		.4byte	0x4c30
 13392 4bed 30       		.uleb128 0x30
 13393 4bee 7D070000 		.4byte	.LASF924
 13394 4bf2 01       		.byte	0x1
 13395 4bf3 8D02     		.2byte	0x28d
 13396 4bf5 304C0000 		.4byte	0x4c30
 13397 4bf9 E30D0000 		.4byte	.LLST31
 13398 4bfd 33       		.uleb128 0x33
 13399 4bfe A8060000 		.4byte	.LVL178
 13400 4c02 1A580000 		.4byte	0x581a
 13401 4c06 34       		.uleb128 0x34
 13402 4c07 01       		.uleb128 0x1
 13403 4c08 50       		.byte	0x50
 13404 4c09 01       		.uleb128 0x1
 13405 4c0a 32       		.byte	0x32
 13406 4c0b 34       		.uleb128 0x34
 13407 4c0c 01       		.uleb128 0x1
 13408 4c0d 51       		.byte	0x51
 13409 4c0e 01       		.uleb128 0x1
 13410 4c0f 3A       		.byte	0x3a
 13411 4c10 34       		.uleb128 0x34
 13412 4c11 01       		.uleb128 0x1
 13413 4c12 52       		.byte	0x52
 13414 4c13 03       		.uleb128 0x3
 13415 4c14 F3       		.byte	0xf3
 13416 4c15 01       		.uleb128 0x1
 13417 4c16 50       		.byte	0x50
 13418 4c17 34       		.uleb128 0x34
 13419 4c18 01       		.uleb128 0x1
ARM GAS  C:\Users\RAKIBU~1\AppData\Local\Temp\ccQ3AEax.s 			page 238


 13420 4c19 53       		.byte	0x53
 13421 4c1a 01       		.uleb128 0x1
 13422 4c1b 44       		.byte	0x44
 13423 4c1c 34       		.uleb128 0x34
 13424 4c1d 02       		.uleb128 0x2
 13425 4c1e 7D       		.byte	0x7d
 13426 4c1f 00       		.sleb128 0
 13427 4c20 01       		.uleb128 0x1
 13428 4c21 30       		.byte	0x30
 13429 4c22 34       		.uleb128 0x34
 13430 4c23 02       		.uleb128 0x2
 13431 4c24 7D       		.byte	0x7d
 13432 4c25 04       		.sleb128 4
 13433 4c26 01       		.uleb128 0x1
 13434 4c27 30       		.byte	0x30
 13435 4c28 34       		.uleb128 0x34
 13436 4c29 02       		.uleb128 0x2
 13437 4c2a 7D       		.byte	0x7d
 13438 4c2b 08       		.sleb128 8
 13439 4c2c 01       		.uleb128 0x1
 13440 4c2d 30       		.byte	0x30
 13441 4c2e 00       		.byte	0
 13442 4c2f 00       		.byte	0
 13443 4c30 07       		.uleb128 0x7
 13444 4c31 04       		.byte	0x4
 13445 4c32 39350000 		.4byte	0x3539
 13446 4c36 2F       		.uleb128 0x2f
 13447 4c37 37000000 		.4byte	.LASF925
 13448 4c3b 01       		.byte	0x1
 13449 4c3c 8502     		.2byte	0x285
 13450 4c3e 51090000 		.4byte	0x951
 13451 4c42 60060000 		.4byte	.LFB343
 13452 4c46 28000000 		.4byte	.LFE343-.LFB343
 13453 4c4a 01       		.uleb128 0x1
 13454 4c4b 9C       		.byte	0x9c
 13455 4c4c C14C0000 		.4byte	0x4cc1
 13456 4c50 30       		.uleb128 0x30
 13457 4c51 ED1D0000 		.4byte	.LASF926
 13458 4c55 01       		.byte	0x1
 13459 4c56 8502     		.2byte	0x285
 13460 4c58 FF360000 		.4byte	0x36ff
 13461 4c5c 0F0E0000 		.4byte	.LLST30
 13462 4c60 32       		.uleb128 0x32
 13463 4c61 981A0000 		.4byte	.LASF927
 13464 4c65 01       		.byte	0x1
 13465 4c66 8702     		.2byte	0x287
 13466 4c68 AF340000 		.4byte	0x34af
 13467 4c6c 02       		.uleb128 0x2
 13468 4c6d 91       		.byte	0x91
 13469 4c6e 70       		.sleb128 -16
 13470 4c6f 38       		.uleb128 0x38
 13471 4c70 6E060000 		.4byte	.LVL174
 13472 4c74 25580000 		.4byte	0x5825
 13473 4c78 8F4C0000 		.4byte	0x4c8f
 13474 4c7c 34       		.uleb128 0x34
 13475 4c7d 01       		.uleb128 0x1
 13476 4c7e 50       		.byte	0x50
ARM GAS  C:\Users\RAKIBU~1\AppData\Local\Temp\ccQ3AEax.s 			page 239


 13477 4c7f 02       		.uleb128 0x2
 13478 4c80 91       		.byte	0x91
 13479 4c81 70       		.sleb128 -16
 13480 4c82 34       		.uleb128 0x34
 13481 4c83 01       		.uleb128 0x1
 13482 4c84 51       		.byte	0x51
 13483 4c85 03       		.uleb128 0x3
 13484 4c86 F3       		.byte	0xf3
 13485 4c87 01       		.uleb128 0x1
 13486 4c88 50       		.byte	0x50
 13487 4c89 34       		.uleb128 0x34
 13488 4c8a 01       		.uleb128 0x1
 13489 4c8b 52       		.byte	0x52
 13490 4c8c 01       		.uleb128 0x1
 13491 4c8d 36       		.byte	0x36
 13492 4c8e 00       		.byte	0
 13493 4c8f 33       		.uleb128 0x33
 13494 4c90 82060000 		.4byte	.LVL175
 13495 4c94 1A580000 		.4byte	0x581a
 13496 4c98 34       		.uleb128 0x34
 13497 4c99 01       		.uleb128 0x1
 13498 4c9a 50       		.byte	0x50
 13499 4c9b 01       		.uleb128 0x1
 13500 4c9c 31       		.byte	0x31
 13501 4c9d 34       		.uleb128 0x34
 13502 4c9e 01       		.uleb128 0x1
 13503 4c9f 51       		.byte	0x51
 13504 4ca0 01       		.uleb128 0x1
 13505 4ca1 32       		.byte	0x32
 13506 4ca2 34       		.uleb128 0x34
 13507 4ca3 01       		.uleb128 0x1
 13508 4ca4 52       		.byte	0x52
 13509 4ca5 02       		.uleb128 0x2
 13510 4ca6 91       		.byte	0x91
 13511 4ca7 70       		.sleb128 -16
 13512 4ca8 34       		.uleb128 0x34
 13513 4ca9 01       		.uleb128 0x1
 13514 4caa 53       		.byte	0x53
 13515 4cab 01       		.uleb128 0x1
 13516 4cac 38       		.byte	0x38
 13517 4cad 34       		.uleb128 0x34
 13518 4cae 02       		.uleb128 0x2
 13519 4caf 7D       		.byte	0x7d
 13520 4cb0 00       		.sleb128 0
 13521 4cb1 01       		.uleb128 0x1
 13522 4cb2 30       		.byte	0x30
 13523 4cb3 34       		.uleb128 0x34
 13524 4cb4 02       		.uleb128 0x2
 13525 4cb5 7D       		.byte	0x7d
 13526 4cb6 04       		.sleb128 4
 13527 4cb7 01       		.uleb128 0x1
 13528 4cb8 30       		.byte	0x30
 13529 4cb9 34       		.uleb128 0x34
 13530 4cba 02       		.uleb128 0x2
 13531 4cbb 7D       		.byte	0x7d
 13532 4cbc 08       		.sleb128 8
 13533 4cbd 01       		.uleb128 0x1
ARM GAS  C:\Users\RAKIBU~1\AppData\Local\Temp\ccQ3AEax.s 			page 240


 13534 4cbe 30       		.byte	0x30
 13535 4cbf 00       		.byte	0
 13536 4cc0 00       		.byte	0
 13537 4cc1 2F       		.uleb128 0x2f
 13538 4cc2 4F100000 		.4byte	.LASF928
 13539 4cc6 01       		.byte	0x1
 13540 4cc7 8102     		.2byte	0x281
 13541 4cc9 51090000 		.4byte	0x951
 13542 4ccd 40060000 		.4byte	.LFB342
 13543 4cd1 1C000000 		.4byte	.LFE342-.LFB342
 13544 4cd5 01       		.uleb128 0x1
 13545 4cd6 9C       		.byte	0x9c
 13546 4cd7 0D4D0000 		.4byte	0x4d0d
 13547 4cdb 33       		.uleb128 0x33
 13548 4cdc 56060000 		.4byte	.LVL171
 13549 4ce0 1A580000 		.4byte	0x581a
 13550 4ce4 34       		.uleb128 0x34
 13551 4ce5 01       		.uleb128 0x1
 13552 4ce6 50       		.byte	0x50
 13553 4ce7 01       		.uleb128 0x1
 13554 4ce8 31       		.byte	0x31
 13555 4ce9 34       		.uleb128 0x34
 13556 4cea 01       		.uleb128 0x1
 13557 4ceb 51       		.byte	0x51
 13558 4cec 02       		.uleb128 0x2
 13559 4ced 08       		.byte	0x8
 13560 4cee 2B       		.byte	0x2b
 13561 4cef 34       		.uleb128 0x34
 13562 4cf0 01       		.uleb128 0x1
 13563 4cf1 52       		.byte	0x52
 13564 4cf2 01       		.uleb128 0x1
 13565 4cf3 30       		.byte	0x30
 13566 4cf4 34       		.uleb128 0x34
 13567 4cf5 01       		.uleb128 0x1
 13568 4cf6 53       		.byte	0x53
 13569 4cf7 01       		.uleb128 0x1
 13570 4cf8 30       		.byte	0x30
 13571 4cf9 34       		.uleb128 0x34
 13572 4cfa 02       		.uleb128 0x2
 13573 4cfb 7D       		.byte	0x7d
 13574 4cfc 00       		.sleb128 0
 13575 4cfd 01       		.uleb128 0x1
 13576 4cfe 30       		.byte	0x30
 13577 4cff 34       		.uleb128 0x34
 13578 4d00 02       		.uleb128 0x2
 13579 4d01 7D       		.byte	0x7d
 13580 4d02 04       		.sleb128 4
 13581 4d03 01       		.uleb128 0x1
 13582 4d04 30       		.byte	0x30
 13583 4d05 34       		.uleb128 0x34
 13584 4d06 02       		.uleb128 0x2
 13585 4d07 7D       		.byte	0x7d
 13586 4d08 08       		.sleb128 8
 13587 4d09 01       		.uleb128 0x1
 13588 4d0a 30       		.byte	0x30
 13589 4d0b 00       		.byte	0
 13590 4d0c 00       		.byte	0
ARM GAS  C:\Users\RAKIBU~1\AppData\Local\Temp\ccQ3AEax.s 			page 241


 13591 4d0d 2F       		.uleb128 0x2f
 13592 4d0e 7C110000 		.4byte	.LASF929
 13593 4d12 01       		.byte	0x1
 13594 4d13 1002     		.2byte	0x210
 13595 4d15 51090000 		.4byte	0x951
 13596 4d19 B0040000 		.4byte	.LFB341
 13597 4d1d 64010000 		.4byte	.LFE341-.LFB341
 13598 4d21 01       		.uleb128 0x1
 13599 4d22 9C       		.byte	0x9c
 13600 4d23 F74E0000 		.4byte	0x4ef7
 13601 4d27 30       		.uleb128 0x30
 13602 4d28 D3260000 		.4byte	.LASF930
 13603 4d2c 01       		.byte	0x1
 13604 4d2d 1002     		.2byte	0x210
 13605 4d2f A1050000 		.4byte	0x5a1
 13606 4d33 3B0E0000 		.4byte	.LLST14
 13607 4d37 30       		.uleb128 0x30
 13608 4d38 C7280000 		.4byte	.LASF931
 13609 4d3c 01       		.byte	0x1
 13610 4d3d 1002     		.2byte	0x210
 13611 4d3f 2B090000 		.4byte	0x92b
 13612 4d43 850E0000 		.4byte	.LLST15
 13613 4d47 30       		.uleb128 0x30
 13614 4d48 210B0000 		.4byte	.LASF696
 13615 4d4c 01       		.byte	0x1
 13616 4d4d 1002     		.2byte	0x210
 13617 4d4f 2B090000 		.4byte	0x92b
 13618 4d53 D80E0000 		.4byte	.LLST16
 13619 4d57 30       		.uleb128 0x30
 13620 4d58 34020000 		.4byte	.LASF932
 13621 4d5c 01       		.byte	0x1
 13622 4d5d 1002     		.2byte	0x210
 13623 4d5f B9000000 		.4byte	0xb9
 13624 4d63 2B0F0000 		.4byte	.LLST17
 13625 4d67 30       		.uleb128 0x30
 13626 4d68 D52E0000 		.4byte	.LASF700
 13627 4d6c 01       		.byte	0x1
 13628 4d6d 1002     		.2byte	0x210
 13629 4d6f 3B090000 		.4byte	0x93b
 13630 4d73 750F0000 		.4byte	.LLST18
 13631 4d77 30       		.uleb128 0x30
 13632 4d78 F3040000 		.4byte	.LASF702
 13633 4d7c 01       		.byte	0x1
 13634 4d7d 1002     		.2byte	0x210
 13635 4d7f 2B090000 		.4byte	0x92b
 13636 4d83 950F0000 		.4byte	.LLST19
 13637 4d87 31       		.uleb128 0x31
 13638 4d88 72657400 		.ascii	"ret\000"
 13639 4d8c 01       		.byte	0x1
 13640 4d8d 1202     		.2byte	0x212
 13641 4d8f 51090000 		.4byte	0x951
 13642 4d93 B50F0000 		.4byte	.LLST20
 13643 4d97 32       		.uleb128 0x32
 13644 4d98 B31E0000 		.4byte	.LASF933
 13645 4d9c 01       		.byte	0x1
 13646 4d9d 1302     		.2byte	0x213
 13647 4d9f 7D2F0000 		.4byte	0x2f7d
ARM GAS  C:\Users\RAKIBU~1\AppData\Local\Temp\ccQ3AEax.s 			page 242


 13648 4da3 03       		.uleb128 0x3
 13649 4da4 91       		.byte	0x91
 13650 4da5 FC7E     		.sleb128 -132
 13651 4da7 35       		.uleb128 0x35
 13652 4da8 04100000 		.4byte	.LASF934
 13653 4dac 01       		.byte	0x1
 13654 4dad 1402     		.2byte	0x214
 13655 4daf F74E0000 		.4byte	0x4ef7
 13656 4db3 E00F0000 		.4byte	.LLST21
 13657 4db7 36       		.uleb128 0x36
 13658 4db8 98280000 		.4byte	.LASF902
 13659 4dbc 01       		.byte	0x1
 13660 4dbd 7D02     		.2byte	0x27d
 13661 4dbf 38050000 		.4byte	.L93
 13662 4dc3 3F       		.uleb128 0x3f
 13663 4dc4 00000000 		.4byte	.Ldebug_ranges0+0
 13664 4dc8 E74D0000 		.4byte	0x4de7
 13665 4dcc 31       		.uleb128 0x31
 13666 4dcd 6900     		.ascii	"i\000"
 13667 4dcf 01       		.byte	0x1
 13668 4dd0 2002     		.2byte	0x220
 13669 4dd2 2B090000 		.4byte	0x92b
 13670 4dd6 5D100000 		.4byte	.LLST22
 13671 4dda 40       		.uleb128 0x40
 13672 4ddb 6E090000 		.4byte	.LASF990
 13673 4ddf 01       		.byte	0x1
 13674 4de0 2102     		.2byte	0x221
 13675 4de2 FF360000 		.4byte	0x36ff
 13676 4de6 00       		.byte	0
 13677 4de7 3F       		.uleb128 0x3f
 13678 4de8 18000000 		.4byte	.Ldebug_ranges0+0x18
 13679 4dec 284E0000 		.4byte	0x4e28
 13680 4df0 35       		.uleb128 0x35
 13681 4df1 EE310000 		.4byte	.LASF935
 13682 4df5 01       		.byte	0x1
 13683 4df6 4A02     		.2byte	0x24a
 13684 4df8 FD4E0000 		.4byte	0x4efd
 13685 4dfc 86100000 		.4byte	.LLST23
 13686 4e00 35       		.uleb128 0x35
 13687 4e01 77170000 		.4byte	.LASF936
 13688 4e05 01       		.byte	0x1
 13689 4e06 4B02     		.2byte	0x24b
 13690 4e08 FD4E0000 		.4byte	0x4efd
 13691 4e0c A4100000 		.4byte	.LLST24
 13692 4e10 33       		.uleb128 0x33
 13693 4e11 A4050000 		.4byte	.LVL155
 13694 4e15 25580000 		.4byte	0x5825
 13695 4e19 34       		.uleb128 0x34
 13696 4e1a 01       		.uleb128 0x1
 13697 4e1b 50       		.byte	0x50
 13698 4e1c 03       		.uleb128 0x3
 13699 4e1d 91       		.byte	0x91
 13700 4e1e FE7E     		.sleb128 -130
 13701 4e20 34       		.uleb128 0x34
 13702 4e21 01       		.uleb128 0x1
 13703 4e22 51       		.byte	0x51
 13704 4e23 02       		.uleb128 0x2
ARM GAS  C:\Users\RAKIBU~1\AppData\Local\Temp\ccQ3AEax.s 			page 243


 13705 4e24 76       		.byte	0x76
 13706 4e25 02       		.sleb128 2
 13707 4e26 00       		.byte	0
 13708 4e27 00       		.byte	0
 13709 4e28 3F       		.uleb128 0x3f
 13710 4e29 30000000 		.4byte	.Ldebug_ranges0+0x30
 13711 4e2d 6D4E0000 		.4byte	0x4e6d
 13712 4e31 35       		.uleb128 0x35
 13713 4e32 CE120000 		.4byte	.LASF937
 13714 4e36 01       		.byte	0x1
 13715 4e37 6302     		.2byte	0x263
 13716 4e39 3B090000 		.4byte	0x93b
 13717 4e3d C8100000 		.4byte	.LLST25
 13718 4e41 38       		.uleb128 0x38
 13719 4e42 B8050000 		.4byte	.LVL157
 13720 4e46 30580000 		.4byte	0x5830
 13721 4e4a 554E0000 		.4byte	0x4e55
 13722 4e4e 34       		.uleb128 0x34
 13723 4e4f 01       		.uleb128 0x1
 13724 4e50 50       		.byte	0x50
 13725 4e51 02       		.uleb128 0x2
 13726 4e52 76       		.byte	0x76
 13727 4e53 00       		.sleb128 0
 13728 4e54 00       		.byte	0
 13729 4e55 33       		.uleb128 0x33
 13730 4e56 CA050000 		.4byte	.LVL159
 13731 4e5a 25580000 		.4byte	0x5825
 13732 4e5e 34       		.uleb128 0x34
 13733 4e5f 01       		.uleb128 0x1
 13734 4e60 50       		.byte	0x50
 13735 4e61 03       		.uleb128 0x3
 13736 4e62 91       		.byte	0x91
 13737 4e63 FC7E     		.sleb128 -132
 13738 4e65 34       		.uleb128 0x34
 13739 4e66 01       		.uleb128 0x1
 13740 4e67 51       		.byte	0x51
 13741 4e68 02       		.uleb128 0x2
 13742 4e69 76       		.byte	0x76
 13743 4e6a 00       		.sleb128 0
 13744 4e6b 00       		.byte	0
 13745 4e6c 00       		.byte	0
 13746 4e6d 38       		.uleb128 0x38
 13747 4e6e F4040000 		.4byte	.LVL144
 13748 4e72 25580000 		.4byte	0x5825
 13749 4e76 8D4E0000 		.4byte	0x4e8d
 13750 4e7a 34       		.uleb128 0x34
 13751 4e7b 01       		.uleb128 0x1
 13752 4e7c 50       		.byte	0x50
 13753 4e7d 02       		.uleb128 0x2
 13754 4e7e 91       		.byte	0x91
 13755 4e7f 42       		.sleb128 -62
 13756 4e80 34       		.uleb128 0x34
 13757 4e81 01       		.uleb128 0x1
 13758 4e82 51       		.byte	0x51
 13759 4e83 02       		.uleb128 0x2
 13760 4e84 78       		.byte	0x78
 13761 4e85 00       		.sleb128 0
ARM GAS  C:\Users\RAKIBU~1\AppData\Local\Temp\ccQ3AEax.s 			page 244


 13762 4e86 34       		.uleb128 0x34
 13763 4e87 01       		.uleb128 0x1
 13764 4e88 52       		.byte	0x52
 13765 4e89 02       		.uleb128 0x2
 13766 4e8a 75       		.byte	0x75
 13767 4e8b 00       		.sleb128 0
 13768 4e8c 00       		.byte	0
 13769 4e8d 38       		.uleb128 0x38
 13770 4e8e 38050000 		.4byte	.LVL147
 13771 4e92 1A580000 		.4byte	0x581a
 13772 4e96 C54E0000 		.4byte	0x4ec5
 13773 4e9a 34       		.uleb128 0x34
 13774 4e9b 01       		.uleb128 0x1
 13775 4e9c 50       		.byte	0x50
 13776 4e9d 01       		.uleb128 0x1
 13777 4e9e 31       		.byte	0x31
 13778 4e9f 34       		.uleb128 0x34
 13779 4ea0 01       		.uleb128 0x1
 13780 4ea1 51       		.byte	0x51
 13781 4ea2 02       		.uleb128 0x2
 13782 4ea3 08       		.byte	0x8
 13783 4ea4 28       		.byte	0x28
 13784 4ea5 34       		.uleb128 0x34
 13785 4ea6 01       		.uleb128 0x1
 13786 4ea7 52       		.byte	0x52
 13787 4ea8 03       		.uleb128 0x3
 13788 4ea9 91       		.byte	0x91
 13789 4eaa FC7E     		.sleb128 -132
 13790 4eac 34       		.uleb128 0x34
 13791 4ead 01       		.uleb128 0x1
 13792 4eae 53       		.byte	0x53
 13793 4eaf 02       		.uleb128 0x2
 13794 4eb0 08       		.byte	0x8
 13795 4eb1 6C       		.byte	0x6c
 13796 4eb2 34       		.uleb128 0x34
 13797 4eb3 02       		.uleb128 0x2
 13798 4eb4 7D       		.byte	0x7d
 13799 4eb5 00       		.sleb128 0
 13800 4eb6 01       		.uleb128 0x1
 13801 4eb7 30       		.byte	0x30
 13802 4eb8 34       		.uleb128 0x34
 13803 4eb9 02       		.uleb128 0x2
 13804 4eba 7D       		.byte	0x7d
 13805 4ebb 04       		.sleb128 4
 13806 4ebc 01       		.uleb128 0x1
 13807 4ebd 30       		.byte	0x30
 13808 4ebe 34       		.uleb128 0x34
 13809 4ebf 02       		.uleb128 0x2
 13810 4ec0 7D       		.byte	0x7d
 13811 4ec1 08       		.sleb128 8
 13812 4ec2 01       		.uleb128 0x1
 13813 4ec3 30       		.byte	0x30
 13814 4ec4 00       		.byte	0
 13815 4ec5 38       		.uleb128 0x38
 13816 4ec6 44050000 		.4byte	.LVL150
 13817 4eca 30580000 		.4byte	0x5830
 13818 4ece D94E0000 		.4byte	0x4ed9
ARM GAS  C:\Users\RAKIBU~1\AppData\Local\Temp\ccQ3AEax.s 			page 245


 13819 4ed2 34       		.uleb128 0x34
 13820 4ed3 01       		.uleb128 0x1
 13821 4ed4 50       		.byte	0x50
 13822 4ed5 02       		.uleb128 0x2
 13823 4ed6 76       		.byte	0x76
 13824 4ed7 00       		.sleb128 0
 13825 4ed8 00       		.byte	0
 13826 4ed9 33       		.uleb128 0x33
 13827 4eda D6050000 		.4byte	.LVL161
 13828 4ede 25580000 		.4byte	0x5825
 13829 4ee2 34       		.uleb128 0x34
 13830 4ee3 01       		.uleb128 0x1
 13831 4ee4 50       		.byte	0x50
 13832 4ee5 03       		.uleb128 0x3
 13833 4ee6 91       		.byte	0x91
 13834 4ee7 FC7E     		.sleb128 -132
 13835 4ee9 34       		.uleb128 0x34
 13836 4eea 01       		.uleb128 0x1
 13837 4eeb 51       		.byte	0x51
 13838 4eec 02       		.uleb128 0x2
 13839 4eed 76       		.byte	0x76
 13840 4eee 00       		.sleb128 0
 13841 4eef 34       		.uleb128 0x34
 13842 4ef0 01       		.uleb128 0x1
 13843 4ef1 52       		.byte	0x52
 13844 4ef2 02       		.uleb128 0x2
 13845 4ef3 08       		.byte	0x8
 13846 4ef4 3E       		.byte	0x3e
 13847 4ef5 00       		.byte	0
 13848 4ef6 00       		.byte	0
 13849 4ef7 07       		.uleb128 0x7
 13850 4ef8 04       		.byte	0x4
 13851 4ef9 062F0000 		.4byte	0x2f06
 13852 4efd 07       		.uleb128 0x7
 13853 4efe 04       		.byte	0x4
 13854 4eff 2F2E0000 		.4byte	0x2e2f
 13855 4f03 2F       		.uleb128 0x2f
 13856 4f04 52190000 		.4byte	.LASF938
 13857 4f08 01       		.byte	0x1
 13858 4f09 0C02     		.2byte	0x20c
 13859 4f0b 51090000 		.4byte	0x951
 13860 4f0f 20060000 		.4byte	.LFB340
 13861 4f13 16000000 		.4byte	.LFE340-.LFB340
 13862 4f17 01       		.uleb128 0x1
 13863 4f18 9C       		.byte	0x9c
 13864 4f19 924F0000 		.4byte	0x4f92
 13865 4f1d 30       		.uleb128 0x30
 13866 4f1e D3260000 		.4byte	.LASF930
 13867 4f22 01       		.byte	0x1
 13868 4f23 0C02     		.2byte	0x20c
 13869 4f25 A1050000 		.4byte	0x5a1
 13870 4f29 E6100000 		.4byte	.LLST26
 13871 4f2d 30       		.uleb128 0x30
 13872 4f2e C7280000 		.4byte	.LASF931
 13873 4f32 01       		.byte	0x1
 13874 4f33 0C02     		.2byte	0x20c
 13875 4f35 2B090000 		.4byte	0x92b
ARM GAS  C:\Users\RAKIBU~1\AppData\Local\Temp\ccQ3AEax.s 			page 246


 13876 4f39 07110000 		.4byte	.LLST27
 13877 4f3d 30       		.uleb128 0x30
 13878 4f3e 210B0000 		.4byte	.LASF696
 13879 4f42 01       		.byte	0x1
 13880 4f43 0C02     		.2byte	0x20c
 13881 4f45 2B090000 		.4byte	0x92b
 13882 4f49 28110000 		.4byte	.LLST28
 13883 4f4d 30       		.uleb128 0x30
 13884 4f4e 34020000 		.4byte	.LASF932
 13885 4f52 01       		.byte	0x1
 13886 4f53 0C02     		.2byte	0x20c
 13887 4f55 B9000000 		.4byte	0xb9
 13888 4f59 49110000 		.4byte	.LLST29
 13889 4f5d 41       		.uleb128 0x41
 13890 4f5e D52E0000 		.4byte	.LASF700
 13891 4f62 01       		.byte	0x1
 13892 4f63 0C02     		.2byte	0x20c
 13893 4f65 3B090000 		.4byte	0x93b
 13894 4f69 02       		.uleb128 0x2
 13895 4f6a 91       		.byte	0x91
 13896 4f6b 00       		.sleb128 0
 13897 4f6c 33       		.uleb128 0x33
 13898 4f6d 32060000 		.4byte	.LVL170
 13899 4f71 0D4D0000 		.4byte	0x4d0d
 13900 4f75 34       		.uleb128 0x34
 13901 4f76 01       		.uleb128 0x1
 13902 4f77 50       		.byte	0x50
 13903 4f78 03       		.uleb128 0x3
 13904 4f79 F3       		.byte	0xf3
 13905 4f7a 01       		.uleb128 0x1
 13906 4f7b 50       		.byte	0x50
 13907 4f7c 34       		.uleb128 0x34
 13908 4f7d 01       		.uleb128 0x1
 13909 4f7e 53       		.byte	0x53
 13910 4f7f 03       		.uleb128 0x3
 13911 4f80 F3       		.byte	0xf3
 13912 4f81 01       		.uleb128 0x1
 13913 4f82 53       		.byte	0x53
 13914 4f83 34       		.uleb128 0x34
 13915 4f84 02       		.uleb128 0x2
 13916 4f85 7D       		.byte	0x7d
 13917 4f86 00       		.sleb128 0
 13918 4f87 02       		.uleb128 0x2
 13919 4f88 74       		.byte	0x74
 13920 4f89 00       		.sleb128 0
 13921 4f8a 34       		.uleb128 0x34
 13922 4f8b 02       		.uleb128 0x2
 13923 4f8c 7D       		.byte	0x7d
 13924 4f8d 04       		.sleb128 4
 13925 4f8e 01       		.uleb128 0x1
 13926 4f8f 30       		.byte	0x30
 13927 4f90 00       		.byte	0
 13928 4f91 00       		.byte	0
 13929 4f92 2F       		.uleb128 0x2f
 13930 4f93 64070000 		.4byte	.LASF939
 13931 4f97 01       		.byte	0x1
 13932 4f98 0702     		.2byte	0x207
ARM GAS  C:\Users\RAKIBU~1\AppData\Local\Temp\ccQ3AEax.s 			page 247


 13933 4f9a 51090000 		.4byte	0x951
 13934 4f9e 90040000 		.4byte	.LFB339
 13935 4fa2 1C000000 		.4byte	.LFE339-.LFB339
 13936 4fa6 01       		.uleb128 0x1
 13937 4fa7 9C       		.byte	0x9c
 13938 4fa8 DE4F0000 		.4byte	0x4fde
 13939 4fac 33       		.uleb128 0x33
 13940 4fad A6040000 		.4byte	.LVL140
 13941 4fb1 1A580000 		.4byte	0x581a
 13942 4fb5 34       		.uleb128 0x34
 13943 4fb6 01       		.uleb128 0x1
 13944 4fb7 50       		.byte	0x50
 13945 4fb8 01       		.uleb128 0x1
 13946 4fb9 31       		.byte	0x31
 13947 4fba 34       		.uleb128 0x34
 13948 4fbb 01       		.uleb128 0x1
 13949 4fbc 51       		.byte	0x51
 13950 4fbd 02       		.uleb128 0x2
 13951 4fbe 08       		.byte	0x8
 13952 4fbf 29       		.byte	0x29
 13953 4fc0 34       		.uleb128 0x34
 13954 4fc1 01       		.uleb128 0x1
 13955 4fc2 52       		.byte	0x52
 13956 4fc3 01       		.uleb128 0x1
 13957 4fc4 30       		.byte	0x30
 13958 4fc5 34       		.uleb128 0x34
 13959 4fc6 01       		.uleb128 0x1
 13960 4fc7 53       		.byte	0x53
 13961 4fc8 01       		.uleb128 0x1
 13962 4fc9 30       		.byte	0x30
 13963 4fca 34       		.uleb128 0x34
 13964 4fcb 02       		.uleb128 0x2
 13965 4fcc 7D       		.byte	0x7d
 13966 4fcd 00       		.sleb128 0
 13967 4fce 01       		.uleb128 0x1
 13968 4fcf 30       		.byte	0x30
 13969 4fd0 34       		.uleb128 0x34
 13970 4fd1 02       		.uleb128 0x2
 13971 4fd2 7D       		.byte	0x7d
 13972 4fd3 04       		.sleb128 4
 13973 4fd4 01       		.uleb128 0x1
 13974 4fd5 30       		.byte	0x30
 13975 4fd6 34       		.uleb128 0x34
 13976 4fd7 02       		.uleb128 0x2
 13977 4fd8 7D       		.byte	0x7d
 13978 4fd9 08       		.sleb128 8
 13979 4fda 01       		.uleb128 0x1
 13980 4fdb 30       		.byte	0x30
 13981 4fdc 00       		.byte	0
 13982 4fdd 00       		.byte	0
 13983 4fde 2F       		.uleb128 0x2f
 13984 4fdf 9C1E0000 		.4byte	.LASF940
 13985 4fe3 01       		.byte	0x1
 13986 4fe4 0102     		.2byte	0x201
 13987 4fe6 51090000 		.4byte	0x951
 13988 4fea 80040000 		.4byte	.LFB338
 13989 4fee 08000000 		.4byte	.LFE338-.LFB338
ARM GAS  C:\Users\RAKIBU~1\AppData\Local\Temp\ccQ3AEax.s 			page 248


 13990 4ff2 01       		.uleb128 0x1
 13991 4ff3 9C       		.byte	0x9c
 13992 4ff4 12500000 		.4byte	0x5012
 13993 4ff8 3D       		.uleb128 0x3d
 13994 4ff9 61726700 		.ascii	"arg\000"
 13995 4ffd 01       		.byte	0x1
 13996 4ffe 0102     		.2byte	0x201
 13997 5000 B9000000 		.4byte	0xb9
 13998 5004 6A110000 		.4byte	.LLST13
 13999 5008 39       		.uleb128 0x39
 14000 5009 86040000 		.4byte	.LVL139
 14001 500d 88580000 		.4byte	0x5888
 14002 5011 00       		.byte	0
 14003 5012 2F       		.uleb128 0x2f
 14004 5013 3D0B0000 		.4byte	.LASF941
 14005 5017 01       		.byte	0x1
 14006 5018 F501     		.2byte	0x1f5
 14007 501a 51090000 		.4byte	0x951
 14008 501e 60040000 		.4byte	.LFB337
 14009 5022 12000000 		.4byte	.LFE337-.LFB337
 14010 5026 01       		.uleb128 0x1
 14011 5027 9C       		.byte	0x9c
 14012 5028 5F500000 		.4byte	0x505f
 14013 502c 3D       		.uleb128 0x3d
 14014 502d 61726700 		.ascii	"arg\000"
 14015 5031 01       		.byte	0x1
 14016 5032 F501     		.2byte	0x1f5
 14017 5034 B9000000 		.4byte	0xb9
 14018 5038 8B110000 		.4byte	.LLST12
 14019 503c 38       		.uleb128 0x38
 14020 503d 68040000 		.4byte	.LVL136
 14021 5041 93580000 		.4byte	0x5893
 14022 5045 4F500000 		.4byte	0x504f
 14023 5049 34       		.uleb128 0x34
 14024 504a 01       		.uleb128 0x1
 14025 504b 50       		.byte	0x50
 14026 504c 01       		.uleb128 0x1
 14027 504d 30       		.byte	0x30
 14028 504e 00       		.byte	0
 14029 504f 33       		.uleb128 0x33
 14030 5050 6E040000 		.4byte	.LVL137
 14031 5054 9E580000 		.4byte	0x589e
 14032 5058 34       		.uleb128 0x34
 14033 5059 01       		.uleb128 0x1
 14034 505a 50       		.byte	0x50
 14035 505b 01       		.uleb128 0x1
 14036 505c 30       		.byte	0x30
 14037 505d 00       		.byte	0
 14038 505e 00       		.byte	0
 14039 505f 2F       		.uleb128 0x2f
 14040 5060 19110000 		.4byte	.LASF942
 14041 5064 01       		.byte	0x1
 14042 5065 C001     		.2byte	0x1c0
 14043 5067 51090000 		.4byte	0x951
 14044 506b 90030000 		.4byte	.LFB336
 14045 506f C4000000 		.4byte	.LFE336-.LFB336
 14046 5073 01       		.uleb128 0x1
ARM GAS  C:\Users\RAKIBU~1\AppData\Local\Temp\ccQ3AEax.s 			page 249


 14047 5074 9C       		.byte	0x9c
 14048 5075 DE510000 		.4byte	0x51de
 14049 5079 30       		.uleb128 0x30
 14050 507a 2C070000 		.4byte	.LASF943
 14051 507e 01       		.byte	0x1
 14052 507f C001     		.2byte	0x1c0
 14053 5081 DE510000 		.4byte	0x51de
 14054 5085 AC110000 		.4byte	.LLST10
 14055 5089 32       		.uleb128 0x32
 14056 508a 0D1F0000 		.4byte	.LASF893
 14057 508e 01       		.byte	0x1
 14058 508f C201     		.2byte	0x1c2
 14059 5091 9F380000 		.4byte	0x389f
 14060 5095 02       		.uleb128 0x2
 14061 5096 91       		.byte	0x91
 14062 5097 50       		.sleb128 -48
 14063 5098 31       		.uleb128 0x31
 14064 5099 72657400 		.ascii	"ret\000"
 14065 509d 01       		.byte	0x1
 14066 509e C301     		.2byte	0x1c3
 14067 50a0 51090000 		.4byte	0x951
 14068 50a4 D8110000 		.4byte	.LLST11
 14069 50a8 32       		.uleb128 0x32
 14070 50a9 99010000 		.4byte	.LASF944
 14071 50ad 01       		.byte	0x1
 14072 50ae C401     		.2byte	0x1c4
 14073 50b0 2B090000 		.4byte	0x92b
 14074 50b4 02       		.uleb128 0x2
 14075 50b5 91       		.byte	0x91
 14076 50b6 4F       		.sleb128 -49
 14077 50b7 36       		.uleb128 0x36
 14078 50b8 1F160000 		.4byte	.LASF945
 14079 50bc 01       		.byte	0x1
 14080 50bd F101     		.2byte	0x1f1
 14081 50bf B4030000 		.4byte	.L77
 14082 50c3 36       		.uleb128 0x36
 14083 50c4 69110000 		.4byte	.LASF946
 14084 50c8 01       		.byte	0x1
 14085 50c9 EF01     		.2byte	0x1ef
 14086 50cb C2030000 		.4byte	.L78
 14087 50cf 42       		.uleb128 0x42
 14088 50d0 F1180000 		.4byte	.LASF982
 14089 50d4 01       		.byte	0x1
 14090 50d5 E301     		.2byte	0x1e3
 14091 50d7 94000000 		.4byte	0x94
 14092 50db E1500000 		.4byte	0x50e1
 14093 50df 43       		.uleb128 0x43
 14094 50e0 00       		.byte	0
 14095 50e1 38       		.uleb128 0x38
 14096 50e2 B0030000 		.4byte	.LVL117
 14097 50e6 A9580000 		.4byte	0x58a9
 14098 50ea F5500000 		.4byte	0x50f5
 14099 50ee 34       		.uleb128 0x34
 14100 50ef 01       		.uleb128 0x1
 14101 50f0 50       		.byte	0x50
 14102 50f1 02       		.uleb128 0x2
 14103 50f2 91       		.byte	0x91
ARM GAS  C:\Users\RAKIBU~1\AppData\Local\Temp\ccQ3AEax.s 			page 250


 14104 50f3 4F       		.sleb128 -49
 14105 50f4 00       		.byte	0
 14106 50f5 39       		.uleb128 0x39
 14107 50f6 BE030000 		.4byte	.LVL120
 14108 50fa B4580000 		.4byte	0x58b4
 14109 50fe 38       		.uleb128 0x38
 14110 50ff C8030000 		.4byte	.LVL122
 14111 5103 9E580000 		.4byte	0x589e
 14112 5107 11510000 		.4byte	0x5111
 14113 510b 34       		.uleb128 0x34
 14114 510c 01       		.uleb128 0x1
 14115 510d 50       		.byte	0x50
 14116 510e 01       		.uleb128 0x1
 14117 510f 30       		.byte	0x30
 14118 5110 00       		.byte	0
 14119 5111 38       		.uleb128 0x38
 14120 5112 D2030000 		.4byte	.LVL125
 14121 5116 BF580000 		.4byte	0x58bf
 14122 511a 2D510000 		.4byte	0x512d
 14123 511e 34       		.uleb128 0x34
 14124 511f 01       		.uleb128 0x1
 14125 5120 50       		.byte	0x50
 14126 5121 01       		.uleb128 0x1
 14127 5122 31       		.byte	0x31
 14128 5123 34       		.uleb128 0x34
 14129 5124 01       		.uleb128 0x1
 14130 5125 51       		.byte	0x51
 14131 5126 05       		.uleb128 0x5
 14132 5127 03       		.byte	0x3
 14133 5128 00000000 		.4byte	m2m_wifi_cb
 14134 512c 00       		.byte	0
 14135 512d 38       		.uleb128 0x38
 14136 512e D8030000 		.4byte	.LVL126
 14137 5132 46580000 		.4byte	0x5846
 14138 5136 41510000 		.4byte	0x5141
 14139 513a 34       		.uleb128 0x34
 14140 513b 01       		.uleb128 0x1
 14141 513c 50       		.byte	0x50
 14142 513d 02       		.uleb128 0x2
 14143 513e 91       		.byte	0x91
 14144 513f 50       		.sleb128 -48
 14145 5140 00       		.byte	0
 14146 5141 38       		.uleb128 0x38
 14147 5142 F2030000 		.4byte	.LVL128
 14148 5146 CA580000 		.4byte	0x58ca
 14149 514a 58510000 		.4byte	0x5158
 14150 514e 34       		.uleb128 0x34
 14151 514f 01       		.uleb128 0x1
 14152 5150 50       		.byte	0x50
 14153 5151 05       		.uleb128 0x5
 14154 5152 03       		.byte	0x3
 14155 5153 00000000 		.4byte	.LC0
 14156 5157 00       		.byte	0
 14157 5158 38       		.uleb128 0x38
 14158 5159 00040000 		.4byte	.LVL129
 14159 515d CA580000 		.4byte	0x58ca
 14160 5161 7B510000 		.4byte	0x517b
ARM GAS  C:\Users\RAKIBU~1\AppData\Local\Temp\ccQ3AEax.s 			page 251


 14161 5165 34       		.uleb128 0x34
 14162 5166 01       		.uleb128 0x1
 14163 5167 50       		.byte	0x50
 14164 5168 05       		.uleb128 0x5
 14165 5169 03       		.byte	0x3
 14166 516a 28000000 		.4byte	.LC1
 14167 516e 34       		.uleb128 0x34
 14168 516f 01       		.uleb128 0x1
 14169 5170 51       		.byte	0x51
 14170 5171 02       		.uleb128 0x2
 14171 5172 91       		.byte	0x91
 14172 5173 5A       		.sleb128 -38
 14173 5174 34       		.uleb128 0x34
 14174 5175 01       		.uleb128 0x1
 14175 5176 52       		.byte	0x52
 14176 5177 02       		.uleb128 0x2
 14177 5178 91       		.byte	0x91
 14178 5179 66       		.sleb128 -26
 14179 517a 00       		.byte	0
 14180 517b 38       		.uleb128 0x38
 14181 517c 12040000 		.4byte	.LVL130
 14182 5180 CA580000 		.4byte	0x58ca
 14183 5184 92510000 		.4byte	0x5192
 14184 5188 34       		.uleb128 0x34
 14185 5189 01       		.uleb128 0x1
 14186 518a 50       		.byte	0x50
 14187 518b 05       		.uleb128 0x5
 14188 518c 03       		.byte	0x3
 14189 518d 44000000 		.4byte	.LC2
 14190 5191 00       		.byte	0
 14191 5192 38       		.uleb128 0x38
 14192 5193 1E040000 		.4byte	.LVL131
 14193 5197 CA580000 		.4byte	0x58ca
 14194 519b B8510000 		.4byte	0x51b8
 14195 519f 34       		.uleb128 0x34
 14196 51a0 01       		.uleb128 0x1
 14197 51a1 50       		.byte	0x50
 14198 51a2 05       		.uleb128 0x5
 14199 51a3 03       		.byte	0x3
 14200 51a4 68000000 		.4byte	.LC3
 14201 51a8 34       		.uleb128 0x34
 14202 51a9 01       		.uleb128 0x1
 14203 51aa 51       		.byte	0x51
 14204 51ab 01       		.uleb128 0x1
 14205 51ac 43       		.byte	0x43
 14206 51ad 34       		.uleb128 0x34
 14207 51ae 01       		.uleb128 0x1
 14208 51af 52       		.byte	0x52
 14209 51b0 01       		.uleb128 0x1
 14210 51b1 35       		.byte	0x35
 14211 51b2 34       		.uleb128 0x34
 14212 51b3 01       		.uleb128 0x1
 14213 51b4 53       		.byte	0x53
 14214 51b5 01       		.uleb128 0x1
 14215 51b6 34       		.byte	0x34
 14216 51b7 00       		.byte	0
 14217 51b8 33       		.uleb128 0x33
ARM GAS  C:\Users\RAKIBU~1\AppData\Local\Temp\ccQ3AEax.s 			page 252


 14218 51b9 28040000 		.4byte	.LVL132
 14219 51bd CA580000 		.4byte	0x58ca
 14220 51c1 34       		.uleb128 0x34
 14221 51c2 01       		.uleb128 0x1
 14222 51c3 50       		.byte	0x50
 14223 51c4 05       		.uleb128 0x5
 14224 51c5 03       		.byte	0x3
 14225 51c6 98000000 		.4byte	.LC6
 14226 51ca 34       		.uleb128 0x34
 14227 51cb 01       		.uleb128 0x1
 14228 51cc 51       		.byte	0x51
 14229 51cd 05       		.uleb128 0x5
 14230 51ce 03       		.byte	0x3
 14231 51cf 8C000000 		.4byte	.LC5
 14232 51d3 34       		.uleb128 0x34
 14233 51d4 01       		.uleb128 0x1
 14234 51d5 52       		.byte	0x52
 14235 51d6 05       		.uleb128 0x5
 14236 51d7 03       		.byte	0x3
 14237 51d8 80000000 		.4byte	.LC4
 14238 51dc 00       		.byte	0
 14239 51dd 00       		.byte	0
 14240 51de 07       		.uleb128 0x7
 14241 51df 04       		.byte	0x4
 14242 51e0 B5390000 		.4byte	0x39b5
 14243 51e4 2F       		.uleb128 0x2f
 14244 51e5 4F160000 		.4byte	.LASF947
 14245 51e9 01       		.byte	0x1
 14246 51ea B901     		.2byte	0x1b9
 14247 51ec 51090000 		.4byte	0x951
 14248 51f0 70030000 		.4byte	.LFB335
 14249 51f4 20000000 		.4byte	.LFE335-.LFB335
 14250 51f8 01       		.uleb128 0x1
 14251 51f9 9C       		.byte	0x9c
 14252 51fa 54520000 		.4byte	0x5254
 14253 51fe 30       		.uleb128 0x30
 14254 51ff 77050000 		.4byte	.LASF948
 14255 5203 01       		.byte	0x1
 14256 5204 B901     		.2byte	0x1b9
 14257 5206 54520000 		.4byte	0x5254
 14258 520a 3A120000 		.4byte	.LLST8
 14259 520e 35       		.uleb128 0x35
 14260 520f F22F0000 		.4byte	.LASF858
 14261 5213 01       		.byte	0x1
 14262 5214 BB01     		.2byte	0x1bb
 14263 5216 51090000 		.4byte	0x951
 14264 521a 67120000 		.4byte	.LLST9
 14265 521e 33       		.uleb128 0x33
 14266 521f 8A030000 		.4byte	.LVL113
 14267 5223 1A580000 		.4byte	0x581a
 14268 5227 34       		.uleb128 0x34
 14269 5228 01       		.uleb128 0x1
 14270 5229 50       		.byte	0x50
 14271 522a 01       		.uleb128 0x1
 14272 522b 35       		.byte	0x35
 14273 522c 34       		.uleb128 0x34
 14274 522d 01       		.uleb128 0x1
ARM GAS  C:\Users\RAKIBU~1\AppData\Local\Temp\ccQ3AEax.s 			page 253


 14275 522e 51       		.byte	0x51
 14276 522f 02       		.uleb128 0x2
 14277 5230 09       		.byte	0x9
 14278 5231 83       		.byte	0x83
 14279 5232 34       		.uleb128 0x34
 14280 5233 01       		.uleb128 0x1
 14281 5234 52       		.byte	0x52
 14282 5235 01       		.uleb128 0x1
 14283 5236 30       		.byte	0x30
 14284 5237 34       		.uleb128 0x34
 14285 5238 01       		.uleb128 0x1
 14286 5239 53       		.byte	0x53
 14287 523a 01       		.uleb128 0x1
 14288 523b 30       		.byte	0x30
 14289 523c 34       		.uleb128 0x34
 14290 523d 02       		.uleb128 0x2
 14291 523e 7D       		.byte	0x7d
 14292 523f 00       		.sleb128 0
 14293 5240 03       		.uleb128 0x3
 14294 5241 F3       		.byte	0xf3
 14295 5242 01       		.uleb128 0x1
 14296 5243 50       		.byte	0x50
 14297 5244 34       		.uleb128 0x34
 14298 5245 02       		.uleb128 0x2
 14299 5246 7D       		.byte	0x7d
 14300 5247 04       		.sleb128 4
 14301 5248 03       		.uleb128 0x3
 14302 5249 0A       		.byte	0xa
 14303 524a AC02     		.2byte	0x2ac
 14304 524c 34       		.uleb128 0x34
 14305 524d 02       		.uleb128 0x2
 14306 524e 7D       		.byte	0x7d
 14307 524f 08       		.sleb128 8
 14308 5250 01       		.uleb128 0x1
 14309 5251 30       		.byte	0x30
 14310 5252 00       		.byte	0
 14311 5253 00       		.byte	0
 14312 5254 07       		.uleb128 0x7
 14313 5255 04       		.byte	0x4
 14314 5256 BA370000 		.4byte	0x37ba
 14315 525a 44       		.uleb128 0x44
 14316 525b 962C0000 		.4byte	.LASF949
 14317 525f 01       		.byte	0x1
 14318 5260 8F01     		.2byte	0x18f
 14319 5262 51090000 		.4byte	0x951
 14320 5266 00000000 		.4byte	.LFB334
 14321 526a 48000000 		.4byte	.LFE334-.LFB334
 14322 526e 01       		.uleb128 0x1
 14323 526f 9C       		.byte	0x9c
 14324 5270 A1520000 		.4byte	0x52a1
 14325 5274 30       		.uleb128 0x30
 14326 5275 AB1A0000 		.4byte	.LASF913
 14327 5279 01       		.byte	0x1
 14328 527a 8F01     		.2byte	0x18f
 14329 527c 594A0000 		.4byte	0x4a59
 14330 5280 87120000 		.4byte	.LLST0
 14331 5284 35       		.uleb128 0x35
ARM GAS  C:\Users\RAKIBU~1\AppData\Local\Temp\ccQ3AEax.s 			page 254


 14332 5285 F22F0000 		.4byte	.LASF858
 14333 5289 01       		.byte	0x1
 14334 528a 9101     		.2byte	0x191
 14335 528c 51090000 		.4byte	0x951
 14336 5290 25130000 		.4byte	.LLST1
 14337 5294 45       		.uleb128 0x45
 14338 5295 45525200 		.ascii	"ERR\000"
 14339 5299 01       		.byte	0x1
 14340 529a B501     		.2byte	0x1b5
 14341 529c 46000000 		.4byte	.L2
 14342 52a0 00       		.byte	0
 14343 52a1 44       		.uleb128 0x44
 14344 52a2 95170000 		.4byte	.LASF950
 14345 52a6 01       		.byte	0x1
 14346 52a7 3A01     		.2byte	0x13a
 14347 52a9 51090000 		.4byte	0x951
 14348 52ad 80020000 		.4byte	.LFB333
 14349 52b1 CC000000 		.4byte	.LFE333-.LFB333
 14350 52b5 01       		.uleb128 0x1
 14351 52b6 9C       		.byte	0x9c
 14352 52b7 34530000 		.4byte	0x5334
 14353 52bb 30       		.uleb128 0x30
 14354 52bc FB1D0000 		.4byte	.LASF889
 14355 52c0 01       		.byte	0x1
 14356 52c1 3A01     		.2byte	0x13a
 14357 52c3 3D450000 		.4byte	0x453d
 14358 52c7 44130000 		.4byte	.LLST5
 14359 52cb 35       		.uleb128 0x35
 14360 52cc F22F0000 		.4byte	.LASF858
 14361 52d0 01       		.byte	0x1
 14362 52d1 3C01     		.2byte	0x13c
 14363 52d3 51090000 		.4byte	0x951
 14364 52d7 C4130000 		.4byte	.LLST6
 14365 52db 36       		.uleb128 0x36
 14366 52dc 98280000 		.4byte	.LASF902
 14367 52e0 01       		.byte	0x1
 14368 52e1 8C01     		.2byte	0x18c
 14369 52e3 D4020000 		.4byte	.L49
 14370 52e7 38       		.uleb128 0x38
 14371 52e8 8C020000 		.4byte	.LVL93
 14372 52ec 30580000 		.4byte	0x5830
 14373 52f0 FB520000 		.4byte	0x52fb
 14374 52f4 34       		.uleb128 0x34
 14375 52f5 01       		.uleb128 0x1
 14376 52f6 50       		.byte	0x50
 14377 52f7 02       		.uleb128 0x2
 14378 52f8 74       		.byte	0x74
 14379 52f9 00       		.sleb128 0
 14380 52fa 00       		.byte	0
 14381 52fb 38       		.uleb128 0x38
 14382 52fc 96020000 		.4byte	.LVL94
 14383 5300 30580000 		.4byte	0x5830
 14384 5304 0F530000 		.4byte	0x530f
 14385 5308 34       		.uleb128 0x34
 14386 5309 01       		.uleb128 0x1
 14387 530a 50       		.byte	0x50
 14388 530b 02       		.uleb128 0x2
ARM GAS  C:\Users\RAKIBU~1\AppData\Local\Temp\ccQ3AEax.s 			page 255


 14389 530c 74       		.byte	0x74
 14390 530d 00       		.sleb128 0
 14391 530e 00       		.byte	0
 14392 530f 38       		.uleb128 0x38
 14393 5310 F6020000 		.4byte	.LVL98
 14394 5314 30580000 		.4byte	0x5830
 14395 5318 23530000 		.4byte	0x5323
 14396 531c 34       		.uleb128 0x34
 14397 531d 01       		.uleb128 0x1
 14398 531e 50       		.byte	0x50
 14399 531f 02       		.uleb128 0x2
 14400 5320 74       		.byte	0x74
 14401 5321 00       		.sleb128 0
 14402 5322 00       		.byte	0
 14403 5323 33       		.uleb128 0x33
 14404 5324 FE020000 		.4byte	.LVL99
 14405 5328 30580000 		.4byte	0x5830
 14406 532c 34       		.uleb128 0x34
 14407 532d 01       		.uleb128 0x1
 14408 532e 50       		.byte	0x50
 14409 532f 02       		.uleb128 0x2
 14410 5330 74       		.byte	0x74
 14411 5331 00       		.sleb128 0
 14412 5332 00       		.byte	0
 14413 5333 00       		.byte	0
 14414 5334 2F       		.uleb128 0x2f
 14415 5335 86270000 		.4byte	.LASF951
 14416 5339 01       		.byte	0x1
 14417 533a 2B01     		.2byte	0x12b
 14418 533c 51090000 		.4byte	0x951
 14419 5340 50030000 		.4byte	.LFB332
 14420 5344 14000000 		.4byte	.LFE332-.LFB332
 14421 5348 01       		.uleb128 0x1
 14422 5349 9C       		.byte	0x9c
 14423 534a 7D530000 		.4byte	0x537d
 14424 534e 31       		.uleb128 0x31
 14425 534f 72657400 		.ascii	"ret\000"
 14426 5353 01       		.byte	0x1
 14427 5354 2D01     		.2byte	0x12d
 14428 5356 51090000 		.4byte	0x951
 14429 535a 06140000 		.4byte	.LLST7
 14430 535e 36       		.uleb128 0x36
 14431 535f 1F160000 		.4byte	.LASF945
 14432 5363 01       		.byte	0x1
 14433 5364 3601     		.2byte	0x136
 14434 5366 5A030000 		.4byte	.L71
 14435 536a 39       		.uleb128 0x39
 14436 536b 56030000 		.4byte	.LVL106
 14437 536f D6580000 		.4byte	0x58d6
 14438 5373 39       		.uleb128 0x39
 14439 5374 62030000 		.4byte	.LVL109
 14440 5378 E1580000 		.4byte	0x58e1
 14441 537c 00       		.byte	0
 14442 537d 46       		.uleb128 0x46
 14443 537e F8070000 		.4byte	.LASF991
 14444 5382 01       		.byte	0x1
 14445 5383 57       		.byte	0x57
ARM GAS  C:\Users\RAKIBU~1\AppData\Local\Temp\ccQ3AEax.s 			page 256


 14446 5384 50000000 		.4byte	.LFB331
 14447 5388 28020000 		.4byte	.LFE331-.LFB331
 14448 538c 01       		.uleb128 0x1
 14449 538d 9C       		.byte	0x9c
 14450 538e 1A580000 		.4byte	0x581a
 14451 5392 47       		.uleb128 0x47
 14452 5393 C0140000 		.4byte	.LASF952
 14453 5397 01       		.byte	0x1
 14454 5398 57       		.byte	0x57
 14455 5399 2B090000 		.4byte	0x92b
 14456 539d 30140000 		.4byte	.LLST2
 14457 53a1 47       		.uleb128 0x47
 14458 53a2 6D280000 		.4byte	.LASF953
 14459 53a6 01       		.byte	0x1
 14460 53a7 57       		.byte	0x57
 14461 53a8 3B090000 		.4byte	0x93b
 14462 53ac 7D150000 		.4byte	.LLST3
 14463 53b0 47       		.uleb128 0x47
 14464 53b1 26040000 		.4byte	.LASF954
 14465 53b5 01       		.byte	0x1
 14466 53b6 57       		.byte	0x57
 14467 53b7 46090000 		.4byte	0x946
 14468 53bb CA160000 		.4byte	.LLST4
 14469 53bf 2E       		.uleb128 0x2e
 14470 53c0 F4210000 		.4byte	.LASF955
 14471 53c4 01       		.byte	0x1
 14472 53c5 59       		.byte	0x59
 14473 53c6 C6370000 		.4byte	0x37c6
 14474 53ca 02       		.uleb128 0x2
 14475 53cb 91       		.byte	0x91
 14476 53cc 70       		.sleb128 -16
 14477 53cd 3A       		.uleb128 0x3a
 14478 53ce C8000000 		.4byte	.LBB3
 14479 53d2 1C000000 		.4byte	.LBE3-.LBB3
 14480 53d6 22540000 		.4byte	0x5422
 14481 53da 2E       		.uleb128 0x2e
 14482 53db 890B0000 		.4byte	.LASF956
 14483 53df 01       		.byte	0x1
 14484 53e0 5C       		.byte	0x5c
 14485 53e1 26320000 		.4byte	0x3226
 14486 53e5 03       		.uleb128 0x3
 14487 53e6 91       		.byte	0x91
 14488 53e7 8C7F     		.sleb128 -116
 14489 53e9 38       		.uleb128 0x38
 14490 53ea D6000000 		.4byte	.LVL23
 14491 53ee EC580000 		.4byte	0x58ec
 14492 53f2 0E540000 		.4byte	0x540e
 14493 53f6 34       		.uleb128 0x34
 14494 53f7 01       		.uleb128 0x1
 14495 53f8 50       		.byte	0x50
 14496 53f9 02       		.uleb128 0x2
 14497 53fa 74       		.byte	0x74
 14498 53fb 00       		.sleb128 0
 14499 53fc 34       		.uleb128 0x34
 14500 53fd 01       		.uleb128 0x1
 14501 53fe 51       		.byte	0x51
 14502 53ff 03       		.uleb128 0x3
ARM GAS  C:\Users\RAKIBU~1\AppData\Local\Temp\ccQ3AEax.s 			page 257


 14503 5400 91       		.byte	0x91
 14504 5401 8C7F     		.sleb128 -116
 14505 5403 34       		.uleb128 0x34
 14506 5404 01       		.uleb128 0x1
 14507 5405 52       		.byte	0x52
 14508 5406 01       		.uleb128 0x1
 14509 5407 34       		.byte	0x34
 14510 5408 34       		.uleb128 0x34
 14511 5409 01       		.uleb128 0x1
 14512 540a 53       		.byte	0x53
 14513 540b 01       		.uleb128 0x1
 14514 540c 30       		.byte	0x30
 14515 540d 00       		.byte	0
 14516 540e 48       		.uleb128 0x48
 14517 540f E4000000 		.4byte	.LVL24
 14518 5413 34       		.uleb128 0x34
 14519 5414 01       		.uleb128 0x1
 14520 5415 50       		.byte	0x50
 14521 5416 02       		.uleb128 0x2
 14522 5417 08       		.byte	0x8
 14523 5418 2C       		.byte	0x2c
 14524 5419 34       		.uleb128 0x34
 14525 541a 01       		.uleb128 0x1
 14526 541b 51       		.byte	0x51
 14527 541c 03       		.uleb128 0x3
 14528 541d 91       		.byte	0x91
 14529 541e 8C7F     		.sleb128 -116
 14530 5420 00       		.byte	0
 14531 5421 00       		.byte	0
 14532 5422 3A       		.uleb128 0x3a
 14533 5423 E8000000 		.4byte	.LBB4
 14534 5427 20000000 		.4byte	.LBE4-.LBB4
 14535 542b 76540000 		.4byte	0x5476
 14536 542f 2E       		.uleb128 0x2e
 14537 5430 46200000 		.4byte	.LASF957
 14538 5434 01       		.byte	0x1
 14539 5435 65       		.byte	0x65
 14540 5436 C2360000 		.4byte	0x36c2
 14541 543a 03       		.uleb128 0x3
 14542 543b 91       		.byte	0x91
 14543 543c 8C7F     		.sleb128 -116
 14544 543e 38       		.uleb128 0x38
 14545 543f F4000000 		.4byte	.LVL29
 14546 5443 EC580000 		.4byte	0x58ec
 14547 5447 63540000 		.4byte	0x5463
 14548 544b 34       		.uleb128 0x34
 14549 544c 01       		.uleb128 0x1
 14550 544d 50       		.byte	0x50
 14551 544e 02       		.uleb128 0x2
 14552 544f 74       		.byte	0x74
 14553 5450 00       		.sleb128 0
 14554 5451 34       		.uleb128 0x34
 14555 5452 01       		.uleb128 0x1
 14556 5453 51       		.byte	0x51
 14557 5454 03       		.uleb128 0x3
 14558 5455 91       		.byte	0x91
 14559 5456 8C7F     		.sleb128 -116
ARM GAS  C:\Users\RAKIBU~1\AppData\Local\Temp\ccQ3AEax.s 			page 258


 14560 5458 34       		.uleb128 0x34
 14561 5459 01       		.uleb128 0x1
 14562 545a 52       		.byte	0x52
 14563 545b 01       		.uleb128 0x1
 14564 545c 38       		.byte	0x38
 14565 545d 34       		.uleb128 0x34
 14566 545e 01       		.uleb128 0x1
 14567 545f 53       		.byte	0x53
 14568 5460 01       		.uleb128 0x1
 14569 5461 30       		.byte	0x30
 14570 5462 00       		.byte	0
 14571 5463 48       		.uleb128 0x48
 14572 5464 06010000 		.4byte	.LVL30
 14573 5468 34       		.uleb128 0x34
 14574 5469 01       		.uleb128 0x1
 14575 546a 50       		.byte	0x50
 14576 546b 01       		.uleb128 0x1
 14577 546c 4B       		.byte	0x4b
 14578 546d 34       		.uleb128 0x34
 14579 546e 01       		.uleb128 0x1
 14580 546f 51       		.byte	0x51
 14581 5470 03       		.uleb128 0x3
 14582 5471 91       		.byte	0x91
 14583 5472 8C7F     		.sleb128 -116
 14584 5474 00       		.byte	0
 14585 5475 00       		.byte	0
 14586 5476 3A       		.uleb128 0x3a
 14587 5477 08010000 		.4byte	.LBB5
 14588 547b 20000000 		.4byte	.LBE5-.LBB5
 14589 547f CB540000 		.4byte	0x54cb
 14590 5483 2E       		.uleb128 0x2e
 14591 5484 030D0000 		.4byte	.LASF958
 14592 5488 01       		.byte	0x1
 14593 5489 6E       		.byte	0x6e
 14594 548a 51360000 		.4byte	0x3651
 14595 548e 03       		.uleb128 0x3
 14596 548f 91       		.byte	0x91
 14597 5490 8C7F     		.sleb128 -116
 14598 5492 38       		.uleb128 0x38
 14599 5493 14010000 		.4byte	.LVL35
 14600 5497 EC580000 		.4byte	0x58ec
 14601 549b B8540000 		.4byte	0x54b8
 14602 549f 34       		.uleb128 0x34
 14603 54a0 01       		.uleb128 0x1
 14604 54a1 50       		.byte	0x50
 14605 54a2 02       		.uleb128 0x2
 14606 54a3 74       		.byte	0x74
 14607 54a4 00       		.sleb128 0
 14608 54a5 34       		.uleb128 0x34
 14609 54a6 01       		.uleb128 0x1
 14610 54a7 51       		.byte	0x51
 14611 54a8 03       		.uleb128 0x3
 14612 54a9 91       		.byte	0x91
 14613 54aa 8C7F     		.sleb128 -116
 14614 54ac 34       		.uleb128 0x34
 14615 54ad 01       		.uleb128 0x1
 14616 54ae 52       		.byte	0x52
ARM GAS  C:\Users\RAKIBU~1\AppData\Local\Temp\ccQ3AEax.s 			page 259


 14617 54af 02       		.uleb128 0x2
 14618 54b0 08       		.byte	0x8
 14619 54b1 30       		.byte	0x30
 14620 54b2 34       		.uleb128 0x34
 14621 54b3 01       		.uleb128 0x1
 14622 54b4 53       		.byte	0x53
 14623 54b5 01       		.uleb128 0x1
 14624 54b6 31       		.byte	0x31
 14625 54b7 00       		.byte	0
 14626 54b8 48       		.uleb128 0x48
 14627 54b9 26010000 		.4byte	.LVL36
 14628 54bd 34       		.uleb128 0x34
 14629 54be 01       		.uleb128 0x1
 14630 54bf 50       		.byte	0x50
 14631 54c0 01       		.uleb128 0x1
 14632 54c1 36       		.byte	0x36
 14633 54c2 34       		.uleb128 0x34
 14634 54c3 01       		.uleb128 0x1
 14635 54c4 51       		.byte	0x51
 14636 54c5 03       		.uleb128 0x3
 14637 54c6 91       		.byte	0x91
 14638 54c7 8C7F     		.sleb128 -116
 14639 54c9 00       		.byte	0
 14640 54ca 00       		.byte	0
 14641 54cb 3A       		.uleb128 0x3a
 14642 54cc 28010000 		.4byte	.LBB6
 14643 54d0 20000000 		.4byte	.LBE6-.LBB6
 14644 54d4 20550000 		.4byte	0x5520
 14645 54d8 2E       		.uleb128 0x2e
 14646 54d9 B2200000 		.4byte	.LASF959
 14647 54dd 01       		.byte	0x1
 14648 54de 83       		.byte	0x83
 14649 54df 39350000 		.4byte	0x3539
 14650 54e3 03       		.uleb128 0x3
 14651 54e4 91       		.byte	0x91
 14652 54e5 8C7F     		.sleb128 -116
 14653 54e7 38       		.uleb128 0x38
 14654 54e8 34010000 		.4byte	.LVL41
 14655 54ec EC580000 		.4byte	0x58ec
 14656 54f0 0C550000 		.4byte	0x550c
 14657 54f4 34       		.uleb128 0x34
 14658 54f5 01       		.uleb128 0x1
 14659 54f6 50       		.byte	0x50
 14660 54f7 02       		.uleb128 0x2
 14661 54f8 74       		.byte	0x74
 14662 54f9 00       		.sleb128 0
 14663 54fa 34       		.uleb128 0x34
 14664 54fb 01       		.uleb128 0x1
 14665 54fc 51       		.byte	0x51
 14666 54fd 03       		.uleb128 0x3
 14667 54fe 91       		.byte	0x91
 14668 54ff 8C7F     		.sleb128 -116
 14669 5501 34       		.uleb128 0x34
 14670 5502 01       		.uleb128 0x1
 14671 5503 52       		.byte	0x52
 14672 5504 01       		.uleb128 0x1
 14673 5505 44       		.byte	0x44
ARM GAS  C:\Users\RAKIBU~1\AppData\Local\Temp\ccQ3AEax.s 			page 260


 14674 5506 34       		.uleb128 0x34
 14675 5507 01       		.uleb128 0x1
 14676 5508 53       		.byte	0x53
 14677 5509 01       		.uleb128 0x1
 14678 550a 30       		.byte	0x30
 14679 550b 00       		.byte	0
 14680 550c 48       		.uleb128 0x48
 14681 550d 46010000 		.4byte	.LVL42
 14682 5511 34       		.uleb128 0x34
 14683 5512 01       		.uleb128 0x1
 14684 5513 50       		.byte	0x50
 14685 5514 02       		.uleb128 0x2
 14686 5515 08       		.byte	0x8
 14687 5516 32       		.byte	0x32
 14688 5517 34       		.uleb128 0x34
 14689 5518 01       		.uleb128 0x1
 14690 5519 51       		.byte	0x51
 14691 551a 03       		.uleb128 0x3
 14692 551b 91       		.byte	0x91
 14693 551c 8C7F     		.sleb128 -116
 14694 551e 00       		.byte	0
 14695 551f 00       		.byte	0
 14696 5520 3A       		.uleb128 0x3a
 14697 5521 48010000 		.4byte	.LBB7
 14698 5525 2A000000 		.4byte	.LBE7-.LBB7
 14699 5529 96550000 		.4byte	0x5596
 14700 552d 2E       		.uleb128 0x2e
 14701 552e 902A0000 		.4byte	.LASF960
 14702 5532 01       		.byte	0x1
 14703 5533 8C       		.byte	0x8c
 14704 5534 04300000 		.4byte	0x3004
 14705 5538 03       		.uleb128 0x3
 14706 5539 91       		.byte	0x91
 14707 553a 8C7F     		.sleb128 -116
 14708 553c 38       		.uleb128 0x38
 14709 553d 52010000 		.4byte	.LVL47
 14710 5541 F7580000 		.4byte	0x58f7
 14711 5545 5C550000 		.4byte	0x555c
 14712 5549 34       		.uleb128 0x34
 14713 554a 01       		.uleb128 0x1
 14714 554b 50       		.byte	0x50
 14715 554c 03       		.uleb128 0x3
 14716 554d 91       		.byte	0x91
 14717 554e 8C7F     		.sleb128 -116
 14718 5550 34       		.uleb128 0x34
 14719 5551 01       		.uleb128 0x1
 14720 5552 51       		.byte	0x51
 14721 5553 01       		.uleb128 0x1
 14722 5554 30       		.byte	0x30
 14723 5555 34       		.uleb128 0x34
 14724 5556 01       		.uleb128 0x1
 14725 5557 52       		.byte	0x52
 14726 5558 02       		.uleb128 0x2
 14727 5559 08       		.byte	0x8
 14728 555a 64       		.byte	0x64
 14729 555b 00       		.byte	0
 14730 555c 38       		.uleb128 0x38
ARM GAS  C:\Users\RAKIBU~1\AppData\Local\Temp\ccQ3AEax.s 			page 261


 14731 555d 5E010000 		.4byte	.LVL48
 14732 5561 EC580000 		.4byte	0x58ec
 14733 5565 82550000 		.4byte	0x5582
 14734 5569 34       		.uleb128 0x34
 14735 556a 01       		.uleb128 0x1
 14736 556b 50       		.byte	0x50
 14737 556c 02       		.uleb128 0x2
 14738 556d 74       		.byte	0x74
 14739 556e 00       		.sleb128 0
 14740 556f 34       		.uleb128 0x34
 14741 5570 01       		.uleb128 0x1
 14742 5571 51       		.byte	0x51
 14743 5572 03       		.uleb128 0x3
 14744 5573 91       		.byte	0x91
 14745 5574 8C7F     		.sleb128 -116
 14746 5576 34       		.uleb128 0x34
 14747 5577 01       		.uleb128 0x1
 14748 5578 52       		.byte	0x52
 14749 5579 02       		.uleb128 0x2
 14750 557a 08       		.byte	0x8
 14751 557b 64       		.byte	0x64
 14752 557c 34       		.uleb128 0x34
 14753 557d 01       		.uleb128 0x1
 14754 557e 53       		.byte	0x53
 14755 557f 01       		.uleb128 0x1
 14756 5580 30       		.byte	0x30
 14757 5581 00       		.byte	0
 14758 5582 48       		.uleb128 0x48
 14759 5583 70010000 		.4byte	.LVL49
 14760 5587 34       		.uleb128 0x34
 14761 5588 01       		.uleb128 0x1
 14762 5589 50       		.byte	0x50
 14763 558a 02       		.uleb128 0x2
 14764 558b 08       		.byte	0x8
 14765 558c 2F       		.byte	0x2f
 14766 558d 34       		.uleb128 0x34
 14767 558e 01       		.uleb128 0x1
 14768 558f 51       		.byte	0x51
 14769 5590 03       		.uleb128 0x3
 14770 5591 91       		.byte	0x91
 14771 5592 8C7F     		.sleb128 -116
 14772 5594 00       		.byte	0
 14773 5595 00       		.byte	0
 14774 5596 3A       		.uleb128 0x3a
 14775 5597 72010000 		.4byte	.LBB8
 14776 559b 22000000 		.4byte	.LBE8-.LBB8
 14777 559f E9550000 		.4byte	0x55e9
 14778 55a3 2E       		.uleb128 0x2e
 14779 55a4 4E1C0000 		.4byte	.LASF961
 14780 55a8 01       		.byte	0x1
 14781 55a9 96       		.byte	0x96
 14782 55aa 46090000 		.4byte	0x946
 14783 55ae 03       		.uleb128 0x3
 14784 55af 91       		.byte	0x91
 14785 55b0 8C7F     		.sleb128 -116
 14786 55b2 38       		.uleb128 0x38
 14787 55b3 80010000 		.4byte	.LVL54
ARM GAS  C:\Users\RAKIBU~1\AppData\Local\Temp\ccQ3AEax.s 			page 262


 14788 55b7 EC580000 		.4byte	0x58ec
 14789 55bb D7550000 		.4byte	0x55d7
 14790 55bf 34       		.uleb128 0x34
 14791 55c0 01       		.uleb128 0x1
 14792 55c1 50       		.byte	0x50
 14793 55c2 02       		.uleb128 0x2
 14794 55c3 74       		.byte	0x74
 14795 55c4 00       		.sleb128 0
 14796 55c5 34       		.uleb128 0x34
 14797 55c6 01       		.uleb128 0x1
 14798 55c7 51       		.byte	0x51
 14799 55c8 03       		.uleb128 0x3
 14800 55c9 91       		.byte	0x91
 14801 55ca 8C7F     		.sleb128 -116
 14802 55cc 34       		.uleb128 0x34
 14803 55cd 01       		.uleb128 0x1
 14804 55ce 52       		.byte	0x52
 14805 55cf 01       		.uleb128 0x1
 14806 55d0 34       		.byte	0x34
 14807 55d1 34       		.uleb128 0x34
 14808 55d2 01       		.uleb128 0x1
 14809 55d3 53       		.byte	0x53
 14810 55d4 01       		.uleb128 0x1
 14811 55d5 30       		.byte	0x30
 14812 55d6 00       		.byte	0
 14813 55d7 48       		.uleb128 0x48
 14814 55d8 92010000 		.4byte	.LVL55
 14815 55dc 34       		.uleb128 0x34
 14816 55dd 01       		.uleb128 0x1
 14817 55de 50       		.byte	0x50
 14818 55df 02       		.uleb128 0x2
 14819 55e0 08       		.byte	0x8
 14820 55e1 34       		.byte	0x34
 14821 55e2 34       		.uleb128 0x34
 14822 55e3 01       		.uleb128 0x1
 14823 55e4 51       		.byte	0x51
 14824 55e5 01       		.uleb128 0x1
 14825 55e6 30       		.byte	0x30
 14826 55e7 00       		.byte	0
 14827 55e8 00       		.byte	0
 14828 55e9 3A       		.uleb128 0x3a
 14829 55ea 94010000 		.4byte	.LBB9
 14830 55ee 2C000000 		.4byte	.LBE9-.LBB9
 14831 55f2 3D560000 		.4byte	0x563d
 14832 55f6 2E       		.uleb128 0x2e
 14833 55f7 890B0000 		.4byte	.LASF956
 14834 55fb 01       		.byte	0x1
 14835 55fc A2       		.byte	0xa2
 14836 55fd 38310000 		.4byte	0x3138
 14837 5601 03       		.uleb128 0x3
 14838 5602 91       		.byte	0x91
 14839 5603 8C7F     		.sleb128 -116
 14840 5605 38       		.uleb128 0x38
 14841 5606 A6010000 		.4byte	.LVL60
 14842 560a EC580000 		.4byte	0x58ec
 14843 560e 2A560000 		.4byte	0x562a
 14844 5612 34       		.uleb128 0x34
ARM GAS  C:\Users\RAKIBU~1\AppData\Local\Temp\ccQ3AEax.s 			page 263


 14845 5613 01       		.uleb128 0x1
 14846 5614 50       		.byte	0x50
 14847 5615 02       		.uleb128 0x2
 14848 5616 74       		.byte	0x74
 14849 5617 00       		.sleb128 0
 14850 5618 34       		.uleb128 0x34
 14851 5619 01       		.uleb128 0x1
 14852 561a 51       		.byte	0x51
 14853 561b 03       		.uleb128 0x3
 14854 561c 91       		.byte	0x91
 14855 561d 8C7F     		.sleb128 -116
 14856 561f 34       		.uleb128 0x34
 14857 5620 01       		.uleb128 0x1
 14858 5621 52       		.byte	0x52
 14859 5622 01       		.uleb128 0x1
 14860 5623 34       		.byte	0x34
 14861 5624 34       		.uleb128 0x34
 14862 5625 01       		.uleb128 0x1
 14863 5626 53       		.byte	0x53
 14864 5627 01       		.uleb128 0x1
 14865 5628 30       		.byte	0x30
 14866 5629 00       		.byte	0
 14867 562a 48       		.uleb128 0x48
 14868 562b BE010000 		.4byte	.LVL61
 14869 562f 34       		.uleb128 0x34
 14870 5630 01       		.uleb128 0x1
 14871 5631 50       		.byte	0x50
 14872 5632 01       		.uleb128 0x1
 14873 5633 41       		.byte	0x41
 14874 5634 34       		.uleb128 0x34
 14875 5635 01       		.uleb128 0x1
 14876 5636 51       		.byte	0x51
 14877 5637 03       		.uleb128 0x3
 14878 5638 91       		.byte	0x91
 14879 5639 8C7F     		.sleb128 -116
 14880 563b 00       		.byte	0
 14881 563c 00       		.byte	0
 14882 563d 3A       		.uleb128 0x3a
 14883 563e C0010000 		.4byte	.LBB10
 14884 5642 20000000 		.4byte	.LBE10-.LBB10
 14885 5646 92560000 		.4byte	0x5692
 14886 564a 2E       		.uleb128 0x2e
 14887 564b 4B2F0000 		.4byte	.LASF962
 14888 564f 01       		.byte	0x1
 14889 5650 AD       		.byte	0xad
 14890 5651 E9310000 		.4byte	0x31e9
 14891 5655 03       		.uleb128 0x3
 14892 5656 91       		.byte	0x91
 14893 5657 8C7F     		.sleb128 -116
 14894 5659 38       		.uleb128 0x38
 14895 565a CC010000 		.4byte	.LVL66
 14896 565e EC580000 		.4byte	0x58ec
 14897 5662 7F560000 		.4byte	0x567f
 14898 5666 34       		.uleb128 0x34
 14899 5667 01       		.uleb128 0x1
 14900 5668 50       		.byte	0x50
 14901 5669 02       		.uleb128 0x2
ARM GAS  C:\Users\RAKIBU~1\AppData\Local\Temp\ccQ3AEax.s 			page 264


 14902 566a 74       		.byte	0x74
 14903 566b 00       		.sleb128 0
 14904 566c 34       		.uleb128 0x34
 14905 566d 01       		.uleb128 0x1
 14906 566e 51       		.byte	0x51
 14907 566f 03       		.uleb128 0x3
 14908 5670 91       		.byte	0x91
 14909 5671 8C7F     		.sleb128 -116
 14910 5673 34       		.uleb128 0x34
 14911 5674 01       		.uleb128 0x1
 14912 5675 52       		.byte	0x52
 14913 5676 02       		.uleb128 0x2
 14914 5677 08       		.byte	0x8
 14915 5678 2C       		.byte	0x2c
 14916 5679 34       		.uleb128 0x34
 14917 567a 01       		.uleb128 0x1
 14918 567b 53       		.byte	0x53
 14919 567c 01       		.uleb128 0x1
 14920 567d 30       		.byte	0x30
 14921 567e 00       		.byte	0
 14922 567f 48       		.uleb128 0x48
 14923 5680 DE010000 		.4byte	.LVL67
 14924 5684 34       		.uleb128 0x34
 14925 5685 01       		.uleb128 0x1
 14926 5686 50       		.byte	0x50
 14927 5687 01       		.uleb128 0x1
 14928 5688 43       		.byte	0x43
 14929 5689 34       		.uleb128 0x34
 14930 568a 01       		.uleb128 0x1
 14931 568b 51       		.byte	0x51
 14932 568c 03       		.uleb128 0x3
 14933 568d 91       		.byte	0x91
 14934 568e 8C7F     		.sleb128 -116
 14935 5690 00       		.byte	0
 14936 5691 00       		.byte	0
 14937 5692 3A       		.uleb128 0x3a
 14938 5693 28020000 		.4byte	.LBB11
 14939 5697 24000000 		.4byte	.LBE11-.LBB11
 14940 569b E7560000 		.4byte	0x56e7
 14941 569f 2E       		.uleb128 0x2e
 14942 56a0 981B0000 		.4byte	.LASF963
 14943 56a4 01       		.byte	0x1
 14944 56a5 C6       		.byte	0xc6
 14945 56a6 DD350000 		.4byte	0x35dd
 14946 56aa 03       		.uleb128 0x3
 14947 56ab 91       		.byte	0x91
 14948 56ac 8C7F     		.sleb128 -116
 14949 56ae 38       		.uleb128 0x38
 14950 56af 34020000 		.4byte	.LVL84
 14951 56b3 EC580000 		.4byte	0x58ec
 14952 56b7 D4560000 		.4byte	0x56d4
 14953 56bb 34       		.uleb128 0x34
 14954 56bc 01       		.uleb128 0x1
 14955 56bd 50       		.byte	0x50
 14956 56be 02       		.uleb128 0x2
 14957 56bf 74       		.byte	0x74
 14958 56c0 00       		.sleb128 0
ARM GAS  C:\Users\RAKIBU~1\AppData\Local\Temp\ccQ3AEax.s 			page 265


 14959 56c1 34       		.uleb128 0x34
 14960 56c2 01       		.uleb128 0x1
 14961 56c3 51       		.byte	0x51
 14962 56c4 03       		.uleb128 0x3
 14963 56c5 91       		.byte	0x91
 14964 56c6 8C7F     		.sleb128 -116
 14965 56c8 34       		.uleb128 0x34
 14966 56c9 01       		.uleb128 0x1
 14967 56ca 52       		.byte	0x52
 14968 56cb 02       		.uleb128 0x2
 14969 56cc 08       		.byte	0x8
 14970 56cd 64       		.byte	0x64
 14971 56ce 34       		.uleb128 0x34
 14972 56cf 01       		.uleb128 0x1
 14973 56d0 53       		.byte	0x53
 14974 56d1 01       		.uleb128 0x1
 14975 56d2 31       		.byte	0x31
 14976 56d3 00       		.byte	0
 14977 56d4 48       		.uleb128 0x48
 14978 56d5 4A020000 		.4byte	.LVL85
 14979 56d9 34       		.uleb128 0x34
 14980 56da 01       		.uleb128 0x1
 14981 56db 50       		.byte	0x50
 14982 56dc 01       		.uleb128 0x1
 14983 56dd 39       		.byte	0x39
 14984 56de 34       		.uleb128 0x34
 14985 56df 01       		.uleb128 0x1
 14986 56e0 51       		.byte	0x51
 14987 56e1 03       		.uleb128 0x3
 14988 56e2 91       		.byte	0x91
 14989 56e3 8C7F     		.sleb128 -116
 14990 56e5 00       		.byte	0
 14991 56e6 00       		.byte	0
 14992 56e7 3A       		.uleb128 0x3a
 14993 56e8 4C020000 		.4byte	.LBB12
 14994 56ec 2C000000 		.4byte	.LBE12-.LBB12
 14995 56f0 3C570000 		.4byte	0x573c
 14996 56f4 2E       		.uleb128 0x2e
 14997 56f5 98020000 		.4byte	.LASF964
 14998 56f9 01       		.byte	0x1
 14999 56fa CF       		.byte	0xcf
 15000 56fb 34300000 		.4byte	0x3034
 15001 56ff 03       		.uleb128 0x3
 15002 5700 91       		.byte	0x91
 15003 5701 8C7F     		.sleb128 -116
 15004 5703 38       		.uleb128 0x38
 15005 5704 5A020000 		.4byte	.LVL90
 15006 5708 EC580000 		.4byte	0x58ec
 15007 570c 28570000 		.4byte	0x5728
 15008 5710 34       		.uleb128 0x34
 15009 5711 01       		.uleb128 0x1
 15010 5712 50       		.byte	0x50
 15011 5713 02       		.uleb128 0x2
 15012 5714 74       		.byte	0x74
 15013 5715 00       		.sleb128 0
 15014 5716 34       		.uleb128 0x34
 15015 5717 01       		.uleb128 0x1
ARM GAS  C:\Users\RAKIBU~1\AppData\Local\Temp\ccQ3AEax.s 			page 266


 15016 5718 51       		.byte	0x51
 15017 5719 03       		.uleb128 0x3
 15018 571a 91       		.byte	0x91
 15019 571b 8C7F     		.sleb128 -116
 15020 571d 34       		.uleb128 0x34
 15021 571e 01       		.uleb128 0x1
 15022 571f 52       		.byte	0x52
 15023 5720 01       		.uleb128 0x1
 15024 5721 34       		.byte	0x34
 15025 5722 34       		.uleb128 0x34
 15026 5723 01       		.uleb128 0x1
 15027 5724 53       		.byte	0x53
 15028 5725 01       		.uleb128 0x1
 15029 5726 31       		.byte	0x31
 15030 5727 00       		.byte	0
 15031 5728 48       		.uleb128 0x48
 15032 5729 70020000 		.4byte	.LVL91
 15033 572d 34       		.uleb128 0x34
 15034 572e 01       		.uleb128 0x1
 15035 572f 50       		.byte	0x50
 15036 5730 02       		.uleb128 0x2
 15037 5731 08       		.byte	0x8
 15038 5732 2A       		.byte	0x2a
 15039 5733 34       		.uleb128 0x34
 15040 5734 01       		.uleb128 0x1
 15041 5735 51       		.byte	0x51
 15042 5736 03       		.uleb128 0x3
 15043 5737 91       		.byte	0x91
 15044 5738 8C7F     		.sleb128 -116
 15045 573a 00       		.byte	0
 15046 573b 00       		.byte	0
 15047 573c 3A       		.uleb128 0x3a
 15048 573d 9A000000 		.4byte	.LBB2
 15049 5741 2C000000 		.4byte	.LBE2-.LBB2
 15050 5745 AA570000 		.4byte	0x57aa
 15051 5749 2E       		.uleb128 0x2e
 15052 574a 30310000 		.4byte	.LASF965
 15053 574e 01       		.byte	0x1
 15054 574f D9       		.byte	0xd9
 15055 5750 05370000 		.4byte	0x3705
 15056 5754 03       		.uleb128 0x3
 15057 5755 91       		.byte	0x91
 15058 5756 8C7F     		.sleb128 -116
 15059 5758 38       		.uleb128 0x38
 15060 5759 A6000000 		.4byte	.LVL16
 15061 575d EC580000 		.4byte	0x58ec
 15062 5761 7D570000 		.4byte	0x577d
 15063 5765 34       		.uleb128 0x34
 15064 5766 01       		.uleb128 0x1
 15065 5767 50       		.byte	0x50
 15066 5768 02       		.uleb128 0x2
 15067 5769 74       		.byte	0x74
 15068 576a 00       		.sleb128 0
 15069 576b 34       		.uleb128 0x34
 15070 576c 01       		.uleb128 0x1
 15071 576d 51       		.byte	0x51
 15072 576e 03       		.uleb128 0x3
ARM GAS  C:\Users\RAKIBU~1\AppData\Local\Temp\ccQ3AEax.s 			page 267


 15073 576f 91       		.byte	0x91
 15074 5770 8C7F     		.sleb128 -116
 15075 5772 34       		.uleb128 0x34
 15076 5773 01       		.uleb128 0x1
 15077 5774 52       		.byte	0x52
 15078 5775 01       		.uleb128 0x1
 15079 5776 38       		.byte	0x38
 15080 5777 34       		.uleb128 0x34
 15081 5778 01       		.uleb128 0x1
 15082 5779 53       		.byte	0x53
 15083 577a 01       		.uleb128 0x1
 15084 577b 30       		.byte	0x30
 15085 577c 00       		.byte	0
 15086 577d 38       		.uleb128 0x38
 15087 577e B8000000 		.4byte	.LVL17
 15088 5782 EC580000 		.4byte	0x58ec
 15089 5786 96570000 		.4byte	0x5796
 15090 578a 34       		.uleb128 0x34
 15091 578b 01       		.uleb128 0x1
 15092 578c 50       		.byte	0x50
 15093 578d 02       		.uleb128 0x2
 15094 578e 74       		.byte	0x74
 15095 578f 08       		.sleb128 8
 15096 5790 34       		.uleb128 0x34
 15097 5791 01       		.uleb128 0x1
 15098 5792 53       		.byte	0x53
 15099 5793 01       		.uleb128 0x1
 15100 5794 31       		.byte	0x31
 15101 5795 00       		.byte	0
 15102 5796 48       		.uleb128 0x48
 15103 5797 C6000000 		.4byte	.LVL18
 15104 579b 34       		.uleb128 0x34
 15105 579c 01       		.uleb128 0x1
 15106 579d 50       		.byte	0x50
 15107 579e 02       		.uleb128 0x2
 15108 579f 08       		.byte	0x8
 15109 57a0 20       		.byte	0x20
 15110 57a1 34       		.uleb128 0x34
 15111 57a2 01       		.uleb128 0x1
 15112 57a3 51       		.byte	0x51
 15113 57a4 03       		.uleb128 0x3
 15114 57a5 91       		.byte	0x91
 15115 57a6 8C7F     		.sleb128 -116
 15116 57a8 00       		.byte	0
 15117 57a9 00       		.byte	0
 15118 57aa 38       		.uleb128 0x38
 15119 57ab EC010000 		.4byte	.LVL72
 15120 57af EC580000 		.4byte	0x58ec
 15121 57b3 CE570000 		.4byte	0x57ce
 15122 57b7 34       		.uleb128 0x34
 15123 57b8 01       		.uleb128 0x1
 15124 57b9 50       		.byte	0x50
 15125 57ba 02       		.uleb128 0x2
 15126 57bb 74       		.byte	0x74
 15127 57bc 00       		.sleb128 0
 15128 57bd 34       		.uleb128 0x34
 15129 57be 01       		.uleb128 0x1
ARM GAS  C:\Users\RAKIBU~1\AppData\Local\Temp\ccQ3AEax.s 			page 268


 15130 57bf 51       		.byte	0x51
 15131 57c0 02       		.uleb128 0x2
 15132 57c1 91       		.byte	0x91
 15133 57c2 70       		.sleb128 -16
 15134 57c3 34       		.uleb128 0x34
 15135 57c4 01       		.uleb128 0x1
 15136 57c5 52       		.byte	0x52
 15137 57c6 01       		.uleb128 0x1
 15138 57c7 34       		.byte	0x34
 15139 57c8 34       		.uleb128 0x34
 15140 57c9 01       		.uleb128 0x1
 15141 57ca 53       		.byte	0x53
 15142 57cb 01       		.uleb128 0x1
 15143 57cc 30       		.byte	0x30
 15144 57cd 00       		.byte	0
 15145 57ce 49       		.uleb128 0x49
 15146 57cf 02020000 		.4byte	.LVL73
 15147 57d3 E3570000 		.4byte	0x57e3
 15148 57d7 34       		.uleb128 0x34
 15149 57d8 01       		.uleb128 0x1
 15150 57d9 50       		.byte	0x50
 15151 57da 01       		.uleb128 0x1
 15152 57db 34       		.byte	0x34
 15153 57dc 34       		.uleb128 0x34
 15154 57dd 01       		.uleb128 0x1
 15155 57de 51       		.byte	0x51
 15156 57df 02       		.uleb128 0x2
 15157 57e0 91       		.byte	0x91
 15158 57e1 70       		.sleb128 -16
 15159 57e2 00       		.byte	0
 15160 57e3 38       		.uleb128 0x38
 15161 57e4 10020000 		.4byte	.LVL78
 15162 57e8 EC580000 		.4byte	0x58ec
 15163 57ec 07580000 		.4byte	0x5807
 15164 57f0 34       		.uleb128 0x34
 15165 57f1 01       		.uleb128 0x1
 15166 57f2 50       		.byte	0x50
 15167 57f3 02       		.uleb128 0x2
 15168 57f4 74       		.byte	0x74
 15169 57f5 00       		.sleb128 0
 15170 57f6 34       		.uleb128 0x34
 15171 57f7 01       		.uleb128 0x1
 15172 57f8 51       		.byte	0x51
 15173 57f9 02       		.uleb128 0x2
 15174 57fa 91       		.byte	0x91
 15175 57fb 70       		.sleb128 -16
 15176 57fc 34       		.uleb128 0x34
 15177 57fd 01       		.uleb128 0x1
 15178 57fe 52       		.byte	0x52
 15179 57ff 01       		.uleb128 0x1
 15180 5800 34       		.byte	0x34
 15181 5801 34       		.uleb128 0x34
 15182 5802 01       		.uleb128 0x1
 15183 5803 53       		.byte	0x53
 15184 5804 01       		.uleb128 0x1
 15185 5805 30       		.byte	0x30
 15186 5806 00       		.byte	0
ARM GAS  C:\Users\RAKIBU~1\AppData\Local\Temp\ccQ3AEax.s 			page 269


 15187 5807 48       		.uleb128 0x48
 15188 5808 26020000 		.4byte	.LVL79
 15189 580c 34       		.uleb128 0x34
 15190 580d 01       		.uleb128 0x1
 15191 580e 50       		.byte	0x50
 15192 580f 02       		.uleb128 0x2
 15193 5810 08       		.byte	0x8
 15194 5811 65       		.byte	0x65
 15195 5812 34       		.uleb128 0x34
 15196 5813 01       		.uleb128 0x1
 15197 5814 51       		.byte	0x51
 15198 5815 02       		.uleb128 0x2
 15199 5816 91       		.byte	0x91
 15200 5817 70       		.sleb128 -16
 15201 5818 00       		.byte	0
 15202 5819 00       		.byte	0
 15203 581a 4A       		.uleb128 0x4a
 15204 581b D1240000 		.4byte	.LASF966
 15205 581f D1240000 		.4byte	.LASF966
 15206 5823 36       		.byte	0x36
 15207 5824 86       		.byte	0x86
 15208 5825 4A       		.uleb128 0x4a
 15209 5826 4C2B0000 		.4byte	.LASF967
 15210 582a 4C2B0000 		.4byte	.LASF967
 15211 582e 37       		.byte	0x37
 15212 582f 92       		.byte	0x92
 15213 5830 4A       		.uleb128 0x4a
 15214 5831 48170000 		.4byte	.LASF968
 15215 5835 48170000 		.4byte	.LASF968
 15216 5839 37       		.byte	0x37
 15217 583a 94       		.byte	0x94
 15218 583b 4A       		.uleb128 0x4a
 15219 583c 22210000 		.4byte	.LASF969
 15220 5840 22210000 		.4byte	.LASF969
 15221 5844 36       		.byte	0x36
 15222 5845 BE       		.byte	0xbe
 15223 5846 4A       		.uleb128 0x4a
 15224 5847 9E220000 		.4byte	.LASF970
 15225 584b 9E220000 		.4byte	.LASF970
 15226 584f 34       		.byte	0x34
 15227 5850 5F       		.byte	0x5f
 15228 5851 4A       		.uleb128 0x4a
 15229 5852 9D110000 		.4byte	.LASF971
 15230 5856 9D110000 		.4byte	.LASF971
 15231 585a 36       		.byte	0x36
 15232 585b AD       		.byte	0xad
 15233 585c 4A       		.uleb128 0x4a
 15234 585d E70A0000 		.4byte	.LASF972
 15235 5861 E70A0000 		.4byte	.LASF972
 15236 5865 36       		.byte	0x36
 15237 5866 D9       		.byte	0xd9
 15238 5867 4A       		.uleb128 0x4a
 15239 5868 6A2F0000 		.4byte	.LASF973
 15240 586c 6A2F0000 		.4byte	.LASF973
 15241 5870 36       		.byte	0x36
 15242 5871 CD       		.byte	0xcd
 15243 5872 4A       		.uleb128 0x4a
ARM GAS  C:\Users\RAKIBU~1\AppData\Local\Temp\ccQ3AEax.s 			page 270


 15244 5873 9F1D0000 		.4byte	.LASF974
 15245 5877 9F1D0000 		.4byte	.LASF974
 15246 587b 38       		.byte	0x38
 15247 587c CD       		.byte	0xcd
 15248 587d 4A       		.uleb128 0x4a
 15249 587e 44260000 		.4byte	.LASF975
 15250 5882 44260000 		.4byte	.LASF975
 15251 5886 38       		.byte	0x38
 15252 5887 C8       		.byte	0xc8
 15253 5888 4A       		.uleb128 0x4a
 15254 5889 052B0000 		.4byte	.LASF976
 15255 588d 052B0000 		.4byte	.LASF976
 15256 5891 36       		.byte	0x36
 15257 5892 F4       		.byte	0xf4
 15258 5893 4A       		.uleb128 0x4a
 15259 5894 9D2B0000 		.4byte	.LASF977
 15260 5898 9D2B0000 		.4byte	.LASF977
 15261 589c 36       		.byte	0x36
 15262 589d 70       		.byte	0x70
 15263 589e 4A       		.uleb128 0x4a
 15264 589f AB0F0000 		.4byte	.LASF978
 15265 58a3 AB0F0000 		.4byte	.LASF978
 15266 58a7 34       		.byte	0x34
 15267 58a8 83       		.byte	0x83
 15268 58a9 4A       		.uleb128 0x4a
 15269 58aa 7A060000 		.4byte	.LASF979
 15270 58ae 7A060000 		.4byte	.LASF979
 15271 58b2 34       		.byte	0x34
 15272 58b3 79       		.byte	0x79
 15273 58b4 4A       		.uleb128 0x4a
 15274 58b5 8C230000 		.4byte	.LASF980
 15275 58b9 8C230000 		.4byte	.LASF980
 15276 58bd 36       		.byte	0x36
 15277 58be 66       		.byte	0x66
 15278 58bf 4A       		.uleb128 0x4a
 15279 58c0 650D0000 		.4byte	.LASF981
 15280 58c4 650D0000 		.4byte	.LASF981
 15281 58c8 36       		.byte	0x36
 15282 58c9 A5       		.byte	0xa5
 15283 58ca 4B       		.uleb128 0x4b
 15284 58cb F1180000 		.4byte	.LASF982
 15285 58cf F1180000 		.4byte	.LASF982
 15286 58d3 01       		.byte	0x1
 15287 58d4 E301     		.2byte	0x1e3
 15288 58d6 4A       		.uleb128 0x4a
 15289 58d7 D5090000 		.4byte	.LASF983
 15290 58db D5090000 		.4byte	.LASF983
 15291 58df 34       		.byte	0x34
 15292 58e0 6E       		.byte	0x6e
 15293 58e1 4A       		.uleb128 0x4a
 15294 58e2 00300000 		.4byte	.LASF984
 15295 58e6 00300000 		.4byte	.LASF984
 15296 58ea 38       		.byte	0x38
 15297 58eb 78       		.byte	0x78
 15298 58ec 4A       		.uleb128 0x4a
 15299 58ed 48240000 		.4byte	.LASF985
 15300 58f1 48240000 		.4byte	.LASF985
ARM GAS  C:\Users\RAKIBU~1\AppData\Local\Temp\ccQ3AEax.s 			page 271


 15301 58f5 36       		.byte	0x36
 15302 58f6 97       		.byte	0x97
 15303 58f7 4A       		.uleb128 0x4a
 15304 58f8 A60C0000 		.4byte	.LASF986
 15305 58fc A60C0000 		.4byte	.LASF986
 15306 5900 37       		.byte	0x37
 15307 5901 93       		.byte	0x93
 15308 5902 00       		.byte	0
 15309              		.section	.debug_abbrev,"",%progbits
 15310              	.Ldebug_abbrev0:
 15311 0000 01       		.uleb128 0x1
 15312 0001 11       		.uleb128 0x11
 15313 0002 01       		.byte	0x1
 15314 0003 25       		.uleb128 0x25
 15315 0004 0E       		.uleb128 0xe
 15316 0005 13       		.uleb128 0x13
 15317 0006 0B       		.uleb128 0xb
 15318 0007 03       		.uleb128 0x3
 15319 0008 0E       		.uleb128 0xe
 15320 0009 1B       		.uleb128 0x1b
 15321 000a 0E       		.uleb128 0xe
 15322 000b 11       		.uleb128 0x11
 15323 000c 01       		.uleb128 0x1
 15324 000d 12       		.uleb128 0x12
 15325 000e 06       		.uleb128 0x6
 15326 000f 10       		.uleb128 0x10
 15327 0010 17       		.uleb128 0x17
 15328 0011 00       		.byte	0
 15329 0012 00       		.byte	0
 15330 0013 02       		.uleb128 0x2
 15331 0014 24       		.uleb128 0x24
 15332 0015 00       		.byte	0
 15333 0016 0B       		.uleb128 0xb
 15334 0017 0B       		.uleb128 0xb
 15335 0018 3E       		.uleb128 0x3e
 15336 0019 0B       		.uleb128 0xb
 15337 001a 03       		.uleb128 0x3
 15338 001b 0E       		.uleb128 0xe
 15339 001c 00       		.byte	0
 15340 001d 00       		.byte	0
 15341 001e 03       		.uleb128 0x3
 15342 001f 16       		.uleb128 0x16
 15343 0020 00       		.byte	0
 15344 0021 03       		.uleb128 0x3
 15345 0022 0E       		.uleb128 0xe
 15346 0023 3A       		.uleb128 0x3a
 15347 0024 0B       		.uleb128 0xb
 15348 0025 3B       		.uleb128 0x3b
 15349 0026 0B       		.uleb128 0xb
 15350 0027 49       		.uleb128 0x49
 15351 0028 13       		.uleb128 0x13
 15352 0029 00       		.byte	0
 15353 002a 00       		.byte	0
 15354 002b 04       		.uleb128 0x4
 15355 002c 24       		.uleb128 0x24
 15356 002d 00       		.byte	0
 15357 002e 0B       		.uleb128 0xb
ARM GAS  C:\Users\RAKIBU~1\AppData\Local\Temp\ccQ3AEax.s 			page 272


 15358 002f 0B       		.uleb128 0xb
 15359 0030 3E       		.uleb128 0x3e
 15360 0031 0B       		.uleb128 0xb
 15361 0032 03       		.uleb128 0x3
 15362 0033 08       		.uleb128 0x8
 15363 0034 00       		.byte	0
 15364 0035 00       		.byte	0
 15365 0036 05       		.uleb128 0x5
 15366 0037 35       		.uleb128 0x35
 15367 0038 00       		.byte	0
 15368 0039 49       		.uleb128 0x49
 15369 003a 13       		.uleb128 0x13
 15370 003b 00       		.byte	0
 15371 003c 00       		.byte	0
 15372 003d 06       		.uleb128 0x6
 15373 003e 0F       		.uleb128 0xf
 15374 003f 00       		.byte	0
 15375 0040 0B       		.uleb128 0xb
 15376 0041 0B       		.uleb128 0xb
 15377 0042 00       		.byte	0
 15378 0043 00       		.byte	0
 15379 0044 07       		.uleb128 0x7
 15380 0045 0F       		.uleb128 0xf
 15381 0046 00       		.byte	0
 15382 0047 0B       		.uleb128 0xb
 15383 0048 0B       		.uleb128 0xb
 15384 0049 49       		.uleb128 0x49
 15385 004a 13       		.uleb128 0x13
 15386 004b 00       		.byte	0
 15387 004c 00       		.byte	0
 15388 004d 08       		.uleb128 0x8
 15389 004e 13       		.uleb128 0x13
 15390 004f 00       		.byte	0
 15391 0050 03       		.uleb128 0x3
 15392 0051 0E       		.uleb128 0xe
 15393 0052 3C       		.uleb128 0x3c
 15394 0053 19       		.uleb128 0x19
 15395 0054 00       		.byte	0
 15396 0055 00       		.byte	0
 15397 0056 09       		.uleb128 0x9
 15398 0057 16       		.uleb128 0x16
 15399 0058 00       		.byte	0
 15400 0059 03       		.uleb128 0x3
 15401 005a 0E       		.uleb128 0xe
 15402 005b 3A       		.uleb128 0x3a
 15403 005c 0B       		.uleb128 0xb
 15404 005d 3B       		.uleb128 0x3b
 15405 005e 05       		.uleb128 0x5
 15406 005f 49       		.uleb128 0x49
 15407 0060 13       		.uleb128 0x13
 15408 0061 00       		.byte	0
 15409 0062 00       		.byte	0
 15410 0063 0A       		.uleb128 0xa
 15411 0064 17       		.uleb128 0x17
 15412 0065 01       		.byte	0x1
 15413 0066 0B       		.uleb128 0xb
 15414 0067 0B       		.uleb128 0xb
ARM GAS  C:\Users\RAKIBU~1\AppData\Local\Temp\ccQ3AEax.s 			page 273


 15415 0068 3A       		.uleb128 0x3a
 15416 0069 0B       		.uleb128 0xb
 15417 006a 3B       		.uleb128 0x3b
 15418 006b 0B       		.uleb128 0xb
 15419 006c 01       		.uleb128 0x1
 15420 006d 13       		.uleb128 0x13
 15421 006e 00       		.byte	0
 15422 006f 00       		.byte	0
 15423 0070 0B       		.uleb128 0xb
 15424 0071 0D       		.uleb128 0xd
 15425 0072 00       		.byte	0
 15426 0073 03       		.uleb128 0x3
 15427 0074 0E       		.uleb128 0xe
 15428 0075 3A       		.uleb128 0x3a
 15429 0076 0B       		.uleb128 0xb
 15430 0077 3B       		.uleb128 0x3b
 15431 0078 0B       		.uleb128 0xb
 15432 0079 49       		.uleb128 0x49
 15433 007a 13       		.uleb128 0x13
 15434 007b 00       		.byte	0
 15435 007c 00       		.byte	0
 15436 007d 0C       		.uleb128 0xc
 15437 007e 01       		.uleb128 0x1
 15438 007f 01       		.byte	0x1
 15439 0080 49       		.uleb128 0x49
 15440 0081 13       		.uleb128 0x13
 15441 0082 01       		.uleb128 0x1
 15442 0083 13       		.uleb128 0x13
 15443 0084 00       		.byte	0
 15444 0085 00       		.byte	0
 15445 0086 0D       		.uleb128 0xd
 15446 0087 21       		.uleb128 0x21
 15447 0088 00       		.byte	0
 15448 0089 49       		.uleb128 0x49
 15449 008a 13       		.uleb128 0x13
 15450 008b 2F       		.uleb128 0x2f
 15451 008c 0B       		.uleb128 0xb
 15452 008d 00       		.byte	0
 15453 008e 00       		.byte	0
 15454 008f 0E       		.uleb128 0xe
 15455 0090 13       		.uleb128 0x13
 15456 0091 01       		.byte	0x1
 15457 0092 0B       		.uleb128 0xb
 15458 0093 0B       		.uleb128 0xb
 15459 0094 3A       		.uleb128 0x3a
 15460 0095 0B       		.uleb128 0xb
 15461 0096 3B       		.uleb128 0x3b
 15462 0097 0B       		.uleb128 0xb
 15463 0098 01       		.uleb128 0x1
 15464 0099 13       		.uleb128 0x13
 15465 009a 00       		.byte	0
 15466 009b 00       		.byte	0
 15467 009c 0F       		.uleb128 0xf
 15468 009d 0D       		.uleb128 0xd
 15469 009e 00       		.byte	0
 15470 009f 03       		.uleb128 0x3
 15471 00a0 0E       		.uleb128 0xe
ARM GAS  C:\Users\RAKIBU~1\AppData\Local\Temp\ccQ3AEax.s 			page 274


 15472 00a1 3A       		.uleb128 0x3a
 15473 00a2 0B       		.uleb128 0xb
 15474 00a3 3B       		.uleb128 0x3b
 15475 00a4 0B       		.uleb128 0xb
 15476 00a5 49       		.uleb128 0x49
 15477 00a6 13       		.uleb128 0x13
 15478 00a7 38       		.uleb128 0x38
 15479 00a8 0B       		.uleb128 0xb
 15480 00a9 00       		.byte	0
 15481 00aa 00       		.byte	0
 15482 00ab 10       		.uleb128 0x10
 15483 00ac 13       		.uleb128 0x13
 15484 00ad 01       		.byte	0x1
 15485 00ae 03       		.uleb128 0x3
 15486 00af 0E       		.uleb128 0xe
 15487 00b0 0B       		.uleb128 0xb
 15488 00b1 0B       		.uleb128 0xb
 15489 00b2 3A       		.uleb128 0x3a
 15490 00b3 0B       		.uleb128 0xb
 15491 00b4 3B       		.uleb128 0x3b
 15492 00b5 0B       		.uleb128 0xb
 15493 00b6 01       		.uleb128 0x1
 15494 00b7 13       		.uleb128 0x13
 15495 00b8 00       		.byte	0
 15496 00b9 00       		.byte	0
 15497 00ba 11       		.uleb128 0x11
 15498 00bb 0D       		.uleb128 0xd
 15499 00bc 00       		.byte	0
 15500 00bd 03       		.uleb128 0x3
 15501 00be 08       		.uleb128 0x8
 15502 00bf 3A       		.uleb128 0x3a
 15503 00c0 0B       		.uleb128 0xb
 15504 00c1 3B       		.uleb128 0x3b
 15505 00c2 0B       		.uleb128 0xb
 15506 00c3 49       		.uleb128 0x49
 15507 00c4 13       		.uleb128 0x13
 15508 00c5 38       		.uleb128 0x38
 15509 00c6 0B       		.uleb128 0xb
 15510 00c7 00       		.byte	0
 15511 00c8 00       		.byte	0
 15512 00c9 12       		.uleb128 0x12
 15513 00ca 13       		.uleb128 0x13
 15514 00cb 01       		.byte	0x1
 15515 00cc 03       		.uleb128 0x3
 15516 00cd 0E       		.uleb128 0xe
 15517 00ce 0B       		.uleb128 0xb
 15518 00cf 05       		.uleb128 0x5
 15519 00d0 3A       		.uleb128 0x3a
 15520 00d1 0B       		.uleb128 0xb
 15521 00d2 3B       		.uleb128 0x3b
 15522 00d3 0B       		.uleb128 0xb
 15523 00d4 01       		.uleb128 0x1
 15524 00d5 13       		.uleb128 0x13
 15525 00d6 00       		.byte	0
 15526 00d7 00       		.byte	0
 15527 00d8 13       		.uleb128 0x13
 15528 00d9 0D       		.uleb128 0xd
ARM GAS  C:\Users\RAKIBU~1\AppData\Local\Temp\ccQ3AEax.s 			page 275


 15529 00da 00       		.byte	0
 15530 00db 03       		.uleb128 0x3
 15531 00dc 0E       		.uleb128 0xe
 15532 00dd 3A       		.uleb128 0x3a
 15533 00de 0B       		.uleb128 0xb
 15534 00df 3B       		.uleb128 0x3b
 15535 00e0 0B       		.uleb128 0xb
 15536 00e1 49       		.uleb128 0x49
 15537 00e2 13       		.uleb128 0x13
 15538 00e3 38       		.uleb128 0x38
 15539 00e4 05       		.uleb128 0x5
 15540 00e5 00       		.byte	0
 15541 00e6 00       		.byte	0
 15542 00e7 14       		.uleb128 0x14
 15543 00e8 15       		.uleb128 0x15
 15544 00e9 00       		.byte	0
 15545 00ea 27       		.uleb128 0x27
 15546 00eb 19       		.uleb128 0x19
 15547 00ec 00       		.byte	0
 15548 00ed 00       		.byte	0
 15549 00ee 15       		.uleb128 0x15
 15550 00ef 15       		.uleb128 0x15
 15551 00f0 01       		.byte	0x1
 15552 00f1 27       		.uleb128 0x27
 15553 00f2 19       		.uleb128 0x19
 15554 00f3 49       		.uleb128 0x49
 15555 00f4 13       		.uleb128 0x13
 15556 00f5 01       		.uleb128 0x1
 15557 00f6 13       		.uleb128 0x13
 15558 00f7 00       		.byte	0
 15559 00f8 00       		.byte	0
 15560 00f9 16       		.uleb128 0x16
 15561 00fa 05       		.uleb128 0x5
 15562 00fb 00       		.byte	0
 15563 00fc 49       		.uleb128 0x49
 15564 00fd 13       		.uleb128 0x13
 15565 00fe 00       		.byte	0
 15566 00ff 00       		.byte	0
 15567 0100 17       		.uleb128 0x17
 15568 0101 26       		.uleb128 0x26
 15569 0102 00       		.byte	0
 15570 0103 49       		.uleb128 0x49
 15571 0104 13       		.uleb128 0x13
 15572 0105 00       		.byte	0
 15573 0106 00       		.byte	0
 15574 0107 18       		.uleb128 0x18
 15575 0108 13       		.uleb128 0x13
 15576 0109 01       		.byte	0x1
 15577 010a 03       		.uleb128 0x3
 15578 010b 0E       		.uleb128 0xe
 15579 010c 0B       		.uleb128 0xb
 15580 010d 05       		.uleb128 0x5
 15581 010e 3A       		.uleb128 0x3a
 15582 010f 0B       		.uleb128 0xb
 15583 0110 3B       		.uleb128 0x3b
 15584 0111 05       		.uleb128 0x5
 15585 0112 01       		.uleb128 0x1
ARM GAS  C:\Users\RAKIBU~1\AppData\Local\Temp\ccQ3AEax.s 			page 276


 15586 0113 13       		.uleb128 0x13
 15587 0114 00       		.byte	0
 15588 0115 00       		.byte	0
 15589 0116 19       		.uleb128 0x19
 15590 0117 0D       		.uleb128 0xd
 15591 0118 00       		.byte	0
 15592 0119 03       		.uleb128 0x3
 15593 011a 0E       		.uleb128 0xe
 15594 011b 3A       		.uleb128 0x3a
 15595 011c 0B       		.uleb128 0xb
 15596 011d 3B       		.uleb128 0x3b
 15597 011e 05       		.uleb128 0x5
 15598 011f 49       		.uleb128 0x49
 15599 0120 13       		.uleb128 0x13
 15600 0121 38       		.uleb128 0x38
 15601 0122 0B       		.uleb128 0xb
 15602 0123 00       		.byte	0
 15603 0124 00       		.byte	0
 15604 0125 1A       		.uleb128 0x1a
 15605 0126 0D       		.uleb128 0xd
 15606 0127 00       		.byte	0
 15607 0128 03       		.uleb128 0x3
 15608 0129 0E       		.uleb128 0xe
 15609 012a 3A       		.uleb128 0x3a
 15610 012b 0B       		.uleb128 0xb
 15611 012c 3B       		.uleb128 0x3b
 15612 012d 05       		.uleb128 0x5
 15613 012e 49       		.uleb128 0x49
 15614 012f 13       		.uleb128 0x13
 15615 0130 38       		.uleb128 0x38
 15616 0131 05       		.uleb128 0x5
 15617 0132 00       		.byte	0
 15618 0133 00       		.byte	0
 15619 0134 1B       		.uleb128 0x1b
 15620 0135 13       		.uleb128 0x13
 15621 0136 01       		.byte	0x1
 15622 0137 03       		.uleb128 0x3
 15623 0138 0E       		.uleb128 0xe
 15624 0139 0B       		.uleb128 0xb
 15625 013a 0B       		.uleb128 0xb
 15626 013b 3A       		.uleb128 0x3a
 15627 013c 0B       		.uleb128 0xb
 15628 013d 3B       		.uleb128 0x3b
 15629 013e 05       		.uleb128 0x5
 15630 013f 01       		.uleb128 0x1
 15631 0140 13       		.uleb128 0x13
 15632 0141 00       		.byte	0
 15633 0142 00       		.byte	0
 15634 0143 1C       		.uleb128 0x1c
 15635 0144 13       		.uleb128 0x13
 15636 0145 01       		.byte	0x1
 15637 0146 0B       		.uleb128 0xb
 15638 0147 0B       		.uleb128 0xb
 15639 0148 3A       		.uleb128 0x3a
 15640 0149 0B       		.uleb128 0xb
 15641 014a 3B       		.uleb128 0x3b
 15642 014b 05       		.uleb128 0x5
ARM GAS  C:\Users\RAKIBU~1\AppData\Local\Temp\ccQ3AEax.s 			page 277


 15643 014c 01       		.uleb128 0x1
 15644 014d 13       		.uleb128 0x13
 15645 014e 00       		.byte	0
 15646 014f 00       		.byte	0
 15647 0150 1D       		.uleb128 0x1d
 15648 0151 17       		.uleb128 0x17
 15649 0152 01       		.byte	0x1
 15650 0153 0B       		.uleb128 0xb
 15651 0154 0B       		.uleb128 0xb
 15652 0155 3A       		.uleb128 0x3a
 15653 0156 0B       		.uleb128 0xb
 15654 0157 3B       		.uleb128 0x3b
 15655 0158 05       		.uleb128 0x5
 15656 0159 01       		.uleb128 0x1
 15657 015a 13       		.uleb128 0x13
 15658 015b 00       		.byte	0
 15659 015c 00       		.byte	0
 15660 015d 1E       		.uleb128 0x1e
 15661 015e 0D       		.uleb128 0xd
 15662 015f 00       		.byte	0
 15663 0160 03       		.uleb128 0x3
 15664 0161 0E       		.uleb128 0xe
 15665 0162 3A       		.uleb128 0x3a
 15666 0163 0B       		.uleb128 0xb
 15667 0164 3B       		.uleb128 0x3b
 15668 0165 05       		.uleb128 0x5
 15669 0166 49       		.uleb128 0x49
 15670 0167 13       		.uleb128 0x13
 15671 0168 00       		.byte	0
 15672 0169 00       		.byte	0
 15673 016a 1F       		.uleb128 0x1f
 15674 016b 15       		.uleb128 0x15
 15675 016c 01       		.byte	0x1
 15676 016d 27       		.uleb128 0x27
 15677 016e 19       		.uleb128 0x19
 15678 016f 01       		.uleb128 0x1
 15679 0170 13       		.uleb128 0x13
 15680 0171 00       		.byte	0
 15681 0172 00       		.byte	0
 15682 0173 20       		.uleb128 0x20
 15683 0174 34       		.uleb128 0x34
 15684 0175 00       		.byte	0
 15685 0176 03       		.uleb128 0x3
 15686 0177 0E       		.uleb128 0xe
 15687 0178 3A       		.uleb128 0x3a
 15688 0179 0B       		.uleb128 0xb
 15689 017a 3B       		.uleb128 0x3b
 15690 017b 05       		.uleb128 0x5
 15691 017c 49       		.uleb128 0x49
 15692 017d 13       		.uleb128 0x13
 15693 017e 3F       		.uleb128 0x3f
 15694 017f 19       		.uleb128 0x19
 15695 0180 3C       		.uleb128 0x3c
 15696 0181 19       		.uleb128 0x19
 15697 0182 00       		.byte	0
 15698 0183 00       		.byte	0
 15699 0184 21       		.uleb128 0x21
ARM GAS  C:\Users\RAKIBU~1\AppData\Local\Temp\ccQ3AEax.s 			page 278


 15700 0185 0D       		.uleb128 0xd
 15701 0186 00       		.byte	0
 15702 0187 03       		.uleb128 0x3
 15703 0188 08       		.uleb128 0x8
 15704 0189 3A       		.uleb128 0x3a
 15705 018a 0B       		.uleb128 0xb
 15706 018b 3B       		.uleb128 0x3b
 15707 018c 05       		.uleb128 0x5
 15708 018d 49       		.uleb128 0x49
 15709 018e 13       		.uleb128 0x13
 15710 018f 38       		.uleb128 0x38
 15711 0190 0B       		.uleb128 0xb
 15712 0191 00       		.byte	0
 15713 0192 00       		.byte	0
 15714 0193 22       		.uleb128 0x22
 15715 0194 0D       		.uleb128 0xd
 15716 0195 00       		.byte	0
 15717 0196 03       		.uleb128 0x3
 15718 0197 08       		.uleb128 0x8
 15719 0198 3A       		.uleb128 0x3a
 15720 0199 0B       		.uleb128 0xb
 15721 019a 3B       		.uleb128 0x3b
 15722 019b 05       		.uleb128 0x5
 15723 019c 49       		.uleb128 0x49
 15724 019d 13       		.uleb128 0x13
 15725 019e 38       		.uleb128 0x38
 15726 019f 05       		.uleb128 0x5
 15727 01a0 00       		.byte	0
 15728 01a1 00       		.byte	0
 15729 01a2 23       		.uleb128 0x23
 15730 01a3 34       		.uleb128 0x34
 15731 01a4 00       		.byte	0
 15732 01a5 03       		.uleb128 0x3
 15733 01a6 0E       		.uleb128 0xe
 15734 01a7 3A       		.uleb128 0x3a
 15735 01a8 0B       		.uleb128 0xb
 15736 01a9 3B       		.uleb128 0x3b
 15737 01aa 0B       		.uleb128 0xb
 15738 01ab 49       		.uleb128 0x49
 15739 01ac 13       		.uleb128 0x13
 15740 01ad 3F       		.uleb128 0x3f
 15741 01ae 19       		.uleb128 0x19
 15742 01af 3C       		.uleb128 0x3c
 15743 01b0 19       		.uleb128 0x19
 15744 01b1 00       		.byte	0
 15745 01b2 00       		.byte	0
 15746 01b3 24       		.uleb128 0x24
 15747 01b4 0D       		.uleb128 0xd
 15748 01b5 00       		.byte	0
 15749 01b6 03       		.uleb128 0x3
 15750 01b7 08       		.uleb128 0x8
 15751 01b8 3A       		.uleb128 0x3a
 15752 01b9 0B       		.uleb128 0xb
 15753 01ba 3B       		.uleb128 0x3b
 15754 01bb 0B       		.uleb128 0xb
 15755 01bc 49       		.uleb128 0x49
 15756 01bd 13       		.uleb128 0x13
ARM GAS  C:\Users\RAKIBU~1\AppData\Local\Temp\ccQ3AEax.s 			page 279


 15757 01be 00       		.byte	0
 15758 01bf 00       		.byte	0
 15759 01c0 25       		.uleb128 0x25
 15760 01c1 0D       		.uleb128 0xd
 15761 01c2 00       		.byte	0
 15762 01c3 03       		.uleb128 0x3
 15763 01c4 0E       		.uleb128 0xe
 15764 01c5 3A       		.uleb128 0x3a
 15765 01c6 0B       		.uleb128 0xb
 15766 01c7 3B       		.uleb128 0x3b
 15767 01c8 0B       		.uleb128 0xb
 15768 01c9 49       		.uleb128 0x49
 15769 01ca 13       		.uleb128 0x13
 15770 01cb 0B       		.uleb128 0xb
 15771 01cc 0B       		.uleb128 0xb
 15772 01cd 0D       		.uleb128 0xd
 15773 01ce 0B       		.uleb128 0xb
 15774 01cf 0C       		.uleb128 0xc
 15775 01d0 0B       		.uleb128 0xb
 15776 01d1 38       		.uleb128 0x38
 15777 01d2 0B       		.uleb128 0xb
 15778 01d3 00       		.byte	0
 15779 01d4 00       		.byte	0
 15780 01d5 26       		.uleb128 0x26
 15781 01d6 13       		.uleb128 0x13
 15782 01d7 01       		.byte	0x1
 15783 01d8 0B       		.uleb128 0xb
 15784 01d9 05       		.uleb128 0x5
 15785 01da 3A       		.uleb128 0x3a
 15786 01db 0B       		.uleb128 0xb
 15787 01dc 3B       		.uleb128 0x3b
 15788 01dd 0B       		.uleb128 0xb
 15789 01de 01       		.uleb128 0x1
 15790 01df 13       		.uleb128 0x13
 15791 01e0 00       		.byte	0
 15792 01e1 00       		.byte	0
 15793 01e2 27       		.uleb128 0x27
 15794 01e3 34       		.uleb128 0x34
 15795 01e4 00       		.byte	0
 15796 01e5 03       		.uleb128 0x3
 15797 01e6 08       		.uleb128 0x8
 15798 01e7 3A       		.uleb128 0x3a
 15799 01e8 0B       		.uleb128 0xb
 15800 01e9 3B       		.uleb128 0x3b
 15801 01ea 05       		.uleb128 0x5
 15802 01eb 49       		.uleb128 0x49
 15803 01ec 13       		.uleb128 0x13
 15804 01ed 3F       		.uleb128 0x3f
 15805 01ee 19       		.uleb128 0x19
 15806 01ef 3C       		.uleb128 0x3c
 15807 01f0 19       		.uleb128 0x19
 15808 01f1 00       		.byte	0
 15809 01f2 00       		.byte	0
 15810 01f3 28       		.uleb128 0x28
 15811 01f4 21       		.uleb128 0x21
 15812 01f5 00       		.byte	0
 15813 01f6 00       		.byte	0
ARM GAS  C:\Users\RAKIBU~1\AppData\Local\Temp\ccQ3AEax.s 			page 280


 15814 01f7 00       		.byte	0
 15815 01f8 29       		.uleb128 0x29
 15816 01f9 04       		.uleb128 0x4
 15817 01fa 01       		.byte	0x1
 15818 01fb 3E       		.uleb128 0x3e
 15819 01fc 0B       		.uleb128 0xb
 15820 01fd 0B       		.uleb128 0xb
 15821 01fe 0B       		.uleb128 0xb
 15822 01ff 49       		.uleb128 0x49
 15823 0200 13       		.uleb128 0x13
 15824 0201 3A       		.uleb128 0x3a
 15825 0202 0B       		.uleb128 0xb
 15826 0203 3B       		.uleb128 0x3b
 15827 0204 0B       		.uleb128 0xb
 15828 0205 01       		.uleb128 0x1
 15829 0206 13       		.uleb128 0x13
 15830 0207 00       		.byte	0
 15831 0208 00       		.byte	0
 15832 0209 2A       		.uleb128 0x2a
 15833 020a 28       		.uleb128 0x28
 15834 020b 00       		.byte	0
 15835 020c 03       		.uleb128 0x3
 15836 020d 0E       		.uleb128 0xe
 15837 020e 1C       		.uleb128 0x1c
 15838 020f 0B       		.uleb128 0xb
 15839 0210 00       		.byte	0
 15840 0211 00       		.byte	0
 15841 0212 2B       		.uleb128 0x2b
 15842 0213 04       		.uleb128 0x4
 15843 0214 01       		.byte	0x1
 15844 0215 3E       		.uleb128 0x3e
 15845 0216 0B       		.uleb128 0xb
 15846 0217 0B       		.uleb128 0xb
 15847 0218 0B       		.uleb128 0xb
 15848 0219 49       		.uleb128 0x49
 15849 021a 13       		.uleb128 0x13
 15850 021b 3A       		.uleb128 0x3a
 15851 021c 0B       		.uleb128 0xb
 15852 021d 3B       		.uleb128 0x3b
 15853 021e 05       		.uleb128 0x5
 15854 021f 01       		.uleb128 0x1
 15855 0220 13       		.uleb128 0x13
 15856 0221 00       		.byte	0
 15857 0222 00       		.byte	0
 15858 0223 2C       		.uleb128 0x2c
 15859 0224 0D       		.uleb128 0xd
 15860 0225 00       		.byte	0
 15861 0226 03       		.uleb128 0x3
 15862 0227 08       		.uleb128 0x8
 15863 0228 3A       		.uleb128 0x3a
 15864 0229 0B       		.uleb128 0xb
 15865 022a 3B       		.uleb128 0x3b
 15866 022b 0B       		.uleb128 0xb
 15867 022c 49       		.uleb128 0x49
 15868 022d 13       		.uleb128 0x13
 15869 022e 38       		.uleb128 0x38
 15870 022f 05       		.uleb128 0x5
ARM GAS  C:\Users\RAKIBU~1\AppData\Local\Temp\ccQ3AEax.s 			page 281


 15871 0230 00       		.byte	0
 15872 0231 00       		.byte	0
 15873 0232 2D       		.uleb128 0x2d
 15874 0233 13       		.uleb128 0x13
 15875 0234 01       		.byte	0x1
 15876 0235 0B       		.uleb128 0xb
 15877 0236 05       		.uleb128 0x5
 15878 0237 3A       		.uleb128 0x3a
 15879 0238 0B       		.uleb128 0xb
 15880 0239 3B       		.uleb128 0x3b
 15881 023a 05       		.uleb128 0x5
 15882 023b 01       		.uleb128 0x1
 15883 023c 13       		.uleb128 0x13
 15884 023d 00       		.byte	0
 15885 023e 00       		.byte	0
 15886 023f 2E       		.uleb128 0x2e
 15887 0240 34       		.uleb128 0x34
 15888 0241 00       		.byte	0
 15889 0242 03       		.uleb128 0x3
 15890 0243 0E       		.uleb128 0xe
 15891 0244 3A       		.uleb128 0x3a
 15892 0245 0B       		.uleb128 0xb
 15893 0246 3B       		.uleb128 0x3b
 15894 0247 0B       		.uleb128 0xb
 15895 0248 49       		.uleb128 0x49
 15896 0249 13       		.uleb128 0x13
 15897 024a 02       		.uleb128 0x2
 15898 024b 18       		.uleb128 0x18
 15899 024c 00       		.byte	0
 15900 024d 00       		.byte	0
 15901 024e 2F       		.uleb128 0x2f
 15902 024f 2E       		.uleb128 0x2e
 15903 0250 01       		.byte	0x1
 15904 0251 3F       		.uleb128 0x3f
 15905 0252 19       		.uleb128 0x19
 15906 0253 03       		.uleb128 0x3
 15907 0254 0E       		.uleb128 0xe
 15908 0255 3A       		.uleb128 0x3a
 15909 0256 0B       		.uleb128 0xb
 15910 0257 3B       		.uleb128 0x3b
 15911 0258 05       		.uleb128 0x5
 15912 0259 27       		.uleb128 0x27
 15913 025a 19       		.uleb128 0x19
 15914 025b 49       		.uleb128 0x49
 15915 025c 13       		.uleb128 0x13
 15916 025d 11       		.uleb128 0x11
 15917 025e 01       		.uleb128 0x1
 15918 025f 12       		.uleb128 0x12
 15919 0260 06       		.uleb128 0x6
 15920 0261 40       		.uleb128 0x40
 15921 0262 18       		.uleb128 0x18
 15922 0263 9742     		.uleb128 0x2117
 15923 0265 19       		.uleb128 0x19
 15924 0266 01       		.uleb128 0x1
 15925 0267 13       		.uleb128 0x13
 15926 0268 00       		.byte	0
 15927 0269 00       		.byte	0
ARM GAS  C:\Users\RAKIBU~1\AppData\Local\Temp\ccQ3AEax.s 			page 282


 15928 026a 30       		.uleb128 0x30
 15929 026b 05       		.uleb128 0x5
 15930 026c 00       		.byte	0
 15931 026d 03       		.uleb128 0x3
 15932 026e 0E       		.uleb128 0xe
 15933 026f 3A       		.uleb128 0x3a
 15934 0270 0B       		.uleb128 0xb
 15935 0271 3B       		.uleb128 0x3b
 15936 0272 05       		.uleb128 0x5
 15937 0273 49       		.uleb128 0x49
 15938 0274 13       		.uleb128 0x13
 15939 0275 02       		.uleb128 0x2
 15940 0276 17       		.uleb128 0x17
 15941 0277 00       		.byte	0
 15942 0278 00       		.byte	0
 15943 0279 31       		.uleb128 0x31
 15944 027a 34       		.uleb128 0x34
 15945 027b 00       		.byte	0
 15946 027c 03       		.uleb128 0x3
 15947 027d 08       		.uleb128 0x8
 15948 027e 3A       		.uleb128 0x3a
 15949 027f 0B       		.uleb128 0xb
 15950 0280 3B       		.uleb128 0x3b
 15951 0281 05       		.uleb128 0x5
 15952 0282 49       		.uleb128 0x49
 15953 0283 13       		.uleb128 0x13
 15954 0284 02       		.uleb128 0x2
 15955 0285 17       		.uleb128 0x17
 15956 0286 00       		.byte	0
 15957 0287 00       		.byte	0
 15958 0288 32       		.uleb128 0x32
 15959 0289 34       		.uleb128 0x34
 15960 028a 00       		.byte	0
 15961 028b 03       		.uleb128 0x3
 15962 028c 0E       		.uleb128 0xe
 15963 028d 3A       		.uleb128 0x3a
 15964 028e 0B       		.uleb128 0xb
 15965 028f 3B       		.uleb128 0x3b
 15966 0290 05       		.uleb128 0x5
 15967 0291 49       		.uleb128 0x49
 15968 0292 13       		.uleb128 0x13
 15969 0293 02       		.uleb128 0x2
 15970 0294 18       		.uleb128 0x18
 15971 0295 00       		.byte	0
 15972 0296 00       		.byte	0
 15973 0297 33       		.uleb128 0x33
 15974 0298 898201   		.uleb128 0x4109
 15975 029b 01       		.byte	0x1
 15976 029c 11       		.uleb128 0x11
 15977 029d 01       		.uleb128 0x1
 15978 029e 31       		.uleb128 0x31
 15979 029f 13       		.uleb128 0x13
 15980 02a0 00       		.byte	0
 15981 02a1 00       		.byte	0
 15982 02a2 34       		.uleb128 0x34
 15983 02a3 8A8201   		.uleb128 0x410a
 15984 02a6 00       		.byte	0
ARM GAS  C:\Users\RAKIBU~1\AppData\Local\Temp\ccQ3AEax.s 			page 283


 15985 02a7 02       		.uleb128 0x2
 15986 02a8 18       		.uleb128 0x18
 15987 02a9 9142     		.uleb128 0x2111
 15988 02ab 18       		.uleb128 0x18
 15989 02ac 00       		.byte	0
 15990 02ad 00       		.byte	0
 15991 02ae 35       		.uleb128 0x35
 15992 02af 34       		.uleb128 0x34
 15993 02b0 00       		.byte	0
 15994 02b1 03       		.uleb128 0x3
 15995 02b2 0E       		.uleb128 0xe
 15996 02b3 3A       		.uleb128 0x3a
 15997 02b4 0B       		.uleb128 0xb
 15998 02b5 3B       		.uleb128 0x3b
 15999 02b6 05       		.uleb128 0x5
 16000 02b7 49       		.uleb128 0x49
 16001 02b8 13       		.uleb128 0x13
 16002 02b9 02       		.uleb128 0x2
 16003 02ba 17       		.uleb128 0x17
 16004 02bb 00       		.byte	0
 16005 02bc 00       		.byte	0
 16006 02bd 36       		.uleb128 0x36
 16007 02be 0A       		.uleb128 0xa
 16008 02bf 00       		.byte	0
 16009 02c0 03       		.uleb128 0x3
 16010 02c1 0E       		.uleb128 0xe
 16011 02c2 3A       		.uleb128 0x3a
 16012 02c3 0B       		.uleb128 0xb
 16013 02c4 3B       		.uleb128 0x3b
 16014 02c5 05       		.uleb128 0x5
 16015 02c6 11       		.uleb128 0x11
 16016 02c7 01       		.uleb128 0x1
 16017 02c8 00       		.byte	0
 16018 02c9 00       		.byte	0
 16019 02ca 37       		.uleb128 0x37
 16020 02cb 0B       		.uleb128 0xb
 16021 02cc 01       		.byte	0x1
 16022 02cd 55       		.uleb128 0x55
 16023 02ce 17       		.uleb128 0x17
 16024 02cf 00       		.byte	0
 16025 02d0 00       		.byte	0
 16026 02d1 38       		.uleb128 0x38
 16027 02d2 898201   		.uleb128 0x4109
 16028 02d5 01       		.byte	0x1
 16029 02d6 11       		.uleb128 0x11
 16030 02d7 01       		.uleb128 0x1
 16031 02d8 31       		.uleb128 0x31
 16032 02d9 13       		.uleb128 0x13
 16033 02da 01       		.uleb128 0x1
 16034 02db 13       		.uleb128 0x13
 16035 02dc 00       		.byte	0
 16036 02dd 00       		.byte	0
 16037 02de 39       		.uleb128 0x39
 16038 02df 898201   		.uleb128 0x4109
 16039 02e2 00       		.byte	0
 16040 02e3 11       		.uleb128 0x11
 16041 02e4 01       		.uleb128 0x1
ARM GAS  C:\Users\RAKIBU~1\AppData\Local\Temp\ccQ3AEax.s 			page 284


 16042 02e5 31       		.uleb128 0x31
 16043 02e6 13       		.uleb128 0x13
 16044 02e7 00       		.byte	0
 16045 02e8 00       		.byte	0
 16046 02e9 3A       		.uleb128 0x3a
 16047 02ea 0B       		.uleb128 0xb
 16048 02eb 01       		.byte	0x1
 16049 02ec 11       		.uleb128 0x11
 16050 02ed 01       		.uleb128 0x1
 16051 02ee 12       		.uleb128 0x12
 16052 02ef 06       		.uleb128 0x6
 16053 02f0 01       		.uleb128 0x1
 16054 02f1 13       		.uleb128 0x13
 16055 02f2 00       		.byte	0
 16056 02f3 00       		.byte	0
 16057 02f4 3B       		.uleb128 0x3b
 16058 02f5 2E       		.uleb128 0x2e
 16059 02f6 00       		.byte	0
 16060 02f7 3F       		.uleb128 0x3f
 16061 02f8 19       		.uleb128 0x19
 16062 02f9 03       		.uleb128 0x3
 16063 02fa 0E       		.uleb128 0xe
 16064 02fb 3A       		.uleb128 0x3a
 16065 02fc 0B       		.uleb128 0xb
 16066 02fd 3B       		.uleb128 0x3b
 16067 02fe 05       		.uleb128 0x5
 16068 02ff 27       		.uleb128 0x27
 16069 0300 19       		.uleb128 0x19
 16070 0301 49       		.uleb128 0x49
 16071 0302 13       		.uleb128 0x13
 16072 0303 11       		.uleb128 0x11
 16073 0304 01       		.uleb128 0x1
 16074 0305 12       		.uleb128 0x12
 16075 0306 06       		.uleb128 0x6
 16076 0307 40       		.uleb128 0x40
 16077 0308 18       		.uleb128 0x18
 16078 0309 9742     		.uleb128 0x2117
 16079 030b 19       		.uleb128 0x19
 16080 030c 00       		.byte	0
 16081 030d 00       		.byte	0
 16082 030e 3C       		.uleb128 0x3c
 16083 030f 0B       		.uleb128 0xb
 16084 0310 01       		.byte	0x1
 16085 0311 11       		.uleb128 0x11
 16086 0312 01       		.uleb128 0x1
 16087 0313 12       		.uleb128 0x12
 16088 0314 06       		.uleb128 0x6
 16089 0315 00       		.byte	0
 16090 0316 00       		.byte	0
 16091 0317 3D       		.uleb128 0x3d
 16092 0318 05       		.uleb128 0x5
 16093 0319 00       		.byte	0
 16094 031a 03       		.uleb128 0x3
 16095 031b 08       		.uleb128 0x8
 16096 031c 3A       		.uleb128 0x3a
 16097 031d 0B       		.uleb128 0xb
 16098 031e 3B       		.uleb128 0x3b
ARM GAS  C:\Users\RAKIBU~1\AppData\Local\Temp\ccQ3AEax.s 			page 285


 16099 031f 05       		.uleb128 0x5
 16100 0320 49       		.uleb128 0x49
 16101 0321 13       		.uleb128 0x13
 16102 0322 02       		.uleb128 0x2
 16103 0323 17       		.uleb128 0x17
 16104 0324 00       		.byte	0
 16105 0325 00       		.byte	0
 16106 0326 3E       		.uleb128 0x3e
 16107 0327 34       		.uleb128 0x34
 16108 0328 00       		.byte	0
 16109 0329 03       		.uleb128 0x3
 16110 032a 08       		.uleb128 0x8
 16111 032b 3A       		.uleb128 0x3a
 16112 032c 0B       		.uleb128 0xb
 16113 032d 3B       		.uleb128 0x3b
 16114 032e 05       		.uleb128 0x5
 16115 032f 49       		.uleb128 0x49
 16116 0330 13       		.uleb128 0x13
 16117 0331 1C       		.uleb128 0x1c
 16118 0332 0B       		.uleb128 0xb
 16119 0333 00       		.byte	0
 16120 0334 00       		.byte	0
 16121 0335 3F       		.uleb128 0x3f
 16122 0336 0B       		.uleb128 0xb
 16123 0337 01       		.byte	0x1
 16124 0338 55       		.uleb128 0x55
 16125 0339 17       		.uleb128 0x17
 16126 033a 01       		.uleb128 0x1
 16127 033b 13       		.uleb128 0x13
 16128 033c 00       		.byte	0
 16129 033d 00       		.byte	0
 16130 033e 40       		.uleb128 0x40
 16131 033f 34       		.uleb128 0x34
 16132 0340 00       		.byte	0
 16133 0341 03       		.uleb128 0x3
 16134 0342 0E       		.uleb128 0xe
 16135 0343 3A       		.uleb128 0x3a
 16136 0344 0B       		.uleb128 0xb
 16137 0345 3B       		.uleb128 0x3b
 16138 0346 05       		.uleb128 0x5
 16139 0347 49       		.uleb128 0x49
 16140 0348 13       		.uleb128 0x13
 16141 0349 00       		.byte	0
 16142 034a 00       		.byte	0
 16143 034b 41       		.uleb128 0x41
 16144 034c 05       		.uleb128 0x5
 16145 034d 00       		.byte	0
 16146 034e 03       		.uleb128 0x3
 16147 034f 0E       		.uleb128 0xe
 16148 0350 3A       		.uleb128 0x3a
 16149 0351 0B       		.uleb128 0xb
 16150 0352 3B       		.uleb128 0x3b
 16151 0353 05       		.uleb128 0x5
 16152 0354 49       		.uleb128 0x49
 16153 0355 13       		.uleb128 0x13
 16154 0356 02       		.uleb128 0x2
 16155 0357 18       		.uleb128 0x18
ARM GAS  C:\Users\RAKIBU~1\AppData\Local\Temp\ccQ3AEax.s 			page 286


 16156 0358 00       		.byte	0
 16157 0359 00       		.byte	0
 16158 035a 42       		.uleb128 0x42
 16159 035b 2E       		.uleb128 0x2e
 16160 035c 01       		.byte	0x1
 16161 035d 3F       		.uleb128 0x3f
 16162 035e 19       		.uleb128 0x19
 16163 035f 03       		.uleb128 0x3
 16164 0360 0E       		.uleb128 0xe
 16165 0361 3A       		.uleb128 0x3a
 16166 0362 0B       		.uleb128 0xb
 16167 0363 3B       		.uleb128 0x3b
 16168 0364 05       		.uleb128 0x5
 16169 0365 49       		.uleb128 0x49
 16170 0366 13       		.uleb128 0x13
 16171 0367 3C       		.uleb128 0x3c
 16172 0368 19       		.uleb128 0x19
 16173 0369 01       		.uleb128 0x1
 16174 036a 13       		.uleb128 0x13
 16175 036b 00       		.byte	0
 16176 036c 00       		.byte	0
 16177 036d 43       		.uleb128 0x43
 16178 036e 18       		.uleb128 0x18
 16179 036f 00       		.byte	0
 16180 0370 00       		.byte	0
 16181 0371 00       		.byte	0
 16182 0372 44       		.uleb128 0x44
 16183 0373 2E       		.uleb128 0x2e
 16184 0374 01       		.byte	0x1
 16185 0375 03       		.uleb128 0x3
 16186 0376 0E       		.uleb128 0xe
 16187 0377 3A       		.uleb128 0x3a
 16188 0378 0B       		.uleb128 0xb
 16189 0379 3B       		.uleb128 0x3b
 16190 037a 05       		.uleb128 0x5
 16191 037b 27       		.uleb128 0x27
 16192 037c 19       		.uleb128 0x19
 16193 037d 49       		.uleb128 0x49
 16194 037e 13       		.uleb128 0x13
 16195 037f 11       		.uleb128 0x11
 16196 0380 01       		.uleb128 0x1
 16197 0381 12       		.uleb128 0x12
 16198 0382 06       		.uleb128 0x6
 16199 0383 40       		.uleb128 0x40
 16200 0384 18       		.uleb128 0x18
 16201 0385 9742     		.uleb128 0x2117
 16202 0387 19       		.uleb128 0x19
 16203 0388 01       		.uleb128 0x1
 16204 0389 13       		.uleb128 0x13
 16205 038a 00       		.byte	0
 16206 038b 00       		.byte	0
 16207 038c 45       		.uleb128 0x45
 16208 038d 0A       		.uleb128 0xa
 16209 038e 00       		.byte	0
 16210 038f 03       		.uleb128 0x3
 16211 0390 08       		.uleb128 0x8
 16212 0391 3A       		.uleb128 0x3a
ARM GAS  C:\Users\RAKIBU~1\AppData\Local\Temp\ccQ3AEax.s 			page 287


 16213 0392 0B       		.uleb128 0xb
 16214 0393 3B       		.uleb128 0x3b
 16215 0394 05       		.uleb128 0x5
 16216 0395 11       		.uleb128 0x11
 16217 0396 01       		.uleb128 0x1
 16218 0397 00       		.byte	0
 16219 0398 00       		.byte	0
 16220 0399 46       		.uleb128 0x46
 16221 039a 2E       		.uleb128 0x2e
 16222 039b 01       		.byte	0x1
 16223 039c 03       		.uleb128 0x3
 16224 039d 0E       		.uleb128 0xe
 16225 039e 3A       		.uleb128 0x3a
 16226 039f 0B       		.uleb128 0xb
 16227 03a0 3B       		.uleb128 0x3b
 16228 03a1 0B       		.uleb128 0xb
 16229 03a2 27       		.uleb128 0x27
 16230 03a3 19       		.uleb128 0x19
 16231 03a4 11       		.uleb128 0x11
 16232 03a5 01       		.uleb128 0x1
 16233 03a6 12       		.uleb128 0x12
 16234 03a7 06       		.uleb128 0x6
 16235 03a8 40       		.uleb128 0x40
 16236 03a9 18       		.uleb128 0x18
 16237 03aa 9742     		.uleb128 0x2117
 16238 03ac 19       		.uleb128 0x19
 16239 03ad 01       		.uleb128 0x1
 16240 03ae 13       		.uleb128 0x13
 16241 03af 00       		.byte	0
 16242 03b0 00       		.byte	0
 16243 03b1 47       		.uleb128 0x47
 16244 03b2 05       		.uleb128 0x5
 16245 03b3 00       		.byte	0
 16246 03b4 03       		.uleb128 0x3
 16247 03b5 0E       		.uleb128 0xe
 16248 03b6 3A       		.uleb128 0x3a
 16249 03b7 0B       		.uleb128 0xb
 16250 03b8 3B       		.uleb128 0x3b
 16251 03b9 0B       		.uleb128 0xb
 16252 03ba 49       		.uleb128 0x49
 16253 03bb 13       		.uleb128 0x13
 16254 03bc 02       		.uleb128 0x2
 16255 03bd 17       		.uleb128 0x17
 16256 03be 00       		.byte	0
 16257 03bf 00       		.byte	0
 16258 03c0 48       		.uleb128 0x48
 16259 03c1 898201   		.uleb128 0x4109
 16260 03c4 01       		.byte	0x1
 16261 03c5 11       		.uleb128 0x11
 16262 03c6 01       		.uleb128 0x1
 16263 03c7 00       		.byte	0
 16264 03c8 00       		.byte	0
 16265 03c9 49       		.uleb128 0x49
 16266 03ca 898201   		.uleb128 0x4109
 16267 03cd 01       		.byte	0x1
 16268 03ce 11       		.uleb128 0x11
 16269 03cf 01       		.uleb128 0x1
ARM GAS  C:\Users\RAKIBU~1\AppData\Local\Temp\ccQ3AEax.s 			page 288


 16270 03d0 01       		.uleb128 0x1
 16271 03d1 13       		.uleb128 0x13
 16272 03d2 00       		.byte	0
 16273 03d3 00       		.byte	0
 16274 03d4 4A       		.uleb128 0x4a
 16275 03d5 2E       		.uleb128 0x2e
 16276 03d6 00       		.byte	0
 16277 03d7 3F       		.uleb128 0x3f
 16278 03d8 19       		.uleb128 0x19
 16279 03d9 3C       		.uleb128 0x3c
 16280 03da 19       		.uleb128 0x19
 16281 03db 6E       		.uleb128 0x6e
 16282 03dc 0E       		.uleb128 0xe
 16283 03dd 03       		.uleb128 0x3
 16284 03de 0E       		.uleb128 0xe
 16285 03df 3A       		.uleb128 0x3a
 16286 03e0 0B       		.uleb128 0xb
 16287 03e1 3B       		.uleb128 0x3b
 16288 03e2 0B       		.uleb128 0xb
 16289 03e3 00       		.byte	0
 16290 03e4 00       		.byte	0
 16291 03e5 4B       		.uleb128 0x4b
 16292 03e6 2E       		.uleb128 0x2e
 16293 03e7 00       		.byte	0
 16294 03e8 3F       		.uleb128 0x3f
 16295 03e9 19       		.uleb128 0x19
 16296 03ea 3C       		.uleb128 0x3c
 16297 03eb 19       		.uleb128 0x19
 16298 03ec 6E       		.uleb128 0x6e
 16299 03ed 0E       		.uleb128 0xe
 16300 03ee 03       		.uleb128 0x3
 16301 03ef 0E       		.uleb128 0xe
 16302 03f0 3A       		.uleb128 0x3a
 16303 03f1 0B       		.uleb128 0xb
 16304 03f2 3B       		.uleb128 0x3b
 16305 03f3 05       		.uleb128 0x5
 16306 03f4 00       		.byte	0
 16307 03f5 00       		.byte	0
 16308 03f6 00       		.byte	0
 16309              		.section	.debug_loc,"",%progbits
 16310              	.Ldebug_loc0:
 16311              	.LLST101:
 16312 0000 100E0000 		.4byte	.LVL370-.Ltext0
 16313 0004 3A0E0000 		.4byte	.LVL373-.Ltext0
 16314 0008 0100     		.2byte	0x1
 16315 000a 50       		.byte	0x50
 16316 000b 3A0E0000 		.4byte	.LVL373-.Ltext0
 16317 000f 3D0E0000 		.4byte	.LVL374-1-.Ltext0
 16318 0013 0200     		.2byte	0x2
 16319 0015 72       		.byte	0x72
 16320 0016 00       		.sleb128 0
 16321 0017 3D0E0000 		.4byte	.LVL374-1-.Ltext0
 16322 001b 440E0000 		.4byte	.LVL375-.Ltext0
 16323 001f 0400     		.2byte	0x4
 16324 0021 F3       		.byte	0xf3
 16325 0022 01       		.uleb128 0x1
 16326 0023 50       		.byte	0x50
ARM GAS  C:\Users\RAKIBU~1\AppData\Local\Temp\ccQ3AEax.s 			page 289


 16327 0024 9F       		.byte	0x9f
 16328 0025 440E0000 		.4byte	.LVL375-.Ltext0
 16329 0029 480E0000 		.4byte	.LVL376-.Ltext0
 16330 002d 0100     		.2byte	0x1
 16331 002f 50       		.byte	0x50
 16332 0030 480E0000 		.4byte	.LVL376-.Ltext0
 16333 0034 4A0E0000 		.4byte	.LVL377-.Ltext0
 16334 0038 0400     		.2byte	0x4
 16335 003a F3       		.byte	0xf3
 16336 003b 01       		.uleb128 0x1
 16337 003c 50       		.byte	0x50
 16338 003d 9F       		.byte	0x9f
 16339 003e 4A0E0000 		.4byte	.LVL377-.Ltext0
 16340 0042 4E0E0000 		.4byte	.LVL378-.Ltext0
 16341 0046 0100     		.2byte	0x1
 16342 0048 50       		.byte	0x50
 16343 0049 4E0E0000 		.4byte	.LVL378-.Ltext0
 16344 004d 500E0000 		.4byte	.LFE385-.Ltext0
 16345 0051 0400     		.2byte	0x4
 16346 0053 F3       		.byte	0xf3
 16347 0054 01       		.uleb128 0x1
 16348 0055 50       		.byte	0x50
 16349 0056 9F       		.byte	0x9f
 16350 0057 00000000 		.4byte	0
 16351 005b 00000000 		.4byte	0
 16352              	.LLST102:
 16353 005f 100E0000 		.4byte	.LVL370-.Ltext0
 16354 0063 380E0000 		.4byte	.LVL372-.Ltext0
 16355 0067 0100     		.2byte	0x1
 16356 0069 51       		.byte	0x51
 16357 006a 380E0000 		.4byte	.LVL372-.Ltext0
 16358 006e 3D0E0000 		.4byte	.LVL374-1-.Ltext0
 16359 0072 0200     		.2byte	0x2
 16360 0074 91       		.byte	0x91
 16361 0075 74       		.sleb128 -12
 16362 0076 3D0E0000 		.4byte	.LVL374-1-.Ltext0
 16363 007a 440E0000 		.4byte	.LVL375-.Ltext0
 16364 007e 0400     		.2byte	0x4
 16365 0080 F3       		.byte	0xf3
 16366 0081 01       		.uleb128 0x1
 16367 0082 51       		.byte	0x51
 16368 0083 9F       		.byte	0x9f
 16369 0084 440E0000 		.4byte	.LVL375-.Ltext0
 16370 0088 500E0000 		.4byte	.LFE385-.Ltext0
 16371 008c 0100     		.2byte	0x1
 16372 008e 51       		.byte	0x51
 16373 008f 00000000 		.4byte	0
 16374 0093 00000000 		.4byte	0
 16375              	.LLST103:
 16376 0097 140E0000 		.4byte	.LVL371-.Ltext0
 16377 009b 3E0E0000 		.4byte	.LVL374-.Ltext0
 16378 009f 0300     		.2byte	0x3
 16379 00a1 09       		.byte	0x9
 16380 00a2 F4       		.byte	0xf4
 16381 00a3 9F       		.byte	0x9f
 16382 00a4 3E0E0000 		.4byte	.LVL374-.Ltext0
 16383 00a8 440E0000 		.4byte	.LVL375-.Ltext0
ARM GAS  C:\Users\RAKIBU~1\AppData\Local\Temp\ccQ3AEax.s 			page 290


 16384 00ac 0100     		.2byte	0x1
 16385 00ae 50       		.byte	0x50
 16386 00af 440E0000 		.4byte	.LVL375-.Ltext0
 16387 00b3 500E0000 		.4byte	.LFE385-.Ltext0
 16388 00b7 0300     		.2byte	0x3
 16389 00b9 09       		.byte	0x9
 16390 00ba F4       		.byte	0xf4
 16391 00bb 9F       		.byte	0x9f
 16392 00bc 00000000 		.4byte	0
 16393 00c0 00000000 		.4byte	0
 16394              	.LLST99:
 16395 00c4 E00D0000 		.4byte	.LVL366-.Ltext0
 16396 00c8 FC0D0000 		.4byte	.LVL368-.Ltext0
 16397 00cc 0100     		.2byte	0x1
 16398 00ce 50       		.byte	0x50
 16399 00cf FC0D0000 		.4byte	.LVL368-.Ltext0
 16400 00d3 FF0D0000 		.4byte	.LVL369-1-.Ltext0
 16401 00d7 0200     		.2byte	0x2
 16402 00d9 72       		.byte	0x72
 16403 00da 00       		.sleb128 0
 16404 00db FF0D0000 		.4byte	.LVL369-1-.Ltext0
 16405 00df 060E0000 		.4byte	.LFE384-.Ltext0
 16406 00e3 0400     		.2byte	0x4
 16407 00e5 F3       		.byte	0xf3
 16408 00e6 01       		.uleb128 0x1
 16409 00e7 50       		.byte	0x50
 16410 00e8 9F       		.byte	0x9f
 16411 00e9 00000000 		.4byte	0
 16412 00ed 00000000 		.4byte	0
 16413              	.LLST100:
 16414 00f1 E40D0000 		.4byte	.LVL367-.Ltext0
 16415 00f5 000E0000 		.4byte	.LVL369-.Ltext0
 16416 00f9 0200     		.2byte	0x2
 16417 00fb 30       		.byte	0x30
 16418 00fc 9F       		.byte	0x9f
 16419 00fd 000E0000 		.4byte	.LVL369-.Ltext0
 16420 0101 060E0000 		.4byte	.LFE384-.Ltext0
 16421 0105 0100     		.2byte	0x1
 16422 0107 50       		.byte	0x50
 16423 0108 00000000 		.4byte	0
 16424 010c 00000000 		.4byte	0
 16425              	.LLST97:
 16426 0110 B00D0000 		.4byte	.LVL362-.Ltext0
 16427 0114 C80D0000 		.4byte	.LVL364-.Ltext0
 16428 0118 0100     		.2byte	0x1
 16429 011a 50       		.byte	0x50
 16430 011b C80D0000 		.4byte	.LVL364-.Ltext0
 16431 011f CB0D0000 		.4byte	.LVL365-1-.Ltext0
 16432 0123 0200     		.2byte	0x2
 16433 0125 72       		.byte	0x72
 16434 0126 00       		.sleb128 0
 16435 0127 CB0D0000 		.4byte	.LVL365-1-.Ltext0
 16436 012b D20D0000 		.4byte	.LFE383-.Ltext0
 16437 012f 0400     		.2byte	0x4
 16438 0131 F3       		.byte	0xf3
 16439 0132 01       		.uleb128 0x1
 16440 0133 50       		.byte	0x50
ARM GAS  C:\Users\RAKIBU~1\AppData\Local\Temp\ccQ3AEax.s 			page 291


 16441 0134 9F       		.byte	0x9f
 16442 0135 00000000 		.4byte	0
 16443 0139 00000000 		.4byte	0
 16444              	.LLST98:
 16445 013d B40D0000 		.4byte	.LVL363-.Ltext0
 16446 0141 CC0D0000 		.4byte	.LVL365-.Ltext0
 16447 0145 0200     		.2byte	0x2
 16448 0147 30       		.byte	0x30
 16449 0148 9F       		.byte	0x9f
 16450 0149 CC0D0000 		.4byte	.LVL365-.Ltext0
 16451 014d D20D0000 		.4byte	.LFE383-.Ltext0
 16452 0151 0100     		.2byte	0x1
 16453 0153 50       		.byte	0x50
 16454 0154 00000000 		.4byte	0
 16455 0158 00000000 		.4byte	0
 16456              	.LLST95:
 16457 015c 800D0000 		.4byte	.LVL358-.Ltext0
 16458 0160 980D0000 		.4byte	.LVL360-.Ltext0
 16459 0164 0100     		.2byte	0x1
 16460 0166 50       		.byte	0x50
 16461 0167 980D0000 		.4byte	.LVL360-.Ltext0
 16462 016b 9B0D0000 		.4byte	.LVL361-1-.Ltext0
 16463 016f 0200     		.2byte	0x2
 16464 0171 72       		.byte	0x72
 16465 0172 00       		.sleb128 0
 16466 0173 9B0D0000 		.4byte	.LVL361-1-.Ltext0
 16467 0177 A20D0000 		.4byte	.LFE382-.Ltext0
 16468 017b 0400     		.2byte	0x4
 16469 017d F3       		.byte	0xf3
 16470 017e 01       		.uleb128 0x1
 16471 017f 50       		.byte	0x50
 16472 0180 9F       		.byte	0x9f
 16473 0181 00000000 		.4byte	0
 16474 0185 00000000 		.4byte	0
 16475              	.LLST96:
 16476 0189 840D0000 		.4byte	.LVL359-.Ltext0
 16477 018d 9C0D0000 		.4byte	.LVL361-.Ltext0
 16478 0191 0200     		.2byte	0x2
 16479 0193 30       		.byte	0x30
 16480 0194 9F       		.byte	0x9f
 16481 0195 9C0D0000 		.4byte	.LVL361-.Ltext0
 16482 0199 A20D0000 		.4byte	.LFE382-.Ltext0
 16483 019d 0100     		.2byte	0x1
 16484 019f 50       		.byte	0x50
 16485 01a0 00000000 		.4byte	0
 16486 01a4 00000000 		.4byte	0
 16487              	.LLST93:
 16488 01a8 500D0000 		.4byte	.LVL354-.Ltext0
 16489 01ac 680D0000 		.4byte	.LVL356-.Ltext0
 16490 01b0 0100     		.2byte	0x1
 16491 01b2 50       		.byte	0x50
 16492 01b3 680D0000 		.4byte	.LVL356-.Ltext0
 16493 01b7 6B0D0000 		.4byte	.LVL357-1-.Ltext0
 16494 01bb 0200     		.2byte	0x2
 16495 01bd 72       		.byte	0x72
 16496 01be 00       		.sleb128 0
 16497 01bf 6B0D0000 		.4byte	.LVL357-1-.Ltext0
ARM GAS  C:\Users\RAKIBU~1\AppData\Local\Temp\ccQ3AEax.s 			page 292


 16498 01c3 720D0000 		.4byte	.LFE381-.Ltext0
 16499 01c7 0400     		.2byte	0x4
 16500 01c9 F3       		.byte	0xf3
 16501 01ca 01       		.uleb128 0x1
 16502 01cb 50       		.byte	0x50
 16503 01cc 9F       		.byte	0x9f
 16504 01cd 00000000 		.4byte	0
 16505 01d1 00000000 		.4byte	0
 16506              	.LLST94:
 16507 01d5 540D0000 		.4byte	.LVL355-.Ltext0
 16508 01d9 6C0D0000 		.4byte	.LVL357-.Ltext0
 16509 01dd 0200     		.2byte	0x2
 16510 01df 30       		.byte	0x30
 16511 01e0 9F       		.byte	0x9f
 16512 01e1 6C0D0000 		.4byte	.LVL357-.Ltext0
 16513 01e5 720D0000 		.4byte	.LFE381-.Ltext0
 16514 01e9 0100     		.2byte	0x1
 16515 01eb 50       		.byte	0x50
 16516 01ec 00000000 		.4byte	0
 16517 01f0 00000000 		.4byte	0
 16518              	.LLST91:
 16519 01f4 200D0000 		.4byte	.LVL349-.Ltext0
 16520 01f8 340D0000 		.4byte	.LVL351-.Ltext0
 16521 01fc 0100     		.2byte	0x1
 16522 01fe 50       		.byte	0x50
 16523 01ff 340D0000 		.4byte	.LVL351-.Ltext0
 16524 0203 3E0D0000 		.4byte	.LVL353-.Ltext0
 16525 0207 0400     		.2byte	0x4
 16526 0209 F3       		.byte	0xf3
 16527 020a 01       		.uleb128 0x1
 16528 020b 50       		.byte	0x50
 16529 020c 9F       		.byte	0x9f
 16530 020d 3E0D0000 		.4byte	.LVL353-.Ltext0
 16531 0211 420D0000 		.4byte	.LFE380-.Ltext0
 16532 0215 0100     		.2byte	0x1
 16533 0217 50       		.byte	0x50
 16534 0218 00000000 		.4byte	0
 16535 021c 00000000 		.4byte	0
 16536              	.LLST92:
 16537 0220 280D0000 		.4byte	.LVL350-.Ltext0
 16538 0224 370D0000 		.4byte	.LVL352-1-.Ltext0
 16539 0228 0100     		.2byte	0x1
 16540 022a 51       		.byte	0x51
 16541 022b 00000000 		.4byte	0
 16542 022f 00000000 		.4byte	0
 16543              	.LLST90:
 16544 0233 D00C0000 		.4byte	.LVL345-.Ltext0
 16545 0237 E80C0000 		.4byte	.LVL346-.Ltext0
 16546 023b 0100     		.2byte	0x1
 16547 023d 50       		.byte	0x50
 16548 023e E80C0000 		.4byte	.LVL346-.Ltext0
 16549 0242 EB0C0000 		.4byte	.LVL347-1-.Ltext0
 16550 0246 0200     		.2byte	0x2
 16551 0248 72       		.byte	0x72
 16552 0249 00       		.sleb128 0
 16553 024a 00000000 		.4byte	0
 16554 024e 00000000 		.4byte	0
ARM GAS  C:\Users\RAKIBU~1\AppData\Local\Temp\ccQ3AEax.s 			page 293


 16555              	.LLST86:
 16556 0252 200C0000 		.4byte	.LVL332-.Ltext0
 16557 0256 2F0C0000 		.4byte	.LVL333-1-.Ltext0
 16558 025a 0100     		.2byte	0x1
 16559 025c 50       		.byte	0x50
 16560 025d 2F0C0000 		.4byte	.LVL333-1-.Ltext0
 16561 0261 7C0C0000 		.4byte	.LVL341-.Ltext0
 16562 0265 0100     		.2byte	0x1
 16563 0267 54       		.byte	0x54
 16564 0268 7C0C0000 		.4byte	.LVL341-.Ltext0
 16565 026c 800C0000 		.4byte	.LVL342-.Ltext0
 16566 0270 0100     		.2byte	0x1
 16567 0272 50       		.byte	0x50
 16568 0273 800C0000 		.4byte	.LVL342-.Ltext0
 16569 0277 880C0000 		.4byte	.LFE375-.Ltext0
 16570 027b 0400     		.2byte	0x4
 16571 027d F3       		.byte	0xf3
 16572 027e 01       		.uleb128 0x1
 16573 027f 50       		.byte	0x50
 16574 0280 9F       		.byte	0x9f
 16575 0281 00000000 		.4byte	0
 16576 0285 00000000 		.4byte	0
 16577              	.LLST87:
 16578 0289 200C0000 		.4byte	.LVL332-.Ltext0
 16579 028d 2F0C0000 		.4byte	.LVL333-1-.Ltext0
 16580 0291 0100     		.2byte	0x1
 16581 0293 51       		.byte	0x51
 16582 0294 2F0C0000 		.4byte	.LVL333-1-.Ltext0
 16583 0298 7C0C0000 		.4byte	.LVL341-.Ltext0
 16584 029c 0100     		.2byte	0x1
 16585 029e 55       		.byte	0x55
 16586 029f 7C0C0000 		.4byte	.LVL341-.Ltext0
 16587 02a3 880C0000 		.4byte	.LFE375-.Ltext0
 16588 02a7 0100     		.2byte	0x1
 16589 02a9 51       		.byte	0x51
 16590 02aa 00000000 		.4byte	0
 16591 02ae 00000000 		.4byte	0
 16592              	.LLST88:
 16593 02b2 200C0000 		.4byte	.LVL332-.Ltext0
 16594 02b6 2F0C0000 		.4byte	.LVL333-1-.Ltext0
 16595 02ba 0100     		.2byte	0x1
 16596 02bc 52       		.byte	0x52
 16597 02bd 2F0C0000 		.4byte	.LVL333-1-.Ltext0
 16598 02c1 7C0C0000 		.4byte	.LVL341-.Ltext0
 16599 02c5 0400     		.2byte	0x4
 16600 02c7 F3       		.byte	0xf3
 16601 02c8 01       		.uleb128 0x1
 16602 02c9 52       		.byte	0x52
 16603 02ca 9F       		.byte	0x9f
 16604 02cb 7C0C0000 		.4byte	.LVL341-.Ltext0
 16605 02cf 880C0000 		.4byte	.LFE375-.Ltext0
 16606 02d3 0100     		.2byte	0x1
 16607 02d5 52       		.byte	0x52
 16608 02d6 00000000 		.4byte	0
 16609 02da 00000000 		.4byte	0
 16610              	.LLST89:
 16611 02de 200C0000 		.4byte	.LVL332-.Ltext0
ARM GAS  C:\Users\RAKIBU~1\AppData\Local\Temp\ccQ3AEax.s 			page 294


 16612 02e2 360C0000 		.4byte	.LVL334-.Ltext0
 16613 02e6 0300     		.2byte	0x3
 16614 02e8 09       		.byte	0x9
 16615 02e9 F4       		.byte	0xf4
 16616 02ea 9F       		.byte	0x9f
 16617 02eb 360C0000 		.4byte	.LVL334-.Ltext0
 16618 02ef 3A0C0000 		.4byte	.LVL335-.Ltext0
 16619 02f3 0100     		.2byte	0x1
 16620 02f5 50       		.byte	0x50
 16621 02f6 3A0C0000 		.4byte	.LVL335-.Ltext0
 16622 02fa 740C0000 		.4byte	.LVL339-.Ltext0
 16623 02fe 0300     		.2byte	0x3
 16624 0300 09       		.byte	0x9
 16625 0301 F4       		.byte	0xf4
 16626 0302 9F       		.byte	0x9f
 16627 0303 740C0000 		.4byte	.LVL339-.Ltext0
 16628 0307 760C0000 		.4byte	.LVL340-.Ltext0
 16629 030b 0100     		.2byte	0x1
 16630 030d 50       		.byte	0x50
 16631 030e 760C0000 		.4byte	.LVL340-.Ltext0
 16632 0312 800C0000 		.4byte	.LVL342-.Ltext0
 16633 0316 0300     		.2byte	0x3
 16634 0318 09       		.byte	0x9
 16635 0319 F4       		.byte	0xf4
 16636 031a 9F       		.byte	0x9f
 16637 031b 800C0000 		.4byte	.LVL342-.Ltext0
 16638 031f 880C0000 		.4byte	.LFE375-.Ltext0
 16639 0323 0100     		.2byte	0x1
 16640 0325 50       		.byte	0x50
 16641 0326 00000000 		.4byte	0
 16642 032a 00000000 		.4byte	0
 16643              	.LLST84:
 16644 032e 000C0000 		.4byte	.LVL323-.Ltext0
 16645 0332 070C0000 		.4byte	.LVL325-1-.Ltext0
 16646 0336 0100     		.2byte	0x1
 16647 0338 50       		.byte	0x50
 16648 0339 070C0000 		.4byte	.LVL325-1-.Ltext0
 16649 033d 1E0C0000 		.4byte	.LFE374-.Ltext0
 16650 0341 0100     		.2byte	0x1
 16651 0343 55       		.byte	0x55
 16652 0344 00000000 		.4byte	0
 16653 0348 00000000 		.4byte	0
 16654              	.LLST85:
 16655 034c 040C0000 		.4byte	.LVL324-.Ltext0
 16656 0350 080C0000 		.4byte	.LVL325-.Ltext0
 16657 0354 0200     		.2byte	0x2
 16658 0356 30       		.byte	0x30
 16659 0357 9F       		.byte	0x9f
 16660 0358 080C0000 		.4byte	.LVL325-.Ltext0
 16661 035c 0C0C0000 		.4byte	.LVL326-.Ltext0
 16662 0360 0100     		.2byte	0x1
 16663 0362 50       		.byte	0x50
 16664 0363 0C0C0000 		.4byte	.LVL326-.Ltext0
 16665 0367 100C0000 		.4byte	.LVL327-.Ltext0
 16666 036b 0100     		.2byte	0x1
 16667 036d 54       		.byte	0x54
 16668 036e 100C0000 		.4byte	.LVL327-.Ltext0
ARM GAS  C:\Users\RAKIBU~1\AppData\Local\Temp\ccQ3AEax.s 			page 295


 16669 0372 120C0000 		.4byte	.LVL328-.Ltext0
 16670 0376 0100     		.2byte	0x1
 16671 0378 50       		.byte	0x50
 16672 0379 180C0000 		.4byte	.LVL330-.Ltext0
 16673 037d 1E0C0000 		.4byte	.LFE374-.Ltext0
 16674 0381 0100     		.2byte	0x1
 16675 0383 54       		.byte	0x54
 16676 0384 00000000 		.4byte	0
 16677 0388 00000000 		.4byte	0
 16678              	.LLST82:
 16679 038c D00B0000 		.4byte	.LVL317-.Ltext0
 16680 0390 E20B0000 		.4byte	.LVL320-.Ltext0
 16681 0394 0100     		.2byte	0x1
 16682 0396 50       		.byte	0x50
 16683 0397 E20B0000 		.4byte	.LVL320-.Ltext0
 16684 039b E50B0000 		.4byte	.LVL321-1-.Ltext0
 16685 039f 0100     		.2byte	0x1
 16686 03a1 51       		.byte	0x51
 16687 03a2 E50B0000 		.4byte	.LVL321-1-.Ltext0
 16688 03a6 000C0000 		.4byte	.LFE373-.Ltext0
 16689 03aa 0400     		.2byte	0x4
 16690 03ac F3       		.byte	0xf3
 16691 03ad 01       		.uleb128 0x1
 16692 03ae 50       		.byte	0x50
 16693 03af 9F       		.byte	0x9f
 16694 03b0 00000000 		.4byte	0
 16695 03b4 00000000 		.4byte	0
 16696              	.LLST83:
 16697 03b8 D00B0000 		.4byte	.LVL317-.Ltext0
 16698 03bc DA0B0000 		.4byte	.LVL318-.Ltext0
 16699 03c0 0100     		.2byte	0x1
 16700 03c2 51       		.byte	0x51
 16701 03c3 DA0B0000 		.4byte	.LVL318-.Ltext0
 16702 03c7 DC0B0000 		.4byte	.LVL319-.Ltext0
 16703 03cb 0100     		.2byte	0x1
 16704 03cd 51       		.byte	0x51
 16705 03ce DC0B0000 		.4byte	.LVL319-.Ltext0
 16706 03d2 E50B0000 		.4byte	.LVL321-1-.Ltext0
 16707 03d6 0100     		.2byte	0x1
 16708 03d8 52       		.byte	0x52
 16709 03d9 00000000 		.4byte	0
 16710 03dd 00000000 		.4byte	0
 16711              	.LLST79:
 16712 03e1 A00B0000 		.4byte	.LVL310-.Ltext0
 16713 03e5 A90B0000 		.4byte	.LVL312-1-.Ltext0
 16714 03e9 0100     		.2byte	0x1
 16715 03eb 50       		.byte	0x50
 16716 03ec A90B0000 		.4byte	.LVL312-1-.Ltext0
 16717 03f0 CE0B0000 		.4byte	.LFE372-.Ltext0
 16718 03f4 0100     		.2byte	0x1
 16719 03f6 54       		.byte	0x54
 16720 03f7 00000000 		.4byte	0
 16721 03fb 00000000 		.4byte	0
 16722              	.LLST80:
 16723 03ff A60B0000 		.4byte	.LVL311-.Ltext0
 16724 0403 B00B0000 		.4byte	.LVL313-.Ltext0
 16725 0407 0200     		.2byte	0x2
ARM GAS  C:\Users\RAKIBU~1\AppData\Local\Temp\ccQ3AEax.s 			page 296


 16726 0409 30       		.byte	0x30
 16727 040a 9F       		.byte	0x9f
 16728 040b B00B0000 		.4byte	.LVL313-.Ltext0
 16729 040f B40B0000 		.4byte	.LVL314-.Ltext0
 16730 0413 0100     		.2byte	0x1
 16731 0415 50       		.byte	0x50
 16732 0416 B40B0000 		.4byte	.LVL314-.Ltext0
 16733 041a CC0B0000 		.4byte	.LVL316-.Ltext0
 16734 041e 0200     		.2byte	0x2
 16735 0420 30       		.byte	0x30
 16736 0421 9F       		.byte	0x9f
 16737 0422 CC0B0000 		.4byte	.LVL316-.Ltext0
 16738 0426 CE0B0000 		.4byte	.LFE372-.Ltext0
 16739 042a 0100     		.2byte	0x1
 16740 042c 50       		.byte	0x50
 16741 042d 00000000 		.4byte	0
 16742 0431 00000000 		.4byte	0
 16743              	.LLST81:
 16744 0435 AA0B0000 		.4byte	.LVL312-.Ltext0
 16745 0439 B00B0000 		.4byte	.LVL313-.Ltext0
 16746 043d 0100     		.2byte	0x1
 16747 043f 50       		.byte	0x50
 16748 0440 B40B0000 		.4byte	.LVL314-.Ltext0
 16749 0444 C80B0000 		.4byte	.LVL315-.Ltext0
 16750 0448 0100     		.2byte	0x1
 16751 044a 50       		.byte	0x50
 16752 044b 00000000 		.4byte	0
 16753 044f 00000000 		.4byte	0
 16754              	.LLST76:
 16755 0453 700B0000 		.4byte	.LVL303-.Ltext0
 16756 0457 8E0B0000 		.4byte	.LVL306-.Ltext0
 16757 045b 0100     		.2byte	0x1
 16758 045d 50       		.byte	0x50
 16759 045e 8E0B0000 		.4byte	.LVL306-.Ltext0
 16760 0462 910B0000 		.4byte	.LVL307-1-.Ltext0
 16761 0466 0200     		.2byte	0x2
 16762 0468 72       		.byte	0x72
 16763 0469 00       		.sleb128 0
 16764 046a 910B0000 		.4byte	.LVL307-1-.Ltext0
 16765 046e A00B0000 		.4byte	.LFE371-.Ltext0
 16766 0472 0400     		.2byte	0x4
 16767 0474 F3       		.byte	0xf3
 16768 0475 01       		.uleb128 0x1
 16769 0476 50       		.byte	0x50
 16770 0477 9F       		.byte	0x9f
 16771 0478 00000000 		.4byte	0
 16772 047c 00000000 		.4byte	0
 16773              	.LLST77:
 16774 0480 700B0000 		.4byte	.LVL303-.Ltext0
 16775 0484 8C0B0000 		.4byte	.LVL305-.Ltext0
 16776 0488 0100     		.2byte	0x1
 16777 048a 51       		.byte	0x51
 16778 048b 8C0B0000 		.4byte	.LVL305-.Ltext0
 16779 048f 910B0000 		.4byte	.LVL307-1-.Ltext0
 16780 0493 0200     		.2byte	0x2
 16781 0495 91       		.byte	0x91
 16782 0496 6D       		.sleb128 -19
ARM GAS  C:\Users\RAKIBU~1\AppData\Local\Temp\ccQ3AEax.s 			page 297


 16783 0497 910B0000 		.4byte	.LVL307-1-.Ltext0
 16784 049b A00B0000 		.4byte	.LFE371-.Ltext0
 16785 049f 0400     		.2byte	0x4
 16786 04a1 F3       		.byte	0xf3
 16787 04a2 01       		.uleb128 0x1
 16788 04a3 51       		.byte	0x51
 16789 04a4 9F       		.byte	0x9f
 16790 04a5 00000000 		.4byte	0
 16791 04a9 00000000 		.4byte	0
 16792              	.LLST78:
 16793 04ad 760B0000 		.4byte	.LVL304-.Ltext0
 16794 04b1 940B0000 		.4byte	.LVL308-.Ltext0
 16795 04b5 0200     		.2byte	0x2
 16796 04b7 30       		.byte	0x30
 16797 04b8 9F       		.byte	0x9f
 16798 04b9 940B0000 		.4byte	.LVL308-.Ltext0
 16799 04bd A00B0000 		.4byte	.LFE371-.Ltext0
 16800 04c1 0100     		.2byte	0x1
 16801 04c3 55       		.byte	0x55
 16802 04c4 00000000 		.4byte	0
 16803 04c8 00000000 		.4byte	0
 16804              	.LLST74:
 16805 04cc 200B0000 		.4byte	.LVL298-.Ltext0
 16806 04d0 380B0000 		.4byte	.LVL300-.Ltext0
 16807 04d4 0100     		.2byte	0x1
 16808 04d6 50       		.byte	0x50
 16809 04d7 380B0000 		.4byte	.LVL300-.Ltext0
 16810 04db 3B0B0000 		.4byte	.LVL301-1-.Ltext0
 16811 04df 0200     		.2byte	0x2
 16812 04e1 72       		.byte	0x72
 16813 04e2 00       		.sleb128 0
 16814 04e3 3B0B0000 		.4byte	.LVL301-1-.Ltext0
 16815 04e7 420B0000 		.4byte	.LFE368-.Ltext0
 16816 04eb 0400     		.2byte	0x4
 16817 04ed F3       		.byte	0xf3
 16818 04ee 01       		.uleb128 0x1
 16819 04ef 50       		.byte	0x50
 16820 04f0 9F       		.byte	0x9f
 16821 04f1 00000000 		.4byte	0
 16822 04f5 00000000 		.4byte	0
 16823              	.LLST75:
 16824 04f9 240B0000 		.4byte	.LVL299-.Ltext0
 16825 04fd 3C0B0000 		.4byte	.LVL301-.Ltext0
 16826 0501 0200     		.2byte	0x2
 16827 0503 30       		.byte	0x30
 16828 0504 9F       		.byte	0x9f
 16829 0505 3C0B0000 		.4byte	.LVL301-.Ltext0
 16830 0509 420B0000 		.4byte	.LFE368-.Ltext0
 16831 050d 0100     		.2byte	0x1
 16832 050f 50       		.byte	0x50
 16833 0510 00000000 		.4byte	0
 16834 0514 00000000 		.4byte	0
 16835              	.LLST72:
 16836 0518 F00A0000 		.4byte	.LVL289-.Ltext0
 16837 051c F70A0000 		.4byte	.LVL291-1-.Ltext0
 16838 0520 0100     		.2byte	0x1
 16839 0522 50       		.byte	0x50
ARM GAS  C:\Users\RAKIBU~1\AppData\Local\Temp\ccQ3AEax.s 			page 298


 16840 0523 F70A0000 		.4byte	.LVL291-1-.Ltext0
 16841 0527 140B0000 		.4byte	.LFE367-.Ltext0
 16842 052b 0100     		.2byte	0x1
 16843 052d 54       		.byte	0x54
 16844 052e 00000000 		.4byte	0
 16845 0532 00000000 		.4byte	0
 16846              	.LLST73:
 16847 0536 F40A0000 		.4byte	.LVL290-.Ltext0
 16848 053a F80A0000 		.4byte	.LVL291-.Ltext0
 16849 053e 0200     		.2byte	0x2
 16850 0540 30       		.byte	0x30
 16851 0541 9F       		.byte	0x9f
 16852 0542 F80A0000 		.4byte	.LVL291-.Ltext0
 16853 0546 FC0A0000 		.4byte	.LVL292-.Ltext0
 16854 054a 0100     		.2byte	0x1
 16855 054c 50       		.byte	0x50
 16856 054d FC0A0000 		.4byte	.LVL292-.Ltext0
 16857 0551 000B0000 		.4byte	.LVL293-.Ltext0
 16858 0555 0100     		.2byte	0x1
 16859 0557 53       		.byte	0x53
 16860 0558 000B0000 		.4byte	.LVL293-.Ltext0
 16861 055c 020B0000 		.4byte	.LVL294-.Ltext0
 16862 0560 0100     		.2byte	0x1
 16863 0562 50       		.byte	0x50
 16864 0563 060B0000 		.4byte	.LVL295-.Ltext0
 16865 0567 0F0B0000 		.4byte	.LVL296-1-.Ltext0
 16866 056b 0100     		.2byte	0x1
 16867 056d 50       		.byte	0x50
 16868 056e 120B0000 		.4byte	.LVL297-.Ltext0
 16869 0572 140B0000 		.4byte	.LFE367-.Ltext0
 16870 0576 0100     		.2byte	0x1
 16871 0578 53       		.byte	0x53
 16872 0579 00000000 		.4byte	0
 16873 057d 00000000 		.4byte	0
 16874              	.LLST69:
 16875 0581 C00A0000 		.4byte	.LVL280-.Ltext0
 16876 0585 C90A0000 		.4byte	.LVL282-1-.Ltext0
 16877 0589 0100     		.2byte	0x1
 16878 058b 50       		.byte	0x50
 16879 058c C90A0000 		.4byte	.LVL282-1-.Ltext0
 16880 0590 E80A0000 		.4byte	.LFE366-.Ltext0
 16881 0594 0100     		.2byte	0x1
 16882 0596 54       		.byte	0x54
 16883 0597 00000000 		.4byte	0
 16884 059b 00000000 		.4byte	0
 16885              	.LLST70:
 16886 059f C00A0000 		.4byte	.LVL280-.Ltext0
 16887 05a3 C90A0000 		.4byte	.LVL282-1-.Ltext0
 16888 05a7 0100     		.2byte	0x1
 16889 05a9 51       		.byte	0x51
 16890 05aa C90A0000 		.4byte	.LVL282-1-.Ltext0
 16891 05ae E80A0000 		.4byte	.LFE366-.Ltext0
 16892 05b2 0100     		.2byte	0x1
 16893 05b4 55       		.byte	0x55
 16894 05b5 00000000 		.4byte	0
 16895 05b9 00000000 		.4byte	0
 16896              	.LLST71:
ARM GAS  C:\Users\RAKIBU~1\AppData\Local\Temp\ccQ3AEax.s 			page 299


 16897 05bd C60A0000 		.4byte	.LVL281-.Ltext0
 16898 05c1 CA0A0000 		.4byte	.LVL282-.Ltext0
 16899 05c5 0200     		.2byte	0x2
 16900 05c7 30       		.byte	0x30
 16901 05c8 9F       		.byte	0x9f
 16902 05c9 CA0A0000 		.4byte	.LVL282-.Ltext0
 16903 05cd CE0A0000 		.4byte	.LVL283-.Ltext0
 16904 05d1 0100     		.2byte	0x1
 16905 05d3 50       		.byte	0x50
 16906 05d4 CE0A0000 		.4byte	.LVL283-.Ltext0
 16907 05d8 D20A0000 		.4byte	.LVL284-.Ltext0
 16908 05dc 0100     		.2byte	0x1
 16909 05de 53       		.byte	0x53
 16910 05df D20A0000 		.4byte	.LVL284-.Ltext0
 16911 05e3 D60A0000 		.4byte	.LVL285-.Ltext0
 16912 05e7 0100     		.2byte	0x1
 16913 05e9 50       		.byte	0x50
 16914 05ea DA0A0000 		.4byte	.LVL286-.Ltext0
 16915 05ee E30A0000 		.4byte	.LVL287-1-.Ltext0
 16916 05f2 0100     		.2byte	0x1
 16917 05f4 50       		.byte	0x50
 16918 05f5 E60A0000 		.4byte	.LVL288-.Ltext0
 16919 05f9 E80A0000 		.4byte	.LFE366-.Ltext0
 16920 05fd 0100     		.2byte	0x1
 16921 05ff 53       		.byte	0x53
 16922 0600 00000000 		.4byte	0
 16923 0604 00000000 		.4byte	0
 16924              	.LLST66:
 16925 0608 800A0000 		.4byte	.LVL272-.Ltext0
 16926 060c A20A0000 		.4byte	.LVL274-.Ltext0
 16927 0610 0100     		.2byte	0x1
 16928 0612 50       		.byte	0x50
 16929 0613 A20A0000 		.4byte	.LVL274-.Ltext0
 16930 0617 A50A0000 		.4byte	.LVL275-1-.Ltext0
 16931 061b 0200     		.2byte	0x2
 16932 061d 7D       		.byte	0x7d
 16933 061e 00       		.sleb128 0
 16934 061f A50A0000 		.4byte	.LVL275-1-.Ltext0
 16935 0623 AC0A0000 		.4byte	.LVL276-.Ltext0
 16936 0627 0400     		.2byte	0x4
 16937 0629 F3       		.byte	0xf3
 16938 062a 01       		.uleb128 0x1
 16939 062b 50       		.byte	0x50
 16940 062c 9F       		.byte	0x9f
 16941 062d AC0A0000 		.4byte	.LVL276-.Ltext0
 16942 0631 B00A0000 		.4byte	.LVL277-.Ltext0
 16943 0635 0100     		.2byte	0x1
 16944 0637 50       		.byte	0x50
 16945 0638 B00A0000 		.4byte	.LVL277-.Ltext0
 16946 063c B20A0000 		.4byte	.LVL278-.Ltext0
 16947 0640 0400     		.2byte	0x4
 16948 0642 F3       		.byte	0xf3
 16949 0643 01       		.uleb128 0x1
 16950 0644 50       		.byte	0x50
 16951 0645 9F       		.byte	0x9f
 16952 0646 B20A0000 		.4byte	.LVL278-.Ltext0
 16953 064a B60A0000 		.4byte	.LVL279-.Ltext0
ARM GAS  C:\Users\RAKIBU~1\AppData\Local\Temp\ccQ3AEax.s 			page 300


 16954 064e 0100     		.2byte	0x1
 16955 0650 50       		.byte	0x50
 16956 0651 B60A0000 		.4byte	.LVL279-.Ltext0
 16957 0655 B80A0000 		.4byte	.LFE365-.Ltext0
 16958 0659 0400     		.2byte	0x4
 16959 065b F3       		.byte	0xf3
 16960 065c 01       		.uleb128 0x1
 16961 065d 50       		.byte	0x50
 16962 065e 9F       		.byte	0x9f
 16963 065f 00000000 		.4byte	0
 16964 0663 00000000 		.4byte	0
 16965              	.LLST67:
 16966 0667 800A0000 		.4byte	.LVL272-.Ltext0
 16967 066b A00A0000 		.4byte	.LVL273-.Ltext0
 16968 066f 0100     		.2byte	0x1
 16969 0671 51       		.byte	0x51
 16970 0672 A00A0000 		.4byte	.LVL273-.Ltext0
 16971 0676 A50A0000 		.4byte	.LVL275-1-.Ltext0
 16972 067a 0200     		.2byte	0x2
 16973 067c 72       		.byte	0x72
 16974 067d 00       		.sleb128 0
 16975 067e A50A0000 		.4byte	.LVL275-1-.Ltext0
 16976 0682 AC0A0000 		.4byte	.LVL276-.Ltext0
 16977 0686 0400     		.2byte	0x4
 16978 0688 F3       		.byte	0xf3
 16979 0689 01       		.uleb128 0x1
 16980 068a 51       		.byte	0x51
 16981 068b 9F       		.byte	0x9f
 16982 068c AC0A0000 		.4byte	.LVL276-.Ltext0
 16983 0690 B80A0000 		.4byte	.LFE365-.Ltext0
 16984 0694 0100     		.2byte	0x1
 16985 0696 51       		.byte	0x51
 16986 0697 00000000 		.4byte	0
 16987 069b 00000000 		.4byte	0
 16988              	.LLST68:
 16989 069f 800A0000 		.4byte	.LVL272-.Ltext0
 16990 06a3 A60A0000 		.4byte	.LVL275-.Ltext0
 16991 06a7 0300     		.2byte	0x3
 16992 06a9 09       		.byte	0x9
 16993 06aa FF       		.byte	0xff
 16994 06ab 9F       		.byte	0x9f
 16995 06ac A60A0000 		.4byte	.LVL275-.Ltext0
 16996 06b0 AC0A0000 		.4byte	.LVL276-.Ltext0
 16997 06b4 0100     		.2byte	0x1
 16998 06b6 50       		.byte	0x50
 16999 06b7 AC0A0000 		.4byte	.LVL276-.Ltext0
 17000 06bb B60A0000 		.4byte	.LVL279-.Ltext0
 17001 06bf 0300     		.2byte	0x3
 17002 06c1 09       		.byte	0x9
 17003 06c2 FF       		.byte	0xff
 17004 06c3 9F       		.byte	0x9f
 17005 06c4 B60A0000 		.4byte	.LVL279-.Ltext0
 17006 06c8 B80A0000 		.4byte	.LFE365-.Ltext0
 17007 06cc 0100     		.2byte	0x1
 17008 06ce 50       		.byte	0x50
 17009 06cf 00000000 		.4byte	0
 17010 06d3 00000000 		.4byte	0
ARM GAS  C:\Users\RAKIBU~1\AppData\Local\Temp\ccQ3AEax.s 			page 301


 17011              	.LLST65:
 17012 06d7 640A0000 		.4byte	.LVL270-.Ltext0
 17013 06db 760A0000 		.4byte	.LVL271-.Ltext0
 17014 06df 0200     		.2byte	0x2
 17015 06e1 30       		.byte	0x30
 17016 06e2 9F       		.byte	0x9f
 17017 06e3 760A0000 		.4byte	.LVL271-.Ltext0
 17018 06e7 7C0A0000 		.4byte	.LFE364-.Ltext0
 17019 06eb 0100     		.2byte	0x1
 17020 06ed 50       		.byte	0x50
 17021 06ee 00000000 		.4byte	0
 17022 06f2 00000000 		.4byte	0
 17023              	.LLST64:
 17024 06f6 440A0000 		.4byte	.LVL268-.Ltext0
 17025 06fa 560A0000 		.4byte	.LVL269-.Ltext0
 17026 06fe 0200     		.2byte	0x2
 17027 0700 30       		.byte	0x30
 17028 0701 9F       		.byte	0x9f
 17029 0702 560A0000 		.4byte	.LVL269-.Ltext0
 17030 0706 5C0A0000 		.4byte	.LFE363-.Ltext0
 17031 070a 0100     		.2byte	0x1
 17032 070c 50       		.byte	0x50
 17033 070d 00000000 		.4byte	0
 17034 0711 00000000 		.4byte	0
 17035              	.LLST62:
 17036 0715 100A0000 		.4byte	.LVL263-.Ltext0
 17037 0719 260A0000 		.4byte	.LVL264-.Ltext0
 17038 071d 0100     		.2byte	0x1
 17039 071f 50       		.byte	0x50
 17040 0720 260A0000 		.4byte	.LVL264-.Ltext0
 17041 0724 290A0000 		.4byte	.LVL265-1-.Ltext0
 17042 0728 0100     		.2byte	0x1
 17043 072a 52       		.byte	0x52
 17044 072b 290A0000 		.4byte	.LVL265-1-.Ltext0
 17045 072f 300A0000 		.4byte	.LVL266-.Ltext0
 17046 0733 0400     		.2byte	0x4
 17047 0735 F3       		.byte	0xf3
 17048 0736 01       		.uleb128 0x1
 17049 0737 50       		.byte	0x50
 17050 0738 9F       		.byte	0x9f
 17051 0739 300A0000 		.4byte	.LVL266-.Ltext0
 17052 073d 340A0000 		.4byte	.LVL267-.Ltext0
 17053 0741 0100     		.2byte	0x1
 17054 0743 50       		.byte	0x50
 17055 0744 340A0000 		.4byte	.LVL267-.Ltext0
 17056 0748 360A0000 		.4byte	.LFE362-.Ltext0
 17057 074c 0400     		.2byte	0x4
 17058 074e F3       		.byte	0xf3
 17059 074f 01       		.uleb128 0x1
 17060 0750 50       		.byte	0x50
 17061 0751 9F       		.byte	0x9f
 17062 0752 00000000 		.4byte	0
 17063 0756 00000000 		.4byte	0
 17064              	.LLST63:
 17065 075a 100A0000 		.4byte	.LVL263-.Ltext0
 17066 075e 2A0A0000 		.4byte	.LVL265-.Ltext0
 17067 0762 0300     		.2byte	0x3
ARM GAS  C:\Users\RAKIBU~1\AppData\Local\Temp\ccQ3AEax.s 			page 302


 17068 0764 09       		.byte	0x9
 17069 0765 F4       		.byte	0xf4
 17070 0766 9F       		.byte	0x9f
 17071 0767 2A0A0000 		.4byte	.LVL265-.Ltext0
 17072 076b 300A0000 		.4byte	.LVL266-.Ltext0
 17073 076f 0100     		.2byte	0x1
 17074 0771 50       		.byte	0x50
 17075 0772 300A0000 		.4byte	.LVL266-.Ltext0
 17076 0776 340A0000 		.4byte	.LVL267-.Ltext0
 17077 077a 0300     		.2byte	0x3
 17078 077c 09       		.byte	0x9
 17079 077d F4       		.byte	0xf4
 17080 077e 9F       		.byte	0x9f
 17081 077f 340A0000 		.4byte	.LVL267-.Ltext0
 17082 0783 360A0000 		.4byte	.LFE362-.Ltext0
 17083 0787 0100     		.2byte	0x1
 17084 0789 50       		.byte	0x50
 17085 078a 00000000 		.4byte	0
 17086 078e 00000000 		.4byte	0
 17087              	.LLST60:
 17088 0792 E0090000 		.4byte	.LVL258-.Ltext0
 17089 0796 E9090000 		.4byte	.LVL260-1-.Ltext0
 17090 079a 0100     		.2byte	0x1
 17091 079c 50       		.byte	0x50
 17092 079d E9090000 		.4byte	.LVL260-1-.Ltext0
 17093 07a1 0A0A0000 		.4byte	.LFE361-.Ltext0
 17094 07a5 0100     		.2byte	0x1
 17095 07a7 54       		.byte	0x54
 17096 07a8 00000000 		.4byte	0
 17097 07ac 00000000 		.4byte	0
 17098              	.LLST61:
 17099 07b0 E6090000 		.4byte	.LVL259-.Ltext0
 17100 07b4 000A0000 		.4byte	.LVL261-.Ltext0
 17101 07b8 0300     		.2byte	0x3
 17102 07ba 09       		.byte	0x9
 17103 07bb F4       		.byte	0xf4
 17104 07bc 9F       		.byte	0x9f
 17105 07bd 000A0000 		.4byte	.LVL261-.Ltext0
 17106 07c1 040A0000 		.4byte	.LVL262-.Ltext0
 17107 07c5 0100     		.2byte	0x1
 17108 07c7 50       		.byte	0x50
 17109 07c8 040A0000 		.4byte	.LVL262-.Ltext0
 17110 07cc 0A0A0000 		.4byte	.LFE361-.Ltext0
 17111 07d0 0300     		.2byte	0x3
 17112 07d2 09       		.byte	0x9
 17113 07d3 F4       		.byte	0xf4
 17114 07d4 9F       		.byte	0x9f
 17115 07d5 00000000 		.4byte	0
 17116 07d9 00000000 		.4byte	0
 17117              	.LLST59:
 17118 07dd C4090000 		.4byte	.LVL256-.Ltext0
 17119 07e1 D6090000 		.4byte	.LVL257-.Ltext0
 17120 07e5 0200     		.2byte	0x2
 17121 07e7 30       		.byte	0x30
 17122 07e8 9F       		.byte	0x9f
 17123 07e9 D6090000 		.4byte	.LVL257-.Ltext0
 17124 07ed DC090000 		.4byte	.LFE360-.Ltext0
ARM GAS  C:\Users\RAKIBU~1\AppData\Local\Temp\ccQ3AEax.s 			page 303


 17125 07f1 0100     		.2byte	0x1
 17126 07f3 50       		.byte	0x50
 17127 07f4 00000000 		.4byte	0
 17128 07f8 00000000 		.4byte	0
 17129              	.LLST57:
 17130 07fc 80090000 		.4byte	.LVL251-.Ltext0
 17131 0800 A4090000 		.4byte	.LVL252-.Ltext0
 17132 0804 0100     		.2byte	0x1
 17133 0806 50       		.byte	0x50
 17134 0807 A4090000 		.4byte	.LVL252-.Ltext0
 17135 080b A7090000 		.4byte	.LVL253-1-.Ltext0
 17136 080f 0200     		.2byte	0x2
 17137 0811 72       		.byte	0x72
 17138 0812 00       		.sleb128 0
 17139 0813 A7090000 		.4byte	.LVL253-1-.Ltext0
 17140 0817 AE090000 		.4byte	.LVL254-.Ltext0
 17141 081b 0400     		.2byte	0x4
 17142 081d F3       		.byte	0xf3
 17143 081e 01       		.uleb128 0x1
 17144 081f 50       		.byte	0x50
 17145 0820 9F       		.byte	0x9f
 17146 0821 AE090000 		.4byte	.LVL254-.Ltext0
 17147 0825 B2090000 		.4byte	.LVL255-.Ltext0
 17148 0829 0100     		.2byte	0x1
 17149 082b 50       		.byte	0x50
 17150 082c B2090000 		.4byte	.LVL255-.Ltext0
 17151 0830 B4090000 		.4byte	.LFE359-.Ltext0
 17152 0834 0400     		.2byte	0x4
 17153 0836 F3       		.byte	0xf3
 17154 0837 01       		.uleb128 0x1
 17155 0838 50       		.byte	0x50
 17156 0839 9F       		.byte	0x9f
 17157 083a 00000000 		.4byte	0
 17158 083e 00000000 		.4byte	0
 17159              	.LLST58:
 17160 0842 80090000 		.4byte	.LVL251-.Ltext0
 17161 0846 A8090000 		.4byte	.LVL253-.Ltext0
 17162 084a 0200     		.2byte	0x2
 17163 084c 30       		.byte	0x30
 17164 084d 9F       		.byte	0x9f
 17165 084e A8090000 		.4byte	.LVL253-.Ltext0
 17166 0852 AE090000 		.4byte	.LVL254-.Ltext0
 17167 0856 0100     		.2byte	0x1
 17168 0858 50       		.byte	0x50
 17169 0859 AE090000 		.4byte	.LVL254-.Ltext0
 17170 085d B2090000 		.4byte	.LVL255-.Ltext0
 17171 0861 0200     		.2byte	0x2
 17172 0863 30       		.byte	0x30
 17173 0864 9F       		.byte	0x9f
 17174 0865 B2090000 		.4byte	.LVL255-.Ltext0
 17175 0869 B4090000 		.4byte	.LFE359-.Ltext0
 17176 086d 0100     		.2byte	0x1
 17177 086f 50       		.byte	0x50
 17178 0870 00000000 		.4byte	0
 17179 0874 00000000 		.4byte	0
 17180              	.LLST56:
 17181 0878 70090000 		.4byte	.LVL249-.Ltext0
ARM GAS  C:\Users\RAKIBU~1\AppData\Local\Temp\ccQ3AEax.s 			page 304


 17182 087c 72090000 		.4byte	.LVL250-.Ltext0
 17183 0880 0100     		.2byte	0x1
 17184 0882 50       		.byte	0x50
 17185 0883 72090000 		.4byte	.LVL250-.Ltext0
 17186 0887 74090000 		.4byte	.LFE358-.Ltext0
 17187 088b 0400     		.2byte	0x4
 17188 088d F3       		.byte	0xf3
 17189 088e 01       		.uleb128 0x1
 17190 088f 50       		.byte	0x50
 17191 0890 9F       		.byte	0x9f
 17192 0891 00000000 		.4byte	0
 17193 0895 00000000 		.4byte	0
 17194              	.LLST55:
 17195 0899 60090000 		.4byte	.LVL247-.Ltext0
 17196 089d 62090000 		.4byte	.LVL248-.Ltext0
 17197 08a1 0100     		.2byte	0x1
 17198 08a3 50       		.byte	0x50
 17199 08a4 62090000 		.4byte	.LVL248-.Ltext0
 17200 08a8 64090000 		.4byte	.LFE357-.Ltext0
 17201 08ac 0400     		.2byte	0x4
 17202 08ae F3       		.byte	0xf3
 17203 08af 01       		.uleb128 0x1
 17204 08b0 50       		.byte	0x50
 17205 08b1 9F       		.byte	0x9f
 17206 08b2 00000000 		.4byte	0
 17207 08b6 00000000 		.4byte	0
 17208              	.LLST54:
 17209 08ba 44090000 		.4byte	.LVL245-.Ltext0
 17210 08be 56090000 		.4byte	.LVL246-.Ltext0
 17211 08c2 0200     		.2byte	0x2
 17212 08c4 30       		.byte	0x30
 17213 08c5 9F       		.byte	0x9f
 17214 08c6 56090000 		.4byte	.LVL246-.Ltext0
 17215 08ca 5C090000 		.4byte	.LFE356-.Ltext0
 17216 08ce 0100     		.2byte	0x1
 17217 08d0 50       		.byte	0x50
 17218 08d1 00000000 		.4byte	0
 17219 08d5 00000000 		.4byte	0
 17220              	.LLST52:
 17221 08d9 00090000 		.4byte	.LVL239-.Ltext0
 17222 08dd 10090000 		.4byte	.LVL240-.Ltext0
 17223 08e1 0100     		.2byte	0x1
 17224 08e3 50       		.byte	0x50
 17225 08e4 10090000 		.4byte	.LVL240-.Ltext0
 17226 08e8 2A090000 		.4byte	.LVL242-.Ltext0
 17227 08ec 0400     		.2byte	0x4
 17228 08ee F3       		.byte	0xf3
 17229 08ef 01       		.uleb128 0x1
 17230 08f0 50       		.byte	0x50
 17231 08f1 9F       		.byte	0x9f
 17232 08f2 2A090000 		.4byte	.LVL242-.Ltext0
 17233 08f6 30090000 		.4byte	.LVL243-.Ltext0
 17234 08fa 0100     		.2byte	0x1
 17235 08fc 50       		.byte	0x50
 17236 08fd 30090000 		.4byte	.LVL243-.Ltext0
 17237 0901 33090000 		.4byte	.LVL244-1-.Ltext0
 17238 0905 0200     		.2byte	0x2
ARM GAS  C:\Users\RAKIBU~1\AppData\Local\Temp\ccQ3AEax.s 			page 305


 17239 0907 91       		.byte	0x91
 17240 0908 6C       		.sleb128 -20
 17241 0909 33090000 		.4byte	.LVL244-1-.Ltext0
 17242 090d 3C090000 		.4byte	.LFE355-.Ltext0
 17243 0911 0400     		.2byte	0x4
 17244 0913 F3       		.byte	0xf3
 17245 0914 01       		.uleb128 0x1
 17246 0915 50       		.byte	0x50
 17247 0916 9F       		.byte	0x9f
 17248 0917 00000000 		.4byte	0
 17249 091b 00000000 		.4byte	0
 17250              	.LLST53:
 17251 091f 00090000 		.4byte	.LVL239-.Ltext0
 17252 0923 10090000 		.4byte	.LVL240-.Ltext0
 17253 0927 0100     		.2byte	0x1
 17254 0929 51       		.byte	0x51
 17255 092a 10090000 		.4byte	.LVL240-.Ltext0
 17256 092e 2A090000 		.4byte	.LVL242-.Ltext0
 17257 0932 0400     		.2byte	0x4
 17258 0934 F3       		.byte	0xf3
 17259 0935 01       		.uleb128 0x1
 17260 0936 51       		.byte	0x51
 17261 0937 9F       		.byte	0x9f
 17262 0938 2A090000 		.4byte	.LVL242-.Ltext0
 17263 093c 33090000 		.4byte	.LVL244-1-.Ltext0
 17264 0940 0100     		.2byte	0x1
 17265 0942 51       		.byte	0x51
 17266 0943 33090000 		.4byte	.LVL244-1-.Ltext0
 17267 0947 3C090000 		.4byte	.LFE355-.Ltext0
 17268 094b 0400     		.2byte	0x4
 17269 094d F3       		.byte	0xf3
 17270 094e 01       		.uleb128 0x1
 17271 094f 51       		.byte	0x51
 17272 0950 9F       		.byte	0x9f
 17273 0951 00000000 		.4byte	0
 17274 0955 00000000 		.4byte	0
 17275              	.LLST47:
 17276 0959 80080000 		.4byte	.LVL220-.Ltext0
 17277 095d BC080000 		.4byte	.LVL229-.Ltext0
 17278 0961 0100     		.2byte	0x1
 17279 0963 50       		.byte	0x50
 17280 0964 BC080000 		.4byte	.LVL229-.Ltext0
 17281 0968 BE080000 		.4byte	.LVL230-.Ltext0
 17282 096c 0400     		.2byte	0x4
 17283 096e F3       		.byte	0xf3
 17284 096f 01       		.uleb128 0x1
 17285 0970 50       		.byte	0x50
 17286 0971 9F       		.byte	0x9f
 17287 0972 BE080000 		.4byte	.LVL230-.Ltext0
 17288 0976 D0080000 		.4byte	.LVL233-.Ltext0
 17289 097a 0100     		.2byte	0x1
 17290 097c 50       		.byte	0x50
 17291 097d D0080000 		.4byte	.LVL233-.Ltext0
 17292 0981 D3080000 		.4byte	.LVL234-1-.Ltext0
 17293 0985 0200     		.2byte	0x2
 17294 0987 72       		.byte	0x72
 17295 0988 00       		.sleb128 0
ARM GAS  C:\Users\RAKIBU~1\AppData\Local\Temp\ccQ3AEax.s 			page 306


 17296 0989 D3080000 		.4byte	.LVL234-1-.Ltext0
 17297 098d E0080000 		.4byte	.LVL236-.Ltext0
 17298 0991 0400     		.2byte	0x4
 17299 0993 F3       		.byte	0xf3
 17300 0994 01       		.uleb128 0x1
 17301 0995 50       		.byte	0x50
 17302 0996 9F       		.byte	0x9f
 17303 0997 E0080000 		.4byte	.LVL236-.Ltext0
 17304 099b E4080000 		.4byte	.LVL237-.Ltext0
 17305 099f 0100     		.2byte	0x1
 17306 09a1 50       		.byte	0x50
 17307 09a2 E4080000 		.4byte	.LVL237-.Ltext0
 17308 09a6 EA080000 		.4byte	.LVL238-.Ltext0
 17309 09aa 0400     		.2byte	0x4
 17310 09ac F3       		.byte	0xf3
 17311 09ad 01       		.uleb128 0x1
 17312 09ae 50       		.byte	0x50
 17313 09af 9F       		.byte	0x9f
 17314 09b0 EA080000 		.4byte	.LVL238-.Ltext0
 17315 09b4 00090000 		.4byte	.LFE354-.Ltext0
 17316 09b8 0100     		.2byte	0x1
 17317 09ba 50       		.byte	0x50
 17318 09bb 00000000 		.4byte	0
 17319 09bf 00000000 		.4byte	0
 17320              	.LLST48:
 17321 09c3 80080000 		.4byte	.LVL220-.Ltext0
 17322 09c7 CE080000 		.4byte	.LVL232-.Ltext0
 17323 09cb 0100     		.2byte	0x1
 17324 09cd 51       		.byte	0x51
 17325 09ce CE080000 		.4byte	.LVL232-.Ltext0
 17326 09d2 D3080000 		.4byte	.LVL234-1-.Ltext0
 17327 09d6 0200     		.2byte	0x2
 17328 09d8 7D       		.byte	0x7d
 17329 09d9 00       		.sleb128 0
 17330 09da D3080000 		.4byte	.LVL234-1-.Ltext0
 17331 09de E0080000 		.4byte	.LVL236-.Ltext0
 17332 09e2 0400     		.2byte	0x4
 17333 09e4 F3       		.byte	0xf3
 17334 09e5 01       		.uleb128 0x1
 17335 09e6 51       		.byte	0x51
 17336 09e7 9F       		.byte	0x9f
 17337 09e8 E0080000 		.4byte	.LVL236-.Ltext0
 17338 09ec E4080000 		.4byte	.LVL237-.Ltext0
 17339 09f0 0100     		.2byte	0x1
 17340 09f2 51       		.byte	0x51
 17341 09f3 E4080000 		.4byte	.LVL237-.Ltext0
 17342 09f7 EA080000 		.4byte	.LVL238-.Ltext0
 17343 09fb 0400     		.2byte	0x4
 17344 09fd F3       		.byte	0xf3
 17345 09fe 01       		.uleb128 0x1
 17346 09ff 51       		.byte	0x51
 17347 0a00 9F       		.byte	0x9f
 17348 0a01 EA080000 		.4byte	.LVL238-.Ltext0
 17349 0a05 00090000 		.4byte	.LFE354-.Ltext0
 17350 0a09 0100     		.2byte	0x1
 17351 0a0b 51       		.byte	0x51
 17352 0a0c 00000000 		.4byte	0
ARM GAS  C:\Users\RAKIBU~1\AppData\Local\Temp\ccQ3AEax.s 			page 307


 17353 0a10 00000000 		.4byte	0
 17354              	.LLST49:
 17355 0a14 80080000 		.4byte	.LVL220-.Ltext0
 17356 0a18 BA080000 		.4byte	.LVL228-.Ltext0
 17357 0a1c 0300     		.2byte	0x3
 17358 0a1e 09       		.byte	0x9
 17359 0a1f F1       		.byte	0xf1
 17360 0a20 9F       		.byte	0x9f
 17361 0a21 BA080000 		.4byte	.LVL228-.Ltext0
 17362 0a25 BE080000 		.4byte	.LVL230-.Ltext0
 17363 0a29 0100     		.2byte	0x1
 17364 0a2b 53       		.byte	0x53
 17365 0a2c BE080000 		.4byte	.LVL230-.Ltext0
 17366 0a30 D4080000 		.4byte	.LVL234-.Ltext0
 17367 0a34 0300     		.2byte	0x3
 17368 0a36 09       		.byte	0x9
 17369 0a37 F1       		.byte	0xf1
 17370 0a38 9F       		.byte	0x9f
 17371 0a39 D4080000 		.4byte	.LVL234-.Ltext0
 17372 0a3d DE080000 		.4byte	.LVL235-.Ltext0
 17373 0a41 0100     		.2byte	0x1
 17374 0a43 50       		.byte	0x50
 17375 0a44 DE080000 		.4byte	.LVL235-.Ltext0
 17376 0a48 E0080000 		.4byte	.LVL236-.Ltext0
 17377 0a4c 0100     		.2byte	0x1
 17378 0a4e 53       		.byte	0x53
 17379 0a4f E0080000 		.4byte	.LVL236-.Ltext0
 17380 0a53 E4080000 		.4byte	.LVL237-.Ltext0
 17381 0a57 0300     		.2byte	0x3
 17382 0a59 09       		.byte	0x9
 17383 0a5a F1       		.byte	0xf1
 17384 0a5b 9F       		.byte	0x9f
 17385 0a5c E4080000 		.4byte	.LVL237-.Ltext0
 17386 0a60 EA080000 		.4byte	.LVL238-.Ltext0
 17387 0a64 0100     		.2byte	0x1
 17388 0a66 53       		.byte	0x53
 17389 0a67 EA080000 		.4byte	.LVL238-.Ltext0
 17390 0a6b 00090000 		.4byte	.LFE354-.Ltext0
 17391 0a6f 0300     		.2byte	0x3
 17392 0a71 09       		.byte	0x9
 17393 0a72 F1       		.byte	0xf1
 17394 0a73 9F       		.byte	0x9f
 17395 0a74 00000000 		.4byte	0
 17396 0a78 00000000 		.4byte	0
 17397              	.LLST50:
 17398 0a7c 94080000 		.4byte	.LVL221-.Ltext0
 17399 0a80 A0080000 		.4byte	.LVL223-.Ltext0
 17400 0a84 0200     		.2byte	0x2
 17401 0a86 30       		.byte	0x30
 17402 0a87 9F       		.byte	0x9f
 17403 0a88 A0080000 		.4byte	.LVL223-.Ltext0
 17404 0a8c B6080000 		.4byte	.LVL227-.Ltext0
 17405 0a90 0100     		.2byte	0x1
 17406 0a92 54       		.byte	0x54
 17407 0a93 B6080000 		.4byte	.LVL227-.Ltext0
 17408 0a97 BA080000 		.4byte	.LVL228-.Ltext0
 17409 0a9b 0200     		.2byte	0x2
ARM GAS  C:\Users\RAKIBU~1\AppData\Local\Temp\ccQ3AEax.s 			page 308


 17410 0a9d 30       		.byte	0x30
 17411 0a9e 9F       		.byte	0x9f
 17412 0a9f BE080000 		.4byte	.LVL230-.Ltext0
 17413 0aa3 EA080000 		.4byte	.LVL238-.Ltext0
 17414 0aa7 0100     		.2byte	0x1
 17415 0aa9 54       		.byte	0x54
 17416 0aaa 00000000 		.4byte	0
 17417 0aae 00000000 		.4byte	0
 17418              	.LLST51:
 17419 0ab2 96080000 		.4byte	.LVL222-.Ltext0
 17420 0ab6 B2080000 		.4byte	.LVL225-.Ltext0
 17421 0aba 0100     		.2byte	0x1
 17422 0abc 52       		.byte	0x52
 17423 0abd B4080000 		.4byte	.LVL226-.Ltext0
 17424 0ac1 BA080000 		.4byte	.LVL228-.Ltext0
 17425 0ac5 0100     		.2byte	0x1
 17426 0ac7 52       		.byte	0x52
 17427 0ac8 BE080000 		.4byte	.LVL230-.Ltext0
 17428 0acc C0080000 		.4byte	.LVL231-.Ltext0
 17429 0ad0 0100     		.2byte	0x1
 17430 0ad2 52       		.byte	0x52
 17431 0ad3 E0080000 		.4byte	.LVL236-.Ltext0
 17432 0ad7 E4080000 		.4byte	.LVL237-.Ltext0
 17433 0adb 0100     		.2byte	0x1
 17434 0add 52       		.byte	0x52
 17435 0ade 00000000 		.4byte	0
 17436 0ae2 00000000 		.4byte	0
 17437              	.LLST44:
 17438 0ae6 20080000 		.4byte	.LVL212-.Ltext0
 17439 0aea 4E080000 		.4byte	.LVL214-.Ltext0
 17440 0aee 0100     		.2byte	0x1
 17441 0af0 50       		.byte	0x50
 17442 0af1 4E080000 		.4byte	.LVL214-.Ltext0
 17443 0af5 51080000 		.4byte	.LVL215-1-.Ltext0
 17444 0af9 0200     		.2byte	0x2
 17445 0afb 72       		.byte	0x72
 17446 0afc 00       		.sleb128 0
 17447 0afd 51080000 		.4byte	.LVL215-1-.Ltext0
 17448 0b01 64080000 		.4byte	.LVL217-.Ltext0
 17449 0b05 0400     		.2byte	0x4
 17450 0b07 F3       		.byte	0xf3
 17451 0b08 01       		.uleb128 0x1
 17452 0b09 50       		.byte	0x50
 17453 0b0a 9F       		.byte	0x9f
 17454 0b0b 64080000 		.4byte	.LVL217-.Ltext0
 17455 0b0f 70080000 		.4byte	.LVL219-.Ltext0
 17456 0b13 0100     		.2byte	0x1
 17457 0b15 50       		.byte	0x50
 17458 0b16 70080000 		.4byte	.LVL219-.Ltext0
 17459 0b1a 78080000 		.4byte	.LFE353-.Ltext0
 17460 0b1e 0400     		.2byte	0x4
 17461 0b20 F3       		.byte	0xf3
 17462 0b21 01       		.uleb128 0x1
 17463 0b22 50       		.byte	0x50
 17464 0b23 9F       		.byte	0x9f
 17465 0b24 00000000 		.4byte	0
 17466 0b28 00000000 		.4byte	0
ARM GAS  C:\Users\RAKIBU~1\AppData\Local\Temp\ccQ3AEax.s 			page 309


 17467              	.LLST45:
 17468 0b2c 20080000 		.4byte	.LVL212-.Ltext0
 17469 0b30 4C080000 		.4byte	.LVL213-.Ltext0
 17470 0b34 0100     		.2byte	0x1
 17471 0b36 51       		.byte	0x51
 17472 0b37 4C080000 		.4byte	.LVL213-.Ltext0
 17473 0b3b 51080000 		.4byte	.LVL215-1-.Ltext0
 17474 0b3f 0200     		.2byte	0x2
 17475 0b41 91       		.byte	0x91
 17476 0b42 76       		.sleb128 -10
 17477 0b43 51080000 		.4byte	.LVL215-1-.Ltext0
 17478 0b47 64080000 		.4byte	.LVL217-.Ltext0
 17479 0b4b 0400     		.2byte	0x4
 17480 0b4d F3       		.byte	0xf3
 17481 0b4e 01       		.uleb128 0x1
 17482 0b4f 51       		.byte	0x51
 17483 0b50 9F       		.byte	0x9f
 17484 0b51 64080000 		.4byte	.LVL217-.Ltext0
 17485 0b55 78080000 		.4byte	.LFE353-.Ltext0
 17486 0b59 0100     		.2byte	0x1
 17487 0b5b 51       		.byte	0x51
 17488 0b5c 00000000 		.4byte	0
 17489 0b60 00000000 		.4byte	0
 17490              	.LLST46:
 17491 0b64 20080000 		.4byte	.LVL212-.Ltext0
 17492 0b68 52080000 		.4byte	.LVL215-.Ltext0
 17493 0b6c 0200     		.2byte	0x2
 17494 0b6e 30       		.byte	0x30
 17495 0b6f 9F       		.byte	0x9f
 17496 0b70 52080000 		.4byte	.LVL215-.Ltext0
 17497 0b74 5C080000 		.4byte	.LVL216-.Ltext0
 17498 0b78 0100     		.2byte	0x1
 17499 0b7a 50       		.byte	0x50
 17500 0b7b 5C080000 		.4byte	.LVL216-.Ltext0
 17501 0b7f 64080000 		.4byte	.LVL217-.Ltext0
 17502 0b83 0100     		.2byte	0x1
 17503 0b85 53       		.byte	0x53
 17504 0b86 64080000 		.4byte	.LVL217-.Ltext0
 17505 0b8a 6E080000 		.4byte	.LVL218-.Ltext0
 17506 0b8e 0200     		.2byte	0x2
 17507 0b90 30       		.byte	0x30
 17508 0b91 9F       		.byte	0x9f
 17509 0b92 6E080000 		.4byte	.LVL218-.Ltext0
 17510 0b96 78080000 		.4byte	.LFE353-.Ltext0
 17511 0b9a 0100     		.2byte	0x1
 17512 0b9c 53       		.byte	0x53
 17513 0b9d 00000000 		.4byte	0
 17514 0ba1 00000000 		.4byte	0
 17515              	.LLST42:
 17516 0ba5 C0070000 		.4byte	.LVL205-.Ltext0
 17517 0ba9 EA070000 		.4byte	.LVL206-.Ltext0
 17518 0bad 0100     		.2byte	0x1
 17519 0baf 50       		.byte	0x50
 17520 0bb0 EA070000 		.4byte	.LVL206-.Ltext0
 17521 0bb4 ED070000 		.4byte	.LVL207-1-.Ltext0
 17522 0bb8 0200     		.2byte	0x2
 17523 0bba 72       		.byte	0x72
ARM GAS  C:\Users\RAKIBU~1\AppData\Local\Temp\ccQ3AEax.s 			page 310


 17524 0bbb 00       		.sleb128 0
 17525 0bbc ED070000 		.4byte	.LVL207-1-.Ltext0
 17526 0bc0 00080000 		.4byte	.LVL209-.Ltext0
 17527 0bc4 0400     		.2byte	0x4
 17528 0bc6 F3       		.byte	0xf3
 17529 0bc7 01       		.uleb128 0x1
 17530 0bc8 50       		.byte	0x50
 17531 0bc9 9F       		.byte	0x9f
 17532 0bca 00080000 		.4byte	.LVL209-.Ltext0
 17533 0bce 0C080000 		.4byte	.LVL211-.Ltext0
 17534 0bd2 0100     		.2byte	0x1
 17535 0bd4 50       		.byte	0x50
 17536 0bd5 0C080000 		.4byte	.LVL211-.Ltext0
 17537 0bd9 14080000 		.4byte	.LFE352-.Ltext0
 17538 0bdd 0400     		.2byte	0x4
 17539 0bdf F3       		.byte	0xf3
 17540 0be0 01       		.uleb128 0x1
 17541 0be1 50       		.byte	0x50
 17542 0be2 9F       		.byte	0x9f
 17543 0be3 00000000 		.4byte	0
 17544 0be7 00000000 		.4byte	0
 17545              	.LLST43:
 17546 0beb C0070000 		.4byte	.LVL205-.Ltext0
 17547 0bef EE070000 		.4byte	.LVL207-.Ltext0
 17548 0bf3 0200     		.2byte	0x2
 17549 0bf5 30       		.byte	0x30
 17550 0bf6 9F       		.byte	0x9f
 17551 0bf7 EE070000 		.4byte	.LVL207-.Ltext0
 17552 0bfb F8070000 		.4byte	.LVL208-.Ltext0
 17553 0bff 0100     		.2byte	0x1
 17554 0c01 50       		.byte	0x50
 17555 0c02 F8070000 		.4byte	.LVL208-.Ltext0
 17556 0c06 00080000 		.4byte	.LVL209-.Ltext0
 17557 0c0a 0100     		.2byte	0x1
 17558 0c0c 53       		.byte	0x53
 17559 0c0d 00080000 		.4byte	.LVL209-.Ltext0
 17560 0c11 0A080000 		.4byte	.LVL210-.Ltext0
 17561 0c15 0200     		.2byte	0x2
 17562 0c17 30       		.byte	0x30
 17563 0c18 9F       		.byte	0x9f
 17564 0c19 0A080000 		.4byte	.LVL210-.Ltext0
 17565 0c1d 14080000 		.4byte	.LFE352-.Ltext0
 17566 0c21 0100     		.2byte	0x1
 17567 0c23 53       		.byte	0x53
 17568 0c24 00000000 		.4byte	0
 17569 0c28 00000000 		.4byte	0
 17570              	.LLST40:
 17571 0c2c 90070000 		.4byte	.LVL201-.Ltext0
 17572 0c30 A8070000 		.4byte	.LVL203-.Ltext0
 17573 0c34 0100     		.2byte	0x1
 17574 0c36 50       		.byte	0x50
 17575 0c37 A8070000 		.4byte	.LVL203-.Ltext0
 17576 0c3b AB070000 		.4byte	.LVL204-1-.Ltext0
 17577 0c3f 0200     		.2byte	0x2
 17578 0c41 72       		.byte	0x72
 17579 0c42 00       		.sleb128 0
 17580 0c43 AB070000 		.4byte	.LVL204-1-.Ltext0
ARM GAS  C:\Users\RAKIBU~1\AppData\Local\Temp\ccQ3AEax.s 			page 311


 17581 0c47 B2070000 		.4byte	.LFE351-.Ltext0
 17582 0c4b 0400     		.2byte	0x4
 17583 0c4d F3       		.byte	0xf3
 17584 0c4e 01       		.uleb128 0x1
 17585 0c4f 50       		.byte	0x50
 17586 0c50 9F       		.byte	0x9f
 17587 0c51 00000000 		.4byte	0
 17588 0c55 00000000 		.4byte	0
 17589              	.LLST41:
 17590 0c59 94070000 		.4byte	.LVL202-.Ltext0
 17591 0c5d AC070000 		.4byte	.LVL204-.Ltext0
 17592 0c61 0300     		.2byte	0x3
 17593 0c63 09       		.byte	0x9
 17594 0c64 F4       		.byte	0xf4
 17595 0c65 9F       		.byte	0x9f
 17596 0c66 AC070000 		.4byte	.LVL204-.Ltext0
 17597 0c6a B2070000 		.4byte	.LFE351-.Ltext0
 17598 0c6e 0100     		.2byte	0x1
 17599 0c70 50       		.byte	0x50
 17600 0c71 00000000 		.4byte	0
 17601 0c75 00000000 		.4byte	0
 17602              	.LLST38:
 17603 0c79 60070000 		.4byte	.LVL196-.Ltext0
 17604 0c7d 69070000 		.4byte	.LVL198-1-.Ltext0
 17605 0c81 0100     		.2byte	0x1
 17606 0c83 50       		.byte	0x50
 17607 0c84 69070000 		.4byte	.LVL198-1-.Ltext0
 17608 0c88 8A070000 		.4byte	.LFE350-.Ltext0
 17609 0c8c 0100     		.2byte	0x1
 17610 0c8e 54       		.byte	0x54
 17611 0c8f 00000000 		.4byte	0
 17612 0c93 00000000 		.4byte	0
 17613              	.LLST39:
 17614 0c97 66070000 		.4byte	.LVL197-.Ltext0
 17615 0c9b 80070000 		.4byte	.LVL199-.Ltext0
 17616 0c9f 0300     		.2byte	0x3
 17617 0ca1 09       		.byte	0x9
 17618 0ca2 F4       		.byte	0xf4
 17619 0ca3 9F       		.byte	0x9f
 17620 0ca4 80070000 		.4byte	.LVL199-.Ltext0
 17621 0ca8 84070000 		.4byte	.LVL200-.Ltext0
 17622 0cac 0100     		.2byte	0x1
 17623 0cae 50       		.byte	0x50
 17624 0caf 84070000 		.4byte	.LVL200-.Ltext0
 17625 0cb3 8A070000 		.4byte	.LFE350-.Ltext0
 17626 0cb7 0300     		.2byte	0x3
 17627 0cb9 09       		.byte	0x9
 17628 0cba F4       		.byte	0xf4
 17629 0cbb 9F       		.byte	0x9f
 17630 0cbc 00000000 		.4byte	0
 17631 0cc0 00000000 		.4byte	0
 17632              	.LLST36:
 17633 0cc4 20070000 		.4byte	.LVL189-.Ltext0
 17634 0cc8 3E070000 		.4byte	.LVL190-.Ltext0
 17635 0ccc 0100     		.2byte	0x1
 17636 0cce 50       		.byte	0x50
 17637 0ccf 3E070000 		.4byte	.LVL190-.Ltext0
ARM GAS  C:\Users\RAKIBU~1\AppData\Local\Temp\ccQ3AEax.s 			page 312


 17638 0cd3 41070000 		.4byte	.LVL191-1-.Ltext0
 17639 0cd7 0100     		.2byte	0x1
 17640 0cd9 52       		.byte	0x52
 17641 0cda 41070000 		.4byte	.LVL191-1-.Ltext0
 17642 0cde 48070000 		.4byte	.LVL192-.Ltext0
 17643 0ce2 0400     		.2byte	0x4
 17644 0ce4 F3       		.byte	0xf3
 17645 0ce5 01       		.uleb128 0x1
 17646 0ce6 50       		.byte	0x50
 17647 0ce7 9F       		.byte	0x9f
 17648 0ce8 48070000 		.4byte	.LVL192-.Ltext0
 17649 0cec 4C070000 		.4byte	.LVL193-.Ltext0
 17650 0cf0 0100     		.2byte	0x1
 17651 0cf2 50       		.byte	0x50
 17652 0cf3 4C070000 		.4byte	.LVL193-.Ltext0
 17653 0cf7 4E070000 		.4byte	.LVL194-.Ltext0
 17654 0cfb 0400     		.2byte	0x4
 17655 0cfd F3       		.byte	0xf3
 17656 0cfe 01       		.uleb128 0x1
 17657 0cff 50       		.byte	0x50
 17658 0d00 9F       		.byte	0x9f
 17659 0d01 4E070000 		.4byte	.LVL194-.Ltext0
 17660 0d05 52070000 		.4byte	.LVL195-.Ltext0
 17661 0d09 0100     		.2byte	0x1
 17662 0d0b 50       		.byte	0x50
 17663 0d0c 52070000 		.4byte	.LVL195-.Ltext0
 17664 0d10 54070000 		.4byte	.LFE349-.Ltext0
 17665 0d14 0100     		.2byte	0x1
 17666 0d16 52       		.byte	0x52
 17667 0d17 00000000 		.4byte	0
 17668 0d1b 00000000 		.4byte	0
 17669              	.LLST37:
 17670 0d1f 20070000 		.4byte	.LVL189-.Ltext0
 17671 0d23 42070000 		.4byte	.LVL191-.Ltext0
 17672 0d27 0300     		.2byte	0x3
 17673 0d29 09       		.byte	0x9
 17674 0d2a F4       		.byte	0xf4
 17675 0d2b 9F       		.byte	0x9f
 17676 0d2c 42070000 		.4byte	.LVL191-.Ltext0
 17677 0d30 48070000 		.4byte	.LVL192-.Ltext0
 17678 0d34 0100     		.2byte	0x1
 17679 0d36 50       		.byte	0x50
 17680 0d37 48070000 		.4byte	.LVL192-.Ltext0
 17681 0d3b 52070000 		.4byte	.LVL195-.Ltext0
 17682 0d3f 0300     		.2byte	0x3
 17683 0d41 09       		.byte	0x9
 17684 0d42 F4       		.byte	0xf4
 17685 0d43 9F       		.byte	0x9f
 17686 0d44 52070000 		.4byte	.LVL195-.Ltext0
 17687 0d48 54070000 		.4byte	.LFE349-.Ltext0
 17688 0d4c 0100     		.2byte	0x1
 17689 0d4e 50       		.byte	0x50
 17690 0d4f 00000000 		.4byte	0
 17691 0d53 00000000 		.4byte	0
 17692              	.LLST35:
 17693 0d57 00070000 		.4byte	.LVL186-.Ltext0
 17694 0d5b 14070000 		.4byte	.LVL187-.Ltext0
ARM GAS  C:\Users\RAKIBU~1\AppData\Local\Temp\ccQ3AEax.s 			page 313


 17695 0d5f 0100     		.2byte	0x1
 17696 0d61 50       		.byte	0x50
 17697 0d62 14070000 		.4byte	.LVL187-.Ltext0
 17698 0d66 17070000 		.4byte	.LVL188-1-.Ltext0
 17699 0d6a 0100     		.2byte	0x1
 17700 0d6c 52       		.byte	0x52
 17701 0d6d 17070000 		.4byte	.LVL188-1-.Ltext0
 17702 0d71 1E070000 		.4byte	.LFE348-.Ltext0
 17703 0d75 0400     		.2byte	0x4
 17704 0d77 F3       		.byte	0xf3
 17705 0d78 01       		.uleb128 0x1
 17706 0d79 50       		.byte	0x50
 17707 0d7a 9F       		.byte	0x9f
 17708 0d7b 00000000 		.4byte	0
 17709 0d7f 00000000 		.4byte	0
 17710              	.LLST33:
 17711 0d83 D0060000 		.4byte	.LVL181-.Ltext0
 17712 0d87 E4060000 		.4byte	.LVL183-.Ltext0
 17713 0d8b 0100     		.2byte	0x1
 17714 0d8d 50       		.byte	0x50
 17715 0d8e E4060000 		.4byte	.LVL183-.Ltext0
 17716 0d92 EE060000 		.4byte	.LVL185-.Ltext0
 17717 0d96 0400     		.2byte	0x4
 17718 0d98 F3       		.byte	0xf3
 17719 0d99 01       		.uleb128 0x1
 17720 0d9a 50       		.byte	0x50
 17721 0d9b 9F       		.byte	0x9f
 17722 0d9c EE060000 		.4byte	.LVL185-.Ltext0
 17723 0da0 F2060000 		.4byte	.LFE347-.Ltext0
 17724 0da4 0100     		.2byte	0x1
 17725 0da6 50       		.byte	0x50
 17726 0da7 00000000 		.4byte	0
 17727 0dab 00000000 		.4byte	0
 17728              	.LLST34:
 17729 0daf D8060000 		.4byte	.LVL182-.Ltext0
 17730 0db3 E7060000 		.4byte	.LVL184-1-.Ltext0
 17731 0db7 0100     		.2byte	0x1
 17732 0db9 51       		.byte	0x51
 17733 0dba 00000000 		.4byte	0
 17734 0dbe 00000000 		.4byte	0
 17735              	.LLST32:
 17736 0dc2 C0060000 		.4byte	.LVL179-.Ltext0
 17737 0dc6 C2060000 		.4byte	.LVL180-.Ltext0
 17738 0dca 0100     		.2byte	0x1
 17739 0dcc 50       		.byte	0x50
 17740 0dcd C2060000 		.4byte	.LVL180-.Ltext0
 17741 0dd1 C4060000 		.4byte	.LFE346-.Ltext0
 17742 0dd5 0400     		.2byte	0x4
 17743 0dd7 F3       		.byte	0xf3
 17744 0dd8 01       		.uleb128 0x1
 17745 0dd9 50       		.byte	0x50
 17746 0dda 9F       		.byte	0x9f
 17747 0ddb 00000000 		.4byte	0
 17748 0ddf 00000000 		.4byte	0
 17749              	.LLST31:
 17750 0de3 90060000 		.4byte	.LVL176-.Ltext0
 17751 0de7 A4060000 		.4byte	.LVL177-.Ltext0
ARM GAS  C:\Users\RAKIBU~1\AppData\Local\Temp\ccQ3AEax.s 			page 314


 17752 0deb 0100     		.2byte	0x1
 17753 0ded 50       		.byte	0x50
 17754 0dee A4060000 		.4byte	.LVL177-.Ltext0
 17755 0df2 A7060000 		.4byte	.LVL178-1-.Ltext0
 17756 0df6 0100     		.2byte	0x1
 17757 0df8 52       		.byte	0x52
 17758 0df9 A7060000 		.4byte	.LVL178-1-.Ltext0
 17759 0dfd AE060000 		.4byte	.LFE344-.Ltext0
 17760 0e01 0400     		.2byte	0x4
 17761 0e03 F3       		.byte	0xf3
 17762 0e04 01       		.uleb128 0x1
 17763 0e05 50       		.byte	0x50
 17764 0e06 9F       		.byte	0x9f
 17765 0e07 00000000 		.4byte	0
 17766 0e0b 00000000 		.4byte	0
 17767              	.LLST30:
 17768 0e0f 60060000 		.4byte	.LVL172-.Ltext0
 17769 0e13 6A060000 		.4byte	.LVL173-.Ltext0
 17770 0e17 0100     		.2byte	0x1
 17771 0e19 50       		.byte	0x50
 17772 0e1a 6A060000 		.4byte	.LVL173-.Ltext0
 17773 0e1e 6D060000 		.4byte	.LVL174-1-.Ltext0
 17774 0e22 0100     		.2byte	0x1
 17775 0e24 51       		.byte	0x51
 17776 0e25 6D060000 		.4byte	.LVL174-1-.Ltext0
 17777 0e29 88060000 		.4byte	.LFE343-.Ltext0
 17778 0e2d 0400     		.2byte	0x4
 17779 0e2f F3       		.byte	0xf3
 17780 0e30 01       		.uleb128 0x1
 17781 0e31 50       		.byte	0x50
 17782 0e32 9F       		.byte	0x9f
 17783 0e33 00000000 		.4byte	0
 17784 0e37 00000000 		.4byte	0
 17785              	.LLST14:
 17786 0e3b B0040000 		.4byte	.LVL141-.Ltext0
 17787 0e3f D0040000 		.4byte	.LVL143-.Ltext0
 17788 0e43 0100     		.2byte	0x1
 17789 0e45 50       		.byte	0x50
 17790 0e46 D0040000 		.4byte	.LVL143-.Ltext0
 17791 0e4a 3E050000 		.4byte	.LVL148-.Ltext0
 17792 0e4e 0100     		.2byte	0x1
 17793 0e50 58       		.byte	0x58
 17794 0e51 3E050000 		.4byte	.LVL148-.Ltext0
 17795 0e55 40050000 		.4byte	.LVL149-.Ltext0
 17796 0e59 0100     		.2byte	0x1
 17797 0e5b 50       		.byte	0x50
 17798 0e5c 40050000 		.4byte	.LVL149-.Ltext0
 17799 0e60 D8050000 		.4byte	.LVL162-.Ltext0
 17800 0e64 0100     		.2byte	0x1
 17801 0e66 58       		.byte	0x58
 17802 0e67 D8050000 		.4byte	.LVL162-.Ltext0
 17803 0e6b DC050000 		.4byte	.LVL163-.Ltext0
 17804 0e6f 0100     		.2byte	0x1
 17805 0e71 50       		.byte	0x50
 17806 0e72 DC050000 		.4byte	.LVL163-.Ltext0
 17807 0e76 14060000 		.4byte	.LFE341-.Ltext0
 17808 0e7a 0100     		.2byte	0x1
ARM GAS  C:\Users\RAKIBU~1\AppData\Local\Temp\ccQ3AEax.s 			page 315


 17809 0e7c 58       		.byte	0x58
 17810 0e7d 00000000 		.4byte	0
 17811 0e81 00000000 		.4byte	0
 17812              	.LLST15:
 17813 0e85 B0040000 		.4byte	.LVL141-.Ltext0
 17814 0e89 D0040000 		.4byte	.LVL143-.Ltext0
 17815 0e8d 0100     		.2byte	0x1
 17816 0e8f 51       		.byte	0x51
 17817 0e90 D0040000 		.4byte	.LVL143-.Ltext0
 17818 0e94 3E050000 		.4byte	.LVL148-.Ltext0
 17819 0e98 0400     		.2byte	0x4
 17820 0e9a F3       		.byte	0xf3
 17821 0e9b 01       		.uleb128 0x1
 17822 0e9c 51       		.byte	0x51
 17823 0e9d 9F       		.byte	0x9f
 17824 0e9e 3E050000 		.4byte	.LVL148-.Ltext0
 17825 0ea2 43050000 		.4byte	.LVL150-1-.Ltext0
 17826 0ea6 0100     		.2byte	0x1
 17827 0ea8 51       		.byte	0x51
 17828 0ea9 43050000 		.4byte	.LVL150-1-.Ltext0
 17829 0ead D8050000 		.4byte	.LVL162-.Ltext0
 17830 0eb1 0400     		.2byte	0x4
 17831 0eb3 F3       		.byte	0xf3
 17832 0eb4 01       		.uleb128 0x1
 17833 0eb5 51       		.byte	0x51
 17834 0eb6 9F       		.byte	0x9f
 17835 0eb7 D8050000 		.4byte	.LVL162-.Ltext0
 17836 0ebb DE050000 		.4byte	.LVL164-.Ltext0
 17837 0ebf 0100     		.2byte	0x1
 17838 0ec1 51       		.byte	0x51
 17839 0ec2 DE050000 		.4byte	.LVL164-.Ltext0
 17840 0ec6 14060000 		.4byte	.LFE341-.Ltext0
 17841 0eca 0400     		.2byte	0x4
 17842 0ecc F3       		.byte	0xf3
 17843 0ecd 01       		.uleb128 0x1
 17844 0ece 51       		.byte	0x51
 17845 0ecf 9F       		.byte	0x9f
 17846 0ed0 00000000 		.4byte	0
 17847 0ed4 00000000 		.4byte	0
 17848              	.LLST16:
 17849 0ed8 B0040000 		.4byte	.LVL141-.Ltext0
 17850 0edc D0040000 		.4byte	.LVL143-.Ltext0
 17851 0ee0 0100     		.2byte	0x1
 17852 0ee2 52       		.byte	0x52
 17853 0ee3 D0040000 		.4byte	.LVL143-.Ltext0
 17854 0ee7 3E050000 		.4byte	.LVL148-.Ltext0
 17855 0eeb 0400     		.2byte	0x4
 17856 0eed F3       		.byte	0xf3
 17857 0eee 01       		.uleb128 0x1
 17858 0eef 52       		.byte	0x52
 17859 0ef0 9F       		.byte	0x9f
 17860 0ef1 3E050000 		.4byte	.LVL148-.Ltext0
 17861 0ef5 43050000 		.4byte	.LVL150-1-.Ltext0
 17862 0ef9 0100     		.2byte	0x1
 17863 0efb 52       		.byte	0x52
 17864 0efc 43050000 		.4byte	.LVL150-1-.Ltext0
 17865 0f00 D8050000 		.4byte	.LVL162-.Ltext0
ARM GAS  C:\Users\RAKIBU~1\AppData\Local\Temp\ccQ3AEax.s 			page 316


 17866 0f04 0400     		.2byte	0x4
 17867 0f06 F3       		.byte	0xf3
 17868 0f07 01       		.uleb128 0x1
 17869 0f08 52       		.byte	0x52
 17870 0f09 9F       		.byte	0x9f
 17871 0f0a D8050000 		.4byte	.LVL162-.Ltext0
 17872 0f0e DE050000 		.4byte	.LVL164-.Ltext0
 17873 0f12 0100     		.2byte	0x1
 17874 0f14 52       		.byte	0x52
 17875 0f15 DE050000 		.4byte	.LVL164-.Ltext0
 17876 0f19 14060000 		.4byte	.LFE341-.Ltext0
 17877 0f1d 0400     		.2byte	0x4
 17878 0f1f F3       		.byte	0xf3
 17879 0f20 01       		.uleb128 0x1
 17880 0f21 52       		.byte	0x52
 17881 0f22 9F       		.byte	0x9f
 17882 0f23 00000000 		.4byte	0
 17883 0f27 00000000 		.4byte	0
 17884              	.LLST17:
 17885 0f2b B0040000 		.4byte	.LVL141-.Ltext0
 17886 0f2f D0040000 		.4byte	.LVL143-.Ltext0
 17887 0f33 0100     		.2byte	0x1
 17888 0f35 53       		.byte	0x53
 17889 0f36 D0040000 		.4byte	.LVL143-.Ltext0
 17890 0f3a 3E050000 		.4byte	.LVL148-.Ltext0
 17891 0f3e 0100     		.2byte	0x1
 17892 0f40 56       		.byte	0x56
 17893 0f41 3E050000 		.4byte	.LVL148-.Ltext0
 17894 0f45 43050000 		.4byte	.LVL150-1-.Ltext0
 17895 0f49 0100     		.2byte	0x1
 17896 0f4b 53       		.byte	0x53
 17897 0f4c 43050000 		.4byte	.LVL150-1-.Ltext0
 17898 0f50 D8050000 		.4byte	.LVL162-.Ltext0
 17899 0f54 0100     		.2byte	0x1
 17900 0f56 56       		.byte	0x56
 17901 0f57 D8050000 		.4byte	.LVL162-.Ltext0
 17902 0f5b DE050000 		.4byte	.LVL164-.Ltext0
 17903 0f5f 0100     		.2byte	0x1
 17904 0f61 53       		.byte	0x53
 17905 0f62 DE050000 		.4byte	.LVL164-.Ltext0
 17906 0f66 14060000 		.4byte	.LFE341-.Ltext0
 17907 0f6a 0100     		.2byte	0x1
 17908 0f6c 56       		.byte	0x56
 17909 0f6d 00000000 		.4byte	0
 17910 0f71 00000000 		.4byte	0
 17911              	.LLST18:
 17912 0f75 B0040000 		.4byte	.LVL141-.Ltext0
 17913 0f79 3E050000 		.4byte	.LVL148-.Ltext0
 17914 0f7d 0200     		.2byte	0x2
 17915 0f7f 91       		.byte	0x91
 17916 0f80 00       		.sleb128 0
 17917 0f81 3E050000 		.4byte	.LVL148-.Ltext0
 17918 0f85 14060000 		.4byte	.LFE341-.Ltext0
 17919 0f89 0200     		.2byte	0x2
 17920 0f8b 91       		.byte	0x91
 17921 0f8c 00       		.sleb128 0
 17922 0f8d 00000000 		.4byte	0
ARM GAS  C:\Users\RAKIBU~1\AppData\Local\Temp\ccQ3AEax.s 			page 317


 17923 0f91 00000000 		.4byte	0
 17924              	.LLST19:
 17925 0f95 B0040000 		.4byte	.LVL141-.Ltext0
 17926 0f99 3E050000 		.4byte	.LVL148-.Ltext0
 17927 0f9d 0200     		.2byte	0x2
 17928 0f9f 91       		.byte	0x91
 17929 0fa0 04       		.sleb128 4
 17930 0fa1 3E050000 		.4byte	.LVL148-.Ltext0
 17931 0fa5 14060000 		.4byte	.LFE341-.Ltext0
 17932 0fa9 0200     		.2byte	0x2
 17933 0fab 91       		.byte	0x91
 17934 0fac 04       		.sleb128 4
 17935 0fad 00000000 		.4byte	0
 17936 0fb1 00000000 		.4byte	0
 17937              	.LLST20:
 17938 0fb5 C2040000 		.4byte	.LVL142-.Ltext0
 17939 0fb9 38050000 		.4byte	.LVL147-.Ltext0
 17940 0fbd 0200     		.2byte	0x2
 17941 0fbf 30       		.byte	0x30
 17942 0fc0 9F       		.byte	0x9f
 17943 0fc1 38050000 		.4byte	.LVL147-.Ltext0
 17944 0fc5 3E050000 		.4byte	.LVL148-.Ltext0
 17945 0fc9 0100     		.2byte	0x1
 17946 0fcb 50       		.byte	0x50
 17947 0fcc 3E050000 		.4byte	.LVL148-.Ltext0
 17948 0fd0 14060000 		.4byte	.LFE341-.Ltext0
 17949 0fd4 0200     		.2byte	0x2
 17950 0fd6 30       		.byte	0x30
 17951 0fd7 9F       		.byte	0x9f
 17952 0fd8 00000000 		.4byte	0
 17953 0fdc 00000000 		.4byte	0
 17954              	.LLST21:
 17955 0fe0 10050000 		.4byte	.LVL145-.Ltext0
 17956 0fe4 30050000 		.4byte	.LVL146-.Ltext0
 17957 0fe8 0400     		.2byte	0x4
 17958 0fea 91       		.byte	0x91
 17959 0feb FC7E     		.sleb128 -132
 17960 0fed 9F       		.byte	0x9f
 17961 0fee 30050000 		.4byte	.LVL146-.Ltext0
 17962 0ff2 37050000 		.4byte	.LVL147-1-.Ltext0
 17963 0ff6 0100     		.2byte	0x1
 17964 0ff8 52       		.byte	0x52
 17965 0ff9 37050000 		.4byte	.LVL147-1-.Ltext0
 17966 0ffd 38050000 		.4byte	.LVL147-.Ltext0
 17967 1001 0400     		.2byte	0x4
 17968 1003 91       		.byte	0x91
 17969 1004 FC7E     		.sleb128 -132
 17970 1006 9F       		.byte	0x9f
 17971 1007 78050000 		.4byte	.LVL154-.Ltext0
 17972 100b C6050000 		.4byte	.LVL158-.Ltext0
 17973 100f 0400     		.2byte	0x4
 17974 1011 91       		.byte	0x91
 17975 1012 FC7E     		.sleb128 -132
 17976 1014 9F       		.byte	0x9f
 17977 1015 C6050000 		.4byte	.LVL158-.Ltext0
 17978 1019 C9050000 		.4byte	.LVL159-1-.Ltext0
 17979 101d 0100     		.2byte	0x1
ARM GAS  C:\Users\RAKIBU~1\AppData\Local\Temp\ccQ3AEax.s 			page 318


 17980 101f 50       		.byte	0x50
 17981 1020 C9050000 		.4byte	.LVL159-1-.Ltext0
 17982 1024 D2050000 		.4byte	.LVL160-.Ltext0
 17983 1028 0400     		.2byte	0x4
 17984 102a 91       		.byte	0x91
 17985 102b FC7E     		.sleb128 -132
 17986 102d 9F       		.byte	0x9f
 17987 102e D2050000 		.4byte	.LVL160-.Ltext0
 17988 1032 D5050000 		.4byte	.LVL161-1-.Ltext0
 17989 1036 0100     		.2byte	0x1
 17990 1038 50       		.byte	0x50
 17991 1039 D5050000 		.4byte	.LVL161-1-.Ltext0
 17992 103d D8050000 		.4byte	.LVL162-.Ltext0
 17993 1041 0400     		.2byte	0x4
 17994 1043 91       		.byte	0x91
 17995 1044 FC7E     		.sleb128 -132
 17996 1046 9F       		.byte	0x9f
 17997 1047 FC050000 		.4byte	.LVL166-.Ltext0
 17998 104b 14060000 		.4byte	.LFE341-.Ltext0
 17999 104f 0400     		.2byte	0x4
 18000 1051 91       		.byte	0x91
 18001 1052 FC7E     		.sleb128 -132
 18002 1054 9F       		.byte	0x9f
 18003 1055 00000000 		.4byte	0
 18004 1059 00000000 		.4byte	0
 18005              	.LLST22:
 18006 105d 4C050000 		.4byte	.LVL151-.Ltext0
 18007 1061 4E050000 		.4byte	.LVL152-.Ltext0
 18008 1065 0100     		.2byte	0x1
 18009 1067 53       		.byte	0x53
 18010 1068 50050000 		.4byte	.LVL153-.Ltext0
 18011 106c 78050000 		.4byte	.LVL154-.Ltext0
 18012 1070 0100     		.2byte	0x1
 18013 1072 53       		.byte	0x53
 18014 1073 DE050000 		.4byte	.LVL164-.Ltext0
 18015 1077 F0050000 		.4byte	.LVL165-.Ltext0
 18016 107b 0100     		.2byte	0x1
 18017 107d 53       		.byte	0x53
 18018 107e 00000000 		.4byte	0
 18019 1082 00000000 		.4byte	0
 18020              	.LLST23:
 18021 1086 78050000 		.4byte	.LVL154-.Ltext0
 18022 108a B2050000 		.4byte	.LVL156-.Ltext0
 18023 108e 0100     		.2byte	0x1
 18024 1090 56       		.byte	0x56
 18025 1091 FC050000 		.4byte	.LVL166-.Ltext0
 18026 1095 08060000 		.4byte	.LVL167-.Ltext0
 18027 1099 0100     		.2byte	0x1
 18028 109b 56       		.byte	0x56
 18029 109c 00000000 		.4byte	0
 18030 10a0 00000000 		.4byte	0
 18031              	.LLST24:
 18032 10a4 78050000 		.4byte	.LVL154-.Ltext0
 18033 10a8 B2050000 		.4byte	.LVL156-.Ltext0
 18034 10ac 0400     		.2byte	0x4
 18035 10ae 91       		.byte	0x91
 18036 10af FC7E     		.sleb128 -132
ARM GAS  C:\Users\RAKIBU~1\AppData\Local\Temp\ccQ3AEax.s 			page 319


 18037 10b1 9F       		.byte	0x9f
 18038 10b2 FC050000 		.4byte	.LVL166-.Ltext0
 18039 10b6 08060000 		.4byte	.LVL167-.Ltext0
 18040 10ba 0400     		.2byte	0x4
 18041 10bc 91       		.byte	0x91
 18042 10bd FC7E     		.sleb128 -132
 18043 10bf 9F       		.byte	0x9f
 18044 10c0 00000000 		.4byte	0
 18045 10c4 00000000 		.4byte	0
 18046              	.LLST25:
 18047 10c8 B8050000 		.4byte	.LVL157-.Ltext0
 18048 10cc C6050000 		.4byte	.LVL158-.Ltext0
 18049 10d0 0100     		.2byte	0x1
 18050 10d2 50       		.byte	0x50
 18051 10d3 08060000 		.4byte	.LVL167-.Ltext0
 18052 10d7 0C060000 		.4byte	.LVL168-.Ltext0
 18053 10db 0100     		.2byte	0x1
 18054 10dd 50       		.byte	0x50
 18055 10de 00000000 		.4byte	0
 18056 10e2 00000000 		.4byte	0
 18057              	.LLST26:
 18058 10e6 20060000 		.4byte	.LVL169-.Ltext0
 18059 10ea 31060000 		.4byte	.LVL170-1-.Ltext0
 18060 10ee 0100     		.2byte	0x1
 18061 10f0 50       		.byte	0x50
 18062 10f1 31060000 		.4byte	.LVL170-1-.Ltext0
 18063 10f5 36060000 		.4byte	.LFE340-.Ltext0
 18064 10f9 0400     		.2byte	0x4
 18065 10fb F3       		.byte	0xf3
 18066 10fc 01       		.uleb128 0x1
 18067 10fd 50       		.byte	0x50
 18068 10fe 9F       		.byte	0x9f
 18069 10ff 00000000 		.4byte	0
 18070 1103 00000000 		.4byte	0
 18071              	.LLST27:
 18072 1107 20060000 		.4byte	.LVL169-.Ltext0
 18073 110b 31060000 		.4byte	.LVL170-1-.Ltext0
 18074 110f 0100     		.2byte	0x1
 18075 1111 51       		.byte	0x51
 18076 1112 31060000 		.4byte	.LVL170-1-.Ltext0
 18077 1116 36060000 		.4byte	.LFE340-.Ltext0
 18078 111a 0400     		.2byte	0x4
 18079 111c F3       		.byte	0xf3
 18080 111d 01       		.uleb128 0x1
 18081 111e 51       		.byte	0x51
 18082 111f 9F       		.byte	0x9f
 18083 1120 00000000 		.4byte	0
 18084 1124 00000000 		.4byte	0
 18085              	.LLST28:
 18086 1128 20060000 		.4byte	.LVL169-.Ltext0
 18087 112c 31060000 		.4byte	.LVL170-1-.Ltext0
 18088 1130 0100     		.2byte	0x1
 18089 1132 52       		.byte	0x52
 18090 1133 31060000 		.4byte	.LVL170-1-.Ltext0
 18091 1137 36060000 		.4byte	.LFE340-.Ltext0
 18092 113b 0400     		.2byte	0x4
 18093 113d F3       		.byte	0xf3
ARM GAS  C:\Users\RAKIBU~1\AppData\Local\Temp\ccQ3AEax.s 			page 320


 18094 113e 01       		.uleb128 0x1
 18095 113f 52       		.byte	0x52
 18096 1140 9F       		.byte	0x9f
 18097 1141 00000000 		.4byte	0
 18098 1145 00000000 		.4byte	0
 18099              	.LLST29:
 18100 1149 20060000 		.4byte	.LVL169-.Ltext0
 18101 114d 31060000 		.4byte	.LVL170-1-.Ltext0
 18102 1151 0100     		.2byte	0x1
 18103 1153 53       		.byte	0x53
 18104 1154 31060000 		.4byte	.LVL170-1-.Ltext0
 18105 1158 36060000 		.4byte	.LFE340-.Ltext0
 18106 115c 0400     		.2byte	0x4
 18107 115e F3       		.byte	0xf3
 18108 115f 01       		.uleb128 0x1
 18109 1160 53       		.byte	0x53
 18110 1161 9F       		.byte	0x9f
 18111 1162 00000000 		.4byte	0
 18112 1166 00000000 		.4byte	0
 18113              	.LLST13:
 18114 116a 80040000 		.4byte	.LVL138-.Ltext0
 18115 116e 85040000 		.4byte	.LVL139-1-.Ltext0
 18116 1172 0100     		.2byte	0x1
 18117 1174 50       		.byte	0x50
 18118 1175 85040000 		.4byte	.LVL139-1-.Ltext0
 18119 1179 88040000 		.4byte	.LFE338-.Ltext0
 18120 117d 0400     		.2byte	0x4
 18121 117f F3       		.byte	0xf3
 18122 1180 01       		.uleb128 0x1
 18123 1181 50       		.byte	0x50
 18124 1182 9F       		.byte	0x9f
 18125 1183 00000000 		.4byte	0
 18126 1187 00000000 		.4byte	0
 18127              	.LLST12:
 18128 118b 60040000 		.4byte	.LVL134-.Ltext0
 18129 118f 64040000 		.4byte	.LVL135-.Ltext0
 18130 1193 0100     		.2byte	0x1
 18131 1195 50       		.byte	0x50
 18132 1196 64040000 		.4byte	.LVL135-.Ltext0
 18133 119a 72040000 		.4byte	.LFE337-.Ltext0
 18134 119e 0400     		.2byte	0x4
 18135 11a0 F3       		.byte	0xf3
 18136 11a1 01       		.uleb128 0x1
 18137 11a2 50       		.byte	0x50
 18138 11a3 9F       		.byte	0x9f
 18139 11a4 00000000 		.4byte	0
 18140 11a8 00000000 		.4byte	0
 18141              	.LLST10:
 18142 11ac 90030000 		.4byte	.LVL114-.Ltext0
 18143 11b0 AC030000 		.4byte	.LVL116-.Ltext0
 18144 11b4 0100     		.2byte	0x1
 18145 11b6 50       		.byte	0x50
 18146 11b7 AC030000 		.4byte	.LVL116-.Ltext0
 18147 11bb 2A040000 		.4byte	.LVL133-.Ltext0
 18148 11bf 0400     		.2byte	0x4
 18149 11c1 F3       		.byte	0xf3
 18150 11c2 01       		.uleb128 0x1
ARM GAS  C:\Users\RAKIBU~1\AppData\Local\Temp\ccQ3AEax.s 			page 321


 18151 11c3 50       		.byte	0x50
 18152 11c4 9F       		.byte	0x9f
 18153 11c5 2A040000 		.4byte	.LVL133-.Ltext0
 18154 11c9 54040000 		.4byte	.LFE336-.Ltext0
 18155 11cd 0100     		.2byte	0x1
 18156 11cf 50       		.byte	0x50
 18157 11d0 00000000 		.4byte	0
 18158 11d4 00000000 		.4byte	0
 18159              	.LLST11:
 18160 11d8 94030000 		.4byte	.LVL115-.Ltext0
 18161 11dc B0030000 		.4byte	.LVL117-.Ltext0
 18162 11e0 0200     		.2byte	0x2
 18163 11e2 30       		.byte	0x30
 18164 11e3 9F       		.byte	0x9f
 18165 11e4 B0030000 		.4byte	.LVL117-.Ltext0
 18166 11e8 B4030000 		.4byte	.LVL118-.Ltext0
 18167 11ec 0100     		.2byte	0x1
 18168 11ee 50       		.byte	0x50
 18169 11ef B4030000 		.4byte	.LVL118-.Ltext0
 18170 11f3 BA030000 		.4byte	.LVL119-.Ltext0
 18171 11f7 0100     		.2byte	0x1
 18172 11f9 54       		.byte	0x54
 18173 11fa BA030000 		.4byte	.LVL119-.Ltext0
 18174 11fe BD030000 		.4byte	.LVL120-1-.Ltext0
 18175 1202 0100     		.2byte	0x1
 18176 1204 50       		.byte	0x50
 18177 1205 BE030000 		.4byte	.LVL120-.Ltext0
 18178 1209 C4030000 		.4byte	.LVL121-.Ltext0
 18179 120d 0100     		.2byte	0x1
 18180 120f 50       		.byte	0x50
 18181 1210 CA030000 		.4byte	.LVL123-.Ltext0
 18182 1214 CE030000 		.4byte	.LVL124-.Ltext0
 18183 1218 0100     		.2byte	0x1
 18184 121a 50       		.byte	0x50
 18185 121b DA030000 		.4byte	.LVL127-.Ltext0
 18186 121f 2A040000 		.4byte	.LVL133-.Ltext0
 18187 1223 0100     		.2byte	0x1
 18188 1225 54       		.byte	0x54
 18189 1226 2A040000 		.4byte	.LVL133-.Ltext0
 18190 122a 54040000 		.4byte	.LFE336-.Ltext0
 18191 122e 0200     		.2byte	0x2
 18192 1230 30       		.byte	0x30
 18193 1231 9F       		.byte	0x9f
 18194 1232 00000000 		.4byte	0
 18195 1236 00000000 		.4byte	0
 18196              	.LLST8:
 18197 123a 70030000 		.4byte	.LVL110-.Ltext0
 18198 123e 86030000 		.4byte	.LVL112-.Ltext0
 18199 1242 0100     		.2byte	0x1
 18200 1244 50       		.byte	0x50
 18201 1245 86030000 		.4byte	.LVL112-.Ltext0
 18202 1249 89030000 		.4byte	.LVL113-1-.Ltext0
 18203 124d 0200     		.2byte	0x2
 18204 124f 7D       		.byte	0x7d
 18205 1250 00       		.sleb128 0
 18206 1251 89030000 		.4byte	.LVL113-1-.Ltext0
 18207 1255 90030000 		.4byte	.LFE335-.Ltext0
ARM GAS  C:\Users\RAKIBU~1\AppData\Local\Temp\ccQ3AEax.s 			page 322


 18208 1259 0400     		.2byte	0x4
 18209 125b F3       		.byte	0xf3
 18210 125c 01       		.uleb128 0x1
 18211 125d 50       		.byte	0x50
 18212 125e 9F       		.byte	0x9f
 18213 125f 00000000 		.4byte	0
 18214 1263 00000000 		.4byte	0
 18215              	.LLST9:
 18216 1267 74030000 		.4byte	.LVL111-.Ltext0
 18217 126b 8A030000 		.4byte	.LVL113-.Ltext0
 18218 126f 0300     		.2byte	0x3
 18219 1271 09       		.byte	0x9
 18220 1272 F4       		.byte	0xf4
 18221 1273 9F       		.byte	0x9f
 18222 1274 8A030000 		.4byte	.LVL113-.Ltext0
 18223 1278 90030000 		.4byte	.LFE335-.Ltext0
 18224 127c 0100     		.2byte	0x1
 18225 127e 50       		.byte	0x50
 18226 127f 00000000 		.4byte	0
 18227 1283 00000000 		.4byte	0
 18228              	.LLST0:
 18229 1287 00000000 		.4byte	.LVL0-.Ltext0
 18230 128b 28000000 		.4byte	.LVL1-.Ltext0
 18231 128f 0100     		.2byte	0x1
 18232 1291 50       		.byte	0x50
 18233 1292 28000000 		.4byte	.LVL1-.Ltext0
 18234 1296 2A000000 		.4byte	.LVL2-.Ltext0
 18235 129a 0400     		.2byte	0x4
 18236 129c F3       		.byte	0xf3
 18237 129d 01       		.uleb128 0x1
 18238 129e 50       		.byte	0x50
 18239 129f 9F       		.byte	0x9f
 18240 12a0 2A000000 		.4byte	.LVL2-.Ltext0
 18241 12a4 2E000000 		.4byte	.LVL3-.Ltext0
 18242 12a8 0100     		.2byte	0x1
 18243 12aa 50       		.byte	0x50
 18244 12ab 2E000000 		.4byte	.LVL3-.Ltext0
 18245 12af 30000000 		.4byte	.LVL4-.Ltext0
 18246 12b3 0400     		.2byte	0x4
 18247 12b5 F3       		.byte	0xf3
 18248 12b6 01       		.uleb128 0x1
 18249 12b7 50       		.byte	0x50
 18250 12b8 9F       		.byte	0x9f
 18251 12b9 30000000 		.4byte	.LVL4-.Ltext0
 18252 12bd 34000000 		.4byte	.LVL5-.Ltext0
 18253 12c1 0100     		.2byte	0x1
 18254 12c3 50       		.byte	0x50
 18255 12c4 34000000 		.4byte	.LVL5-.Ltext0
 18256 12c8 36000000 		.4byte	.LVL6-.Ltext0
 18257 12cc 0400     		.2byte	0x4
 18258 12ce F3       		.byte	0xf3
 18259 12cf 01       		.uleb128 0x1
 18260 12d0 50       		.byte	0x50
 18261 12d1 9F       		.byte	0x9f
 18262 12d2 36000000 		.4byte	.LVL6-.Ltext0
 18263 12d6 3A000000 		.4byte	.LVL7-.Ltext0
 18264 12da 0100     		.2byte	0x1
ARM GAS  C:\Users\RAKIBU~1\AppData\Local\Temp\ccQ3AEax.s 			page 323


 18265 12dc 50       		.byte	0x50
 18266 12dd 3A000000 		.4byte	.LVL7-.Ltext0
 18267 12e1 3C000000 		.4byte	.LVL8-.Ltext0
 18268 12e5 0400     		.2byte	0x4
 18269 12e7 F3       		.byte	0xf3
 18270 12e8 01       		.uleb128 0x1
 18271 12e9 50       		.byte	0x50
 18272 12ea 9F       		.byte	0x9f
 18273 12eb 3C000000 		.4byte	.LVL8-.Ltext0
 18274 12ef 40000000 		.4byte	.LVL9-.Ltext0
 18275 12f3 0100     		.2byte	0x1
 18276 12f5 50       		.byte	0x50
 18277 12f6 40000000 		.4byte	.LVL9-.Ltext0
 18278 12fa 42000000 		.4byte	.LVL10-.Ltext0
 18279 12fe 0400     		.2byte	0x4
 18280 1300 F3       		.byte	0xf3
 18281 1301 01       		.uleb128 0x1
 18282 1302 50       		.byte	0x50
 18283 1303 9F       		.byte	0x9f
 18284 1304 42000000 		.4byte	.LVL10-.Ltext0
 18285 1308 46000000 		.4byte	.LVL11-.Ltext0
 18286 130c 0100     		.2byte	0x1
 18287 130e 50       		.byte	0x50
 18288 130f 46000000 		.4byte	.LVL11-.Ltext0
 18289 1313 48000000 		.4byte	.LFE334-.Ltext0
 18290 1317 0400     		.2byte	0x4
 18291 1319 F3       		.byte	0xf3
 18292 131a 01       		.uleb128 0x1
 18293 131b 50       		.byte	0x50
 18294 131c 9F       		.byte	0x9f
 18295 131d 00000000 		.4byte	0
 18296 1321 00000000 		.4byte	0
 18297              	.LLST1:
 18298 1325 00000000 		.4byte	.LVL0-.Ltext0
 18299 1329 46000000 		.4byte	.LVL11-.Ltext0
 18300 132d 0200     		.2byte	0x2
 18301 132f 30       		.byte	0x30
 18302 1330 9F       		.byte	0x9f
 18303 1331 46000000 		.4byte	.LVL11-.Ltext0
 18304 1335 48000000 		.4byte	.LFE334-.Ltext0
 18305 1339 0100     		.2byte	0x1
 18306 133b 50       		.byte	0x50
 18307 133c 00000000 		.4byte	0
 18308 1340 00000000 		.4byte	0
 18309              	.LLST5:
 18310 1344 80020000 		.4byte	.LVL92-.Ltext0
 18311 1348 8B020000 		.4byte	.LVL93-1-.Ltext0
 18312 134c 0100     		.2byte	0x1
 18313 134e 50       		.byte	0x50
 18314 134f 8B020000 		.4byte	.LVL93-1-.Ltext0
 18315 1353 D4020000 		.4byte	.LVL95-.Ltext0
 18316 1357 0100     		.2byte	0x1
 18317 1359 54       		.byte	0x54
 18318 135a D4020000 		.4byte	.LVL95-.Ltext0
 18319 135e D6020000 		.4byte	.LVL96-.Ltext0
 18320 1362 0400     		.2byte	0x4
 18321 1364 F3       		.byte	0xf3
ARM GAS  C:\Users\RAKIBU~1\AppData\Local\Temp\ccQ3AEax.s 			page 324


 18322 1365 01       		.uleb128 0x1
 18323 1366 50       		.byte	0x50
 18324 1367 9F       		.byte	0x9f
 18325 1368 D6020000 		.4byte	.LVL96-.Ltext0
 18326 136c F0020000 		.4byte	.LVL97-.Ltext0
 18327 1370 0100     		.2byte	0x1
 18328 1372 54       		.byte	0x54
 18329 1373 F0020000 		.4byte	.LVL97-.Ltext0
 18330 1377 06030000 		.4byte	.LVL100-.Ltext0
 18331 137b 0300     		.2byte	0x3
 18332 137d 74       		.byte	0x74
 18333 137e 5C       		.sleb128 -36
 18334 137f 9F       		.byte	0x9f
 18335 1380 06030000 		.4byte	.LVL100-.Ltext0
 18336 1384 0A030000 		.4byte	.LVL101-.Ltext0
 18337 1388 0100     		.2byte	0x1
 18338 138a 50       		.byte	0x50
 18339 138b 0A030000 		.4byte	.LVL101-.Ltext0
 18340 138f 0C030000 		.4byte	.LVL102-.Ltext0
 18341 1393 0400     		.2byte	0x4
 18342 1395 F3       		.byte	0xf3
 18343 1396 01       		.uleb128 0x1
 18344 1397 50       		.byte	0x50
 18345 1398 9F       		.byte	0x9f
 18346 1399 0C030000 		.4byte	.LVL102-.Ltext0
 18347 139d 34030000 		.4byte	.LVL103-.Ltext0
 18348 13a1 0100     		.2byte	0x1
 18349 13a3 54       		.byte	0x54
 18350 13a4 34030000 		.4byte	.LVL103-.Ltext0
 18351 13a8 40030000 		.4byte	.LVL104-.Ltext0
 18352 13ac 0300     		.2byte	0x3
 18353 13ae 74       		.byte	0x74
 18354 13af 5C       		.sleb128 -36
 18355 13b0 9F       		.byte	0x9f
 18356 13b1 40030000 		.4byte	.LVL104-.Ltext0
 18357 13b5 4C030000 		.4byte	.LFE333-.Ltext0
 18358 13b9 0100     		.2byte	0x1
 18359 13bb 54       		.byte	0x54
 18360 13bc 00000000 		.4byte	0
 18361 13c0 00000000 		.4byte	0
 18362              	.LLST6:
 18363 13c4 80020000 		.4byte	.LVL92-.Ltext0
 18364 13c8 D4020000 		.4byte	.LVL95-.Ltext0
 18365 13cc 0200     		.2byte	0x2
 18366 13ce 30       		.byte	0x30
 18367 13cf 9F       		.byte	0x9f
 18368 13d0 D4020000 		.4byte	.LVL95-.Ltext0
 18369 13d4 D6020000 		.4byte	.LVL96-.Ltext0
 18370 13d8 0100     		.2byte	0x1
 18371 13da 50       		.byte	0x50
 18372 13db D6020000 		.4byte	.LVL96-.Ltext0
 18373 13df 0A030000 		.4byte	.LVL101-.Ltext0
 18374 13e3 0200     		.2byte	0x2
 18375 13e5 30       		.byte	0x30
 18376 13e6 9F       		.byte	0x9f
 18377 13e7 0A030000 		.4byte	.LVL101-.Ltext0
 18378 13eb 0C030000 		.4byte	.LVL102-.Ltext0
ARM GAS  C:\Users\RAKIBU~1\AppData\Local\Temp\ccQ3AEax.s 			page 325


 18379 13ef 0100     		.2byte	0x1
 18380 13f1 50       		.byte	0x50
 18381 13f2 0C030000 		.4byte	.LVL102-.Ltext0
 18382 13f6 4C030000 		.4byte	.LFE333-.Ltext0
 18383 13fa 0200     		.2byte	0x2
 18384 13fc 30       		.byte	0x30
 18385 13fd 9F       		.byte	0x9f
 18386 13fe 00000000 		.4byte	0
 18387 1402 00000000 		.4byte	0
 18388              	.LLST7:
 18389 1406 52030000 		.4byte	.LVL105-.Ltext0
 18390 140a 56030000 		.4byte	.LVL106-.Ltext0
 18391 140e 0200     		.2byte	0x2
 18392 1410 30       		.byte	0x30
 18393 1411 9F       		.byte	0x9f
 18394 1412 56030000 		.4byte	.LVL106-.Ltext0
 18395 1416 5A030000 		.4byte	.LVL107-.Ltext0
 18396 141a 0100     		.2byte	0x1
 18397 141c 50       		.byte	0x50
 18398 141d 5E030000 		.4byte	.LVL108-.Ltext0
 18399 1421 61030000 		.4byte	.LVL109-1-.Ltext0
 18400 1425 0100     		.2byte	0x1
 18401 1427 50       		.byte	0x50
 18402 1428 00000000 		.4byte	0
 18403 142c 00000000 		.4byte	0
 18404              	.LLST2:
 18405 1430 50000000 		.4byte	.LVL12-.Ltext0
 18406 1434 A2000000 		.4byte	.LVL15-.Ltext0
 18407 1438 0100     		.2byte	0x1
 18408 143a 50       		.byte	0x50
 18409 143b A2000000 		.4byte	.LVL15-.Ltext0
 18410 143f C8000000 		.4byte	.LVL19-.Ltext0
 18411 1443 0400     		.2byte	0x4
 18412 1445 F3       		.byte	0xf3
 18413 1446 01       		.uleb128 0x1
 18414 1447 50       		.byte	0x50
 18415 1448 9F       		.byte	0x9f
 18416 1449 C8000000 		.4byte	.LVL19-.Ltext0
 18417 144d D2000000 		.4byte	.LVL22-.Ltext0
 18418 1451 0100     		.2byte	0x1
 18419 1453 50       		.byte	0x50
 18420 1454 D2000000 		.4byte	.LVL22-.Ltext0
 18421 1458 E8000000 		.4byte	.LVL25-.Ltext0
 18422 145c 0400     		.2byte	0x4
 18423 145e F3       		.byte	0xf3
 18424 145f 01       		.uleb128 0x1
 18425 1460 50       		.byte	0x50
 18426 1461 9F       		.byte	0x9f
 18427 1462 E8000000 		.4byte	.LVL25-.Ltext0
 18428 1466 F0000000 		.4byte	.LVL28-.Ltext0
 18429 146a 0100     		.2byte	0x1
 18430 146c 50       		.byte	0x50
 18431 146d F0000000 		.4byte	.LVL28-.Ltext0
 18432 1471 08010000 		.4byte	.LVL31-.Ltext0
 18433 1475 0400     		.2byte	0x4
 18434 1477 F3       		.byte	0xf3
 18435 1478 01       		.uleb128 0x1
ARM GAS  C:\Users\RAKIBU~1\AppData\Local\Temp\ccQ3AEax.s 			page 326


 18436 1479 50       		.byte	0x50
 18437 147a 9F       		.byte	0x9f
 18438 147b 08010000 		.4byte	.LVL31-.Ltext0
 18439 147f 10010000 		.4byte	.LVL34-.Ltext0
 18440 1483 0100     		.2byte	0x1
 18441 1485 50       		.byte	0x50
 18442 1486 10010000 		.4byte	.LVL34-.Ltext0
 18443 148a 28010000 		.4byte	.LVL37-.Ltext0
 18444 148e 0400     		.2byte	0x4
 18445 1490 F3       		.byte	0xf3
 18446 1491 01       		.uleb128 0x1
 18447 1492 50       		.byte	0x50
 18448 1493 9F       		.byte	0x9f
 18449 1494 28010000 		.4byte	.LVL37-.Ltext0
 18450 1498 30010000 		.4byte	.LVL40-.Ltext0
 18451 149c 0100     		.2byte	0x1
 18452 149e 50       		.byte	0x50
 18453 149f 30010000 		.4byte	.LVL40-.Ltext0
 18454 14a3 48010000 		.4byte	.LVL43-.Ltext0
 18455 14a7 0400     		.2byte	0x4
 18456 14a9 F3       		.byte	0xf3
 18457 14aa 01       		.uleb128 0x1
 18458 14ab 50       		.byte	0x50
 18459 14ac 9F       		.byte	0x9f
 18460 14ad 48010000 		.4byte	.LVL43-.Ltext0
 18461 14b1 4E010000 		.4byte	.LVL46-.Ltext0
 18462 14b5 0100     		.2byte	0x1
 18463 14b7 50       		.byte	0x50
 18464 14b8 4E010000 		.4byte	.LVL46-.Ltext0
 18465 14bc 72010000 		.4byte	.LVL50-.Ltext0
 18466 14c0 0400     		.2byte	0x4
 18467 14c2 F3       		.byte	0xf3
 18468 14c3 01       		.uleb128 0x1
 18469 14c4 50       		.byte	0x50
 18470 14c5 9F       		.byte	0x9f
 18471 14c6 72010000 		.4byte	.LVL50-.Ltext0
 18472 14ca 7C010000 		.4byte	.LVL53-.Ltext0
 18473 14ce 0100     		.2byte	0x1
 18474 14d0 50       		.byte	0x50
 18475 14d1 7C010000 		.4byte	.LVL53-.Ltext0
 18476 14d5 94010000 		.4byte	.LVL56-.Ltext0
 18477 14d9 0400     		.2byte	0x4
 18478 14db F3       		.byte	0xf3
 18479 14dc 01       		.uleb128 0x1
 18480 14dd 50       		.byte	0x50
 18481 14de 9F       		.byte	0x9f
 18482 14df 94010000 		.4byte	.LVL56-.Ltext0
 18483 14e3 A2010000 		.4byte	.LVL59-.Ltext0
 18484 14e7 0100     		.2byte	0x1
 18485 14e9 50       		.byte	0x50
 18486 14ea A2010000 		.4byte	.LVL59-.Ltext0
 18487 14ee C0010000 		.4byte	.LVL62-.Ltext0
 18488 14f2 0400     		.2byte	0x4
 18489 14f4 F3       		.byte	0xf3
 18490 14f5 01       		.uleb128 0x1
 18491 14f6 50       		.byte	0x50
 18492 14f7 9F       		.byte	0x9f
ARM GAS  C:\Users\RAKIBU~1\AppData\Local\Temp\ccQ3AEax.s 			page 327


 18493 14f8 C0010000 		.4byte	.LVL62-.Ltext0
 18494 14fc C8010000 		.4byte	.LVL65-.Ltext0
 18495 1500 0100     		.2byte	0x1
 18496 1502 50       		.byte	0x50
 18497 1503 C8010000 		.4byte	.LVL65-.Ltext0
 18498 1507 E0010000 		.4byte	.LVL68-.Ltext0
 18499 150b 0400     		.2byte	0x4
 18500 150d F3       		.byte	0xf3
 18501 150e 01       		.uleb128 0x1
 18502 150f 50       		.byte	0x50
 18503 1510 9F       		.byte	0x9f
 18504 1511 E0010000 		.4byte	.LVL68-.Ltext0
 18505 1515 E8010000 		.4byte	.LVL71-.Ltext0
 18506 1519 0100     		.2byte	0x1
 18507 151b 50       		.byte	0x50
 18508 151c E8010000 		.4byte	.LVL71-.Ltext0
 18509 1520 04020000 		.4byte	.LVL74-.Ltext0
 18510 1524 0400     		.2byte	0x4
 18511 1526 F3       		.byte	0xf3
 18512 1527 01       		.uleb128 0x1
 18513 1528 50       		.byte	0x50
 18514 1529 9F       		.byte	0x9f
 18515 152a 04020000 		.4byte	.LVL74-.Ltext0
 18516 152e 0C020000 		.4byte	.LVL77-.Ltext0
 18517 1532 0100     		.2byte	0x1
 18518 1534 50       		.byte	0x50
 18519 1535 0C020000 		.4byte	.LVL77-.Ltext0
 18520 1539 28020000 		.4byte	.LVL80-.Ltext0
 18521 153d 0400     		.2byte	0x4
 18522 153f F3       		.byte	0xf3
 18523 1540 01       		.uleb128 0x1
 18524 1541 50       		.byte	0x50
 18525 1542 9F       		.byte	0x9f
 18526 1543 28020000 		.4byte	.LVL80-.Ltext0
 18527 1547 30020000 		.4byte	.LVL83-.Ltext0
 18528 154b 0100     		.2byte	0x1
 18529 154d 50       		.byte	0x50
 18530 154e 30020000 		.4byte	.LVL83-.Ltext0
 18531 1552 4C020000 		.4byte	.LVL86-.Ltext0
 18532 1556 0400     		.2byte	0x4
 18533 1558 F3       		.byte	0xf3
 18534 1559 01       		.uleb128 0x1
 18535 155a 50       		.byte	0x50
 18536 155b 9F       		.byte	0x9f
 18537 155c 4C020000 		.4byte	.LVL86-.Ltext0
 18538 1560 56020000 		.4byte	.LVL89-.Ltext0
 18539 1564 0100     		.2byte	0x1
 18540 1566 50       		.byte	0x50
 18541 1567 56020000 		.4byte	.LVL89-.Ltext0
 18542 156b 78020000 		.4byte	.LFE331-.Ltext0
 18543 156f 0400     		.2byte	0x4
 18544 1571 F3       		.byte	0xf3
 18545 1572 01       		.uleb128 0x1
 18546 1573 50       		.byte	0x50
 18547 1574 9F       		.byte	0x9f
 18548 1575 00000000 		.4byte	0
 18549 1579 00000000 		.4byte	0
ARM GAS  C:\Users\RAKIBU~1\AppData\Local\Temp\ccQ3AEax.s 			page 328


 18550              	.LLST3:
 18551 157d 50000000 		.4byte	.LVL12-.Ltext0
 18552 1581 A0000000 		.4byte	.LVL14-.Ltext0
 18553 1585 0100     		.2byte	0x1
 18554 1587 51       		.byte	0x51
 18555 1588 A0000000 		.4byte	.LVL14-.Ltext0
 18556 158c C8000000 		.4byte	.LVL19-.Ltext0
 18557 1590 0400     		.2byte	0x4
 18558 1592 F3       		.byte	0xf3
 18559 1593 01       		.uleb128 0x1
 18560 1594 51       		.byte	0x51
 18561 1595 9F       		.byte	0x9f
 18562 1596 C8000000 		.4byte	.LVL19-.Ltext0
 18563 159a D0000000 		.4byte	.LVL21-.Ltext0
 18564 159e 0100     		.2byte	0x1
 18565 15a0 51       		.byte	0x51
 18566 15a1 D0000000 		.4byte	.LVL21-.Ltext0
 18567 15a5 E8000000 		.4byte	.LVL25-.Ltext0
 18568 15a9 0400     		.2byte	0x4
 18569 15ab F3       		.byte	0xf3
 18570 15ac 01       		.uleb128 0x1
 18571 15ad 51       		.byte	0x51
 18572 15ae 9F       		.byte	0x9f
 18573 15af E8000000 		.4byte	.LVL25-.Ltext0
 18574 15b3 EE000000 		.4byte	.LVL27-.Ltext0
 18575 15b7 0100     		.2byte	0x1
 18576 15b9 51       		.byte	0x51
 18577 15ba EE000000 		.4byte	.LVL27-.Ltext0
 18578 15be 08010000 		.4byte	.LVL31-.Ltext0
 18579 15c2 0400     		.2byte	0x4
 18580 15c4 F3       		.byte	0xf3
 18581 15c5 01       		.uleb128 0x1
 18582 15c6 51       		.byte	0x51
 18583 15c7 9F       		.byte	0x9f
 18584 15c8 08010000 		.4byte	.LVL31-.Ltext0
 18585 15cc 0E010000 		.4byte	.LVL33-.Ltext0
 18586 15d0 0100     		.2byte	0x1
 18587 15d2 51       		.byte	0x51
 18588 15d3 0E010000 		.4byte	.LVL33-.Ltext0
 18589 15d7 28010000 		.4byte	.LVL37-.Ltext0
 18590 15db 0400     		.2byte	0x4
 18591 15dd F3       		.byte	0xf3
 18592 15de 01       		.uleb128 0x1
 18593 15df 51       		.byte	0x51
 18594 15e0 9F       		.byte	0x9f
 18595 15e1 28010000 		.4byte	.LVL37-.Ltext0
 18596 15e5 2E010000 		.4byte	.LVL39-.Ltext0
 18597 15e9 0100     		.2byte	0x1
 18598 15eb 51       		.byte	0x51
 18599 15ec 2E010000 		.4byte	.LVL39-.Ltext0
 18600 15f0 48010000 		.4byte	.LVL43-.Ltext0
 18601 15f4 0400     		.2byte	0x4
 18602 15f6 F3       		.byte	0xf3
 18603 15f7 01       		.uleb128 0x1
 18604 15f8 51       		.byte	0x51
 18605 15f9 9F       		.byte	0x9f
 18606 15fa 48010000 		.4byte	.LVL43-.Ltext0
ARM GAS  C:\Users\RAKIBU~1\AppData\Local\Temp\ccQ3AEax.s 			page 329


 18607 15fe 4C010000 		.4byte	.LVL45-.Ltext0
 18608 1602 0100     		.2byte	0x1
 18609 1604 51       		.byte	0x51
 18610 1605 4C010000 		.4byte	.LVL45-.Ltext0
 18611 1609 72010000 		.4byte	.LVL50-.Ltext0
 18612 160d 0400     		.2byte	0x4
 18613 160f F3       		.byte	0xf3
 18614 1610 01       		.uleb128 0x1
 18615 1611 51       		.byte	0x51
 18616 1612 9F       		.byte	0x9f
 18617 1613 72010000 		.4byte	.LVL50-.Ltext0
 18618 1617 7A010000 		.4byte	.LVL52-.Ltext0
 18619 161b 0100     		.2byte	0x1
 18620 161d 51       		.byte	0x51
 18621 161e 7A010000 		.4byte	.LVL52-.Ltext0
 18622 1622 94010000 		.4byte	.LVL56-.Ltext0
 18623 1626 0400     		.2byte	0x4
 18624 1628 F3       		.byte	0xf3
 18625 1629 01       		.uleb128 0x1
 18626 162a 51       		.byte	0x51
 18627 162b 9F       		.byte	0x9f
 18628 162c 94010000 		.4byte	.LVL56-.Ltext0
 18629 1630 A0010000 		.4byte	.LVL58-.Ltext0
 18630 1634 0100     		.2byte	0x1
 18631 1636 51       		.byte	0x51
 18632 1637 A0010000 		.4byte	.LVL58-.Ltext0
 18633 163b C0010000 		.4byte	.LVL62-.Ltext0
 18634 163f 0400     		.2byte	0x4
 18635 1641 F3       		.byte	0xf3
 18636 1642 01       		.uleb128 0x1
 18637 1643 51       		.byte	0x51
 18638 1644 9F       		.byte	0x9f
 18639 1645 C0010000 		.4byte	.LVL62-.Ltext0
 18640 1649 C6010000 		.4byte	.LVL64-.Ltext0
 18641 164d 0100     		.2byte	0x1
 18642 164f 51       		.byte	0x51
 18643 1650 C6010000 		.4byte	.LVL64-.Ltext0
 18644 1654 E0010000 		.4byte	.LVL68-.Ltext0
 18645 1658 0400     		.2byte	0x4
 18646 165a F3       		.byte	0xf3
 18647 165b 01       		.uleb128 0x1
 18648 165c 51       		.byte	0x51
 18649 165d 9F       		.byte	0x9f
 18650 165e E0010000 		.4byte	.LVL68-.Ltext0
 18651 1662 E6010000 		.4byte	.LVL70-.Ltext0
 18652 1666 0100     		.2byte	0x1
 18653 1668 51       		.byte	0x51
 18654 1669 E6010000 		.4byte	.LVL70-.Ltext0
 18655 166d 04020000 		.4byte	.LVL74-.Ltext0
 18656 1671 0400     		.2byte	0x4
 18657 1673 F3       		.byte	0xf3
 18658 1674 01       		.uleb128 0x1
 18659 1675 51       		.byte	0x51
 18660 1676 9F       		.byte	0x9f
 18661 1677 04020000 		.4byte	.LVL74-.Ltext0
 18662 167b 0A020000 		.4byte	.LVL76-.Ltext0
 18663 167f 0100     		.2byte	0x1
ARM GAS  C:\Users\RAKIBU~1\AppData\Local\Temp\ccQ3AEax.s 			page 330


 18664 1681 51       		.byte	0x51
 18665 1682 0A020000 		.4byte	.LVL76-.Ltext0
 18666 1686 28020000 		.4byte	.LVL80-.Ltext0
 18667 168a 0400     		.2byte	0x4
 18668 168c F3       		.byte	0xf3
 18669 168d 01       		.uleb128 0x1
 18670 168e 51       		.byte	0x51
 18671 168f 9F       		.byte	0x9f
 18672 1690 28020000 		.4byte	.LVL80-.Ltext0
 18673 1694 2E020000 		.4byte	.LVL82-.Ltext0
 18674 1698 0100     		.2byte	0x1
 18675 169a 51       		.byte	0x51
 18676 169b 2E020000 		.4byte	.LVL82-.Ltext0
 18677 169f 4C020000 		.4byte	.LVL86-.Ltext0
 18678 16a3 0400     		.2byte	0x4
 18679 16a5 F3       		.byte	0xf3
 18680 16a6 01       		.uleb128 0x1
 18681 16a7 51       		.byte	0x51
 18682 16a8 9F       		.byte	0x9f
 18683 16a9 4C020000 		.4byte	.LVL86-.Ltext0
 18684 16ad 54020000 		.4byte	.LVL88-.Ltext0
 18685 16b1 0100     		.2byte	0x1
 18686 16b3 51       		.byte	0x51
 18687 16b4 54020000 		.4byte	.LVL88-.Ltext0
 18688 16b8 78020000 		.4byte	.LFE331-.Ltext0
 18689 16bc 0400     		.2byte	0x4
 18690 16be F3       		.byte	0xf3
 18691 16bf 01       		.uleb128 0x1
 18692 16c0 51       		.byte	0x51
 18693 16c1 9F       		.byte	0x9f
 18694 16c2 00000000 		.4byte	0
 18695 16c6 00000000 		.4byte	0
 18696              	.LLST4:
 18697 16ca 50000000 		.4byte	.LVL12-.Ltext0
 18698 16ce 9E000000 		.4byte	.LVL13-.Ltext0
 18699 16d2 0100     		.2byte	0x1
 18700 16d4 52       		.byte	0x52
 18701 16d5 9E000000 		.4byte	.LVL13-.Ltext0
 18702 16d9 C8000000 		.4byte	.LVL19-.Ltext0
 18703 16dd 0100     		.2byte	0x1
 18704 16df 54       		.byte	0x54
 18705 16e0 C8000000 		.4byte	.LVL19-.Ltext0
 18706 16e4 CC000000 		.4byte	.LVL20-.Ltext0
 18707 16e8 0100     		.2byte	0x1
 18708 16ea 52       		.byte	0x52
 18709 16eb CC000000 		.4byte	.LVL20-.Ltext0
 18710 16ef E8000000 		.4byte	.LVL25-.Ltext0
 18711 16f3 0100     		.2byte	0x1
 18712 16f5 54       		.byte	0x54
 18713 16f6 E8000000 		.4byte	.LVL25-.Ltext0
 18714 16fa EC000000 		.4byte	.LVL26-.Ltext0
 18715 16fe 0100     		.2byte	0x1
 18716 1700 52       		.byte	0x52
 18717 1701 EC000000 		.4byte	.LVL26-.Ltext0
 18718 1705 08010000 		.4byte	.LVL31-.Ltext0
 18719 1709 0100     		.2byte	0x1
 18720 170b 54       		.byte	0x54
ARM GAS  C:\Users\RAKIBU~1\AppData\Local\Temp\ccQ3AEax.s 			page 331


 18721 170c 08010000 		.4byte	.LVL31-.Ltext0
 18722 1710 0C010000 		.4byte	.LVL32-.Ltext0
 18723 1714 0100     		.2byte	0x1
 18724 1716 52       		.byte	0x52
 18725 1717 0C010000 		.4byte	.LVL32-.Ltext0
 18726 171b 28010000 		.4byte	.LVL37-.Ltext0
 18727 171f 0100     		.2byte	0x1
 18728 1721 54       		.byte	0x54
 18729 1722 28010000 		.4byte	.LVL37-.Ltext0
 18730 1726 2C010000 		.4byte	.LVL38-.Ltext0
 18731 172a 0100     		.2byte	0x1
 18732 172c 52       		.byte	0x52
 18733 172d 2C010000 		.4byte	.LVL38-.Ltext0
 18734 1731 48010000 		.4byte	.LVL43-.Ltext0
 18735 1735 0100     		.2byte	0x1
 18736 1737 54       		.byte	0x54
 18737 1738 48010000 		.4byte	.LVL43-.Ltext0
 18738 173c 4A010000 		.4byte	.LVL44-.Ltext0
 18739 1740 0100     		.2byte	0x1
 18740 1742 52       		.byte	0x52
 18741 1743 4A010000 		.4byte	.LVL44-.Ltext0
 18742 1747 72010000 		.4byte	.LVL50-.Ltext0
 18743 174b 0100     		.2byte	0x1
 18744 174d 54       		.byte	0x54
 18745 174e 72010000 		.4byte	.LVL50-.Ltext0
 18746 1752 76010000 		.4byte	.LVL51-.Ltext0
 18747 1756 0100     		.2byte	0x1
 18748 1758 52       		.byte	0x52
 18749 1759 76010000 		.4byte	.LVL51-.Ltext0
 18750 175d 94010000 		.4byte	.LVL56-.Ltext0
 18751 1761 0100     		.2byte	0x1
 18752 1763 54       		.byte	0x54
 18753 1764 94010000 		.4byte	.LVL56-.Ltext0
 18754 1768 98010000 		.4byte	.LVL57-.Ltext0
 18755 176c 0100     		.2byte	0x1
 18756 176e 52       		.byte	0x52
 18757 176f 98010000 		.4byte	.LVL57-.Ltext0
 18758 1773 C0010000 		.4byte	.LVL62-.Ltext0
 18759 1777 0100     		.2byte	0x1
 18760 1779 54       		.byte	0x54
 18761 177a C0010000 		.4byte	.LVL62-.Ltext0
 18762 177e C4010000 		.4byte	.LVL63-.Ltext0
 18763 1782 0100     		.2byte	0x1
 18764 1784 52       		.byte	0x52
 18765 1785 C4010000 		.4byte	.LVL63-.Ltext0
 18766 1789 E0010000 		.4byte	.LVL68-.Ltext0
 18767 178d 0100     		.2byte	0x1
 18768 178f 54       		.byte	0x54
 18769 1790 E0010000 		.4byte	.LVL68-.Ltext0
 18770 1794 E4010000 		.4byte	.LVL69-.Ltext0
 18771 1798 0100     		.2byte	0x1
 18772 179a 52       		.byte	0x52
 18773 179b E4010000 		.4byte	.LVL69-.Ltext0
 18774 179f 04020000 		.4byte	.LVL74-.Ltext0
 18775 17a3 0100     		.2byte	0x1
 18776 17a5 54       		.byte	0x54
 18777 17a6 04020000 		.4byte	.LVL74-.Ltext0
ARM GAS  C:\Users\RAKIBU~1\AppData\Local\Temp\ccQ3AEax.s 			page 332


 18778 17aa 08020000 		.4byte	.LVL75-.Ltext0
 18779 17ae 0100     		.2byte	0x1
 18780 17b0 52       		.byte	0x52
 18781 17b1 08020000 		.4byte	.LVL75-.Ltext0
 18782 17b5 28020000 		.4byte	.LVL80-.Ltext0
 18783 17b9 0100     		.2byte	0x1
 18784 17bb 54       		.byte	0x54
 18785 17bc 28020000 		.4byte	.LVL80-.Ltext0
 18786 17c0 2C020000 		.4byte	.LVL81-.Ltext0
 18787 17c4 0100     		.2byte	0x1
 18788 17c6 52       		.byte	0x52
 18789 17c7 2C020000 		.4byte	.LVL81-.Ltext0
 18790 17cb 4C020000 		.4byte	.LVL86-.Ltext0
 18791 17cf 0100     		.2byte	0x1
 18792 17d1 54       		.byte	0x54
 18793 17d2 4C020000 		.4byte	.LVL86-.Ltext0
 18794 17d6 50020000 		.4byte	.LVL87-.Ltext0
 18795 17da 0100     		.2byte	0x1
 18796 17dc 52       		.byte	0x52
 18797 17dd 50020000 		.4byte	.LVL87-.Ltext0
 18798 17e1 78020000 		.4byte	.LFE331-.Ltext0
 18799 17e5 0100     		.2byte	0x1
 18800 17e7 54       		.byte	0x54
 18801 17e8 00000000 		.4byte	0
 18802 17ec 00000000 		.4byte	0
 18803              		.section	.debug_aranges,"",%progbits
 18804 0000 1C000000 		.4byte	0x1c
 18805 0004 0200     		.2byte	0x2
 18806 0006 00000000 		.4byte	.Ldebug_info0
 18807 000a 04       		.byte	0x4
 18808 000b 00       		.byte	0
 18809 000c 0000     		.2byte	0
 18810 000e 0000     		.2byte	0
 18811 0010 00000000 		.4byte	.Ltext0
 18812 0014 500E0000 		.4byte	.Letext0-.Ltext0
 18813 0018 00000000 		.4byte	0
 18814 001c 00000000 		.4byte	0
 18815              		.section	.debug_ranges,"",%progbits
 18816              	.Ldebug_ranges0:
 18817 0000 48050000 		.4byte	.LBB13-.Ltext0
 18818 0004 78050000 		.4byte	.LBE13-.Ltext0
 18819 0008 DE050000 		.4byte	.LBB16-.Ltext0
 18820 000c F0050000 		.4byte	.LBE16-.Ltext0
 18821 0010 00000000 		.4byte	0
 18822 0014 00000000 		.4byte	0
 18823 0018 78050000 		.4byte	.LBB14-.Ltext0
 18824 001c B0050000 		.4byte	.LBE14-.Ltext0
 18825 0020 FC050000 		.4byte	.LBB17-.Ltext0
 18826 0024 08060000 		.4byte	.LBE17-.Ltext0
 18827 0028 00000000 		.4byte	0
 18828 002c 00000000 		.4byte	0
 18829 0030 B2050000 		.4byte	.LBB15-.Ltext0
 18830 0034 CA050000 		.4byte	.LBE15-.Ltext0
 18831 0038 08060000 		.4byte	.LBB18-.Ltext0
 18832 003c 0E060000 		.4byte	.LBE18-.Ltext0
 18833 0040 00000000 		.4byte	0
 18834 0044 00000000 		.4byte	0
ARM GAS  C:\Users\RAKIBU~1\AppData\Local\Temp\ccQ3AEax.s 			page 333


 18835 0048 94080000 		.4byte	.LBB21-.Ltext0
 18836 004c 9A080000 		.4byte	.LBE21-.Ltext0
 18837 0050 9E080000 		.4byte	.LBB22-.Ltext0
 18838 0054 B6080000 		.4byte	.LBE22-.Ltext0
 18839 0058 BE080000 		.4byte	.LBB23-.Ltext0
 18840 005c E0080000 		.4byte	.LBE23-.Ltext0
 18841 0060 00000000 		.4byte	0
 18842 0064 00000000 		.4byte	0
 18843 0068 2C0C0000 		.4byte	.LBB27-.Ltext0
 18844 006c 320C0000 		.4byte	.LBE27-.Ltext0
 18845 0070 3A0C0000 		.4byte	.LBB28-.Ltext0
 18846 0074 760C0000 		.4byte	.LBE28-.Ltext0
 18847 0078 00000000 		.4byte	0
 18848 007c 00000000 		.4byte	0
 18849              		.section	.debug_line,"",%progbits
 18850              	.Ldebug_line0:
 18851 0000 8B0B0000 		.section	.debug_str,"MS",%progbits,1
 18851      02005B08 
 18851      00000201 
 18851      FB0E0D00 
 18851      01010101 
 18852              	.LASF351:
 18853 0000 63685F6D 		.ascii	"ch_memcore\000"
 18853      656D636F 
 18853      726500
 18854              	.LASF311:
 18855 000b 73656E74 		.ascii	"sentmsg\000"
 18855      6D736700 
 18856              	.LASF273:
 18857 0013 706F7274 		.ascii	"port_intctx\000"
 18857      5F696E74 
 18857      63747800 
 18858              	.LASF295:
 18859 001f 63685F74 		.ascii	"ch_trace_buffer_t\000"
 18859      72616365 
 18859      5F627566 
 18859      6665725F 
 18859      7400
 18860              	.LASF501:
 18861 0031 6576656E 		.ascii	"event\000"
 18861      7400
 18862              	.LASF925:
 18863 0037 6D326D5F 		.ascii	"m2m_wifi_set_mac_address\000"
 18863      77696669 
 18863      5F736574 
 18863      5F6D6163 
 18863      5F616464 
 18864              	.LASF717:
 18865 0050 75313653 		.ascii	"u16ScanRegion\000"
 18865      63616E52 
 18865      6567696F 
 18865      6E00
 18866              	.LASF850:
 18867 005e 6D326D5F 		.ascii	"m2m_wifi_set_sytem_time\000"
 18867      77696669 
 18867      5F736574 
 18867      5F737974 
ARM GAS  C:\Users\RAKIBU~1\AppData\Local\Temp\ccQ3AEax.s 			page 334


 18867      656D5F74 
 18868              	.LASF143:
 18869 0076 6D73675F 		.ascii	"msg_t\000"
 18869      7400
 18870              	.LASF454:
 18871 007c 4F504D4F 		.ascii	"OPMODE_SMBUS_DEVICE\000"
 18871      44455F53 
 18871      4D425553 
 18871      5F444556 
 18871      49434500 
 18872              	.LASF306:
 18873 0090 6D5F6372 		.ascii	"m_crit_isr\000"
 18873      69745F69 
 18873      737200
 18874              	.LASF778:
 18875 009b 7538456E 		.ascii	"u8EnableRedirect\000"
 18875      61626C65 
 18875      52656469 
 18875      72656374 
 18875      00
 18876              	.LASF620:
 18877 00ac 4D324D5F 		.ascii	"M2M_WIFI_REQ_DISABLE_MONITORING\000"
 18877      57494649 
 18877      5F524551 
 18877      5F444953 
 18877      41424C45 
 18878              	.LASF862:
 18879 00cc 6D326D5F 		.ascii	"m2m_wifi_set_device_name\000"
 18879      77696669 
 18879      5F736574 
 18879      5F646576 
 18879      6963655F 
 18880              	.LASF516:
 18881 00e5 73646366 		.ascii	"sdcflags_t\000"
 18881      6C616773 
 18881      5F7400
 18882              	.LASF795:
 18883 00f0 70753852 		.ascii	"pu8RngBuff\000"
 18883      6E674275 
 18883      666600
 18884              	.LASF562:
 18885 00fb 4D324D5F 		.ascii	"M2M_REQ_GROUP_IP\000"
 18885      5245515F 
 18885      47524F55 
 18885      505F4950 
 18885      00
 18886              	.LASF607:
 18887 010c 4D324D5F 		.ascii	"M2M_WIFI_REQ_DEFAULT_CONNECT\000"
 18887      57494649 
 18887      5F524551 
 18887      5F444546 
 18887      41554C54 
 18888              	.LASF500:
 18889 0129 53657269 		.ascii	"SerialDriver\000"
 18889      616C4472 
 18889      69766572 
 18889      00
ARM GAS  C:\Users\RAKIBU~1\AppData\Local\Temp\ccQ3AEax.s 			page 335


 18890              	.LASF559:
 18891 0136 74737472 		.ascii	"tstrM2mBatteryVoltage\000"
 18891      4D326D42 
 18891      61747465 
 18891      7279566F 
 18891      6C746167 
 18892              	.LASF190:
 18893 014c 63685F73 		.ascii	"ch_system_t\000"
 18893      79737465 
 18893      6D5F7400 
 18894              	.LASF3:
 18895 0158 5F5F7569 		.ascii	"__uint8_t\000"
 18895      6E74385F 
 18895      7400
 18896              	.LASF312:
 18897 0162 77747365 		.ascii	"wtsemp\000"
 18897      6D7000
 18898              	.LASF601:
 18899 0169 4D324D5F 		.ascii	"M2M_WIFI_RESP_GET_PRNG\000"
 18899      57494649 
 18899      5F524553 
 18899      505F4745 
 18899      545F5052 
 18900              	.LASF346:
 18901 0180 5F426F6F 		.ascii	"_Bool\000"
 18901      6C00
 18902              	.LASF886:
 18903 0186 6D326D5F 		.ascii	"m2m_wifi_set_gains\000"
 18903      77696669 
 18903      5F736574 
 18903      5F676169 
 18903      6E7300
 18904              	.LASF944:
 18905 0199 75385769 		.ascii	"u8WifiMode\000"
 18905      66694D6F 
 18905      646500
 18906              	.LASF472:
 18907 01a4 646D6172 		.ascii	"dmarx\000"
 18907      7800
 18908              	.LASF161:
 18909 01aa 6570656E 		.ascii	"epending\000"
 18909      64696E67 
 18909      00
 18910              	.LASF68:
 18911 01b3 5F6D6273 		.ascii	"_mbstate\000"
 18911      74617465 
 18911      00
 18912              	.LASF47:
 18913 01bc 5F617465 		.ascii	"_atexit\000"
 18913      78697400 
 18914              	.LASF591:
 18915 01c4 4D324D5F 		.ascii	"M2M_WIFI_REQ_SET_POWER_PROFILE\000"
 18915      57494649 
 18915      5F524551 
 18915      5F534554 
 18915      5F504F57 
 18916              	.LASF355:
ARM GAS  C:\Users\RAKIBU~1\AppData\Local\Temp\ccQ3AEax.s 			page 336


 18917 01e3 70726F76 		.ascii	"provider\000"
 18917      69646572 
 18917      00
 18918              	.LASF370:
 18919 01ec 6F626A65 		.ascii	"objects_factory_t\000"
 18919      6374735F 
 18919      66616374 
 18919      6F72795F 
 18919      7400
 18920              	.LASF809:
 18921 01fe 75384669 		.ascii	"u8FirmwareMinor\000"
 18921      726D7761 
 18921      72654D69 
 18921      6E6F7200 
 18922              	.LASF234:
 18923 020e 424B5031 		.ascii	"BKP10R\000"
 18923      305200
 18924              	.LASF706:
 18925 0215 74737472 		.ascii	"tstrM2MWPSConnect\000"
 18925      4D324D57 
 18925      5053436F 
 18925      6E6E6563 
 18925      7400
 18926              	.LASF347:
 18927 0227 6D656D67 		.ascii	"memgetfunc_t\000"
 18927      65746675 
 18927      6E635F74 
 18927      00
 18928              	.LASF932:
 18929 0234 70764175 		.ascii	"pvAuthInfo\000"
 18929      7468496E 
 18929      666F00
 18930              	.LASF466:
 18931 023f 6572726F 		.ascii	"errors\000"
 18931      727300
 18932              	.LASF490:
 18933 0246 696E7374 		.ascii	"instance_offset\000"
 18933      616E6365 
 18933      5F6F6666 
 18933      73657400 
 18934              	.LASF299:
 18935 0256 776F7273 		.ascii	"worst\000"
 18935      7400
 18936              	.LASF614:
 18937 025c 4D324D5F 		.ascii	"M2M_WIFI_REQ_START_WPS\000"
 18937      57494649 
 18937      5F524551 
 18937      5F535441 
 18937      52545F57 
 18938              	.LASF151:
 18939 0273 7072696F 		.ascii	"prio\000"
 18939      00
 18940              	.LASF785:
 18941 0278 6175384D 		.ascii	"au8MACAddress\000"
 18941      41434164 
 18941      64726573 
 18941      7300
ARM GAS  C:\Users\RAKIBU~1\AppData\Local\Temp\ccQ3AEax.s 			page 337


 18942              	.LASF37:
 18943 0286 5F5F746D 		.ascii	"__tm_mon\000"
 18943      5F6D6F6E 
 18943      00
 18944              	.LASF45:
 18945 028f 5F666E74 		.ascii	"_fntypes\000"
 18945      79706573 
 18945      00
 18946              	.LASF964:
 18947 0298 73747252 		.ascii	"strResp\000"
 18947      65737000 
 18948              	.LASF75:
 18949 02a0 5F696E63 		.ascii	"_inc\000"
 18949      00
 18950              	.LASF48:
 18951 02a5 5F696E64 		.ascii	"_ind\000"
 18951      00
 18952              	.LASF235:
 18953 02aa 424B5031 		.ascii	"BKP11R\000"
 18953      315200
 18954              	.LASF571:
 18955 02b1 4D324D5F 		.ascii	"M2M_WIFI_REQ_SET_MAC_ADDRESS\000"
 18955      57494649 
 18955      5F524551 
 18955      5F534554 
 18955      5F4D4143 
 18956              	.LASF279:
 18957 02ce 42445452 		.ascii	"BDTR\000"
 18957      00
 18958              	.LASF707:
 18959 02d3 75384175 		.ascii	"u8AuthType\000"
 18959      74685479 
 18959      706500
 18960              	.LASF464:
 18961 02de 49324343 		.ascii	"I2CConfig\000"
 18961      6F6E6669 
 18961      6700
 18962              	.LASF128:
 18963 02e8 75696E74 		.ascii	"uint16_t\000"
 18963      31365F74 
 18963      00
 18964              	.LASF291:
 18965 02f1 63685F74 		.ascii	"ch_trace_event_t\000"
 18965      72616365 
 18965      5F657665 
 18965      6E745F74 
 18965      00
 18966              	.LASF905:
 18967 0302 75384170 		.ascii	"u8Apnum\000"
 18967      6E756D00 
 18968              	.LASF473:
 18969 030a 646D6174 		.ascii	"dmatx\000"
 18969      7800
 18970              	.LASF361:
 18971 0310 63685F6F 		.ascii	"ch_objects_factory\000"
 18971      626A6563 
 18971      74735F66 
ARM GAS  C:\Users\RAKIBU~1\AppData\Local\Temp\ccQ3AEax.s 			page 338


 18971      6163746F 
 18971      727900
 18972              	.LASF289:
 18973 0323 72747374 		.ascii	"rtstamp\000"
 18973      616D7000 
 18974              	.LASF613:
 18975 032b 4D324D5F 		.ascii	"M2M_WIFI_REQ_WPS\000"
 18975      57494649 
 18975      5F524551 
 18975      5F575053 
 18975      00
 18976              	.LASF54:
 18977 033c 5F666C61 		.ascii	"_flags\000"
 18977      677300
 18978              	.LASF761:
 18979 0343 74737472 		.ascii	"tstrM2MP2PConnect\000"
 18979      4D324D50 
 18979      3250436F 
 18979      6E6E6563 
 18979      7400
 18980              	.LASF169:
 18981 0355 6E657874 		.ascii	"next\000"
 18981      00
 18982              	.LASF153:
 18983 035a 6F6C6465 		.ascii	"older\000"
 18983      7200
 18984              	.LASF716:
 18985 0360 74737472 		.ascii	"tstrM2MScanOption\000"
 18985      4D324D53 
 18985      63616E4F 
 18985      7074696F 
 18985      6E00
 18986              	.LASF236:
 18987 0372 424B5031 		.ascii	"BKP12R\000"
 18987      325200
 18988              	.LASF357:
 18989 0379 63685F64 		.ascii	"ch_dyn_element\000"
 18989      796E5F65 
 18989      6C656D65 
 18989      6E7400
 18990              	.LASF645:
 18991 0388 4D324D5F 		.ascii	"M2M_SSL_IND_CRL\000"
 18991      53534C5F 
 18991      494E445F 
 18991      43524C00 
 18992              	.LASF694:
 18993 0398 74756E69 		.ascii	"tuniM2MWifiAuth\000"
 18993      4D324D57 
 18993      69666941 
 18993      75746800 
 18994              	.LASF85:
 18995 03a8 5F637674 		.ascii	"_cvtlen\000"
 18995      6C656E00 
 18996              	.LASF188:
 18997 03b0 6C6F636B 		.ascii	"lock_cnt\000"
 18997      5F636E74 
 18997      00
ARM GAS  C:\Users\RAKIBU~1\AppData\Local\Temp\ccQ3AEax.s 			page 339


 18998              	.LASF171:
 18999 03b9 63685F74 		.ascii	"ch_threads_queue\000"
 18999      68726561 
 18999      64735F71 
 18999      75657565 
 18999      00
 19000              	.LASF89:
 19001 03ca 5F736967 		.ascii	"_sig_func\000"
 19001      5F66756E 
 19001      6300
 19002              	.LASF735:
 19003 03d4 75384572 		.ascii	"u8ErrCode\000"
 19003      72436F64 
 19003      6500
 19004              	.LASF631:
 19005 03de 4D324D5F 		.ascii	"M2M_WIFI_REQ_ENABLE_P2P\000"
 19005      57494649 
 19005      5F524551 
 19005      5F454E41 
 19005      424C455F 
 19006              	.LASF483:
 19007 03f6 5254435F 		.ascii	"RTC_EVENT_TAMP1\000"
 19007      4556454E 
 19007      545F5441 
 19007      4D503100 
 19008              	.LASF484:
 19009 0406 5254435F 		.ascii	"RTC_EVENT_TAMP2\000"
 19009      4556454E 
 19009      545F5441 
 19009      4D503200 
 19010              	.LASF485:
 19011 0416 5254435F 		.ascii	"RTC_EVENT_TAMP3\000"
 19011      4556454E 
 19011      545F5441 
 19011      4D503300 
 19012              	.LASF954:
 19013 0426 75333241 		.ascii	"u32Addr\000"
 19013      64647200 
 19014              	.LASF333:
 19015 042e 6F66665F 		.ascii	"off_refs\000"
 19015      72656673 
 19015      00
 19016              	.LASF237:
 19017 0437 424B5031 		.ascii	"BKP13R\000"
 19017      335200
 19018              	.LASF67:
 19019 043e 5F6C6F63 		.ascii	"_lock\000"
 19019      6B00
 19020              	.LASF63:
 19021 0444 5F6E6275 		.ascii	"_nbuf\000"
 19021      6600
 19022              	.LASF534:
 19023 044a 5350495F 		.ascii	"SPI_STOP\000"
 19023      53544F50 
 19023      00
 19024              	.LASF641:
 19025 0453 4D324D5F 		.ascii	"M2M_IP_REQ_DISABLE_DHCP\000"
ARM GAS  C:\Users\RAKIBU~1\AppData\Local\Temp\ccQ3AEax.s 			page 340


 19025      49505F52 
 19025      45515F44 
 19025      49534142 
 19025      4C455F44 
 19026              	.LASF639:
 19027 046b 4D324D5F 		.ascii	"M2M_IP_REQ_STATIC_IP_CONF\000"
 19027      49505F52 
 19027      45515F53 
 19027      54415449 
 19027      435F4950 
 19028              	.LASF122:
 19029 0485 5F756E75 		.ascii	"_unused\000"
 19029      73656400 
 19030              	.LASF833:
 19031 048d 67706641 		.ascii	"gpfAppWifiCb\000"
 19031      70705769 
 19031      66694362 
 19031      00
 19032              	.LASF550:
 19033 049a 75385077 		.ascii	"u8PwrMode\000"
 19033      724D6F64 
 19033      6500
 19034              	.LASF487:
 19035 04a4 72746365 		.ascii	"rtcevent_t\000"
 19035      76656E74 
 19035      5F7400
 19036              	.LASF837:
 19037 04af 6D326D5F 		.ascii	"m2m_wifi_set_battery_voltage\000"
 19037      77696669 
 19037      5F736574 
 19037      5F626174 
 19037      74657279 
 19038              	.LASF418:
 19039 04cc 4F545950 		.ascii	"OTYPER\000"
 19039      455200
 19040              	.LASF538:
 19041 04d3 73706973 		.ascii	"spistate_t\000"
 19041      74617465 
 19041      5F7400
 19042              	.LASF238:
 19043 04de 424B5031 		.ascii	"BKP14R\000"
 19043      345200
 19044              	.LASF511:
 19045 04e5 5344435F 		.ascii	"SDC_MODE_1BIT\000"
 19045      4D4F4445 
 19045      5F314249 
 19045      5400
 19046              	.LASF702:
 19047 04f3 75384E6F 		.ascii	"u8NoSaveCred\000"
 19047      53617665 
 19047      43726564 
 19047      00
 19048              	.LASF649:
 19049 0500 4D324D5F 		.ascii	"M2M_WIFI_SEC_INVALID\000"
 19049      57494649 
 19049      5F534543 
 19049      5F494E56 
ARM GAS  C:\Users\RAKIBU~1\AppData\Local\Temp\ccQ3AEax.s 			page 341


 19049      414C4944 
 19050              	.LASF703:
 19051 0515 74737472 		.ascii	"tstrM2mWifiConnect\000"
 19051      4D326D57 
 19051      69666943 
 19051      6F6E6E65 
 19051      637400
 19052              	.LASF448:
 19053 0528 4932435F 		.ascii	"I2C_ACTIVE_RX\000"
 19053      41435449 
 19053      56455F52 
 19053      5800
 19054              	.LASF148:
 19055 0536 74687265 		.ascii	"thread_t\000"
 19055      61645F74 
 19055      00
 19056              	.LASF182:
 19057 053f 63685F76 		.ascii	"ch_virtual_timers_list\000"
 19057      69727475 
 19057      616C5F74 
 19057      696D6572 
 19057      735F6C69 
 19058              	.LASF377:
 19059 0556 76656374 		.ascii	"vector\000"
 19059      6F7200
 19060              	.LASF479:
 19061 055d 5254435F 		.ascii	"RTC_EVENT_ALARM_A\000"
 19061      4556454E 
 19061      545F414C 
 19061      41524D5F 
 19061      4100
 19062              	.LASF129:
 19063 056f 696E7433 		.ascii	"int32_t\000"
 19063      325F7400 
 19064              	.LASF948:
 19065 0577 7043524C 		.ascii	"pCRL\000"
 19065      00
 19066              	.LASF462:
 19067 057c 636C6F63 		.ascii	"clock_speed\000"
 19067      6B5F7370 
 19067      65656400 
 19068              	.LASF196:
 19069 0588 73797374 		.ascii	"systime_t\000"
 19069      696D655F 
 19069      7400
 19070              	.LASF682:
 19071 0592 75385050 		.ascii	"u8PPAGFor11GN\000"
 19071      4147466F 
 19071      72313147 
 19071      4E00
 19072              	.LASF560:
 19073 05a0 4D324D5F 		.ascii	"M2M_REQ_GROUP_MAIN\000"
 19073      5245515F 
 19073      47524F55 
 19073      505F4D41 
 19073      494E00
 19074              	.LASF100:
ARM GAS  C:\Users\RAKIBU~1\AppData\Local\Temp\ccQ3AEax.s 			page 342


 19075 05b3 5F616464 		.ascii	"_add\000"
 19075      00
 19076              	.LASF203:
 19077 05b8 4D304152 		.ascii	"M0AR\000"
 19077      00
 19078              	.LASF219:
 19079 05bd 43414C52 		.ascii	"CALR\000"
 19079      00
 19080              	.LASF452:
 19081 05c2 69326366 		.ascii	"i2cflags_t\000"
 19081      6C616773 
 19081      5F7400
 19082              	.LASF239:
 19083 05cd 424B5031 		.ascii	"BKP15R\000"
 19083      355200
 19084              	.LASF914:
 19085 05d4 6D326D5F 		.ascii	"m2m_wifi_set_cust_InfoElement\000"
 19085      77696669 
 19085      5F736574 
 19085      5F637573 
 19085      745F496E 
 19086              	.LASF323:
 19087 05f2 74696D65 		.ascii	"timesize\000"
 19087      73697A65 
 19087      00
 19088              	.LASF634:
 19089 05fb 4D324D5F 		.ascii	"M2M_WIFI_MAX_P2P_ALL\000"
 19089      57494649 
 19089      5F4D4158 
 19089      5F503250 
 19089      5F414C4C 
 19090              	.LASF593:
 19091 0610 4D324D5F 		.ascii	"M2M_WIFI_REQ_SET_BATTERY_VOLTAGE\000"
 19091      57494649 
 19091      5F524551 
 19091      5F534554 
 19091      5F424154 
 19092              	.LASF577:
 19093 0631 4D324D5F 		.ascii	"M2M_WIFI_REQ_START_PROVISION_MODE\000"
 19093      57494649 
 19093      5F524551 
 19093      5F535441 
 19093      52545F50 
 19094              	.LASF865:
 19095 0653 73747244 		.ascii	"strDeviceName\000"
 19095      65766963 
 19095      654E616D 
 19095      6500
 19096              	.LASF637:
 19097 0661 4D324D5F 		.ascii	"M2M_WIFI_REQ_SERVER_INIT\000"
 19097      57494649 
 19097      5F524551 
 19097      5F534552 
 19097      5645525F 
 19098              	.LASF979:
 19099 067a 6E6D5F64 		.ascii	"nm_drv_init\000"
 19099      72765F69 
ARM GAS  C:\Users\RAKIBU~1\AppData\Local\Temp\ccQ3AEax.s 			page 343


 19099      6E697400 
 19100              	.LASF540:
 19101 0686 68616C5F 		.ascii	"hal_spi_driver\000"
 19101      7370695F 
 19101      64726976 
 19101      657200
 19102              	.LASF895:
 19103 0695 6D326D5F 		.ascii	"m2m_wifi_req_client_ctrl\000"
 19103      77696669 
 19103      5F726571 
 19103      5F636C69 
 19103      656E745F 
 19104              	.LASF491:
 19105 06ae 67657473 		.ascii	"getsize\000"
 19105      697A6500 
 19106              	.LASF410:
 19107 06b6 716E6F74 		.ascii	"qnotify_t\000"
 19107      6966795F 
 19107      7400
 19108              	.LASF906:
 19109 06c0 6D326D5F 		.ascii	"m2m_wifi_request_scan_passive\000"
 19109      77696669 
 19109      5F726571 
 19109      75657374 
 19109      5F736361 
 19110              	.LASF845:
 19111 06de 7374724D 		.ascii	"strM2mPwrMode\000"
 19111      326D5077 
 19111      724D6F64 
 19111      6500
 19112              	.LASF240:
 19113 06ec 424B5031 		.ascii	"BKP16R\000"
 19113      365200
 19114              	.LASF432:
 19115 06f3 4750545F 		.ascii	"GPT_ONESHOT\000"
 19115      4F4E4553 
 19115      484F5400 
 19116              	.LASF405:
 19117 06ff 715F746F 		.ascii	"q_top\000"
 19117      7000
 19118              	.LASF56:
 19119 0705 5F6C6266 		.ascii	"_lbfsize\000"
 19119      73697A65 
 19119      00
 19120              	.LASF132:
 19121 070e 75696E74 		.ascii	"uint8\000"
 19121      3800
 19122              	.LASF465:
 19123 0714 49324344 		.ascii	"I2CDriver\000"
 19123      72697665 
 19123      7200
 19124              	.LASF447:
 19125 071e 4932435F 		.ascii	"I2C_ACTIVE_TX\000"
 19125      41435449 
 19125      56455F54 
 19125      5800
 19126              	.LASF943:
ARM GAS  C:\Users\RAKIBU~1\AppData\Local\Temp\ccQ3AEax.s 			page 344


 19127 072c 70617261 		.ascii	"param\000"
 19127      6D00
 19128              	.LASF158:
 19129 0732 72656673 		.ascii	"refs\000"
 19129      00
 19130              	.LASF492:
 19131 0737 72656164 		.ascii	"read\000"
 19131      00
 19132              	.LASF453:
 19133 073c 4F504D4F 		.ascii	"OPMODE_I2C\000"
 19133      44455F49 
 19133      324300
 19134              	.LASF589:
 19135 0747 4D324D5F 		.ascii	"M2M_WIFI_REQ_SET_SCAN_OPTION\000"
 19135      57494649 
 19135      5F524551 
 19135      5F534554 
 19135      5F534341 
 19136              	.LASF939:
 19137 0764 6D326D5F 		.ascii	"m2m_wifi_default_connect\000"
 19137      77696669 
 19137      5F646566 
 19137      61756C74 
 19137      5F636F6E 
 19138              	.LASF924:
 19139 077d 70737472 		.ascii	"pstrStaticIPConf\000"
 19139      53746174 
 19139      69634950 
 19139      436F6E66 
 19139      00
 19140              	.LASF162:
 19141 078e 6D74786C 		.ascii	"mtxlist\000"
 19141      69737400 
 19142              	.LASF580:
 19143 0796 4D324D5F 		.ascii	"M2M_WIFI_REQ_SET_SYS_TIME\000"
 19143      57494649 
 19143      5F524551 
 19143      5F534554 
 19143      5F535953 
 19144              	.LASF789:
 19145 07b0 75384461 		.ascii	"u8Day\000"
 19145      7900
 19146              	.LASF843:
 19147 07b6 7374724D 		.ascii	"strM2mTxPwrLevel\000"
 19147      326D5478 
 19147      5077724C 
 19147      6576656C 
 19147      00
 19148              	.LASF751:
 19149 07c7 61753844 		.ascii	"au8DstMacAddress\000"
 19149      73744D61 
 19149      63416464 
 19149      72657373 
 19149      00
 19150              	.LASF901:
 19151 07d8 75385373 		.ascii	"u8Ssidlist\000"
 19151      69646C69 
ARM GAS  C:\Users\RAKIBU~1\AppData\Local\Temp\ccQ3AEax.s 			page 345


 19151      737400
 19152              	.LASF625:
 19153 07e3 4D324D5F 		.ascii	"M2M_WIFI_MAX_STA_ALL\000"
 19153      57494649 
 19153      5F4D4158 
 19153      5F535441 
 19153      5F414C4C 
 19154              	.LASF991:
 19155 07f8 6D326D5F 		.ascii	"m2m_wifi_cb\000"
 19155      77696669 
 19155      5F636200 
 19156              	.LASF66:
 19157 0804 5F646174 		.ascii	"_data\000"
 19157      6100
 19158              	.LASF193:
 19159 080a 76746C69 		.ascii	"vtlist\000"
 19159      737400
 19160              	.LASF241:
 19161 0811 424B5031 		.ascii	"BKP17R\000"
 19161      375200
 19162              	.LASF621:
 19163 0818 4D324D5F 		.ascii	"M2M_WIFI_RESP_WIFI_RX_PACKET\000"
 19163      57494649 
 19163      5F524553 
 19163      505F5749 
 19163      46495F52 
 19164              	.LASF208:
 19165 0835 54524953 		.ascii	"TRISE\000"
 19165      4500
 19166              	.LASF875:
 19167 083b 696E6465 		.ascii	"index\000"
 19167      7800
 19168              	.LASF307:
 19169 0841 6B65726E 		.ascii	"kernel_stats_t\000"
 19169      656C5F73 
 19169      74617473 
 19169      5F7400
 19170              	.LASF715:
 19171 0850 73385273 		.ascii	"s8RssiThresh\000"
 19171      73695468 
 19171      72657368 
 19171      00
 19172              	.LASF476:
 19173 085d 5F646179 		.ascii	"_daylight\000"
 19173      6C696768 
 19173      7400
 19174              	.LASF402:
 19175 0867 715F7761 		.ascii	"q_waiting\000"
 19175      6974696E 
 19175      6700
 19176              	.LASF595:
 19177 0871 4D324D5F 		.ascii	"M2M_WIFI_REQ_GET_SYS_TIME\000"
 19177      57494649 
 19177      5F524551 
 19177      5F474554 
 19177      5F535953 
 19178              	.LASF192:
ARM GAS  C:\Users\RAKIBU~1\AppData\Local\Temp\ccQ3AEax.s 			page 346


 19179 088b 726C6973 		.ascii	"rlist\000"
 19179      7400
 19180              	.LASF167:
 19181 0891 74687265 		.ascii	"threads_list_t\000"
 19181      6164735F 
 19181      6C697374 
 19181      5F7400
 19182              	.LASF411:
 19183 08a0 696E7075 		.ascii	"input_queue_t\000"
 19183      745F7175 
 19183      6575655F 
 19183      7400
 19184              	.LASF842:
 19185 08ae 6D326D5F 		.ascii	"m2m_wifi_set_tx_power\000"
 19185      77696669 
 19185      5F736574 
 19185      5F74785F 
 19185      706F7765 
 19186              	.LASF854:
 19187 08c4 6D326D5F 		.ascii	"m2m_wifi_start_provision_mode\000"
 19187      77696669 
 19187      5F737461 
 19187      72745F70 
 19187      726F7669 
 19188              	.LASF123:
 19189 08e2 5F5F6C6F 		.ascii	"__lock\000"
 19189      636B00
 19190              	.LASF457:
 19191 08e9 5354445F 		.ascii	"STD_DUTY_CYCLE\000"
 19191      44555459 
 19191      5F435943 
 19191      4C4500
 19192              	.LASF70:
 19193 08f8 5F726565 		.ascii	"_reent\000"
 19193      6E7400
 19194              	.LASF394:
 19195 08ff 50535F45 		.ascii	"PS_ERROR_READ\000"
 19195      52524F52 
 19195      5F524541 
 19195      4400
 19196              	.LASF138:
 19197 090d 72747469 		.ascii	"rttime_t\000"
 19197      6D655F74 
 19197      00
 19198              	.LASF828:
 19199 0916 70664170 		.ascii	"pfAppMonCb\000"
 19199      704D6F6E 
 19199      436200
 19200              	.LASF782:
 19201 0921 74737472 		.ascii	"tstrM2MProvisionInfo\000"
 19201      4D324D50 
 19201      726F7669 
 19201      73696F6E 
 19201      496E666F 
 19202              	.LASF91:
 19203 0936 5F5F7366 		.ascii	"__sf\000"
 19203      00
ARM GAS  C:\Users\RAKIBU~1\AppData\Local\Temp\ccQ3AEax.s 			page 347


 19204              	.LASF242:
 19205 093b 424B5031 		.ascii	"BKP18R\000"
 19205      385200
 19206              	.LASF51:
 19207 0942 5F626173 		.ascii	"_base\000"
 19207      6500
 19208              	.LASF248:
 19209 0948 52455350 		.ascii	"RESP1\000"
 19209      3100
 19210              	.LASF249:
 19211 094e 52455350 		.ascii	"RESP2\000"
 19211      3200
 19212              	.LASF250:
 19213 0954 52455350 		.ascii	"RESP3\000"
 19213      3300
 19214              	.LASF251:
 19215 095a 52455350 		.ascii	"RESP4\000"
 19215      3400
 19216              	.LASF109:
 19217 0960 5F6D6274 		.ascii	"_mbtowc_state\000"
 19217      6F77635F 
 19217      73746174 
 19217      6500
 19218              	.LASF990:
 19219 096e 70753850 		.ascii	"pu8Psk\000"
 19219      736B00
 19220              	.LASF444:
 19221 0975 4932435F 		.ascii	"I2C_UNINIT\000"
 19221      554E494E 
 19221      495400
 19222              	.LASF442:
 19223 0980 47505443 		.ascii	"GPTConfig\000"
 19223      6F6E6669 
 19223      6700
 19224              	.LASF814:
 19225 098a 4275696C 		.ascii	"BuildDate\000"
 19225      64446174 
 19225      6500
 19226              	.LASF496:
 19227 0994 53445F55 		.ascii	"SD_UNINIT\000"
 19227      4E494E49 
 19227      5400
 19228              	.LASF730:
 19229 099e 75386368 		.ascii	"u8ch\000"
 19229      00
 19230              	.LASF683:
 19231 09a3 74737472 		.ascii	"tstrM2mWifiGainsParams\000"
 19231      4D326D57 
 19231      69666947 
 19231      61696E73 
 19231      50617261 
 19232              	.LASF574:
 19233 09ba 4D324D5F 		.ascii	"M2M_WIFI_REQ_GET_CONN_INFO\000"
 19233      57494649 
 19233      5F524551 
 19233      5F474554 
 19233      5F434F4E 
ARM GAS  C:\Users\RAKIBU~1\AppData\Local\Temp\ccQ3AEax.s 			page 348


 19234              	.LASF983:
 19235 09d5 6E6D5F64 		.ascii	"nm_drv_init_download_mode\000"
 19235      72765F69 
 19235      6E69745F 
 19235      646F776E 
 19235      6C6F6164 
 19236              	.LASF142:
 19237 09ef 74707269 		.ascii	"tprio_t\000"
 19237      6F5F7400 
 19238              	.LASF303:
 19239 09f7 6E5F6972 		.ascii	"n_irq\000"
 19239      7100
 19240              	.LASF752:
 19241 09fd 75313644 		.ascii	"u16DataLength\000"
 19241      6174614C 
 19241      656E6774 
 19241      6800
 19242              	.LASF783:
 19243 0a0b 61635353 		.ascii	"acSSID\000"
 19243      494400
 19244              	.LASF570:
 19245 0a12 4D324D5F 		.ascii	"M2M_WIFI_REQ_RESTART\000"
 19245      57494649 
 19245      5F524551 
 19245      5F524553 
 19245      54415254 
 19246              	.LASF243:
 19247 0a27 424B5031 		.ascii	"BKP19R\000"
 19247      395200
 19248              	.LASF790:
 19249 0a2e 7538486F 		.ascii	"u8Hour\000"
 19249      757200
 19250              	.LASF32:
 19251 0a35 5F5F746D 		.ascii	"__tm\000"
 19251      00
 19252              	.LASF749:
 19253 0a3a 75384369 		.ascii	"u8CipherType\000"
 19253      70686572 
 19253      54797065 
 19253      00
 19254              	.LASF359:
 19255 0a47 63685F64 		.ascii	"ch_dyn_list\000"
 19255      796E5F6C 
 19255      69737400 
 19256              	.LASF460:
 19257 0a53 69326364 		.ascii	"i2cdutycycle_t\000"
 19257      75747963 
 19257      79636C65 
 19257      5F7400
 19258              	.LASF216:
 19259 0a62 54535452 		.ascii	"TSTR\000"
 19259      00
 19260              	.LASF627:
 19261 0a67 4D324D5F 		.ascii	"M2M_WIFI_REQ_DISABLE_AP\000"
 19261      57494649 
 19261      5F524551 
 19261      5F444953 
ARM GAS  C:\Users\RAKIBU~1\AppData\Local\Temp\ccQ3AEax.s 			page 349


 19261      41424C45 
 19262              	.LASF468:
 19263 0a7f 74687265 		.ascii	"thread\000"
 19263      616400
 19264              	.LASF533:
 19265 0a86 5350495F 		.ascii	"SPI_UNINIT\000"
 19265      554E494E 
 19265      495400
 19266              	.LASF320:
 19267 0a91 7A65726F 		.ascii	"zero\000"
 19267      00
 19268              	.LASF390:
 19269 0a96 626C6B5F 		.ascii	"blk_size\000"
 19269      73697A65 
 19269      00
 19270              	.LASF446:
 19271 0a9f 4932435F 		.ascii	"I2C_READY\000"
 19271      52454144 
 19271      5900
 19272              	.LASF40:
 19273 0aa9 5F5F746D 		.ascii	"__tm_yday\000"
 19273      5F796461 
 19273      7900
 19274              	.LASF278:
 19275 0ab3 43434552 		.ascii	"CCER\000"
 19275      00
 19276              	.LASF266:
 19277 0ab8 49325350 		.ascii	"I2SPR\000"
 19277      5200
 19278              	.LASF298:
 19279 0abe 62657374 		.ascii	"best\000"
 19279      00
 19280              	.LASF288:
 19281 0ac3 74797065 		.ascii	"type\000"
 19281      00
 19282              	.LASF16:
 19283 0ac8 5F4C4F43 		.ascii	"_LOCK_T\000"
 19283      4B5F5400 
 19284              	.LASF772:
 19285 0ad0 75333244 		.ascii	"u32DNS\000"
 19285      4E5300
 19286              	.LASF262:
 19287 0ad7 43524350 		.ascii	"CRCPR\000"
 19287      5200
 19288              	.LASF385:
 19289 0add 424C4B5F 		.ascii	"BLK_READY\000"
 19289      52454144 
 19289      5900
 19290              	.LASF972:
 19291 0ae7 6869665F 		.ascii	"hif_get_sleep_mode\000"
 19291      6765745F 
 19291      736C6565 
 19291      705F6D6F 
 19291      646500
 19292              	.LASF4:
 19293 0afa 5F5F7569 		.ascii	"__uint16_t\000"
 19293      6E743136 
ARM GAS  C:\Users\RAKIBU~1\AppData\Local\Temp\ccQ3AEax.s 			page 350


 19293      5F7400
 19294              	.LASF431:
 19295 0b05 4750545F 		.ascii	"GPT_CONTINUOUS\000"
 19295      434F4E54 
 19295      494E554F 
 19295      555300
 19296              	.LASF101:
 19297 0b14 5F756E75 		.ascii	"_unused_rand\000"
 19297      7365645F 
 19297      72616E64 
 19297      00
 19298              	.LASF696:
 19299 0b21 75385365 		.ascii	"u8SecType\000"
 19299      63547970 
 19299      6500
 19300              	.LASF872:
 19301 0b2b 42636173 		.ascii	"BcastEn\000"
 19301      74456E00 
 19302              	.LASF204:
 19303 0b33 4D314152 		.ascii	"M1AR\000"
 19303      00
 19304              	.LASF521:
 19305 0b38 7364696F 		.ascii	"sdio\000"
 19305      00
 19306              	.LASF941:
 19307 0b3d 6D326D5F 		.ascii	"m2m_wifi_deinit\000"
 19307      77696669 
 19307      5F646569 
 19307      6E697400 
 19308              	.LASF205:
 19309 0b4d 444D415F 		.ascii	"DMA_Stream_TypeDef\000"
 19309      53747265 
 19309      616D5F54 
 19309      79706544 
 19309      656600
 19310              	.LASF670:
 19311 0b60 4D324D5F 		.ascii	"M2M_PS_AUTOMATIC\000"
 19311      50535F41 
 19311      55544F4D 
 19311      41544943 
 19311      00
 19312              	.LASF870:
 19313 0b71 6D326D5F 		.ascii	"m2m_wifi_set_sleep_mode\000"
 19313      77696669 
 19313      5F736574 
 19313      5F736C65 
 19313      65705F6D 
 19314              	.LASF956:
 19315 0b89 73747253 		.ascii	"strState\000"
 19315      74617465 
 19315      00
 19316              	.LASF152:
 19317 0b92 6E657765 		.ascii	"newer\000"
 19317      7200
 19318              	.LASF773:
 19319 0b98 75333253 		.ascii	"u32SubnetMask\000"
 19319      75626E65 
ARM GAS  C:\Users\RAKIBU~1\AppData\Local\Temp\ccQ3AEax.s 			page 351


 19319      744D6173 
 19319      6B00
 19320              	.LASF414:
 19321 0ba6 74687265 		.ascii	"threads\000"
 19321      61647300 
 19322              	.LASF470:
 19323 0bae 7278646D 		.ascii	"rxdmamode\000"
 19323      616D6F64 
 19323      6500
 19324              	.LASF82:
 19325 0bb8 5F726573 		.ascii	"_result_k\000"
 19325      756C745F 
 19325      6B00
 19326              	.LASF74:
 19327 0bc2 5F737464 		.ascii	"_stderr\000"
 19327      65727200 
 19328              	.LASF81:
 19329 0bca 5F726573 		.ascii	"_result\000"
 19329      756C7400 
 19330              	.LASF697:
 19331 0bd2 5F5F5041 		.ascii	"__PAD__\000"
 19331      445F5F00 
 19332              	.LASF747:
 19333 0bda 75385072 		.ascii	"u8Priority\000"
 19333      696F7269 
 19333      747900
 19334              	.LASF594:
 19335 0be5 4D324D5F 		.ascii	"M2M_WIFI_REQ_SET_ENABLE_LOGS\000"
 19335      57494649 
 19335      5F524551 
 19335      5F534554 
 19335      5F454E41 
 19336              	.LASF44:
 19337 0c02 5F64736F 		.ascii	"_dso_handle\000"
 19337      5F68616E 
 19337      646C6500 
 19338              	.LASF546:
 19339 0c0e 73737061 		.ascii	"sspad\000"
 19339      6400
 19340              	.LASF415:
 19341 0c14 70616C65 		.ascii	"palevent_t\000"
 19341      76656E74 
 19341      5F7400
 19342              	.LASF438:
 19343 0c1f 67707466 		.ascii	"gptfreq_t\000"
 19343      7265715F 
 19343      7400
 19344              	.LASF39:
 19345 0c29 5F5F746D 		.ascii	"__tm_wday\000"
 19345      5F776461 
 19345      7900
 19346              	.LASF41:
 19347 0c33 5F5F746D 		.ascii	"__tm_isdst\000"
 19347      5F697364 
 19347      737400
 19348              	.LASF271:
 19349 0c3e 73746B61 		.ascii	"stkalign_t\000"
ARM GAS  C:\Users\RAKIBU~1\AppData\Local\Temp\ccQ3AEax.s 			page 352


 19349      6C69676E 
 19349      5F7400
 19350              	.LASF695:
 19351 0c49 756E6941 		.ascii	"uniAuth\000"
 19351      75746800 
 19352              	.LASF877:
 19353 0c51 6D326D5F 		.ascii	"m2m_wifi_get_mac_address\000"
 19353      77696669 
 19353      5F676574 
 19353      5F6D6163 
 19353      5F616464 
 19354              	.LASF811:
 19355 0c6a 75384472 		.ascii	"u8DriverMajor\000"
 19355      69766572 
 19355      4D616A6F 
 19355      7200
 19356              	.LASF482:
 19357 0c78 5254435F 		.ascii	"RTC_EVENT_TS_OVF\000"
 19357      4556454E 
 19357      545F5453 
 19357      5F4F5646 
 19357      00
 19358              	.LASF544:
 19359 0c89 656E645F 		.ascii	"end_cb\000"
 19359      636200
 19360              	.LASF1:
 19361 0c90 756E7369 		.ascii	"unsigned char\000"
 19361      676E6564 
 19361      20636861 
 19361      7200
 19362              	.LASF73:
 19363 0c9e 5F737464 		.ascii	"_stdout\000"
 19363      6F757400 
 19364              	.LASF986:
 19365 0ca6 6D326D5F 		.ascii	"m2m_memset\000"
 19365      6D656D73 
 19365      657400
 19366              	.LASF260:
 19367 0cb1 4649464F 		.ascii	"FIFO\000"
 19367      00
 19368              	.LASF896:
 19369 0cb6 7538436D 		.ascii	"u8Cmd\000"
 19369      6400
 19370              	.LASF818:
 19371 0cbc 74737472 		.ascii	"tstrM2mRev\000"
 19371      4D326D52 
 19371      657600
 19372              	.LASF173:
 19373 0cc7 72656164 		.ascii	"ready_list_t\000"
 19373      795F6C69 
 19373      73745F74 
 19373      00
 19374              	.LASF149:
 19375 0cd4 63685F74 		.ascii	"ch_thread\000"
 19375      68726561 
 19375      6400
 19376              	.LASF455:
ARM GAS  C:\Users\RAKIBU~1\AppData\Local\Temp\ccQ3AEax.s 			page 353


 19377 0cde 4F504D4F 		.ascii	"OPMODE_SMBUS_HOST\000"
 19377      44455F53 
 19377      4D425553 
 19377      5F484F53 
 19377      5400
 19378              	.LASF698:
 19379 0cf0 74737472 		.ascii	"tstrM2MWifiSecInfo\000"
 19379      4D324D57 
 19379      69666953 
 19379      6563496E 
 19379      666F00
 19380              	.LASF958:
 19381 0d03 73747243 		.ascii	"strConnInfo\000"
 19381      6F6E6E49 
 19381      6E666F00 
 19382              	.LASF116:
 19383 0d0f 5F6D6273 		.ascii	"_mbsrtowcs_state\000"
 19383      72746F77 
 19383      63735F73 
 19383      74617465 
 19383      00
 19384              	.LASF910:
 19385 0d20 5363616E 		.ascii	"ScanRegion\000"
 19385      52656769 
 19385      6F6E00
 19386              	.LASF30:
 19387 0d2b 5F776473 		.ascii	"_wds\000"
 19387      00
 19388              	.LASF224:
 19389 0d30 424B5030 		.ascii	"BKP0R\000"
 19389      5200
 19390              	.LASF876:
 19391 0d36 73747252 		.ascii	"strReqScanRlt\000"
 19391      65715363 
 19391      616E526C 
 19391      7400
 19392              	.LASF820:
 19393 0d44 74706641 		.ascii	"tpfAppEthCb\000"
 19393      70704574 
 19393      68436200 
 19394              	.LASF727:
 19395 0d50 74737472 		.ascii	"tstrM2mReqScanResult\000"
 19395      4D326D52 
 19395      65715363 
 19395      616E5265 
 19395      73756C74 
 19396              	.LASF981:
 19397 0d65 6869665F 		.ascii	"hif_register_cb\000"
 19397      72656769 
 19397      73746572 
 19397      5F636200 
 19398              	.LASF585:
 19399 0d75 4D324D5F 		.ascii	"M2M_WIFI_REQ_SCAN\000"
 19399      57494649 
 19399      5F524551 
 19399      5F534341 
 19399      4E00
ARM GAS  C:\Users\RAKIBU~1\AppData\Local\Temp\ccQ3AEax.s 			page 354


 19400              	.LASF52:
 19401 0d87 5F73697A 		.ascii	"_size\000"
 19401      6500
 19402              	.LASF352:
 19403 0d8d 706F6F6C 		.ascii	"pool_header\000"
 19403      5F686561 
 19403      64657200 
 19404              	.LASF184:
 19405 0d99 73797374 		.ascii	"system_debug_t\000"
 19405      656D5F64 
 19405      65627567 
 19405      5F7400
 19406              	.LASF903:
 19407 0da8 45584954 		.ascii	"EXIT\000"
 19407      00
 19408              	.LASF275:
 19409 0dad 44494552 		.ascii	"DIER\000"
 19409      00
 19410              	.LASF798:
 19411 0db2 75384461 		.ascii	"u8DataLen\000"
 19411      74614C65 
 19411      6E00
 19412              	.LASF499:
 19413 0dbc 73647374 		.ascii	"sdstate_t\000"
 19413      6174655F 
 19413      7400
 19414              	.LASF179:
 19415 0dc6 64656C74 		.ascii	"delta\000"
 19415      6100
 19416              	.LASF643:
 19417 0dcc 4D324D5F 		.ascii	"M2M_SSL_REQ_ECC\000"
 19417      53534C5F 
 19417      5245515F 
 19417      45434300 
 19418              	.LASF916:
 19419 0ddc 6D326D5F 		.ascii	"m2m_wifi_set_lsn_int\000"
 19419      77696669 
 19419      5F736574 
 19419      5F6C736E 
 19419      5F696E74 
 19420              	.LASF59:
 19421 0df1 5F777269 		.ascii	"_write\000"
 19421      746500
 19422              	.LASF264:
 19423 0df8 54584352 		.ascii	"TXCRCR\000"
 19423      435200
 19424              	.LASF222:
 19425 0dff 414C524D 		.ascii	"ALRMBSSR\000"
 19425      42535352 
 19425      00
 19426              	.LASF635:
 19427 0e08 4D324D5F 		.ascii	"M2M_WIFI_REQ_CLIENT_CTRL\000"
 19427      57494649 
 19427      5F524551 
 19427      5F434C49 
 19427      454E545F 
 19428              	.LASF880:
ARM GAS  C:\Users\RAKIBU~1\AppData\Local\Temp\ccQ3AEax.s 			page 355


 19429 0e21 70753849 		.ascii	"pu8IsValid\000"
 19429      7356616C 
 19429      696400
 19430              	.LASF923:
 19431 0e2c 6D326D5F 		.ascii	"m2m_wifi_set_static_ip\000"
 19431      77696669 
 19431      5F736574 
 19431      5F737461 
 19431      7469635F 
 19432              	.LASF745:
 19433 0e43 75384672 		.ascii	"u8FrameSubtype\000"
 19433      616D6553 
 19433      75627479 
 19433      706500
 19434              	.LASF781:
 19435 0e52 75385374 		.ascii	"u8Status\000"
 19435      61747573 
 19435      00
 19436              	.LASF459:
 19437 0e5b 46415354 		.ascii	"FAST_DUTY_CYCLE_16_9\000"
 19437      5F445554 
 19437      595F4359 
 19437      434C455F 
 19437      31365F39 
 19438              	.LASF714:
 19439 0e70 75385072 		.ascii	"u8ProbesPerSlot\000"
 19439      6F626573 
 19439      50657253 
 19439      6C6F7400 
 19440              	.LASF131:
 19441 0e80 75696E74 		.ascii	"uint64_t\000"
 19441      36345F74 
 19441      00
 19442              	.LASF304:
 19443 0e89 6E5F6374 		.ascii	"n_ctxswc\000"
 19443      78737763 
 19443      00
 19444              	.LASF720:
 19445 0e92 5F5F5253 		.ascii	"__RSVD8__\000"
 19445      5644385F 
 19445      5F00
 19446              	.LASF226:
 19447 0e9c 424B5032 		.ascii	"BKP2R\000"
 19447      5200
 19448              	.LASF774:
 19449 0ea2 75333244 		.ascii	"u32DhcpLeaseTime\000"
 19449      6863704C 
 19449      65617365 
 19449      54696D65 
 19449      00
 19450              	.LASF215:
 19451 0eb3 53484946 		.ascii	"SHIFTR\000"
 19451      545200
 19452              	.LASF488:
 19453 0eba 72746363 		.ascii	"rtccb_t\000"
 19453      625F7400 
 19454              	.LASF780:
ARM GAS  C:\Users\RAKIBU~1\AppData\Local\Temp\ccQ3AEax.s 			page 356


 19455 0ec2 61753850 		.ascii	"au8Password\000"
 19455      61737377 
 19455      6F726400 
 19456              	.LASF805:
 19457 0ece 61737472 		.ascii	"astrTlsCrl\000"
 19457      546C7343 
 19457      726C00
 19458              	.LASF399:
 19459 0ed9 70735F6F 		.ascii	"ps_offset_t\000"
 19459      66667365 
 19459      745F7400 
 19460              	.LASF699:
 19461 0ee5 73747253 		.ascii	"strSec\000"
 19461      656300
 19462              	.LASF743:
 19463 0eec 74737472 		.ascii	"tstrM2mLsnInt\000"
 19463      4D326D4C 
 19463      736E496E 
 19463      7400
 19464              	.LASF382:
 19465 0efa 424C4B5F 		.ascii	"BLK_ACTIVE\000"
 19465      41435449 
 19465      564500
 19466              	.LASF38:
 19467 0f05 5F5F746D 		.ascii	"__tm_year\000"
 19467      5F796561 
 19467      7200
 19468              	.LASF339:
 19469 0f0f 6576656E 		.ascii	"event_listener_t\000"
 19469      745F6C69 
 19469      7374656E 
 19469      65725F74 
 19469      00
 19470              	.LASF396:
 19471 0f20 50535F45 		.ascii	"PS_ERROR_VERIFY\000"
 19471      52524F52 
 19471      5F564552 
 19471      49465900 
 19472              	.LASF679:
 19473 0f30 5750535F 		.ascii	"WPS_PIN_TRIGGER\000"
 19473      50494E5F 
 19473      54524947 
 19473      47455200 
 19474              	.LASF227:
 19475 0f40 424B5033 		.ascii	"BKP3R\000"
 19475      5200
 19476              	.LASF922:
 19477 0f46 6D326D5F 		.ascii	"m2m_wifi_request_dhcp_client\000"
 19477      77696669 
 19477      5F726571 
 19477      75657374 
 19477      5F646863 
 19478              	.LASF263:
 19479 0f63 52584352 		.ascii	"RXCRCR\000"
 19479      435200
 19480              	.LASF604:
 19481 0f6a 4D324D5F 		.ascii	"M2M_WIFI_REQ_PASSIVE_SCAN\000"
ARM GAS  C:\Users\RAKIBU~1\AppData\Local\Temp\ccQ3AEax.s 			page 357


 19481      57494649 
 19481      5F524551 
 19481      5F504153 
 19481      53495645 
 19482              	.LASF99:
 19483 0f84 5F6D756C 		.ascii	"_mult\000"
 19483      7400
 19484              	.LASF316:
 19485 0f8a 63685F6D 		.ascii	"ch_mutex\000"
 19485      75746578 
 19485      00
 19486              	.LASF890:
 19487 0f93 6D326D5F 		.ascii	"m2m_wifi_p2p_disconnect\000"
 19487      77696669 
 19487      5F703270 
 19487      5F646973 
 19487      636F6E6E 
 19488              	.LASF978:
 19489 0fab 6E6D5F64 		.ascii	"nm_drv_deinit\000"
 19489      72765F64 
 19489      65696E69 
 19489      7400
 19490              	.LASF675:
 19491 0fb9 4D324D5F 		.ascii	"M2M_WIFI_MODE_ATE_HIGH\000"
 19491      57494649 
 19491      5F4D4F44 
 19491      455F4154 
 19491      455F4849 
 19492              	.LASF114:
 19493 0fd0 5F6D6272 		.ascii	"_mbrlen_state\000"
 19493      6C656E5F 
 19493      73746174 
 19493      6500
 19494              	.LASF800:
 19495 0fde 74737472 		.ascii	"tstrTlsCrlEntry\000"
 19495      546C7343 
 19495      726C456E 
 19495      74727900 
 19496              	.LASF612:
 19497 0fee 4D324D5F 		.ascii	"M2M_WIFI_REQ_WPS_SCAN\000"
 19497      57494649 
 19497      5F524551 
 19497      5F575053 
 19497      5F534341 
 19498              	.LASF934:
 19499 1004 70737472 		.ascii	"pstrAuthInfo\000"
 19499      41757468 
 19499      496E666F 
 19499      00
 19500              	.LASF849:
 19501 1011 6D326D5F 		.ascii	"m2m_wifi_get_sytem_time\000"
 19501      77696669 
 19501      5F676574 
 19501      5F737974 
 19501      656D5F74 
 19502              	.LASF228:
 19503 1029 424B5034 		.ascii	"BKP4R\000"
ARM GAS  C:\Users\RAKIBU~1\AppData\Local\Temp\ccQ3AEax.s 			page 358


 19503      5200
 19504              	.LASF611:
 19505 102f 4D324D5F 		.ascii	"M2M_WIFI_REQ_SLEEP\000"
 19505      57494649 
 19505      5F524551 
 19505      5F534C45 
 19505      455000
 19506              	.LASF855:
 19507 1042 70737472 		.ascii	"pstrAPConfig\000"
 19507      4150436F 
 19507      6E666967 
 19507      00
 19508              	.LASF928:
 19509 104f 6D326D5F 		.ascii	"m2m_wifi_disconnect\000"
 19509      77696669 
 19509      5F646973 
 19509      636F6E6E 
 19509      65637400 
 19510              	.LASF72:
 19511 1063 5F737464 		.ascii	"_stdin\000"
 19511      696E00
 19512              	.LASF362:
 19513 106a 6F626A5F 		.ascii	"obj_list\000"
 19513      6C697374 
 19513      00
 19514              	.LASF788:
 19515 1073 75384D6F 		.ascii	"u8Month\000"
 19515      6E746800 
 19516              	.LASF121:
 19517 107b 5F6E6D61 		.ascii	"_nmalloc\000"
 19517      6C6C6F63 
 19517      00
 19518              	.LASF441:
 19519 1084 64696572 		.ascii	"dier\000"
 19519      00
 19520              	.LASF527:
 19521 1089 69735F70 		.ascii	"is_protected\000"
 19521      726F7465 
 19521      63746564 
 19521      00
 19522              	.LASF366:
 19523 1096 73656D5F 		.ascii	"sem_pool\000"
 19523      706F6F6C 
 19523      00
 19524              	.LASF693:
 19525 109f 73747257 		.ascii	"strWepInfo\000"
 19525      6570496E 
 19525      666F00
 19526              	.LASF177:
 19527 10aa 76697274 		.ascii	"virtual_timer_t\000"
 19527      75616C5F 
 19527      74696D65 
 19527      725F7400 
 19528              	.LASF678:
 19529 10ba 4D324D5F 		.ascii	"M2M_WIFI_MODE_MAX\000"
 19529      57494649 
 19529      5F4D4F44 
ARM GAS  C:\Users\RAKIBU~1\AppData\Local\Temp\ccQ3AEax.s 			page 359


 19529      455F4D41 
 19529      5800
 19530              	.LASF827:
 19531 10cc 74737472 		.ascii	"tstrEthInitParam\000"
 19531      45746849 
 19531      6E697450 
 19531      6172616D 
 19531      00
 19532              	.LASF797:
 19533 10dd 74737472 		.ascii	"tstrPrng\000"
 19533      50726E67 
 19533      00
 19534              	.LASF638:
 19535 10e6 4D324D5F 		.ascii	"M2M_WIFI_MAX_SERVER_ALL\000"
 19535      57494649 
 19535      5F4D4158 
 19535      5F534552 
 19535      5645525F 
 19536              	.LASF229:
 19537 10fe 424B5035 		.ascii	"BKP5R\000"
 19537      5200
 19538              	.LASF375:
 19539 1104 73686966 		.ascii	"shift\000"
 19539      7400
 19540              	.LASF753:
 19541 110a 75313646 		.ascii	"u16FrameLength\000"
 19541      72616D65 
 19541      4C656E67 
 19541      746800
 19542              	.LASF942:
 19543 1119 6D326D5F 		.ascii	"m2m_wifi_init\000"
 19543      77696669 
 19543      5F696E69 
 19543      7400
 19544              	.LASF137:
 19545 1127 7274636E 		.ascii	"rtcnt_t\000"
 19545      745F7400 
 19546              	.LASF467:
 19547 112f 6D757465 		.ascii	"mutex\000"
 19547      7800
 19548              	.LASF293:
 19549 1135 73697A65 		.ascii	"size\000"
 19549      00
 19550              	.LASF857:
 19551 113a 62456E61 		.ascii	"bEnableHttpRedirect\000"
 19551      626C6548 
 19551      74747052 
 19551      65646972 
 19551      65637400 
 19552              	.LASF919:
 19553 114e 75384468 		.ascii	"u8DhcpEn\000"
 19553      6370456E 
 19553      00
 19554              	.LASF318:
 19555 1157 63685F69 		.ascii	"ch_idle_thread_wa\000"
 19555      646C655F 
 19555      74687265 
ARM GAS  C:\Users\RAKIBU~1\AppData\Local\Temp\ccQ3AEax.s 			page 360


 19555      61645F77 
 19555      6100
 19556              	.LASF946:
 19557 1169 5F455849 		.ascii	"_EXIT1\000"
 19557      543100
 19558              	.LASF436:
 19559 1170 636C6F63 		.ascii	"clock\000"
 19559      6B00
 19560              	.LASF317:
 19561 1176 6F776E65 		.ascii	"owner\000"
 19561      7200
 19562              	.LASF929:
 19563 117c 6D326D5F 		.ascii	"m2m_wifi_connect_sc\000"
 19563      77696669 
 19563      5F636F6E 
 19563      6E656374 
 19563      5F736300 
 19564              	.LASF17:
 19565 1190 5F6F6666 		.ascii	"_off_t\000"
 19565      5F7400
 19566              	.LASF230:
 19567 1197 424B5036 		.ascii	"BKP6R\000"
 19567      5200
 19568              	.LASF971:
 19569 119d 6869665F 		.ascii	"hif_chip_sleep\000"
 19569      63686970 
 19569      5F736C65 
 19569      657000
 19570              	.LASF497:
 19571 11ac 53445F53 		.ascii	"SD_STOP\000"
 19571      544F5000 
 19572              	.LASF14:
 19573 11b4 73697A65 		.ascii	"size_t\000"
 19573      5F7400
 19574              	.LASF104:
 19575 11bb 5F6C6F63 		.ascii	"_localtime_buf\000"
 19575      616C7469 
 19575      6D655F62 
 19575      756600
 19576              	.LASF22:
 19577 11ca 5F5F636F 		.ascii	"__count\000"
 19577      756E7400 
 19578              	.LASF319:
 19579 11d2 6964656E 		.ascii	"identifier\000"
 19579      74696669 
 19579      657200
 19580              	.LASF127:
 19581 11dd 75696E74 		.ascii	"uint8_t\000"
 19581      385F7400 
 19582              	.LASF629:
 19583 11e5 4D324D5F 		.ascii	"M2M_WIFI_MAX_AP_ALL\000"
 19583      57494649 
 19583      5F4D4158 
 19583      5F41505F 
 19583      414C4C00 
 19584              	.LASF353:
 19585 11f9 6F626A65 		.ascii	"object_size\000"
ARM GAS  C:\Users\RAKIBU~1\AppData\Local\Temp\ccQ3AEax.s 			page 361


 19585      63745F73 
 19585      697A6500 
 19586              	.LASF231:
 19587 1205 424B5037 		.ascii	"BKP7R\000"
 19587      5200
 19588              	.LASF704:
 19589 120b 75385472 		.ascii	"u8TriggerType\000"
 19589      69676765 
 19589      72547970 
 19589      6500
 19590              	.LASF309:
 19591 1219 65786974 		.ascii	"exitcode\000"
 19591      636F6465 
 19591      00
 19592              	.LASF486:
 19593 1222 5254435F 		.ascii	"RTC_EVENT_WAKEUP\000"
 19593      4556454E 
 19593      545F5741 
 19593      4B455550 
 19593      00
 19594              	.LASF522:
 19595 1233 73637261 		.ascii	"scratchpad\000"
 19595      74636870 
 19595      616400
 19596              	.LASF86:
 19597 123e 5F637674 		.ascii	"_cvtbuf\000"
 19597      62756600 
 19598              	.LASF400:
 19599 1246 696F5F71 		.ascii	"io_queue_t\000"
 19599      75657565 
 19599      5F7400
 19600              	.LASF764:
 19601 1251 6175384B 		.ascii	"au8Key\000"
 19601      657900
 19602              	.LASF297:
 19603 1258 746D5F63 		.ascii	"tm_calibration_t\000"
 19603      616C6962 
 19603      72617469 
 19603      6F6E5F74 
 19603      00
 19604              	.LASF839:
 19605 1269 7374724D 		.ascii	"strM2mBattVol\000"
 19605      326D4261 
 19605      7474566F 
 19605      6C00
 19606              	.LASF368:
 19607 1277 6669666F 		.ascii	"fifo_list\000"
 19607      5F6C6973 
 19607      7400
 19608              	.LASF445:
 19609 1281 4932435F 		.ascii	"I2C_STOP\000"
 19609      53544F50 
 19609      00
 19610              	.LASF469:
 19611 128a 61646472 		.ascii	"addr\000"
 19611      00
 19612              	.LASF758:
ARM GAS  C:\Users\RAKIBU~1\AppData\Local\Temp\ccQ3AEax.s 			page 362


 19613 128f 75313648 		.ascii	"u16HeaderLength\000"
 19613      65616465 
 19613      724C656E 
 19613      67746800 
 19614              	.LASF726:
 19615 129f 7538496E 		.ascii	"u8Index\000"
 19615      64657800 
 19616              	.LASF651:
 19617 12a7 4D324D5F 		.ascii	"M2M_WIFI_SEC_WPA_PSK\000"
 19617      57494649 
 19617      5F534543 
 19617      5F575041 
 19617      5F50534B 
 19618              	.LASF744:
 19619 12bc 75384672 		.ascii	"u8FrameType\000"
 19619      616D6554 
 19619      79706500 
 19620              	.LASF232:
 19621 12c8 424B5038 		.ascii	"BKP8R\000"
 19621      5200
 19622              	.LASF937:
 19623 12ce 7531364B 		.ascii	"u16KeyLen\000"
 19623      65794C65 
 19623      6E00
 19624              	.LASF341:
 19625 12d8 6C697374 		.ascii	"listener\000"
 19625      656E6572 
 19625      00
 19626              	.LASF268:
 19627 12e1 47545052 		.ascii	"GTPR\000"
 19627      00
 19628              	.LASF813:
 19629 12e6 75384472 		.ascii	"u8DriverPatch\000"
 19629      69766572 
 19629      50617463 
 19629      6800
 19630              	.LASF419:
 19631 12f4 4F535045 		.ascii	"OSPEEDR\000"
 19631      45445200 
 19632              	.LASF21:
 19633 12fc 5F5F7763 		.ascii	"__wchb\000"
 19633      686200
 19634              	.LASF115:
 19635 1303 5F6D6272 		.ascii	"_mbrtowc_state\000"
 19635      746F7763 
 19635      5F737461 
 19635      746500
 19636              	.LASF35:
 19637 1312 5F5F746D 		.ascii	"__tm_hour\000"
 19637      5F686F75 
 19637      7200
 19638              	.LASF791:
 19639 131c 75384D69 		.ascii	"u8Minute\000"
 19639      6E757465 
 19639      00
 19640              	.LASF381:
 19641 1325 424C4B5F 		.ascii	"BLK_STOP\000"
ARM GAS  C:\Users\RAKIBU~1\AppData\Local\Temp\ccQ3AEax.s 			page 363


 19641      53544F50 
 19641      00
 19642              	.LASF506:
 19643 132e 53657269 		.ascii	"SerialDriverVMT\000"
 19643      616C4472 
 19643      69766572 
 19643      564D5400 
 19644              	.LASF322:
 19645 133e 70747273 		.ascii	"ptrsize\000"
 19645      697A6500 
 19646              	.LASF19:
 19647 1346 77696E74 		.ascii	"wint_t\000"
 19647      5F7400
 19648              	.LASF756:
 19649 134d 74737472 		.ascii	"tstrM2MWifiRxPacketInfo\000"
 19649      4D324D57 
 19649      69666952 
 19649      78506163 
 19649      6B657449 
 19650              	.LASF528:
 19651 1365 636F6E6E 		.ascii	"connect\000"
 19651      65637400 
 19652              	.LASF87:
 19653 136d 5F6E6577 		.ascii	"_new\000"
 19653      00
 19654              	.LASF831:
 19655 1372 67753843 		.ascii	"gu8ChNum\000"
 19655      684E756D 
 19655      00
 19656              	.LASF233:
 19657 137b 424B5039 		.ascii	"BKP9R\000"
 19657      5200
 19658              	.LASF803:
 19659 1381 75385273 		.ascii	"u8Rsv2\000"
 19659      763200
 19660              	.LASF804:
 19661 1388 75385273 		.ascii	"u8Rsv3\000"
 19661      763300
 19662              	.LASF844:
 19663 138f 6D326D5F 		.ascii	"m2m_wifi_set_power_profile\000"
 19663      77696669 
 19663      5F736574 
 19663      5F706F77 
 19663      65725F70 
 19664              	.LASF989:
 19665 13aa 433A5C55 		.ascii	"C:\\Users\\RakibulChowdhury\\OneDrive - DIAS Geophy"
 19665      73657273 
 19665      5C52616B 
 19665      6962756C 
 19665      43686F77 
 19666 13da 73696361 		.ascii	"sical\\Dias32FirmwareDevelopment\\FirmwareRepo\\Dia"
 19666      6C5C4469 
 19666      61733332 
 19666      4669726D 
 19666      77617265 
 19667 140a 73333257 		.ascii	"s32Workspace\\DIAS-Gen2-Rakibul\000"
 19667      6F726B73 
ARM GAS  C:\Users\RAKIBU~1\AppData\Local\Temp\ccQ3AEax.s 			page 364


 19667      70616365 
 19667      5C444941 
 19667      532D4765 
 19668              	.LASF95:
 19669 1429 5F6E696F 		.ascii	"_niobs\000"
 19669      627300
 19670              	.LASF685:
 19671 1430 75384B65 		.ascii	"u8KeySz\000"
 19671      79537A00 
 19672              	.LASF606:
 19673 1438 4D324D5F 		.ascii	"M2M_WIFI_REQ_CONNECT\000"
 19673      57494649 
 19673      5F524551 
 19673      5F434F4E 
 19673      4E454354 
 19674              	.LASF489:
 19675 144d 52544344 		.ascii	"RTCDriverVMT\000"
 19675      72697665 
 19675      72564D54 
 19675      00
 19676              	.LASF681:
 19677 145a 75385050 		.ascii	"u8PPAGFor11B\000"
 19677      4147466F 
 19677      72313142 
 19677      00
 19678              	.LASF900:
 19679 1467 6D326D5F 		.ascii	"m2m_wifi_request_scan_ssid_list\000"
 19679      77696669 
 19679      5F726571 
 19679      75657374 
 19679      5F736361 
 19680              	.LASF553:
 19681 1487 75385478 		.ascii	"u8TxPwrLevel\000"
 19681      5077724C 
 19681      6576656C 
 19681      00
 19682              	.LASF71:
 19683 1494 5F657272 		.ascii	"_errno\000"
 19683      6E6F00
 19684              	.LASF220:
 19685 149b 54414643 		.ascii	"TAFCR\000"
 19685      5200
 19686              	.LASF584:
 19687 14a1 4D324D5F 		.ascii	"M2M_WIFI_REQ_CUST_INFO_ELEMENT\000"
 19687      57494649 
 19687      5F524551 
 19687      5F435553 
 19687      545F494E 
 19688              	.LASF952:
 19689 14c0 75384F70 		.ascii	"u8OpCode\000"
 19689      436F6465 
 19689      00
 19690              	.LASF350:
 19691 14c9 6D656D63 		.ascii	"memcore_t\000"
 19691      6F72655F 
 19691      7400
 19692              	.LASF36:
ARM GAS  C:\Users\RAKIBU~1\AppData\Local\Temp\ccQ3AEax.s 			page 365


 19693 14d3 5F5F746D 		.ascii	"__tm_mday\000"
 19693      5F6D6461 
 19693      7900
 19694              	.LASF373:
 19695 14dd 69666372 		.ascii	"ifcr\000"
 19695      00
 19696              	.LASF672:
 19697 14e2 4D324D5F 		.ascii	"M2M_PS_DEEP_AUTOMATIC\000"
 19697      50535F44 
 19697      4545505F 
 19697      4155544F 
 19697      4D415449 
 19698              	.LASF425:
 19699 14f8 73746D33 		.ascii	"stm32_gpio_t\000"
 19699      325F6770 
 19699      696F5F74 
 19699      00
 19700              	.LASF308:
 19701 1505 7264796D 		.ascii	"rdymsg\000"
 19701      736700
 19702              	.LASF43:
 19703 150c 5F666E61 		.ascii	"_fnargs\000"
 19703      72677300 
 19704              	.LASF369:
 19705 1514 70697065 		.ascii	"pipe_list\000"
 19705      5F6C6973 
 19705      7400
 19706              	.LASF834:
 19707 151e 70753850 		.ascii	"pu8PrngBuff\000"
 19707      726E6742 
 19707      75666600 
 19708              	.LASF503:
 19709 152a 6F717565 		.ascii	"oqueue\000"
 19709      756500
 19710              	.LASF596:
 19711 1531 4D324D5F 		.ascii	"M2M_WIFI_RESP_GET_SYS_TIME\000"
 19711      57494649 
 19711      5F524553 
 19711      505F4745 
 19711      545F5359 
 19712              	.LASF918:
 19713 154c 6D326D5F 		.ascii	"m2m_wifi_enable_dhcp\000"
 19713      77696669 
 19713      5F656E61 
 19713      626C655F 
 19713      64686370 
 19714              	.LASF401:
 19715 1561 696F5F71 		.ascii	"io_queue\000"
 19715      75657565 
 19715      00
 19716              	.LASF11:
 19717 156a 5F5F7569 		.ascii	"__uint64_t\000"
 19717      6E743634 
 19717      5F7400
 19718              	.LASF325:
 19719 1575 6F66665F 		.ascii	"off_prio\000"
 19719      7072696F 
ARM GAS  C:\Users\RAKIBU~1\AppData\Local\Temp\ccQ3AEax.s 			page 366


 19719      00
 19720              	.LASF640:
 19721 157e 4D324D5F 		.ascii	"M2M_IP_REQ_ENABLE_DHCP\000"
 19721      49505F52 
 19721      45515F45 
 19721      4E41424C 
 19721      455F4448 
 19722              	.LASF395:
 19723 1595 50535F45 		.ascii	"PS_ERROR_WRITE\000"
 19723      52524F52 
 19723      5F575249 
 19723      544500
 19724              	.LASF892:
 19725 15a4 75384368 		.ascii	"u8Channel\000"
 19725      616E6E65 
 19725      6C00
 19726              	.LASF360:
 19727 15ae 64796E5F 		.ascii	"dyn_list_t\000"
 19727      6C697374 
 19727      5F7400
 19728              	.LASF633:
 19729 15b9 4D324D5F 		.ascii	"M2M_WIFI_REQ_P2P_REPOST\000"
 19729      57494649 
 19729      5F524551 
 19729      5F503250 
 19729      5F524550 
 19730              	.LASF27:
 19731 15d1 5F6E6578 		.ascii	"_next\000"
 19731      7400
 19732              	.LASF709:
 19733 15d7 74737472 		.ascii	"tstrM2MWPSInfo\000"
 19733      4D324D57 
 19733      5053496E 
 19733      666F00
 19734              	.LASF669:
 19735 15e6 4D324D5F 		.ascii	"M2M_NO_PS\000"
 19735      4E4F5F50 
 19735      5300
 19736              	.LASF657:
 19737 15f0 4D324D5F 		.ascii	"M2M_WIFI_CH_4\000"
 19737      57494649 
 19737      5F43485F 
 19737      3400
 19738              	.LASF112:
 19739 15fe 5F736967 		.ascii	"_signal_buf\000"
 19739      6E616C5F 
 19739      62756600 
 19740              	.LASF767:
 19741 160a 74737472 		.ascii	"tstrM2mSetMacAddress\000"
 19741      4D326D53 
 19741      65744D61 
 19741      63416464 
 19741      72657373 
 19742              	.LASF945:
 19743 161f 5F455849 		.ascii	"_EXIT0\000"
 19743      543000
 19744              	.LASF661:
ARM GAS  C:\Users\RAKIBU~1\AppData\Local\Temp\ccQ3AEax.s 			page 367


 19745 1626 4D324D5F 		.ascii	"M2M_WIFI_CH_8\000"
 19745      57494649 
 19745      5F43485F 
 19745      3800
 19746              	.LASF450:
 19747 1634 69326373 		.ascii	"i2cstate_t\000"
 19747      74617465 
 19747      5F7400
 19748              	.LASF57:
 19749 163f 5F636F6F 		.ascii	"_cookie\000"
 19749      6B696500 
 19750              	.LASF477:
 19751 1647 5F747A6E 		.ascii	"_tzname\000"
 19751      616D6500 
 19752              	.LASF947:
 19753 164f 6D326D5F 		.ascii	"m2m_wifi_send_crl\000"
 19753      77696669 
 19753      5F73656E 
 19753      645F6372 
 19753      6C00
 19754              	.LASF665:
 19755 1661 4D324D5F 		.ascii	"M2M_WIFI_CH_12\000"
 19755      57494649 
 19755      5F43485F 
 19755      313200
 19756              	.LASF582:
 19757 1670 4D324D5F 		.ascii	"M2M_WIFI_REQ_DISABLE_SNTP_CLIENT\000"
 19757      57494649 
 19757      5F524551 
 19757      5F444953 
 19757      41424C45 
 19758              	.LASF630:
 19759 1691 4D324D5F 		.ascii	"M2M_WIFI_REQ_P2P_INT_CONNECT\000"
 19759      57494649 
 19759      5F524551 
 19759      5F503250 
 19759      5F494E54 
 19760              	.LASF536:
 19761 16ae 5350495F 		.ascii	"SPI_ACTIVE\000"
 19761      41435449 
 19761      564500
 19762              	.LASF437:
 19763 16b9 67707463 		.ascii	"gptcallback_t\000"
 19763      616C6C62 
 19763      61636B5F 
 19763      7400
 19764              	.LASF404:
 19765 16c7 715F6275 		.ascii	"q_buffer\000"
 19765      66666572 
 19765      00
 19766              	.LASF524:
 19767 16d0 53444343 		.ascii	"SDCConfig\000"
 19767      6F6E6669 
 19767      6700
 19768              	.LASF879:
 19769 16da 6D326D5F 		.ascii	"m2m_wifi_get_otp_mac_address\000"
 19769      77696669 
ARM GAS  C:\Users\RAKIBU~1\AppData\Local\Temp\ccQ3AEax.s 			page 368


 19769      5F676574 
 19769      5F6F7470 
 19769      5F6D6163 
 19770              	.LASF474:
 19771 16f7 49324344 		.ascii	"I2CD1\000"
 19771      3100
 19772              	.LASF272:
 19773 16fd 706F7274 		.ascii	"port_context\000"
 19773      5F636F6E 
 19773      74657874 
 19773      00
 19774              	.LASF616:
 19775 170a 4D324D5F 		.ascii	"M2M_WIFI_REQ_DHCP_CONF\000"
 19775      57494649 
 19775      5F524551 
 19775      5F444843 
 19775      505F434F 
 19776              	.LASF835:
 19777 1721 73747252 		.ascii	"strRng\000"
 19777      6E6700
 19778              	.LASF825:
 19779 1728 75313665 		.ascii	"u16ethRcvBufSize\000"
 19779      74685263 
 19779      76427566 
 19779      53697A65 
 19779      00
 19780              	.LASF868:
 19781 1739 70735479 		.ascii	"psType\000"
 19781      706500
 19782              	.LASF141:
 19783 1740 74726566 		.ascii	"trefs_t\000"
 19783      735F7400 
 19784              	.LASF968:
 19785 1748 6D326D5F 		.ascii	"m2m_strlen\000"
 19785      7374726C 
 19785      656E00
 19786              	.LASF209:
 19787 1753 4932435F 		.ascii	"I2C_TypeDef\000"
 19787      54797065 
 19787      44656600 
 19788              	.LASF806:
 19789 175f 74737472 		.ascii	"tstrTlsCrlInfo\000"
 19789      546C7343 
 19789      726C496E 
 19789      666F00
 19790              	.LASF33:
 19791 176e 5F5F746D 		.ascii	"__tm_sec\000"
 19791      5F736563 
 19791      00
 19792              	.LASF936:
 19793 1777 70737472 		.ascii	"pstrWep\000"
 19793      57657000 
 19794              	.LASF42:
 19795 177f 5F6F6E5F 		.ascii	"_on_exit_args\000"
 19795      65786974 
 19795      5F617267 
 19795      7300
ARM GAS  C:\Users\RAKIBU~1\AppData\Local\Temp\ccQ3AEax.s 			page 369


 19796              	.LASF139:
 19797 178d 746D6F64 		.ascii	"tmode_t\000"
 19797      655F7400 
 19798              	.LASF950:
 19799 1795 6D326D5F 		.ascii	"m2m_validate_ap_parameters\000"
 19799      76616C69 
 19799      64617465 
 19799      5F61705F 
 19799      70617261 
 19800              	.LASF799:
 19801 17b0 61753844 		.ascii	"au8Data\000"
 19801      61746100 
 19802              	.LASF573:
 19803 17b8 4D324D5F 		.ascii	"M2M_WIFI_RESP_CURRENT_RSSI\000"
 19803      57494649 
 19803      5F524553 
 19803      505F4355 
 19803      5252454E 
 19804              	.LASF575:
 19805 17d3 4D324D5F 		.ascii	"M2M_WIFI_RESP_CONN_INFO\000"
 19805      57494649 
 19805      5F524553 
 19805      505F434F 
 19805      4E4E5F49 
 19806              	.LASF564:
 19807 17eb 4D324D5F 		.ascii	"M2M_REQ_GROUP_OTA\000"
 19807      5245515F 
 19807      47524F55 
 19807      505F4F54 
 19807      4100
 19808              	.LASF421:
 19809 17fd 42535252 		.ascii	"BSRR\000"
 19809      00
 19810              	.LASF378:
 19811 1802 73746D33 		.ascii	"stm32_dma_stream_t\000"
 19811      325F646D 
 19811      615F7374 
 19811      7265616D 
 19811      5F7400
 19812              	.LASF117:
 19813 1815 5F776372 		.ascii	"_wcrtomb_state\000"
 19813      746F6D62 
 19813      5F737461 
 19813      746500
 19814              	.LASF513:
 19815 1824 5344435F 		.ascii	"SDC_MODE_8BIT\000"
 19815      4D4F4445 
 19815      5F384249 
 19815      5400
 19816              	.LASF852:
 19817 1832 6D326D5F 		.ascii	"m2m_wifi_get_connection_info\000"
 19817      77696669 
 19817      5F676574 
 19817      5F636F6E 
 19817      6E656374 
 19818              	.LASF471:
 19819 184f 7478646D 		.ascii	"txdmamode\000"
ARM GAS  C:\Users\RAKIBU~1\AppData\Local\Temp\ccQ3AEax.s 			page 370


 19819      616D6F64 
 19819      6500
 19820              	.LASF920:
 19821 1859 6D326D5F 		.ascii	"m2m_wifi_request_dhcp_server\000"
 19821      77696669 
 19821      5F726571 
 19821      75657374 
 19821      5F646863 
 19822              	.LASF642:
 19823 1876 4D324D5F 		.ascii	"M2M_SSL_REQ_CERT_VERIF\000"
 19823      53534C5F 
 19823      5245515F 
 19823      43455254 
 19823      5F564552 
 19824              	.LASF587:
 19825 188d 4D324D5F 		.ascii	"M2M_WIFI_REQ_SCAN_RESULT\000"
 19825      57494649 
 19825      5F524551 
 19825      5F534341 
 19825      4E5F5245 
 19826              	.LASF690:
 19827 18a6 74737472 		.ascii	"tstr1xAuthCredentials\000"
 19827      31784175 
 19827      74684372 
 19827      6564656E 
 19827      7469616C 
 19828              	.LASF617:
 19829 18bc 4D324D5F 		.ascii	"M2M_WIFI_RESP_IP_CONFIGURED\000"
 19829      57494649 
 19829      5F524553 
 19829      505F4950 
 19829      5F434F4E 
 19830              	.LASF823:
 19831 18d8 70664170 		.ascii	"pfAppEthCb\000"
 19831      70457468 
 19831      436200
 19832              	.LASF658:
 19833 18e3 4D324D5F 		.ascii	"M2M_WIFI_CH_5\000"
 19833      57494649 
 19833      5F43485F 
 19833      3500
 19834              	.LASF982:
 19835 18f1 6D795072 		.ascii	"myPrintf\000"
 19835      696E7466 
 19835      00
 19836              	.LASF449:
 19837 18fa 4932435F 		.ascii	"I2C_LOCKED\000"
 19837      4C4F434B 
 19837      454400
 19838              	.LASF602:
 19839 1905 4D324D5F 		.ascii	"M2M_WIFI_REQ_SCAN_SSID_LIST\000"
 19839      57494649 
 19839      5F524551 
 19839      5F534341 
 19839      4E5F5353 
 19840              	.LASF187:
 19841 1921 6973725F 		.ascii	"isr_cnt\000"
ARM GAS  C:\Users\RAKIBU~1\AppData\Local\Temp\ccQ3AEax.s 			page 371


 19841      636E7400 
 19842              	.LASF817:
 19843 1929 5F504144 		.ascii	"_PAD16_\000"
 19843      31365F00 
 19844              	.LASF579:
 19845 1931 4D324D5F 		.ascii	"M2M_WIFI_REQ_STOP_PROVISION_MODE\000"
 19845      57494649 
 19845      5F524551 
 19845      5F53544F 
 19845      505F5052 
 19846              	.LASF938:
 19847 1952 6D326D5F 		.ascii	"m2m_wifi_connect\000"
 19847      77696669 
 19847      5F636F6E 
 19847      6E656374 
 19847      00
 19848              	.LASF558:
 19849 1963 5F5F5041 		.ascii	"__PAD16__\000"
 19849      4431365F 
 19849      5F00
 19850              	.LASF510:
 19851 196d 72656164 		.ascii	"readt\000"
 19851      7400
 19852              	.LASF154:
 19853 1973 6E616D65 		.ascii	"name\000"
 19853      00
 19854              	.LASF689:
 19855 1978 61753850 		.ascii	"au8Passwd\000"
 19855      61737377 
 19855      6400
 19856              	.LASF433:
 19857 1982 67707473 		.ascii	"gptstate_t\000"
 19857      74617465 
 19857      5F7400
 19858              	.LASF567:
 19859 198d 4D324D5F 		.ascii	"M2M_REQ_GROUP_SIGMA\000"
 19859      5245515F 
 19859      47524F55 
 19859      505F5349 
 19859      474D4100 
 19860              	.LASF26:
 19861 19a1 5F5F554C 		.ascii	"__ULong\000"
 19861      6F6E6700 
 19862              	.LASF186:
 19863 19a9 70616E69 		.ascii	"panic_msg\000"
 19863      635F6D73 
 19863      6700
 19864              	.LASF537:
 19865 19b3 5350495F 		.ascii	"SPI_COMPLETE\000"
 19865      434F4D50 
 19865      4C455445 
 19865      00
 19866              	.LASF830:
 19867 19c0 74737472 		.ascii	"tstrWifiInitParam\000"
 19867      57696669 
 19867      496E6974 
 19867      50617261 
ARM GAS  C:\Users\RAKIBU~1\AppData\Local\Temp\ccQ3AEax.s 			page 372


 19867      6D00
 19868              	.LASF252:
 19869 19d2 4454494D 		.ascii	"DTIMER\000"
 19869      455200
 19870              	.LASF851:
 19871 19d9 75333255 		.ascii	"u32UTCSeconds\000"
 19871      54435365 
 19871      636F6E64 
 19871      7300
 19872              	.LASF282:
 19873 19e7 43435852 		.ascii	"CCXR\000"
 19873      00
 19874              	.LASF135:
 19875 19ec 73696E74 		.ascii	"sint8\000"
 19875      3800
 19876              	.LASF769:
 19877 19f2 74737472 		.ascii	"tstrM2MDeviceNameConfig\000"
 19877      4D324D44 
 19877      65766963 
 19877      654E616D 
 19877      65436F6E 
 19878              	.LASF856:
 19879 1a0a 70634874 		.ascii	"pcHttpServerDomainName\000"
 19879      74705365 
 19879      72766572 
 19879      446F6D61 
 19879      696E4E61 
 19880              	.LASF529:
 19881 1a21 64697363 		.ascii	"disconnect\000"
 19881      6F6E6E65 
 19881      637400
 19882              	.LASF554:
 19883 1a2c 74737472 		.ascii	"tstrM2mTxPwrLevel\000"
 19883      4D326D54 
 19883      78507772 
 19883      4C657665 
 19883      6C00
 19884              	.LASF846:
 19885 1a3e 6D326D5F 		.ascii	"m2m_wifi_enable_sntp\000"
 19885      77696669 
 19885      5F656E61 
 19885      626C655F 
 19885      736E7470 
 19886              	.LASF599:
 19887 1a53 4D324D5F 		.ascii	"M2M_WIFI_REQ_SET_MAC_MCAST\000"
 19887      57494649 
 19887      5F524551 
 19887      5F534554 
 19887      5F4D4143 
 19888              	.LASF873:
 19889 1a6e 6D326D5F 		.ascii	"m2m_wifi_get_sleep_mode\000"
 19889      77696669 
 19889      5F676574 
 19889      5F736C65 
 19889      65705F6D 
 19890              	.LASF507:
 19891 1a86 70757474 		.ascii	"putt\000"
ARM GAS  C:\Users\RAKIBU~1\AppData\Local\Temp\ccQ3AEax.s 			page 373


 19891      00
 19892              	.LASF102:
 19893 1a8b 5F737472 		.ascii	"_strtok_last\000"
 19893      746F6B5F 
 19893      6C617374 
 19893      00
 19894              	.LASF927:
 19895 1a98 73747254 		.ascii	"strTmp\000"
 19895      6D7000
 19896              	.LASF712:
 19897 1a9f 75384E75 		.ascii	"u8NumOfSlot\000"
 19897      6D4F6653 
 19897      6C6F7400 
 19898              	.LASF913:
 19899 1aab 70747374 		.ascii	"ptstrM2MScanOption\000"
 19899      724D324D 
 19899      5363616E 
 19899      4F707469 
 19899      6F6E00
 19900              	.LASF258:
 19901 1abe 4649464F 		.ascii	"FIFOCNT\000"
 19901      434E5400 
 19902              	.LASF760:
 19903 1ac6 75384C69 		.ascii	"u8ListenChannel\000"
 19903      7374656E 
 19903      4368616E 
 19903      6E656C00 
 19904              	.LASF345:
 19905 1ad6 6576656E 		.ascii	"event_source_t\000"
 19905      745F736F 
 19905      75726365 
 19905      5F7400
 19906              	.LASF912:
 19907 1ae5 6D326D5F 		.ascii	"m2m_wifi_set_scan_options\000"
 19907      77696669 
 19907      5F736574 
 19907      5F736361 
 19907      6E5F6F70 
 19908              	.LASF98:
 19909 1aff 5F736565 		.ascii	"_seed\000"
 19909      6400
 19910              	.LASF784:
 19911 1b05 61753849 		.ascii	"au8IPAddr\000"
 19911      50416464 
 19911      7200
 19912              	.LASF765:
 19913 1b0f 74737472 		.ascii	"tstrM2MAPConfig\000"
 19913      4D324D41 
 19913      50436F6E 
 19913      66696700 
 19914              	.LASF60:
 19915 1b1f 5F736565 		.ascii	"_seek\000"
 19915      6B00
 19916              	.LASF429:
 19917 1b25 4750545F 		.ascii	"GPT_STOP\000"
 19917      53544F50 
 19917      00
ARM GAS  C:\Users\RAKIBU~1\AppData\Local\Temp\ccQ3AEax.s 			page 374


 19918              	.LASF911:
 19919 1b2e 73747253 		.ascii	"strScanRegion\000"
 19919      63616E52 
 19919      6567696F 
 19919      6E00
 19920              	.LASF5:
 19921 1b3c 73686F72 		.ascii	"short unsigned int\000"
 19921      7420756E 
 19921      7369676E 
 19921      65642069 
 19921      6E7400
 19922              	.LASF461:
 19923 1b4f 6F705F6D 		.ascii	"op_mode\000"
 19923      6F646500 
 19924              	.LASF763:
 19925 1b57 61753844 		.ascii	"au8DHCPServerIP\000"
 19925      48435053 
 19925      65727665 
 19925      72495000 
 19926              	.LASF0:
 19927 1b67 7369676E 		.ascii	"signed char\000"
 19927      65642063 
 19927      68617200 
 19928              	.LASF762:
 19929 1b73 75385373 		.ascii	"u8SsidHide\000"
 19929      69644869 
 19929      646500
 19930              	.LASF519:
 19931 1b7e 63617264 		.ascii	"cardmode\000"
 19931      6D6F6465 
 19931      00
 19932              	.LASF907:
 19933 1b87 7363616E 		.ascii	"scan_time\000"
 19933      5F74696D 
 19933      6500
 19934              	.LASF147:
 19935 1b91 75636E74 		.ascii	"ucnt_t\000"
 19935      5F7400
 19936              	.LASF963:
 19937 1b98 73747250 		.ascii	"strProvInfo\000"
 19937      726F7649 
 19937      6E666F00 
 19938              	.LASF175:
 19939 1ba4 63757272 		.ascii	"current\000"
 19939      656E7400 
 19940              	.LASF909:
 19941 1bac 6D326D5F 		.ascii	"m2m_wifi_set_scan_region\000"
 19941      77696669 
 19941      5F736574 
 19941      5F736361 
 19941      6E5F7265 
 19942              	.LASF225:
 19943 1bc5 424B5031 		.ascii	"BKP1R\000"
 19943      5200
 19944              	.LASF878:
 19945 1bcb 7075384D 		.ascii	"pu8MacAddr\000"
 19945      61634164 
ARM GAS  C:\Users\RAKIBU~1\AppData\Local\Temp\ccQ3AEax.s 			page 375


 19945      647200
 19946              	.LASF725:
 19947 1bd6 74737472 		.ascii	"tstrM2mScanDone\000"
 19947      4D326D53 
 19947      63616E44 
 19947      6F6E6500 
 19948              	.LASF335:
 19949 1be6 6F66665F 		.ascii	"off_time\000"
 19949      74696D65 
 19949      00
 19950              	.LASF253:
 19951 1bef 444C454E 		.ascii	"DLEN\000"
 19951      00
 19952              	.LASF512:
 19953 1bf4 5344435F 		.ascii	"SDC_MODE_4BIT\000"
 19953      4D4F4445 
 19953      5F344249 
 19953      5400
 19954              	.LASF884:
 19955 1c02 6D326D5F 		.ascii	"m2m_wifi_req_curr_rssi\000"
 19955      77696669 
 19955      5F726571 
 19955      5F637572 
 19955      725F7273 
 19956              	.LASF326:
 19957 1c19 6F66665F 		.ascii	"off_ctx\000"
 19957      63747800 
 19958              	.LASF547:
 19959 1c21 73706963 		.ascii	"spicallback_t\000"
 19959      616C6C62 
 19959      61636B5F 
 19959      7400
 19960              	.LASF688:
 19961 1c2f 61753855 		.ascii	"au8UserName\000"
 19961      7365724E 
 19961      616D6500 
 19962              	.LASF183:
 19963 1c3b 6C617374 		.ascii	"lasttime\000"
 19963      74696D65 
 19963      00
 19964              	.LASF84:
 19965 1c44 5F667265 		.ascii	"_freelist\000"
 19965      656C6973 
 19965      7400
 19966              	.LASF961:
 19967 1c4e 75333243 		.ascii	"u32ConflictedIP\000"
 19967      6F6E666C 
 19967      69637465 
 19967      64495000 
 19968              	.LASF618:
 19969 1c5e 4D324D5F 		.ascii	"M2M_WIFI_RESP_IP_CONFLICT\000"
 19969      57494649 
 19969      5F524553 
 19969      505F4950 
 19969      5F434F4E 
 19970              	.LASF160:
 19971 1c78 6D736771 		.ascii	"msgqueue\000"
ARM GAS  C:\Users\RAKIBU~1\AppData\Local\Temp\ccQ3AEax.s 			page 376


 19971      75657565 
 19971      00
 19972              	.LASF793:
 19973 1c81 5F5F5041 		.ascii	"__PAD8__\000"
 19973      44385F5F 
 19973      00
 19974              	.LASF848:
 19975 1c8a 75385265 		.ascii	"u8Req\000"
 19975      7100
 19976              	.LASF65:
 19977 1c90 5F6F6666 		.ascii	"_offset\000"
 19977      73657400 
 19978              	.LASF199:
 19979 1c98 53797374 		.ascii	"SystemCoreClock\000"
 19979      656D436F 
 19979      7265436C 
 19979      6F636B00 
 19980              	.LASF859:
 19981 1ca8 73747250 		.ascii	"strProvConfig\000"
 19981      726F7643 
 19981      6F6E6669 
 19981      6700
 19982              	.LASF156:
 19983 1cb6 73746174 		.ascii	"state\000"
 19983      6500
 19984              	.LASF165:
 19985 1cbc 73746174 		.ascii	"stats\000"
 19985      7300
 19986              	.LASF50:
 19987 1cc2 5F5F7362 		.ascii	"__sbuf\000"
 19987      756600
 19988              	.LASF988:
 19989 1cc9 2E2F7769 		.ascii	"./winc1500/driver/source/m2m_wifi.c\000"
 19989      6E633135 
 19989      30302F64 
 19989      72697665 
 19989      722F736F 
 19990              	.LASF111:
 19991 1ced 5F6C3634 		.ascii	"_l64a_buf\000"
 19991      615F6275 
 19991      6600
 19992              	.LASF733:
 19993 1cf7 74737472 		.ascii	"tstrM2mWifiscanResult\000"
 19993      4D326D57 
 19993      69666973 
 19993      63616E52 
 19993      6573756C 
 19994              	.LASF212:
 19995 1d0d 43414C49 		.ascii	"CALIBR\000"
 19995      425200
 19996              	.LASF280:
 19997 1d14 444D4152 		.ascii	"DMAR\000"
 19997      00
 19998              	.LASF440:
 19999 1d19 63616C6C 		.ascii	"callback\000"
 19999      6261636B 
 19999      00
ARM GAS  C:\Users\RAKIBU~1\AppData\Local\Temp\ccQ3AEax.s 			page 377


 20000              	.LASF191:
 20001 1d22 63685F73 		.ascii	"ch_system\000"
 20001      79737465 
 20001      6D00
 20002              	.LASF245:
 20003 1d2c 504F5745 		.ascii	"POWER\000"
 20003      5200
 20004              	.LASF807:
 20005 1d32 75333243 		.ascii	"u32Chipid\000"
 20005      68697069 
 20005      6400
 20006              	.LASF155:
 20007 1d3c 77616261 		.ascii	"wabase\000"
 20007      736500
 20008              	.LASF674:
 20009 1d43 4D324D5F 		.ascii	"M2M_WIFI_MODE_NORMAL\000"
 20009      57494649 
 20009      5F4D4F44 
 20009      455F4E4F 
 20009      524D414C 
 20010              	.LASF624:
 20011 1d58 4D324D5F 		.ascii	"M2M_WIFI_REQ_DOZE\000"
 20011      57494649 
 20011      5F524551 
 20011      5F444F5A 
 20011      4500
 20012              	.LASF103:
 20013 1d6a 5F617363 		.ascii	"_asctime_buf\000"
 20013      74696D65 
 20013      5F627566 
 20013      00
 20014              	.LASF180:
 20015 1d77 66756E63 		.ascii	"func\000"
 20015      00
 20016              	.LASF428:
 20017 1d7c 4750545F 		.ascii	"GPT_UNINIT\000"
 20017      554E494E 
 20017      495400
 20018              	.LASF20:
 20019 1d87 5F5F7763 		.ascii	"__wch\000"
 20019      6800
 20020              	.LASF286:
 20021 1d8d 68616C74 		.ascii	"halt\000"
 20021      00
 20022              	.LASF315:
 20023 1d92 63685F73 		.ascii	"ch_semaphore\000"
 20023      656D6170 
 20023      686F7265 
 20023      00
 20024              	.LASF974:
 20025 1d9f 6E6D695F 		.ascii	"nmi_get_mac_address\000"
 20025      6765745F 
 20025      6D61635F 
 20025      61646472 
 20025      65737300 
 20026              	.LASF118:
 20027 1db3 5F776373 		.ascii	"_wcsrtombs_state\000"
ARM GAS  C:\Users\RAKIBU~1\AppData\Local\Temp\ccQ3AEax.s 			page 378


 20027      72746F6D 
 20027      62735F73 
 20027      74617465 
 20027      00
 20028              	.LASF380:
 20029 1dc4 424C4B5F 		.ascii	"BLK_UNINIT\000"
 20029      554E494E 
 20029      495400
 20030              	.LASF332:
 20031 1dcf 6F66665F 		.ascii	"off_flags\000"
 20031      666C6167 
 20031      7300
 20032              	.LASF358:
 20033 1dd9 64796E5F 		.ascii	"dyn_element_t\000"
 20033      656C656D 
 20033      656E745F 
 20033      7400
 20034              	.LASF164:
 20035 1de7 6D706F6F 		.ascii	"mpool\000"
 20035      6C00
 20036              	.LASF926:
 20037 1ded 6175384D 		.ascii	"au8MacAddress\000"
 20037      61634164 
 20037      64726573 
 20037      7300
 20038              	.LASF889:
 20039 1dfb 70737472 		.ascii	"pstrM2MAPConfig\000"
 20039      4D324D41 
 20039      50436F6E 
 20039      66696700 
 20040              	.LASF768:
 20041 1e0b 61753844 		.ascii	"au8DeviceName\000"
 20041      65766963 
 20041      654E616D 
 20041      6500
 20042              	.LASF170:
 20043 1e19 74687265 		.ascii	"threads_queue_t\000"
 20043      6164735F 
 20043      71756575 
 20043      655F7400 
 20044              	.LASF389:
 20045 1e29 626C6B73 		.ascii	"blkstate_t\000"
 20045      74617465 
 20045      5F7400
 20046              	.LASF480:
 20047 1e34 5254435F 		.ascii	"RTC_EVENT_ALARM_B\000"
 20047      4556454E 
 20047      545F414C 
 20047      41524D5F 
 20047      4200
 20048              	.LASF290:
 20049 1e46 74696D65 		.ascii	"time\000"
 20049      00
 20050              	.LASF269:
 20051 1e4b 55534152 		.ascii	"USART_TypeDef\000"
 20051      545F5479 
 20051      70654465 
ARM GAS  C:\Users\RAKIBU~1\AppData\Local\Temp\ccQ3AEax.s 			page 379


 20051      6600
 20052              	.LASF568:
 20053 1e59 4D324D5F 		.ascii	"M2M_REQ_CONFIG_PKT\000"
 20053      5245515F 
 20053      434F4E46 
 20053      49475F50 
 20053      4B5400
 20054              	.LASF218:
 20055 1e6c 54535353 		.ascii	"TSSSR\000"
 20055      5200
 20056              	.LASF863:
 20057 1e72 70753844 		.ascii	"pu8DeviceName\000"
 20057      65766963 
 20057      654E616D 
 20057      6500
 20058              	.LASF7:
 20059 1e80 6C6F6E67 		.ascii	"long int\000"
 20059      20696E74 
 20059      00
 20060              	.LASF194:
 20061 1e89 6D61696E 		.ascii	"mainthread\000"
 20061      74687265 
 20061      616400
 20062              	.LASF861:
 20063 1e94 70737472 		.ascii	"pstrRev\000"
 20063      52657600 
 20064              	.LASF940:
 20065 1e9c 6D326D5F 		.ascii	"m2m_wifi_handle_events\000"
 20065      77696669 
 20065      5F68616E 
 20065      646C655F 
 20065      6576656E 
 20066              	.LASF933:
 20067 1eb3 73747243 		.ascii	"strConnect\000"
 20067      6F6E6E65 
 20067      637400
 20068              	.LASF692:
 20069 1ebe 73747243 		.ascii	"strCred1x\000"
 20069      72656431 
 20069      7800
 20070              	.LASF777:
 20071 1ec8 61634874 		.ascii	"acHttpServerDomainName\000"
 20071      74705365 
 20071      72766572 
 20071      446F6D61 
 20071      696E4E61 
 20072              	.LASF451:
 20073 1edf 69326361 		.ascii	"i2caddr_t\000"
 20073      6464725F 
 20073      7400
 20074              	.LASF110:
 20075 1ee9 5F776374 		.ascii	"_wctomb_state\000"
 20075      6F6D625F 
 20075      73746174 
 20075      6500
 20076              	.LASF434:
 20077 1ef7 47505444 		.ascii	"GPTDriver\000"
ARM GAS  C:\Users\RAKIBU~1\AppData\Local\Temp\ccQ3AEax.s 			page 380


 20077      72697665 
 20077      7200
 20078              	.LASF393:
 20079 1f01 50535F4E 		.ascii	"PS_NO_ERROR\000"
 20079      4F5F4552 
 20079      524F5200 
 20080              	.LASF893:
 20081 1f0d 73747274 		.ascii	"strtmp\000"
 20081      6D7000
 20082              	.LASF403:
 20083 1f14 715F636F 		.ascii	"q_counter\000"
 20083      756E7465 
 20083      7200
 20084              	.LASF426:
 20085 1f1e 696F706F 		.ascii	"ioportid_t\000"
 20085      72746964 
 20085      5F7400
 20086              	.LASF563:
 20087 1f29 4D324D5F 		.ascii	"M2M_REQ_GROUP_HIF\000"
 20087      5245515F 
 20087      47524F55 
 20087      505F4849 
 20087      4600
 20088              	.LASF766:
 20089 1f3b 6175384D 		.ascii	"au8Mac\000"
 20089      616300
 20090              	.LASF576:
 20091 1f42 4D324D5F 		.ascii	"M2M_WIFI_REQ_SET_DEVICE_NAME\000"
 20091      57494649 
 20091      5F524551 
 20091      5F534554 
 20091      5F444556 
 20092              	.LASF520:
 20093 1f5f 646D616D 		.ascii	"dmamode\000"
 20093      6F646500 
 20094              	.LASF301:
 20095 1f67 63756D75 		.ascii	"cumulative\000"
 20095      6C617469 
 20095      766500
 20096              	.LASF96:
 20097 1f72 5F696F62 		.ascii	"_iobs\000"
 20097      7300
 20098              	.LASF76:
 20099 1f78 5F656D65 		.ascii	"_emergency\000"
 20099      7267656E 
 20099      637900
 20100              	.LASF508:
 20101 1f83 67657474 		.ascii	"gett\000"
 20101      00
 20102              	.LASF632:
 20103 1f88 4D324D5F 		.ascii	"M2M_WIFI_REQ_DISABLE_P2P\000"
 20103      57494649 
 20103      5F524551 
 20103      5F444953 
 20103      41424C45 
 20104              	.LASF869:
 20105 1fa1 73747250 		.ascii	"strPs\000"
ARM GAS  C:\Users\RAKIBU~1\AppData\Local\Temp\ccQ3AEax.s 			page 381


 20105      7300
 20106              	.LASF349:
 20107 1fa7 656E646D 		.ascii	"endmem\000"
 20107      656D00
 20108              	.LASF310:
 20109 1fae 77747472 		.ascii	"wttrp\000"
 20109      7000
 20110              	.LASF407:
 20111 1fb4 715F7264 		.ascii	"q_rdptr\000"
 20111      70747200 
 20112              	.LASF120:
 20113 1fbc 5F6E6578 		.ascii	"_nextf\000"
 20113      746600
 20114              	.LASF493:
 20115 1fc3 77726974 		.ascii	"write\000"
 20115      6500
 20116              	.LASF106:
 20117 1fc9 5F72616E 		.ascii	"_rand_next\000"
 20117      645F6E65 
 20117      787400
 20118              	.LASF829:
 20119 1fd4 73747245 		.ascii	"strEthInitParam\000"
 20119      7468496E 
 20119      69745061 
 20119      72616D00 
 20120              	.LASF502:
 20121 1fe4 69717565 		.ascii	"iqueue\000"
 20121      756500
 20122              	.LASF819:
 20123 1feb 74706641 		.ascii	"tpfAppWifiCb\000"
 20123      70705769 
 20123      66694362 
 20123      00
 20124              	.LASF300:
 20125 1ff8 6C617374 		.ascii	"last\000"
 20125      00
 20126              	.LASF757:
 20127 1ffd 75313650 		.ascii	"u16PacketSize\000"
 20127      61636B65 
 20127      7453697A 
 20127      6500
 20128              	.LASF364:
 20129 200b 6275665F 		.ascii	"buf_list\000"
 20129      6C697374 
 20129      00
 20130              	.LASF130:
 20131 2014 75696E74 		.ascii	"uint32_t\000"
 20131      33325F74 
 20131      00
 20132              	.LASF330:
 20133 201d 6F66665F 		.ascii	"off_stklimit\000"
 20133      73746B6C 
 20133      696D6974 
 20133      00
 20134              	.LASF701:
 20135 202a 61753853 		.ascii	"au8SSID\000"
 20135      53494400 
ARM GAS  C:\Users\RAKIBU~1\AppData\Local\Temp\ccQ3AEax.s 			page 382


 20136              	.LASF28:
 20137 2032 5F6D6178 		.ascii	"_maxwds\000"
 20137      77647300 
 20138              	.LASF387:
 20139 203a 424C4B5F 		.ascii	"BLK_WRITING\000"
 20139      57524954 
 20139      494E4700 
 20140              	.LASF957:
 20141 2046 73747253 		.ascii	"strSysTime\000"
 20141      79735469 
 20141      6D6500
 20142              	.LASF592:
 20143 2051 4D324D5F 		.ascii	"M2M_WIFI_REQ_SET_TX_POWER\000"
 20143      57494649 
 20143      5F524551 
 20143      5F534554 
 20143      5F54585F 
 20144              	.LASF588:
 20145 206b 4D324D5F 		.ascii	"M2M_WIFI_RESP_SCAN_RESULT\000"
 20145      57494649 
 20145      5F524553 
 20145      505F5343 
 20145      414E5F52 
 20146              	.LASF15:
 20147 2085 6C6F6E67 		.ascii	"long double\000"
 20147      20646F75 
 20147      626C6500 
 20148              	.LASF334:
 20149 2091 6F66665F 		.ascii	"off_preempt\000"
 20149      70726565 
 20149      6D707400 
 20150              	.LASF270:
 20151 209d 72656761 		.ascii	"regarm_t\000"
 20151      726D5F74 
 20151      00
 20152              	.LASF144:
 20153 20a6 6576656E 		.ascii	"eventmask_t\000"
 20153      746D6173 
 20153      6B5F7400 
 20154              	.LASF959:
 20155 20b2 73747249 		.ascii	"strIpConfig\000"
 20155      70436F6E 
 20155      66696700 
 20156              	.LASF719:
 20157 20be 75384368 		.ascii	"u8ChNum\000"
 20157      4E756D00 
 20158              	.LASF898:
 20159 20c6 6D326D5F 		.ascii	"m2m_wifi_wps\000"
 20159      77696669 
 20159      5F777073 
 20159      00
 20160              	.LASF133:
 20161 20d3 75696E74 		.ascii	"uint16\000"
 20161      313600
 20162              	.LASF915:
 20163 20da 70617538 		.ascii	"pau8M2mCustInfoElement\000"
 20163      4D326D43 
ARM GAS  C:\Users\RAKIBU~1\AppData\Local\Temp\ccQ3AEax.s 			page 383


 20163      75737449 
 20163      6E666F45 
 20163      6C656D65 
 20164              	.LASF557:
 20165 20f1 75313642 		.ascii	"u16BattVolt\000"
 20165      61747456 
 20165      6F6C7400 
 20166              	.LASF867:
 20167 20fd 75333253 		.ascii	"u32SlpReqTime\000"
 20167      6C705265 
 20167      7154696D 
 20167      6500
 20168              	.LASF708:
 20169 210b 75384368 		.ascii	"u8Ch\000"
 20169      00
 20170              	.LASF9:
 20171 2110 6C6F6E67 		.ascii	"long unsigned int\000"
 20171      20756E73 
 20171      69676E65 
 20171      6420696E 
 20171      7400
 20172              	.LASF969:
 20173 2122 6869665F 		.ascii	"hif_chip_wake\000"
 20173      63686970 
 20173      5F77616B 
 20173      6500
 20174              	.LASF871:
 20175 2130 50735479 		.ascii	"PsTyp\000"
 20175      7000
 20176              	.LASF561:
 20177 2136 4D324D5F 		.ascii	"M2M_REQ_GROUP_WIFI\000"
 20177      5245515F 
 20177      47524F55 
 20177      505F5749 
 20177      464900
 20178              	.LASF626:
 20179 2149 4D324D5F 		.ascii	"M2M_WIFI_REQ_ENABLE_AP\000"
 20179      57494649 
 20179      5F524551 
 20179      5F454E41 
 20179      424C455F 
 20180              	.LASF494:
 20181 2160 52544344 		.ascii	"RTCD1\000"
 20181      3100
 20182              	.LASF430:
 20183 2166 4750545F 		.ascii	"GPT_READY\000"
 20183      52454144 
 20183      5900
 20184              	.LASF746:
 20185 2170 75385365 		.ascii	"u8ServiceClass\000"
 20185      72766963 
 20185      65436C61 
 20185      737300
 20186              	.LASF609:
 20187 217f 4D324D5F 		.ascii	"M2M_WIFI_REQ_DISCONNECT\000"
 20187      57494649 
 20187      5F524551 
ARM GAS  C:\Users\RAKIBU~1\AppData\Local\Temp\ccQ3AEax.s 			page 384


 20187      5F444953 
 20187      434F4E4E 
 20188              	.LASF608:
 20189 2197 4D324D5F 		.ascii	"M2M_WIFI_RESP_DEFAULT_CONNECT\000"
 20189      57494649 
 20189      5F524553 
 20189      505F4445 
 20189      4641554C 
 20190              	.LASF406:
 20191 21b5 715F7772 		.ascii	"q_wrptr\000"
 20191      70747200 
 20192              	.LASF710:
 20193 21bd 73384572 		.ascii	"s8ErrorCode\000"
 20193      726F7243 
 20193      6F646500 
 20194              	.LASF285:
 20195 21c9 72656173 		.ascii	"reason\000"
 20195      6F6E00
 20196              	.LASF881:
 20197 21d0 6D326D5F 		.ascii	"m2m_wifi_send_ethernet_pkt\000"
 20197      77696669 
 20197      5F73656E 
 20197      645F6574 
 20197      6865726E 
 20198              	.LASF883:
 20199 21eb 73747254 		.ascii	"strTxPkt\000"
 20199      78506B74 
 20199      00
 20200              	.LASF955:
 20201 21f4 72785F62 		.ascii	"rx_buf\000"
 20201      756600
 20202              	.LASF247:
 20203 21fb 52455350 		.ascii	"RESPCMD\000"
 20203      434D4400 
 20204              	.LASF728:
 20205 2203 7538696E 		.ascii	"u8index\000"
 20205      64657800 
 20206              	.LASF532:
 20207 220b 53444344 		.ascii	"SDCD1\000"
 20207      3100
 20208              	.LASF328:
 20209 2211 6F66665F 		.ascii	"off_older\000"
 20209      6F6C6465 
 20209      7200
 20210              	.LASF244:
 20211 221b 5254435F 		.ascii	"RTC_TypeDef\000"
 20211      54797065 
 20211      44656600 
 20212              	.LASF61:
 20213 2227 5F636C6F 		.ascii	"_close\000"
 20213      736500
 20214              	.LASF478:
 20215 222e 52544344 		.ascii	"RTCDriver\000"
 20215      72697665 
 20215      7200
 20216              	.LASF815:
 20217 2238 4275696C 		.ascii	"BuildTime\000"
ARM GAS  C:\Users\RAKIBU~1\AppData\Local\Temp\ccQ3AEax.s 			page 385


 20217      6454696D 
 20217      6500
 20218              	.LASF691:
 20219 2242 61753850 		.ascii	"au8PSK\000"
 20219      534B00
 20220              	.LASF92:
 20221 2249 63686172 		.ascii	"char\000"
 20221      00
 20222              	.LASF802:
 20223 224e 75385273 		.ascii	"u8Rsv1\000"
 20223      763100
 20224              	.LASF94:
 20225 2255 5F676C75 		.ascii	"_glue\000"
 20225      6500
 20226              	.LASF723:
 20227 225b 75384E75 		.ascii	"u8NumofCh\000"
 20227      6D6F6643 
 20227      6800
 20228              	.LASF894:
 20229 2265 6D326D5F 		.ascii	"m2m_wifi_req_server_init\000"
 20229      77696669 
 20229      5F726571 
 20229      5F736572 
 20229      7665725F 
 20230              	.LASF201:
 20231 227e 41504250 		.ascii	"APBPrescTable\000"
 20231      72657363 
 20231      5461626C 
 20231      6500
 20232              	.LASF530:
 20233 228c 73796E63 		.ascii	"sync\000"
 20233      00
 20234              	.LASF504:
 20235 2291 75736172 		.ascii	"usart\000"
 20235      7400
 20236              	.LASF134:
 20237 2297 75696E74 		.ascii	"uint32\000"
 20237      333200
 20238              	.LASF970:
 20239 229e 6E6D5F67 		.ascii	"nm_get_firmware_full_info\000"
 20239      65745F66 
 20239      69726D77 
 20239      6172655F 
 20239      66756C6C 
 20240              	.LASF750:
 20241 22b8 61753853 		.ascii	"au8SrcMacAddress\000"
 20241      72634D61 
 20241      63416464 
 20241      72657373 
 20241      00
 20242              	.LASF515:
 20243 22c9 7364636D 		.ascii	"sdcmode_t\000"
 20243      6F64655F 
 20243      7400
 20244              	.LASF409:
 20245 22d3 715F6C69 		.ascii	"q_link\000"
 20245      6E6B00
ARM GAS  C:\Users\RAKIBU~1\AppData\Local\Temp\ccQ3AEax.s 			page 386


 20246              	.LASF650:
 20247 22da 4D324D5F 		.ascii	"M2M_WIFI_SEC_OPEN\000"
 20247      57494649 
 20247      5F534543 
 20247      5F4F5045 
 20247      4E00
 20248              	.LASF398:
 20249 22ec 70735F65 		.ascii	"ps_error_t\000"
 20249      72726F72 
 20249      5F7400
 20250              	.LASF705:
 20251 22f7 61635069 		.ascii	"acPinNumber\000"
 20251      6E4E756D 
 20251      62657200 
 20252              	.LASF422:
 20253 2303 4C4F434B 		.ascii	"LOCKR\000"
 20253      5200
 20254              	.LASF619:
 20255 2309 4D324D5F 		.ascii	"M2M_WIFI_REQ_ENABLE_MONITORING\000"
 20255      57494649 
 20255      5F524551 
 20255      5F454E41 
 20255      424C455F 
 20256              	.LASF413:
 20257 2328 70616C63 		.ascii	"palcallback_t\000"
 20257      616C6C62 
 20257      61636B5F 
 20257      7400
 20258              	.LASF754:
 20259 2336 75333244 		.ascii	"u32DataRateKbps\000"
 20259      61746152 
 20259      6174654B 
 20259      62707300 
 20260              	.LASF737:
 20261 2346 75385073 		.ascii	"u8PsType\000"
 20261      54797065 
 20261      00
 20262              	.LASF31:
 20263 234f 5F426967 		.ascii	"_Bigint\000"
 20263      696E7400 
 20264              	.LASF826:
 20265 2357 75384574 		.ascii	"u8EthernetEnable\000"
 20265      6865726E 
 20265      6574456E 
 20265      61626C65 
 20265      00
 20266              	.LASF88:
 20267 2368 5F617465 		.ascii	"_atexit0\000"
 20267      78697430 
 20267      00
 20268              	.LASF354:
 20269 2371 616C6967 		.ascii	"align\000"
 20269      6E00
 20270              	.LASF566:
 20271 2377 4D324D5F 		.ascii	"M2M_REQ_GROUP_CRYPTO\000"
 20271      5245515F 
 20271      47524F55 
ARM GAS  C:\Users\RAKIBU~1\AppData\Local\Temp\ccQ3AEax.s 			page 387


 20271      505F4352 
 20271      5950544F 
 20272              	.LASF980:
 20273 238c 6869665F 		.ascii	"hif_init\000"
 20273      696E6974 
 20273      00
 20274              	.LASF808:
 20275 2395 75384669 		.ascii	"u8FirmwareMajor\000"
 20275      726D7761 
 20275      72654D61 
 20275      6A6F7200 
 20276              	.LASF652:
 20277 23a5 4D324D5F 		.ascii	"M2M_WIFI_SEC_WEP\000"
 20277      57494649 
 20277      5F534543 
 20277      5F574550 
 20277      00
 20278              	.LASF397:
 20279 23b6 50535F45 		.ascii	"PS_ERROR_HW_FAILURE\000"
 20279      52524F52 
 20279      5F48575F 
 20279      4641494C 
 20279      55524500 
 20280              	.LASF741:
 20281 23ca 74737472 		.ascii	"tstrM2mSlpReqTime\000"
 20281      4D326D53 
 20281      6C705265 
 20281      7154696D 
 20281      6500
 20282              	.LASF379:
 20283 23dc 5F73746D 		.ascii	"_stm32_dma_streams\000"
 20283      33325F64 
 20283      6D615F73 
 20283      74726561 
 20283      6D7300
 20284              	.LASF294:
 20285 23ef 62756666 		.ascii	"buffer\000"
 20285      657200
 20286              	.LASF113:
 20287 23f6 5F676574 		.ascii	"_getdate_err\000"
 20287      64617465 
 20287      5F657272 
 20287      00
 20288              	.LASF514:
 20289 2403 73646362 		.ascii	"sdcbusmode_t\000"
 20289      75736D6F 
 20289      64655F74 
 20289      00
 20290              	.LASF195:
 20291 2410 6B65726E 		.ascii	"kernel_stats\000"
 20291      656C5F73 
 20291      74617473 
 20291      00
 20292              	.LASF146:
 20293 241d 636E745F 		.ascii	"cnt_t\000"
 20293      7400
 20294              	.LASF840:
ARM GAS  C:\Users\RAKIBU~1\AppData\Local\Temp\ccQ3AEax.s 			page 388


 20295 2423 6D326D5F 		.ascii	"m2m_wifi_enable_firmware_logs\000"
 20295      77696669 
 20295      5F656E61 
 20295      626C655F 
 20295      6669726D 
 20296              	.LASF505:
 20297 2441 72786D61 		.ascii	"rxmask\000"
 20297      736B00
 20298              	.LASF985:
 20299 2448 6869665F 		.ascii	"hif_receive\000"
 20299      72656365 
 20299      69766500 
 20300              	.LASF648:
 20301 2454 4D324D5F 		.ascii	"M2M_SSL_RESP_SET_CS_LIST\000"
 20301      53534C5F 
 20301      52455350 
 20301      5F534554 
 20301      5F43535F 
 20302              	.LASF424:
 20303 246d 41465248 		.ascii	"AFRH\000"
 20303      00
 20304              	.LASF423:
 20305 2472 4146524C 		.ascii	"AFRL\000"
 20305      00
 20306              	.LASF331:
 20307 2477 6F66665F 		.ascii	"off_state\000"
 20307      73746174 
 20307      6500
 20308              	.LASF189:
 20309 2481 74726163 		.ascii	"trace_buffer\000"
 20309      655F6275 
 20309      66666572 
 20309      00
 20310              	.LASF812:
 20311 248e 75384472 		.ascii	"u8DriverMinor\000"
 20311      69766572 
 20311      4D696E6F 
 20311      7200
 20312              	.LASF125:
 20313 249c 5F696D70 		.ascii	"_impure_ptr\000"
 20313      7572655F 
 20313      70747200 
 20314              	.LASF581:
 20315 24a8 4D324D5F 		.ascii	"M2M_WIFI_REQ_ENABLE_SNTP_CLIENT\000"
 20315      57494649 
 20315      5F524551 
 20315      5F454E41 
 20315      424C455F 
 20316              	.LASF64:
 20317 24c8 5F626C6B 		.ascii	"_blksize\000"
 20317      73697A65 
 20317      00
 20318              	.LASF966:
 20319 24d1 6869665F 		.ascii	"hif_send\000"
 20319      73656E64 
 20319      00
 20320              	.LASF742:
ARM GAS  C:\Users\RAKIBU~1\AppData\Local\Temp\ccQ3AEax.s 			page 389


 20321 24da 7531364C 		.ascii	"u16LsnInt\000"
 20321      736E496E 
 20321      7400
 20322              	.LASF62:
 20323 24e4 5F756275 		.ascii	"_ubuf\000"
 20323      6600
 20324              	.LASF435:
 20325 24ea 636F6E66 		.ascii	"config\000"
 20325      696700
 20326              	.LASF801:
 20327 24f1 75384372 		.ascii	"u8CrlType\000"
 20327      6C547970 
 20327      6500
 20328              	.LASF108:
 20329 24fb 5F6D626C 		.ascii	"_mblen_state\000"
 20329      656E5F73 
 20329      74617465 
 20329      00
 20330              	.LASF90:
 20331 2508 5F5F7367 		.ascii	"__sglue\000"
 20331      6C756500 
 20332              	.LASF124:
 20333 2510 5F5F6C6F 		.ascii	"__locale_t\000"
 20333      63616C65 
 20333      5F7400
 20334              	.LASF647:
 20335 251b 4D324D5F 		.ascii	"M2M_SSL_REQ_SET_CS_LIST\000"
 20335      53534C5F 
 20335      5245515F 
 20335      5345545F 
 20335      43535F4C 
 20336              	.LASF822:
 20337 2533 70664170 		.ascii	"pfAppWifiCb\000"
 20337      70576966 
 20337      69436200 
 20338              	.LASF383:
 20339 253f 424C4B5F 		.ascii	"BLK_CONNECTING\000"
 20339      434F4E4E 
 20339      45435449 
 20339      4E4700
 20340              	.LASF885:
 20341 254e 6D326D5F 		.ascii	"m2m_wifi_disable_ap\000"
 20341      77696669 
 20341      5F646973 
 20341      61626C65 
 20341      5F617000 
 20342              	.LASF80:
 20343 2562 5F5F636C 		.ascii	"__cleanup\000"
 20343      65616E75 
 20343      7000
 20344              	.LASF711:
 20345 256c 74737472 		.ascii	"tstrM2MDefaultConnResp\000"
 20345      4D324D44 
 20345      65666175 
 20345      6C74436F 
 20345      6E6E5265 
 20346              	.LASF721:
ARM GAS  C:\Users\RAKIBU~1\AppData\Local\Temp\ccQ3AEax.s 			page 390


 20347 2583 75313650 		.ascii	"u16PassiveScanTime\000"
 20347      61737369 
 20347      76655363 
 20347      616E5469 
 20347      6D6500
 20348              	.LASF176:
 20349 2596 76746675 		.ascii	"vtfunc_t\000"
 20349      6E635F74 
 20349      00
 20350              	.LASF794:
 20351 259f 74737472 		.ascii	"tstrSystemTime\000"
 20351      53797374 
 20351      656D5469 
 20351      6D6500
 20352              	.LASF284:
 20353 25ae 77746F62 		.ascii	"wtobjp\000"
 20353      6A7000
 20354              	.LASF18:
 20355 25b5 5F66706F 		.ascii	"_fpos_t\000"
 20355      735F7400 
 20356              	.LASF882:
 20357 25bd 70753850 		.ascii	"pu8Packet\000"
 20357      61636B65 
 20357      7400
 20358              	.LASF55:
 20359 25c7 5F66696C 		.ascii	"_file\000"
 20359      6500
 20360              	.LASF518:
 20361 25cd 63617061 		.ascii	"capacity\000"
 20361      63697479 
 20361      00
 20362              	.LASF755:
 20363 25d6 73385253 		.ascii	"s8RSSI\000"
 20363      534900
 20364              	.LASF921:
 20365 25dd 6D326D5F 		.ascii	"m2m_wifi_get_num_ap_found\000"
 20365      77696669 
 20365      5F676574 
 20365      5F6E756D 
 20365      5F61705F 
 20366              	.LASF363:
 20367 25f7 6F626A5F 		.ascii	"obj_pool\000"
 20367      706F6F6C 
 20367      00
 20368              	.LASF371:
 20369 2600 63685F66 		.ascii	"ch_factory\000"
 20369      6163746F 
 20369      727900
 20370              	.LASF408:
 20371 260b 715F6E6F 		.ascii	"q_notify\000"
 20371      74696679 
 20371      00
 20372              	.LASF313:
 20373 2614 77746D74 		.ascii	"wtmtxp\000"
 20373      787000
 20374              	.LASF53:
 20375 261b 5F5F7346 		.ascii	"__sFILE\000"
ARM GAS  C:\Users\RAKIBU~1\AppData\Local\Temp\ccQ3AEax.s 			page 391


 20375      494C4500 
 20376              	.LASF49:
 20377 2623 5F666E73 		.ascii	"_fns\000"
 20377      00
 20378              	.LASF787:
 20379 2628 75313659 		.ascii	"u16Year\000"
 20379      65617200 
 20380              	.LASF24:
 20381 2630 5F6D6273 		.ascii	"_mbstate_t\000"
 20381      74617465 
 20381      5F7400
 20382              	.LASF119:
 20383 263b 5F685F65 		.ascii	"_h_errno\000"
 20383      72726E6F 
 20383      00
 20384              	.LASF975:
 20385 2644 6E6D695F 		.ascii	"nmi_get_otp_mac_address\000"
 20385      6765745F 
 20385      6F74705F 
 20385      6D61635F 
 20385      61646472 
 20386              	.LASF824:
 20387 265c 61753865 		.ascii	"au8ethRcvBuf\000"
 20387      74685263 
 20387      76427566 
 20387      00
 20388              	.LASF197:
 20389 2669 73797369 		.ascii	"sysinterval_t\000"
 20389      6E746572 
 20389      76616C5F 
 20389      7400
 20390              	.LASF391:
 20391 2677 626C6B5F 		.ascii	"blk_num\000"
 20391      6E756D00 
 20392              	.LASF610:
 20393 267f 4D324D5F 		.ascii	"M2M_WIFI_RESP_CON_STATE_CHANGED\000"
 20393      57494649 
 20393      5F524553 
 20393      505F434F 
 20393      4E5F5354 
 20394              	.LASF427:
 20395 269f 5F70616C 		.ascii	"_pal_events\000"
 20395      5F657665 
 20395      6E747300 
 20396              	.LASF713:
 20397 26ab 7538536C 		.ascii	"u8SlotTime\000"
 20397      6F745469 
 20397      6D6500
 20398              	.LASF676:
 20399 26b6 4D324D5F 		.ascii	"M2M_WIFI_MODE_ATE_LOW\000"
 20399      57494649 
 20399      5F4D4F44 
 20399      455F4154 
 20399      455F4C4F 
 20400              	.LASF343:
 20401 26cc 77666C61 		.ascii	"wflags\000"
 20401      677300
ARM GAS  C:\Users\RAKIBU~1\AppData\Local\Temp\ccQ3AEax.s 			page 392


 20402              	.LASF930:
 20403 26d3 70635373 		.ascii	"pcSsid\000"
 20403      696400
 20404              	.LASF159:
 20405 26da 77616974 		.ascii	"waiting\000"
 20405      696E6700 
 20406              	.LASF174:
 20407 26e2 63685F72 		.ascii	"ch_ready_list\000"
 20407      65616479 
 20407      5F6C6973 
 20407      7400
 20408              	.LASF776:
 20409 26f0 73747241 		.ascii	"strApConfig\000"
 20409      70436F6E 
 20409      66696700 
 20410              	.LASF420:
 20411 26fc 50555044 		.ascii	"PUPDR\000"
 20411      5200
 20412              	.LASF6:
 20413 2702 5F5F696E 		.ascii	"__int32_t\000"
 20413      7433325F 
 20413      7400
 20414              	.LASF551:
 20415 270c 5F5F5041 		.ascii	"__PAD24__\000"
 20415      4432345F 
 20415      5F00
 20416              	.LASF8:
 20417 2716 5F5F7569 		.ascii	"__uint32_t\000"
 20417      6E743332 
 20417      5F7400
 20418              	.LASF336:
 20419 2721 63686465 		.ascii	"chdebug_t\000"
 20419      6275675F 
 20419      7400
 20420              	.LASF185:
 20421 272b 63685F73 		.ascii	"ch_system_debug\000"
 20421      79737465 
 20421      6D5F6465 
 20421      62756700 
 20422              	.LASF221:
 20423 273b 414C524D 		.ascii	"ALRMASSR\000"
 20423      41535352 
 20423      00
 20424              	.LASF552:
 20425 2744 74737472 		.ascii	"tstrM2mPwrMode\000"
 20425      4D326D50 
 20425      77724D6F 
 20425      646500
 20426              	.LASF23:
 20427 2753 5F5F7661 		.ascii	"__value\000"
 20427      6C756500 
 20428              	.LASF256:
 20429 275b 4D41534B 		.ascii	"MASK\000"
 20429      00
 20430              	.LASF46:
 20431 2760 5F69735F 		.ascii	"_is_cxa\000"
 20431      63786100 
ARM GAS  C:\Users\RAKIBU~1\AppData\Local\Temp\ccQ3AEax.s 			page 393


 20432              	.LASF386:
 20433 2768 424C4B5F 		.ascii	"BLK_READING\000"
 20433      52454144 
 20433      494E4700 
 20434              	.LASF832:
 20435 2774 67753873 		.ascii	"gu8scanInProgress\000"
 20435      63616E49 
 20435      6E50726F 
 20435      67726573 
 20435      7300
 20436              	.LASF951:
 20437 2786 6D326D5F 		.ascii	"m2m_wifi_download_mode\000"
 20437      77696669 
 20437      5F646F77 
 20437      6E6C6F61 
 20437      645F6D6F 
 20438              	.LASF376:
 20439 279d 73656C66 		.ascii	"selfindex\000"
 20439      696E6465 
 20439      7800
 20440              	.LASF338:
 20441 27a7 6D757465 		.ascii	"mutex_t\000"
 20441      785F7400 
 20442              	.LASF739:
 20443 27af 74737472 		.ascii	"tstrM2mPsType\000"
 20443      4D326D50 
 20443      73547970 
 20443      6500
 20444              	.LASF83:
 20445 27bd 5F703573 		.ascii	"_p5s\000"
 20445      00
 20446              	.LASF671:
 20447 27c2 4D324D5F 		.ascii	"M2M_PS_H_AUTOMATIC\000"
 20447      50535F48 
 20447      5F415554 
 20447      4F4D4154 
 20447      494300
 20448              	.LASF796:
 20449 27d5 75313650 		.ascii	"u16PrngSize\000"
 20449      726E6753 
 20449      697A6500 
 20450              	.LASF416:
 20451 27e1 636C6561 		.ascii	"clear\000"
 20451      7200
 20452              	.LASF417:
 20453 27e7 4D4F4445 		.ascii	"MODER\000"
 20453      5200
 20454              	.LASF687:
 20455 27ed 74737472 		.ascii	"tstrM2mWifiWepParams\000"
 20455      4D326D57 
 20455      69666957 
 20455      65705061 
 20455      72616D73 
 20456              	.LASF874:
 20457 2802 6D326D5F 		.ascii	"m2m_wifi_req_scan_result\000"
 20457      77696669 
 20457      5F726571 
ARM GAS  C:\Users\RAKIBU~1\AppData\Local\Temp\ccQ3AEax.s 			page 394


 20457      5F736361 
 20457      6E5F7265 
 20458              	.LASF673:
 20459 281b 4D324D5F 		.ascii	"M2M_PS_MANUAL\000"
 20459      50535F4D 
 20459      414E5541 
 20459      4C00
 20460              	.LASF257:
 20461 2829 52455345 		.ascii	"RESERVED0\000"
 20461      52564544 
 20461      3000
 20462              	.LASF259:
 20463 2833 52455345 		.ascii	"RESERVED1\000"
 20463      52564544 
 20463      3100
 20464              	.LASF569:
 20465 283d 4D324D5F 		.ascii	"M2M_REQ_DATA_PKT\000"
 20465      5245515F 
 20465      44415441 
 20465      5F504B54 
 20465      00
 20466              	.LASF731:
 20467 284e 61753842 		.ascii	"au8BSSID\000"
 20467      53534944 
 20467      00
 20468              	.LASF223:
 20469 2857 52455345 		.ascii	"RESERVED7\000"
 20469      52564544 
 20469      3700
 20470              	.LASF770:
 20471 2861 75333253 		.ascii	"u32StaticIP\000"
 20471      74617469 
 20471      63495000 
 20472              	.LASF953:
 20473 286d 75313644 		.ascii	"u16DataSize\000"
 20473      61746153 
 20473      697A6500 
 20474              	.LASF836:
 20475 2879 6D326D5F 		.ascii	"m2m_wifi_prng_get_random_bytes\000"
 20475      77696669 
 20475      5F70726E 
 20475      675F6765 
 20475      745F7261 
 20476              	.LASF902:
 20477 2898 45525231 		.ascii	"ERR1\000"
 20477      00
 20478              	.LASF481:
 20479 289d 5254435F 		.ascii	"RTC_EVENT_TS\000"
 20479      4556454E 
 20479      545F5453 
 20479      00
 20480              	.LASF590:
 20481 28aa 4D324D5F 		.ascii	"M2M_WIFI_REQ_SET_SCAN_REGION\000"
 20481      57494649 
 20481      5F524551 
 20481      5F534554 
 20481      5F534341 
ARM GAS  C:\Users\RAKIBU~1\AppData\Local\Temp\ccQ3AEax.s 			page 395


 20482              	.LASF931:
 20483 28c7 75385373 		.ascii	"u8SsidLen\000"
 20483      69644C65 
 20483      6E00
 20484              	.LASF367:
 20485 28d1 6D62785F 		.ascii	"mbx_list\000"
 20485      6C697374 
 20485      00
 20486              	.LASF327:
 20487 28da 6F66665F 		.ascii	"off_newer\000"
 20487      6E657765 
 20487      7200
 20488              	.LASF729:
 20489 28e4 73387273 		.ascii	"s8rssi\000"
 20489      736900
 20490              	.LASF724:
 20491 28eb 73385363 		.ascii	"s8ScanState\000"
 20491      616E5374 
 20491      61746500 
 20492              	.LASF283:
 20493 28f7 73746D33 		.ascii	"stm32_tim_t\000"
 20493      325F7469 
 20493      6D5F7400 
 20494              	.LASF495:
 20495 2903 5F727463 		.ascii	"_rtc_lld_vmt\000"
 20495      5F6C6C64 
 20495      5F766D74 
 20495      00
 20496              	.LASF150:
 20497 2910 71756575 		.ascii	"queue\000"
 20497      6500
 20498              	.LASF211:
 20499 2916 57555452 		.ascii	"WUTR\000"
 20499      00
 20500              	.LASF475:
 20501 291b 5F74696D 		.ascii	"_timezone\000"
 20501      657A6F6E 
 20501      6500
 20502              	.LASF198:
 20503 2925 49544D5F 		.ascii	"ITM_RxBuffer\000"
 20503      52784275 
 20503      66666572 
 20503      00
 20504              	.LASF684:
 20505 2932 75384B65 		.ascii	"u8KeyIndx\000"
 20505      79496E64 
 20505      7800
 20506              	.LASF392:
 20507 293c 426C6F63 		.ascii	"BlockDeviceInfo\000"
 20507      6B446576 
 20507      69636549 
 20507      6E666F00 
 20508              	.LASF12:
 20509 294c 6C6F6E67 		.ascii	"long long unsigned int\000"
 20509      206C6F6E 
 20509      6720756E 
 20509      7369676E 
ARM GAS  C:\Users\RAKIBU~1\AppData\Local\Temp\ccQ3AEax.s 			page 396


 20509      65642069 
 20510              	.LASF261:
 20511 2963 5344494F 		.ascii	"SDIO_TypeDef\000"
 20511      5F547970 
 20511      65446566 
 20511      00
 20512              	.LASF296:
 20513 2970 6F666673 		.ascii	"offset\000"
 20513      657400
 20514              	.LASF734:
 20515 2977 75384375 		.ascii	"u8CurrState\000"
 20515      72725374 
 20515      61746500 
 20516              	.LASF668:
 20517 2983 4D324D5F 		.ascii	"M2M_WIFI_CH_ALL\000"
 20517      57494649 
 20517      5F43485F 
 20517      414C4C00 
 20518              	.LASF337:
 20519 2993 63685F64 		.ascii	"ch_debug\000"
 20519      65627567 
 20519      00
 20520              	.LASF348:
 20521 299c 6E657874 		.ascii	"nextmem\000"
 20521      6D656D00 
 20522              	.LASF548:
 20523 29a4 53504944 		.ascii	"SPID1\000"
 20523      3100
 20524              	.LASF549:
 20525 29aa 53504944 		.ascii	"SPID2\000"
 20525      3200
 20526              	.LASF202:
 20527 29b0 4E445452 		.ascii	"NDTR\000"
 20527      00
 20528              	.LASF105:
 20529 29b5 5F67616D 		.ascii	"_gamma_signgam\000"
 20529      6D615F73 
 20529      69676E67 
 20529      616D00
 20530              	.LASF663:
 20531 29c4 4D324D5F 		.ascii	"M2M_WIFI_CH_10\000"
 20531      57494649 
 20531      5F43485F 
 20531      313000
 20532              	.LASF664:
 20533 29d3 4D324D5F 		.ascii	"M2M_WIFI_CH_11\000"
 20533      57494649 
 20533      5F43485F 
 20533      313100
 20534              	.LASF267:
 20535 29e2 5350495F 		.ascii	"SPI_TypeDef\000"
 20535      54797065 
 20535      44656600 
 20536              	.LASF666:
 20537 29ee 4D324D5F 		.ascii	"M2M_WIFI_CH_13\000"
 20537      57494649 
 20537      5F43485F 
ARM GAS  C:\Users\RAKIBU~1\AppData\Local\Temp\ccQ3AEax.s 			page 397


 20537      313300
 20538              	.LASF667:
 20539 29fd 4D324D5F 		.ascii	"M2M_WIFI_CH_14\000"
 20539      57494649 
 20539      5F43485F 
 20539      313400
 20540              	.LASF274:
 20541 2a0c 534D4352 		.ascii	"SMCR\000"
 20541      00
 20542              	.LASF565:
 20543 2a11 4D324D5F 		.ascii	"M2M_REQ_GROUP_SSL\000"
 20543      5245515F 
 20543      47524F55 
 20543      505F5353 
 20543      4C00
 20544              	.LASF324:
 20545 2a23 74687265 		.ascii	"threadsize\000"
 20545      61647369 
 20545      7A6500
 20546              	.LASF178:
 20547 2a2e 63685F76 		.ascii	"ch_virtual_timer\000"
 20547      69727475 
 20547      616C5F74 
 20547      696D6572 
 20547      00
 20548              	.LASF888:
 20549 2a3f 6D326D5F 		.ascii	"m2m_wifi_enable_ap\000"
 20549      77696669 
 20549      5F656E61 
 20549      626C655F 
 20549      617000
 20550              	.LASF636:
 20551 2a52 4D324D5F 		.ascii	"M2M_WIFI_RESP_CLIENT_INFO\000"
 20551      57494649 
 20551      5F524553 
 20551      505F434C 
 20551      49454E54 
 20552              	.LASF646:
 20553 2a6c 4D324D5F 		.ascii	"M2M_SSL_IND_CERTS_ECC\000"
 20553      53534C5F 
 20553      494E445F 
 20553      43455254 
 20553      535F4543 
 20554              	.LASF314:
 20555 2a82 65776D61 		.ascii	"ewmask\000"
 20555      736B00
 20556              	.LASF732:
 20557 2a89 5F504144 		.ascii	"_PAD8_\000"
 20557      385F00
 20558              	.LASF960:
 20559 2a90 73747257 		.ascii	"strWps\000"
 20559      707300
 20560              	.LASF344:
 20561 2a97 6576656E 		.ascii	"event_source\000"
 20561      745F736F 
 20561      75726365 
 20561      00
ARM GAS  C:\Users\RAKIBU~1\AppData\Local\Temp\ccQ3AEax.s 			page 398


 20562              	.LASF140:
 20563 2aa4 74737461 		.ascii	"tstate_t\000"
 20563      74655F74 
 20563      00
 20564              	.LASF126:
 20565 2aad 5F676C6F 		.ascii	"_global_impure_ptr\000"
 20565      62616C5F 
 20565      696D7075 
 20565      72655F70 
 20565      747200
 20566              	.LASF838:
 20567 2ac0 75313642 		.ascii	"u16BattVoltx100\000"
 20567      61747456 
 20567      6F6C7478 
 20567      31303000 
 20568              	.LASF541:
 20569 2ad0 53504943 		.ascii	"SPIConfig\000"
 20569      6F6E6669 
 20569      6700
 20570              	.LASF77:
 20571 2ada 5F756E73 		.ascii	"_unspecified_locale_info\000"
 20571      70656369 
 20571      66696564 
 20571      5F6C6F63 
 20571      616C655F 
 20572              	.LASF816:
 20573 2af3 75313646 		.ascii	"u16FirmwareSvnNum\000"
 20573      69726D77 
 20573      61726553 
 20573      766E4E75 
 20573      6D00
 20574              	.LASF976:
 20575 2b05 6869665F 		.ascii	"hif_handle_isr\000"
 20575      68616E64 
 20575      6C655F69 
 20575      737200
 20576              	.LASF292:
 20577 2b14 73757370 		.ascii	"suspended\000"
 20577      656E6465 
 20577      6400
 20578              	.LASF246:
 20579 2b1e 434C4B43 		.ascii	"CLKCR\000"
 20579      5200
 20580              	.LASF517:
 20581 2b24 53444344 		.ascii	"SDCDriver\000"
 20581      72697665 
 20581      7200
 20582              	.LASF622:
 20583 2b2e 4D324D5F 		.ascii	"M2M_WIFI_REQ_SEND_WIFI_PACKET\000"
 20583      57494649 
 20583      5F524551 
 20583      5F53454E 
 20583      445F5749 
 20584              	.LASF967:
 20585 2b4c 6D326D5F 		.ascii	"m2m_memcpy\000"
 20585      6D656D63 
 20585      707900
ARM GAS  C:\Users\RAKIBU~1\AppData\Local\Temp\ccQ3AEax.s 			page 399


 20586              	.LASF79:
 20587 2b57 5F5F7364 		.ascii	"__sdidinit\000"
 20587      6964696E 
 20587      697400
 20588              	.LASF628:
 20589 2b62 4D324D5F 		.ascii	"M2M_WIFI_REQ_RESTART_AP\000"
 20589      57494649 
 20589      5F524551 
 20589      5F524553 
 20589      54415254 
 20590              	.LASF365:
 20591 2b7a 73656D5F 		.ascii	"sem_list\000"
 20591      6C697374 
 20591      00
 20592              	.LASF213:
 20593 2b83 414C524D 		.ascii	"ALRMAR\000"
 20593      415200
 20594              	.LASF329:
 20595 2b8a 6F66665F 		.ascii	"off_name\000"
 20595      6E616D65 
 20595      00
 20596              	.LASF738:
 20597 2b93 75384263 		.ascii	"u8BcastEn\000"
 20597      61737445 
 20597      6E00
 20598              	.LASF977:
 20599 2b9d 6869665F 		.ascii	"hif_deinit\000"
 20599      6465696E 
 20599      697400
 20600              	.LASF25:
 20601 2ba8 5F666C6F 		.ascii	"_flock_t\000"
 20601      636B5F74 
 20601      00
 20602              	.LASF181:
 20603 2bb1 76697274 		.ascii	"virtual_timers_list_t\000"
 20603      75616C5F 
 20603      74696D65 
 20603      72735F6C 
 20603      6973745F 
 20604              	.LASF987:
 20605 2bc7 474E5520 		.ascii	"GNU C11 7.2.1 20170904 (release) [ARM/embedded-7-br"
 20605      43313120 
 20605      372E322E 
 20605      31203230 
 20605      31373039 
 20606 2bfa 616E6368 		.ascii	"anch revision 255204] -mcpu=cortex-m4 -mthumb -ggdb"
 20606      20726576 
 20606      6973696F 
 20606      6E203235 
 20606      35323034 
 20607 2c2d 202D4F67 		.ascii	" -Og -fomit-frame-pointer -falign-functions=16\000"
 20607      202D666F 
 20607      6D69742D 
 20607      6672616D 
 20607      652D706F 
 20608              	.LASF543:
 20609 2c5c 63697263 		.ascii	"circular\000"
ARM GAS  C:\Users\RAKIBU~1\AppData\Local\Temp\ccQ3AEax.s 			page 400


 20609      756C6172 
 20609      00
 20610              	.LASF653:
 20611 2c65 4D324D5F 		.ascii	"M2M_WIFI_SEC_802_1X\000"
 20611      57494649 
 20611      5F534543 
 20611      5F383032 
 20611      5F315800 
 20612              	.LASF539:
 20613 2c79 53504944 		.ascii	"SPIDriver\000"
 20613      72697665 
 20613      7200
 20614              	.LASF305:
 20615 2c83 6D5F6372 		.ascii	"m_crit_thd\000"
 20615      69745F74 
 20615      686400
 20616              	.LASF265:
 20617 2c8e 49325343 		.ascii	"I2SCFGR\000"
 20617      46475200 
 20618              	.LASF949:
 20619 2c96 6D326D5F 		.ascii	"m2m_validate_scan_options\000"
 20619      76616C69 
 20619      64617465 
 20619      5F736361 
 20619      6E5F6F70 
 20620              	.LASF214:
 20621 2cb0 414C524D 		.ascii	"ALRMBR\000"
 20621      425200
 20622              	.LASF771:
 20623 2cb7 75333247 		.ascii	"u32Gateway\000"
 20623      61746577 
 20623      617900
 20624              	.LASF509:
 20625 2cc2 77726974 		.ascii	"writet\000"
 20625      657400
 20626              	.LASF779:
 20627 2cc9 74737472 		.ascii	"tstrM2MProvisionModeConfig\000"
 20627      4D324D50 
 20627      726F7669 
 20627      73696F6E 
 20627      4D6F6465 
 20628              	.LASF810:
 20629 2ce4 75384669 		.ascii	"u8FirmwarePatch\000"
 20629      726D7761 
 20629      72655061 
 20629      74636800 
 20630              	.LASF623:
 20631 2cf4 4D324D5F 		.ascii	"M2M_WIFI_REQ_LSN_INT\000"
 20631      57494649 
 20631      5F524551 
 20631      5F4C534E 
 20631      5F494E54 
 20632              	.LASF10:
 20633 2d09 6C6F6E67 		.ascii	"long long int\000"
 20633      206C6F6E 
 20633      6720696E 
 20633      7400
ARM GAS  C:\Users\RAKIBU~1\AppData\Local\Temp\ccQ3AEax.s 			page 401


 20634              	.LASF736:
 20635 2d17 74737472 		.ascii	"tstrM2mWifiStateChanged\000"
 20635      4D326D57 
 20635      69666953 
 20635      74617465 
 20635      4368616E 
 20636              	.LASF718:
 20637 2d2f 74737472 		.ascii	"tstrM2MScanRegion\000"
 20637      4D324D53 
 20637      63616E52 
 20637      6567696F 
 20637      6E00
 20638              	.LASF69:
 20639 2d41 5F666C61 		.ascii	"_flags2\000"
 20639      67733200 
 20640              	.LASF866:
 20641 2d49 6D326D5F 		.ascii	"m2m_wifi_request_sleep\000"
 20641      77696669 
 20641      5F726571 
 20641      75657374 
 20641      5F736C65 
 20642              	.LASF740:
 20643 2d60 75333253 		.ascii	"u32SleepTime\000"
 20643      6C656570 
 20643      54696D65 
 20643      00
 20644              	.LASF654:
 20645 2d6d 4D324D5F 		.ascii	"M2M_WIFI_CH_1\000"
 20645      57494649 
 20645      5F43485F 
 20645      3100
 20646              	.LASF655:
 20647 2d7b 4D324D5F 		.ascii	"M2M_WIFI_CH_2\000"
 20647      57494649 
 20647      5F43485F 
 20647      3200
 20648              	.LASF656:
 20649 2d89 4D324D5F 		.ascii	"M2M_WIFI_CH_3\000"
 20649      57494649 
 20649      5F43485F 
 20649      3300
 20650              	.LASF659:
 20651 2d97 4D324D5F 		.ascii	"M2M_WIFI_CH_6\000"
 20651      57494649 
 20651      5F43485F 
 20651      3600
 20652              	.LASF660:
 20653 2da5 4D324D5F 		.ascii	"M2M_WIFI_CH_7\000"
 20653      57494649 
 20653      5F43485F 
 20653      3700
 20654              	.LASF662:
 20655 2db3 4D324D5F 		.ascii	"M2M_WIFI_CH_9\000"
 20655      57494649 
 20655      5F43485F 
 20655      3900
 20656              	.LASF302:
ARM GAS  C:\Users\RAKIBU~1\AppData\Local\Temp\ccQ3AEax.s 			page 402


 20657 2dc1 74696D65 		.ascii	"time_measurement_t\000"
 20657      5F6D6561 
 20657      73757265 
 20657      6D656E74 
 20657      5F7400
 20658              	.LASF531:
 20659 2dd4 6765745F 		.ascii	"get_info\000"
 20659      696E666F 
 20659      00
 20660              	.LASF572:
 20661 2ddd 4D324D5F 		.ascii	"M2M_WIFI_REQ_CURRENT_RSSI\000"
 20661      57494649 
 20661      5F524551 
 20661      5F435552 
 20661      52454E54 
 20662              	.LASF605:
 20663 2df7 4D324D5F 		.ascii	"M2M_WIFI_MAX_CONFIG_ALL\000"
 20663      57494649 
 20663      5F4D4158 
 20663      5F434F4E 
 20663      4649475F 
 20664              	.LASF556:
 20665 2e0f 74737472 		.ascii	"tstrM2mEnableLogs\000"
 20665      4D326D45 
 20665      6E61626C 
 20665      654C6F67 
 20665      7300
 20666              	.LASF860:
 20667 2e21 6D326D5F 		.ascii	"m2m_wifi_get_firmware_version\000"
 20667      77696669 
 20667      5F676574 
 20667      5F666972 
 20667      6D776172 
 20668              	.LASF78:
 20669 2e3f 5F6C6F63 		.ascii	"_locale\000"
 20669      616C6500 
 20670              	.LASF145:
 20671 2e47 6576656E 		.ascii	"eventflags_t\000"
 20671      74666C61 
 20671      67735F74 
 20671      00
 20672              	.LASF535:
 20673 2e54 5350495F 		.ascii	"SPI_READY\000"
 20673      52454144 
 20673      5900
 20674              	.LASF853:
 20675 2e5e 6D326D5F 		.ascii	"m2m_wifi_stop_provision_mode\000"
 20675      77696669 
 20675      5F73746F 
 20675      705F7072 
 20675      6F766973 
 20676              	.LASF908:
 20677 2e7b 6D326D5F 		.ascii	"m2m_wifi_request_scan\000"
 20677      77696669 
 20677      5F726571 
 20677      75657374 
 20677      5F736361 
ARM GAS  C:\Users\RAKIBU~1\AppData\Local\Temp\ccQ3AEax.s 			page 403


 20678              	.LASF904:
 20679 2e91 7531364C 		.ascii	"u16Lsize\000"
 20679      73697A65 
 20679      00
 20680              	.LASF597:
 20681 2e9a 4D324D5F 		.ascii	"M2M_WIFI_REQ_SEND_ETHERNET_PACKET\000"
 20681      57494649 
 20681      5F524551 
 20681      5F53454E 
 20681      445F4554 
 20682              	.LASF210:
 20683 2ebc 50524552 		.ascii	"PRER\000"
 20683      00
 20684              	.LASF686:
 20685 2ec1 61753857 		.ascii	"au8WepKey\000"
 20685      65704B65 
 20685      7900
 20686              	.LASF523:
 20687 2ecb 6275735F 		.ascii	"bus_width\000"
 20687      77696474 
 20687      6800
 20688              	.LASF700:
 20689 2ed5 75313643 		.ascii	"u16Ch\000"
 20689      6800
 20690              	.LASF200:
 20691 2edb 41484250 		.ascii	"AHBPrescTable\000"
 20691      72657363 
 20691      5461626C 
 20691      6500
 20692              	.LASF677:
 20693 2ee9 4D324D5F 		.ascii	"M2M_WIFI_MODE_ETHERNET\000"
 20693      57494649 
 20693      5F4D4F44 
 20693      455F4554 
 20693      4845524E 
 20694              	.LASF525:
 20695 2f00 53444344 		.ascii	"SDCDriverVMT\000"
 20695      72697665 
 20695      72564D54 
 20695      00
 20696              	.LASF287:
 20697 2f0d 75736572 		.ascii	"user\000"
 20697      00
 20698              	.LASF583:
 20699 2f12 4D324D5F 		.ascii	"M2M_WIFI_RESP_MEMORY_RECOVER\000"
 20699      57494649 
 20699      5F524553 
 20699      505F4D45 
 20699      4D4F5259 
 20700              	.LASF680:
 20701 2f2f 5750535F 		.ascii	"WPS_PBC_TRIGGER\000"
 20701      5042435F 
 20701      54524947 
 20701      47455200 
 20702              	.LASF821:
 20703 2f3f 74706641 		.ascii	"tpfAppMonCb\000"
 20703      70704D6F 
ARM GAS  C:\Users\RAKIBU~1\AppData\Local\Temp\ccQ3AEax.s 			page 404


 20703      6E436200 
 20704              	.LASF962:
 20705 2f4b 73747253 		.ascii	"strScanResult\000"
 20705      63616E52 
 20705      6573756C 
 20705      7400
 20706              	.LASF217:
 20707 2f59 54534452 		.ascii	"TSDR\000"
 20707      00
 20708              	.LASF388:
 20709 2f5e 424C4B5F 		.ascii	"BLK_SYNCING\000"
 20709      53594E43 
 20709      494E4700 
 20710              	.LASF973:
 20711 2f6a 6869665F 		.ascii	"hif_set_sleep_mode\000"
 20711      7365745F 
 20711      736C6565 
 20711      705F6D6F 
 20711      646500
 20712              	.LASF600:
 20713 2f7d 4D324D5F 		.ascii	"M2M_WIFI_REQ_GET_PRNG\000"
 20713      57494649 
 20713      5F524551 
 20713      5F474554 
 20713      5F50524E 
 20714              	.LASF443:
 20715 2f93 47505444 		.ascii	"GPTD5\000"
 20715      3500
 20716              	.LASF384:
 20717 2f99 424C4B5F 		.ascii	"BLK_DISCONNECTING\000"
 20717      44495343 
 20717      4F4E4E45 
 20717      4354494E 
 20717      4700
 20718              	.LASF864:
 20719 2fab 75384465 		.ascii	"u8DeviceNameLength\000"
 20719      76696365 
 20719      4E616D65 
 20719      4C656E67 
 20719      746800
 20720              	.LASF545:
 20721 2fbe 7373706F 		.ascii	"ssport\000"
 20721      727400
 20722              	.LASF644:
 20723 2fc5 4D324D5F 		.ascii	"M2M_SSL_RESP_ECC\000"
 20723      53534C5F 
 20723      52455350 
 20723      5F454343 
 20723      00
 20724              	.LASF792:
 20725 2fd6 75385365 		.ascii	"u8Second\000"
 20725      636F6E64 
 20725      00
 20726              	.LASF166:
 20727 2fdf 74687265 		.ascii	"thread_reference_t\000"
 20727      61645F72 
 20727      65666572 
ARM GAS  C:\Users\RAKIBU~1\AppData\Local\Temp\ccQ3AEax.s 			page 405


 20727      656E6365 
 20727      5F7400
 20728              	.LASF858:
 20729 2ff2 73385265 		.ascii	"s8Ret\000"
 20729      7400
 20730              	.LASF847:
 20731 2ff8 62456E61 		.ascii	"bEnable\000"
 20731      626C6500 
 20732              	.LASF984:
 20733 3000 656E6162 		.ascii	"enable_interrupts\000"
 20733      6C655F69 
 20733      6E746572 
 20733      72757074 
 20733      7300
 20734              	.LASF759:
 20735 3012 74737472 		.ascii	"tstrM2MWifiTxPacketInfo\000"
 20735      4D324D57 
 20735      69666954 
 20735      78506163 
 20735      6B657449 
 20736              	.LASF887:
 20737 302a 70737472 		.ascii	"pstrM2mGain\000"
 20737      4D326D47 
 20737      61696E00 
 20738              	.LASF93:
 20739 3036 5F5F4649 		.ascii	"__FILE\000"
 20739      4C4500
 20740              	.LASF439:
 20741 303d 66726571 		.ascii	"frequency\000"
 20741      75656E63 
 20741      7900
 20742              	.LASF542:
 20743 3047 68616C5F 		.ascii	"hal_spi_config\000"
 20743      7370695F 
 20743      636F6E66 
 20743      696700
 20744              	.LASF29:
 20745 3056 5F736967 		.ascii	"_sign\000"
 20745      6E00
 20746              	.LASF603:
 20747 305c 4D324D5F 		.ascii	"M2M_WIFI_REQ_SET_GAINS\000"
 20747      57494649 
 20747      5F524551 
 20747      5F534554 
 20747      5F474149 
 20748              	.LASF34:
 20749 3073 5F5F746D 		.ascii	"__tm_min\000"
 20749      5F6D696E 
 20749      00
 20750              	.LASF917:
 20751 307c 70737472 		.ascii	"pstrM2mLsnInt\000"
 20751      4D326D4C 
 20751      736E496E 
 20751      7400
 20752              	.LASF555:
 20753 308a 7538456E 		.ascii	"u8Enable\000"
 20753      61626C65 
ARM GAS  C:\Users\RAKIBU~1\AppData\Local\Temp\ccQ3AEax.s 			page 406


 20753      00
 20754              	.LASF897:
 20755 3093 6D326D5F 		.ascii	"m2m_wifi_wps_disable\000"
 20755      77696669 
 20755      5F777073 
 20755      5F646973 
 20755      61626C65 
 20756              	.LASF748:
 20757 30a8 75384865 		.ascii	"u8HeaderLength\000"
 20757      61646572 
 20757      4C656E67 
 20757      746800
 20758              	.LASF458:
 20759 30b7 46415354 		.ascii	"FAST_DUTY_CYCLE_2\000"
 20759      5F445554 
 20759      595F4359 
 20759      434C455F 
 20759      3200
 20760              	.LASF321:
 20761 30c9 76657273 		.ascii	"version\000"
 20761      696F6E00 
 20762              	.LASF254:
 20763 30d1 44435452 		.ascii	"DCTRL\000"
 20763      4C00
 20764              	.LASF891:
 20765 30d7 6D326D5F 		.ascii	"m2m_wifi_p2p\000"
 20765      77696669 
 20765      5F703270 
 20765      00
 20766              	.LASF342:
 20767 30e4 6576656E 		.ascii	"events\000"
 20767      747300
 20768              	.LASF598:
 20769 30eb 4D324D5F 		.ascii	"M2M_WIFI_RESP_ETHERNET_RX_PACKET\000"
 20769      57494649 
 20769      5F524553 
 20769      505F4554 
 20769      4845524E 
 20770              	.LASF276:
 20771 310c 43434D52 		.ascii	"CCMR1\000"
 20771      3100
 20772              	.LASF277:
 20773 3112 43434D52 		.ascii	"CCMR2\000"
 20773      3200
 20774              	.LASF281:
 20775 3118 43434D52 		.ascii	"CCMR3\000"
 20775      3300
 20776              	.LASF13:
 20777 311e 756E7369 		.ascii	"unsigned int\000"
 20777      676E6564 
 20777      20696E74 
 20777      00
 20778              	.LASF107:
 20779 312b 5F723438 		.ascii	"_r48\000"
 20779      00
 20780              	.LASF965:
 20781 3130 73747250 		.ascii	"strPrng\000"
ARM GAS  C:\Users\RAKIBU~1\AppData\Local\Temp\ccQ3AEax.s 			page 407


 20781      726E6700 
 20782              	.LASF372:
 20783 3138 73747265 		.ascii	"stream\000"
 20783      616D00
 20784              	.LASF374:
 20785 313f 64756D6D 		.ascii	"dummy\000"
 20785      7900
 20786              	.LASF456:
 20787 3145 6932636F 		.ascii	"i2copmode_t\000"
 20787      706D6F64 
 20787      655F7400 
 20788              	.LASF786:
 20789 3151 74737472 		.ascii	"tstrM2MConnInfo\000"
 20789      4D324D43 
 20789      6F6E6E49 
 20789      6E666F00 
 20790              	.LASF615:
 20791 3161 4D324D5F 		.ascii	"M2M_WIFI_REQ_DISABLE_WPS\000"
 20791      57494649 
 20791      5F524551 
 20791      5F444953 
 20791      41424C45 
 20792              	.LASF136:
 20793 317a 75696E74 		.ascii	"uint_fast8_t\000"
 20793      5F666173 
 20793      74385F74 
 20793      00
 20794              	.LASF340:
 20795 3187 6576656E 		.ascii	"event_listener\000"
 20795      745F6C69 
 20795      7374656E 
 20795      657200
 20796              	.LASF722:
 20797 3196 74737472 		.ascii	"tstrM2MScan\000"
 20797      4D324D53 
 20797      63616E00 
 20798              	.LASF2:
 20799 31a2 73686F72 		.ascii	"short int\000"
 20799      7420696E 
 20799      7400
 20800              	.LASF356:
 20801 31ac 6D656D6F 		.ascii	"memory_pool_t\000"
 20801      72795F70 
 20801      6F6F6C5F 
 20801      7400
 20802              	.LASF58:
 20803 31ba 5F726561 		.ascii	"_read\000"
 20803      6400
 20804              	.LASF586:
 20805 31c0 4D324D5F 		.ascii	"M2M_WIFI_RESP_SCAN_DONE\000"
 20805      57494649 
 20805      5F524553 
 20805      505F5343 
 20805      414E5F44 
 20806              	.LASF172:
 20807 31d8 70726576 		.ascii	"prev\000"
 20807      00
ARM GAS  C:\Users\RAKIBU~1\AppData\Local\Temp\ccQ3AEax.s 			page 408


 20808              	.LASF841:
 20809 31dd 7374724D 		.ascii	"strM2mEnableLogs\000"
 20809      326D456E 
 20809      61626C65 
 20809      4C6F6773 
 20809      00
 20810              	.LASF935:
 20811 31ee 70737472 		.ascii	"pstrWepParams\000"
 20811      57657050 
 20811      6172616D 
 20811      7300
 20812              	.LASF412:
 20813 31fc 6F757470 		.ascii	"output_queue_t\000"
 20813      75745F71 
 20813      75657565 
 20813      5F7400
 20814              	.LASF97:
 20815 320b 5F72616E 		.ascii	"_rand48\000"
 20815      64343800 
 20816              	.LASF578:
 20817 3213 4D324D5F 		.ascii	"M2M_WIFI_RESP_PROVISION_INFO\000"
 20817      57494649 
 20817      5F524553 
 20817      505F5052 
 20817      4F564953 
 20818              	.LASF899:
 20819 3230 70635069 		.ascii	"pcPinNumber\000"
 20819      6E4E756D 
 20819      62657200 
 20820              	.LASF463:
 20821 323c 64757479 		.ascii	"duty_cycle\000"
 20821      5F637963 
 20821      6C6500
 20822              	.LASF163:
 20823 3247 7265616C 		.ascii	"realprio\000"
 20823      7072696F 
 20823      00
 20824              	.LASF157:
 20825 3250 666C6167 		.ascii	"flags\000"
 20825      7300
 20826              	.LASF775:
 20827 3256 74737472 		.ascii	"tstrM2MIPConfig\000"
 20827      4D324D49 
 20827      50436F6E 
 20827      66696700 
 20828              	.LASF526:
 20829 3266 69735F69 		.ascii	"is_inserted\000"
 20829      6E736572 
 20829      74656400 
 20830              	.LASF168:
 20831 3272 63685F74 		.ascii	"ch_threads_list\000"
 20831      68726561 
 20831      64735F6C 
 20831      69737400 
 20832              	.LASF255:
 20833 3282 44434F55 		.ascii	"DCOUNT\000"
 20833      4E5400
ARM GAS  C:\Users\RAKIBU~1\AppData\Local\Temp\ccQ3AEax.s 			page 409


 20834              	.LASF206:
 20835 3289 4F415231 		.ascii	"OAR1\000"
 20835      00
 20836              	.LASF207:
 20837 328e 4F415232 		.ascii	"OAR2\000"
 20837      00
 20838              	.LASF498:
 20839 3293 53445F52 		.ascii	"SD_READY\000"
 20839      45414459 
 20839      00
 20840              		.ident	"GCC: (GNU Tools for Arm Embedded Processors 7-2017-q4-major) 7.2.1 20170904 (release) [ARM
ARM GAS  C:\Users\RAKIBU~1\AppData\Local\Temp\ccQ3AEax.s 			page 410


DEFINED SYMBOLS
                            *ABS*:00000000 m2m_wifi.c
C:\Users\RAKIBU~1\AppData\Local\Temp\ccQ3AEax.s:15     .text:00000000 $t
C:\Users\RAKIBU~1\AppData\Local\Temp\ccQ3AEax.s:22     .text:00000000 m2m_validate_scan_options
C:\Users\RAKIBU~1\AppData\Local\Temp\ccQ3AEax.s:100    .text:00000050 m2m_wifi_cb
C:\Users\RAKIBU~1\AppData\Local\Temp\ccQ3AEax.s:527    .text:00000274 $d
C:\Users\RAKIBU~1\AppData\Local\Temp\ccQ3AEax.s:532    .text:00000278 $t
C:\Users\RAKIBU~1\AppData\Local\Temp\ccQ3AEax.s:539    .text:00000280 m2m_validate_ap_parameters
C:\Users\RAKIBU~1\AppData\Local\Temp\ccQ3AEax.s:704    .text:00000350 m2m_wifi_download_mode
C:\Users\RAKIBU~1\AppData\Local\Temp\ccQ3AEax.s:743    .text:00000370 m2m_wifi_send_crl
C:\Users\RAKIBU~1\AppData\Local\Temp\ccQ3AEax.s:784    .text:00000390 m2m_wifi_init
C:\Users\RAKIBU~1\AppData\Local\Temp\ccQ3AEax.s:903    .text:00000430 $d
C:\Users\RAKIBU~1\AppData\Local\Temp\ccQ3AEax.s:915    .text:00000454 $t
C:\Users\RAKIBU~1\AppData\Local\Temp\ccQ3AEax.s:923    .text:00000460 m2m_wifi_deinit
C:\Users\RAKIBU~1\AppData\Local\Temp\ccQ3AEax.s:957    .text:00000480 m2m_wifi_handle_events
C:\Users\RAKIBU~1\AppData\Local\Temp\ccQ3AEax.s:984    .text:00000490 m2m_wifi_default_connect
C:\Users\RAKIBU~1\AppData\Local\Temp\ccQ3AEax.s:1021   .text:000004b0 m2m_wifi_connect_sc
C:\Users\RAKIBU~1\AppData\Local\Temp\ccQ3AEax.s:1298   .text:00000620 m2m_wifi_connect
C:\Users\RAKIBU~1\AppData\Local\Temp\ccQ3AEax.s:1334   .text:00000640 m2m_wifi_disconnect
C:\Users\RAKIBU~1\AppData\Local\Temp\ccQ3AEax.s:1371   .text:00000660 m2m_wifi_set_mac_address
C:\Users\RAKIBU~1\AppData\Local\Temp\ccQ3AEax.s:1417   .text:00000690 m2m_wifi_set_static_ip
C:\Users\RAKIBU~1\AppData\Local\Temp\ccQ3AEax.s:1457   .text:000006b0 m2m_wifi_request_dhcp_client
C:\Users\RAKIBU~1\AppData\Local\Temp\ccQ3AEax.s:1478   .text:000006c0 m2m_wifi_request_dhcp_server
C:\Users\RAKIBU~1\AppData\Local\Temp\ccQ3AEax.s:1501   .text:000006d0 m2m_wifi_enable_dhcp
C:\Users\RAKIBU~1\AppData\Local\Temp\ccQ3AEax.s:1551   .text:00000700 m2m_wifi_set_lsn_int
C:\Users\RAKIBU~1\AppData\Local\Temp\ccQ3AEax.s:1591   .text:00000720 m2m_wifi_set_cust_InfoElement
C:\Users\RAKIBU~1\AppData\Local\Temp\ccQ3AEax.s:1653   .text:00000760 m2m_wifi_set_scan_options
C:\Users\RAKIBU~1\AppData\Local\Temp\ccQ3AEax.s:1707   .text:00000790 m2m_wifi_set_scan_region
C:\Users\RAKIBU~1\AppData\Local\Temp\ccQ3AEax.s:1750   .text:000007c0 m2m_wifi_request_scan
C:\Users\RAKIBU~1\AppData\Local\Temp\ccQ3AEax.s:1826   .text:00000810 $d
C:\Users\RAKIBU~1\AppData\Local\Temp\ccQ3AEax.s:1830   .text:00000814 $t
C:\Users\RAKIBU~1\AppData\Local\Temp\ccQ3AEax.s:1838   .text:00000820 m2m_wifi_request_scan_passive
C:\Users\RAKIBU~1\AppData\Local\Temp\ccQ3AEax.s:1917   .text:00000874 $d
C:\Users\RAKIBU~1\AppData\Local\Temp\ccQ3AEax.s:1921   .text:00000878 $t
C:\Users\RAKIBU~1\AppData\Local\Temp\ccQ3AEax.s:1929   .text:00000880 m2m_wifi_request_scan_ssid_list
C:\Users\RAKIBU~1\AppData\Local\Temp\ccQ3AEax.s:2065   .text:000008fc $d
C:\Users\RAKIBU~1\AppData\Local\Temp\ccQ3AEax.s:2069   .text:00000900 $t
C:\Users\RAKIBU~1\AppData\Local\Temp\ccQ3AEax.s:2077   .text:00000900 m2m_wifi_wps
C:\Users\RAKIBU~1\AppData\Local\Temp\ccQ3AEax.s:2129   .text:00000938 $d
C:\Users\RAKIBU~1\AppData\Local\Temp\ccQ3AEax.s:2133   .text:0000093c $t
C:\Users\RAKIBU~1\AppData\Local\Temp\ccQ3AEax.s:2141   .text:00000940 m2m_wifi_wps_disable
C:\Users\RAKIBU~1\AppData\Local\Temp\ccQ3AEax.s:2179   .text:00000960 m2m_wifi_req_client_ctrl
C:\Users\RAKIBU~1\AppData\Local\Temp\ccQ3AEax.s:2202   .text:00000970 m2m_wifi_req_server_init
C:\Users\RAKIBU~1\AppData\Local\Temp\ccQ3AEax.s:2225   .text:00000980 m2m_wifi_p2p
C:\Users\RAKIBU~1\AppData\Local\Temp\ccQ3AEax.s:2289   .text:000009c0 m2m_wifi_p2p_disconnect
C:\Users\RAKIBU~1\AppData\Local\Temp\ccQ3AEax.s:2327   .text:000009e0 m2m_wifi_enable_ap
C:\Users\RAKIBU~1\AppData\Local\Temp\ccQ3AEax.s:2381   .text:00000a10 m2m_wifi_set_gains
C:\Users\RAKIBU~1\AppData\Local\Temp\ccQ3AEax.s:2433   .text:00000a40 m2m_wifi_disable_ap
C:\Users\RAKIBU~1\AppData\Local\Temp\ccQ3AEax.s:2471   .text:00000a60 m2m_wifi_req_curr_rssi
C:\Users\RAKIBU~1\AppData\Local\Temp\ccQ3AEax.s:2509   .text:00000a80 m2m_wifi_send_ethernet_pkt
C:\Users\RAKIBU~1\AppData\Local\Temp\ccQ3AEax.s:2576   .text:00000ac0 m2m_wifi_get_otp_mac_address
C:\Users\RAKIBU~1\AppData\Local\Temp\ccQ3AEax.s:2632   .text:00000af0 m2m_wifi_get_mac_address
C:\Users\RAKIBU~1\AppData\Local\Temp\ccQ3AEax.s:2684   .text:00000b20 m2m_wifi_req_scan_result
C:\Users\RAKIBU~1\AppData\Local\Temp\ccQ3AEax.s:2727   .text:00000b50 m2m_wifi_get_num_ap_found
C:\Users\RAKIBU~1\AppData\Local\Temp\ccQ3AEax.s:2742   .text:00000b58 $d
C:\Users\RAKIBU~1\AppData\Local\Temp\ccQ3AEax.s:2746   .text:00000b5c $t
C:\Users\RAKIBU~1\AppData\Local\Temp\ccQ3AEax.s:2754   .text:00000b60 m2m_wifi_get_sleep_mode
ARM GAS  C:\Users\RAKIBU~1\AppData\Local\Temp\ccQ3AEax.s 			page 411


C:\Users\RAKIBU~1\AppData\Local\Temp\ccQ3AEax.s:2780   .text:00000b70 m2m_wifi_set_sleep_mode
C:\Users\RAKIBU~1\AppData\Local\Temp\ccQ3AEax.s:2836   .text:00000ba0 m2m_wifi_request_sleep
C:\Users\RAKIBU~1\AppData\Local\Temp\ccQ3AEax.s:2898   .text:00000bd0 m2m_wifi_set_device_name
C:\Users\RAKIBU~1\AppData\Local\Temp\ccQ3AEax.s:2954   .text:00000c00 m2m_wifi_get_firmware_version
C:\Users\RAKIBU~1\AppData\Local\Temp\ccQ3AEax.s:3004   .text:00000c20 m2m_wifi_start_provision_mode
C:\Users\RAKIBU~1\AppData\Local\Temp\ccQ3AEax.s:3101   .text:00000c84 $d
C:\Users\RAKIBU~1\AppData\Local\Temp\ccQ3AEax.s:3105   .text:00000c88 $t
C:\Users\RAKIBU~1\AppData\Local\Temp\ccQ3AEax.s:3113   .text:00000c90 m2m_wifi_stop_provision_mode
C:\Users\RAKIBU~1\AppData\Local\Temp\ccQ3AEax.s:3150   .text:00000cb0 m2m_wifi_get_connection_info
C:\Users\RAKIBU~1\AppData\Local\Temp\ccQ3AEax.s:3187   .text:00000cd0 m2m_wifi_set_sytem_time
C:\Users\RAKIBU~1\AppData\Local\Temp\ccQ3AEax.s:3228   .text:00000d00 m2m_wifi_get_sytem_time
C:\Users\RAKIBU~1\AppData\Local\Temp\ccQ3AEax.s:3265   .text:00000d20 m2m_wifi_enable_sntp
C:\Users\RAKIBU~1\AppData\Local\Temp\ccQ3AEax.s:3315   .text:00000d50 m2m_wifi_set_power_profile
C:\Users\RAKIBU~1\AppData\Local\Temp\ccQ3AEax.s:3358   .text:00000d80 m2m_wifi_set_tx_power
C:\Users\RAKIBU~1\AppData\Local\Temp\ccQ3AEax.s:3401   .text:00000db0 m2m_wifi_enable_firmware_logs
C:\Users\RAKIBU~1\AppData\Local\Temp\ccQ3AEax.s:3444   .text:00000de0 m2m_wifi_set_battery_voltage
C:\Users\RAKIBU~1\AppData\Local\Temp\ccQ3AEax.s:3489   .text:00000e10 m2m_wifi_prng_get_random_bytes
C:\Users\RAKIBU~1\AppData\Local\Temp\ccQ3AEax.s:3551   .bss:00000000 $d
C:\Users\RAKIBU~1\AppData\Local\Temp\ccQ3AEax.s:3555   .bss:00000000 gpfAppWifiCb
C:\Users\RAKIBU~1\AppData\Local\Temp\ccQ3AEax.s:3559   .bss:00000004 gu8scanInProgress
C:\Users\RAKIBU~1\AppData\Local\Temp\ccQ3AEax.s:3563   .bss:00000005 gu8ChNum
C:\Users\RAKIBU~1\AppData\Local\Temp\ccQ3AEax.s:3566   .rodata.str1.4:00000000 $d

UNDEFINED SYMBOLS
hif_receive
m2m_memset
m2m_strlen
nm_drv_init_download_mode
enable_interrupts
hif_send
nm_drv_init
hif_init
nm_drv_deinit
hif_register_cb
nm_get_firmware_full_info
myPrintf
hif_deinit
hif_handle_isr
m2m_memcpy
hif_chip_wake
nmi_get_otp_mac_address
hif_chip_sleep
nmi_get_mac_address
hif_get_sleep_mode
hif_set_sleep_mode
