ARM GAS  C:\Users\RAKIBU~1\AppData\Local\Temp\ccYZ8Wrs.s 			page 1


   1              		.cpu cortex-m4
   2              		.eabi_attribute 20, 1
   3              		.eabi_attribute 21, 1
   4              		.eabi_attribute 23, 3
   5              		.eabi_attribute 24, 1
   6              		.eabi_attribute 25, 1
   7              		.eabi_attribute 26, 1
   8              		.eabi_attribute 30, 1
   9              		.eabi_attribute 34, 1
  10              		.eabi_attribute 18, 4
  11              		.file	"memstreams.c"
  12              		.text
  13              	.Ltext0:
  14              		.cfi_sections	.debug_frame
  15              		.align	1
  16              		.p2align 4,,15
  17              		.syntax unified
  18              		.thumb
  19              		.thumb_func
  20              		.fpu softvfp
  21              		.type	_put, %function
  22              	_put:
  23              	.LFB330:
  24              		.file 1 "../../../ChibiOSRepo/chibios191/os/hal/lib/streams/memstreams.c"
  25              		.loc 1 67 0
  26              		.cfi_startproc
  27              		@ args = 0, pretend = 0, frame = 0
  28              		@ frame_needed = 0, uses_anonymous_args = 0
  29              		@ link register save eliminated.
  30              	.LVL0:
  31              		.loc 1 70 0
  32 0000 8268     		ldr	r2, [r0, #8]
  33 0002 C368     		ldr	r3, [r0, #12]
  34 0004 9A42     		cmp	r2, r3
  35 0006 06D0     		beq	.L3
  36              		.loc 1 72 0
  37 0008 4268     		ldr	r2, [r0, #4]
  38 000a D154     		strb	r1, [r2, r3]
  39              		.loc 1 73 0
  40 000c C368     		ldr	r3, [r0, #12]
  41 000e 0133     		adds	r3, r3, #1
  42 0010 C360     		str	r3, [r0, #12]
  43              		.loc 1 74 0
  44 0012 0020     		movs	r0, #0
  45              	.LVL1:
  46 0014 7047     		bx	lr
  47              	.LVL2:
  48              	.L3:
  49              		.loc 1 71 0
  50 0016 6FF00100 		mvn	r0, #1
  51              	.LVL3:
  52              		.loc 1 75 0
  53 001a 7047     		bx	lr
  54              		.cfi_endproc
  55              	.LFE330:
  56              		.size	_put, .-_put
  57              		.align	1
ARM GAS  C:\Users\RAKIBU~1\AppData\Local\Temp\ccYZ8Wrs.s 			page 2


  58 001c AFF30080 		.p2align 4,,15
  59              		.syntax unified
  60              		.thumb
  61              		.thumb_func
  62              		.fpu softvfp
  63              		.type	_get, %function
  64              	_get:
  65              	.LFB331:
  66              		.loc 1 77 0
  67              		.cfi_startproc
  68              		@ args = 0, pretend = 0, frame = 0
  69              		@ frame_needed = 0, uses_anonymous_args = 0
  70              		@ link register save eliminated.
  71              	.LVL4:
  72              		.loc 1 81 0
  73 0020 C268     		ldr	r2, [r0, #12]
  74 0022 0369     		ldr	r3, [r0, #16]
  75 0024 9A42     		cmp	r2, r3
  76 0026 05D0     		beq	.L6
  77              		.loc 1 83 0
  78 0028 4268     		ldr	r2, [r0, #4]
  79 002a D25C     		ldrb	r2, [r2, r3]	@ zero_extendqisi2
  80              	.LVL5:
  81              		.loc 1 84 0
  82 002c 0133     		adds	r3, r3, #1
  83 002e 0361     		str	r3, [r0, #16]
  84              		.loc 1 85 0
  85 0030 1046     		mov	r0, r2
  86              	.LVL6:
  87 0032 7047     		bx	lr
  88              	.LVL7:
  89              	.L6:
  90              		.loc 1 82 0
  91 0034 6FF00100 		mvn	r0, #1
  92              	.LVL8:
  93              		.loc 1 86 0
  94 0038 7047     		bx	lr
  95              		.cfi_endproc
  96              	.LFE331:
  97              		.size	_get, .-_get
  98              		.align	1
  99 003a 00BFAFF3 		.p2align 4,,15
  99      0080
 100              		.syntax unified
 101              		.thumb
 102              		.thumb_func
 103              		.fpu softvfp
 104              		.type	_reads, %function
 105              	_reads:
 106              	.LFB329:
 107              		.loc 1 57 0
 108              		.cfi_startproc
 109              		@ args = 0, pretend = 0, frame = 0
 110              		@ frame_needed = 0, uses_anonymous_args = 0
 111              	.LVL9:
 112 0040 38B5     		push	{r3, r4, r5, lr}
 113              		.cfi_def_cfa_offset 16
ARM GAS  C:\Users\RAKIBU~1\AppData\Local\Temp\ccYZ8Wrs.s 			page 3


 114              		.cfi_offset 3, -16
 115              		.cfi_offset 4, -12
 116              		.cfi_offset 5, -8
 117              		.cfi_offset 14, -4
 118 0042 0546     		mov	r5, r0
 119 0044 0846     		mov	r0, r1
 120              	.LVL10:
 121              		.loc 1 60 0
 122 0046 EC68     		ldr	r4, [r5, #12]
 123 0048 2B69     		ldr	r3, [r5, #16]
 124 004a E41A     		subs	r4, r4, r3
 125 004c 9442     		cmp	r4, r2
 126 004e 09D2     		bcs	.L10
 127              	.L8:
 128              	.LVL11:
 129              		.loc 1 62 0
 130 0050 6968     		ldr	r1, [r5, #4]
 131              	.LVL12:
 132 0052 2246     		mov	r2, r4
 133 0054 1944     		add	r1, r1, r3
 134 0056 FFF7FEFF 		bl	memcpy
 135              	.LVL13:
 136              		.loc 1 63 0
 137 005a 2B69     		ldr	r3, [r5, #16]
 138 005c 2344     		add	r3, r3, r4
 139 005e 2B61     		str	r3, [r5, #16]
 140              		.loc 1 65 0
 141 0060 2046     		mov	r0, r4
 142 0062 38BD     		pop	{r3, r4, r5, pc}
 143              	.LVL14:
 144              	.L10:
 145              		.loc 1 60 0
 146 0064 1446     		mov	r4, r2
 147 0066 F3E7     		b	.L8
 148              		.cfi_endproc
 149              	.LFE329:
 150              		.size	_reads, .-_reads
 151              		.align	1
 152 0068 AFF30080 		.p2align 4,,15
 152      AFF30080 
 153              		.syntax unified
 154              		.thumb
 155              		.thumb_func
 156              		.fpu softvfp
 157              		.type	_writes, %function
 158              	_writes:
 159              	.LFB328:
 160              		.loc 1 47 0
 161              		.cfi_startproc
 162              		@ args = 0, pretend = 0, frame = 0
 163              		@ frame_needed = 0, uses_anonymous_args = 0
 164              	.LVL15:
 165 0070 38B5     		push	{r3, r4, r5, lr}
 166              		.cfi_def_cfa_offset 16
 167              		.cfi_offset 3, -16
 168              		.cfi_offset 4, -12
 169              		.cfi_offset 5, -8
ARM GAS  C:\Users\RAKIBU~1\AppData\Local\Temp\ccYZ8Wrs.s 			page 4


 170              		.cfi_offset 14, -4
 171 0072 0546     		mov	r5, r0
 172              	.LVL16:
 173              		.loc 1 50 0
 174 0074 8468     		ldr	r4, [r0, #8]
 175 0076 C368     		ldr	r3, [r0, #12]
 176 0078 E41A     		subs	r4, r4, r3
 177 007a 9442     		cmp	r4, r2
 178 007c 09D2     		bcs	.L14
 179              	.L12:
 180              	.LVL17:
 181              		.loc 1 52 0
 182 007e 6868     		ldr	r0, [r5, #4]
 183              	.LVL18:
 184 0080 2246     		mov	r2, r4
 185 0082 1844     		add	r0, r0, r3
 186 0084 FFF7FEFF 		bl	memcpy
 187              	.LVL19:
 188              		.loc 1 53 0
 189 0088 EB68     		ldr	r3, [r5, #12]
 190 008a 2344     		add	r3, r3, r4
 191 008c EB60     		str	r3, [r5, #12]
 192              		.loc 1 55 0
 193 008e 2046     		mov	r0, r4
 194 0090 38BD     		pop	{r3, r4, r5, pc}
 195              	.LVL20:
 196              	.L14:
 197              		.loc 1 50 0
 198 0092 1446     		mov	r4, r2
 199 0094 F3E7     		b	.L12
 200              		.cfi_endproc
 201              	.LFE328:
 202              		.size	_writes, .-_writes
 203              		.align	1
 204 0096 00BFAFF3 		.p2align 4,,15
 204      0080AFF3 
 204      0080
 205              		.global	msObjectInit
 206              		.syntax unified
 207              		.thumb
 208              		.thumb_func
 209              		.fpu softvfp
 210              		.type	msObjectInit, %function
 211              	msObjectInit:
 212              	.LFB332:
 213              		.loc 1 105 0
 214              		.cfi_startproc
 215              		@ args = 0, pretend = 0, frame = 0
 216              		@ frame_needed = 0, uses_anonymous_args = 0
 217              		@ link register save eliminated.
 218              	.LVL21:
 219 00a0 10B4     		push	{r4}
 220              		.cfi_def_cfa_offset 4
 221              		.cfi_offset 4, -4
 222              		.loc 1 107 0
 223 00a2 044C     		ldr	r4, .L17
 224 00a4 0460     		str	r4, [r0]
ARM GAS  C:\Users\RAKIBU~1\AppData\Local\Temp\ccYZ8Wrs.s 			page 5


 225              		.loc 1 108 0
 226 00a6 4160     		str	r1, [r0, #4]
 227              		.loc 1 109 0
 228 00a8 8260     		str	r2, [r0, #8]
 229              		.loc 1 110 0
 230 00aa C360     		str	r3, [r0, #12]
 231              		.loc 1 111 0
 232 00ac 0023     		movs	r3, #0
 233              	.LVL22:
 234 00ae 0361     		str	r3, [r0, #16]
 235              		.loc 1 112 0
 236 00b0 10BC     		pop	{r4}
 237              		.cfi_restore 4
 238              		.cfi_def_cfa_offset 0
 239 00b2 7047     		bx	lr
 240              	.L18:
 241              		.align	2
 242              	.L17:
 243 00b4 00000000 		.word	.LANCHOR0
 244              		.cfi_endproc
 245              	.LFE332:
 246              		.size	msObjectInit, .-msObjectInit
 247              		.section	.rodata
 248              		.align	2
 249              		.set	.LANCHOR0,. + 0
 250              		.type	vmt, %object
 251              		.size	vmt, 20
 252              	vmt:
 253 0000 00000000 		.word	0
 254 0004 00000000 		.word	_writes
 255 0008 00000000 		.word	_reads
 256 000c 00000000 		.word	_put
 257 0010 00000000 		.word	_get
 258              		.text
 259              	.Letext0:
 260              		.file 2 "c:\\chibistudio\\tools\\gnu tools arm embedded\\7.0 2017q4\\lib\\gcc\\arm-none-eabi\\7.2.
 261              		.file 3 "c:\\chibistudio\\tools\\gnu tools arm embedded\\7.0 2017q4\\arm-none-eabi\\include\\machi
 262              		.file 4 "c:\\chibistudio\\tools\\gnu tools arm embedded\\7.0 2017q4\\arm-none-eabi\\include\\sys\\
 263              		.file 5 "c:\\chibistudio\\tools\\gnu tools arm embedded\\7.0 2017q4\\arm-none-eabi\\include\\sys\\
 264              		.file 6 "c:\\chibistudio\\tools\\gnu tools arm embedded\\7.0 2017q4\\arm-none-eabi\\include\\sys\\
 265              		.file 7 "c:\\chibistudio\\tools\\gnu tools arm embedded\\7.0 2017q4\\arm-none-eabi\\include\\sys\\
 266              		.file 8 "c:\\chibistudio\\tools\\gnu tools arm embedded\\7.0 2017q4\\arm-none-eabi\\include\\stdin
 267              		.file 9 "../../../ChibiOSRepo/chibios191/os/common/ports/ARMCMx/compilers/GCC/chtypes.h"
 268              		.file 10 "../../../ChibiOSRepo/chibios191/os/rt/include/chsystypes.h"
 269              		.file 11 "../../../ChibiOSRepo/chibios191/os/rt/include/chschd.h"
 270              		.file 12 "../../../ChibiOSRepo/chibios191/os/rt/include/chtime.h"
 271              		.file 13 "../../../ChibiOSRepo/chibios191/os/common/ext/ARM/CMSIS/Core/Include/core_cm4.h"
 272              		.file 14 "../../../ChibiOSRepo/chibios191/os/common/ext/ST/STM32F4xx/system_stm32f4xx.h"
 273              		.file 15 "../../../ChibiOSRepo/chibios191/os/common/ext/ST/STM32F4xx/stm32f407xx.h"
 274              		.file 16 "../../../ChibiOSRepo/chibios191/os/common/ports/ARMCMx/chcore.h"
 275              		.file 17 "../../../ChibiOSRepo/chibios191/os/common/ports/ARMCMx/chcore_v7m.h"
 276              		.file 18 "../../../ChibiOSRepo/chibios191/os/hal/ports/STM32/LLD/TIMv1/stm32_tim.h"
 277              		.file 19 "../../../ChibiOSRepo/chibios191/os/rt/include/chtrace.h"
 278              		.file 20 "../../../ChibiOSRepo/chibios191/os/rt/include/chtm.h"
 279              		.file 21 "../../../ChibiOSRepo/chibios191/os/rt/include/chstats.h"
 280              		.file 22 "../../../ChibiOSRepo/chibios191/os/rt/include/chsem.h"
 281              		.file 23 "../../../ChibiOSRepo/chibios191/os/rt/include/chmtx.h"
ARM GAS  C:\Users\RAKIBU~1\AppData\Local\Temp\ccYZ8Wrs.s 			page 6


 282              		.file 24 "../../../ChibiOSRepo/chibios191/os/rt/include/chsys.h"
 283              		.file 25 "../../../ChibiOSRepo/chibios191/os/rt/include/chregistry.h"
 284              		.file 26 "../../../ChibiOSRepo/chibios191/os/rt/include/chevents.h"
 285              		.file 27 "../../../ChibiOSRepo/chibios191/os/oslib/include/chmemcore.h"
 286              		.file 28 "../../../ChibiOSRepo/chibios191/os/oslib/include/chmempools.h"
 287              		.file 29 "../../../ChibiOSRepo/chibios191/os/oslib/include/chfactory.h"
 288              		.file 30 "../../../ChibiOSRepo/chibios191/os/hal/ports/STM32/LLD/DMAv2/stm32_dma.h"
 289              		.file 31 "../../../ChibiOSRepo/chibios191/os/hal/include/hal_ioblock.h"
 290              		.file 32 "../../../ChibiOSRepo/chibios191/os/hal/include/hal_persistent.h"
 291              		.file 33 "../../../ChibiOSRepo/chibios191/os/hal/include/hal_queues.h"
 292              		.file 34 "../../../ChibiOSRepo/chibios191/os/hal/include/hal_pal.h"
 293              		.file 35 "../../../ChibiOSRepo/chibios191/os/hal/ports/STM32/LLD/GPIOv2/stm32_gpio.h"
 294              		.file 36 "../../../ChibiOSRepo/chibios191/os/hal/ports/STM32/LLD/GPIOv2/hal_pal_lld.h"
 295              		.file 37 "../../../ChibiOSRepo/chibios191/os/hal/include/hal_gpt.h"
 296              		.file 38 "../../../ChibiOSRepo/chibios191/os/hal/ports/STM32/LLD/TIMv1/hal_gpt_lld.h"
 297              		.file 39 "../../../ChibiOSRepo/chibios191/os/hal/include/hal_i2c.h"
 298              		.file 40 "../../../ChibiOSRepo/chibios191/os/hal/ports/STM32/LLD/I2Cv1/hal_i2c_lld.h"
 299              		.file 41 "c:\\chibistudio\\tools\\gnu tools arm embedded\\7.0 2017q4\\arm-none-eabi\\include\\time
 300              		.file 42 "../../../ChibiOSRepo/chibios191/os/hal/include/hal_rtc.h"
 301              		.file 43 "../../../ChibiOSRepo/chibios191/os/hal/ports/STM32/LLD/RTCv2/hal_rtc_lld.h"
 302              		.file 44 "../../../ChibiOSRepo/chibios191/os/hal/include/hal_serial.h"
 303              		.file 45 "../../../ChibiOSRepo/chibios191/os/hal/ports/STM32/LLD/USARTv1/hal_serial_lld.h"
 304              		.file 46 "../../../ChibiOSRepo/chibios191/os/hal/include/hal_sdc.h"
 305              		.file 47 "../../../ChibiOSRepo/chibios191/os/hal/ports/STM32/LLD/SDIOv1/hal_sdc_lld.h"
 306              		.file 48 "../../../ChibiOSRepo/chibios191/os/hal/include/hal_spi.h"
 307              		.file 49 "../../../ChibiOSRepo/chibios191/os/hal/ports/STM32/LLD/SPIv1/hal_spi_lld.h"
 308              		.file 50 "../../../ChibiOSRepo/chibios191/os/hal/lib/streams/memstreams.h"
 309              		.file 51 "<built-in>"