ARM GAS  C:\Users\RAKIBU~1\AppData\Local\Temp\cclzbrYe.s 			page 1


   1              		.cpu cortex-m4
   2              		.eabi_attribute 20, 1
   3              		.eabi_attribute 21, 1
   4              		.eabi_attribute 23, 3
   5              		.eabi_attribute 24, 1
   6              		.eabi_attribute 25, 1
   7              		.eabi_attribute 26, 1
   8              		.eabi_attribute 30, 1
   9              		.eabi_attribute 34, 1
  10              		.eabi_attribute 18, 4
  11              		.file	"nm_bsp_stm32f429.c"
  12              		.text
  13              	.Ltext0:
  14              		.cfi_sections	.debug_frame
  15              		.align	1
  16              		.p2align 4,,15
  17              		.syntax unified
  18              		.thumb
  19              		.thumb_func
  20              		.fpu softvfp
  21              		.type	init_chip_pins, %function
  22              	init_chip_pins:
  23              	.LFB328:
  24              		.file 1 "./winc1500/bsp/source/nm_bsp_stm32f429.c"
  25              		.loc 1 57 0
  26              		.cfi_startproc
  27              		@ args = 0, pretend = 0, frame = 0
  28              		@ frame_needed = 0, uses_anonymous_args = 0
  29 0000 10B5     		push	{r4, lr}
  30              		.cfi_def_cfa_offset 8
  31              		.cfi_offset 4, -8
  32              		.cfi_offset 14, -4
  33              		.loc 1 59 0
  34 0002 1C4C     		ldr	r4, .L3
  35 0004 0022     		movs	r2, #0
  36 0006 4FF48071 		mov	r1, #256
  37 000a 2046     		mov	r0, r4
  38 000c FFF7FEFF 		bl	_pal_lld_setgroupmode
  39              	.LVL0:
  40              		.loc 1 60 0
  41 0010 0022     		movs	r2, #0
  42 0012 4FF40071 		mov	r1, #512
  43 0016 2046     		mov	r0, r4
  44 0018 FFF7FEFF 		bl	_pal_lld_setgroupmode
  45              	.LVL1:
  46              		.loc 1 61 0
  47 001c 0022     		movs	r2, #0
  48 001e 4FF48061 		mov	r1, #1024
  49 0022 2046     		mov	r0, r4
  50 0024 FFF7FEFF 		bl	_pal_lld_setgroupmode
  51              	.LVL2:
  52              		.loc 1 62 0
  53 0028 0022     		movs	r2, #0
  54 002a 4FF40061 		mov	r1, #2048
  55 002e 2046     		mov	r0, r4
  56 0030 FFF7FEFF 		bl	_pal_lld_setgroupmode
  57              	.LVL3:
ARM GAS  C:\Users\RAKIBU~1\AppData\Local\Temp\cclzbrYe.s 			page 2


  58              		.loc 1 65 0
  59 0034 0122     		movs	r2, #1
  60 0036 4FF48071 		mov	r1, #256
  61 003a 2046     		mov	r0, r4
  62 003c FFF7FEFF 		bl	_pal_lld_setgroupmode
  63              	.LVL4:
  64              		.loc 1 68 0
  65 0040 0122     		movs	r2, #1
  66 0042 4FF40071 		mov	r1, #512
  67 0046 2046     		mov	r0, r4
  68 0048 FFF7FEFF 		bl	_pal_lld_setgroupmode
  69              	.LVL5:
  70              		.loc 1 69 0
  71 004c 0122     		movs	r2, #1
  72 004e 4FF48061 		mov	r1, #1024
  73 0052 2046     		mov	r0, r4
  74 0054 FFF7FEFF 		bl	_pal_lld_setgroupmode
  75              	.LVL6:
  76              		.loc 1 70 0
  77 0058 0122     		movs	r2, #1
  78 005a 4FF40061 		mov	r1, #2048
  79 005e 2046     		mov	r0, r4
  80 0060 FFF7FEFF 		bl	_pal_lld_setgroupmode
  81              	.LVL7:
  82              		.loc 1 73 0
  83 0064 2022     		movs	r2, #32
  84 0066 4FF48051 		mov	r1, #4096
  85 006a 2046     		mov	r0, r4
  86 006c FFF7FEFF 		bl	_pal_lld_setgroupmode
  87              	.LVL8:
  88              		.loc 1 74 0
  89 0070 10BD     		pop	{r4, pc}
  90              	.L4:
  91 0072 00BF     		.align	2
  92              	.L3:
  93 0074 00100240 		.word	1073876992
  94              		.cfi_endproc
  95              	.LFE328:
  96              		.size	init_chip_pins, .-init_chip_pins
  97              		.align	1
  98 0078 AFF30080 		.p2align 4,,15
  98      AFF30080 
  99              		.global	nm_bsp_deinit
 100              		.syntax unified
 101              		.thumb
 102              		.thumb_func
 103              		.fpu softvfp
 104              		.type	nm_bsp_deinit, %function
 105              	nm_bsp_deinit:
 106              	.LFB330:
 107              		.loc 1 98 0
 108              		.cfi_startproc
 109              		@ args = 0, pretend = 0, frame = 0
 110              		@ frame_needed = 0, uses_anonymous_args = 0
 111 0080 10B5     		push	{r4, lr}
 112              		.cfi_def_cfa_offset 8
 113              		.cfi_offset 4, -8
ARM GAS  C:\Users\RAKIBU~1\AppData\Local\Temp\cclzbrYe.s 			page 3


 114              		.cfi_offset 14, -4
 115              		.loc 1 99 0
 116 0082 0D4C     		ldr	r4, .L7
 117 0084 0022     		movs	r2, #0
 118 0086 4FF48071 		mov	r1, #256
 119 008a 2046     		mov	r0, r4
 120 008c FFF7FEFF 		bl	_pal_lld_setgroupmode
 121              	.LVL9:
 122              		.loc 1 100 0
 123 0090 0022     		movs	r2, #0
 124 0092 4FF40071 		mov	r1, #512
 125 0096 2046     		mov	r0, r4
 126 0098 FFF7FEFF 		bl	_pal_lld_setgroupmode
 127              	.LVL10:
 128              		.loc 1 101 0
 129 009c 0022     		movs	r2, #0
 130 009e 4FF48061 		mov	r1, #1024
 131 00a2 2046     		mov	r0, r4
 132 00a4 FFF7FEFF 		bl	_pal_lld_setgroupmode
 133              	.LVL11:
 134              		.loc 1 102 0
 135 00a8 0022     		movs	r2, #0
 136 00aa 4FF40061 		mov	r1, #2048
 137 00ae 2046     		mov	r0, r4
 138 00b0 FFF7FEFF 		bl	_pal_lld_setgroupmode
 139              	.LVL12:
 140              		.loc 1 104 0
 141 00b4 0020     		movs	r0, #0
 142 00b6 10BD     		pop	{r4, pc}
 143              	.L8:
 144              		.align	2
 145              	.L7:
 146 00b8 00100240 		.word	1073876992
 147              		.cfi_endproc
 148              	.LFE330:
 149              		.size	nm_bsp_deinit, .-nm_bsp_deinit
 150              		.global	__aeabi_uldivmod
 151              		.align	1
 152 00bc AFF30080 		.p2align 4,,15
 153              		.global	nm_bsp_sleep
 154              		.syntax unified
 155              		.thumb
 156              		.thumb_func
 157              		.fpu softvfp
 158              		.type	nm_bsp_sleep, %function
 159              	nm_bsp_sleep:
 160              	.LFB332:
 161              		.loc 1 130 0
 162              		.cfi_startproc
 163              		@ args = 0, pretend = 0, frame = 0
 164              		@ frame_needed = 0, uses_anonymous_args = 0
 165              	.LVL13:
 166 00c0 38B5     		push	{r3, r4, r5, lr}
 167              		.cfi_def_cfa_offset 16
 168              		.cfi_offset 3, -16
 169              		.cfi_offset 4, -12
 170              		.cfi_offset 5, -8
ARM GAS  C:\Users\RAKIBU~1\AppData\Local\Temp\cclzbrYe.s 			page 4


 171              		.cfi_offset 14, -4
 172              		.loc 1 131 0
 173 00c2 4FF47A72 		mov	r2, #1000
 174 00c6 0023     		movs	r3, #0
 175 00c8 0649     		ldr	r1, .L11
 176 00ca 40F2E734 		movw	r4, #999
 177 00ce 0025     		movs	r5, #0
 178 00d0 E1FB0045 		umlal	r4, r5, r1, r0
 179 00d4 2046     		mov	r0, r4
 180              	.LVL14:
 181 00d6 2946     		mov	r1, r5
 182 00d8 FFF7FEFF 		bl	__aeabi_uldivmod
 183              	.LVL15:
 184 00dc FFF7FEFF 		bl	chThdSleep
 185              	.LVL16:
 186              		.loc 1 132 0
 187 00e0 38BD     		pop	{r3, r4, r5, pc}
 188              	.L12:
 189 00e2 00BF     		.align	2
 190              	.L11:
 191 00e4 A0860100 		.word	100000
 192              		.cfi_endproc
 193              	.LFE332:
 194              		.size	nm_bsp_sleep, .-nm_bsp_sleep
 195              		.align	1
 196 00e8 AFF30080 		.p2align 4,,15
 196      AFF30080 
 197              		.global	nm_bsp_reset
 198              		.syntax unified
 199              		.thumb
 200              		.thumb_func
 201              		.fpu softvfp
 202              		.type	nm_bsp_reset, %function
 203              	nm_bsp_reset:
 204              	.LFB331:
 205              		.loc 1 112 0
 206              		.cfi_startproc
 207              		@ args = 0, pretend = 0, frame = 0
 208              		@ frame_needed = 0, uses_anonymous_args = 0
 209 00f0 70B5     		push	{r4, r5, r6, lr}
 210              		.cfi_def_cfa_offset 16
 211              		.cfi_offset 4, -16
 212              		.cfi_offset 5, -12
 213              		.cfi_offset 6, -8
 214              		.cfi_offset 14, -4
 215              		.loc 1 113 0
 216 00f2 094C     		ldr	r4, .L15
 217 00f4 4FF40076 		mov	r6, #512
 218 00f8 6683     		strh	r6, [r4, #26]	@ movhi
 219              		.loc 1 114 0
 220 00fa 4FF40065 		mov	r5, #2048
 221 00fe 6583     		strh	r5, [r4, #26]	@ movhi
 222              		.loc 1 115 0
 223 0100 0A20     		movs	r0, #10
 224 0102 FFF7FEFF 		bl	nm_bsp_sleep
 225              	.LVL17:
 226              		.loc 1 117 0
ARM GAS  C:\Users\RAKIBU~1\AppData\Local\Temp\cclzbrYe.s 			page 5


 227 0106 2683     		strh	r6, [r4, #24]	@ movhi
 228              		.loc 1 118 0
 229 0108 0A20     		movs	r0, #10
 230 010a FFF7FEFF 		bl	nm_bsp_sleep
 231              	.LVL18:
 232              		.loc 1 119 0
 233 010e 2583     		strh	r5, [r4, #24]	@ movhi
 234              		.loc 1 120 0
 235 0110 0A20     		movs	r0, #10
 236 0112 FFF7FEFF 		bl	nm_bsp_sleep
 237              	.LVL19:
 238              		.loc 1 121 0
 239 0116 70BD     		pop	{r4, r5, r6, pc}
 240              	.L16:
 241              		.align	2
 242              	.L15:
 243 0118 00100240 		.word	1073876992
 244              		.cfi_endproc
 245              	.LFE331:
 246              		.size	nm_bsp_reset, .-nm_bsp_reset
 247              		.align	1
 248 011c AFF30080 		.p2align 4,,15
 249              		.global	nm_bsp_init
 250              		.syntax unified
 251              		.thumb
 252              		.thumb_func
 253              		.fpu softvfp
 254              		.type	nm_bsp_init, %function
 255              	nm_bsp_init:
 256              	.LFB329:
 257              		.loc 1 82 0
 258              		.cfi_startproc
 259              		@ args = 0, pretend = 0, frame = 0
 260              		@ frame_needed = 0, uses_anonymous_args = 0
 261 0120 08B5     		push	{r3, lr}
 262              		.cfi_def_cfa_offset 8
 263              		.cfi_offset 3, -8
 264              		.cfi_offset 14, -4
 265              		.loc 1 84 0
 266 0122 FFF76DFF 		bl	init_chip_pins
 267              	.LVL20:
 268              		.loc 1 87 0
 269 0126 FFF7FEFF 		bl	nm_bsp_reset
 270              	.LVL21:
 271              		.loc 1 90 0
 272 012a 0020     		movs	r0, #0
 273 012c 08BD     		pop	{r3, pc}
 274              		.cfi_endproc
 275              	.LFE329:
 276              		.size	nm_bsp_init, .-nm_bsp_init
 277              		.align	1
 278 012e 00BF     		.p2align 4,,15
 279              		.global	nm_bsp_register_isr
 280              		.syntax unified
 281              		.thumb
 282              		.thumb_func
 283              		.fpu softvfp
ARM GAS  C:\Users\RAKIBU~1\AppData\Local\Temp\cclzbrYe.s 			page 6


 284              		.type	nm_bsp_register_isr, %function
 285              	nm_bsp_register_isr:
 286              	.LFB333:
 287              		.loc 1 141 0
 288              		.cfi_startproc
 289              		@ args = 0, pretend = 0, frame = 0
 290              		@ frame_needed = 0, uses_anonymous_args = 0
 291              	.LVL22:
 292 0130 10B5     		push	{r4, lr}
 293              		.cfi_def_cfa_offset 8
 294              		.cfi_offset 4, -8
 295              		.cfi_offset 14, -4
 296              	.LVL23:
 297              	.LBB81:
 298              	.LBB82:
 299              	.LBB83:
 300              	.LBB84:
 301              	.LBB85:
 302              	.LBB86:
 303              		.file 2 "../../../ChibiOSRepo/chibios191/os/common/ext/ARM/CMSIS/Core/Include/cmsis_gcc.h"
 304              		.loc 2 493 0
 305 0132 2023     		movs	r3, #32
 306              		.syntax unified
 307              	@ 493 "../../../ChibiOSRepo/chibios191/os/common/ext/ARM/CMSIS/Core/Include/cmsis_gcc.h" 1
 308 0134 83F31188 		MSR basepri, r3
 309              	@ 0 "" 2
 310              	.LVL24:
 311              		.thumb
 312              		.syntax unified
 313              	.LBE86:
 314              	.LBE85:
 315              	.LBE84:
 316              		.file 3 "../../../ChibiOSRepo/chibios191/os/rt/include/chsys.h"
 317              		.loc 3 356 0
 318 0138 FFF7FEFF 		bl	_stats_start_measure_crit_thd
 319              	.LVL25:
 320              		.loc 3 357 0
 321 013c FFF7FEFF 		bl	_dbg_check_lock
 322              	.LVL26:
 323              	.LBE83:
 324              	.LBE82:
 325              	.LBE81:
 326              		.loc 1 143 0
 327 0140 0222     		movs	r2, #2
 328 0142 0C21     		movs	r1, #12
 329 0144 1C48     		ldr	r0, .L25
 330 0146 FFF7FEFF 		bl	_pal_lld_enablepadevent
 331              	.LVL27:
 332              	.LBB87:
 333              	.LBB88:
 334              	.LBB89:
 335              		.loc 3 367 0
 336 014a FFF7FEFF 		bl	_dbg_check_unlock
 337              	.LVL28:
 338              		.loc 3 368 0
 339 014e FFF7FEFF 		bl	_stats_stop_measure_crit_thd
 340              	.LVL29:
ARM GAS  C:\Users\RAKIBU~1\AppData\Local\Temp\cclzbrYe.s 			page 7


 341              		.loc 3 374 0
 342 0152 1A4B     		ldr	r3, .L25+4
 343 0154 1A68     		ldr	r2, [r3]
 344 0156 9A42     		cmp	r2, r3
 345 0158 04D0     		beq	.L20
 346 015a 9B69     		ldr	r3, [r3, #24]
 347 015c 9968     		ldr	r1, [r3, #8]
 348 015e 9368     		ldr	r3, [r2, #8]
 349 0160 9942     		cmp	r1, r3
 350 0162 20D3     		bcc	.L23
 351              	.L20:
 352              	.LVL30:
 353              	.LBB90:
 354              	.LBB91:
 355              	.LBB92:
 356              		.loc 2 493 0
 357 0164 0024     		movs	r4, #0
 358              		.syntax unified
 359              	@ 493 "../../../ChibiOSRepo/chibios191/os/common/ext/ARM/CMSIS/Core/Include/cmsis_gcc.h" 1
 360 0166 84F31188 		MSR basepri, r4
 361              	@ 0 "" 2
 362              	.LVL31:
 363              		.thumb
 364              		.syntax unified
 365              	.LBE92:
 366              	.LBE91:
 367              	.LBE90:
 368              	.LBE89:
 369              	.LBE88:
 370              	.LBE87:
 371              	.LBB95:
 372              	.LBB96:
 373              	.LBB97:
 374              	.LBB98:
 375              	.LBB99:
 376              	.LBB100:
 377 016a 2023     		movs	r3, #32
 378              		.syntax unified
 379              	@ 493 "../../../ChibiOSRepo/chibios191/os/common/ext/ARM/CMSIS/Core/Include/cmsis_gcc.h" 1
 380 016c 83F31188 		MSR basepri, r3
 381              	@ 0 "" 2
 382              	.LVL32:
 383              		.thumb
 384              		.syntax unified
 385              	.LBE100:
 386              	.LBE99:
 387              	.LBE98:
 388              		.loc 3 356 0
 389 0170 FFF7FEFF 		bl	_stats_start_measure_crit_thd
 390              	.LVL33:
 391              		.loc 3 357 0
 392 0174 FFF7FEFF 		bl	_dbg_check_lock
 393              	.LVL34:
 394              	.LBE97:
 395              	.LBE96:
 396              	.LBE95:
 397              		.loc 1 144 0
ARM GAS  C:\Users\RAKIBU~1\AppData\Local\Temp\cclzbrYe.s 			page 8


 398 0178 2346     		mov	r3, r4
 399 017a 114A     		ldr	r2, .L25+8
 400 017c 0C21     		movs	r1, #12
 401 017e 0E48     		ldr	r0, .L25
 402 0180 FFF7FEFF 		bl	palSetPadCallbackI
 403              	.LVL35:
 404              	.LBB101:
 405              	.LBB102:
 406              	.LBB103:
 407              		.loc 3 367 0
 408 0184 FFF7FEFF 		bl	_dbg_check_unlock
 409              	.LVL36:
 410              		.loc 3 368 0
 411 0188 FFF7FEFF 		bl	_stats_stop_measure_crit_thd
 412              	.LVL37:
 413              		.loc 3 374 0
 414 018c 0B4B     		ldr	r3, .L25+4
 415 018e 1A68     		ldr	r2, [r3]
 416 0190 9A42     		cmp	r2, r3
 417 0192 04D0     		beq	.L21
 418 0194 9B69     		ldr	r3, [r3, #24]
 419 0196 9968     		ldr	r1, [r3, #8]
 420 0198 9368     		ldr	r3, [r2, #8]
 421 019a 9942     		cmp	r1, r3
 422 019c 07D3     		bcc	.L24
 423              	.L21:
 424              	.LVL38:
 425              	.LBB104:
 426              	.LBB105:
 427              	.LBB106:
 428              		.loc 2 493 0
 429 019e 0023     		movs	r3, #0
 430              		.syntax unified
 431              	@ 493 "../../../ChibiOSRepo/chibios191/os/common/ext/ARM/CMSIS/Core/Include/cmsis_gcc.h" 1
 432 01a0 83F31188 		MSR basepri, r3
 433              	@ 0 "" 2
 434              	.LVL39:
 435              		.thumb
 436              		.syntax unified
 437              	.LBE106:
 438              	.LBE105:
 439              	.LBE104:
 440              	.LBE103:
 441              	.LBE102:
 442              	.LBE101:
 443              		.loc 1 145 0
 444 01a4 10BD     		pop	{r4, pc}
 445              	.L23:
 446              	.LBB109:
 447              	.LBB94:
 448              	.LBB93:
 449              		.loc 3 374 0
 450 01a6 0748     		ldr	r0, .L25+12
 451 01a8 FFF7FEFF 		bl	chSysHalt
 452              	.LVL40:
 453 01ac DAE7     		b	.L20
 454              	.L24:
ARM GAS  C:\Users\RAKIBU~1\AppData\Local\Temp\cclzbrYe.s 			page 9


 455              	.LBE93:
 456              	.LBE94:
 457              	.LBE109:
 458              	.LBB110:
 459              	.LBB108:
 460              	.LBB107:
 461 01ae 0548     		ldr	r0, .L25+12
 462 01b0 FFF7FEFF 		bl	chSysHalt
 463              	.LVL41:
 464 01b4 F3E7     		b	.L21
 465              	.L26:
 466 01b6 00BF     		.align	2
 467              	.L25:
 468 01b8 00100240 		.word	1073876992
 469 01bc 00000000 		.word	ch
 470 01c0 00000000 		.word	isr
 471 01c4 00000000 		.word	.LANCHOR0
 472              	.LBE107:
 473              	.LBE108:
 474              	.LBE110:
 475              		.cfi_endproc
 476              	.LFE333:
 477              		.size	nm_bsp_register_isr, .-nm_bsp_register_isr
 478              		.align	1
 479 01c8 AFF30080 		.p2align 4,,15
 479      AFF30080 
 480              		.global	nm_bsp_interrupt_ctrl
 481              		.syntax unified
 482              		.thumb
 483              		.thumb_func
 484              		.fpu softvfp
 485              		.type	nm_bsp_interrupt_ctrl, %function
 486              	nm_bsp_interrupt_ctrl:
 487              	.LFB334:
 488              		.loc 1 154 0
 489              		.cfi_startproc
 490              		@ args = 0, pretend = 0, frame = 0
 491              		@ frame_needed = 0, uses_anonymous_args = 0
 492              	.LVL42:
 493              		.loc 1 155 0
 494 01d0 0128     		cmp	r0, #1
 495 01d2 04D0     		beq	.L36
 496              		.loc 1 162 0
 497 01d4 234B     		ldr	r3, .L39
 498 01d6 4FF48052 		mov	r2, #4096
 499 01da 5A83     		strh	r2, [r3, #26]	@ movhi
 500 01dc 7047     		bx	lr
 501              	.L36:
 502              		.loc 1 154 0
 503 01de 10B5     		push	{r4, lr}
 504              		.cfi_def_cfa_offset 8
 505              		.cfi_offset 4, -8
 506              		.cfi_offset 14, -4
 507              	.LVL43:
 508              	.LBB137:
 509              	.LBB138:
 510              	.LBB139:
ARM GAS  C:\Users\RAKIBU~1\AppData\Local\Temp\cclzbrYe.s 			page 10


 511              	.LBB140:
 512              	.LBB141:
 513              	.LBB142:
 514              		.loc 2 493 0
 515 01e0 2023     		movs	r3, #32
 516              		.syntax unified
 517              	@ 493 "../../../ChibiOSRepo/chibios191/os/common/ext/ARM/CMSIS/Core/Include/cmsis_gcc.h" 1
 518 01e2 83F31188 		MSR basepri, r3
 519              	@ 0 "" 2
 520              	.LVL44:
 521              		.thumb
 522              		.syntax unified
 523              	.LBE142:
 524              	.LBE141:
 525              	.LBE140:
 526              		.loc 3 356 0
 527 01e6 FFF7FEFF 		bl	_stats_start_measure_crit_thd
 528              	.LVL45:
 529              		.loc 3 357 0
 530 01ea FFF7FEFF 		bl	_dbg_check_lock
 531              	.LVL46:
 532              	.LBE139:
 533              	.LBE138:
 534              	.LBE137:
 535              		.loc 1 157 0
 536 01ee 0222     		movs	r2, #2
 537 01f0 0C21     		movs	r1, #12
 538 01f2 1C48     		ldr	r0, .L39
 539 01f4 FFF7FEFF 		bl	_pal_lld_enablepadevent
 540              	.LVL47:
 541              	.LBB143:
 542              	.LBB144:
 543              	.LBB145:
 544              		.loc 3 367 0
 545 01f8 FFF7FEFF 		bl	_dbg_check_unlock
 546              	.LVL48:
 547              		.loc 3 368 0
 548 01fc FFF7FEFF 		bl	_stats_stop_measure_crit_thd
 549              	.LVL49:
 550              		.loc 3 374 0
 551 0200 194B     		ldr	r3, .L39+4
 552 0202 1A68     		ldr	r2, [r3]
 553 0204 9A42     		cmp	r2, r3
 554 0206 04D0     		beq	.L29
 555 0208 9B69     		ldr	r3, [r3, #24]
 556 020a 9968     		ldr	r1, [r3, #8]
 557 020c 9368     		ldr	r3, [r2, #8]
 558 020e 9942     		cmp	r1, r3
 559 0210 20D3     		bcc	.L37
 560              	.L29:
 561              	.LVL50:
 562              	.LBB146:
 563              	.LBB147:
 564              	.LBB148:
 565              		.loc 2 493 0
 566 0212 0024     		movs	r4, #0
 567              		.syntax unified
ARM GAS  C:\Users\RAKIBU~1\AppData\Local\Temp\cclzbrYe.s 			page 11


 568              	@ 493 "../../../ChibiOSRepo/chibios191/os/common/ext/ARM/CMSIS/Core/Include/cmsis_gcc.h" 1
 569 0214 84F31188 		MSR basepri, r4
 570              	@ 0 "" 2
 571              	.LVL51:
 572              		.thumb
 573              		.syntax unified
 574              	.LBE148:
 575              	.LBE147:
 576              	.LBE146:
 577              	.LBE145:
 578              	.LBE144:
 579              	.LBE143:
 580              	.LBB151:
 581              	.LBB152:
 582              	.LBB153:
 583              	.LBB154:
 584              	.LBB155:
 585              	.LBB156:
 586 0218 2023     		movs	r3, #32
 587              		.syntax unified
 588              	@ 493 "../../../ChibiOSRepo/chibios191/os/common/ext/ARM/CMSIS/Core/Include/cmsis_gcc.h" 1
 589 021a 83F31188 		MSR basepri, r3
 590              	@ 0 "" 2
 591              	.LVL52:
 592              		.thumb
 593              		.syntax unified
 594              	.LBE156:
 595              	.LBE155:
 596              	.LBE154:
 597              		.loc 3 356 0
 598 021e FFF7FEFF 		bl	_stats_start_measure_crit_thd
 599              	.LVL53:
 600              		.loc 3 357 0
 601 0222 FFF7FEFF 		bl	_dbg_check_lock
 602              	.LVL54:
 603              	.LBE153:
 604              	.LBE152:
 605              	.LBE151:
 606              		.loc 1 158 0
 607 0226 2346     		mov	r3, r4
 608 0228 104A     		ldr	r2, .L39+8
 609 022a 0C21     		movs	r1, #12
 610 022c 0D48     		ldr	r0, .L39
 611 022e FFF7FEFF 		bl	palSetPadCallbackI
 612              	.LVL55:
 613              	.LBB157:
 614              	.LBB158:
 615              	.LBB159:
 616              		.loc 3 367 0
 617 0232 FFF7FEFF 		bl	_dbg_check_unlock
 618              	.LVL56:
 619              		.loc 3 368 0
 620 0236 FFF7FEFF 		bl	_stats_stop_measure_crit_thd
 621              	.LVL57:
 622              		.loc 3 374 0
 623 023a 0B4B     		ldr	r3, .L39+4
 624 023c 1A68     		ldr	r2, [r3]
ARM GAS  C:\Users\RAKIBU~1\AppData\Local\Temp\cclzbrYe.s 			page 12


 625 023e 9A42     		cmp	r2, r3
 626 0240 04D0     		beq	.L30
 627 0242 9B69     		ldr	r3, [r3, #24]
 628 0244 9968     		ldr	r1, [r3, #8]
 629 0246 9368     		ldr	r3, [r2, #8]
 630 0248 9942     		cmp	r1, r3
 631 024a 07D3     		bcc	.L38
 632              	.L30:
 633              	.LVL58:
 634              	.LBB160:
 635              	.LBB161:
 636              	.LBB162:
 637              		.loc 2 493 0
 638 024c 0023     		movs	r3, #0
 639              		.syntax unified
 640              	@ 493 "../../../ChibiOSRepo/chibios191/os/common/ext/ARM/CMSIS/Core/Include/cmsis_gcc.h" 1
 641 024e 83F31188 		MSR basepri, r3
 642              	@ 0 "" 2
 643              	.LVL59:
 644              		.thumb
 645              		.syntax unified
 646              	.LBE162:
 647              	.LBE161:
 648              	.LBE160:
 649              	.LBE159:
 650              	.LBE158:
 651              	.LBE157:
 652              		.loc 1 164 0
 653 0252 10BD     		pop	{r4, pc}
 654              	.L37:
 655              	.LBB165:
 656              	.LBB150:
 657              	.LBB149:
 658              		.loc 3 374 0
 659 0254 0648     		ldr	r0, .L39+12
 660 0256 FFF7FEFF 		bl	chSysHalt
 661              	.LVL60:
 662 025a DAE7     		b	.L29
 663              	.L38:
 664              	.LBE149:
 665              	.LBE150:
 666              	.LBE165:
 667              	.LBB166:
 668              	.LBB164:
 669              	.LBB163:
 670 025c 0448     		ldr	r0, .L39+12
 671 025e FFF7FEFF 		bl	chSysHalt
 672              	.LVL61:
 673 0262 F3E7     		b	.L30
 674              	.L40:
 675              		.align	2
 676              	.L39:
 677 0264 00100240 		.word	1073876992
 678 0268 00000000 		.word	ch
 679 026c 00000000 		.word	isr
 680 0270 00000000 		.word	.LANCHOR0
 681              	.LBE163:
ARM GAS  C:\Users\RAKIBU~1\AppData\Local\Temp\cclzbrYe.s 			page 13


 682              	.LBE164:
 683              	.LBE166:
 684              		.cfi_endproc
 685              	.LFE334:
 686              		.size	nm_bsp_interrupt_ctrl, .-nm_bsp_interrupt_ctrl
 687              		.section	.rodata
 688              		.align	2
 689              		.set	.LANCHOR0,. + 0
 690              		.type	__func__.6138, %object
 691              		.size	__func__.6138, 12
 692              	__func__.6138:
 693 0000 63685379 		.ascii	"chSysUnlock\000"
 693      73556E6C 
 693      6F636B00 
 694              		.text
 695              	.Letext0:
 696              		.file 4 "./winc1500/bsp/include/nm_bsp.h"
 697              		.file 5 "c:\\chibistudio\\tools\\gnu tools arm embedded\\7.0 2017q4\\lib\\gcc\\arm-none-eabi\\7.2.
 698              		.file 6 "c:\\chibistudio\\tools\\gnu tools arm embedded\\7.0 2017q4\\arm-none-eabi\\include\\machi
 699              		.file 7 "c:\\chibistudio\\tools\\gnu tools arm embedded\\7.0 2017q4\\arm-none-eabi\\include\\sys\\
 700              		.file 8 "c:\\chibistudio\\tools\\gnu tools arm embedded\\7.0 2017q4\\arm-none-eabi\\include\\stdin
 701              		.file 9 "../../../ChibiOSRepo/chibios191/os/common/ports/ARMCMx/compilers/GCC/chtypes.h"
 702              		.file 10 "../../../ChibiOSRepo/chibios191/os/rt/include/chsystypes.h"
 703              		.file 11 "../../../ChibiOSRepo/chibios191/os/rt/include/chschd.h"
 704              		.file 12 "../../../ChibiOSRepo/chibios191/os/rt/include/chtime.h"
 705              		.file 13 "../../../ChibiOSRepo/chibios191/os/common/ext/ARM/CMSIS/Core/Include/core_cm4.h"
 706              		.file 14 "../../../ChibiOSRepo/chibios191/os/common/ext/ST/STM32F4xx/system_stm32f4xx.h"
 707              		.file 15 "../../../ChibiOSRepo/chibios191/os/common/ext/ST/STM32F4xx/stm32f407xx.h"
 708              		.file 16 "../../../ChibiOSRepo/chibios191/os/common/ports/ARMCMx/chcore.h"
 709              		.file 17 "../../../ChibiOSRepo/chibios191/os/common/ports/ARMCMx/chcore_v7m.h"
 710              		.file 18 "../../../ChibiOSRepo/chibios191/os/hal/ports/STM32/LLD/TIMv1/stm32_tim.h"
 711              		.file 19 "../../../ChibiOSRepo/chibios191/os/rt/include/chtrace.h"
 712              		.file 20 "../../../ChibiOSRepo/chibios191/os/rt/include/chtm.h"
 713              		.file 21 "../../../ChibiOSRepo/chibios191/os/rt/include/chstats.h"
 714              		.file 22 "../../../ChibiOSRepo/chibios191/os/rt/include/chsem.h"
 715              		.file 23 "../../../ChibiOSRepo/chibios191/os/rt/include/chmtx.h"
 716              		.file 24 "../../../ChibiOSRepo/chibios191/os/rt/include/chregistry.h"
 717              		.file 25 "../../../ChibiOSRepo/chibios191/os/rt/include/chevents.h"
 718              		.file 26 "../../../ChibiOSRepo/chibios191/os/oslib/include/chmemcore.h"
 719              		.file 27 "../../../ChibiOSRepo/chibios191/os/oslib/include/chmempools.h"
 720              		.file 28 "../../../ChibiOSRepo/chibios191/os/oslib/include/chfactory.h"
 721              		.file 29 "../../../ChibiOSRepo/chibios191/os/hal/ports/STM32/LLD/DMAv2/stm32_dma.h"
 722              		.file 30 "../../../ChibiOSRepo/chibios191/os/hal/include/hal_ioblock.h"
 723              		.file 31 "../../../ChibiOSRepo/chibios191/os/hal/include/hal_persistent.h"
 724              		.file 32 "../../../ChibiOSRepo/chibios191/os/hal/include/hal_queues.h"
 725              		.file 33 "../../../ChibiOSRepo/chibios191/os/hal/include/hal_pal.h"
 726              		.file 34 "../../../ChibiOSRepo/chibios191/os/hal/ports/STM32/LLD/GPIOv2/stm32_gpio.h"
 727              		.file 35 "../../../ChibiOSRepo/chibios191/os/hal/ports/STM32/LLD/GPIOv2/hal_pal_lld.h"
 728              		.file 36 "../../../ChibiOSRepo/chibios191/os/hal/include/hal_gpt.h"
 729              		.file 37 "../../../ChibiOSRepo/chibios191/os/hal/ports/STM32/LLD/TIMv1/hal_gpt_lld.h"
 730              		.file 38 "../../../ChibiOSRepo/chibios191/os/hal/include/hal_i2c.h"
 731              		.file 39 "../../../ChibiOSRepo/chibios191/os/hal/ports/STM32/LLD/I2Cv1/hal_i2c_lld.h"
 732              		.file 40 "c:\\chibistudio\\tools\\gnu tools arm embedded\\7.0 2017q4\\arm-none-eabi\\include\\sys\
 733              		.file 41 "c:\\chibistudio\\tools\\gnu tools arm embedded\\7.0 2017q4\\arm-none-eabi\\include\\sys\
 734              		.file 42 "c:\\chibistudio\\tools\\gnu tools arm embedded\\7.0 2017q4\\arm-none-eabi\\include\\sys\
 735              		.file 43 "c:\\chibistudio\\tools\\gnu tools arm embedded\\7.0 2017q4\\arm-none-eabi\\include\\time
 736              		.file 44 "../../../ChibiOSRepo/chibios191/os/hal/include/hal_rtc.h"
ARM GAS  C:\Users\RAKIBU~1\AppData\Local\Temp\cclzbrYe.s 			page 14


 737              		.file 45 "../../../ChibiOSRepo/chibios191/os/hal/ports/STM32/LLD/RTCv2/hal_rtc_lld.h"
 738              		.file 46 "../../../ChibiOSRepo/chibios191/os/hal/include/hal_serial.h"
 739              		.file 47 "../../../ChibiOSRepo/chibios191/os/hal/ports/STM32/LLD/USARTv1/hal_serial_lld.h"
 740              		.file 48 "../../../ChibiOSRepo/chibios191/os/hal/include/hal_sdc.h"
 741              		.file 49 "../../../ChibiOSRepo/chibios191/os/hal/ports/STM32/LLD/SDIOv1/hal_sdc_lld.h"
 742              		.file 50 "../../../ChibiOSRepo/chibios191/os/hal/include/hal_spi.h"
 743              		.file 51 "../../../ChibiOSRepo/chibios191/os/hal/ports/STM32/LLD/SPIv1/hal_spi_lld.h"
 744              		.file 52 "../../../ChibiOSRepo/chibios191/os/hal/osal/rt/osal.h"
 745              		.file 53 "../../../ChibiOSRepo/chibios191/os/rt/include/chdebug.h"
 746              		.file 54 "../../../ChibiOSRepo/chibios191/os/rt/include/ch.h"
 747              		.file 55 "../../../ChibiOSRepo/chibios191/os/rt/include/chthreads.h"