ARM GAS  C:\Users\RAKIBU~1\AppData\Local\Temp\ccwhGIQC.s 			page 1


   1              		.cpu cortex-m4
   2              		.eabi_attribute 20, 1
   3              		.eabi_attribute 21, 1
   4              		.eabi_attribute 23, 3
   5              		.eabi_attribute 24, 1
   6              		.eabi_attribute 25, 1
   7              		.eabi_attribute 26, 1
   8              		.eabi_attribute 30, 1
   9              		.eabi_attribute 34, 1
  10              		.eabi_attribute 18, 4
  11              		.file	"nmasic.c"
  12              		.text
  13              	.Ltext0:
  14              		.cfi_sections	.debug_frame
  15              		.align	1
  16              		.p2align 4,,15
  17              		.global	chip_apply_conf
  18              		.syntax unified
  19              		.thumb
  20              		.thumb_func
  21              		.fpu softvfp
  22              		.type	chip_apply_conf, %function
  23              	chip_apply_conf:
  24              	.LFB328:
  25              		.file 1 "./winc1500/driver/source/nmasic.c"
  26              		.loc 1 66 0
  27              		.cfi_startproc
  28              		@ args = 0, pretend = 0, frame = 8
  29              		@ frame_needed = 0, uses_anonymous_args = 0
  30              	.LVL0:
  31 0000 10B5     		push	{r4, lr}
  32              		.cfi_def_cfa_offset 8
  33              		.cfi_offset 4, -8
  34              		.cfi_offset 14, -4
  35 0002 82B0     		sub	sp, sp, #8
  36              		.cfi_def_cfa_offset 16
  37              	.LVL1:
  38              		.loc 1 88 0
  39 0004 40F48074 		orr	r4, r0, #256
  40              	.LVL2:
  41              	.L4:
  42              		.loc 1 90 0
  43 0008 2146     		mov	r1, r4
  44 000a 4FF4A550 		mov	r0, #5280
  45 000e FFF7FEFF 		bl	nm_write_reg
  46              	.LVL3:
  47              	.LBB2:
  48              		.loc 1 92 0
  49 0012 02A9     		add	r1, sp, #8
  50 0014 0023     		movs	r3, #0
  51 0016 41F8043D 		str	r3, [r1, #-4]!
  52              		.loc 1 93 0
  53 001a 4FF4A550 		mov	r0, #5280
  54 001e FFF7FEFF 		bl	nm_read_reg_with_ret
  55              	.LVL4:
  56              		.loc 1 94 0
  57 0022 0028     		cmp	r0, #0
ARM GAS  C:\Users\RAKIBU~1\AppData\Local\Temp\ccwhGIQC.s 			page 2


  58 0024 F0D1     		bne	.L4
  59              		.loc 1 95 0
  60 0026 019B     		ldr	r3, [sp, #4]
  61 0028 A342     		cmp	r3, r4
  62 002a EDD1     		bne	.L4
  63              	.LBE2:
  64              		.loc 1 104 0
  65 002c 02B0     		add	sp, sp, #8
  66              		.cfi_def_cfa_offset 8
  67              		@ sp needed
  68 002e 10BD     		pop	{r4, pc}
  69              		.cfi_endproc
  70              	.LFE328:
  71              		.size	chip_apply_conf, .-chip_apply_conf
  72              		.align	1
  73              		.p2align 4,,15
  74              		.global	chip_idle
  75              		.syntax unified
  76              		.thumb
  77              		.thumb_func
  78              		.fpu softvfp
  79              		.type	chip_idle, %function
  80              	chip_idle:
  81              	.LFB329:
  82              		.loc 1 106 0
  83              		.cfi_startproc
  84              		@ args = 0, pretend = 0, frame = 8
  85              		@ frame_needed = 0, uses_anonymous_args = 0
  86 0030 00B5     		push	{lr}
  87              		.cfi_def_cfa_offset 4
  88              		.cfi_offset 14, -4
  89 0032 83B0     		sub	sp, sp, #12
  90              		.cfi_def_cfa_offset 16
  91              		.loc 1 107 0
  92 0034 02A9     		add	r1, sp, #8
  93 0036 0023     		movs	r3, #0
  94 0038 41F8043D 		str	r3, [r1, #-4]!
  95              		.loc 1 108 0
  96 003c 0120     		movs	r0, #1
  97 003e FFF7FEFF 		bl	nm_read_reg_with_ret
  98              	.LVL5:
  99              		.loc 1 109 0
 100 0042 0199     		ldr	r1, [sp, #4]
 101 0044 11F0020F 		tst	r1, #2
 102 0048 02D1     		bne	.L9
 103              	.L6:
 104              		.loc 1 114 0
 105 004a 03B0     		add	sp, sp, #12
 106              		.cfi_remember_state
 107              		.cfi_def_cfa_offset 4
 108              		@ sp needed
 109 004c 5DF804FB 		ldr	pc, [sp], #4
 110              	.L9:
 111              		.cfi_restore_state
 112              		.loc 1 111 0
 113 0050 21F00201 		bic	r1, r1, #2
 114 0054 0191     		str	r1, [sp, #4]
ARM GAS  C:\Users\RAKIBU~1\AppData\Local\Temp\ccwhGIQC.s 			page 3


 115              		.loc 1 112 0
 116 0056 0120     		movs	r0, #1
 117 0058 FFF7FEFF 		bl	nm_write_reg
 118              	.LVL6:
 119              		.loc 1 114 0
 120 005c F5E7     		b	.L6
 121              		.cfi_endproc
 122              	.LFE329:
 123              		.size	chip_idle, .-chip_idle
 124              		.align	1
 125 005e 00BF     		.p2align 4,,15
 126              		.global	enable_interrupts
 127              		.syntax unified
 128              		.thumb
 129              		.thumb_func
 130              		.fpu softvfp
 131              		.type	enable_interrupts, %function
 132              	enable_interrupts:
 133              	.LFB330:
 134              		.loc 1 117 0
 135              		.cfi_startproc
 136              		@ args = 0, pretend = 0, frame = 8
 137              		@ frame_needed = 0, uses_anonymous_args = 0
 138 0060 00B5     		push	{lr}
 139              		.cfi_def_cfa_offset 4
 140              		.cfi_offset 14, -4
 141 0062 83B0     		sub	sp, sp, #12
 142              		.cfi_def_cfa_offset 16
 143              		.loc 1 118 0
 144 0064 02A9     		add	r1, sp, #8
 145 0066 0023     		movs	r3, #0
 146 0068 41F8043D 		str	r3, [r1, #-4]!
 147              	.LVL7:
 148              		.loc 1 123 0
 149 006c 41F20840 		movw	r0, #5128
 150 0070 FFF7FEFF 		bl	nm_read_reg_with_ret
 151              	.LVL8:
 152              		.loc 1 124 0
 153 0074 0346     		mov	r3, r0
 154 0076 18B1     		cbz	r0, .L13
 155              	.LVL9:
 156              	.L11:
 157              		.loc 1 141 0
 158 0078 1846     		mov	r0, r3
 159 007a 03B0     		add	sp, sp, #12
 160              		.cfi_remember_state
 161              		.cfi_def_cfa_offset 4
 162              		@ sp needed
 163 007c 5DF804FB 		ldr	pc, [sp], #4
 164              	.LVL10:
 165              	.L13:
 166              		.cfi_restore_state
 167              		.loc 1 126 0
 168 0080 0199     		ldr	r1, [sp, #4]
 169 0082 41F48071 		orr	r1, r1, #256
 170 0086 0191     		str	r1, [sp, #4]
 171              		.loc 1 127 0
ARM GAS  C:\Users\RAKIBU~1\AppData\Local\Temp\ccwhGIQC.s 			page 4


 172 0088 41F20840 		movw	r0, #5128
 173              	.LVL11:
 174 008c FFF7FEFF 		bl	nm_write_reg
 175              	.LVL12:
 176              		.loc 1 128 0
 177 0090 0346     		mov	r3, r0
 178 0092 0028     		cmp	r0, #0
 179 0094 F0D1     		bne	.L11
 180              		.loc 1 133 0
 181 0096 01A9     		add	r1, sp, #4
 182 0098 4FF4D050 		mov	r0, #6656
 183              	.LVL13:
 184 009c FFF7FEFF 		bl	nm_read_reg_with_ret
 185              	.LVL14:
 186              		.loc 1 134 0
 187 00a0 0346     		mov	r3, r0
 188 00a2 0028     		cmp	r0, #0
 189 00a4 E8D1     		bne	.L11
 190              		.loc 1 136 0
 191 00a6 0199     		ldr	r1, [sp, #4]
 192 00a8 41F48031 		orr	r1, r1, #65536
 193 00ac 0191     		str	r1, [sp, #4]
 194              		.loc 1 137 0
 195 00ae 4FF4D050 		mov	r0, #6656
 196              	.LVL15:
 197 00b2 FFF7FEFF 		bl	nm_write_reg
 198              	.LVL16:
 199 00b6 0346     		mov	r3, r0
 200              	.LVL17:
 201              		.loc 1 139 0
 202 00b8 DEE7     		b	.L11
 203              		.cfi_endproc
 204              	.LFE330:
 205              		.size	enable_interrupts, .-enable_interrupts
 206              		.align	1
 207 00ba 00BFAFF3 		.p2align 4,,15
 207      0080
 208              		.global	cpu_start
 209              		.syntax unified
 210              		.thumb
 211              		.thumb_func
 212              		.fpu softvfp
 213              		.type	cpu_start, %function
 214              	cpu_start:
 215              	.LFB331:
 216              		.loc 1 143 0
 217              		.cfi_startproc
 218              		@ args = 0, pretend = 0, frame = 8
 219              		@ frame_needed = 0, uses_anonymous_args = 0
 220 00c0 70B5     		push	{r4, r5, r6, lr}
 221              		.cfi_def_cfa_offset 16
 222              		.cfi_offset 4, -16
 223              		.cfi_offset 5, -12
 224              		.cfi_offset 6, -8
 225              		.cfi_offset 14, -4
 226 00c2 82B0     		sub	sp, sp, #8
 227              		.cfi_def_cfa_offset 24
ARM GAS  C:\Users\RAKIBU~1\AppData\Local\Temp\ccwhGIQC.s 			page 5


 228              		.loc 1 144 0
 229 00c4 0026     		movs	r6, #0
 230 00c6 02AD     		add	r5, sp, #8
 231 00c8 45F8046D 		str	r6, [r5, #-4]!
 232              		.loc 1 150 0
 233 00cc 3146     		mov	r1, r6
 234 00ce 4FF00C10 		mov	r0, #786444
 235 00d2 FFF7FEFF 		bl	nm_write_reg
 236              	.LVL18:
 237 00d6 0446     		mov	r4, r0
 238              	.LVL19:
 239              		.loc 1 151 0
 240 00d8 3146     		mov	r1, r6
 241 00da 41F28C00 		movw	r0, #4236
 242 00de FFF7FEFF 		bl	nm_write_reg
 243              	.LVL20:
 244 00e2 54FA80F4 		uxtab	r4, r4, r0
 245              	.LVL21:
 246 00e6 E4B2     		uxtb	r4, r4
 247              	.LVL22:
 248              		.loc 1 152 0
 249 00e8 3146     		mov	r1, r6
 250 00ea 2148     		ldr	r0, .L18
 251 00ec FFF7FEFF 		bl	nm_write_reg
 252              	.LVL23:
 253 00f0 54FA80F4 		uxtab	r4, r4, r0
 254              	.LVL24:
 255 00f4 E4B2     		uxtb	r4, r4
 256              	.LVL25:
 257              		.loc 1 156 0
 258 00f6 2946     		mov	r1, r5
 259 00f8 41F21810 		movw	r0, #4376
 260 00fc FFF7FEFF 		bl	nm_read_reg_with_ret
 261              	.LVL26:
 262 0100 54FA80F4 		uxtab	r4, r4, r0
 263              	.LVL27:
 264 0104 E4B2     		uxtb	r4, r4
 265              	.LVL28:
 266              		.loc 1 157 0
 267 0106 0199     		ldr	r1, [sp, #4]
 268 0108 41F00101 		orr	r1, r1, #1
 269 010c 0191     		str	r1, [sp, #4]
 270              		.loc 1 158 0
 271 010e 41F21810 		movw	r0, #4376
 272 0112 FFF7FEFF 		bl	nm_write_reg
 273              	.LVL29:
 274 0116 54FA80F4 		uxtab	r4, r4, r0
 275              	.LVL30:
 276 011a E4B2     		uxtb	r4, r4
 277              	.LVL31:
 278              		.loc 1 159 0
 279 011c 2946     		mov	r1, r5
 280 011e 4FF4A050 		mov	r0, #5120
 281 0122 FFF7FEFF 		bl	nm_read_reg_with_ret
 282              	.LVL32:
 283 0126 54FA80F4 		uxtab	r4, r4, r0
 284              	.LVL33:
ARM GAS  C:\Users\RAKIBU~1\AppData\Local\Temp\ccwhGIQC.s 			page 6


 285 012a E4B2     		uxtb	r4, r4
 286 012c 65B2     		sxtb	r5, r4
 287              	.LVL34:
 288              		.loc 1 160 0
 289 012e 0199     		ldr	r1, [sp, #4]
 290 0130 11F4806F 		tst	r1, #1024
 291 0134 10D1     		bne	.L17
 292              	.L15:
 293              		.loc 1 164 0
 294 0136 0199     		ldr	r1, [sp, #4]
 295 0138 41F48061 		orr	r1, r1, #1024
 296 013c 0191     		str	r1, [sp, #4]
 297              		.loc 1 165 0
 298 013e 4FF4A050 		mov	r0, #5120
 299 0142 FFF7FEFF 		bl	nm_write_reg
 300              	.LVL35:
 301 0146 55FA80F5 		uxtab	r5, r5, r0
 302              	.LVL36:
 303 014a 6DB2     		sxtb	r5, r5
 304              	.LVL37:
 305              		.loc 1 166 0
 306 014c 0120     		movs	r0, #1
 307 014e FFF7FEFF 		bl	nm_bsp_sleep
 308              	.LVL38:
 309              		.loc 1 168 0
 310 0152 2846     		mov	r0, r5
 311 0154 02B0     		add	sp, sp, #8
 312              		.cfi_remember_state
 313              		.cfi_def_cfa_offset 16
 314              		@ sp needed
 315 0156 70BD     		pop	{r4, r5, r6, pc}
 316              	.LVL39:
 317              	.L17:
 318              		.cfi_restore_state
 319              		.loc 1 161 0
 320 0158 21F48061 		bic	r1, r1, #1024
 321 015c 0191     		str	r1, [sp, #4]
 322              		.loc 1 162 0
 323 015e 4FF4A050 		mov	r0, #5120
 324 0162 FFF7FEFF 		bl	nm_write_reg
 325              	.LVL40:
 326 0166 54FA80F0 		uxtab	r0, r4, r0
 327 016a 45B2     		sxtb	r5, r0
 328              	.LVL41:
 329 016c E3E7     		b	.L15
 330              	.L19:
 331 016e 00BF     		.align	2
 332              	.L18:
 333 0170 AC070200 		.word	133036
 334              		.cfi_endproc
 335              	.LFE331:
 336              		.size	cpu_start, .-cpu_start
 337              		.align	1
 338 0174 AFF30080 		.p2align 4,,15
 338      AFF30080 
 338      AFF30080 
 339              		.global	nmi_get_chipid
ARM GAS  C:\Users\RAKIBU~1\AppData\Local\Temp\ccwhGIQC.s 			page 7


 340              		.syntax unified
 341              		.thumb
 342              		.thumb_func
 343              		.fpu softvfp
 344              		.type	nmi_get_chipid, %function
 345              	nmi_get_chipid:
 346              	.LFB332:
 347              		.loc 1 171 0
 348              		.cfi_startproc
 349              		@ args = 0, pretend = 0, frame = 8
 350              		@ frame_needed = 0, uses_anonymous_args = 0
 351 0180 10B5     		push	{r4, lr}
 352              		.cfi_def_cfa_offset 8
 353              		.cfi_offset 4, -8
 354              		.cfi_offset 14, -4
 355 0182 82B0     		sub	sp, sp, #8
 356              		.cfi_def_cfa_offset 16
 357              		.loc 1 174 0
 358 0184 264B     		ldr	r3, .L36
 359 0186 1C68     		ldr	r4, [r3]
 360 0188 24B1     		cbz	r4, .L31
 361              	.L21:
 362              		.loc 1 230 0
 363 018a 254B     		ldr	r3, .L36
 364 018c 1C68     		ldr	r4, [r3]
 365              	.L20:
 366              		.loc 1 231 0
 367 018e 2046     		mov	r0, r4
 368 0190 02B0     		add	sp, sp, #8
 369              		.cfi_remember_state
 370              		.cfi_def_cfa_offset 8
 371              		@ sp needed
 372 0192 10BD     		pop	{r4, pc}
 373              	.L31:
 374              		.cfi_restore_state
 375              	.LBB3:
 376              		.loc 1 177 0
 377 0194 1946     		mov	r1, r3
 378 0196 4FF48050 		mov	r0, #4096
 379 019a FFF7FEFF 		bl	nm_read_reg_with_ret
 380              	.LVL42:
 381 019e 18B1     		cbz	r0, .L22
 382              		.loc 1 178 0
 383 01a0 1F4B     		ldr	r3, .L36
 384 01a2 0022     		movs	r2, #0
 385 01a4 1A60     		str	r2, [r3]
 386              		.loc 1 179 0
 387 01a6 F2E7     		b	.L20
 388              	.L22:
 389              		.loc 1 184 0
 390 01a8 01A9     		add	r1, sp, #4
 391 01aa 41F2F430 		movw	r0, #5108
 392 01ae FFF7FEFF 		bl	nm_read_reg_with_ret
 393              	.LVL43:
 394 01b2 18B1     		cbz	r0, .L24
 395              		.loc 1 185 0
 396 01b4 1A4B     		ldr	r3, .L36
ARM GAS  C:\Users\RAKIBU~1\AppData\Local\Temp\ccwhGIQC.s 			page 8


 397 01b6 0022     		movs	r2, #0
 398 01b8 1A60     		str	r2, [r3]
 399              		.loc 1 186 0
 400 01ba E8E7     		b	.L20
 401              	.L24:
 402              		.loc 1 189 0
 403 01bc 184B     		ldr	r3, .L36
 404 01be 1B68     		ldr	r3, [r3]
 405 01c0 184A     		ldr	r2, .L36+4
 406 01c2 9342     		cmp	r3, r2
 407 01c4 0DD0     		beq	.L32
 408              		.loc 1 194 0
 409 01c6 184A     		ldr	r2, .L36+8
 410 01c8 9342     		cmp	r3, r2
 411 01ca 11D0     		beq	.L33
 412              		.loc 1 201 0
 413 01cc 174A     		ldr	r2, .L36+12
 414 01ce 9342     		cmp	r3, r2
 415 01d0 1BD0     		beq	.L34
 416              	.L26:
 417              		.loc 1 226 0 discriminator 4
 418 01d2 134A     		ldr	r2, .L36
 419 01d4 1368     		ldr	r3, [r2]
 420 01d6 23F47023 		bic	r3, r3, #983040
 421              		.loc 1 227 0 discriminator 4
 422 01da 43F4A023 		orr	r3, r3, #327680
 423 01de 1360     		str	r3, [r2]
 424 01e0 D3E7     		b	.L21
 425              	.L32:
 426              		.loc 1 190 0
 427 01e2 019B     		ldr	r3, [sp, #4]
 428 01e4 012B     		cmp	r3, #1
 429 01e6 F4D0     		beq	.L26
 430              		.loc 1 192 0
 431 01e8 0D4B     		ldr	r3, .L36
 432 01ea 0132     		adds	r2, r2, #1
 433 01ec 1A60     		str	r2, [r3]
 434 01ee F0E7     		b	.L26
 435              	.L33:
 436              		.loc 1 195 0
 437 01f0 019B     		ldr	r3, [sp, #4]
 438 01f2 032B     		cmp	r3, #3
 439 01f4 EDD0     		beq	.L26
 440              		.loc 1 196 0
 441 01f6 042B     		cmp	r3, #4
 442 01f8 03D0     		beq	.L35
 443              		.loc 1 199 0
 444 01fa 094B     		ldr	r3, .L36
 445 01fc 0C4A     		ldr	r2, .L36+16
 446 01fe 1A60     		str	r2, [r3]
 447 0200 E7E7     		b	.L26
 448              	.L35:
 449              		.loc 1 197 0
 450 0202 074B     		ldr	r3, .L36
 451 0204 0132     		adds	r2, r2, #1
 452 0206 1A60     		str	r2, [r3]
 453 0208 E3E7     		b	.L26
ARM GAS  C:\Users\RAKIBU~1\AppData\Local\Temp\ccwhGIQC.s 			page 9


 454              	.L34:
 455              		.loc 1 202 0
 456 020a 0549     		ldr	r1, .L36
 457 020c 4FF46C10 		mov	r0, #3866624
 458 0210 FFF7FEFF 		bl	nm_read_reg_with_ret
 459              	.LVL44:
 460 0214 0028     		cmp	r0, #0
 461 0216 DCD0     		beq	.L26
 462              		.loc 1 203 0
 463 0218 014B     		ldr	r3, .L36
 464 021a 0022     		movs	r2, #0
 465 021c 1A60     		str	r2, [r3]
 466              		.loc 1 204 0
 467 021e B6E7     		b	.L20
 468              	.L37:
 469              		.align	2
 470              	.L36:
 471 0220 00000000 		.word	.LANCHOR0
 472 0224 A0021000 		.word	1049248
 473 0228 B0021000 		.word	1049264
 474 022c F0001000 		.word	1048816
 475 0230 B2021000 		.word	1049266
 476              	.LBE3:
 477              		.cfi_endproc
 478              	.LFE332:
 479              		.size	nmi_get_chipid, .-nmi_get_chipid
 480              		.align	1
 481 0234 AFF30080 		.p2align 4,,15
 481      AFF30080 
 481      AFF30080 
 482              		.global	nmi_get_rfrevid
 483              		.syntax unified
 484              		.thumb
 485              		.thumb_func
 486              		.fpu softvfp
 487              		.type	nmi_get_rfrevid, %function
 488              	nmi_get_rfrevid:
 489              	.LFB333:
 490              		.loc 1 234 0
 491              		.cfi_startproc
 492              		@ args = 0, pretend = 0, frame = 8
 493              		@ frame_needed = 0, uses_anonymous_args = 0
 494 0240 00B5     		push	{lr}
 495              		.cfi_def_cfa_offset 4
 496              		.cfi_offset 14, -4
 497 0242 83B0     		sub	sp, sp, #12
 498              		.cfi_def_cfa_offset 16
 499              		.loc 1 236 0
 500 0244 01A9     		add	r1, sp, #4
 501 0246 41F2F430 		movw	r0, #5108
 502 024a FFF7FEFF 		bl	nm_read_reg_with_ret
 503              	.LVL45:
 504 024e 18B9     		cbnz	r0, .L40
 505              		.loc 1 240 0
 506 0250 0198     		ldr	r0, [sp, #4]
 507              	.L38:
 508              		.loc 1 241 0
ARM GAS  C:\Users\RAKIBU~1\AppData\Local\Temp\ccwhGIQC.s 			page 10


 509 0252 03B0     		add	sp, sp, #12
 510              		.cfi_remember_state
 511              		.cfi_def_cfa_offset 4
 512              		@ sp needed
 513 0254 5DF804FB 		ldr	pc, [sp], #4
 514              	.L40:
 515              		.cfi_restore_state
 516              		.loc 1 238 0
 517 0258 0020     		movs	r0, #0
 518 025a FAE7     		b	.L38
 519              		.cfi_endproc
 520              	.LFE333:
 521              		.size	nmi_get_rfrevid, .-nmi_get_rfrevid
 522              		.align	1
 523 025c AFF30080 		.p2align 4,,15
 524              		.global	restore_pmu_settings_after_global_reset
 525              		.syntax unified
 526              		.thumb
 527              		.thumb_func
 528              		.fpu softvfp
 529              		.type	restore_pmu_settings_after_global_reset, %function
 530              	restore_pmu_settings_after_global_reset:
 531              	.LFB334:
 532              		.loc 1 244 0
 533              		.cfi_startproc
 534              		@ args = 0, pretend = 0, frame = 0
 535              		@ frame_needed = 0, uses_anonymous_args = 0
 536 0260 08B5     		push	{r3, lr}
 537              		.cfi_def_cfa_offset 8
 538              		.cfi_offset 3, -8
 539              		.cfi_offset 14, -4
 540              		.loc 1 250 0
 541 0262 FFF7FEFF 		bl	nmi_get_chipid
 542              	.LVL46:
 543 0266 C0F30B00 		ubfx	r0, r0, #0, #12
 544 026a B0F52C7F 		cmp	r0, #688
 545 026e 00D2     		bcs	.L45
 546              	.L42:
 547              		.loc 1 253 0
 548 0270 08BD     		pop	{r3, pc}
 549              	.L45:
 550              		.loc 1 251 0
 551 0272 0349     		ldr	r1, .L46
 552 0274 41F64860 		movw	r0, #7752
 553 0278 FFF7FEFF 		bl	nm_write_reg
 554              	.LVL47:
 555              		.loc 1 253 0
 556 027c F8E7     		b	.L42
 557              	.L47:
 558 027e 00BF     		.align	2
 559              	.L46:
 560 0280 CE6984B7 		.word	-1216058930
 561              		.cfi_endproc
 562              	.LFE334:
 563              		.size	restore_pmu_settings_after_global_reset, .-restore_pmu_settings_after_global_reset
 564              		.align	1
 565 0284 AFF30080 		.p2align 4,,15
ARM GAS  C:\Users\RAKIBU~1\AppData\Local\Temp\ccwhGIQC.s 			page 11


 565      AFF30080 
 565      AFF30080 
 566              		.global	nmi_update_pll
 567              		.syntax unified
 568              		.thumb
 569              		.thumb_func
 570              		.fpu softvfp
 571              		.type	nmi_update_pll, %function
 572              	nmi_update_pll:
 573              	.LFB335:
 574              		.loc 1 256 0
 575              		.cfi_startproc
 576              		@ args = 0, pretend = 0, frame = 0
 577              		@ frame_needed = 0, uses_anonymous_args = 0
 578 0290 10B5     		push	{r4, lr}
 579              		.cfi_def_cfa_offset 8
 580              		.cfi_offset 4, -8
 581              		.cfi_offset 14, -4
 582              		.loc 1 259 0
 583 0292 41F22840 		movw	r0, #5160
 584 0296 FFF7FEFF 		bl	nm_read_reg
 585              	.LVL48:
 586              		.loc 1 260 0
 587 029a 20F00104 		bic	r4, r0, #1
 588              	.LVL49:
 589              		.loc 1 261 0
 590 029e 2146     		mov	r1, r4
 591 02a0 41F22840 		movw	r0, #5160
 592 02a4 FFF7FEFF 		bl	nm_write_reg
 593              	.LVL50:
 594              		.loc 1 263 0
 595 02a8 44F00101 		orr	r1, r4, #1
 596              	.LVL51:
 597 02ac 41F22840 		movw	r0, #5160
 598 02b0 FFF7FEFF 		bl	nm_write_reg
 599              	.LVL52:
 600              		.loc 1 265 0
 601 02b4 10BD     		pop	{r4, pc}
 602              		.cfi_endproc
 603              	.LFE335:
 604              		.size	nmi_update_pll, .-nmi_update_pll
 605              		.align	1
 606 02b6 00BFAFF3 		.p2align 4,,15
 606      0080AFF3 
 606      0080
 607              		.global	nmi_set_sys_clk_src_to_xo
 608              		.syntax unified
 609              		.thumb
 610              		.thumb_func
 611              		.fpu softvfp
 612              		.type	nmi_set_sys_clk_src_to_xo, %function
 613              	nmi_set_sys_clk_src_to_xo:
 614              	.LFB336:
 615              		.loc 1 267 0
 616              		.cfi_startproc
 617              		@ args = 0, pretend = 0, frame = 0
 618              		@ frame_needed = 0, uses_anonymous_args = 0
ARM GAS  C:\Users\RAKIBU~1\AppData\Local\Temp\ccwhGIQC.s 			page 12


 619 02c0 08B5     		push	{r3, lr}
 620              		.cfi_def_cfa_offset 8
 621              		.cfi_offset 3, -8
 622              		.cfi_offset 14, -4
 623              		.loc 1 271 0
 624 02c2 41F21C40 		movw	r0, #5148
 625 02c6 FFF7FEFF 		bl	nm_read_reg
 626              	.LVL53:
 627              		.loc 1 273 0
 628 02ca 40F00401 		orr	r1, r0, #4
 629              	.LVL54:
 630 02ce 41F21C40 		movw	r0, #5148
 631 02d2 FFF7FEFF 		bl	nm_write_reg
 632              	.LVL55:
 633              		.loc 1 276 0
 634 02d6 FFF7FEFF 		bl	nmi_update_pll
 635              	.LVL56:
 636              		.loc 1 277 0
 637 02da 08BD     		pop	{r3, pc}
 638              		.cfi_endproc
 639              	.LFE336:
 640              		.size	nmi_set_sys_clk_src_to_xo, .-nmi_set_sys_clk_src_to_xo
 641              		.align	1
 642 02dc AFF30080 		.p2align 4,,15
 643              		.global	chip_sleep
 644              		.syntax unified
 645              		.thumb
 646              		.thumb_func
 647              		.fpu softvfp
 648              		.type	chip_sleep, %function
 649              	chip_sleep:
 650              	.LFB337:
 651              		.loc 1 279 0
 652              		.cfi_startproc
 653              		@ args = 0, pretend = 0, frame = 8
 654              		@ frame_needed = 0, uses_anonymous_args = 0
 655 02e0 00B5     		push	{lr}
 656              		.cfi_def_cfa_offset 4
 657              		.cfi_offset 14, -4
 658 02e2 83B0     		sub	sp, sp, #12
 659              		.cfi_def_cfa_offset 16
 660              	.L54:
 661              		.loc 1 285 0
 662 02e4 01A9     		add	r1, sp, #4
 663 02e6 1020     		movs	r0, #16
 664 02e8 FFF7FEFF 		bl	nm_read_reg_with_ret
 665              	.LVL57:
 666              		.loc 1 286 0
 667 02ec 0346     		mov	r3, r0
 668 02ee F8B9     		cbnz	r0, .L53
 669              		.loc 1 287 0
 670 02f0 019B     		ldr	r3, [sp, #4]
 671 02f2 13F0010F 		tst	r3, #1
 672 02f6 F5D1     		bne	.L54
 673              		.loc 1 291 0
 674 02f8 01A9     		add	r1, sp, #4
 675 02fa 0120     		movs	r0, #1
ARM GAS  C:\Users\RAKIBU~1\AppData\Local\Temp\ccwhGIQC.s 			page 13


 676              	.LVL58:
 677 02fc FFF7FEFF 		bl	nm_read_reg_with_ret
 678              	.LVL59:
 679              		.loc 1 292 0
 680 0300 0346     		mov	r3, r0
 681 0302 A8B9     		cbnz	r0, .L53
 682              		.loc 1 293 0
 683 0304 0199     		ldr	r1, [sp, #4]
 684 0306 11F0020F 		tst	r1, #2
 685 030a 07D0     		beq	.L55
 686              		.loc 1 295 0
 687 030c 21F00201 		bic	r1, r1, #2
 688 0310 0191     		str	r1, [sp, #4]
 689              		.loc 1 296 0
 690 0312 0120     		movs	r0, #1
 691              	.LVL60:
 692 0314 FFF7FEFF 		bl	nm_write_reg
 693              	.LVL61:
 694              		.loc 1 297 0
 695 0318 0346     		mov	r3, r0
 696 031a 48B9     		cbnz	r0, .L53
 697              	.L55:
 698              		.loc 1 300 0
 699 031c 01A9     		add	r1, sp, #4
 700 031e 0B20     		movs	r0, #11
 701              	.LVL62:
 702 0320 FFF7FEFF 		bl	nm_read_reg_with_ret
 703              	.LVL63:
 704              		.loc 1 301 0
 705 0324 0346     		mov	r3, r0
 706 0326 18B9     		cbnz	r0, .L53
 707              		.loc 1 302 0
 708 0328 0199     		ldr	r1, [sp, #4]
 709 032a 11F0010F 		tst	r1, #1
 710 032e 03D1     		bne	.L57
 711              	.LVL64:
 712              	.L53:
 713              		.loc 1 311 0
 714 0330 1846     		mov	r0, r3
 715 0332 03B0     		add	sp, sp, #12
 716              		.cfi_remember_state
 717              		.cfi_def_cfa_offset 4
 718              		@ sp needed
 719 0334 5DF804FB 		ldr	pc, [sp], #4
 720              	.LVL65:
 721              	.L57:
 722              		.cfi_restore_state
 723              		.loc 1 304 0
 724 0338 21F00101 		bic	r1, r1, #1
 725 033c 0191     		str	r1, [sp, #4]
 726              		.loc 1 305 0
 727 033e 0B20     		movs	r0, #11
 728              	.LVL66:
 729 0340 FFF7FEFF 		bl	nm_write_reg
 730              	.LVL67:
 731 0344 0346     		mov	r3, r0
 732              	.LVL68:
ARM GAS  C:\Users\RAKIBU~1\AppData\Local\Temp\ccwhGIQC.s 			page 14


 733              		.loc 1 309 0
 734 0346 F3E7     		b	.L53
 735              		.cfi_endproc
 736              	.LFE337:
 737              		.size	chip_sleep, .-chip_sleep
 738              		.align	1
 739 0348 AFF30080 		.p2align 4,,15
 739      AFF30080 
 740              		.global	chip_wake
 741              		.syntax unified
 742              		.thumb
 743              		.thumb_func
 744              		.fpu softvfp
 745              		.type	chip_wake, %function
 746              	chip_wake:
 747              	.LFB338:
 748              		.loc 1 313 0
 749              		.cfi_startproc
 750              		@ args = 0, pretend = 0, frame = 8
 751              		@ frame_needed = 0, uses_anonymous_args = 0
 752 0350 30B5     		push	{r4, r5, lr}
 753              		.cfi_def_cfa_offset 12
 754              		.cfi_offset 4, -12
 755              		.cfi_offset 5, -8
 756              		.cfi_offset 14, -4
 757 0352 83B0     		sub	sp, sp, #12
 758              		.cfi_def_cfa_offset 24
 759              	.LVL69:
 760              		.loc 1 315 0
 761 0354 0023     		movs	r3, #0
 762 0356 0193     		str	r3, [sp, #4]
 763 0358 0093     		str	r3, [sp]
 764              	.LVL70:
 765              		.loc 1 317 0
 766 035a 01A9     		add	r1, sp, #4
 767 035c 0B20     		movs	r0, #11
 768 035e FFF7FEFF 		bl	nm_read_reg_with_ret
 769              	.LVL71:
 770              		.loc 1 318 0
 771 0362 0446     		mov	r4, r0
 772 0364 38BB     		cbnz	r0, .L59
 773              		.loc 1 320 0
 774 0366 0199     		ldr	r1, [sp, #4]
 775 0368 11F0010F 		tst	r1, #1
 776 036c 06D1     		bne	.L60
 777              		.loc 1 323 0
 778 036e 41F00101 		orr	r1, r1, #1
 779 0372 0B20     		movs	r0, #11
 780              	.LVL72:
 781 0374 FFF7FEFF 		bl	nm_write_reg
 782              	.LVL73:
 783              		.loc 1 324 0
 784 0378 0446     		mov	r4, r0
 785 037a E0B9     		cbnz	r0, .L59
 786              	.L60:
 787              		.loc 1 327 0
 788 037c 01A9     		add	r1, sp, #4
ARM GAS  C:\Users\RAKIBU~1\AppData\Local\Temp\ccwhGIQC.s 			page 15


 789 037e 0120     		movs	r0, #1
 790              	.LVL74:
 791 0380 FFF7FEFF 		bl	nm_read_reg_with_ret
 792              	.LVL75:
 793              		.loc 1 328 0
 794 0384 0446     		mov	r4, r0
 795 0386 B0B9     		cbnz	r0, .L59
 796              		.loc 1 330 0
 797 0388 0199     		ldr	r1, [sp, #4]
 798 038a 11F0020F 		tst	r1, #2
 799 038e 15D0     		beq	.L66
 800              	.L61:
 801              		.loc 1 313 0
 802 0390 0025     		movs	r5, #0
 803              	.LVL76:
 804              	.L63:
 805              		.loc 1 338 0
 806 0392 6946     		mov	r1, sp
 807 0394 0F20     		movs	r0, #15
 808 0396 FFF7FEFF 		bl	nm_read_reg_with_ret
 809              	.LVL77:
 810              		.loc 1 339 0
 811 039a 0446     		mov	r4, r0
 812 039c 58B9     		cbnz	r0, .L59
 813              		.loc 1 343 0
 814 039e 009B     		ldr	r3, [sp]
 815 03a0 13F0040F 		tst	r3, #4
 816 03a4 13D1     		bne	.L62
 817              		.loc 1 346 0
 818 03a6 0220     		movs	r0, #2
 819              	.LVL78:
 820 03a8 FFF7FEFF 		bl	nm_bsp_sleep
 821              	.LVL79:
 822              		.loc 1 347 0
 823 03ac 0135     		adds	r5, r5, #1
 824              	.LVL80:
 825              		.loc 1 348 0
 826 03ae 042D     		cmp	r5, #4
 827 03b0 EFD9     		bls	.L63
 828              		.loc 1 351 0
 829 03b2 6FF00304 		mvn	r4, #3
 830              	.LVL81:
 831              	.L59:
 832              		.loc 1 361 0
 833 03b6 2046     		mov	r0, r4
 834 03b8 03B0     		add	sp, sp, #12
 835              		.cfi_remember_state
 836              		.cfi_def_cfa_offset 12
 837              		@ sp needed
 838 03ba 30BD     		pop	{r4, r5, pc}
 839              	.LVL82:
 840              	.L66:
 841              		.cfi_restore_state
 842              		.loc 1 332 0
 843 03bc 41F00201 		orr	r1, r1, #2
 844 03c0 0120     		movs	r0, #1
 845              	.LVL83:
ARM GAS  C:\Users\RAKIBU~1\AppData\Local\Temp\ccwhGIQC.s 			page 16


 846 03c2 FFF7FEFF 		bl	nm_write_reg
 847              	.LVL84:
 848              		.loc 1 333 0
 849 03c6 0446     		mov	r4, r0
 850 03c8 0028     		cmp	r0, #0
 851 03ca E1D0     		beq	.L61
 852              		.loc 1 359 0
 853 03cc F3E7     		b	.L59
 854              	.LVL85:
 855              	.L62:
 856              		.loc 1 357 0
 857 03ce FFF7FEFF 		bl	nm_bus_reset
 858              	.LVL86:
 859 03d2 F0E7     		b	.L59
 860              		.cfi_endproc
 861              	.LFE338:
 862              		.size	chip_wake, .-chip_wake
 863              		.align	1
 864 03d4 AFF30080 		.p2align 4,,15
 864      AFF30080 
 864      AFF30080 
 865              		.global	cpu_halt
 866              		.syntax unified
 867              		.thumb
 868              		.thumb_func
 869              		.fpu softvfp
 870              		.type	cpu_halt, %function
 871              	cpu_halt:
 872              	.LFB339:
 873              		.loc 1 363 0
 874              		.cfi_startproc
 875              		@ args = 0, pretend = 0, frame = 8
 876              		@ frame_needed = 0, uses_anonymous_args = 0
 877 03e0 30B5     		push	{r4, r5, lr}
 878              		.cfi_def_cfa_offset 12
 879              		.cfi_offset 4, -12
 880              		.cfi_offset 5, -8
 881              		.cfi_offset 14, -4
 882 03e2 83B0     		sub	sp, sp, #12
 883              		.cfi_def_cfa_offset 24
 884              		.loc 1 365 0
 885 03e4 02AD     		add	r5, sp, #8
 886 03e6 0023     		movs	r3, #0
 887 03e8 45F8043D 		str	r3, [r5, #-4]!
 888              		.loc 1 366 0
 889 03ec 2946     		mov	r1, r5
 890 03ee 41F21810 		movw	r0, #4376
 891 03f2 FFF7FEFF 		bl	nm_read_reg_with_ret
 892              	.LVL87:
 893 03f6 0446     		mov	r4, r0
 894              	.LVL88:
 895              		.loc 1 367 0
 896 03f8 0199     		ldr	r1, [sp, #4]
 897 03fa 41F00101 		orr	r1, r1, #1
 898 03fe 0191     		str	r1, [sp, #4]
 899              		.loc 1 368 0
 900 0400 41F21810 		movw	r0, #4376
ARM GAS  C:\Users\RAKIBU~1\AppData\Local\Temp\ccwhGIQC.s 			page 17


 901 0404 FFF7FEFF 		bl	nm_write_reg
 902              	.LVL89:
 903 0408 54FA80F4 		uxtab	r4, r4, r0
 904              	.LVL90:
 905 040c E4B2     		uxtb	r4, r4
 906              	.LVL91:
 907              		.loc 1 369 0
 908 040e 2946     		mov	r1, r5
 909 0410 4FF4A050 		mov	r0, #5120
 910 0414 FFF7FEFF 		bl	nm_read_reg_with_ret
 911              	.LVL92:
 912 0418 54FA80F4 		uxtab	r4, r4, r0
 913              	.LVL93:
 914 041c E4B2     		uxtb	r4, r4
 915 041e 60B2     		sxtb	r0, r4
 916              	.LVL94:
 917              		.loc 1 370 0
 918 0420 0199     		ldr	r1, [sp, #4]
 919 0422 11F4806F 		tst	r1, #1024
 920 0426 01D1     		bne	.L70
 921              	.L68:
 922              		.loc 1 376 0
 923 0428 03B0     		add	sp, sp, #12
 924              		.cfi_remember_state
 925              		.cfi_def_cfa_offset 12
 926              		@ sp needed
 927 042a 30BD     		pop	{r4, r5, pc}
 928              	.L70:
 929              		.cfi_restore_state
 930              		.loc 1 371 0
 931 042c 21F48061 		bic	r1, r1, #1024
 932 0430 02AD     		add	r5, sp, #8
 933 0432 45F8041D 		str	r1, [r5, #-4]!
 934              		.loc 1 372 0
 935 0436 4FF4A050 		mov	r0, #5120
 936              	.LVL95:
 937 043a FFF7FEFF 		bl	nm_write_reg
 938              	.LVL96:
 939 043e 54FA80F4 		uxtab	r4, r4, r0
 940              	.LVL97:
 941 0442 E4B2     		uxtb	r4, r4
 942              	.LVL98:
 943              		.loc 1 373 0
 944 0444 2946     		mov	r1, r5
 945 0446 4FF4A050 		mov	r0, #5120
 946 044a FFF7FEFF 		bl	nm_read_reg_with_ret
 947              	.LVL99:
 948 044e 54FA80F0 		uxtab	r0, r4, r0
 949 0452 40B2     		sxtb	r0, r0
 950              	.LVL100:
 951 0454 E8E7     		b	.L68
 952              		.cfi_endproc
 953              	.LFE339:
 954              		.size	cpu_halt, .-cpu_halt
 955              		.align	1
 956 0456 00BFAFF3 		.p2align 4,,15
 956      0080AFF3 
ARM GAS  C:\Users\RAKIBU~1\AppData\Local\Temp\ccwhGIQC.s 			page 18


 956      0080
 957              		.global	chip_reset
 958              		.syntax unified
 959              		.thumb
 960              		.thumb_func
 961              		.fpu softvfp
 962              		.type	chip_reset, %function
 963              	chip_reset:
 964              	.LFB341:
 965              		.loc 1 393 0
 966              		.cfi_startproc
 967              		@ args = 0, pretend = 0, frame = 0
 968              		@ frame_needed = 0, uses_anonymous_args = 0
 969 0460 10B5     		push	{r4, lr}
 970              		.cfi_def_cfa_offset 8
 971              		.cfi_offset 4, -8
 972              		.cfi_offset 14, -4
 973              	.LVL101:
 974              		.loc 1 395 0
 975 0462 0021     		movs	r1, #0
 976 0464 4FF4A050 		mov	r0, #5120
 977 0468 FFF7FEFF 		bl	nm_write_reg
 978              	.LVL102:
 979 046c 0446     		mov	r4, r0
 980              	.LVL103:
 981              		.loc 1 396 0
 982 046e 3220     		movs	r0, #50
 983 0470 FFF7FEFF 		bl	nm_bsp_sleep
 984              	.LVL104:
 985              		.loc 1 398 0
 986 0474 2046     		mov	r0, r4
 987 0476 10BD     		pop	{r4, pc}
 988              		.cfi_endproc
 989              	.LFE341:
 990              		.size	chip_reset, .-chip_reset
 991              		.align	1
 992 0478 AFF30080 		.p2align 4,,15
 992      AFF30080 
 993              		.global	chip_reset_and_cpu_halt
 994              		.syntax unified
 995              		.thumb
 996              		.thumb_func
 997              		.fpu softvfp
 998              		.type	chip_reset_and_cpu_halt, %function
 999              	chip_reset_and_cpu_halt:
 1000              	.LFB340:
 1001              		.loc 1 378 0
 1002              		.cfi_startproc
 1003              		@ args = 0, pretend = 0, frame = 0
 1004              		@ frame_needed = 0, uses_anonymous_args = 0
 1005 0480 08B5     		push	{r3, lr}
 1006              		.cfi_def_cfa_offset 8
 1007              		.cfi_offset 3, -8
 1008              		.cfi_offset 14, -4
 1009              	.LVL105:
 1010              		.loc 1 382 0
 1011 0482 FFF7FEFF 		bl	chip_wake
ARM GAS  C:\Users\RAKIBU~1\AppData\Local\Temp\ccwhGIQC.s 			page 19


 1012              	.LVL106:
 1013              		.loc 1 383 0
 1014 0486 0346     		mov	r3, r0
 1015 0488 08B1     		cbz	r0, .L76
 1016              	.LVL107:
 1017              	.L74:
 1018              		.loc 1 391 0
 1019 048a 1846     		mov	r0, r3
 1020 048c 08BD     		pop	{r3, pc}
 1021              	.LVL108:
 1022              	.L76:
 1023              		.loc 1 385 0
 1024 048e FFF7FEFF 		bl	chip_reset
 1025              	.LVL109:
 1026              		.loc 1 386 0
 1027 0492 0346     		mov	r3, r0
 1028 0494 0028     		cmp	r0, #0
 1029 0496 F8D1     		bne	.L74
 1030              		.loc 1 387 0
 1031 0498 FFF7FEFF 		bl	cpu_halt
 1032              	.LVL110:
 1033 049c 0346     		mov	r3, r0
 1034              	.LVL111:
 1035              		.loc 1 389 0
 1036 049e F4E7     		b	.L74
 1037              		.cfi_endproc
 1038              	.LFE340:
 1039              		.size	chip_reset_and_cpu_halt, .-chip_reset_and_cpu_halt
 1040              		.align	1
 1041              		.p2align 4,,15
 1042              		.global	wait_for_bootrom
 1043              		.syntax unified
 1044              		.thumb
 1045              		.thumb_func
 1046              		.fpu softvfp
 1047              		.type	wait_for_bootrom, %function
 1048              	wait_for_bootrom:
 1049              	.LFB342:
 1050              		.loc 1 401 0
 1051              		.cfi_startproc
 1052              		@ args = 0, pretend = 0, frame = 0
 1053              		@ frame_needed = 0, uses_anonymous_args = 0
 1054              	.LVL112:
 1055 04a0 38B5     		push	{r3, r4, r5, lr}
 1056              		.cfi_def_cfa_offset 16
 1057              		.cfi_offset 3, -16
 1058              		.cfi_offset 4, -12
 1059              		.cfi_offset 5, -8
 1060              		.cfi_offset 14, -4
 1061 04a2 0546     		mov	r5, r0
 1062              	.LVL113:
 1063              	.L79:
 1064              		.loc 1 413 0
 1065 04a4 41F21400 		movw	r0, #4116
 1066 04a8 FFF7FEFF 		bl	nm_read_reg
 1067              	.LVL114:
 1068              		.loc 1 414 0
ARM GAS  C:\Users\RAKIBU~1\AppData\Local\Temp\ccwhGIQC.s 			page 20


 1069 04ac 0028     		cmp	r0, #0
 1070 04ae 03DB     		blt	.L78
 1071              		.loc 1 417 0
 1072 04b0 0120     		movs	r0, #1
 1073              	.LVL115:
 1074 04b2 FFF7FEFF 		bl	nm_bsp_sleep
 1075              	.LVL116:
 1076              		.loc 1 413 0
 1077 04b6 F5E7     		b	.L79
 1078              	.LVL117:
 1079              	.L78:
 1080              		.loc 1 419 0
 1081 04b8 2C48     		ldr	r0, .L96
 1082              	.LVL118:
 1083 04ba FFF7FEFF 		bl	nm_read_reg
 1084              	.LVL119:
 1085              		.loc 1 423 0
 1086 04be 10F00100 		ands	r0, r0, #1
 1087              	.LVL120:
 1088 04c2 1DD0     		beq	.L90
 1089              	.LVL121:
 1090              	.L81:
 1091              		.loc 1 440 0
 1092 04c4 022D     		cmp	r5, #2
 1093 04c6 2ED0     		beq	.L93
 1094              		.loc 1 443 0
 1095 04c8 032D     		cmp	r5, #3
 1096 04ca 38D0     		beq	.L94
 1097              		.loc 1 446 0
 1098 04cc 042D     		cmp	r5, #4
 1099 04ce 41D0     		beq	.L95
 1100              		.loc 1 451 0
 1101 04d0 2749     		ldr	r1, .L96+4
 1102 04d2 41F28C00 		movw	r0, #4236
 1103              	.LVL122:
 1104 04d6 FFF7FEFF 		bl	nm_write_reg
 1105              	.LVL123:
 1106              		.loc 1 404 0
 1107 04da 0024     		movs	r4, #0
 1108              	.LVL124:
 1109              	.L85:
 1110              		.loc 1 454 0
 1111 04dc FFF7FEFF 		bl	nmi_get_chipid
 1112              	.LVL125:
 1113 04e0 C0F30B00 		ubfx	r0, r0, #0, #12
 1114 04e4 B0F5687F 		cmp	r0, #928
 1115 04e8 3BD3     		bcc	.L88
 1116              		.loc 1 455 0
 1117 04ea 44F00200 		orr	r0, r4, #2
 1118 04ee FFF7FEFF 		bl	chip_apply_conf
 1119              	.LVL126:
 1120              	.L89:
 1121              		.loc 1 461 0
 1122 04f2 2049     		ldr	r1, .L96+8
 1123 04f4 4FF00C10 		mov	r0, #786444
 1124 04f8 FFF7FEFF 		bl	nm_write_reg
 1125              	.LVL127:
ARM GAS  C:\Users\RAKIBU~1\AppData\Local\Temp\ccwhGIQC.s 			page 21


 1126              		.loc 1 402 0
 1127 04fc 0020     		movs	r0, #0
 1128              	.LVL128:
 1129              	.L82:
 1130              		.loc 1 469 0
 1131 04fe 38BD     		pop	{r3, r4, r5, pc}
 1132              	.LVL129:
 1133              	.L90:
 1134              		.loc 1 403 0
 1135 0500 0446     		mov	r4, r0
 1136              	.LVL130:
 1137              	.L80:
 1138              		.loc 1 426 0
 1139 0502 1D4B     		ldr	r3, .L96+12
 1140 0504 9842     		cmp	r0, r3
 1141 0506 DDD0     		beq	.L81
 1142              		.loc 1 428 0
 1143 0508 0120     		movs	r0, #1
 1144              	.LVL131:
 1145 050a FFF7FEFF 		bl	nm_bsp_sleep
 1146              	.LVL132:
 1147              		.loc 1 429 0
 1148 050e 4FF00C10 		mov	r0, #786444
 1149 0512 FFF7FEFF 		bl	nm_read_reg
 1150              	.LVL133:
 1151              		.loc 1 431 0
 1152 0516 0134     		adds	r4, r4, #1
 1153              	.LVL134:
 1154 0518 44F62063 		movw	r3, #20000
 1155 051c 9C42     		cmp	r4, r3
 1156 051e F0D9     		bls	.L80
 1157              		.loc 1 434 0
 1158 0520 6FF00400 		mvn	r0, #4
 1159              	.LVL135:
 1160 0524 EBE7     		b	.L82
 1161              	.LVL136:
 1162              	.L93:
 1163              		.loc 1 441 0
 1164 0526 1549     		ldr	r1, .L96+16
 1165 0528 1548     		ldr	r0, .L96+20
 1166              	.LVL137:
 1167 052a FFF7FEFF 		bl	nm_write_reg
 1168              	.LVL138:
 1169              		.loc 1 442 0
 1170 052e 4FF48011 		mov	r1, #1048576
 1171 0532 41F28C00 		movw	r0, #4236
 1172 0536 FFF7FEFF 		bl	nm_write_reg
 1173              	.LVL139:
 1174              		.loc 1 404 0
 1175 053a 0024     		movs	r4, #0
 1176 053c CEE7     		b	.L85
 1177              	.LVL140:
 1178              	.L94:
 1179              		.loc 1 444 0
 1180 053e 0F49     		ldr	r1, .L96+16
 1181 0540 0F48     		ldr	r0, .L96+20
 1182              	.LVL141:
ARM GAS  C:\Users\RAKIBU~1\AppData\Local\Temp\ccwhGIQC.s 			page 22


 1183 0542 FFF7FEFF 		bl	nm_write_reg
 1184              	.LVL142:
 1185              		.loc 1 445 0
 1186 0546 0021     		movs	r1, #0
 1187 0548 41F28C00 		movw	r0, #4236
 1188 054c FFF7FEFF 		bl	nm_write_reg
 1189              	.LVL143:
 1190              		.loc 1 404 0
 1191 0550 0024     		movs	r4, #0
 1192 0552 C3E7     		b	.L85
 1193              	.LVL144:
 1194              	.L95:
 1195              		.loc 1 448 0
 1196 0554 0649     		ldr	r1, .L96+4
 1197 0556 41F28C00 		movw	r0, #4236
 1198              	.LVL145:
 1199 055a FFF7FEFF 		bl	nm_write_reg
 1200              	.LVL146:
 1201              		.loc 1 447 0
 1202 055e 8024     		movs	r4, #128
 1203 0560 BCE7     		b	.L85
 1204              	.LVL147:
 1205              	.L88:
 1206              		.loc 1 457 0
 1207 0562 2046     		mov	r0, r4
 1208 0564 FFF7FEFF 		bl	chip_apply_conf
 1209              	.LVL148:
 1210 0568 C3E7     		b	.L89
 1211              	.L97:
 1212 056a 00BF     		.align	2
 1213              	.L96:
 1214 056c BC070200 		.word	133052
 1215 0570 54135413 		.word	324277076
 1216 0574 612F52EF 		.word	-279826591
 1217 0578 9ED0AD10 		.word	279826590
 1218 057c 7DD51C3C 		.word	1008522621
 1219 0580 AC070200 		.word	133036
 1220              		.cfi_endproc
 1221              	.LFE342:
 1222              		.size	wait_for_bootrom, .-wait_for_bootrom
 1223              		.align	1
 1224 0584 AFF30080 		.p2align 4,,15
 1224      AFF30080 
 1224      AFF30080 
 1225              		.global	wait_for_firmware_start
 1226              		.syntax unified
 1227              		.thumb
 1228              		.thumb_func
 1229              		.fpu softvfp
 1230              		.type	wait_for_firmware_start, %function
 1231              	wait_for_firmware_start:
 1232              	.LFB343:
 1233              		.loc 1 472 0
 1234              		.cfi_startproc
 1235              		@ args = 0, pretend = 0, frame = 8
 1236              		@ frame_needed = 0, uses_anonymous_args = 0
 1237              	.LVL149:
ARM GAS  C:\Users\RAKIBU~1\AppData\Local\Temp\ccwhGIQC.s 			page 23


 1238 0590 10B5     		push	{r4, lr}
 1239              		.cfi_def_cfa_offset 8
 1240              		.cfi_offset 4, -8
 1241              		.cfi_offset 14, -4
 1242 0592 82B0     		sub	sp, sp, #8
 1243              		.cfi_def_cfa_offset 16
 1244              	.LVL150:
 1245              		.loc 1 476 0
 1246 0594 41F28C03 		movw	r3, #4236
 1247 0598 0193     		str	r3, [sp, #4]
 1248              		.loc 1 477 0
 1249 059a 184B     		ldr	r3, .L109
 1250 059c 0093     		str	r3, [sp]
 1251              		.loc 1 479 0
 1252 059e 0238     		subs	r0, r0, #2
 1253              	.LVL151:
 1254 05a0 C0B2     		uxtb	r0, r0
 1255 05a2 0128     		cmp	r0, #1
 1256 05a4 12D9     		bls	.L106
 1257              	.L99:
 1258              		.loc 1 472 0
 1259 05a6 0024     		movs	r4, #0
 1260 05a8 2046     		mov	r0, r4
 1261              	.LVL152:
 1262              	.L101:
 1263              		.loc 1 487 0
 1264 05aa 009B     		ldr	r3, [sp]
 1265 05ac 8342     		cmp	r3, r0
 1266 05ae 17D0     		beq	.L107
 1267              		.loc 1 489 0
 1268 05b0 0220     		movs	r0, #2
 1269              	.LVL153:
 1270 05b2 FFF7FEFF 		bl	nm_bsp_sleep
 1271              	.LVL154:
 1272              		.loc 1 491 0
 1273 05b6 0198     		ldr	r0, [sp, #4]
 1274 05b8 FFF7FEFF 		bl	nm_read_reg
 1275              	.LVL155:
 1276              		.loc 1 492 0
 1277 05bc 0134     		adds	r4, r4, #1
 1278              	.LVL156:
 1279 05be 44F61F63 		movw	r3, #19999
 1280 05c2 9C42     		cmp	r4, r3
 1281 05c4 F1D9     		bls	.L101
 1282              		.loc 1 495 0
 1283 05c6 6FF00400 		mvn	r0, #4
 1284              	.LVL157:
 1285 05ca 0EE0     		b	.L100
 1286              	.LVL158:
 1287              	.L106:
 1288              		.loc 1 480 0
 1289 05cc 0C4B     		ldr	r3, .L109+4
 1290 05ce 0193     		str	r3, [sp, #4]
 1291              		.loc 1 481 0
 1292 05d0 A3F12253 		sub	r3, r3, #679477248
 1293 05d4 A3F51113 		sub	r3, r3, #2375680
 1294 05d8 A3F2E953 		subw	r3, r3, #1513
ARM GAS  C:\Users\RAKIBU~1\AppData\Local\Temp\ccwhGIQC.s 			page 24


 1295 05dc 0093     		str	r3, [sp]
 1296 05de E2E7     		b	.L99
 1297              	.LVL159:
 1298              	.L107:
 1299              		.loc 1 499 0
 1300 05e0 009A     		ldr	r2, [sp]
 1301 05e2 064B     		ldr	r3, .L109
 1302 05e4 9A42     		cmp	r2, r3
 1303 05e6 02D0     		beq	.L108
 1304              		.loc 1 473 0
 1305 05e8 0020     		movs	r0, #0
 1306              	.LVL160:
 1307              	.L100:
 1308              		.loc 1 505 0
 1309 05ea 02B0     		add	sp, sp, #8
 1310              		.cfi_remember_state
 1311              		.cfi_def_cfa_offset 8
 1312              		@ sp needed
 1313 05ec 10BD     		pop	{r4, pc}
 1314              	.LVL161:
 1315              	.L108:
 1316              		.cfi_restore_state
 1317              		.loc 1 501 0
 1318 05ee 0021     		movs	r1, #0
 1319 05f0 41F28C00 		movw	r0, #4236
 1320              	.LVL162:
 1321 05f4 FFF7FEFF 		bl	nm_write_reg
 1322              	.LVL163:
 1323              		.loc 1 473 0
 1324 05f8 0020     		movs	r0, #0
 1325 05fa F6E7     		b	.L100
 1326              	.L110:
 1327              		.align	2
 1328              	.L109:
 1329 05fc 36265302 		.word	39003702
 1330 0600 AC070200 		.word	133036
 1331              		.cfi_endproc
 1332              	.LFE343:
 1333              		.size	wait_for_firmware_start, .-wait_for_firmware_start
 1334              		.align	1
 1335 0604 AFF30080 		.p2align 4,,15
 1335      AFF30080 
 1335      AFF30080 
 1336              		.global	chip_deinit
 1337              		.syntax unified
 1338              		.thumb
 1339              		.thumb_func
 1340              		.fpu softvfp
 1341              		.type	chip_deinit, %function
 1342              	chip_deinit:
 1343              	.LFB344:
 1344              		.loc 1 508 0
 1345              		.cfi_startproc
 1346              		@ args = 0, pretend = 0, frame = 8
 1347              		@ frame_needed = 0, uses_anonymous_args = 0
 1348 0610 00B5     		push	{lr}
 1349              		.cfi_def_cfa_offset 4
ARM GAS  C:\Users\RAKIBU~1\AppData\Local\Temp\ccwhGIQC.s 			page 25


 1350              		.cfi_offset 14, -4
 1351 0612 83B0     		sub	sp, sp, #12
 1352              		.cfi_def_cfa_offset 16
 1353              		.loc 1 509 0
 1354 0614 02A9     		add	r1, sp, #8
 1355 0616 0023     		movs	r3, #0
 1356 0618 41F8043D 		str	r3, [r1, #-4]!
 1357              		.loc 1 515 0
 1358 061c 4FF4A050 		mov	r0, #5120
 1359 0620 FFF7FEFF 		bl	nm_read_reg_with_ret
 1360              	.LVL164:
 1361              		.loc 1 516 0
 1362 0624 0346     		mov	r3, r0
 1363 0626 18B1     		cbz	r0, .L114
 1364              	.LVL165:
 1365              	.L112:
 1366              		.loc 1 529 0
 1367 0628 1846     		mov	r0, r3
 1368 062a 03B0     		add	sp, sp, #12
 1369              		.cfi_remember_state
 1370              		.cfi_def_cfa_offset 4
 1371              		@ sp needed
 1372 062c 5DF804FB 		ldr	pc, [sp], #4
 1373              	.LVL166:
 1374              	.L114:
 1375              		.cfi_restore_state
 1376              		.loc 1 520 0
 1377 0630 0199     		ldr	r1, [sp, #4]
 1378 0632 21F48061 		bic	r1, r1, #1024
 1379 0636 0191     		str	r1, [sp, #4]
 1380              		.loc 1 521 0
 1381 0638 4FF4A050 		mov	r0, #5120
 1382              	.LVL167:
 1383 063c FFF7FEFF 		bl	nm_write_reg
 1384              	.LVL168:
 1385 0640 0346     		mov	r3, r0
 1386              	.LVL169:
 1387              		.loc 1 527 0
 1388 0642 F1E7     		b	.L112
 1389              		.cfi_endproc
 1390              	.LFE344:
 1391              		.size	chip_deinit, .-chip_deinit
 1392              		.align	1
 1393 0644 AFF30080 		.p2align 4,,15
 1393      AFF30080 
 1393      AFF30080 
 1394              		.global	nmi_get_otp_mac_address
 1395              		.syntax unified
 1396              		.thumb
 1397              		.thumb_func
 1398              		.fpu softvfp
 1399              		.type	nmi_get_otp_mac_address, %function
 1400              	nmi_get_otp_mac_address:
 1401              	.LFB345:
 1402              		.loc 1 611 0
 1403              		.cfi_startproc
 1404              		@ args = 0, pretend = 0, frame = 24
ARM GAS  C:\Users\RAKIBU~1\AppData\Local\Temp\ccwhGIQC.s 			page 26


 1405              		@ frame_needed = 0, uses_anonymous_args = 0
 1406              	.LVL170:
 1407 0650 70B5     		push	{r4, r5, r6, lr}
 1408              		.cfi_def_cfa_offset 16
 1409              		.cfi_offset 4, -16
 1410              		.cfi_offset 5, -12
 1411              		.cfi_offset 6, -8
 1412              		.cfi_offset 14, -4
 1413 0652 86B0     		sub	sp, sp, #24
 1414              		.cfi_def_cfa_offset 40
 1415 0654 0646     		mov	r6, r0
 1416 0656 0C46     		mov	r4, r1
 1417              		.loc 1 615 0
 1418 0658 0023     		movs	r3, #0
 1419 065a 0193     		str	r3, [sp, #4]
 1420 065c 0293     		str	r3, [sp, #8]
 1421              		.loc 1 617 0
 1422 065e 05A9     		add	r1, sp, #20
 1423              	.LVL171:
 1424 0660 1948     		ldr	r0, .L121
 1425              	.LVL172:
 1426 0662 FFF7FEFF 		bl	nm_read_reg_with_ret
 1427              	.LVL173:
 1428              		.loc 1 618 0
 1429 0666 0546     		mov	r5, r0
 1430 0668 28B1     		cbz	r0, .L120
 1431              	.LVL174:
 1432              	.L116:
 1433              		.loc 1 638 0
 1434 066a 0CB1     		cbz	r4, .L118
 1435              		.loc 1 638 0 is_stmt 0 discriminator 1
 1436 066c 0023     		movs	r3, #0
 1437 066e 2370     		strb	r3, [r4]
 1438              	.L118:
 1439              		.loc 1 640 0 is_stmt 1
 1440 0670 2846     		mov	r0, r5
 1441 0672 06B0     		add	sp, sp, #24
 1442              		.cfi_remember_state
 1443              		.cfi_def_cfa_offset 16
 1444              		@ sp needed
 1445 0674 70BD     		pop	{r4, r5, r6, pc}
 1446              	.LVL175:
 1447              	.L120:
 1448              		.cfi_restore_state
 1449              		.loc 1 620 0
 1450 0676 0822     		movs	r2, #8
 1451 0678 01A9     		add	r1, sp, #4
 1452 067a 0598     		ldr	r0, [sp, #20]
 1453              	.LVL176:
 1454 067c 40F44030 		orr	r0, r0, #196608
 1455 0680 FFF7FEFF 		bl	nm_read_block
 1456              	.LVL177:
 1457              		.loc 1 621 0
 1458 0684 0546     		mov	r5, r0
 1459 0686 0028     		cmp	r0, #0
 1460 0688 EFD1     		bne	.L116
 1461              		.loc 1 622 0
ARM GAS  C:\Users\RAKIBU~1\AppData\Local\Temp\ccwhGIQC.s 			page 27


 1462 068a 0198     		ldr	r0, [sp, #4]
 1463              	.LVL178:
 1464 068c 0590     		str	r0, [sp, #20]
 1465              		.loc 1 624 0
 1466 068e 030C     		lsrs	r3, r0, #16
 1467 0690 1B04     		lsls	r3, r3, #16
 1468 0692 2BB9     		cbnz	r3, .L117
 1469              		.loc 1 626 0
 1470 0694 0622     		movs	r2, #6
 1471 0696 0021     		movs	r1, #0
 1472 0698 3046     		mov	r0, r6
 1473 069a FFF7FEFF 		bl	m2m_memset
 1474              	.LVL179:
 1475              		.loc 1 627 0
 1476 069e E4E7     		b	.L116
 1477              	.L117:
 1478              		.loc 1 631 0
 1479 06a0 000C     		lsrs	r0, r0, #16
 1480 06a2 0590     		str	r0, [sp, #20]
 1481              		.loc 1 632 0
 1482 06a4 0622     		movs	r2, #6
 1483 06a6 03A9     		add	r1, sp, #12
 1484 06a8 40F44030 		orr	r0, r0, #196608
 1485 06ac FFF7FEFF 		bl	nm_read_block
 1486              	.LVL180:
 1487 06b0 0546     		mov	r5, r0
 1488              	.LVL181:
 1489              		.loc 1 633 0
 1490 06b2 0622     		movs	r2, #6
 1491 06b4 03A9     		add	r1, sp, #12
 1492 06b6 3046     		mov	r0, r6
 1493 06b8 FFF7FEFF 		bl	m2m_memcpy
 1494              	.LVL182:
 1495              		.loc 1 634 0
 1496 06bc 002C     		cmp	r4, #0
 1497 06be D7D0     		beq	.L118
 1498              		.loc 1 634 0 is_stmt 0 discriminator 1
 1499 06c0 0123     		movs	r3, #1
 1500 06c2 2370     		strb	r3, [r4]
 1501 06c4 D4E7     		b	.L118
 1502              	.L122:
 1503 06c6 00BF     		.align	2
 1504              	.L121:
 1505 06c8 08000C00 		.word	786440
 1506              		.cfi_endproc
 1507              	.LFE345:
 1508              		.size	nmi_get_otp_mac_address, .-nmi_get_otp_mac_address
 1509              		.align	1
 1510 06cc AFF30080 		.p2align 4,,15
 1511              		.global	nmi_get_mac_address
 1512              		.syntax unified
 1513              		.thumb
 1514              		.thumb_func
 1515              		.fpu softvfp
 1516              		.type	nmi_get_mac_address, %function
 1517              	nmi_get_mac_address:
 1518              	.LFB346:
ARM GAS  C:\Users\RAKIBU~1\AppData\Local\Temp\ccwhGIQC.s 			page 28


 1519              		.loc 1 643 0 is_stmt 1
 1520              		.cfi_startproc
 1521              		@ args = 0, pretend = 0, frame = 24
 1522              		@ frame_needed = 0, uses_anonymous_args = 0
 1523              	.LVL183:
 1524 06d0 30B5     		push	{r4, r5, lr}
 1525              		.cfi_def_cfa_offset 12
 1526              		.cfi_offset 4, -12
 1527              		.cfi_offset 5, -8
 1528              		.cfi_offset 14, -4
 1529 06d2 87B0     		sub	sp, sp, #28
 1530              		.cfi_def_cfa_offset 40
 1531 06d4 0546     		mov	r5, r0
 1532              		.loc 1 647 0
 1533 06d6 0023     		movs	r3, #0
 1534 06d8 0193     		str	r3, [sp, #4]
 1535 06da 0293     		str	r3, [sp, #8]
 1536              		.loc 1 649 0
 1537 06dc 05A9     		add	r1, sp, #20
 1538 06de 1148     		ldr	r0, .L127
 1539              	.LVL184:
 1540 06e0 FFF7FEFF 		bl	nm_read_reg_with_ret
 1541              	.LVL185:
 1542              		.loc 1 650 0
 1543 06e4 0446     		mov	r4, r0
 1544 06e6 10B1     		cbz	r0, .L126
 1545              	.LVL186:
 1546              	.L124:
 1547              		.loc 1 664 0
 1548 06e8 2046     		mov	r0, r4
 1549 06ea 07B0     		add	sp, sp, #28
 1550              		.cfi_remember_state
 1551              		.cfi_def_cfa_offset 12
 1552              		@ sp needed
 1553 06ec 30BD     		pop	{r4, r5, pc}
 1554              	.LVL187:
 1555              	.L126:
 1556              		.cfi_restore_state
 1557              		.loc 1 652 0
 1558 06ee 0822     		movs	r2, #8
 1559 06f0 01A9     		add	r1, sp, #4
 1560 06f2 0598     		ldr	r0, [sp, #20]
 1561              	.LVL188:
 1562 06f4 40F44030 		orr	r0, r0, #196608
 1563 06f8 FFF7FEFF 		bl	nm_read_block
 1564              	.LVL189:
 1565              		.loc 1 653 0
 1566 06fc 0446     		mov	r4, r0
 1567 06fe 0028     		cmp	r0, #0
 1568 0700 F2D1     		bne	.L124
 1569              		.loc 1 656 0
 1570 0702 BDF80400 		ldrh	r0, [sp, #4]
 1571              	.LVL190:
 1572 0706 0590     		str	r0, [sp, #20]
 1573              		.loc 1 657 0
 1574 0708 0622     		movs	r2, #6
 1575 070a 03A9     		add	r1, sp, #12
ARM GAS  C:\Users\RAKIBU~1\AppData\Local\Temp\ccwhGIQC.s 			page 29


 1576 070c 40F44030 		orr	r0, r0, #196608
 1577 0710 FFF7FEFF 		bl	nm_read_block
 1578              	.LVL191:
 1579 0714 0446     		mov	r4, r0
 1580              	.LVL192:
 1581              		.loc 1 658 0
 1582 0716 0622     		movs	r2, #6
 1583 0718 03A9     		add	r1, sp, #12
 1584 071a 2846     		mov	r0, r5
 1585 071c FFF7FEFF 		bl	m2m_memcpy
 1586              	.LVL193:
 1587              		.loc 1 660 0
 1588 0720 E2E7     		b	.L124
 1589              	.L128:
 1590 0722 00BF     		.align	2
 1591              	.L127:
 1592 0724 08000C00 		.word	786440
 1593              		.cfi_endproc
 1594              	.LFE346:
 1595              		.size	nmi_get_mac_address, .-nmi_get_mac_address
 1596              		.bss
 1597              		.align	2
 1598              		.set	.LANCHOR0,. + 0
 1599              		.type	chipid.9726, %object
 1600              		.size	chipid.9726, 4
 1601              	chipid.9726:
 1602 0000 00000000 		.space	4
 1603              		.text
 1604              	.Letext0:
 1605              		.file 2 "./winc1500/bsp/include/nm_bsp.h"
 1606              		.file 3 "c:\\chibistudio\\tools\\gnu tools arm embedded\\7.0 2017q4\\lib\\gcc\\arm-none-eabi\\7.2.
 1607              		.file 4 "c:\\chibistudio\\tools\\gnu tools arm embedded\\7.0 2017q4\\arm-none-eabi\\include\\machi
 1608              		.file 5 "c:\\chibistudio\\tools\\gnu tools arm embedded\\7.0 2017q4\\arm-none-eabi\\include\\sys\\
 1609              		.file 6 "c:\\chibistudio\\tools\\gnu tools arm embedded\\7.0 2017q4\\arm-none-eabi\\include\\stdin
 1610              		.file 7 "../../../ChibiOSRepo/chibios191/os/common/ports/ARMCMx/compilers/GCC/chtypes.h"
 1611              		.file 8 "../../../ChibiOSRepo/chibios191/os/rt/include/chsystypes.h"
 1612              		.file 9 "../../../ChibiOSRepo/chibios191/os/rt/include/chschd.h"
 1613              		.file 10 "../../../ChibiOSRepo/chibios191/os/rt/include/chtime.h"
 1614              		.file 11 "../../../ChibiOSRepo/chibios191/os/common/ext/ARM/CMSIS/Core/Include/core_cm4.h"
 1615              		.file 12 "../../../ChibiOSRepo/chibios191/os/common/ext/ST/STM32F4xx/system_stm32f4xx.h"
 1616              		.file 13 "../../../ChibiOSRepo/chibios191/os/common/ext/ST/STM32F4xx/stm32f407xx.h"
 1617              		.file 14 "../../../ChibiOSRepo/chibios191/os/common/ports/ARMCMx/chcore.h"
 1618              		.file 15 "../../../ChibiOSRepo/chibios191/os/common/ports/ARMCMx/chcore_v7m.h"
 1619              		.file 16 "../../../ChibiOSRepo/chibios191/os/hal/ports/STM32/LLD/TIMv1/stm32_tim.h"
 1620              		.file 17 "../../../ChibiOSRepo/chibios191/os/rt/include/chtrace.h"
 1621              		.file 18 "../../../ChibiOSRepo/chibios191/os/rt/include/chtm.h"
 1622              		.file 19 "../../../ChibiOSRepo/chibios191/os/rt/include/chstats.h"
 1623              		.file 20 "../../../ChibiOSRepo/chibios191/os/rt/include/chsem.h"
 1624              		.file 21 "../../../ChibiOSRepo/chibios191/os/rt/include/chmtx.h"
 1625              		.file 22 "../../../ChibiOSRepo/chibios191/os/rt/include/chsys.h"
 1626              		.file 23 "../../../ChibiOSRepo/chibios191/os/rt/include/chregistry.h"
 1627              		.file 24 "../../../ChibiOSRepo/chibios191/os/rt/include/chevents.h"
 1628              		.file 25 "../../../ChibiOSRepo/chibios191/os/oslib/include/chmemcore.h"
 1629              		.file 26 "../../../ChibiOSRepo/chibios191/os/oslib/include/chmempools.h"
 1630              		.file 27 "../../../ChibiOSRepo/chibios191/os/oslib/include/chfactory.h"
 1631              		.file 28 "../../../ChibiOSRepo/chibios191/os/hal/ports/STM32/LLD/DMAv2/stm32_dma.h"
 1632              		.file 29 "../../../ChibiOSRepo/chibios191/os/hal/include/hal_ioblock.h"
ARM GAS  C:\Users\RAKIBU~1\AppData\Local\Temp\ccwhGIQC.s 			page 30


 1633              		.file 30 "../../../ChibiOSRepo/chibios191/os/hal/include/hal_persistent.h"
 1634              		.file 31 "../../../ChibiOSRepo/chibios191/os/hal/include/hal_queues.h"
 1635              		.file 32 "../../../ChibiOSRepo/chibios191/os/hal/include/hal_pal.h"
 1636              		.file 33 "../../../ChibiOSRepo/chibios191/os/hal/ports/STM32/LLD/GPIOv2/stm32_gpio.h"
 1637              		.file 34 "../../../ChibiOSRepo/chibios191/os/hal/ports/STM32/LLD/GPIOv2/hal_pal_lld.h"
 1638              		.file 35 "../../../ChibiOSRepo/chibios191/os/hal/include/hal_gpt.h"
 1639              		.file 36 "../../../ChibiOSRepo/chibios191/os/hal/ports/STM32/LLD/TIMv1/hal_gpt_lld.h"
 1640              		.file 37 "../../../ChibiOSRepo/chibios191/os/hal/include/hal_i2c.h"
 1641              		.file 38 "../../../ChibiOSRepo/chibios191/os/hal/ports/STM32/LLD/I2Cv1/hal_i2c_lld.h"
 1642              		.file 39 "c:\\chibistudio\\tools\\gnu tools arm embedded\\7.0 2017q4\\arm-none-eabi\\include\\sys\
 1643              		.file 40 "c:\\chibistudio\\tools\\gnu tools arm embedded\\7.0 2017q4\\arm-none-eabi\\include\\sys\
 1644              		.file 41 "c:\\chibistudio\\tools\\gnu tools arm embedded\\7.0 2017q4\\arm-none-eabi\\include\\sys\
 1645              		.file 42 "c:\\chibistudio\\tools\\gnu tools arm embedded\\7.0 2017q4\\arm-none-eabi\\include\\time
 1646              		.file 43 "../../../ChibiOSRepo/chibios191/os/hal/include/hal_rtc.h"
 1647              		.file 44 "../../../ChibiOSRepo/chibios191/os/hal/ports/STM32/LLD/RTCv2/hal_rtc_lld.h"
 1648              		.file 45 "../../../ChibiOSRepo/chibios191/os/hal/include/hal_serial.h"
 1649              		.file 46 "../../../ChibiOSRepo/chibios191/os/hal/ports/STM32/LLD/USARTv1/hal_serial_lld.h"
 1650              		.file 47 "../../../ChibiOSRepo/chibios191/os/hal/include/hal_sdc.h"
 1651              		.file 48 "../../../ChibiOSRepo/chibios191/os/hal/ports/STM32/LLD/SDIOv1/hal_sdc_lld.h"
 1652              		.file 49 "../../../ChibiOSRepo/chibios191/os/hal/include/hal_spi.h"
 1653              		.file 50 "../../../ChibiOSRepo/chibios191/os/hal/ports/STM32/LLD/SPIv1/hal_spi_lld.h"
 1654              		.file 51 "./winc1500/bus_wrapper/include/nm_bus_wrapper.h"
 1655              		.file 52 "./winc1500/driver/source/nmasic.h"
 1656              		.file 53 "./winc1500/driver/include/m2m_types.h"
 1657              		.file 54 "./winc1500/driver/source/nmbus.h"
 1658              		.file 55 "./winc1500/common/include/nm_common.h"