ARM GAS  C:\Users\RAKIBU~1\AppData\Local\Temp\ccyaJyhW.s 			page 1


   1              		.cpu cortex-m4
   2              		.eabi_attribute 20, 1
   3              		.eabi_attribute 21, 1
   4              		.eabi_attribute 23, 3
   5              		.eabi_attribute 24, 1
   6              		.eabi_attribute 25, 1
   7              		.eabi_attribute 26, 1
   8              		.eabi_attribute 30, 1
   9              		.eabi_attribute 34, 1
  10              		.eabi_attribute 18, 4
  11              		.file	"nmdrv.c"
  12              		.text
  13              	.Ltext0:
  14              		.cfi_sections	.debug_frame
  15              		.align	1
  16              		.p2align 4,,15
  17              		.global	nm_get_firmware_info
  18              		.syntax unified
  19              		.thumb
  20              		.thumb_func
  21              		.fpu softvfp
  22              		.type	nm_get_firmware_info, %function
  23              	nm_get_firmware_info:
  24              	.LFB331:
  25              		.file 1 "./winc1500/driver/source/nmdrv.c"
  26              		.loc 1 66 0
  27              		.cfi_startproc
  28              		@ args = 0, pretend = 0, frame = 8
  29              		@ frame_needed = 0, uses_anonymous_args = 0
  30              	.LVL0:
  31 0000 30B5     		push	{r4, r5, lr}
  32              		.cfi_def_cfa_offset 12
  33              		.cfi_offset 4, -12
  34              		.cfi_offset 5, -8
  35              		.cfi_offset 14, -4
  36 0002 83B0     		sub	sp, sp, #12
  37              		.cfi_def_cfa_offset 24
  38 0004 0446     		mov	r4, r0
  39              		.loc 1 68 0
  40 0006 02A9     		add	r1, sp, #8
  41 0008 0023     		movs	r3, #0
  42 000a 41F8043D 		str	r3, [r1, #-4]!
  43              	.LVL1:
  44              		.loc 1 71 0
  45 000e 2948     		ldr	r0, .L10
  46              	.LVL2:
  47 0010 FFF7FEFF 		bl	nm_read_reg_with_ret
  48              	.LVL3:
  49 0014 0546     		mov	r5, r0
  50              	.LVL4:
  51              		.loc 1 73 0
  52 0016 019A     		ldr	r2, [sp, #4]
  53 0018 274B     		ldr	r3, .L10+4
  54 001a 9A42     		cmp	r2, r3
  55 001c 3FD0     		beq	.L8
  56              	.L2:
  57              		.loc 1 78 0
ARM GAS  C:\Users\RAKIBU~1\AppData\Local\Temp\ccyaJyhW.s 			page 2


  58 001e 019B     		ldr	r3, [sp, #4]
  59 0020 1A0C     		lsrs	r2, r3, #16
  60 0022 91B2     		uxth	r1, r2
  61 0024 080A     		lsrs	r0, r1, #8
  62 0026 E071     		strb	r0, [r4, #7]
  63              		.loc 1 79 0
  64 0028 C1F30311 		ubfx	r1, r1, #4, #4
  65 002c 2172     		strb	r1, [r4, #8]
  66              		.loc 1 80 0
  67 002e 02F00F02 		and	r2, r2, #15
  68 0032 6272     		strb	r2, [r4, #9]
  69              		.loc 1 81 0
  70 0034 9AB2     		uxth	r2, r3
  71 0036 110A     		lsrs	r1, r2, #8
  72 0038 2171     		strb	r1, [r4, #4]
  73              		.loc 1 82 0
  74 003a C2F30312 		ubfx	r2, r2, #4, #4
  75 003e 6271     		strb	r2, [r4, #5]
  76              		.loc 1 83 0
  77 0040 03F00F03 		and	r3, r3, #15
  78 0044 A371     		strb	r3, [r4, #6]
  79              		.loc 1 84 0
  80 0046 FFF7FEFF 		bl	nmi_get_chipid
  81              	.LVL5:
  82 004a 2060     		str	r0, [r4]
  83              		.loc 1 85 0
  84 004c 0023     		movs	r3, #0
  85 004e 2384     		strh	r3, [r4, #32]	@ movhi
  86              		.loc 1 87 0
  87 0050 2279     		ldrb	r2, [r4, #4]	@ zero_extendqisi2
  88 0052 6379     		ldrb	r3, [r4, #5]	@ zero_extendqisi2
  89 0054 1B01     		lsls	r3, r3, #4
  90 0056 03F0F003 		and	r3, r3, #240
  91 005a 43EA0223 		orr	r3, r3, r2, lsl #8
  92 005e 1BB2     		sxth	r3, r3
  93 0060 A279     		ldrb	r2, [r4, #6]	@ zero_extendqisi2
  94 0062 02F00F02 		and	r2, r2, #15
  95 0066 1343     		orrs	r3, r3, r2
  96 0068 9BB2     		uxth	r3, r3
  97              	.LVL6:
  98              		.loc 1 89 0
  99 006a E179     		ldrb	r1, [r4, #7]	@ zero_extendqisi2
 100 006c 227A     		ldrb	r2, [r4, #8]	@ zero_extendqisi2
 101 006e 1201     		lsls	r2, r2, #4
 102 0070 02F0F002 		and	r2, r2, #240
 103 0074 42EA0122 		orr	r2, r2, r1, lsl #8
 104 0078 12B2     		sxth	r2, r2
 105 007a 617A     		ldrb	r1, [r4, #9]	@ zero_extendqisi2
 106 007c 01F00F01 		and	r1, r1, #15
 107 0080 0A43     		orrs	r2, r2, r1
 108 0082 92B2     		uxth	r2, r2
 109              	.LVL7:
 110              		.loc 1 90 0
 111 0084 41F25431 		movw	r1, #4948
 112 0088 8A42     		cmp	r2, r1
 113 008a 01D9     		bls	.L3
 114              		.loc 1 93 0
ARM GAS  C:\Users\RAKIBU~1\AppData\Local\Temp\ccyaJyhW.s 			page 3


 115 008c 6FF00C05 		mvn	r5, #12
 116              	.LVL8:
 117              	.L3:
 118              		.loc 1 95 0
 119 0090 41F25332 		movw	r2, #4947
 120              	.LVL9:
 121 0094 9342     		cmp	r3, r2
 122 0096 09D9     		bls	.L9
 123              	.LVL10:
 124              	.L4:
 125              		.loc 1 100 0
 126 0098 2846     		mov	r0, r5
 127 009a 03B0     		add	sp, sp, #12
 128              		.cfi_remember_state
 129              		.cfi_def_cfa_offset 12
 130              		@ sp needed
 131 009c 30BD     		pop	{r4, r5, pc}
 132              	.LVL11:
 133              	.L8:
 134              		.cfi_restore_state
 135              		.loc 1 76 0
 136 009e 01A9     		add	r1, sp, #4
 137 00a0 41F24800 		movw	r0, #4168
 138 00a4 FFF7FEFF 		bl	nm_read_reg_with_ret
 139              	.LVL12:
 140 00a8 0546     		mov	r5, r0
 141              	.LVL13:
 142 00aa B8E7     		b	.L2
 143              	.LVL14:
 144              	.L9:
 145              		.loc 1 97 0
 146 00ac 6FF00C05 		mvn	r5, #12
 147              	.LVL15:
 148 00b0 F2E7     		b	.L4
 149              	.L11:
 150 00b2 00BF     		.align	2
 151              	.L10:
 152 00b4 AC070200 		.word	133036
 153 00b8 C3C15DD7 		.word	-681721405
 154              		.cfi_endproc
 155              	.LFE331:
 156              		.size	nm_get_firmware_info, .-nm_get_firmware_info
 157              		.align	1
 158 00bc AFF30080 		.p2align 4,,15
 159              		.global	nm_get_firmware_full_info
 160              		.syntax unified
 161              		.thumb
 162              		.thumb_func
 163              		.fpu softvfp
 164              		.type	nm_get_firmware_full_info, %function
 165              	nm_get_firmware_full_info:
 166              	.LFB332:
 167              		.loc 1 109 0
 168              		.cfi_startproc
 169              		@ args = 0, pretend = 0, frame = 16
 170              		@ frame_needed = 0, uses_anonymous_args = 0
 171              	.LVL16:
ARM GAS  C:\Users\RAKIBU~1\AppData\Local\Temp\ccyaJyhW.s 			page 4


 172 00c0 10B5     		push	{r4, lr}
 173              		.cfi_def_cfa_offset 8
 174              		.cfi_offset 4, -8
 175              		.cfi_offset 14, -4
 176 00c2 84B0     		sub	sp, sp, #16
 177              		.cfi_def_cfa_offset 24
 178              		.loc 1 111 0
 179 00c4 0023     		movs	r3, #0
 180 00c6 0393     		str	r3, [sp, #12]
 181              	.LVL17:
 182              		.loc 1 113 0
 183 00c8 0193     		str	r3, [sp, #4]
 184 00ca 0293     		str	r3, [sp, #8]
 185              		.loc 1 114 0
 186 00cc 0028     		cmp	r0, #0
 187 00ce 4BD0     		beq	.L14
 188 00d0 0446     		mov	r4, r0
 189              		.loc 1 116 0
 190 00d2 2822     		movs	r2, #40
 191 00d4 1946     		mov	r1, r3
 192 00d6 FFF7FEFF 		bl	m2m_memset
 193              	.LVL18:
 194              		.loc 1 117 0
 195 00da 03A9     		add	r1, sp, #12
 196 00dc 2C48     		ldr	r0, .L22
 197 00de FFF7FEFF 		bl	nm_read_reg_with_ret
 198              	.LVL19:
 199              		.loc 1 118 0
 200 00e2 0346     		mov	r3, r0
 201 00e4 0028     		cmp	r0, #0
 202 00e6 40D1     		bne	.L13
 203              		.loc 1 120 0
 204 00e8 0398     		ldr	r0, [sp, #12]
 205              	.LVL20:
 206 00ea 0028     		cmp	r0, #0
 207 00ec 40D0     		beq	.L15
 208              		.loc 1 122 0
 209 00ee 0822     		movs	r2, #8
 210 00f0 01A9     		add	r1, sp, #4
 211 00f2 40F44030 		orr	r0, r0, #196608
 212 00f6 FFF7FEFF 		bl	nm_read_block
 213              	.LVL21:
 214              		.loc 1 123 0
 215 00fa 0346     		mov	r3, r0
 216 00fc 0028     		cmp	r0, #0
 217 00fe 34D1     		bne	.L13
 218              		.loc 1 126 0
 219 0100 BDF80800 		ldrh	r0, [sp, #8]
 220              	.LVL22:
 221 0104 0390     		str	r0, [sp, #12]
 222              		.loc 1 127 0
 223 0106 0028     		cmp	r0, #0
 224 0108 35D0     		beq	.L16
 225              		.loc 1 129 0
 226 010a 2822     		movs	r2, #40
 227 010c 2146     		mov	r1, r4
 228 010e 40F44030 		orr	r0, r0, #196608
ARM GAS  C:\Users\RAKIBU~1\AppData\Local\Temp\ccyaJyhW.s 			page 5


 229 0112 FFF7FEFF 		bl	nm_read_block
 230              	.LVL23:
 231              		.loc 1 130 0
 232 0116 0346     		mov	r3, r0
 233 0118 38BB     		cbnz	r0, .L13
 234              		.loc 1 132 0
 235 011a 2179     		ldrb	r1, [r4, #4]	@ zero_extendqisi2
 236 011c 6279     		ldrb	r2, [r4, #5]	@ zero_extendqisi2
 237 011e 1201     		lsls	r2, r2, #4
 238 0120 02F0F002 		and	r2, r2, #240
 239 0124 42EA0122 		orr	r2, r2, r1, lsl #8
 240 0128 12B2     		sxth	r2, r2
 241 012a A179     		ldrb	r1, [r4, #6]	@ zero_extendqisi2
 242 012c 01F00F01 		and	r1, r1, #15
 243 0130 0A43     		orrs	r2, r2, r1
 244 0132 92B2     		uxth	r2, r2
 245              	.LVL24:
 246              		.loc 1 134 0
 247 0134 E079     		ldrb	r0, [r4, #7]	@ zero_extendqisi2
 248              	.LVL25:
 249 0136 217A     		ldrb	r1, [r4, #8]	@ zero_extendqisi2
 250 0138 0901     		lsls	r1, r1, #4
 251 013a 01F0F001 		and	r1, r1, #240
 252 013e 41EA0021 		orr	r1, r1, r0, lsl #8
 253 0142 09B2     		sxth	r1, r1
 254 0144 607A     		ldrb	r0, [r4, #9]	@ zero_extendqisi2
 255 0146 00F00F00 		and	r0, r0, #15
 256 014a 0143     		orrs	r1, r1, r0
 257 014c 89B2     		uxth	r1, r1
 258              	.LVL26:
 259              		.loc 1 135 0
 260 014e AAB1     		cbz	r2, .L17
 261              		.loc 1 135 0 is_stmt 0 discriminator 1
 262 0150 B9B1     		cbz	r1, .L18
 263              		.loc 1 139 0 is_stmt 1
 264 0152 41F25430 		movw	r0, #4948
 265 0156 8142     		cmp	r1, r0
 266 0158 16D8     		bhi	.L19
 267              		.loc 1 145 0
 268 015a 41F25331 		movw	r1, #4947
 269              	.LVL27:
 270 015e 8A42     		cmp	r2, r1
 271 0160 03D8     		bhi	.L13
 272              		.loc 1 147 0
 273 0162 6FF00C03 		mvn	r3, #12
 274 0166 00E0     		b	.L13
 275              	.LVL28:
 276              	.L14:
 277              		.loc 1 112 0
 278 0168 0023     		movs	r3, #0
 279              	.LVL29:
 280              	.L13:
 281              		.loc 1 162 0
 282 016a 1846     		mov	r0, r3
 283 016c 04B0     		add	sp, sp, #16
 284              		.cfi_remember_state
 285              		.cfi_def_cfa_offset 8
ARM GAS  C:\Users\RAKIBU~1\AppData\Local\Temp\ccyaJyhW.s 			page 6


 286              		@ sp needed
 287 016e 10BD     		pop	{r4, pc}
 288              	.LVL30:
 289              	.L15:
 290              		.cfi_restore_state
 291              		.loc 1 156 0
 292 0170 6FF00B03 		mvn	r3, #11
 293 0174 F9E7     		b	.L13
 294              	.L16:
 295              		.loc 1 152 0
 296 0176 6FF00B03 		mvn	r3, #11
 297 017a F6E7     		b	.L13
 298              	.LVL31:
 299              	.L17:
 300              		.loc 1 136 0
 301 017c 6FF00B03 		mvn	r3, #11
 302 0180 F3E7     		b	.L13
 303              	.L18:
 304 0182 6FF00B03 		mvn	r3, #11
 305 0186 F0E7     		b	.L13
 306              	.L19:
 307              		.loc 1 142 0
 308 0188 6FF00C03 		mvn	r3, #12
 309 018c EDE7     		b	.L13
 310              	.L23:
 311 018e 00BF     		.align	2
 312              	.L22:
 313 0190 08000C00 		.word	786440
 314              		.cfi_endproc
 315              	.LFE332:
 316              		.size	nm_get_firmware_full_info, .-nm_get_firmware_full_info
 317              		.align	1
 318 0194 AFF30080 		.p2align 4,,15
 318      AFF30080 
 318      AFF30080 
 319              		.global	nm_get_ota_firmware_info
 320              		.syntax unified
 321              		.thumb
 322              		.thumb_func
 323              		.fpu softvfp
 324              		.type	nm_get_ota_firmware_info, %function
 325              	nm_get_ota_firmware_info:
 326              	.LFB333:
 327              		.loc 1 172 0
 328              		.cfi_startproc
 329              		@ args = 0, pretend = 0, frame = 16
 330              		@ frame_needed = 0, uses_anonymous_args = 0
 331              	.LVL32:
 332 01a0 10B5     		push	{r4, lr}
 333              		.cfi_def_cfa_offset 8
 334              		.cfi_offset 4, -8
 335              		.cfi_offset 14, -4
 336 01a2 84B0     		sub	sp, sp, #16
 337              		.cfi_def_cfa_offset 24
 338              		.loc 1 174 0
 339 01a4 0023     		movs	r3, #0
 340 01a6 0393     		str	r3, [sp, #12]
ARM GAS  C:\Users\RAKIBU~1\AppData\Local\Temp\ccyaJyhW.s 			page 7


 341              		.loc 1 176 0
 342 01a8 0193     		str	r3, [sp, #4]
 343 01aa 0293     		str	r3, [sp, #8]
 344              		.loc 1 178 0
 345 01ac 0028     		cmp	r0, #0
 346 01ae 4CD0     		beq	.L27
 347 01b0 0446     		mov	r4, r0
 348              		.loc 1 180 0
 349 01b2 2822     		movs	r2, #40
 350 01b4 1946     		mov	r1, r3
 351 01b6 FFF7FEFF 		bl	m2m_memset
 352              	.LVL33:
 353              		.loc 1 181 0
 354 01ba 03A9     		add	r1, sp, #12
 355 01bc 2C48     		ldr	r0, .L36
 356 01be FFF7FEFF 		bl	nm_read_reg_with_ret
 357              	.LVL34:
 358              		.loc 1 182 0
 359 01c2 0346     		mov	r3, r0
 360 01c4 0028     		cmp	r0, #0
 361 01c6 3DD1     		bne	.L25
 362              		.loc 1 184 0
 363 01c8 0398     		ldr	r0, [sp, #12]
 364              	.LVL35:
 365 01ca 0028     		cmp	r0, #0
 366 01cc 40D0     		beq	.L28
 367              		.loc 1 186 0
 368 01ce 0822     		movs	r2, #8
 369 01d0 01A9     		add	r1, sp, #4
 370 01d2 40F44030 		orr	r0, r0, #196608
 371 01d6 FFF7FEFF 		bl	nm_read_block
 372              	.LVL36:
 373              		.loc 1 187 0
 374 01da 0346     		mov	r3, r0
 375 01dc 90BB     		cbnz	r0, .L25
 376              		.loc 1 190 0
 377 01de BDF80A00 		ldrh	r0, [sp, #10]
 378              	.LVL37:
 379 01e2 0390     		str	r0, [sp, #12]
 380              		.loc 1 191 0
 381 01e4 0028     		cmp	r0, #0
 382 01e6 36D0     		beq	.L29
 383              		.loc 1 193 0
 384 01e8 2822     		movs	r2, #40
 385 01ea 2146     		mov	r1, r4
 386 01ec 40F44030 		orr	r0, r0, #196608
 387 01f0 FFF7FEFF 		bl	nm_read_block
 388              	.LVL38:
 389              		.loc 1 194 0
 390 01f4 0346     		mov	r3, r0
 391 01f6 28BB     		cbnz	r0, .L25
 392              		.loc 1 196 0
 393 01f8 2179     		ldrb	r1, [r4, #4]	@ zero_extendqisi2
 394 01fa 6279     		ldrb	r2, [r4, #5]	@ zero_extendqisi2
 395 01fc 1201     		lsls	r2, r2, #4
 396 01fe 02F0F002 		and	r2, r2, #240
 397 0202 42EA0122 		orr	r2, r2, r1, lsl #8
ARM GAS  C:\Users\RAKIBU~1\AppData\Local\Temp\ccyaJyhW.s 			page 8


 398 0206 12B2     		sxth	r2, r2
 399 0208 A179     		ldrb	r1, [r4, #6]	@ zero_extendqisi2
 400 020a 01F00F01 		and	r1, r1, #15
 401 020e 0A43     		orrs	r2, r2, r1
 402 0210 92B2     		uxth	r2, r2
 403              	.LVL39:
 404              		.loc 1 198 0
 405 0212 E079     		ldrb	r0, [r4, #7]	@ zero_extendqisi2
 406              	.LVL40:
 407 0214 217A     		ldrb	r1, [r4, #8]	@ zero_extendqisi2
 408 0216 0901     		lsls	r1, r1, #4
 409 0218 01F0F001 		and	r1, r1, #240
 410 021c 41EA0021 		orr	r1, r1, r0, lsl #8
 411 0220 09B2     		sxth	r1, r1
 412 0222 607A     		ldrb	r0, [r4, #9]	@ zero_extendqisi2
 413 0224 00F00F00 		and	r0, r0, #15
 414 0228 0143     		orrs	r1, r1, r0
 415 022a 89B2     		uxth	r1, r1
 416              	.LVL41:
 417              		.loc 1 199 0
 418 022c B2B1     		cbz	r2, .L30
 419              		.loc 1 199 0 is_stmt 0 discriminator 1
 420 022e C1B1     		cbz	r1, .L31
 421              		.loc 1 203 0 is_stmt 1
 422 0230 41F25430 		movw	r0, #4948
 423 0234 8142     		cmp	r1, r0
 424 0236 01D9     		bls	.L26
 425              		.loc 1 206 0
 426 0238 6FF00C03 		mvn	r3, #12
 427              	.L26:
 428              	.LVL42:
 429              		.loc 1 208 0
 430 023c 41F25331 		movw	r1, #4947
 431              	.LVL43:
 432 0240 8A42     		cmp	r2, r1
 433 0242 11D9     		bls	.L35
 434              	.LVL44:
 435              	.L25:
 436              		.loc 1 226 0
 437 0244 1846     		mov	r0, r3
 438 0246 04B0     		add	sp, sp, #16
 439              		.cfi_remember_state
 440              		.cfi_def_cfa_offset 8
 441              		@ sp needed
 442 0248 10BD     		pop	{r4, pc}
 443              	.LVL45:
 444              	.L27:
 445              		.cfi_restore_state
 446              		.loc 1 222 0
 447 024a 6FF00E03 		mvn	r3, #14
 448 024e F9E7     		b	.L25
 449              	.LVL46:
 450              	.L28:
 451              		.loc 1 218 0
 452 0250 6FF00B03 		mvn	r3, #11
 453 0254 F6E7     		b	.L25
 454              	.L29:
ARM GAS  C:\Users\RAKIBU~1\AppData\Local\Temp\ccyaJyhW.s 			page 9


 455              		.loc 1 214 0
 456 0256 6FF00F03 		mvn	r3, #15
 457 025a F3E7     		b	.L25
 458              	.LVL47:
 459              	.L30:
 460              		.loc 1 200 0
 461 025c 6FF00B03 		mvn	r3, #11
 462 0260 F0E7     		b	.L25
 463              	.L31:
 464 0262 6FF00B03 		mvn	r3, #11
 465 0266 EDE7     		b	.L25
 466              	.LVL48:
 467              	.L35:
 468              		.loc 1 210 0
 469 0268 6FF00C03 		mvn	r3, #12
 470              	.LVL49:
 471 026c EAE7     		b	.L25
 472              	.L37:
 473 026e 00BF     		.align	2
 474              	.L36:
 475 0270 08000C00 		.word	786440
 476              		.cfi_endproc
 477              	.LFE333:
 478              		.size	nm_get_ota_firmware_info, .-nm_get_ota_firmware_info
 479              		.align	1
 480 0274 AFF30080 		.p2align 4,,15
 480      AFF30080 
 480      AFF30080 
 481              		.global	nm_drv_init_download_mode
 482              		.syntax unified
 483              		.thumb
 484              		.thumb_func
 485              		.fpu softvfp
 486              		.type	nm_drv_init_download_mode, %function
 487              	nm_drv_init_download_mode:
 488              	.LFB334:
 489              		.loc 1 241 0
 490              		.cfi_startproc
 491              		@ args = 0, pretend = 0, frame = 0
 492              		@ frame_needed = 0, uses_anonymous_args = 0
 493 0280 10B5     		push	{r4, lr}
 494              		.cfi_def_cfa_offset 8
 495              		.cfi_offset 4, -8
 496              		.cfi_offset 14, -4
 497              	.LVL50:
 498              		.loc 1 244 0
 499 0282 0020     		movs	r0, #0
 500 0284 FFF7FEFF 		bl	nm_bus_iface_init
 501              	.LVL51:
 502              		.loc 1 245 0
 503 0288 0446     		mov	r4, r0
 504 028a 08B1     		cbz	r0, .L42
 505              	.LVL52:
 506              	.L39:
 507              		.loc 1 271 0
 508 028c 2046     		mov	r0, r4
 509 028e 10BD     		pop	{r4, pc}
ARM GAS  C:\Users\RAKIBU~1\AppData\Local\Temp\ccyaJyhW.s 			page 10


 510              	.LVL53:
 511              	.L42:
 512              		.loc 1 253 0
 513 0290 FFF7FEFF 		bl	nmi_get_chipid
 514              	.LVL54:
 515 0294 000D     		lsrs	r0, r0, #20
 516 0296 0005     		lsls	r0, r0, #20
 517 0298 B0F5401F 		cmp	r0, #3145728
 518 029c 06D1     		bne	.L43
 519              	.L40:
 520              		.loc 1 261 0
 521 029e FFF7FEFF 		bl	nm_spi_init
 522              	.LVL55:
 523              		.loc 1 267 0
 524 02a2 0021     		movs	r1, #0
 525 02a4 0348     		ldr	r0, .L44
 526 02a6 FFF7FEFF 		bl	nm_write_reg
 527              	.LVL56:
 528 02aa EFE7     		b	.L39
 529              	.L43:
 530              		.loc 1 256 0
 531 02ac FFF7FEFF 		bl	chip_reset_and_cpu_halt
 532              	.LVL57:
 533 02b0 F5E7     		b	.L40
 534              	.L45:
 535 02b2 00BF     		.align	2
 536              	.L44:
 537 02b4 00030200 		.word	131840
 538              		.cfi_endproc
 539              	.LFE334:
 540              		.size	nm_drv_init_download_mode, .-nm_drv_init_download_mode
 541              		.align	1
 542 02b8 AFF30080 		.p2align 4,,15
 542      AFF30080 
 543              		.global	nm_drv_init
 544              		.syntax unified
 545              		.thumb
 546              		.thumb_func
 547              		.fpu softvfp
 548              		.type	nm_drv_init, %function
 549              	nm_drv_init:
 550              	.LFB335:
 551              		.loc 1 284 0
 552              		.cfi_startproc
 553              		@ args = 0, pretend = 0, frame = 0
 554              		@ frame_needed = 0, uses_anonymous_args = 0
 555              	.LVL58:
 556 02c0 38B5     		push	{r3, r4, r5, lr}
 557              		.cfi_def_cfa_offset 16
 558              		.cfi_offset 3, -16
 559              		.cfi_offset 4, -12
 560              		.cfi_offset 5, -8
 561              		.cfi_offset 14, -4
 562              	.LVL59:
 563              		.loc 1 288 0
 564 02c2 58B1     		cbz	r0, .L50
 565              		.loc 1 289 0
ARM GAS  C:\Users\RAKIBU~1\AppData\Local\Temp\ccyaJyhW.s 			page 11


 566 02c4 0478     		ldrb	r4, [r0]	@ zero_extendqisi2
 567              	.LVL60:
 568              		.loc 1 290 0
 569 02c6 631E     		subs	r3, r4, #1
 570 02c8 DBB2     		uxtb	r3, r3
 571 02ca 032B     		cmp	r3, #3
 572 02cc 08D8     		bhi	.L51
 573              	.LVL61:
 574              	.L47:
 575              		.loc 1 297 0
 576 02ce 0020     		movs	r0, #0
 577              	.LVL62:
 578 02d0 FFF7FEFF 		bl	nm_bus_iface_init
 579              	.LVL63:
 580              		.loc 1 298 0
 581 02d4 0546     		mov	r5, r0
 582 02d6 28B1     		cbz	r0, .L53
 583              	.LVL64:
 584              	.L48:
 585              		.loc 1 353 0
 586 02d8 2846     		mov	r0, r5
 587 02da 38BD     		pop	{r3, r4, r5, pc}
 588              	.LVL65:
 589              	.L50:
 590              		.loc 1 294 0
 591 02dc 0124     		movs	r4, #1
 592 02de F6E7     		b	.L47
 593              	.LVL66:
 594              	.L51:
 595              		.loc 1 291 0
 596 02e0 0124     		movs	r4, #1
 597              	.LVL67:
 598 02e2 F4E7     		b	.L47
 599              	.LVL68:
 600              	.L53:
 601              		.loc 1 322 0
 602 02e4 FFF7FEFF 		bl	nmi_get_chipid
 603              	.LVL69:
 604 02e8 0146     		mov	r1, r0
 605 02ea 0D48     		ldr	r0, .L54
 606 02ec FFF7FEFF 		bl	myPrintf
 607              	.LVL70:
 608              		.loc 1 325 0
 609 02f0 FFF7FEFF 		bl	nm_spi_init
 610              	.LVL71:
 611              		.loc 1 327 0
 612 02f4 2046     		mov	r0, r4
 613 02f6 FFF7FEFF 		bl	wait_for_bootrom
 614              	.LVL72:
 615              		.loc 1 328 0
 616 02fa 0546     		mov	r5, r0
 617 02fc 68B9     		cbnz	r0, .L49
 618              		.loc 1 332 0
 619 02fe 2046     		mov	r0, r4
 620              	.LVL73:
 621 0300 FFF7FEFF 		bl	wait_for_firmware_start
 622              	.LVL74:
ARM GAS  C:\Users\RAKIBU~1\AppData\Local\Temp\ccyaJyhW.s 			page 12


 623              		.loc 1 333 0
 624 0304 0546     		mov	r5, r0
 625 0306 40B9     		cbnz	r0, .L49
 626              		.loc 1 337 0
 627 0308 023C     		subs	r4, r4, #2
 628              	.LVL75:
 629 030a E4B2     		uxtb	r4, r4
 630 030c 012C     		cmp	r4, #1
 631 030e E3D9     		bls	.L48
 632              		.loc 1 343 0
 633 0310 FFF7FEFF 		bl	enable_interrupts
 634              	.LVL76:
 635              		.loc 1 344 0
 636 0314 0546     		mov	r5, r0
 637 0316 0028     		cmp	r0, #0
 638 0318 DED0     		beq	.L48
 639              	.L49:
 640              	.LVL77:
 641              		.loc 1 350 0
 642 031a FFF7FEFF 		bl	nm_bus_iface_deinit
 643              	.LVL78:
 644 031e DBE7     		b	.L48
 645              	.L55:
 646              		.align	2
 647              	.L54:
 648 0320 00000000 		.word	.LC0
 649              		.cfi_endproc
 650              	.LFE335:
 651              		.size	nm_drv_init, .-nm_drv_init
 652              		.align	1
 653 0324 AFF30080 		.p2align 4,,15
 653      AFF30080 
 653      AFF30080 
 654              		.global	nm_drv_deinit
 655              		.syntax unified
 656              		.thumb
 657              		.thumb_func
 658              		.fpu softvfp
 659              		.type	nm_drv_deinit, %function
 660              	nm_drv_deinit:
 661              	.LFB336:
 662              		.loc 1 363 0
 663              		.cfi_startproc
 664              		@ args = 0, pretend = 0, frame = 0
 665              		@ frame_needed = 0, uses_anonymous_args = 0
 666              	.LVL79:
 667 0330 10B5     		push	{r4, lr}
 668              		.cfi_def_cfa_offset 8
 669              		.cfi_offset 4, -8
 670              		.cfi_offset 14, -4
 671              		.loc 1 367 0
 672 0332 FFF7FEFF 		bl	chip_deinit
 673              	.LVL80:
 674              		.loc 1 368 0
 675 0336 0446     		mov	r4, r0
 676 0338 08B1     		cbz	r0, .L59
 677              	.LVL81:
ARM GAS  C:\Users\RAKIBU~1\AppData\Local\Temp\ccyaJyhW.s 			page 13


 678              	.L57:
 679              		.loc 1 392 0
 680 033a 2046     		mov	r0, r4
 681 033c 10BD     		pop	{r4, pc}
 682              	.LVL82:
 683              	.L59:
 684              		.loc 1 374 0
 685 033e FFF7FEFF 		bl	spi_flash_enable
 686              	.LVL83:
 687              		.loc 1 375 0
 688 0342 0446     		mov	r4, r0
 689 0344 0028     		cmp	r0, #0
 690 0346 F8D1     		bne	.L57
 691              		.loc 1 380 0
 692 0348 FFF7FEFF 		bl	nm_bus_iface_deinit
 693              	.LVL84:
 694              		.loc 1 381 0
 695 034c 0446     		mov	r4, r0
 696 034e 0028     		cmp	r0, #0
 697 0350 F3D1     		bne	.L57
 698              		.loc 1 387 0
 699 0352 FFF7FEFF 		bl	nm_spi_deinit
 700              	.LVL85:
 701 0356 F0E7     		b	.L57
 702              		.cfi_endproc
 703              	.LFE336:
 704              		.size	nm_drv_deinit, .-nm_drv_deinit
 705              		.section	.rodata.str1.4,"aMS",%progbits,1
 706              		.align	2
 707              	.LC0:
 708 0000 43686970 		.ascii	"Chip ID %lx\012\000"
 708      20494420 
 708      256C780A 
 708      00
 709              		.text
 710              	.Letext0:
 711              		.file 2 "c:\\chibistudio\\tools\\gnu tools arm embedded\\7.0 2017q4\\arm-none-eabi\\include\\machi
 712              		.file 3 "c:\\chibistudio\\tools\\gnu tools arm embedded\\7.0 2017q4\\lib\\gcc\\arm-none-eabi\\7.2.
 713              		.file 4 "c:\\chibistudio\\tools\\gnu tools arm embedded\\7.0 2017q4\\arm-none-eabi\\include\\sys\\
 714              		.file 5 "c:\\chibistudio\\tools\\gnu tools arm embedded\\7.0 2017q4\\arm-none-eabi\\include\\sys\\
 715              		.file 6 "c:\\chibistudio\\tools\\gnu tools arm embedded\\7.0 2017q4\\arm-none-eabi\\include\\sys\\
 716              		.file 7 "c:\\chibistudio\\tools\\gnu tools arm embedded\\7.0 2017q4\\arm-none-eabi\\include\\sys\\
 717              		.file 8 "c:\\chibistudio\\tools\\gnu tools arm embedded\\7.0 2017q4\\arm-none-eabi\\include\\stdin
 718              		.file 9 "../../../ChibiOSRepo/chibios191/os/common/ports/ARMCMx/compilers/GCC/chtypes.h"
 719              		.file 10 "../../../ChibiOSRepo/chibios191/os/rt/include/chsystypes.h"
 720              		.file 11 "../../../ChibiOSRepo/chibios191/os/rt/include/chschd.h"
 721              		.file 12 "../../../ChibiOSRepo/chibios191/os/rt/include/chtime.h"
 722              		.file 13 "../../../ChibiOSRepo/chibios191/os/common/ext/ARM/CMSIS/Core/Include/core_cm4.h"
 723              		.file 14 "../../../ChibiOSRepo/chibios191/os/common/ext/ST/STM32F4xx/system_stm32f4xx.h"
 724              		.file 15 "../../../ChibiOSRepo/chibios191/os/common/ext/ST/STM32F4xx/stm32f407xx.h"
 725              		.file 16 "../../../ChibiOSRepo/chibios191/os/common/ports/ARMCMx/chcore.h"
 726              		.file 17 "../../../ChibiOSRepo/chibios191/os/common/ports/ARMCMx/chcore_v7m.h"
 727              		.file 18 "../../../ChibiOSRepo/chibios191/os/hal/ports/STM32/LLD/TIMv1/stm32_tim.h"
 728              		.file 19 "../../../ChibiOSRepo/chibios191/os/rt/include/chtrace.h"
 729              		.file 20 "../../../ChibiOSRepo/chibios191/os/rt/include/chtm.h"
 730              		.file 21 "../../../ChibiOSRepo/chibios191/os/rt/include/chstats.h"
 731              		.file 22 "../../../ChibiOSRepo/chibios191/os/rt/include/chsem.h"
ARM GAS  C:\Users\RAKIBU~1\AppData\Local\Temp\ccyaJyhW.s 			page 14


 732              		.file 23 "../../../ChibiOSRepo/chibios191/os/rt/include/chmtx.h"
 733              		.file 24 "../../../ChibiOSRepo/chibios191/os/rt/include/chsys.h"
 734              		.file 25 "../../../ChibiOSRepo/chibios191/os/rt/include/chregistry.h"
 735              		.file 26 "../../../ChibiOSRepo/chibios191/os/rt/include/chevents.h"
 736              		.file 27 "../../../ChibiOSRepo/chibios191/os/oslib/include/chmemcore.h"
 737              		.file 28 "../../../ChibiOSRepo/chibios191/os/oslib/include/chmempools.h"
 738              		.file 29 "../../../ChibiOSRepo/chibios191/os/oslib/include/chfactory.h"
 739              		.file 30 "../../../ChibiOSRepo/chibios191/os/hal/ports/STM32/LLD/DMAv2/stm32_dma.h"
 740              		.file 31 "../../../ChibiOSRepo/chibios191/os/hal/include/hal_ioblock.h"
 741              		.file 32 "../../../ChibiOSRepo/chibios191/os/hal/include/hal_persistent.h"
 742              		.file 33 "../../../ChibiOSRepo/chibios191/os/hal/include/hal_queues.h"
 743              		.file 34 "../../../ChibiOSRepo/chibios191/os/hal/include/hal_pal.h"
 744              		.file 35 "../../../ChibiOSRepo/chibios191/os/hal/ports/STM32/LLD/GPIOv2/stm32_gpio.h"
 745              		.file 36 "../../../ChibiOSRepo/chibios191/os/hal/ports/STM32/LLD/GPIOv2/hal_pal_lld.h"
 746              		.file 37 "../../../ChibiOSRepo/chibios191/os/hal/include/hal_gpt.h"
 747              		.file 38 "../../../ChibiOSRepo/chibios191/os/hal/ports/STM32/LLD/TIMv1/hal_gpt_lld.h"
 748              		.file 39 "../../../ChibiOSRepo/chibios191/os/hal/include/hal_i2c.h"
 749              		.file 40 "../../../ChibiOSRepo/chibios191/os/hal/ports/STM32/LLD/I2Cv1/hal_i2c_lld.h"
 750              		.file 41 "c:\\chibistudio\\tools\\gnu tools arm embedded\\7.0 2017q4\\arm-none-eabi\\include\\time
 751              		.file 42 "../../../ChibiOSRepo/chibios191/os/hal/include/hal_rtc.h"
 752              		.file 43 "../../../ChibiOSRepo/chibios191/os/hal/ports/STM32/LLD/RTCv2/hal_rtc_lld.h"
 753              		.file 44 "../../../ChibiOSRepo/chibios191/os/hal/include/hal_serial.h"
 754              		.file 45 "../../../ChibiOSRepo/chibios191/os/hal/ports/STM32/LLD/USARTv1/hal_serial_lld.h"
 755              		.file 46 "../../../ChibiOSRepo/chibios191/os/hal/include/hal_sdc.h"
 756              		.file 47 "../../../ChibiOSRepo/chibios191/os/hal/ports/STM32/LLD/SDIOv1/hal_sdc_lld.h"
 757              		.file 48 "../../../ChibiOSRepo/chibios191/os/hal/include/hal_spi.h"
 758              		.file 49 "../../../ChibiOSRepo/chibios191/os/hal/ports/STM32/LLD/SPIv1/hal_spi_lld.h"
 759              		.file 50 "./winc1500/bsp/include/nm_bsp.h"
 760              		.file 51 "./winc1500/bus_wrapper/include/nm_bus_wrapper.h"
 761              		.file 52 "./winc1500/driver/source/nmdrv.h"
 762              		.file 53 "./winc1500/driver/source/nmasic.h"
 763              		.file 54 "./winc1500/driver/include/m2m_types.h"
 764              		.file 55 "./winc1500/spi_flash/include/spi_flash.h"
 765              		.file 56 "./winc1500/driver/source/nmbus.h"
 766              		.file 57 "./winc1500/driver/source/nmspi.h"
 767              		.file 58 "./winc1500/common/include/nm_common.h"