ARM GAS  C:\Users\RAKIBU~1\AppData\Local\Temp\ccZ9ut5E.s 			page 1


   1              		.cpu cortex-m4
   2              		.eabi_attribute 20, 1
   3              		.eabi_attribute 21, 1
   4              		.eabi_attribute 23, 3
   5              		.eabi_attribute 24, 1
   6              		.eabi_attribute 25, 1
   7              		.eabi_attribute 26, 1
   8              		.eabi_attribute 30, 1
   9              		.eabi_attribute 34, 1
  10              		.eabi_attribute 18, 4
  11              		.file	"nmspi.c"
  12              		.text
  13              	.Ltext0:
  14              		.cfi_sections	.debug_frame
  15              		.align	1
  16              		.p2align 4,,15
  17              		.syntax unified
  18              		.thumb
  19              		.thumb_func
  20              		.fpu softvfp
  21              		.type	crc7_byte, %function
  22              	crc7_byte:
  23              	.LFB330:
  24              		.file 1 "./winc1500/driver/source/nmspi.c"
  25              		.loc 1 171 0
  26              		.cfi_startproc
  27              		@ args = 0, pretend = 0, frame = 0
  28              		@ frame_needed = 0, uses_anonymous_args = 0
  29              		@ link register save eliminated.
  30              	.LVL0:
  31              		.loc 1 172 0
  32 0000 81EA4001 		eor	r1, r1, r0, lsl #1
  33              	.LVL1:
  34              		.loc 1 173 0
  35 0004 014B     		ldr	r3, .L2
  36 0006 585C     		ldrb	r0, [r3, r1]	@ zero_extendqisi2
  37              	.LVL2:
  38 0008 7047     		bx	lr
  39              	.L3:
  40 000a 00BF     		.align	2
  41              	.L2:
  42 000c 00000000 		.word	.LANCHOR0
  43              		.cfi_endproc
  44              	.LFE330:
  45              		.size	crc7_byte, .-crc7_byte
  46              		.align	1
  47              		.p2align 4,,15
  48              		.syntax unified
  49              		.thumb
  50              		.thumb_func
  51              		.fpu softvfp
  52              		.type	crc7, %function
  53              	crc7:
  54              	.LFB331:
  55              		.loc 1 176 0
  56              		.cfi_startproc
  57              		@ args = 0, pretend = 0, frame = 0
ARM GAS  C:\Users\RAKIBU~1\AppData\Local\Temp\ccZ9ut5E.s 			page 2


  58              		@ frame_needed = 0, uses_anonymous_args = 0
  59              	.LVL3:
  60 0010 38B5     		push	{r3, r4, r5, lr}
  61              		.cfi_def_cfa_offset 16
  62              		.cfi_offset 3, -16
  63              		.cfi_offset 4, -12
  64              		.cfi_offset 5, -8
  65              		.cfi_offset 14, -4
  66              		.loc 1 177 0
  67 0012 05E0     		b	.L5
  68              	.LVL4:
  69              	.L6:
  70              		.loc 1 178 0
  71 0014 4D1C     		adds	r5, r1, #1
  72              	.LVL5:
  73 0016 0978     		ldrb	r1, [r1]	@ zero_extendqisi2
  74 0018 FFF7F2FF 		bl	crc7_byte
  75              	.LVL6:
  76              		.loc 1 177 0
  77 001c 2246     		mov	r2, r4
  78              		.loc 1 178 0
  79 001e 2946     		mov	r1, r5
  80              	.LVL7:
  81              	.L5:
  82              		.loc 1 177 0
  83 0020 541E     		subs	r4, r2, #1
  84              	.LVL8:
  85 0022 002A     		cmp	r2, #0
  86 0024 F6D1     		bne	.L6
  87              		.loc 1 180 0
  88 0026 38BD     		pop	{r3, r4, r5, pc}
  89              		.cfi_endproc
  90              	.LFE331:
  91              		.size	crc7, .-crc7
  92              		.align	1
  93 0028 AFF30080 		.p2align 4,,15
  93      AFF30080 
  94              		.syntax unified
  95              		.thumb
  96              		.thumb_func
  97              		.fpu softvfp
  98              		.type	nmi_spi_write, %function
  99              	nmi_spi_write:
 100              	.LFB329:
 101              		.loc 1 111 0
 102              		.cfi_startproc
 103              		@ args = 0, pretend = 0, frame = 16
 104              		@ frame_needed = 0, uses_anonymous_args = 0
 105              	.LVL9:
 106 0030 00B5     		push	{lr}
 107              		.cfi_def_cfa_offset 4
 108              		.cfi_offset 14, -4
 109 0032 85B0     		sub	sp, sp, #20
 110              		.cfi_def_cfa_offset 24
 111              		.loc 1 113 0
 112 0034 0190     		str	r0, [sp, #4]
 113              		.loc 1 114 0
ARM GAS  C:\Users\RAKIBU~1\AppData\Local\Temp\ccZ9ut5E.s 			page 3


 114 0036 0023     		movs	r3, #0
 115 0038 0293     		str	r3, [sp, #8]
 116              		.loc 1 115 0
 117 003a ADF80C10 		strh	r1, [sp, #12]	@ movhi
 118              		.loc 1 116 0
 119 003e 01A9     		add	r1, sp, #4
 120              	.LVL10:
 121 0040 0320     		movs	r0, #3
 122              	.LVL11:
 123 0042 FFF7FEFF 		bl	nm_bus_ioctl
 124              	.LVL12:
 125              		.loc 1 117 0
 126 0046 05B0     		add	sp, sp, #20
 127              		.cfi_def_cfa_offset 4
 128              		@ sp needed
 129 0048 5DF804FB 		ldr	pc, [sp], #4
 130              		.cfi_endproc
 131              	.LFE329:
 132              		.size	nmi_spi_write, .-nmi_spi_write
 133              		.align	1
 134 004c AFF30080 		.p2align 4,,15
 135              		.syntax unified
 136              		.thumb
 137              		.thumb_func
 138              		.fpu softvfp
 139              		.type	spi_cmd, %function
 140              	spi_cmd:
 141              	.LFB332:
 142              		.loc 1 208 0
 143              		.cfi_startproc
 144              		@ args = 4, pretend = 0, frame = 16
 145              		@ frame_needed = 0, uses_anonymous_args = 0
 146              	.LVL13:
 147 0050 30B5     		push	{r4, r5, lr}
 148              		.cfi_def_cfa_offset 12
 149              		.cfi_offset 4, -12
 150              		.cfi_offset 5, -8
 151              		.cfi_offset 14, -4
 152 0052 85B0     		sub	sp, sp, #20
 153              		.cfi_def_cfa_offset 32
 154 0054 9DF82040 		ldrb	r4, [sp, #32]	@ zero_extendqisi2
 155              	.LVL14:
 156              		.loc 1 213 0
 157 0058 8DF80400 		strb	r0, [sp, #4]
 158              		.loc 1 214 0
 159 005c C138     		subs	r0, r0, #193
 160              	.LVL15:
 161 005e 0E28     		cmp	r0, #14
 162 0060 00F2BA80 		bhi	.L27
 163 0064 DFE800F0 		tbb	[pc, r0]
 164              	.L13:
 165 0068 58       		.byte	(.L12-.L13)/2
 166 0069 58       		.byte	(.L12-.L13)/2
 167 006a 80       		.byte	(.L14-.L13)/2
 168 006b 2D       		.byte	(.L15-.L13)/2
 169 006c 3D       		.byte	(.L16-.L13)/2
 170 006d 46       		.byte	(.L17-.L13)/2
ARM GAS  C:\Users\RAKIBU~1\AppData\Local\Temp\ccZ9ut5E.s 			page 4


 171 006e 6A       		.byte	(.L18-.L13)/2
 172 006f 6A       		.byte	(.L18-.L13)/2
 173 0070 9A       		.byte	(.L19-.L13)/2
 174 0071 08       		.byte	(.L20-.L13)/2
 175 0072 B8       		.byte	(.L27-.L13)/2
 176 0073 B8       		.byte	(.L27-.L13)/2
 177 0074 B8       		.byte	(.L27-.L13)/2
 178 0075 B8       		.byte	(.L27-.L13)/2
 179 0076 4F       		.byte	(.L21-.L13)/2
 180 0077 00       		.p2align 1
 181              	.L20:
 182              		.loc 1 216 0
 183 0078 C1F30743 		ubfx	r3, r1, #16, #8
 184              	.LVL16:
 185 007c 8DF80530 		strb	r3, [sp, #5]
 186              		.loc 1 217 0
 187 0080 C1F30723 		ubfx	r3, r1, #8, #8
 188 0084 8DF80630 		strb	r3, [sp, #6]
 189              		.loc 1 218 0
 190 0088 8DF80710 		strb	r1, [sp, #7]
 191              		.loc 1 219 0
 192 008c 0524     		movs	r4, #5
 193              	.LVL17:
 194              	.L22:
 195              		.loc 1 291 0
 196 008e 534B     		ldr	r3, .L31
 197 0090 1B78     		ldrb	r3, [r3]	@ zero_extendqisi2
 198 0092 002B     		cmp	r3, #0
 199 0094 40F09B80 		bne	.L25
 200              		.loc 1 292 0
 201 0098 651E     		subs	r5, r4, #1
 202 009a 2A46     		mov	r2, r5
 203 009c 01A9     		add	r1, sp, #4
 204              	.LVL18:
 205 009e 7F20     		movs	r0, #127
 206 00a0 FFF7B6FF 		bl	crc7
 207              	.LVL19:
 208 00a4 4000     		lsls	r0, r0, #1
 209 00a6 04AB     		add	r3, sp, #16
 210 00a8 1D44     		add	r5, r5, r3
 211 00aa 05F80C0C 		strb	r0, [r5, #-12]
 212              	.L26:
 213              	.LVL20:
 214              		.loc 1 296 0
 215 00ae 2146     		mov	r1, r4
 216 00b0 01A8     		add	r0, sp, #4
 217 00b2 FFF7BDFF 		bl	nmi_spi_write
 218              	.LVL21:
 219 00b6 0028     		cmp	r0, #0
 220 00b8 00F08C80 		beq	.L30
 221              		.loc 1 298 0
 222 00bc 0020     		movs	r0, #0
 223              	.LVL22:
 224              	.L11:
 225              		.loc 1 303 0
 226 00be 05B0     		add	sp, sp, #20
 227              		.cfi_remember_state
ARM GAS  C:\Users\RAKIBU~1\AppData\Local\Temp\ccZ9ut5E.s 			page 5


 228              		.cfi_def_cfa_offset 12
 229              		@ sp needed
 230 00c0 30BD     		pop	{r4, r5, pc}
 231              	.LVL23:
 232              	.L15:
 233              		.cfi_restore_state
 234              		.loc 1 222 0
 235 00c2 C1F30723 		ubfx	r3, r1, #8, #8
 236              	.LVL24:
 237 00c6 8DF80530 		strb	r3, [sp, #5]
 238              		.loc 1 223 0
 239 00ca 1CB1     		cbz	r4, .L23
 240              		.loc 1 223 0 is_stmt 0 discriminator 1
 241 00cc 63F07F03 		orn	r3, r3, #127
 242 00d0 8DF80530 		strb	r3, [sp, #5]
 243              	.L23:
 244              		.loc 1 224 0 is_stmt 1
 245 00d4 8DF80610 		strb	r1, [sp, #6]
 246              		.loc 1 225 0
 247 00d8 0023     		movs	r3, #0
 248 00da 8DF80730 		strb	r3, [sp, #7]
 249              		.loc 1 226 0
 250 00de 0524     		movs	r4, #5
 251 00e0 D5E7     		b	.L22
 252              	.LVL25:
 253              	.L16:
 254              		.loc 1 229 0
 255 00e2 0023     		movs	r3, #0
 256              	.LVL26:
 257 00e4 8DF80530 		strb	r3, [sp, #5]
 258              		.loc 1 230 0
 259 00e8 8DF80630 		strb	r3, [sp, #6]
 260              		.loc 1 231 0
 261 00ec 8DF80730 		strb	r3, [sp, #7]
 262              		.loc 1 232 0
 263 00f0 0524     		movs	r4, #5
 264 00f2 CCE7     		b	.L22
 265              	.LVL27:
 266              	.L17:
 267              		.loc 1 235 0
 268 00f4 0023     		movs	r3, #0
 269              	.LVL28:
 270 00f6 8DF80530 		strb	r3, [sp, #5]
 271              		.loc 1 236 0
 272 00fa 8DF80630 		strb	r3, [sp, #6]
 273              		.loc 1 237 0
 274 00fe 8DF80730 		strb	r3, [sp, #7]
 275              		.loc 1 238 0
 276 0102 0524     		movs	r4, #5
 277 0104 C3E7     		b	.L22
 278              	.LVL29:
 279              	.L21:
 280              		.loc 1 241 0
 281 0106 FF23     		movs	r3, #255
 282              	.LVL30:
 283 0108 8DF80530 		strb	r3, [sp, #5]
 284              		.loc 1 242 0
ARM GAS  C:\Users\RAKIBU~1\AppData\Local\Temp\ccZ9ut5E.s 			page 6


 285 010c 8DF80630 		strb	r3, [sp, #6]
 286              		.loc 1 243 0
 287 0110 8DF80730 		strb	r3, [sp, #7]
 288              		.loc 1 244 0
 289 0114 0524     		movs	r4, #5
 290 0116 BAE7     		b	.L22
 291              	.LVL31:
 292              	.L12:
 293              		.loc 1 248 0
 294 0118 C1F30742 		ubfx	r2, r1, #16, #8
 295              	.LVL32:
 296 011c 8DF80520 		strb	r2, [sp, #5]
 297              		.loc 1 249 0
 298 0120 C1F30722 		ubfx	r2, r1, #8, #8
 299 0124 8DF80620 		strb	r2, [sp, #6]
 300              		.loc 1 250 0
 301 0128 8DF80710 		strb	r1, [sp, #7]
 302              		.loc 1 251 0
 303 012c C3F30722 		ubfx	r2, r3, #8, #8
 304 0130 8DF80820 		strb	r2, [sp, #8]
 305              		.loc 1 252 0
 306 0134 8DF80930 		strb	r3, [sp, #9]
 307              	.LVL33:
 308              		.loc 1 253 0
 309 0138 0724     		movs	r4, #7
 310 013a A8E7     		b	.L22
 311              	.LVL34:
 312              	.L18:
 313              		.loc 1 257 0
 314 013c C1F30742 		ubfx	r2, r1, #16, #8
 315              	.LVL35:
 316 0140 8DF80520 		strb	r2, [sp, #5]
 317              		.loc 1 258 0
 318 0144 C1F30722 		ubfx	r2, r1, #8, #8
 319 0148 8DF80620 		strb	r2, [sp, #6]
 320              		.loc 1 259 0
 321 014c 8DF80710 		strb	r1, [sp, #7]
 322              		.loc 1 260 0
 323 0150 C3F30742 		ubfx	r2, r3, #16, #8
 324 0154 8DF80820 		strb	r2, [sp, #8]
 325              		.loc 1 261 0
 326 0158 C3F30722 		ubfx	r2, r3, #8, #8
 327 015c 8DF80920 		strb	r2, [sp, #9]
 328              		.loc 1 262 0
 329 0160 8DF80A30 		strb	r3, [sp, #10]
 330              	.LVL36:
 331              		.loc 1 263 0
 332 0164 0824     		movs	r4, #8
 333 0166 92E7     		b	.L22
 334              	.LVL37:
 335              	.L14:
 336              		.loc 1 266 0
 337 0168 C1F30723 		ubfx	r3, r1, #8, #8
 338              	.LVL38:
 339 016c 8DF80530 		strb	r3, [sp, #5]
 340              		.loc 1 267 0
 341 0170 1CB1     		cbz	r4, .L24
ARM GAS  C:\Users\RAKIBU~1\AppData\Local\Temp\ccZ9ut5E.s 			page 7


 342              		.loc 1 267 0 is_stmt 0 discriminator 1
 343 0172 63F07F03 		orn	r3, r3, #127
 344 0176 8DF80530 		strb	r3, [sp, #5]
 345              	.L24:
 346              		.loc 1 268 0 is_stmt 1
 347 017a 8DF80610 		strb	r1, [sp, #6]
 348              		.loc 1 269 0
 349 017e 130E     		lsrs	r3, r2, #24
 350 0180 8DF80730 		strb	r3, [sp, #7]
 351              		.loc 1 270 0
 352 0184 C2F30743 		ubfx	r3, r2, #16, #8
 353 0188 8DF80830 		strb	r3, [sp, #8]
 354              		.loc 1 271 0
 355 018c C2F30723 		ubfx	r3, r2, #8, #8
 356 0190 8DF80930 		strb	r3, [sp, #9]
 357              		.loc 1 272 0
 358 0194 8DF80A20 		strb	r2, [sp, #10]
 359              	.LVL39:
 360              		.loc 1 273 0
 361 0198 0824     		movs	r4, #8
 362 019a 78E7     		b	.L22
 363              	.LVL40:
 364              	.L19:
 365              		.loc 1 276 0
 366 019c C1F30743 		ubfx	r3, r1, #16, #8
 367              	.LVL41:
 368 01a0 8DF80530 		strb	r3, [sp, #5]
 369              		.loc 1 277 0
 370 01a4 C1F30723 		ubfx	r3, r1, #8, #8
 371 01a8 8DF80630 		strb	r3, [sp, #6]
 372              		.loc 1 278 0
 373 01ac 8DF80710 		strb	r1, [sp, #7]
 374              		.loc 1 279 0
 375 01b0 130E     		lsrs	r3, r2, #24
 376 01b2 8DF80830 		strb	r3, [sp, #8]
 377              		.loc 1 280 0
 378 01b6 C2F30743 		ubfx	r3, r2, #16, #8
 379 01ba 8DF80930 		strb	r3, [sp, #9]
 380              		.loc 1 281 0
 381 01be C2F30723 		ubfx	r3, r2, #8, #8
 382 01c2 8DF80A30 		strb	r3, [sp, #10]
 383              		.loc 1 282 0
 384 01c6 8DF80B20 		strb	r2, [sp, #11]
 385              	.LVL42:
 386              		.loc 1 283 0
 387 01ca 0924     		movs	r4, #9
 388 01cc 5FE7     		b	.L22
 389              	.LVL43:
 390              	.L25:
 391              		.loc 1 294 0
 392 01ce 013C     		subs	r4, r4, #1
 393 01d0 E4B2     		uxtb	r4, r4
 394              	.LVL44:
 395 01d2 6CE7     		b	.L26
 396              	.LVL45:
 397              	.L30:
 398              		.loc 1 296 0
ARM GAS  C:\Users\RAKIBU~1\AppData\Local\Temp\ccZ9ut5E.s 			page 8


 399 01d4 0120     		movs	r0, #1
 400 01d6 72E7     		b	.L11
 401              	.LVL46:
 402              	.L27:
 403              		.loc 1 286 0
 404 01d8 0020     		movs	r0, #0
 405 01da 70E7     		b	.L11
 406              	.L32:
 407              		.align	2
 408              	.L31:
 409 01dc 00000000 		.word	.LANCHOR1
 410              		.cfi_endproc
 411              	.LFE332:
 412              		.size	spi_cmd, .-spi_cmd
 413              		.align	1
 414              		.p2align 4,,15
 415              		.syntax unified
 416              		.thumb
 417              		.thumb_func
 418              		.fpu softvfp
 419              		.type	spi_data_write, %function
 420              	spi_data_write:
 421              	.LFB336:
 422              		.loc 1 816 0
 423              		.cfi_startproc
 424              		@ args = 0, pretend = 0, frame = 8
 425              		@ frame_needed = 0, uses_anonymous_args = 0
 426              	.LVL47:
 427 01e0 2DE9F043 		push	{r4, r5, r6, r7, r8, r9, lr}
 428              		.cfi_def_cfa_offset 28
 429              		.cfi_offset 4, -28
 430              		.cfi_offset 5, -24
 431              		.cfi_offset 6, -20
 432              		.cfi_offset 7, -16
 433              		.cfi_offset 8, -12
 434              		.cfi_offset 9, -8
 435              		.cfi_offset 14, -4
 436 01e4 83B0     		sub	sp, sp, #12
 437              		.cfi_def_cfa_offset 40
 438 01e6 0746     		mov	r7, r0
 439 01e8 0E46     		mov	r6, r1
 440              	.LVL48:
 441              		.loc 1 820 0
 442 01ea 0024     		movs	r4, #0
 443 01ec ADF80440 		strh	r4, [sp, #4]	@ movhi
 444              	.LVL49:
 445 01f0 1DE0     		b	.L39
 446              	.LVL50:
 447              	.L40:
 448              		.loc 1 829 0
 449 01f2 3546     		mov	r5, r6
 450 01f4 20E0     		b	.L34
 451              	.LVL51:
 452              	.L35:
 453              		.loc 1 843 0
 454 01f6 B6F5005F 		cmp	r6, #8192
 455 01fa 26D8     		bhi	.L42
ARM GAS  C:\Users\RAKIBU~1\AppData\Local\Temp\ccZ9ut5E.s 			page 9


 456              		.loc 1 844 0
 457 01fc 0323     		movs	r3, #3
 458              	.L36:
 459              	.LVL52:
 460              		.loc 1 848 0
 461 01fe 63F00F03 		orn	r3, r3, #15
 462              	.LVL53:
 463 0202 02A8     		add	r0, sp, #8
 464 0204 00F8013D 		strb	r3, [r0, #-1]!
 465              		.loc 1 849 0
 466 0208 0121     		movs	r1, #1
 467 020a FFF711FF 		bl	nmi_spi_write
 468              	.LVL54:
 469 020e 8046     		mov	r8, r0
 470 0210 40BB     		cbnz	r0, .L43
 471              		.loc 1 858 0
 472 0212 2946     		mov	r1, r5
 473 0214 3819     		adds	r0, r7, r4
 474 0216 FFF70BFF 		bl	nmi_spi_write
 475              	.LVL55:
 476 021a 8146     		mov	r9, r0
 477 021c 20BB     		cbnz	r0, .L37
 478              		.loc 1 867 0
 479 021e 144B     		ldr	r3, .L48
 480 0220 1B78     		ldrb	r3, [r3]	@ zero_extendqisi2
 481 0222 A3B1     		cbz	r3, .L46
 482              	.L38:
 483              		.loc 1 875 0
 484 0224 2C44     		add	r4, r4, r5
 485              	.LVL56:
 486 0226 24B2     		sxth	r4, r4
 487              	.LVL57:
 488              		.loc 1 876 0
 489 0228 751B     		subs	r5, r6, r5
 490              	.LVL58:
 491 022a AEB2     		uxth	r6, r5
 492              	.LVL59:
 493              		.loc 1 877 0
 494 022c BEB1     		cbz	r6, .L47
 495              	.LVL60:
 496              	.L39:
 497              		.loc 1 828 0
 498 022e B6F5005F 		cmp	r6, #8192
 499 0232 DED9     		bls	.L40
 500              		.loc 1 831 0
 501 0234 4FF40055 		mov	r5, #8192
 502              	.L34:
 503              	.LVL61:
 504              		.loc 1 837 0
 505 0238 002C     		cmp	r4, #0
 506 023a DCD1     		bne	.L35
 507              		.loc 1 838 0
 508 023c B6F5005F 		cmp	r6, #8192
 509 0240 01D8     		bhi	.L41
 510              		.loc 1 839 0
 511 0242 0323     		movs	r3, #3
 512 0244 DBE7     		b	.L36
ARM GAS  C:\Users\RAKIBU~1\AppData\Local\Temp\ccZ9ut5E.s 			page 10


 513              	.L41:
 514              		.loc 1 841 0
 515 0246 0123     		movs	r3, #1
 516 0248 D9E7     		b	.L36
 517              	.L42:
 518              		.loc 1 846 0
 519 024a 0223     		movs	r3, #2
 520 024c D7E7     		b	.L36
 521              	.L46:
 522              		.loc 1 868 0
 523 024e 0221     		movs	r1, #2
 524 0250 01A8     		add	r0, sp, #4
 525 0252 FFF7EDFE 		bl	nmi_spi_write
 526              	.LVL62:
 527 0256 0028     		cmp	r0, #0
 528 0258 E4D0     		beq	.L38
 529              		.loc 1 870 0
 530 025a C846     		mov	r8, r9
 531 025c 04E0     		b	.L37
 532              	.LVL63:
 533              	.L47:
 534              		.loc 1 819 0
 535 025e 4FF00108 		mov	r8, #1
 536 0262 01E0     		b	.L37
 537              	.LVL64:
 538              	.L43:
 539              		.loc 1 851 0
 540 0264 4FF00008 		mov	r8, #0
 541              	.LVL65:
 542              	.L37:
 543              		.loc 1 881 0
 544 0268 4046     		mov	r0, r8
 545 026a 03B0     		add	sp, sp, #12
 546              		.cfi_def_cfa_offset 28
 547              		@ sp needed
 548 026c BDE8F083 		pop	{r4, r5, r6, r7, r8, r9, pc}
 549              	.LVL66:
 550              	.L49:
 551              		.align	2
 552              	.L48:
 553 0270 00000000 		.word	.LANCHOR1
 554              		.cfi_endproc
 555              	.LFE336:
 556              		.size	spi_data_write, .-spi_data_write
 557              		.align	1
 558 0274 AFF30080 		.p2align 4,,15
 558      AFF30080 
 558      AFF30080 
 559              		.syntax unified
 560              		.thumb
 561              		.thumb_func
 562              		.fpu softvfp
 563              		.type	nmi_spi_read, %function
 564              	nmi_spi_read:
 565              	.LFB328:
 566              		.loc 1 102 0
 567              		.cfi_startproc
ARM GAS  C:\Users\RAKIBU~1\AppData\Local\Temp\ccZ9ut5E.s 			page 11


 568              		@ args = 0, pretend = 0, frame = 16
 569              		@ frame_needed = 0, uses_anonymous_args = 0
 570              	.LVL67:
 571 0280 00B5     		push	{lr}
 572              		.cfi_def_cfa_offset 4
 573              		.cfi_offset 14, -4
 574 0282 85B0     		sub	sp, sp, #20
 575              		.cfi_def_cfa_offset 24
 576              		.loc 1 104 0
 577 0284 0023     		movs	r3, #0
 578 0286 0193     		str	r3, [sp, #4]
 579              		.loc 1 105 0
 580 0288 0290     		str	r0, [sp, #8]
 581              		.loc 1 106 0
 582 028a ADF80C10 		strh	r1, [sp, #12]	@ movhi
 583              		.loc 1 107 0
 584 028e 01A9     		add	r1, sp, #4
 585              	.LVL68:
 586 0290 0320     		movs	r0, #3
 587              	.LVL69:
 588 0292 FFF7FEFF 		bl	nm_bus_ioctl
 589              	.LVL70:
 590              		.loc 1 108 0
 591 0296 05B0     		add	sp, sp, #20
 592              		.cfi_def_cfa_offset 4
 593              		@ sp needed
 594 0298 5DF804FB 		ldr	pc, [sp], #4
 595              		.cfi_endproc
 596              	.LFE328:
 597              		.size	nmi_spi_read, .-nmi_spi_read
 598              		.align	1
 599 029c AFF30080 		.p2align 4,,15
 600              		.syntax unified
 601              		.thumb
 602              		.thumb_func
 603              		.fpu softvfp
 604              		.type	spi_cmd_rsp, %function
 605              	spi_cmd_rsp:
 606              	.LFB334:
 607              		.loc 1 334 0
 608              		.cfi_startproc
 609              		@ args = 0, pretend = 0, frame = 8
 610              		@ frame_needed = 0, uses_anonymous_args = 0
 611              	.LVL71:
 612 02a0 70B5     		push	{r4, r5, r6, lr}
 613              		.cfi_def_cfa_offset 16
 614              		.cfi_offset 4, -16
 615              		.cfi_offset 5, -12
 616              		.cfi_offset 6, -8
 617              		.cfi_offset 14, -4
 618 02a2 82B0     		sub	sp, sp, #8
 619              		.cfi_def_cfa_offset 24
 620 02a4 0646     		mov	r6, r0
 621              	.LVL72:
 622              		.loc 1 342 0
 623 02a6 CF28     		cmp	r0, #207
 624 02a8 03D0     		beq	.L53
ARM GAS  C:\Users\RAKIBU~1\AppData\Local\Temp\ccZ9ut5E.s 			page 12


 625              		.loc 1 342 0 is_stmt 0 discriminator 1
 626 02aa C528     		cmp	r0, #197
 627 02ac 01D0     		beq	.L53
 628              		.loc 1 343 0 is_stmt 1
 629 02ae C628     		cmp	r0, #198
 630 02b0 05D1     		bne	.L54
 631              	.L53:
 632              		.loc 1 345 0
 633 02b2 0121     		movs	r1, #1
 634 02b4 0DF10700 		add	r0, sp, #7
 635              	.LVL73:
 636 02b8 FFF7E2FF 		bl	nmi_spi_read
 637              	.LVL74:
 638 02bc 28BB     		cbnz	r0, .L59
 639              	.L54:
 640              		.loc 1 334 0
 641 02be 0A24     		movs	r4, #10
 642 02c0 00E0     		b	.L57
 643              	.LVL75:
 644              	.L62:
 645              		.loc 1 360 0
 646 02c2 1C46     		mov	r4, r3
 647              	.LVL76:
 648              	.L57:
 649              		.loc 1 355 0
 650 02c4 0121     		movs	r1, #1
 651 02c6 0DF10700 		add	r0, sp, #7
 652 02ca FFF7D9FF 		bl	nmi_spi_read
 653              	.LVL77:
 654 02ce 0546     		mov	r5, r0
 655 02d0 F8B9     		cbnz	r0, .L60
 656              		.loc 1 360 0
 657 02d2 9DF80730 		ldrb	r3, [sp, #7]	@ zero_extendqisi2
 658 02d6 B342     		cmp	r3, r6
 659 02d8 05D0     		beq	.L61
 660              		.loc 1 360 0 is_stmt 0 discriminator 1
 661 02da 631E     		subs	r3, r4, #1
 662 02dc 5BB2     		sxtb	r3, r3
 663              	.LVL78:
 664 02de 002C     		cmp	r4, #0
 665 02e0 EFDC     		bgt	.L62
 666 02e2 0A24     		movs	r4, #10
 667 02e4 02E0     		b	.L58
 668              	.LVL79:
 669              	.L61:
 670 02e6 0A24     		movs	r4, #10
 671              	.LVL80:
 672 02e8 00E0     		b	.L58
 673              	.LVL81:
 674              	.L64:
 675              		.loc 1 374 0 is_stmt 1
 676 02ea 1C46     		mov	r4, r3
 677              	.LVL82:
 678              	.L58:
 679              		.loc 1 369 0
 680 02ec 0121     		movs	r1, #1
 681 02ee 0DF10700 		add	r0, sp, #7
ARM GAS  C:\Users\RAKIBU~1\AppData\Local\Temp\ccZ9ut5E.s 			page 13


 682 02f2 FFF7C5FF 		bl	nmi_spi_read
 683              	.LVL83:
 684 02f6 48B9     		cbnz	r0, .L55
 685              		.loc 1 374 0
 686 02f8 9DF80730 		ldrb	r3, [sp, #7]	@ zero_extendqisi2
 687 02fc 5BB1     		cbz	r3, .L63
 688              		.loc 1 374 0 is_stmt 0 discriminator 1
 689 02fe 631E     		subs	r3, r4, #1
 690 0300 5BB2     		sxtb	r3, r3
 691              	.LVL84:
 692 0302 002C     		cmp	r4, #0
 693 0304 F1DC     		bgt	.L64
 694              		.loc 1 336 0 is_stmt 1
 695 0306 0125     		movs	r5, #1
 696              		.loc 1 376 0
 697 0308 00E0     		b	.L55
 698              	.LVL85:
 699              	.L59:
 700              		.loc 1 346 0
 701 030a 0025     		movs	r5, #0
 702              	.L55:
 703              	.LVL86:
 704              		.loc 1 379 0
 705 030c 2846     		mov	r0, r5
 706 030e 02B0     		add	sp, sp, #8
 707              		.cfi_remember_state
 708              		.cfi_def_cfa_offset 16
 709              		@ sp needed
 710 0310 70BD     		pop	{r4, r5, r6, pc}
 711              	.LVL87:
 712              	.L60:
 713              		.cfi_restore_state
 714              		.loc 1 357 0
 715 0312 0025     		movs	r5, #0
 716 0314 FAE7     		b	.L55
 717              	.L63:
 718              		.loc 1 336 0
 719 0316 0125     		movs	r5, #1
 720 0318 F8E7     		b	.L55
 721              		.cfi_endproc
 722              	.LFE334:
 723              		.size	spi_cmd_rsp, .-spi_cmd_rsp
 724              		.align	1
 725 031a 00BFAFF3 		.p2align 4,,15
 725      0080
 726              		.syntax unified
 727              		.thumb
 728              		.thumb_func
 729              		.fpu softvfp
 730              		.type	spi_data_read, %function
 731              	spi_data_read:
 732              	.LFB335:
 733              		.loc 1 747 0
 734              		.cfi_startproc
 735              		@ args = 0, pretend = 0, frame = 8
 736              		@ frame_needed = 0, uses_anonymous_args = 0
 737              	.LVL88:
ARM GAS  C:\Users\RAKIBU~1\AppData\Local\Temp\ccZ9ut5E.s 			page 14


 738 0320 2DE9F047 		push	{r4, r5, r6, r7, r8, r9, r10, lr}
 739              		.cfi_def_cfa_offset 32
 740              		.cfi_offset 4, -32
 741              		.cfi_offset 5, -28
 742              		.cfi_offset 6, -24
 743              		.cfi_offset 7, -20
 744              		.cfi_offset 8, -16
 745              		.cfi_offset 9, -12
 746              		.cfi_offset 10, -8
 747              		.cfi_offset 14, -4
 748 0324 82B0     		sub	sp, sp, #8
 749              		.cfi_def_cfa_offset 40
 750 0326 8146     		mov	r9, r0
 751 0328 0F46     		mov	r7, r1
 752 032a 9246     		mov	r10, r2
 753              	.LVL89:
 754              		.loc 1 749 0
 755 032c 4FF00108 		mov	r8, #1
 756              		.loc 1 756 0
 757 0330 0026     		movs	r6, #0
 758 0332 2BE0     		b	.L72
 759              	.LVL90:
 760              	.L73:
 761              		.loc 1 761 0
 762 0334 4FF40055 		mov	r5, #8192
 763 0338 2CE0     		b	.L67
 764              	.LVL91:
 765              	.L75:
 766              		.loc 1 775 0
 767 033a 1C46     		mov	r4, r3
 768              	.LVL92:
 769              	.L69:
 770              		.loc 1 768 0
 771 033c 0121     		movs	r1, #1
 772 033e 0DF10300 		add	r0, sp, #3
 773 0342 FFF79DFF 		bl	nmi_spi_read
 774              	.LVL93:
 775 0346 38BB     		cbnz	r0, .L74
 776              		.loc 1 773 0
 777 0348 9DF80330 		ldrb	r3, [sp, #3]	@ zero_extendqisi2
 778 034c 1B09     		lsrs	r3, r3, #4
 779 034e 0F2B     		cmp	r3, #15
 780 0350 04D0     		beq	.L68
 781              		.loc 1 775 0
 782 0352 631E     		subs	r3, r4, #1
 783 0354 1BB2     		sxth	r3, r3
 784              	.LVL94:
 785 0356 002C     		cmp	r4, #0
 786 0358 EFD1     		bne	.L75
 787 035a 1C46     		mov	r4, r3
 788              	.LVL95:
 789              	.L68:
 790              		.loc 1 777 0
 791 035c B8F1000F 		cmp	r8, #0
 792 0360 27D0     		beq	.L70
 793              		.loc 1 780 0
 794 0362 002C     		cmp	r4, #0
ARM GAS  C:\Users\RAKIBU~1\AppData\Local\Temp\ccZ9ut5E.s 			page 15


 795 0364 23DD     		ble	.L76
 796              		.loc 1 789 0
 797 0366 ADB2     		uxth	r5, r5
 798 0368 2946     		mov	r1, r5
 799 036a 09EB0600 		add	r0, r9, r6
 800 036e FFF787FF 		bl	nmi_spi_read
 801              	.LVL96:
 802 0372 0446     		mov	r4, r0
 803              	.LVL97:
 804 0374 08BB     		cbnz	r0, .L77
 805              		.loc 1 794 0
 806 0376 BAF1000F 		cmp	r10, #0
 807 037a 02D1     		bne	.L71
 808              		.loc 1 799 0
 809 037c 104B     		ldr	r3, .L81
 810 037e 1B78     		ldrb	r3, [r3]	@ zero_extendqisi2
 811 0380 6BB1     		cbz	r3, .L80
 812              	.L71:
 813              		.loc 1 807 0
 814 0382 2E44     		add	r6, r6, r5
 815              	.LVL98:
 816 0384 36B2     		sxth	r6, r6
 817              	.LVL99:
 818              		.loc 1 808 0
 819 0386 7D1B     		subs	r5, r7, r5
 820              	.LVL100:
 821 0388 AFB2     		uxth	r7, r5
 822              	.LVL101:
 823              		.loc 1 810 0
 824 038a 97B1     		cbz	r7, .L70
 825              	.LVL102:
 826              	.L72:
 827              		.loc 1 758 0
 828 038c B7F5005F 		cmp	r7, #8192
 829 0390 D0D8     		bhi	.L73
 830              		.loc 1 759 0
 831 0392 3DB2     		sxth	r5, r7
 832              	.LVL103:
 833              	.L67:
 834              		.loc 1 766 0
 835 0394 0A24     		movs	r4, #10
 836 0396 D1E7     		b	.L69
 837              	.LVL104:
 838              	.L74:
 839              		.loc 1 770 0
 840 0398 4FF00008 		mov	r8, #0
 841              	.LVL105:
 842 039c DEE7     		b	.L68
 843              	.LVL106:
 844              	.L80:
 845              		.loc 1 800 0
 846 039e 0221     		movs	r1, #2
 847 03a0 01A8     		add	r0, sp, #4
 848 03a2 FFF76DFF 		bl	nmi_spi_read
 849              	.LVL107:
 850 03a6 0028     		cmp	r0, #0
 851 03a8 EBD0     		beq	.L71
ARM GAS  C:\Users\RAKIBU~1\AppData\Local\Temp\ccZ9ut5E.s 			page 16


 852              		.loc 1 802 0
 853 03aa A046     		mov	r8, r4
 854              	.LVL108:
 855 03ac 01E0     		b	.L70
 856              	.LVL109:
 857              	.L76:
 858              		.loc 1 782 0
 859 03ae 4FF00008 		mov	r8, #0
 860              	.LVL110:
 861              	.L70:
 862              		.loc 1 813 0
 863 03b2 4046     		mov	r0, r8
 864 03b4 02B0     		add	sp, sp, #8
 865              		.cfi_remember_state
 866              		.cfi_def_cfa_offset 32
 867              		@ sp needed
 868 03b6 BDE8F087 		pop	{r4, r5, r6, r7, r8, r9, r10, pc}
 869              	.LVL111:
 870              	.L77:
 871              		.cfi_restore_state
 872              		.loc 1 791 0
 873 03ba 4FF00008 		mov	r8, #0
 874              	.LVL112:
 875 03be F8E7     		b	.L70
 876              	.L82:
 877              		.align	2
 878              	.L81:
 879 03c0 00000000 		.word	.LANCHOR1
 880              		.cfi_endproc
 881              	.LFE335:
 882              		.size	spi_data_read, .-spi_data_read
 883              		.align	1
 884 03c4 AFF30080 		.p2align 4,,15
 884      AFF30080 
 884      AFF30080 
 885              		.syntax unified
 886              		.thumb
 887              		.thumb_func
 888              		.fpu softvfp
 889              		.type	spi_data_rsp, %function
 890              	spi_data_rsp:
 891              	.LFB333:
 892              		.loc 1 306 0
 893              		.cfi_startproc
 894              		@ args = 0, pretend = 0, frame = 8
 895              		@ frame_needed = 0, uses_anonymous_args = 0
 896              	.LVL113:
 897 03d0 10B5     		push	{r4, lr}
 898              		.cfi_def_cfa_offset 8
 899              		.cfi_offset 4, -8
 900              		.cfi_offset 14, -4
 901 03d2 82B0     		sub	sp, sp, #8
 902              		.cfi_def_cfa_offset 16
 903              	.LVL114:
 904              		.loc 1 311 0
 905 03d4 0E4B     		ldr	r3, .L89
 906 03d6 1B78     		ldrb	r3, [r3]	@ zero_extendqisi2
ARM GAS  C:\Users\RAKIBU~1\AppData\Local\Temp\ccZ9ut5E.s 			page 17


 907 03d8 A3B9     		cbnz	r3, .L86
 908              		.loc 1 312 0
 909 03da 0224     		movs	r4, #2
 910              	.L84:
 911              	.LVL115:
 912              		.loc 1 316 0
 913 03dc 2146     		mov	r1, r4
 914 03de 01A8     		add	r0, sp, #4
 915              	.LVL116:
 916 03e0 FFF74EFF 		bl	nmi_spi_read
 917              	.LVL117:
 918 03e4 0346     		mov	r3, r0
 919 03e6 78B9     		cbnz	r0, .L87
 920              		.loc 1 322 0
 921 03e8 621E     		subs	r2, r4, #1
 922 03ea 02A9     		add	r1, sp, #8
 923 03ec 0A44     		add	r2, r2, r1
 924 03ee 12F8042C 		ldrb	r2, [r2, #-4]	@ zero_extendqisi2
 925 03f2 52B9     		cbnz	r2, .L85
 926              		.loc 1 322 0 is_stmt 0 discriminator 1
 927 03f4 023C     		subs	r4, r4, #2
 928              	.LVL118:
 929 03f6 0C44     		add	r4, r4, r1
 930 03f8 14F8042C 		ldrb	r2, [r4, #-4]	@ zero_extendqisi2
 931 03fc C32A     		cmp	r2, #195
 932 03fe 04D1     		bne	.L85
 933              		.loc 1 309 0 is_stmt 1
 934 0400 0123     		movs	r3, #1
 935 0402 02E0     		b	.L85
 936              	.LVL119:
 937              	.L86:
 938              		.loc 1 314 0
 939 0404 0324     		movs	r4, #3
 940 0406 E9E7     		b	.L84
 941              	.LVL120:
 942              	.L87:
 943              		.loc 1 318 0
 944 0408 0023     		movs	r3, #0
 945              	.LVL121:
 946              	.L85:
 947              		.loc 1 331 0
 948 040a 1846     		mov	r0, r3
 949 040c 02B0     		add	sp, sp, #8
 950              		.cfi_def_cfa_offset 8
 951              		@ sp needed
 952 040e 10BD     		pop	{r4, pc}
 953              	.L90:
 954              		.align	2
 955              	.L89:
 956 0410 00000000 		.word	.LANCHOR1
 957              		.cfi_endproc
 958              	.LFE333:
 959              		.size	spi_data_rsp, .-spi_data_rsp
 960              		.align	1
 961 0414 AFF30080 		.p2align 4,,15
 961      AFF30080 
 961      AFF30080 
ARM GAS  C:\Users\RAKIBU~1\AppData\Local\Temp\ccZ9ut5E.s 			page 18


 962              		.syntax unified
 963              		.thumb
 964              		.thumb_func
 965              		.fpu softvfp
 966              		.type	spi_write_reg, %function
 967              	spi_write_reg:
 968              	.LFB337:
 969              		.loc 1 896 0
 970              		.cfi_startproc
 971              		@ args = 0, pretend = 0, frame = 0
 972              		@ frame_needed = 0, uses_anonymous_args = 0
 973              	.LVL122:
 974 0420 2DE9F041 		push	{r4, r5, r6, r7, r8, lr}
 975              		.cfi_def_cfa_offset 24
 976              		.cfi_offset 4, -24
 977              		.cfi_offset 5, -20
 978              		.cfi_offset 6, -16
 979              		.cfi_offset 7, -12
 980              		.cfi_offset 8, -8
 981              		.cfi_offset 14, -4
 982 0424 82B0     		sub	sp, sp, #8
 983              		.cfi_def_cfa_offset 32
 984 0426 0746     		mov	r7, r0
 985 0428 8846     		mov	r8, r1
 986              	.LVL123:
 987              		.loc 1 897 0
 988 042a 0A24     		movs	r4, #10
 989 042c 21E0     		b	.L92
 990              	.LVL124:
 991              	.L96:
 992              		.loc 1 914 0
 993 042e 0023     		movs	r3, #0
 994              		.loc 1 913 0
 995 0430 C926     		movs	r6, #201
 996              	.L93:
 997              	.LVL125:
 998              		.loc 1 918 0
 999 0432 0093     		str	r3, [sp]
 1000 0434 0423     		movs	r3, #4
 1001              	.LVL126:
 1002 0436 4246     		mov	r2, r8
 1003 0438 3946     		mov	r1, r7
 1004 043a 3046     		mov	r0, r6
 1005 043c FFF708FE 		bl	spi_cmd
 1006              	.LVL127:
 1007 0440 0546     		mov	r5, r0
 1008              	.LVL128:
 1009              		.loc 1 919 0
 1010 0442 0128     		cmp	r0, #1
 1011 0444 1AD0     		beq	.L98
 1012              	.LVL129:
 1013              	.L94:
 1014              		.loc 1 940 0
 1015 0446 012D     		cmp	r5, #1
 1016 0448 1DD0     		beq	.L95
 1017              		.loc 1 942 0
 1018 044a 0120     		movs	r0, #1
ARM GAS  C:\Users\RAKIBU~1\AppData\Local\Temp\ccZ9ut5E.s 			page 19


 1019 044c FFF7FEFF 		bl	nm_bsp_sleep
 1020              	.LVL130:
 1021              		.loc 1 943 0
 1022 0450 0021     		movs	r1, #0
 1023 0452 0091     		str	r1, [sp]
 1024 0454 0B46     		mov	r3, r1
 1025 0456 0A46     		mov	r2, r1
 1026 0458 CF20     		movs	r0, #207
 1027 045a FFF7F9FD 		bl	spi_cmd
 1028              	.LVL131:
 1029              		.loc 1 944 0
 1030 045e CF20     		movs	r0, #207
 1031 0460 FFF71EFF 		bl	spi_cmd_rsp
 1032              	.LVL132:
 1033              		.loc 1 946 0
 1034 0464 0120     		movs	r0, #1
 1035 0466 FFF7FEFF 		bl	nm_bsp_sleep
 1036              	.LVL133:
 1037              		.loc 1 947 0
 1038 046a 631E     		subs	r3, r4, #1
 1039              	.LVL134:
 1040              		.loc 1 948 0
 1041 046c 13F0FF04 		ands	r4, r3, #255
 1042 0470 09D0     		beq	.L95
 1043              	.LVL135:
 1044              	.L92:
 1045              		.loc 1 903 0
 1046 0472 302F     		cmp	r7, #48
 1047 0474 DBD8     		bhi	.L96
 1048              		.loc 1 909 0
 1049 0476 0123     		movs	r3, #1
 1050              		.loc 1 908 0
 1051 0478 C326     		movs	r6, #195
 1052 047a DAE7     		b	.L93
 1053              	.LVL136:
 1054              	.L98:
 1055              		.loc 1 924 0
 1056 047c 3046     		mov	r0, r6
 1057              	.LVL137:
 1058 047e FFF70FFF 		bl	spi_cmd_rsp
 1059              	.LVL138:
 1060 0482 0546     		mov	r5, r0
 1061              	.LVL139:
 1062              		.loc 1 939 0
 1063 0484 DFE7     		b	.L94
 1064              	.LVL140:
 1065              	.L95:
 1066              		.loc 1 952 0
 1067 0486 2846     		mov	r0, r5
 1068 0488 02B0     		add	sp, sp, #8
 1069              		.cfi_def_cfa_offset 24
 1070              		@ sp needed
 1071 048a BDE8F081 		pop	{r4, r5, r6, r7, r8, pc}
 1072              		.cfi_endproc
 1073              	.LFE337:
 1074              		.size	spi_write_reg, .-spi_write_reg
 1075              		.align	1
ARM GAS  C:\Users\RAKIBU~1\AppData\Local\Temp\ccZ9ut5E.s 			page 20


 1076 048e 00BF     		.p2align 4,,15
 1077              		.syntax unified
 1078              		.thumb
 1079              		.thumb_func
 1080              		.fpu softvfp
 1081              		.type	spi_read_reg, %function
 1082              	spi_read_reg:
 1083              	.LFB339:
 1084              		.loc 1 1023 0
 1085              		.cfi_startproc
 1086              		@ args = 0, pretend = 0, frame = 8
 1087              		@ frame_needed = 0, uses_anonymous_args = 0
 1088              	.LVL141:
 1089 0490 2DE9F043 		push	{r4, r5, r6, r7, r8, r9, lr}
 1090              		.cfi_def_cfa_offset 28
 1091              		.cfi_offset 4, -28
 1092              		.cfi_offset 5, -24
 1093              		.cfi_offset 6, -20
 1094              		.cfi_offset 7, -16
 1095              		.cfi_offset 8, -12
 1096              		.cfi_offset 9, -8
 1097              		.cfi_offset 14, -4
 1098 0494 85B0     		sub	sp, sp, #20
 1099              		.cfi_def_cfa_offset 48
 1100 0496 0746     		mov	r7, r0
 1101 0498 8946     		mov	r9, r1
 1102              	.LVL142:
 1103              		.loc 1 1024 0
 1104 049a 0A24     		movs	r4, #10
 1105 049c 23E0     		b	.L100
 1106              	.LVL143:
 1107              	.L104:
 1108              		.loc 1 1043 0
 1109 049e 4FF00008 		mov	r8, #0
 1110              		.loc 1 1042 0
 1111 04a2 CA26     		movs	r6, #202
 1112              	.L101:
 1113              	.LVL144:
 1114              		.loc 1 1047 0
 1115 04a4 CDF80080 		str	r8, [sp]
 1116 04a8 0423     		movs	r3, #4
 1117 04aa 0022     		movs	r2, #0
 1118 04ac 3946     		mov	r1, r7
 1119 04ae 3046     		mov	r0, r6
 1120 04b0 FFF7CEFD 		bl	spi_cmd
 1121              	.LVL145:
 1122 04b4 0546     		mov	r5, r0
 1123              	.LVL146:
 1124              		.loc 1 1048 0
 1125 04b6 0128     		cmp	r0, #1
 1126 04b8 1BD0     		beq	.L106
 1127              	.L102:
 1128              	.LVL147:
 1129              		.loc 1 1080 0
 1130 04ba 012D     		cmp	r5, #1
 1131 04bc 38D0     		beq	.L103
 1132              		.loc 1 1083 0
ARM GAS  C:\Users\RAKIBU~1\AppData\Local\Temp\ccZ9ut5E.s 			page 21


 1133 04be 0120     		movs	r0, #1
 1134 04c0 FFF7FEFF 		bl	nm_bsp_sleep
 1135              	.LVL148:
 1136              		.loc 1 1084 0
 1137 04c4 0021     		movs	r1, #0
 1138 04c6 0091     		str	r1, [sp]
 1139 04c8 0B46     		mov	r3, r1
 1140 04ca 0A46     		mov	r2, r1
 1141 04cc CF20     		movs	r0, #207
 1142 04ce FFF7BFFD 		bl	spi_cmd
 1143              	.LVL149:
 1144              		.loc 1 1085 0
 1145 04d2 CF20     		movs	r0, #207
 1146 04d4 FFF7E4FE 		bl	spi_cmd_rsp
 1147              	.LVL150:
 1148              		.loc 1 1087 0
 1149 04d8 0120     		movs	r0, #1
 1150 04da FFF7FEFF 		bl	nm_bsp_sleep
 1151              	.LVL151:
 1152              		.loc 1 1088 0
 1153 04de 631E     		subs	r3, r4, #1
 1154              	.LVL152:
 1155              		.loc 1 1089 0
 1156 04e0 13F0FF04 		ands	r4, r3, #255
 1157 04e4 24D0     		beq	.L103
 1158              	.LVL153:
 1159              	.L100:
 1160              		.loc 1 1032 0
 1161 04e6 FF2F     		cmp	r7, #255
 1162 04e8 D9D8     		bhi	.L104
 1163              		.loc 1 1038 0
 1164 04ea 4FF00108 		mov	r8, #1
 1165              		.loc 1 1037 0
 1166 04ee C426     		movs	r6, #196
 1167 04f0 D8E7     		b	.L101
 1168              	.LVL154:
 1169              	.L106:
 1170              		.loc 1 1053 0
 1171 04f2 3046     		mov	r0, r6
 1172              	.LVL155:
 1173 04f4 FFF7D4FE 		bl	spi_cmd_rsp
 1174              	.LVL156:
 1175 04f8 0546     		mov	r5, r0
 1176              	.LVL157:
 1177              		.loc 1 1054 0
 1178 04fa 0128     		cmp	r0, #1
 1179 04fc DDD1     		bne	.L102
 1180              		.loc 1 1060 0
 1181 04fe 4246     		mov	r2, r8
 1182 0500 0421     		movs	r1, #4
 1183 0502 03A8     		add	r0, sp, #12
 1184              	.LVL158:
 1185 0504 FFF70CFF 		bl	spi_data_read
 1186              	.LVL159:
 1187 0508 0546     		mov	r5, r0
 1188              	.LVL160:
 1189              		.loc 1 1061 0
ARM GAS  C:\Users\RAKIBU~1\AppData\Local\Temp\ccZ9ut5E.s 			page 22


 1190 050a 0128     		cmp	r0, #1
 1191 050c D5D1     		bne	.L102
 1192              		.loc 1 1074 0
 1193 050e 9DF80C30 		ldrb	r3, [sp, #12]	@ zero_extendqisi2
 1194              		.loc 1 1075 0
 1195 0512 9DF80D20 		ldrb	r2, [sp, #13]	@ zero_extendqisi2
 1196              		.loc 1 1074 0
 1197 0516 43EA0223 		orr	r3, r3, r2, lsl #8
 1198              		.loc 1 1076 0
 1199 051a 9DF80E20 		ldrb	r2, [sp, #14]	@ zero_extendqisi2
 1200              		.loc 1 1075 0
 1201 051e 43EA0243 		orr	r3, r3, r2, lsl #16
 1202              		.loc 1 1077 0
 1203 0522 9DF80F20 		ldrb	r2, [sp, #15]	@ zero_extendqisi2
 1204              		.loc 1 1076 0
 1205 0526 43EA0263 		orr	r3, r3, r2, lsl #24
 1206              		.loc 1 1074 0
 1207 052a C9F80030 		str	r3, [r9]
 1208 052e C4E7     		b	.L102
 1209              	.LVL161:
 1210              	.L103:
 1211              		.loc 1 1093 0
 1212 0530 2846     		mov	r0, r5
 1213 0532 05B0     		add	sp, sp, #20
 1214              		.cfi_def_cfa_offset 28
 1215              		@ sp needed
 1216 0534 BDE8F083 		pop	{r4, r5, r6, r7, r8, r9, pc}
 1217              		.cfi_endproc
 1218              	.LFE339:
 1219              		.size	spi_read_reg, .-spi_read_reg
 1220              		.align	1
 1221 0538 AFF30080 		.p2align 4,,15
 1221      AFF30080 
 1222              		.syntax unified
 1223              		.thumb
 1224              		.thumb_func
 1225              		.fpu softvfp
 1226              		.type	nm_spi_read, %function
 1227              	nm_spi_read:
 1228              	.LFB340:
 1229              		.loc 1 1096 0
 1230              		.cfi_startproc
 1231              		@ args = 0, pretend = 0, frame = 8
 1232              		@ frame_needed = 0, uses_anonymous_args = 0
 1233              	.LVL162:
 1234 0540 2DE9F043 		push	{r4, r5, r6, r7, r8, r9, lr}
 1235              		.cfi_def_cfa_offset 28
 1236              		.cfi_offset 4, -28
 1237              		.cfi_offset 5, -24
 1238              		.cfi_offset 6, -20
 1239              		.cfi_offset 7, -16
 1240              		.cfi_offset 8, -12
 1241              		.cfi_offset 9, -8
 1242              		.cfi_offset 14, -4
 1243 0544 85B0     		sub	sp, sp, #20
 1244              		.cfi_def_cfa_offset 48
 1245 0546 0646     		mov	r6, r0
ARM GAS  C:\Users\RAKIBU~1\AppData\Local\Temp\ccZ9ut5E.s 			page 23


 1246 0548 8846     		mov	r8, r1
 1247 054a 1546     		mov	r5, r2
 1248              	.LVL163:
 1249              		.loc 1 1102 0
 1250 054c 0027     		movs	r7, #0
 1251              		.loc 1 1099 0
 1252 054e 4FF00A09 		mov	r9, #10
 1253 0552 20E0     		b	.L108
 1254              	.LVL164:
 1255              	.L109:
 1256              		.loc 1 1117 0
 1257 0554 0022     		movs	r2, #0
 1258 0556 0092     		str	r2, [sp]
 1259 0558 2B46     		mov	r3, r5
 1260 055a 3146     		mov	r1, r6
 1261 055c C820     		movs	r0, #200
 1262 055e FFF777FD 		bl	spi_cmd
 1263              	.LVL165:
 1264 0562 0446     		mov	r4, r0
 1265              	.LVL166:
 1266              		.loc 1 1118 0
 1267 0564 0128     		cmp	r0, #1
 1268 0566 1BD0     		beq	.L115
 1269              	.LVL167:
 1270              	.L110:
 1271              		.loc 1 1153 0
 1272 0568 012C     		cmp	r4, #1
 1273 056a 32D0     		beq	.L112
 1274              		.loc 1 1155 0
 1275 056c 0120     		movs	r0, #1
 1276 056e FFF7FEFF 		bl	nm_bsp_sleep
 1277              	.LVL168:
 1278              		.loc 1 1156 0
 1279 0572 0021     		movs	r1, #0
 1280 0574 0091     		str	r1, [sp]
 1281 0576 0B46     		mov	r3, r1
 1282 0578 0A46     		mov	r2, r1
 1283 057a CF20     		movs	r0, #207
 1284 057c FFF768FD 		bl	spi_cmd
 1285              	.LVL169:
 1286              		.loc 1 1157 0
 1287 0580 CF20     		movs	r0, #207
 1288 0582 FFF78DFE 		bl	spi_cmd_rsp
 1289              	.LVL170:
 1290              		.loc 1 1159 0
 1291 0586 0120     		movs	r0, #1
 1292 0588 FFF7FEFF 		bl	nm_bsp_sleep
 1293              	.LVL171:
 1294              		.loc 1 1160 0
 1295 058c 09F1FF33 		add	r3, r9, #-1
 1296              	.LVL172:
 1297              		.loc 1 1161 0
 1298 0590 13F0FF09 		ands	r9, r3, #255
 1299 0594 1DD0     		beq	.L112
 1300              	.LVL173:
 1301              	.L108:
 1302              		.loc 1 1111 0
ARM GAS  C:\Users\RAKIBU~1\AppData\Local\Temp\ccZ9ut5E.s 			page 24


 1303 0596 012D     		cmp	r5, #1
 1304 0598 DCD1     		bne	.L109
 1305              		.loc 1 1115 0
 1306 059a 0127     		movs	r7, #1
 1307              	.LVL174:
 1308              		.loc 1 1114 0
 1309 059c 0225     		movs	r5, #2
 1310              	.LVL175:
 1311 059e D9E7     		b	.L109
 1312              	.LVL176:
 1313              	.L115:
 1314              		.loc 1 1123 0
 1315 05a0 C820     		movs	r0, #200
 1316              	.LVL177:
 1317 05a2 FFF77DFE 		bl	spi_cmd_rsp
 1318              	.LVL178:
 1319 05a6 0446     		mov	r4, r0
 1320              	.LVL179:
 1321              		.loc 1 1124 0
 1322 05a8 0128     		cmp	r0, #1
 1323 05aa DDD1     		bne	.L110
 1324              		.loc 1 1132 0
 1325 05ac 57B1     		cbz	r7, .L111
 1326              		.loc 1 1134 0
 1327 05ae 0022     		movs	r2, #0
 1328 05b0 2946     		mov	r1, r5
 1329 05b2 03A8     		add	r0, sp, #12
 1330              	.LVL180:
 1331 05b4 FFF7B4FE 		bl	spi_data_read
 1332              	.LVL181:
 1333 05b8 0446     		mov	r4, r0
 1334              	.LVL182:
 1335              		.loc 1 1135 0
 1336 05ba 9DF80C30 		ldrb	r3, [sp, #12]	@ zero_extendqisi2
 1337 05be 88F80030 		strb	r3, [r8]
 1338 05c2 D1E7     		b	.L110
 1339              	.LVL183:
 1340              	.L111:
 1341              		.loc 1 1138 0
 1342 05c4 0022     		movs	r2, #0
 1343 05c6 2946     		mov	r1, r5
 1344 05c8 4046     		mov	r0, r8
 1345              	.LVL184:
 1346 05ca FFF7A9FE 		bl	spi_data_read
 1347              	.LVL185:
 1348 05ce 0446     		mov	r4, r0
 1349              	.LVL186:
 1350 05d0 CAE7     		b	.L110
 1351              	.LVL187:
 1352              	.L112:
 1353              		.loc 1 1165 0
 1354 05d2 2046     		mov	r0, r4
 1355 05d4 05B0     		add	sp, sp, #20
 1356              		.cfi_def_cfa_offset 28
 1357              		@ sp needed
 1358 05d6 BDE8F083 		pop	{r4, r5, r6, r7, r8, r9, pc}
 1359              		.cfi_endproc
ARM GAS  C:\Users\RAKIBU~1\AppData\Local\Temp\ccZ9ut5E.s 			page 25


 1360              	.LFE340:
 1361              		.size	nm_spi_read, .-nm_spi_read
 1362              		.align	1
 1363 05da 00BFAFF3 		.p2align 4,,15
 1363      0080
 1364              		.syntax unified
 1365              		.thumb
 1366              		.thumb_func
 1367              		.fpu softvfp
 1368              		.type	nm_spi_write, %function
 1369              	nm_spi_write:
 1370              	.LFB338:
 1371              		.loc 1 955 0
 1372              		.cfi_startproc
 1373              		@ args = 0, pretend = 0, frame = 0
 1374              		@ frame_needed = 0, uses_anonymous_args = 0
 1375              	.LVL188:
 1376 05e0 2DE9F041 		push	{r4, r5, r6, r7, r8, lr}
 1377              		.cfi_def_cfa_offset 24
 1378              		.cfi_offset 4, -24
 1379              		.cfi_offset 5, -20
 1380              		.cfi_offset 6, -16
 1381              		.cfi_offset 7, -12
 1382              		.cfi_offset 8, -8
 1383              		.cfi_offset 14, -4
 1384 05e4 82B0     		sub	sp, sp, #8
 1385              		.cfi_def_cfa_offset 32
 1386 05e6 0746     		mov	r7, r0
 1387 05e8 8846     		mov	r8, r1
 1388 05ea 1646     		mov	r6, r2
 1389              	.LVL189:
 1390              		.loc 1 957 0
 1391 05ec 0A24     		movs	r4, #10
 1392 05ee 1FE0     		b	.L117
 1393              	.LVL190:
 1394              	.L118:
 1395              		.loc 1 970 0
 1396 05f0 0022     		movs	r2, #0
 1397 05f2 0092     		str	r2, [sp]
 1398 05f4 3346     		mov	r3, r6
 1399 05f6 3946     		mov	r1, r7
 1400 05f8 C720     		movs	r0, #199
 1401 05fa FFF729FD 		bl	spi_cmd
 1402              	.LVL191:
 1403 05fe 0546     		mov	r5, r0
 1404              	.LVL192:
 1405              		.loc 1 971 0
 1406 0600 0128     		cmp	r0, #1
 1407 0602 19D0     		beq	.L123
 1408              	.LVL193:
 1409              	.L119:
 1410              		.loc 1 1007 0
 1411 0604 012D     		cmp	r5, #1
 1412 0606 29D0     		beq	.L120
 1413              		.loc 1 1009 0
 1414 0608 0120     		movs	r0, #1
 1415 060a FFF7FEFF 		bl	nm_bsp_sleep
ARM GAS  C:\Users\RAKIBU~1\AppData\Local\Temp\ccZ9ut5E.s 			page 26


 1416              	.LVL194:
 1417              		.loc 1 1010 0
 1418 060e 0021     		movs	r1, #0
 1419 0610 0091     		str	r1, [sp]
 1420 0612 0B46     		mov	r3, r1
 1421 0614 0A46     		mov	r2, r1
 1422 0616 CF20     		movs	r0, #207
 1423 0618 FFF71AFD 		bl	spi_cmd
 1424              	.LVL195:
 1425              		.loc 1 1011 0
 1426 061c CF20     		movs	r0, #207
 1427 061e FFF73FFE 		bl	spi_cmd_rsp
 1428              	.LVL196:
 1429              		.loc 1 1013 0
 1430 0622 0120     		movs	r0, #1
 1431 0624 FFF7FEFF 		bl	nm_bsp_sleep
 1432              	.LVL197:
 1433              		.loc 1 1014 0
 1434 0628 631E     		subs	r3, r4, #1
 1435              	.LVL198:
 1436              		.loc 1 1015 0
 1437 062a 13F0FF04 		ands	r4, r3, #255
 1438 062e 15D0     		beq	.L120
 1439              	.LVL199:
 1440              	.L117:
 1441              		.loc 1 967 0
 1442 0630 012E     		cmp	r6, #1
 1443 0632 DDD1     		bne	.L118
 1444              		.loc 1 968 0
 1445 0634 0226     		movs	r6, #2
 1446              	.LVL200:
 1447 0636 DBE7     		b	.L118
 1448              	.LVL201:
 1449              	.L123:
 1450              		.loc 1 976 0
 1451 0638 C720     		movs	r0, #199
 1452              	.LVL202:
 1453 063a FFF731FE 		bl	spi_cmd_rsp
 1454              	.LVL203:
 1455 063e 0546     		mov	r5, r0
 1456              	.LVL204:
 1457              		.loc 1 977 0
 1458 0640 0128     		cmp	r0, #1
 1459 0642 DFD1     		bne	.L119
 1460              		.loc 1 992 0
 1461 0644 3146     		mov	r1, r6
 1462 0646 4046     		mov	r0, r8
 1463              	.LVL205:
 1464 0648 FFF7CAFD 		bl	spi_data_write
 1465              	.LVL206:
 1466 064c 0546     		mov	r5, r0
 1467              	.LVL207:
 1468              		.loc 1 993 0
 1469 064e 0128     		cmp	r0, #1
 1470 0650 D8D1     		bne	.L119
 1471              		.loc 1 1000 0
 1472 0652 C720     		movs	r0, #199
ARM GAS  C:\Users\RAKIBU~1\AppData\Local\Temp\ccZ9ut5E.s 			page 27


 1473              	.LVL208:
 1474 0654 FFF7BCFE 		bl	spi_data_rsp
 1475              	.LVL209:
 1476 0658 0546     		mov	r5, r0
 1477              	.LVL210:
 1478              		.loc 1 1006 0
 1479 065a D3E7     		b	.L119
 1480              	.LVL211:
 1481              	.L120:
 1482              		.loc 1 1020 0
 1483 065c 2846     		mov	r0, r5
 1484 065e 02B0     		add	sp, sp, #8
 1485              		.cfi_def_cfa_offset 24
 1486              		@ sp needed
 1487 0660 BDE8F081 		pop	{r4, r5, r6, r7, r8, pc}
 1488              		.cfi_endproc
 1489              	.LFE338:
 1490              		.size	nm_spi_write, .-nm_spi_write
 1491              		.align	1
 1492 0664 AFF30080 		.p2align 4,,15
 1492      AFF30080 
 1492      AFF30080 
 1493              		.global	nm_spi_reset
 1494              		.syntax unified
 1495              		.thumb
 1496              		.thumb_func
 1497              		.fpu softvfp
 1498              		.type	nm_spi_reset, %function
 1499              	nm_spi_reset:
 1500              	.LFB342:
 1501              		.loc 1 1194 0
 1502              		.cfi_startproc
 1503              		@ args = 0, pretend = 0, frame = 0
 1504              		@ frame_needed = 0, uses_anonymous_args = 0
 1505 0670 10B5     		push	{r4, lr}
 1506              		.cfi_def_cfa_offset 8
 1507              		.cfi_offset 4, -8
 1508              		.cfi_offset 14, -4
 1509 0672 82B0     		sub	sp, sp, #8
 1510              		.cfi_def_cfa_offset 16
 1511              		.loc 1 1195 0
 1512 0674 0024     		movs	r4, #0
 1513 0676 0094     		str	r4, [sp]
 1514 0678 2346     		mov	r3, r4
 1515 067a 2246     		mov	r2, r4
 1516 067c 2146     		mov	r1, r4
 1517 067e CF20     		movs	r0, #207
 1518 0680 FFF7E6FC 		bl	spi_cmd
 1519              	.LVL212:
 1520              		.loc 1 1196 0
 1521 0684 CF20     		movs	r0, #207
 1522 0686 FFF70BFE 		bl	spi_cmd_rsp
 1523              	.LVL213:
 1524              		.loc 1 1198 0
 1525 068a 2046     		mov	r0, r4
 1526 068c 02B0     		add	sp, sp, #8
 1527              		.cfi_def_cfa_offset 8
ARM GAS  C:\Users\RAKIBU~1\AppData\Local\Temp\ccZ9ut5E.s 			page 28


 1528              		@ sp needed
 1529 068e 10BD     		pop	{r4, pc}
 1530              		.cfi_endproc
 1531              	.LFE342:
 1532              		.size	nm_spi_reset, .-nm_spi_reset
 1533              		.align	1
 1534              		.p2align 4,,15
 1535              		.global	nm_spi_init
 1536              		.syntax unified
 1537              		.thumb
 1538              		.thumb_func
 1539              		.fpu softvfp
 1540              		.type	nm_spi_init, %function
 1541              	nm_spi_init:
 1542              	.LFB343:
 1543              		.loc 1 1209 0
 1544              		.cfi_startproc
 1545              		@ args = 0, pretend = 0, frame = 8
 1546              		@ frame_needed = 0, uses_anonymous_args = 0
 1547 0690 00B5     		push	{lr}
 1548              		.cfi_def_cfa_offset 4
 1549              		.cfi_offset 14, -4
 1550 0692 83B0     		sub	sp, sp, #12
 1551              		.cfi_def_cfa_offset 16
 1552              		.loc 1 1211 0
 1553 0694 0023     		movs	r3, #0
 1554 0696 02A9     		add	r1, sp, #8
 1555 0698 41F8083D 		str	r3, [r1, #-8]!
 1556              		.loc 1 1217 0
 1557 069c 194A     		ldr	r2, .L134
 1558 069e 1370     		strb	r3, [r2]
 1559              		.loc 1 1221 0
 1560 06a0 4EF62400 		movw	r0, #59428
 1561 06a4 FFF7F4FE 		bl	spi_read_reg
 1562              	.LVL214:
 1563 06a8 E0B1     		cbz	r0, .L132
 1564              	.L127:
 1565              		.loc 1 1232 0
 1566 06aa 164B     		ldr	r3, .L134
 1567 06ac 1B78     		ldrb	r3, [r3]	@ zero_extendqisi2
 1568 06ae 73B9     		cbnz	r3, .L129
 1569              		.loc 1 1234 0
 1570 06b0 0099     		ldr	r1, [sp]
 1571              		.loc 1 1235 0
 1572 06b2 21F07C01 		bic	r1, r1, #124
 1573              		.loc 1 1236 0
 1574 06b6 41F05001 		orr	r1, r1, #80
 1575 06ba 0091     		str	r1, [sp]
 1576              		.loc 1 1237 0
 1577 06bc 4EF62400 		movw	r0, #59428
 1578 06c0 FFF7AEFE 		bl	spi_write_reg
 1579              	.LVL215:
 1580 06c4 0346     		mov	r3, r0
 1581 06c6 48B1     		cbz	r0, .L128
 1582              		.loc 1 1241 0
 1583 06c8 0E4B     		ldr	r3, .L134
 1584 06ca 0122     		movs	r2, #1
ARM GAS  C:\Users\RAKIBU~1\AppData\Local\Temp\ccZ9ut5E.s 			page 29


 1585 06cc 1A70     		strb	r2, [r3]
 1586              	.L129:
 1587              		.loc 1 1247 0
 1588 06ce 01A9     		add	r1, sp, #4
 1589 06d0 4FF48050 		mov	r0, #4096
 1590 06d4 FFF7DCFE 		bl	spi_read_reg
 1591              	.LVL216:
 1592 06d8 80B1     		cbz	r0, .L133
 1593              		.loc 1 1256 0
 1594 06da 0023     		movs	r3, #0
 1595              	.L128:
 1596              		.loc 1 1257 0
 1597 06dc 1846     		mov	r0, r3
 1598 06de 03B0     		add	sp, sp, #12
 1599              		.cfi_remember_state
 1600              		.cfi_def_cfa_offset 4
 1601              		@ sp needed
 1602 06e0 5DF804FB 		ldr	pc, [sp], #4
 1603              	.L132:
 1604              		.cfi_restore_state
 1605              		.loc 1 1224 0
 1606 06e4 074B     		ldr	r3, .L134
 1607 06e6 0122     		movs	r2, #1
 1608 06e8 1A70     		strb	r2, [r3]
 1609              		.loc 1 1226 0
 1610 06ea 6946     		mov	r1, sp
 1611 06ec 4EF62400 		movw	r0, #59428
 1612 06f0 FFF7CEFE 		bl	spi_read_reg
 1613              	.LVL217:
 1614 06f4 0346     		mov	r3, r0
 1615 06f6 0028     		cmp	r0, #0
 1616 06f8 D7D1     		bne	.L127
 1617 06fa EFE7     		b	.L128
 1618              	.L133:
 1619              		.loc 1 1249 0
 1620 06fc 6FF00503 		mvn	r3, #5
 1621 0700 ECE7     		b	.L128
 1622              	.L135:
 1623 0702 00BF     		.align	2
 1624              	.L134:
 1625 0704 00000000 		.word	.LANCHOR1
 1626              		.cfi_endproc
 1627              	.LFE343:
 1628              		.size	nm_spi_init, .-nm_spi_init
 1629              		.align	1
 1630 0708 AFF30080 		.p2align 4,,15
 1630      AFF30080 
 1631              		.global	nm_spi_deinit
 1632              		.syntax unified
 1633              		.thumb
 1634              		.thumb_func
 1635              		.fpu softvfp
 1636              		.type	nm_spi_deinit, %function
 1637              	nm_spi_deinit:
 1638              	.LFB344:
 1639              		.loc 1 1268 0
 1640              		.cfi_startproc
ARM GAS  C:\Users\RAKIBU~1\AppData\Local\Temp\ccZ9ut5E.s 			page 30


 1641              		@ args = 0, pretend = 0, frame = 0
 1642              		@ frame_needed = 0, uses_anonymous_args = 0
 1643              		@ link register save eliminated.
 1644              		.loc 1 1269 0
 1645 0710 0020     		movs	r0, #0
 1646 0712 014B     		ldr	r3, .L137
 1647 0714 1870     		strb	r0, [r3]
 1648              		.loc 1 1271 0
 1649 0716 7047     		bx	lr
 1650              	.L138:
 1651              		.align	2
 1652              	.L137:
 1653 0718 00000000 		.word	.LANCHOR1
 1654              		.cfi_endproc
 1655              	.LFE344:
 1656              		.size	nm_spi_deinit, .-nm_spi_deinit
 1657              		.align	1
 1658 071c AFF30080 		.p2align 4,,15
 1659              		.global	nm_spi_read_reg
 1660              		.syntax unified
 1661              		.thumb
 1662              		.thumb_func
 1663              		.fpu softvfp
 1664              		.type	nm_spi_read_reg, %function
 1665              	nm_spi_read_reg:
 1666              	.LFB345:
 1667              		.loc 1 1284 0
 1668              		.cfi_startproc
 1669              		@ args = 0, pretend = 0, frame = 8
 1670              		@ frame_needed = 0, uses_anonymous_args = 0
 1671              	.LVL218:
 1672 0720 00B5     		push	{lr}
 1673              		.cfi_def_cfa_offset 4
 1674              		.cfi_offset 14, -4
 1675 0722 83B0     		sub	sp, sp, #12
 1676              		.cfi_def_cfa_offset 16
 1677              		.loc 1 1287 0
 1678 0724 01A9     		add	r1, sp, #4
 1679 0726 FFF7B3FE 		bl	spi_read_reg
 1680              	.LVL219:
 1681              		.loc 1 1290 0
 1682 072a 0198     		ldr	r0, [sp, #4]
 1683 072c 03B0     		add	sp, sp, #12
 1684              		.cfi_def_cfa_offset 4
 1685              		@ sp needed
 1686 072e 5DF804FB 		ldr	pc, [sp], #4
 1687              		.cfi_endproc
 1688              	.LFE345:
 1689              		.size	nm_spi_read_reg, .-nm_spi_read_reg
 1690              		.align	1
 1691 0732 00BFAFF3 		.p2align 4,,15
 1691      0080AFF3 
 1691      0080AFF3 
 1691      0080
 1692              		.global	nm_spi_read_reg_with_ret
 1693              		.syntax unified
 1694              		.thumb
ARM GAS  C:\Users\RAKIBU~1\AppData\Local\Temp\ccZ9ut5E.s 			page 31


 1695              		.thumb_func
 1696              		.fpu softvfp
 1697              		.type	nm_spi_read_reg_with_ret, %function
 1698              	nm_spi_read_reg_with_ret:
 1699              	.LFB346:
 1700              		.loc 1 1305 0
 1701              		.cfi_startproc
 1702              		@ args = 0, pretend = 0, frame = 0
 1703              		@ frame_needed = 0, uses_anonymous_args = 0
 1704              	.LVL220:
 1705 0740 08B5     		push	{r3, lr}
 1706              		.cfi_def_cfa_offset 8
 1707              		.cfi_offset 3, -8
 1708              		.cfi_offset 14, -4
 1709              		.loc 1 1308 0
 1710 0742 FFF7A5FE 		bl	spi_read_reg
 1711              	.LVL221:
 1712              		.loc 1 1310 0
 1713 0746 0128     		cmp	r0, #1
 1714 0748 01D1     		bne	.L143
 1715 074a 0020     		movs	r0, #0
 1716              	.LVL222:
 1717              	.L142:
 1718              		.loc 1 1314 0
 1719 074c 08BD     		pop	{r3, pc}
 1720              	.L143:
 1721              		.loc 1 1311 0
 1722 074e 6FF00500 		mvn	r0, #5
 1723              	.LVL223:
 1724 0752 FBE7     		b	.L142
 1725              		.cfi_endproc
 1726              	.LFE346:
 1727              		.size	nm_spi_read_reg_with_ret, .-nm_spi_read_reg_with_ret
 1728              		.align	1
 1729 0754 AFF30080 		.p2align 4,,15
 1729      AFF30080 
 1729      AFF30080 
 1730              		.global	nm_spi_write_reg
 1731              		.syntax unified
 1732              		.thumb
 1733              		.thumb_func
 1734              		.fpu softvfp
 1735              		.type	nm_spi_write_reg, %function
 1736              	nm_spi_write_reg:
 1737              	.LFB347:
 1738              		.loc 1 1329 0
 1739              		.cfi_startproc
 1740              		@ args = 0, pretend = 0, frame = 0
 1741              		@ frame_needed = 0, uses_anonymous_args = 0
 1742              	.LVL224:
 1743 0760 08B5     		push	{r3, lr}
 1744              		.cfi_def_cfa_offset 8
 1745              		.cfi_offset 3, -8
 1746              		.cfi_offset 14, -4
 1747              		.loc 1 1332 0
 1748 0762 FFF75DFE 		bl	spi_write_reg
 1749              	.LVL225:
ARM GAS  C:\Users\RAKIBU~1\AppData\Local\Temp\ccZ9ut5E.s 			page 32


 1750              		.loc 1 1334 0
 1751 0766 0128     		cmp	r0, #1
 1752 0768 01D1     		bne	.L147
 1753 076a 0020     		movs	r0, #0
 1754              	.LVL226:
 1755              	.L146:
 1756              		.loc 1 1338 0
 1757 076c 08BD     		pop	{r3, pc}
 1758              	.L147:
 1759              		.loc 1 1335 0
 1760 076e 6FF00500 		mvn	r0, #5
 1761              	.LVL227:
 1762 0772 FBE7     		b	.L146
 1763              		.cfi_endproc
 1764              	.LFE347:
 1765              		.size	nm_spi_write_reg, .-nm_spi_write_reg
 1766              		.align	1
 1767 0774 AFF30080 		.p2align 4,,15
 1767      AFF30080 
 1767      AFF30080 
 1768              		.global	nm_spi_read_block
 1769              		.syntax unified
 1770              		.thumb
 1771              		.thumb_func
 1772              		.fpu softvfp
 1773              		.type	nm_spi_read_block, %function
 1774              	nm_spi_read_block:
 1775              	.LFB348:
 1776              		.loc 1 1355 0
 1777              		.cfi_startproc
 1778              		@ args = 0, pretend = 0, frame = 0
 1779              		@ frame_needed = 0, uses_anonymous_args = 0
 1780              	.LVL228:
 1781 0780 08B5     		push	{r3, lr}
 1782              		.cfi_def_cfa_offset 8
 1783              		.cfi_offset 3, -8
 1784              		.cfi_offset 14, -4
 1785              		.loc 1 1358 0
 1786 0782 FFF7DDFE 		bl	nm_spi_read
 1787              	.LVL229:
 1788              		.loc 1 1360 0
 1789 0786 0128     		cmp	r0, #1
 1790 0788 01D1     		bne	.L151
 1791 078a 0020     		movs	r0, #0
 1792              	.LVL230:
 1793              	.L150:
 1794              		.loc 1 1364 0
 1795 078c 08BD     		pop	{r3, pc}
 1796              	.L151:
 1797              		.loc 1 1361 0
 1798 078e 6FF00500 		mvn	r0, #5
 1799              	.LVL231:
 1800 0792 FBE7     		b	.L150
 1801              		.cfi_endproc
 1802              	.LFE348:
 1803              		.size	nm_spi_read_block, .-nm_spi_read_block
 1804              		.align	1
ARM GAS  C:\Users\RAKIBU~1\AppData\Local\Temp\ccZ9ut5E.s 			page 33


 1805 0794 AFF30080 		.p2align 4,,15
 1805      AFF30080 
 1805      AFF30080 
 1806              		.global	nm_spi_write_block
 1807              		.syntax unified
 1808              		.thumb
 1809              		.thumb_func
 1810              		.fpu softvfp
 1811              		.type	nm_spi_write_block, %function
 1812              	nm_spi_write_block:
 1813              	.LFB349:
 1814              		.loc 1 1381 0
 1815              		.cfi_startproc
 1816              		@ args = 0, pretend = 0, frame = 0
 1817              		@ frame_needed = 0, uses_anonymous_args = 0
 1818              	.LVL232:
 1819 07a0 08B5     		push	{r3, lr}
 1820              		.cfi_def_cfa_offset 8
 1821              		.cfi_offset 3, -8
 1822              		.cfi_offset 14, -4
 1823              		.loc 1 1384 0
 1824 07a2 FFF71DFF 		bl	nm_spi_write
 1825              	.LVL233:
 1826              		.loc 1 1386 0
 1827 07a6 0128     		cmp	r0, #1
 1828 07a8 01D1     		bne	.L155
 1829 07aa 0020     		movs	r0, #0
 1830              	.LVL234:
 1831              	.L154:
 1832              		.loc 1 1390 0
 1833 07ac 08BD     		pop	{r3, pc}
 1834              	.L155:
 1835              		.loc 1 1387 0
 1836 07ae 6FF00500 		mvn	r0, #5
 1837              	.LVL235:
 1838 07b2 FBE7     		b	.L154
 1839              		.cfi_endproc
 1840              	.LFE349:
 1841              		.size	nm_spi_write_block, .-nm_spi_write_block
 1842              		.section	.rodata
 1843              		.align	2
 1844              		.set	.LANCHOR0,. + 0
 1845              		.type	crc7_syndrome_table, %object
 1846              		.size	crc7_syndrome_table, 256
 1847              	crc7_syndrome_table:
 1848 0000 00       		.byte	0
 1849 0001 09       		.byte	9
 1850 0002 12       		.byte	18
 1851 0003 1B       		.byte	27
 1852 0004 24       		.byte	36
 1853 0005 2D       		.byte	45
 1854 0006 36       		.byte	54
 1855 0007 3F       		.byte	63
 1856 0008 48       		.byte	72
 1857 0009 41       		.byte	65
 1858 000a 5A       		.byte	90
 1859 000b 53       		.byte	83
ARM GAS  C:\Users\RAKIBU~1\AppData\Local\Temp\ccZ9ut5E.s 			page 34


 1860 000c 6C       		.byte	108
 1861 000d 65       		.byte	101
 1862 000e 7E       		.byte	126
 1863 000f 77       		.byte	119
 1864 0010 19       		.byte	25
 1865 0011 10       		.byte	16
 1866 0012 0B       		.byte	11
 1867 0013 02       		.byte	2
 1868 0014 3D       		.byte	61
 1869 0015 34       		.byte	52
 1870 0016 2F       		.byte	47
 1871 0017 26       		.byte	38
 1872 0018 51       		.byte	81
 1873 0019 58       		.byte	88
 1874 001a 43       		.byte	67
 1875 001b 4A       		.byte	74
 1876 001c 75       		.byte	117
 1877 001d 7C       		.byte	124
 1878 001e 67       		.byte	103
 1879 001f 6E       		.byte	110
 1880 0020 32       		.byte	50
 1881 0021 3B       		.byte	59
 1882 0022 20       		.byte	32
 1883 0023 29       		.byte	41
 1884 0024 16       		.byte	22
 1885 0025 1F       		.byte	31
 1886 0026 04       		.byte	4
 1887 0027 0D       		.byte	13
 1888 0028 7A       		.byte	122
 1889 0029 73       		.byte	115
 1890 002a 68       		.byte	104
 1891 002b 61       		.byte	97
 1892 002c 5E       		.byte	94
 1893 002d 57       		.byte	87
 1894 002e 4C       		.byte	76
 1895 002f 45       		.byte	69
 1896 0030 2B       		.byte	43
 1897 0031 22       		.byte	34
 1898 0032 39       		.byte	57
 1899 0033 30       		.byte	48
 1900 0034 0F       		.byte	15
 1901 0035 06       		.byte	6
 1902 0036 1D       		.byte	29
 1903 0037 14       		.byte	20
 1904 0038 63       		.byte	99
 1905 0039 6A       		.byte	106
 1906 003a 71       		.byte	113
 1907 003b 78       		.byte	120
 1908 003c 47       		.byte	71
 1909 003d 4E       		.byte	78
 1910 003e 55       		.byte	85
 1911 003f 5C       		.byte	92
 1912 0040 64       		.byte	100
 1913 0041 6D       		.byte	109
 1914 0042 76       		.byte	118
 1915 0043 7F       		.byte	127
 1916 0044 40       		.byte	64
ARM GAS  C:\Users\RAKIBU~1\AppData\Local\Temp\ccZ9ut5E.s 			page 35


 1917 0045 49       		.byte	73
 1918 0046 52       		.byte	82
 1919 0047 5B       		.byte	91
 1920 0048 2C       		.byte	44
 1921 0049 25       		.byte	37
 1922 004a 3E       		.byte	62
 1923 004b 37       		.byte	55
 1924 004c 08       		.byte	8
 1925 004d 01       		.byte	1
 1926 004e 1A       		.byte	26
 1927 004f 13       		.byte	19
 1928 0050 7D       		.byte	125
 1929 0051 74       		.byte	116
 1930 0052 6F       		.byte	111
 1931 0053 66       		.byte	102
 1932 0054 59       		.byte	89
 1933 0055 50       		.byte	80
 1934 0056 4B       		.byte	75
 1935 0057 42       		.byte	66
 1936 0058 35       		.byte	53
 1937 0059 3C       		.byte	60
 1938 005a 27       		.byte	39
 1939 005b 2E       		.byte	46
 1940 005c 11       		.byte	17
 1941 005d 18       		.byte	24
 1942 005e 03       		.byte	3
 1943 005f 0A       		.byte	10
 1944 0060 56       		.byte	86
 1945 0061 5F       		.byte	95
 1946 0062 44       		.byte	68
 1947 0063 4D       		.byte	77
 1948 0064 72       		.byte	114
 1949 0065 7B       		.byte	123
 1950 0066 60       		.byte	96
 1951 0067 69       		.byte	105
 1952 0068 1E       		.byte	30
 1953 0069 17       		.byte	23
 1954 006a 0C       		.byte	12
 1955 006b 05       		.byte	5
 1956 006c 3A       		.byte	58
 1957 006d 33       		.byte	51
 1958 006e 28       		.byte	40
 1959 006f 21       		.byte	33
 1960 0070 4F       		.byte	79
 1961 0071 46       		.byte	70
 1962 0072 5D       		.byte	93
 1963 0073 54       		.byte	84
 1964 0074 6B       		.byte	107
 1965 0075 62       		.byte	98
 1966 0076 79       		.byte	121
 1967 0077 70       		.byte	112
 1968 0078 07       		.byte	7
 1969 0079 0E       		.byte	14
 1970 007a 15       		.byte	21
 1971 007b 1C       		.byte	28
 1972 007c 23       		.byte	35
 1973 007d 2A       		.byte	42
ARM GAS  C:\Users\RAKIBU~1\AppData\Local\Temp\ccZ9ut5E.s 			page 36


 1974 007e 31       		.byte	49
 1975 007f 38       		.byte	56
 1976 0080 41       		.byte	65
 1977 0081 48       		.byte	72
 1978 0082 53       		.byte	83
 1979 0083 5A       		.byte	90
 1980 0084 65       		.byte	101
 1981 0085 6C       		.byte	108
 1982 0086 77       		.byte	119
 1983 0087 7E       		.byte	126
 1984 0088 09       		.byte	9
 1985 0089 00       		.byte	0
 1986 008a 1B       		.byte	27
 1987 008b 12       		.byte	18
 1988 008c 2D       		.byte	45
 1989 008d 24       		.byte	36
 1990 008e 3F       		.byte	63
 1991 008f 36       		.byte	54
 1992 0090 58       		.byte	88
 1993 0091 51       		.byte	81
 1994 0092 4A       		.byte	74
 1995 0093 43       		.byte	67
 1996 0094 7C       		.byte	124
 1997 0095 75       		.byte	117
 1998 0096 6E       		.byte	110
 1999 0097 67       		.byte	103
 2000 0098 10       		.byte	16
 2001 0099 19       		.byte	25
 2002 009a 02       		.byte	2
 2003 009b 0B       		.byte	11
 2004 009c 34       		.byte	52
 2005 009d 3D       		.byte	61
 2006 009e 26       		.byte	38
 2007 009f 2F       		.byte	47
 2008 00a0 73       		.byte	115
 2009 00a1 7A       		.byte	122
 2010 00a2 61       		.byte	97
 2011 00a3 68       		.byte	104
 2012 00a4 57       		.byte	87
 2013 00a5 5E       		.byte	94
 2014 00a6 45       		.byte	69
 2015 00a7 4C       		.byte	76
 2016 00a8 3B       		.byte	59
 2017 00a9 32       		.byte	50
 2018 00aa 29       		.byte	41
 2019 00ab 20       		.byte	32
 2020 00ac 1F       		.byte	31
 2021 00ad 16       		.byte	22
 2022 00ae 0D       		.byte	13
 2023 00af 04       		.byte	4
 2024 00b0 6A       		.byte	106
 2025 00b1 63       		.byte	99
 2026 00b2 78       		.byte	120
 2027 00b3 71       		.byte	113
 2028 00b4 4E       		.byte	78
 2029 00b5 47       		.byte	71
 2030 00b6 5C       		.byte	92
ARM GAS  C:\Users\RAKIBU~1\AppData\Local\Temp\ccZ9ut5E.s 			page 37


 2031 00b7 55       		.byte	85
 2032 00b8 22       		.byte	34
 2033 00b9 2B       		.byte	43
 2034 00ba 30       		.byte	48
 2035 00bb 39       		.byte	57
 2036 00bc 06       		.byte	6
 2037 00bd 0F       		.byte	15
 2038 00be 14       		.byte	20
 2039 00bf 1D       		.byte	29
 2040 00c0 25       		.byte	37
 2041 00c1 2C       		.byte	44
 2042 00c2 37       		.byte	55
 2043 00c3 3E       		.byte	62
 2044 00c4 01       		.byte	1
 2045 00c5 08       		.byte	8
 2046 00c6 13       		.byte	19
 2047 00c7 1A       		.byte	26
 2048 00c8 6D       		.byte	109
 2049 00c9 64       		.byte	100
 2050 00ca 7F       		.byte	127
 2051 00cb 76       		.byte	118
 2052 00cc 49       		.byte	73
 2053 00cd 40       		.byte	64
 2054 00ce 5B       		.byte	91
 2055 00cf 52       		.byte	82
 2056 00d0 3C       		.byte	60
 2057 00d1 35       		.byte	53
 2058 00d2 2E       		.byte	46
 2059 00d3 27       		.byte	39
 2060 00d4 18       		.byte	24
 2061 00d5 11       		.byte	17
 2062 00d6 0A       		.byte	10
 2063 00d7 03       		.byte	3
 2064 00d8 74       		.byte	116
 2065 00d9 7D       		.byte	125
 2066 00da 66       		.byte	102
 2067 00db 6F       		.byte	111
 2068 00dc 50       		.byte	80
 2069 00dd 59       		.byte	89
 2070 00de 42       		.byte	66
 2071 00df 4B       		.byte	75
 2072 00e0 17       		.byte	23
 2073 00e1 1E       		.byte	30
 2074 00e2 05       		.byte	5
 2075 00e3 0C       		.byte	12
 2076 00e4 33       		.byte	51
 2077 00e5 3A       		.byte	58
 2078 00e6 21       		.byte	33
 2079 00e7 28       		.byte	40
 2080 00e8 5F       		.byte	95
 2081 00e9 56       		.byte	86
 2082 00ea 4D       		.byte	77
 2083 00eb 44       		.byte	68
 2084 00ec 7B       		.byte	123
 2085 00ed 72       		.byte	114
 2086 00ee 69       		.byte	105
 2087 00ef 60       		.byte	96
ARM GAS  C:\Users\RAKIBU~1\AppData\Local\Temp\ccZ9ut5E.s 			page 38


 2088 00f0 0E       		.byte	14
 2089 00f1 07       		.byte	7
 2090 00f2 1C       		.byte	28
 2091 00f3 15       		.byte	21
 2092 00f4 2A       		.byte	42
 2093 00f5 23       		.byte	35
 2094 00f6 38       		.byte	56
 2095 00f7 31       		.byte	49
 2096 00f8 46       		.byte	70
 2097 00f9 4F       		.byte	79
 2098 00fa 54       		.byte	84
 2099 00fb 5D       		.byte	93
 2100 00fc 62       		.byte	98
 2101 00fd 6B       		.byte	107
 2102 00fe 70       		.byte	112
 2103 00ff 79       		.byte	121
 2104              		.bss
 2105              		.set	.LANCHOR1,. + 0
 2106              		.type	gu8Crc_off, %object
 2107              		.size	gu8Crc_off, 1
 2108              	gu8Crc_off:
 2109 0000 00       		.space	1
 2110              		.text
 2111              	.Letext0:
 2112              		.file 2 "./winc1500/bsp/include/nm_bsp.h"
 2113              		.file 3 "c:\\chibistudio\\tools\\gnu tools arm embedded\\7.0 2017q4\\lib\\gcc\\arm-none-eabi\\7.2.
 2114              		.file 4 "c:\\chibistudio\\tools\\gnu tools arm embedded\\7.0 2017q4\\arm-none-eabi\\include\\machi
 2115              		.file 5 "c:\\chibistudio\\tools\\gnu tools arm embedded\\7.0 2017q4\\arm-none-eabi\\include\\sys\\
 2116              		.file 6 "c:\\chibistudio\\tools\\gnu tools arm embedded\\7.0 2017q4\\arm-none-eabi\\include\\stdin
 2117              		.file 7 "../../../ChibiOSRepo/chibios191/os/common/ports/ARMCMx/compilers/GCC/chtypes.h"
 2118              		.file 8 "../../../ChibiOSRepo/chibios191/os/rt/include/chsystypes.h"
 2119              		.file 9 "../../../ChibiOSRepo/chibios191/os/rt/include/chschd.h"
 2120              		.file 10 "../../../ChibiOSRepo/chibios191/os/rt/include/chtime.h"
 2121              		.file 11 "../../../ChibiOSRepo/chibios191/os/common/ext/ARM/CMSIS/Core/Include/core_cm4.h"
 2122              		.file 12 "../../../ChibiOSRepo/chibios191/os/common/ext/ST/STM32F4xx/system_stm32f4xx.h"
 2123              		.file 13 "../../../ChibiOSRepo/chibios191/os/common/ext/ST/STM32F4xx/stm32f407xx.h"
 2124              		.file 14 "../../../ChibiOSRepo/chibios191/os/common/ports/ARMCMx/chcore.h"
 2125              		.file 15 "../../../ChibiOSRepo/chibios191/os/common/ports/ARMCMx/chcore_v7m.h"
 2126              		.file 16 "../../../ChibiOSRepo/chibios191/os/hal/ports/STM32/LLD/TIMv1/stm32_tim.h"
 2127              		.file 17 "../../../ChibiOSRepo/chibios191/os/rt/include/chtrace.h"
 2128              		.file 18 "../../../ChibiOSRepo/chibios191/os/rt/include/chtm.h"
 2129              		.file 19 "../../../ChibiOSRepo/chibios191/os/rt/include/chstats.h"
 2130              		.file 20 "../../../ChibiOSRepo/chibios191/os/rt/include/chsem.h"
 2131              		.file 21 "../../../ChibiOSRepo/chibios191/os/rt/include/chmtx.h"
 2132              		.file 22 "../../../ChibiOSRepo/chibios191/os/rt/include/chsys.h"
 2133              		.file 23 "../../../ChibiOSRepo/chibios191/os/rt/include/chregistry.h"
 2134              		.file 24 "../../../ChibiOSRepo/chibios191/os/rt/include/chevents.h"
 2135              		.file 25 "../../../ChibiOSRepo/chibios191/os/oslib/include/chmemcore.h"
 2136              		.file 26 "../../../ChibiOSRepo/chibios191/os/oslib/include/chmempools.h"
 2137              		.file 27 "../../../ChibiOSRepo/chibios191/os/oslib/include/chfactory.h"
 2138              		.file 28 "../../../ChibiOSRepo/chibios191/os/hal/ports/STM32/LLD/DMAv2/stm32_dma.h"
 2139              		.file 29 "../../../ChibiOSRepo/chibios191/os/hal/include/hal_ioblock.h"
 2140              		.file 30 "../../../ChibiOSRepo/chibios191/os/hal/include/hal_persistent.h"
 2141              		.file 31 "../../../ChibiOSRepo/chibios191/os/hal/include/hal_queues.h"
 2142              		.file 32 "../../../ChibiOSRepo/chibios191/os/hal/include/hal_pal.h"
 2143              		.file 33 "../../../ChibiOSRepo/chibios191/os/hal/ports/STM32/LLD/GPIOv2/stm32_gpio.h"
 2144              		.file 34 "../../../ChibiOSRepo/chibios191/os/hal/ports/STM32/LLD/GPIOv2/hal_pal_lld.h"
ARM GAS  C:\Users\RAKIBU~1\AppData\Local\Temp\ccZ9ut5E.s 			page 39


 2145              		.file 35 "../../../ChibiOSRepo/chibios191/os/hal/include/hal_gpt.h"
 2146              		.file 36 "../../../ChibiOSRepo/chibios191/os/hal/ports/STM32/LLD/TIMv1/hal_gpt_lld.h"
 2147              		.file 37 "../../../ChibiOSRepo/chibios191/os/hal/include/hal_i2c.h"
 2148              		.file 38 "../../../ChibiOSRepo/chibios191/os/hal/ports/STM32/LLD/I2Cv1/hal_i2c_lld.h"
 2149              		.file 39 "c:\\chibistudio\\tools\\gnu tools arm embedded\\7.0 2017q4\\arm-none-eabi\\include\\sys\
 2150              		.file 40 "c:\\chibistudio\\tools\\gnu tools arm embedded\\7.0 2017q4\\arm-none-eabi\\include\\sys\
 2151              		.file 41 "c:\\chibistudio\\tools\\gnu tools arm embedded\\7.0 2017q4\\arm-none-eabi\\include\\sys\
 2152              		.file 42 "c:\\chibistudio\\tools\\gnu tools arm embedded\\7.0 2017q4\\arm-none-eabi\\include\\time
 2153              		.file 43 "../../../ChibiOSRepo/chibios191/os/hal/include/hal_rtc.h"
 2154              		.file 44 "../../../ChibiOSRepo/chibios191/os/hal/ports/STM32/LLD/RTCv2/hal_rtc_lld.h"
 2155              		.file 45 "../../../ChibiOSRepo/chibios191/os/hal/include/hal_serial.h"
 2156              		.file 46 "../../../ChibiOSRepo/chibios191/os/hal/ports/STM32/LLD/USARTv1/hal_serial_lld.h"
 2157              		.file 47 "../../../ChibiOSRepo/chibios191/os/hal/include/hal_sdc.h"
 2158              		.file 48 "../../../ChibiOSRepo/chibios191/os/hal/ports/STM32/LLD/SDIOv1/hal_sdc_lld.h"
 2159              		.file 49 "../../../ChibiOSRepo/chibios191/os/hal/include/hal_spi.h"
 2160              		.file 50 "../../../ChibiOSRepo/chibios191/os/hal/ports/STM32/LLD/SPIv1/hal_spi_lld.h"
 2161              		.file 51 "./winc1500/bus_wrapper/include/nm_bus_wrapper.h"