Archive member included to satisfy reference by file (symbol)

c:/chibistudio/tools/gnu tools arm embedded/9.0 2019q4/bin/../lib/gcc/arm-none-eabi/9.2.1/../../../../arm-none-eabi/lib/thumb/v7-m/nofp\libg.a(lib_a-memcmp.o)
                              C:\Users\RAKIBU~1\AppData\Local\Temp\ch.elf.ULtIRf.ltrans0.ltrans.o (memcmp)
c:/chibistudio/tools/gnu tools arm embedded/9.0 2019q4/bin/../lib/gcc/arm-none-eabi/9.2.1/../../../../arm-none-eabi/lib/thumb/v7-m/nofp\libg.a(lib_a-memcpy.o)
                              C:\Users\RAKIBU~1\AppData\Local\Temp\ch.elf.ULtIRf.ltrans0.ltrans.o (memcpy)
c:/chibistudio/tools/gnu tools arm embedded/9.0 2019q4/bin/../lib/gcc/arm-none-eabi/9.2.1/../../../../arm-none-eabi/lib/thumb/v7-m/nofp\libg.a(lib_a-memset.o)
                              C:\Users\RAKIBU~1\AppData\Local\Temp\ch.elf.ULtIRf.ltrans0.ltrans.o (memset)
c:/chibistudio/tools/gnu tools arm embedded/9.0 2019q4/bin/../lib/gcc/arm-none-eabi/9.2.1/../../../../arm-none-eabi/lib/thumb/v7-m/nofp\libg.a(lib_a-strchr.o)
                              C:\Users\RAKIBU~1\AppData\Local\Temp\ch.elf.ULtIRf.ltrans1.ltrans.o (strchr)
c:/chibistudio/tools/gnu tools arm embedded/9.0 2019q4/bin/../lib/gcc/arm-none-eabi/9.2.1/../../../../arm-none-eabi/lib/thumb/v7-m/nofp\libg.a(lib_a-strcmp.o)
                              C:\Users\RAKIBU~1\AppData\Local\Temp\ch.elf.ULtIRf.ltrans1.ltrans.o (strcmp)
c:/chibistudio/tools/gnu tools arm embedded/9.0 2019q4/bin/../lib/gcc/arm-none-eabi/9.2.1/../../../../arm-none-eabi/lib/thumb/v7-m/nofp\libg.a(lib_a-strcpy.o)
                              C:\Users\RAKIBU~1\AppData\Local\Temp\ch.elf.ULtIRf.ltrans0.ltrans.o (strcpy)
c:/chibistudio/tools/gnu tools arm embedded/9.0 2019q4/bin/../lib/gcc/arm-none-eabi/9.2.1/../../../../arm-none-eabi/lib/thumb/v7-m/nofp\libg.a(lib_a-strlen-stub.o)
                              C:\Users\RAKIBU~1\AppData\Local\Temp\ch.elf.ULtIRf.ltrans0.ltrans.o (strlen)
c:/chibistudio/tools/gnu tools arm embedded/9.0 2019q4/bin/../lib/gcc/arm-none-eabi/9.2.1/../../../../arm-none-eabi/lib/thumb/v7-m/nofp\libg.a(lib_a-strncmp.o)
                              C:\Users\RAKIBU~1\AppData\Local\Temp\ch.elf.ULtIRf.ltrans1.ltrans.o (strncmp)
c:/chibistudio/tools/gnu tools arm embedded/9.0 2019q4/bin/../lib/gcc/arm-none-eabi/9.2.1/../../../../arm-none-eabi/lib/thumb/v7-m/nofp\libg.a(lib_a-strncpy.o)
                              C:\Users\RAKIBU~1\AppData\Local\Temp\ch.elf.ULtIRf.ltrans1.ltrans.o (strncpy)
c:/chibistudio/tools/gnu tools arm embedded/9.0 2019q4/bin/../lib/gcc/arm-none-eabi/9.2.1/../../../../arm-none-eabi/lib/thumb/v7-m/nofp\libg.a(lib_a-strpbrk.o)
                              C:\Users\RAKIBU~1\AppData\Local\Temp\ch.elf.ULtIRf.ltrans1.ltrans.o (strpbrk)
c:/chibistudio/tools/gnu tools arm embedded/9.0 2019q4/bin/../lib/gcc/arm-none-eabi/9.2.1/../../../../arm-none-eabi/lib/thumb/v7-m/nofp\libg.a(lib_a-strspn.o)
                              C:\Users\RAKIBU~1\AppData\Local\Temp\ch.elf.ULtIRf.ltrans1.ltrans.o (strspn)

Discarded input sections

 .data          0x00000000        0x0 ./build/obj/crt0_v7m.o
 .bss           0x00000000        0x0 ./build/obj/crt0_v7m.o
 .data          0x00000000        0x0 ./build/obj/vectors.o
 .bss           0x00000000        0x0 ./build/obj/vectors.o
 .data          0x00000000        0x0 ./build/obj/chcoreasm_v7m.o
 .bss           0x00000000        0x0 ./build/obj/chcoreasm_v7m.o
 .text          0x00000000        0x0 C:\Users\RAKIBU~1\AppData\Local\Temp\ch.elf.ULtIRf.ltrans0.ltrans.o
 .data          0x00000000        0x0 C:\Users\RAKIBU~1\AppData\Local\Temp\ch.elf.ULtIRf.ltrans0.ltrans.o
 .bss           0x00000000        0x0 C:\Users\RAKIBU~1\AppData\Local\Temp\ch.elf.ULtIRf.ltrans0.ltrans.o
 .text          0x00000000        0x0 C:\Users\RAKIBU~1\AppData\Local\Temp\ch.elf.ULtIRf.ltrans1.ltrans.o
 .data          0x00000000        0x0 C:\Users\RAKIBU~1\AppData\Local\Temp\ch.elf.ULtIRf.ltrans1.ltrans.o
 .bss           0x00000000        0x0 C:\Users\RAKIBU~1\AppData\Local\Temp\ch.elf.ULtIRf.ltrans1.ltrans.o
 .comment       0x00000000       0x7a C:\Users\RAKIBU~1\AppData\Local\Temp\cch5nJgM.debug.temp.o
 .comment       0x00000000       0x7a C:\Users\RAKIBU~1\AppData\Local\Temp\ccmroM3f.debug.temp.o
 .comment       0x00000000       0x7a C:\Users\RAKIBU~1\AppData\Local\Temp\ccRgbWpJ.debug.temp.o
 .comment       0x00000000       0x7a C:\Users\RAKIBU~1\AppData\Local\Temp\ccwdJDrd.debug.temp.o
 .comment       0x00000000       0x7a C:\Users\RAKIBU~1\AppData\Local\Temp\ccxvOrNF.debug.temp.o
 .comment       0x00000000       0x7a C:\Users\RAKIBU~1\AppData\Local\Temp\ccuHb8T8.debug.temp.o
 .comment       0x00000000       0x7a C:\Users\RAKIBU~1\AppData\Local\Temp\ccxo170E.debug.temp.o
 .comment       0x00000000       0x7a C:\Users\RAKIBU~1\AppData\Local\Temp\ccMfTFNb.debug.temp.o
 .comment       0x00000000       0x7a C:\Users\RAKIBU~1\AppData\Local\Temp\ccDuRjaI.debug.temp.o
 .comment       0x00000000       0x7a C:\Users\RAKIBU~1\AppData\Local\Temp\ccEifbRc.debug.temp.o
 .comment       0x00000000       0x7a C:\Users\RAKIBU~1\AppData\Local\Temp\cct8M7cI.debug.temp.o
 .comment       0x00000000       0x7a C:\Users\RAKIBU~1\AppData\Local\Temp\ccq6WkEg.debug.temp.o
 .comment       0x00000000       0x7a C:\Users\RAKIBU~1\AppData\Local\Temp\ccVlNPLP.debug.temp.o
 .comment       0x00000000       0x7a C:\Users\RAKIBU~1\AppData\Local\Temp\ccQAGjoo.debug.temp.o
 .debug_info    0x00000000     0x1b84 C:\Users\RAKIBU~1\AppData\Local\Temp\ccp63NkV.debug.temp.o
 .debug_abbrev  0x00000000      0x1fd C:\Users\RAKIBU~1\AppData\Local\Temp\ccp63NkV.debug.temp.o
 .debug_line    0x00000000      0x4b9 C:\Users\RAKIBU~1\AppData\Local\Temp\ccp63NkV.debug.temp.o
 .debug_str     0x00000000      0xe9d C:\Users\RAKIBU~1\AppData\Local\Temp\ccp63NkV.debug.temp.o
 .comment       0x00000000       0x7a C:\Users\RAKIBU~1\AppData\Local\Temp\ccp63NkV.debug.temp.o
 .comment       0x00000000       0x7a C:\Users\RAKIBU~1\AppData\Local\Temp\ccQfGwWs.debug.temp.o
 .comment       0x00000000       0x7a C:\Users\RAKIBU~1\AppData\Local\Temp\ccl1YbE3.debug.temp.o
 .comment       0x00000000       0x7a C:\Users\RAKIBU~1\AppData\Local\Temp\cca76SWE.debug.temp.o
 .comment       0x00000000       0x7a C:\Users\RAKIBU~1\AppData\Local\Temp\cclCSeAe.debug.temp.o
 .comment       0x00000000       0x7a C:\Users\RAKIBU~1\AppData\Local\Temp\ccWAiDOO.debug.temp.o
 .comment       0x00000000       0x7a C:\Users\RAKIBU~1\AppData\Local\Temp\ccFDYt3r.debug.temp.o
 .debug_info    0x00000000      0xa3c C:\Users\RAKIBU~1\AppData\Local\Temp\cccOzMN4.debug.temp.o
 .debug_abbrev  0x00000000      0x16f C:\Users\RAKIBU~1\AppData\Local\Temp\cccOzMN4.debug.temp.o
 .debug_line    0x00000000      0x2fb C:\Users\RAKIBU~1\AppData\Local\Temp\cccOzMN4.debug.temp.o
 .debug_str     0x00000000      0x722 C:\Users\RAKIBU~1\AppData\Local\Temp\cccOzMN4.debug.temp.o
 .comment       0x00000000       0x7a C:\Users\RAKIBU~1\AppData\Local\Temp\cccOzMN4.debug.temp.o
 .comment       0x00000000       0x7a C:\Users\RAKIBU~1\AppData\Local\Temp\cc9rP78H.debug.temp.o
 .debug_info    0x00000000      0xa3c C:\Users\RAKIBU~1\AppData\Local\Temp\ccaY5fOj.debug.temp.o
 .debug_abbrev  0x00000000      0x16f C:\Users\RAKIBU~1\AppData\Local\Temp\ccaY5fOj.debug.temp.o
 .debug_line    0x00000000      0x2fb C:\Users\RAKIBU~1\AppData\Local\Temp\ccaY5fOj.debug.temp.o
 .debug_str     0x00000000      0x71c C:\Users\RAKIBU~1\AppData\Local\Temp\ccaY5fOj.debug.temp.o
 .comment       0x00000000       0x7a C:\Users\RAKIBU~1\AppData\Local\Temp\ccaY5fOj.debug.temp.o
 .debug_info    0x00000000      0xa3c C:\Users\RAKIBU~1\AppData\Local\Temp\ccLM084V.debug.temp.o
 .debug_abbrev  0x00000000      0x16f C:\Users\RAKIBU~1\AppData\Local\Temp\ccLM084V.debug.temp.o
 .debug_line    0x00000000      0x2fb C:\Users\RAKIBU~1\AppData\Local\Temp\ccLM084V.debug.temp.o
 .debug_str     0x00000000      0x71c C:\Users\RAKIBU~1\AppData\Local\Temp\ccLM084V.debug.temp.o
 .comment       0x00000000       0x7a C:\Users\RAKIBU~1\AppData\Local\Temp\ccLM084V.debug.temp.o
 .comment       0x00000000       0x7a C:\Users\RAKIBU~1\AppData\Local\Temp\ccgSPRmB.debug.temp.o
 .comment       0x00000000       0x7a C:\Users\RAKIBU~1\AppData\Local\Temp\ccXBqgoh.debug.temp.o
 .comment       0x00000000       0x7a C:\Users\RAKIBU~1\AppData\Local\Temp\cci81NJV.debug.temp.o
 .comment       0x00000000       0x7a C:\Users\RAKIBU~1\AppData\Local\Temp\ccTqmAAz.debug.temp.o
 .comment       0x00000000       0x7a C:\Users\RAKIBU~1\AppData\Local\Temp\ccGTIU6d.debug.temp.o
 .comment       0x00000000       0x7a C:\Users\RAKIBU~1\AppData\Local\Temp\ccrfkuIV.debug.temp.o
 .comment       0x00000000       0x7a C:\Users\RAKIBU~1\AppData\Local\Temp\cc6T6f0D.debug.temp.o
 .comment       0x00000000       0x7a C:\Users\RAKIBU~1\AppData\Local\Temp\ccLmp5Bk.debug.temp.o
 .comment       0x00000000       0x7a C:\Users\RAKIBU~1\AppData\Local\Temp\ccSRFCX1.debug.temp.o
 .comment       0x00000000       0x7a C:\Users\RAKIBU~1\AppData\Local\Temp\ccdyOYNI.debug.temp.o
 .comment       0x00000000       0x7a C:\Users\RAKIBU~1\AppData\Local\Temp\ccacQuKs.debug.temp.o
 .comment       0x00000000       0x7a C:\Users\RAKIBU~1\AppData\Local\Temp\ccbihpmd.debug.temp.o
 .comment       0x00000000       0x7a C:\Users\RAKIBU~1\AppData\Local\Temp\ccqx9oiW.debug.temp.o
 .comment       0x00000000       0x7a C:\Users\RAKIBU~1\AppData\Local\Temp\ccD7UjYF.debug.temp.o
 .comment       0x00000000       0x7a C:\Users\RAKIBU~1\AppData\Local\Temp\ccy69Y8o.debug.temp.o
 .comment       0x00000000       0x7a C:\Users\RAKIBU~1\AppData\Local\Temp\ccFTVllb.debug.temp.o
 .comment       0x00000000       0x7a C:\Users\RAKIBU~1\AppData\Local\Temp\ccKt1dhY.debug.temp.o
 .comment       0x00000000       0x7a C:\Users\RAKIBU~1\AppData\Local\Temp\ccZCwjxJ.debug.temp.o
 .comment       0x00000000       0x7a C:\Users\RAKIBU~1\AppData\Local\Temp\cc2lLTsv.debug.temp.o
 .debug_info    0x00000000      0xa3c C:\Users\RAKIBU~1\AppData\Local\Temp\ccrCn4pk.debug.temp.o
 .debug_abbrev  0x00000000      0x16f C:\Users\RAKIBU~1\AppData\Local\Temp\ccrCn4pk.debug.temp.o
 .debug_line    0x00000000      0x2fb C:\Users\RAKIBU~1\AppData\Local\Temp\ccrCn4pk.debug.temp.o
 .debug_str     0x00000000      0x728 C:\Users\RAKIBU~1\AppData\Local\Temp\ccrCn4pk.debug.temp.o
 .comment       0x00000000       0x7a C:\Users\RAKIBU~1\AppData\Local\Temp\ccrCn4pk.debug.temp.o
 .comment       0x00000000       0x7a C:\Users\RAKIBU~1\AppData\Local\Temp\ccAOt7V8.debug.temp.o
 .comment       0x00000000       0x7a C:\Users\RAKIBU~1\AppData\Local\Temp\cc7ypz8X.debug.temp.o
 .debug_info    0x00000000     0x1d5e C:\Users\RAKIBU~1\AppData\Local\Temp\ccaO6jEL.debug.temp.o
 .debug_abbrev  0x00000000      0x261 C:\Users\RAKIBU~1\AppData\Local\Temp\ccaO6jEL.debug.temp.o
 .debug_line    0x00000000      0x4f5 C:\Users\RAKIBU~1\AppData\Local\Temp\ccaO6jEL.debug.temp.o
 .debug_str     0x00000000      0xed9 C:\Users\RAKIBU~1\AppData\Local\Temp\ccaO6jEL.debug.temp.o
 .comment       0x00000000       0x7a C:\Users\RAKIBU~1\AppData\Local\Temp\ccaO6jEL.debug.temp.o
 .debug_info    0x00000000     0x144e C:\Users\RAKIBU~1\AppData\Local\Temp\ccNp4TUz.debug.temp.o
 .debug_abbrev  0x00000000      0x202 C:\Users\RAKIBU~1\AppData\Local\Temp\ccNp4TUz.debug.temp.o
 .debug_line    0x00000000      0x4d6 C:\Users\RAKIBU~1\AppData\Local\Temp\ccNp4TUz.debug.temp.o
 .debug_str     0x00000000      0xaec C:\Users\RAKIBU~1\AppData\Local\Temp\ccNp4TUz.debug.temp.o
 .comment       0x00000000       0x7a C:\Users\RAKIBU~1\AppData\Local\Temp\ccNp4TUz.debug.temp.o
 .comment       0x00000000       0x7a C:\Users\RAKIBU~1\AppData\Local\Temp\cc4laSbr.debug.temp.o
 .comment       0x00000000       0x7a C:\Users\RAKIBU~1\AppData\Local\Temp\cchAui2h.debug.temp.o
 .comment       0x00000000       0x7a C:\Users\RAKIBU~1\AppData\Local\Temp\ccOe3Py9.debug.temp.o
 .comment       0x00000000       0x7a C:\Users\RAKIBU~1\AppData\Local\Temp\cc3LaxpZ.debug.temp.o
 .comment       0x00000000       0x7a C:\Users\RAKIBU~1\AppData\Local\Temp\ccC99UZP.debug.temp.o
 .comment       0x00000000       0x7a C:\Users\RAKIBU~1\AppData\Local\Temp\ccrPy3AJ.debug.temp.o
 .comment       0x00000000       0x7a C:\Users\RAKIBU~1\AppData\Local\Temp\ccQljqMC.debug.temp.o
 .comment       0x00000000       0x7a C:\Users\RAKIBU~1\AppData\Local\Temp\ccBhtmDw.debug.temp.o
 .comment       0x00000000       0x7a C:\Users\RAKIBU~1\AppData\Local\Temp\cc4zVzSo.debug.temp.o
 .comment       0x00000000       0x7a C:\Users\RAKIBU~1\AppData\Local\Temp\cc78exNh.debug.temp.o
 .comment       0x00000000       0x7a C:\Users\RAKIBU~1\AppData\Local\Temp\ccWMCzNd.debug.temp.o
 .comment       0x00000000       0x7a C:\Users\RAKIBU~1\AppData\Local\Temp\ccxV1mi9.debug.temp.o
 .comment       0x00000000       0x7a C:\Users\RAKIBU~1\AppData\Local\Temp\cca7x3x5.debug.temp.o
 .comment       0x00000000       0x7a C:\Users\RAKIBU~1\AppData\Local\Temp\ccL3iN7Z.debug.temp.o
 .comment       0x00000000       0x7a C:\Users\RAKIBU~1\AppData\Local\Temp\ccWGiAmV.debug.temp.o
 .comment       0x00000000       0x7a C:\Users\RAKIBU~1\AppData\Local\Temp\ccX2tSGT.debug.temp.o
 .comment       0x00000000       0x7a C:\Users\RAKIBU~1\AppData\Local\Temp\ccOzRCwR.debug.temp.o
 .comment       0x00000000       0x7a C:\Users\RAKIBU~1\AppData\Local\Temp\cc9bu55P.debug.temp.o
 .comment       0x00000000       0x7a C:\Users\RAKIBU~1\AppData\Local\Temp\ccEnwLZM.debug.temp.o
 .comment       0x00000000       0x7a C:\Users\RAKIBU~1\AppData\Local\Temp\cchbm8uK.debug.temp.o
 .comment       0x00000000       0x7a C:\Users\RAKIBU~1\AppData\Local\Temp\ccgqGw5K.debug.temp.o
 .comment       0x00000000       0x7a C:\Users\RAKIBU~1\AppData\Local\Temp\cctSjtlM.debug.temp.o
 .comment       0x00000000       0x7a C:\Users\RAKIBU~1\AppData\Local\Temp\ccmCpTQL.debug.temp.o
 .comment       0x00000000       0x7a C:\Users\RAKIBU~1\AppData\Local\Temp\ccRJBpWK.debug.temp.o
 .comment       0x00000000       0x7a C:\Users\RAKIBU~1\AppData\Local\Temp\ccKjuvHK.debug.temp.o
 .comment       0x00000000       0x7a C:\Users\RAKIBU~1\AppData\Local\Temp\ccnttPtN.debug.temp.o
 .comment       0x00000000       0x7a C:\Users\RAKIBU~1\AppData\Local\Temp\cckt4zVQ.debug.temp.o
 .comment       0x00000000       0x7a C:\Users\RAKIBU~1\AppData\Local\Temp\ccZluKLS.debug.temp.o
 .comment       0x00000000       0x7a C:\Users\RAKIBU~1\AppData\Local\Temp\ccexyFdV.debug.temp.o
 .comment       0x00000000       0x7a C:\Users\RAKIBU~1\AppData\Local\Temp\ccpYxvaX.debug.temp.o
 .text          0x00000000        0x0 c:/chibistudio/tools/gnu tools arm embedded/9.0 2019q4/bin/../lib/gcc/arm-none-eabi/9.2.1/../../../../arm-none-eabi/lib/thumb/v7-m/nofp\libg.a(lib_a-memcmp.o)
 .data          0x00000000        0x0 c:/chibistudio/tools/gnu tools arm embedded/9.0 2019q4/bin/../lib/gcc/arm-none-eabi/9.2.1/../../../../arm-none-eabi/lib/thumb/v7-m/nofp\libg.a(lib_a-memcmp.o)
 .bss           0x00000000        0x0 c:/chibistudio/tools/gnu tools arm embedded/9.0 2019q4/bin/../lib/gcc/arm-none-eabi/9.2.1/../../../../arm-none-eabi/lib/thumb/v7-m/nofp\libg.a(lib_a-memcmp.o)
 .data          0x00000000        0x0 c:/chibistudio/tools/gnu tools arm embedded/9.0 2019q4/bin/../lib/gcc/arm-none-eabi/9.2.1/../../../../arm-none-eabi/lib/thumb/v7-m/nofp\libg.a(lib_a-memcpy.o)
 .bss           0x00000000        0x0 c:/chibistudio/tools/gnu tools arm embedded/9.0 2019q4/bin/../lib/gcc/arm-none-eabi/9.2.1/../../../../arm-none-eabi/lib/thumb/v7-m/nofp\libg.a(lib_a-memcpy.o)
 .text          0x00000000        0x0 c:/chibistudio/tools/gnu tools arm embedded/9.0 2019q4/bin/../lib/gcc/arm-none-eabi/9.2.1/../../../../arm-none-eabi/lib/thumb/v7-m/nofp\libg.a(lib_a-memset.o)
 .data          0x00000000        0x0 c:/chibistudio/tools/gnu tools arm embedded/9.0 2019q4/bin/../lib/gcc/arm-none-eabi/9.2.1/../../../../arm-none-eabi/lib/thumb/v7-m/nofp\libg.a(lib_a-memset.o)
 .bss           0x00000000        0x0 c:/chibistudio/tools/gnu tools arm embedded/9.0 2019q4/bin/../lib/gcc/arm-none-eabi/9.2.1/../../../../arm-none-eabi/lib/thumb/v7-m/nofp\libg.a(lib_a-memset.o)
 .text          0x00000000        0x0 c:/chibistudio/tools/gnu tools arm embedded/9.0 2019q4/bin/../lib/gcc/arm-none-eabi/9.2.1/../../../../arm-none-eabi/lib/thumb/v7-m/nofp\libg.a(lib_a-strchr.o)
 .data          0x00000000        0x0 c:/chibistudio/tools/gnu tools arm embedded/9.0 2019q4/bin/../lib/gcc/arm-none-eabi/9.2.1/../../../../arm-none-eabi/lib/thumb/v7-m/nofp\libg.a(lib_a-strchr.o)
 .bss           0x00000000        0x0 c:/chibistudio/tools/gnu tools arm embedded/9.0 2019q4/bin/../lib/gcc/arm-none-eabi/9.2.1/../../../../arm-none-eabi/lib/thumb/v7-m/nofp\libg.a(lib_a-strchr.o)
 .data          0x00000000        0x0 c:/chibistudio/tools/gnu tools arm embedded/9.0 2019q4/bin/../lib/gcc/arm-none-eabi/9.2.1/../../../../arm-none-eabi/lib/thumb/v7-m/nofp\libg.a(lib_a-strcmp.o)
 .bss           0x00000000        0x0 c:/chibistudio/tools/gnu tools arm embedded/9.0 2019q4/bin/../lib/gcc/arm-none-eabi/9.2.1/../../../../arm-none-eabi/lib/thumb/v7-m/nofp\libg.a(lib_a-strcmp.o)
 .text          0x00000000        0x0 c:/chibistudio/tools/gnu tools arm embedded/9.0 2019q4/bin/../lib/gcc/arm-none-eabi/9.2.1/../../../../arm-none-eabi/lib/thumb/v7-m/nofp\libg.a(lib_a-strcpy.o)
 .data          0x00000000        0x0 c:/chibistudio/tools/gnu tools arm embedded/9.0 2019q4/bin/../lib/gcc/arm-none-eabi/9.2.1/../../../../arm-none-eabi/lib/thumb/v7-m/nofp\libg.a(lib_a-strcpy.o)
 .bss           0x00000000        0x0 c:/chibistudio/tools/gnu tools arm embedded/9.0 2019q4/bin/../lib/gcc/arm-none-eabi/9.2.1/../../../../arm-none-eabi/lib/thumb/v7-m/nofp\libg.a(lib_a-strcpy.o)
 .text          0x00000000        0x0 c:/chibistudio/tools/gnu tools arm embedded/9.0 2019q4/bin/../lib/gcc/arm-none-eabi/9.2.1/../../../../arm-none-eabi/lib/thumb/v7-m/nofp\libg.a(lib_a-strlen-stub.o)
 .data          0x00000000        0x0 c:/chibistudio/tools/gnu tools arm embedded/9.0 2019q4/bin/../lib/gcc/arm-none-eabi/9.2.1/../../../../arm-none-eabi/lib/thumb/v7-m/nofp\libg.a(lib_a-strlen-stub.o)
 .bss           0x00000000        0x0 c:/chibistudio/tools/gnu tools arm embedded/9.0 2019q4/bin/../lib/gcc/arm-none-eabi/9.2.1/../../../../arm-none-eabi/lib/thumb/v7-m/nofp\libg.a(lib_a-strlen-stub.o)
 .text          0x00000000        0x0 c:/chibistudio/tools/gnu tools arm embedded/9.0 2019q4/bin/../lib/gcc/arm-none-eabi/9.2.1/../../../../arm-none-eabi/lib/thumb/v7-m/nofp\libg.a(lib_a-strncmp.o)
 .data          0x00000000        0x0 c:/chibistudio/tools/gnu tools arm embedded/9.0 2019q4/bin/../lib/gcc/arm-none-eabi/9.2.1/../../../../arm-none-eabi/lib/thumb/v7-m/nofp\libg.a(lib_a-strncmp.o)
 .bss           0x00000000        0x0 c:/chibistudio/tools/gnu tools arm embedded/9.0 2019q4/bin/../lib/gcc/arm-none-eabi/9.2.1/../../../../arm-none-eabi/lib/thumb/v7-m/nofp\libg.a(lib_a-strncmp.o)
 .text          0x00000000        0x0 c:/chibistudio/tools/gnu tools arm embedded/9.0 2019q4/bin/../lib/gcc/arm-none-eabi/9.2.1/../../../../arm-none-eabi/lib/thumb/v7-m/nofp\libg.a(lib_a-strncpy.o)
 .data          0x00000000        0x0 c:/chibistudio/tools/gnu tools arm embedded/9.0 2019q4/bin/../lib/gcc/arm-none-eabi/9.2.1/../../../../arm-none-eabi/lib/thumb/v7-m/nofp\libg.a(lib_a-strncpy.o)
 .bss           0x00000000        0x0 c:/chibistudio/tools/gnu tools arm embedded/9.0 2019q4/bin/../lib/gcc/arm-none-eabi/9.2.1/../../../../arm-none-eabi/lib/thumb/v7-m/nofp\libg.a(lib_a-strncpy.o)
 .text          0x00000000        0x0 c:/chibistudio/tools/gnu tools arm embedded/9.0 2019q4/bin/../lib/gcc/arm-none-eabi/9.2.1/../../../../arm-none-eabi/lib/thumb/v7-m/nofp\libg.a(lib_a-strpbrk.o)
 .data          0x00000000        0x0 c:/chibistudio/tools/gnu tools arm embedded/9.0 2019q4/bin/../lib/gcc/arm-none-eabi/9.2.1/../../../../arm-none-eabi/lib/thumb/v7-m/nofp\libg.a(lib_a-strpbrk.o)
 .bss           0x00000000        0x0 c:/chibistudio/tools/gnu tools arm embedded/9.0 2019q4/bin/../lib/gcc/arm-none-eabi/9.2.1/../../../../arm-none-eabi/lib/thumb/v7-m/nofp\libg.a(lib_a-strpbrk.o)
 .text          0x00000000        0x0 c:/chibistudio/tools/gnu tools arm embedded/9.0 2019q4/bin/../lib/gcc/arm-none-eabi/9.2.1/../../../../arm-none-eabi/lib/thumb/v7-m/nofp\libg.a(lib_a-strspn.o)
 .data          0x00000000        0x0 c:/chibistudio/tools/gnu tools arm embedded/9.0 2019q4/bin/../lib/gcc/arm-none-eabi/9.2.1/../../../../arm-none-eabi/lib/thumb/v7-m/nofp\libg.a(lib_a-strspn.o)
 .bss           0x00000000        0x0 c:/chibistudio/tools/gnu tools arm embedded/9.0 2019q4/bin/../lib/gcc/arm-none-eabi/9.2.1/../../../../arm-none-eabi/lib/thumb/v7-m/nofp\libg.a(lib_a-strspn.o)

Memory Configuration

Name             Origin             Length             Attributes
flash0           0x08000000         0x00020000         xr
flash1           0x00000000         0x00000000         xr
flash2           0x00000000         0x00000000         xr
flash3           0x00000000         0x00000000         xr
flash4           0x00000000         0x00000000         xr
flash5           0x00000000         0x00000000         xr
flash6           0x00000000         0x00000000         xr
flash7           0x00000000         0x00000000         xr
ram0             0x20000000         0x00005000         xw
ram1             0x00000000         0x00000000         xw
ram2             0x00000000         0x00000000         xw
ram3             0x00000000         0x00000000         xw
ram4             0x00000000         0x00000000         xw
ram5             0x00000000         0x00000000         xw
ram6             0x00000000         0x00000000         xw
ram7             0x00000000         0x00000000         xw
*default*        0x00000000         0xffffffff

Linker script and memory map

LOAD ./build/obj/crt0_v7m.o
LOAD ./build/obj/vectors.o
LOAD ./build/obj/chcoreasm_v7m.o
LOAD C:\Users\RAKIBU~1\AppData\Local\Temp\ch.elf.ULtIRf.ltrans0.ltrans.o
LOAD C:\Users\RAKIBU~1\AppData\Local\Temp\ch.elf.ULtIRf.ltrans1.ltrans.o
LOAD C:\Users\RAKIBU~1\AppData\Local\Temp\cch5nJgM.debug.temp.o
LOAD C:\Users\RAKIBU~1\AppData\Local\Temp\ccmroM3f.debug.temp.o
LOAD C:\Users\RAKIBU~1\AppData\Local\Temp\ccRgbWpJ.debug.temp.o
LOAD C:\Users\RAKIBU~1\AppData\Local\Temp\ccwdJDrd.debug.temp.o
LOAD C:\Users\RAKIBU~1\AppData\Local\Temp\ccxvOrNF.debug.temp.o
LOAD C:\Users\RAKIBU~1\AppData\Local\Temp\ccuHb8T8.debug.temp.o
LOAD C:\Users\RAKIBU~1\AppData\Local\Temp\ccxo170E.debug.temp.o
LOAD C:\Users\RAKIBU~1\AppData\Local\Temp\ccMfTFNb.debug.temp.o
LOAD C:\Users\RAKIBU~1\AppData\Local\Temp\ccDuRjaI.debug.temp.o
LOAD C:\Users\RAKIBU~1\AppData\Local\Temp\ccEifbRc.debug.temp.o
LOAD C:\Users\RAKIBU~1\AppData\Local\Temp\cct8M7cI.debug.temp.o
LOAD C:\Users\RAKIBU~1\AppData\Local\Temp\ccq6WkEg.debug.temp.o
LOAD C:\Users\RAKIBU~1\AppData\Local\Temp\ccVlNPLP.debug.temp.o
LOAD C:\Users\RAKIBU~1\AppData\Local\Temp\ccQAGjoo.debug.temp.o
LOAD C:\Users\RAKIBU~1\AppData\Local\Temp\ccp63NkV.debug.temp.o
LOAD C:\Users\RAKIBU~1\AppData\Local\Temp\ccQfGwWs.debug.temp.o
LOAD C:\Users\RAKIBU~1\AppData\Local\Temp\ccl1YbE3.debug.temp.o
LOAD C:\Users\RAKIBU~1\AppData\Local\Temp\cca76SWE.debug.temp.o
LOAD C:\Users\RAKIBU~1\AppData\Local\Temp\cclCSeAe.debug.temp.o
LOAD C:\Users\RAKIBU~1\AppData\Local\Temp\ccWAiDOO.debug.temp.o
LOAD C:\Users\RAKIBU~1\AppData\Local\Temp\ccFDYt3r.debug.temp.o
LOAD C:\Users\RAKIBU~1\AppData\Local\Temp\cccOzMN4.debug.temp.o
LOAD C:\Users\RAKIBU~1\AppData\Local\Temp\cc9rP78H.debug.temp.o
LOAD C:\Users\RAKIBU~1\AppData\Local\Temp\ccaY5fOj.debug.temp.o
LOAD C:\Users\RAKIBU~1\AppData\Local\Temp\ccLM084V.debug.temp.o
LOAD C:\Users\RAKIBU~1\AppData\Local\Temp\ccgSPRmB.debug.temp.o
LOAD C:\Users\RAKIBU~1\AppData\Local\Temp\ccXBqgoh.debug.temp.o
LOAD C:\Users\RAKIBU~1\AppData\Local\Temp\cci81NJV.debug.temp.o
LOAD C:\Users\RAKIBU~1\AppData\Local\Temp\ccTqmAAz.debug.temp.o
LOAD C:\Users\RAKIBU~1\AppData\Local\Temp\ccGTIU6d.debug.temp.o
LOAD C:\Users\RAKIBU~1\AppData\Local\Temp\ccrfkuIV.debug.temp.o
LOAD C:\Users\RAKIBU~1\AppData\Local\Temp\cc6T6f0D.debug.temp.o
LOAD C:\Users\RAKIBU~1\AppData\Local\Temp\ccLmp5Bk.debug.temp.o
LOAD C:\Users\RAKIBU~1\AppData\Local\Temp\ccSRFCX1.debug.temp.o
LOAD C:\Users\RAKIBU~1\AppData\Local\Temp\ccdyOYNI.debug.temp.o
LOAD C:\Users\RAKIBU~1\AppData\Local\Temp\ccacQuKs.debug.temp.o
LOAD C:\Users\RAKIBU~1\AppData\Local\Temp\ccbihpmd.debug.temp.o
LOAD C:\Users\RAKIBU~1\AppData\Local\Temp\ccqx9oiW.debug.temp.o
LOAD C:\Users\RAKIBU~1\AppData\Local\Temp\ccD7UjYF.debug.temp.o
LOAD C:\Users\RAKIBU~1\AppData\Local\Temp\ccy69Y8o.debug.temp.o
LOAD C:\Users\RAKIBU~1\AppData\Local\Temp\ccFTVllb.debug.temp.o
LOAD C:\Users\RAKIBU~1\AppData\Local\Temp\ccKt1dhY.debug.temp.o
LOAD C:\Users\RAKIBU~1\AppData\Local\Temp\ccZCwjxJ.debug.temp.o
LOAD C:\Users\RAKIBU~1\AppData\Local\Temp\cc2lLTsv.debug.temp.o
LOAD C:\Users\RAKIBU~1\AppData\Local\Temp\ccrCn4pk.debug.temp.o
LOAD C:\Users\RAKIBU~1\AppData\Local\Temp\ccAOt7V8.debug.temp.o
LOAD C:\Users\RAKIBU~1\AppData\Local\Temp\cc7ypz8X.debug.temp.o
LOAD C:\Users\RAKIBU~1\AppData\Local\Temp\ccaO6jEL.debug.temp.o
LOAD C:\Users\RAKIBU~1\AppData\Local\Temp\ccNp4TUz.debug.temp.o
LOAD C:\Users\RAKIBU~1\AppData\Local\Temp\cc4laSbr.debug.temp.o
LOAD C:\Users\RAKIBU~1\AppData\Local\Temp\cchAui2h.debug.temp.o
LOAD C:\Users\RAKIBU~1\AppData\Local\Temp\ccOe3Py9.debug.temp.o
LOAD C:\Users\RAKIBU~1\AppData\Local\Temp\cc3LaxpZ.debug.temp.o
LOAD C:\Users\RAKIBU~1\AppData\Local\Temp\ccC99UZP.debug.temp.o
LOAD C:\Users\RAKIBU~1\AppData\Local\Temp\ccrPy3AJ.debug.temp.o
LOAD C:\Users\RAKIBU~1\AppData\Local\Temp\ccQljqMC.debug.temp.o
LOAD C:\Users\RAKIBU~1\AppData\Local\Temp\ccBhtmDw.debug.temp.o
LOAD C:\Users\RAKIBU~1\AppData\Local\Temp\cc4zVzSo.debug.temp.o
LOAD C:\Users\RAKIBU~1\AppData\Local\Temp\cc78exNh.debug.temp.o
LOAD C:\Users\RAKIBU~1\AppData\Local\Temp\ccWMCzNd.debug.temp.o
LOAD C:\Users\RAKIBU~1\AppData\Local\Temp\ccxV1mi9.debug.temp.o
LOAD C:\Users\RAKIBU~1\AppData\Local\Temp\cca7x3x5.debug.temp.o
LOAD C:\Users\RAKIBU~1\AppData\Local\Temp\ccL3iN7Z.debug.temp.o
LOAD C:\Users\RAKIBU~1\AppData\Local\Temp\ccWGiAmV.debug.temp.o
LOAD C:\Users\RAKIBU~1\AppData\Local\Temp\ccX2tSGT.debug.temp.o
LOAD C:\Users\RAKIBU~1\AppData\Local\Temp\ccOzRCwR.debug.temp.o
LOAD C:\Users\RAKIBU~1\AppData\Local\Temp\cc9bu55P.debug.temp.o
LOAD C:\Users\RAKIBU~1\AppData\Local\Temp\ccEnwLZM.debug.temp.o
LOAD C:\Users\RAKIBU~1\AppData\Local\Temp\cchbm8uK.debug.temp.o
LOAD C:\Users\RAKIBU~1\AppData\Local\Temp\ccgqGw5K.debug.temp.o
LOAD C:\Users\RAKIBU~1\AppData\Local\Temp\cctSjtlM.debug.temp.o
LOAD C:\Users\RAKIBU~1\AppData\Local\Temp\ccmCpTQL.debug.temp.o
LOAD C:\Users\RAKIBU~1\AppData\Local\Temp\ccRJBpWK.debug.temp.o
LOAD C:\Users\RAKIBU~1\AppData\Local\Temp\ccKjuvHK.debug.temp.o
LOAD C:\Users\RAKIBU~1\AppData\Local\Temp\ccnttPtN.debug.temp.o
LOAD C:\Users\RAKIBU~1\AppData\Local\Temp\cckt4zVQ.debug.temp.o
LOAD C:\Users\RAKIBU~1\AppData\Local\Temp\ccZluKLS.debug.temp.o
LOAD C:\Users\RAKIBU~1\AppData\Local\Temp\ccexyFdV.debug.temp.o
LOAD C:\Users\RAKIBU~1\AppData\Local\Temp\ccpYxvaX.debug.temp.o

.mstack         0x20000000      0x400
                0x20000000                . = ALIGN (0x8)
                0x20000000                __main_stack_base__ = .
                0x20000400                . = (. + __main_stack_size__)
 *fill*         0x20000000      0x400 
                0x20000400                . = ALIGN (0x8)
                0x20000400                __main_stack_end__ = .

.pstack         0x20000400      0x400
                0x20000400                . = ALIGN (0x8)
                0x20000400                __process_stack_base__ = .
                0x20000400                __main_thread_stack_base__ = .
                0x20000800                . = (. + __process_stack_size__)
 *fill*         0x20000400      0x400 
                0x20000800                . = ALIGN (0x8)
                0x20000800                __process_stack_end__ = .
                0x20000800                __main_thread_stack_end__ = .

.vectors        0x08000000      0x160
 *(.vectors)
 .vectors       0x08000000      0x160 ./build/obj/vectors.o
                0x08000000                _vectors

.xtors          0x08000160        0x0
                0x08000160                __init_array_base__ = .
 *(SORT_BY_NAME(.init_array.*))
 *(.init_array)
                0x08000160                __init_array_end__ = .
                0x08000160                __fini_array_base__ = .
 *(.fini_array)
 *(SORT_BY_NAME(.fini_array.*))
                0x08000160                __fini_array_end__ = .

.text           0x08000160     0xc444
                0x08000160                __text_base__ = .
 *(.text)
 .text          0x08000160       0xd8 ./build/obj/crt0_v7m.o
                0x08000160                _crt0_entry
 .text          0x08000238        0x8 ./build/obj/vectors.o
                0x08000238                Reset_Handler
                0x0800023a                VectorE8
                0x0800023a                Vector9C
                0x0800023a                VectorAC
                0x0800023a                DebugMon_Handler
                0x0800023a                Vector5C
                0x0800023a                Vector11C
                0x0800023a                HardFault_Handler
                0x0800023a                Vector8C
                0x0800023a                SysTick_Handler
                0x0800023a                VectorDC
                0x0800023a                PendSV_Handler
                0x0800023a                NMI_Handler
                0x0800023a                Vector110
                0x0800023a                Vector120
                0x0800023a                VectorC8
                0x0800023a                Vector94
                0x0800023a                VectorA8
                0x0800023a                VectorB4
                0x0800023a                UsageFault_Handler
                0x0800023a                VectorEC
                0x0800023a                Vector40
                0x0800023a                VectorF8
                0x0800023a                Vector108
                0x0800023a                VectorBC
                0x0800023a                Vector150
                0x0800023a                Vector124
                0x0800023a                Vector148
                0x0800023a                Vector118
                0x0800023a                Vector64
                0x0800023a                Vector58
                0x0800023a                VectorCC
                0x0800023a                Vector54
                0x0800023a                Vector98
                0x0800023a                Vector138
                0x0800023a                Vector24
                0x0800023a                VectorD0
                0x0800023a                Vector140
                0x0800023a                VectorE4
                0x0800023a                VectorC0
                0x0800023a                Vector158
                0x0800023a                Vector130
                0x0800023a                Vector134
                0x0800023a                VectorF0
                0x0800023a                Vector12C
                0x0800023a                Vector13C
                0x0800023a                Vector100
                0x0800023a                VectorE0
                0x0800023a                VectorF4
                0x0800023a                MemManage_Handler
                0x0800023a                VectorA0
                0x0800023a                VectorC4
                0x0800023a                Vector90
                0x0800023a                Vector114
                0x0800023a                Vector60
                0x0800023a                Vector1C
                0x0800023a                Vector48
                0x0800023a                VectorD4
                0x0800023a                Vector4C
                0x0800023a                Vector144
                0x0800023a                Vector15C
                0x0800023a                Vector68
                0x0800023a                VectorA4
                0x0800023a                Vector88
                0x0800023a                Vector104
                0x0800023a                Vector10C
                0x0800023a                Vector14C
                0x0800023a                BusFault_Handler
                0x0800023a                Vector50
                0x0800023a                Vector154
                0x0800023a                Vector44
                0x0800023a                Vector28
                0x0800023a                VectorB8
                0x0800023a                VectorFC
                0x0800023a                Vector34
                0x0800023a                Vector128
                0x0800023a                Vector20
                0x0800023e                _unhandled_exception
 .text          0x08000240       0x2a ./build/obj/chcoreasm_v7m.o
                0x08000240                _port_switch
                0x08000250                _port_thread_start
                0x08000262                _port_switch_from_isr
                0x08000266                _port_exit_from_isr
 *fill*         0x0800026a        0x2 
 .text          0x0800026c       0xec c:/chibistudio/tools/gnu tools arm embedded/9.0 2019q4/bin/../lib/gcc/arm-none-eabi/9.2.1/../../../../arm-none-eabi/lib/thumb/v7-m/nofp\libg.a(lib_a-memcpy.o)
                0x0800026c                memcpy
 .text          0x08000358      0x1bc c:/chibistudio/tools/gnu tools arm embedded/9.0 2019q4/bin/../lib/gcc/arm-none-eabi/9.2.1/../../../../arm-none-eabi/lib/thumb/v7-m/nofp\libg.a(lib_a-strcmp.o)
                0x08000358                strcmp
 *(.text.*)
 *fill*         0x08000514        0xc 
 .text.chMtxTryLock.constprop.0
                0x08000520       0x34 C:\Users\RAKIBU~1\AppData\Local\Temp\ch.elf.ULtIRf.ltrans0.ltrans.o
 *fill*         0x08000554        0xc 
 .text.chEvtRegisterMaskWithFlags.constprop.0
                0x08000560       0x2c C:\Users\RAKIBU~1\AppData\Local\Temp\ch.elf.ULtIRf.ltrans0.ltrans.o
 *fill*         0x0800058c        0x4 
 .text.chEvtGetAndClearEvents.constprop.0
                0x08000590       0x1c C:\Users\RAKIBU~1\AppData\Local\Temp\ch.elf.ULtIRf.ltrans0.ltrans.o
 *fill*         0x080005ac        0x4 
 .text._test_assert_time_window.constprop.0
                0x080005b0       0x3c C:\Users\RAKIBU~1\AppData\Local\Temp\ch.elf.ULtIRf.ltrans0.ltrans.o
 *fill*         0x080005ec        0x4 
 .text.oslib_test_008_001_setup.lto_priv.0
                0x080005f0       0x38 C:\Users\RAKIBU~1\AppData\Local\Temp\ch.elf.ULtIRf.ltrans0.ltrans.o
                0x080005f0                oslib_test_008_001_setup.lto_priv.0
 *fill*         0x08000628        0x8 
 .text.oslib_test_007_003_setup.lto_priv.0
                0x08000630       0x1c C:\Users\RAKIBU~1\AppData\Local\Temp\ch.elf.ULtIRf.ltrans0.ltrans.o
                0x08000630                oslib_test_007_003_setup.lto_priv.0
 *fill*         0x0800064c        0x4 
 .text.oslib_test_007_002_setup
                0x08000650        0x4 C:\Users\RAKIBU~1\AppData\Local\Temp\ch.elf.ULtIRf.ltrans0.ltrans.o
                0x08000650                oslib_test_007_002_setup.lto_priv.0
 *fill*         0x08000654        0xc 
 .text.null_provider
                0x08000660        0x4 C:\Users\RAKIBU~1\AppData\Local\Temp\ch.elf.ULtIRf.ltrans0.ltrans.o
 *fill*         0x08000664        0xc 
 .text.oslib_test_007_001_setup.lto_priv.0
                0x08000670       0x14 C:\Users\RAKIBU~1\AppData\Local\Temp\ch.elf.ULtIRf.ltrans0.ltrans.o
                0x08000670                oslib_test_007_001_setup.lto_priv.0
 *fill*         0x08000684        0xc 
 .text.oslib_test_003_002_setup.lto_priv.0
                0x08000690       0x48 C:\Users\RAKIBU~1\AppData\Local\Temp\ch.elf.ULtIRf.ltrans0.ltrans.o
                0x08000690                oslib_test_003_002_setup.lto_priv.0
 *fill*         0x080006d8        0x8 
 .text.oslib_test_003_001_setup.lto_priv.0
                0x080006e0       0x48 C:\Users\RAKIBU~1\AppData\Local\Temp\ch.elf.ULtIRf.ltrans0.ltrans.o
                0x080006e0                oslib_test_003_001_setup.lto_priv.0
 *fill*         0x08000728        0x8 
 .text.oslib_test_002_003_setup.lto_priv.0
                0x08000730       0x34 C:\Users\RAKIBU~1\AppData\Local\Temp\ch.elf.ULtIRf.ltrans0.ltrans.o
                0x08000730                oslib_test_002_003_setup.lto_priv.0
 *fill*         0x08000764        0xc 
 .text.oslib_test_002_002_setup
                0x08000770        0x4 C:\Users\RAKIBU~1\AppData\Local\Temp\ch.elf.ULtIRf.ltrans0.ltrans.o
                0x08000770                oslib_test_002_002_setup.lto_priv.0
 *fill*         0x08000774        0xc 
 .text.oslib_test_002_001_setup
                0x08000780        0x4 C:\Users\RAKIBU~1\AppData\Local\Temp\ch.elf.ULtIRf.ltrans0.ltrans.o
                0x08000780                oslib_test_002_001_setup.lto_priv.0
 *fill*         0x08000784        0xc 
 .text.rt_test_011_011_setup.lto_priv.0
                0x08000790       0x10 C:\Users\RAKIBU~1\AppData\Local\Temp\ch.elf.ULtIRf.ltrans0.ltrans.o
                0x08000790                rt_test_011_011_setup.lto_priv.0
 .text.rt_test_011_010_setup.lto_priv.0
                0x080007a0       0x10 C:\Users\RAKIBU~1\AppData\Local\Temp\ch.elf.ULtIRf.ltrans0.ltrans.o
                0x080007a0                rt_test_011_010_setup.lto_priv.0
 .text.tmo      0x080007b0        0x4 C:\Users\RAKIBU~1\AppData\Local\Temp\ch.elf.ULtIRf.ltrans0.ltrans.o
 *fill*         0x080007b4        0xc 
 .text.rt_test_011_007_setup.lto_priv.0
                0x080007c0       0x10 C:\Users\RAKIBU~1\AppData\Local\Temp\ch.elf.ULtIRf.ltrans0.ltrans.o
                0x080007c0                rt_test_011_007_setup.lto_priv.0
 .text.rt_test_010_002_setup.lto_priv.0
                0x080007d0       0x18 C:\Users\RAKIBU~1\AppData\Local\Temp\ch.elf.ULtIRf.ltrans0.ltrans.o
                0x080007d0                rt_test_010_002_setup.lto_priv.0
 *fill*         0x080007e8        0x8 
 .text.rt_test_010_001_setup.lto_priv.0
                0x080007f0       0x38 C:\Users\RAKIBU~1\AppData\Local\Temp\ch.elf.ULtIRf.ltrans0.ltrans.o
                0x080007f0                rt_test_010_001_setup.lto_priv.0
 *fill*         0x08000828        0x8 
 .text.rt_test_009_007_setup.lto_priv.0
                0x08000830       0x18 C:\Users\RAKIBU~1\AppData\Local\Temp\ch.elf.ULtIRf.ltrans0.ltrans.o
                0x08000830                rt_test_009_007_setup.lto_priv.0
 *fill*         0x08000848        0x8 
 .text.rt_test_009_006_setup.lto_priv.0
                0x08000850        0x4 C:\Users\RAKIBU~1\AppData\Local\Temp\ch.elf.ULtIRf.ltrans0.ltrans.o
                0x08000850                rt_test_009_006_setup.lto_priv.0
 *fill*         0x08000854        0xc 
 .text.rt_test_009_005_setup
                0x08000860        0x4 C:\Users\RAKIBU~1\AppData\Local\Temp\ch.elf.ULtIRf.ltrans0.ltrans.o
                0x08000860                rt_test_009_005_setup.lto_priv.0
 *fill*         0x08000864        0xc 
 .text.rt_test_009_004_setup
                0x08000870        0x4 C:\Users\RAKIBU~1\AppData\Local\Temp\ch.elf.ULtIRf.ltrans0.ltrans.o
                0x08000870                rt_test_009_004_setup.lto_priv.0
 *fill*         0x08000874        0xc 
 .text.rt_test_009_003_setup
                0x08000880        0x4 C:\Users\RAKIBU~1\AppData\Local\Temp\ch.elf.ULtIRf.ltrans0.ltrans.o
                0x08000880                rt_test_009_003_setup.lto_priv.0
 *fill*         0x08000884        0xc 
 .text.rt_test_009_002_setup
                0x08000890        0x4 C:\Users\RAKIBU~1\AppData\Local\Temp\ch.elf.ULtIRf.ltrans0.ltrans.o
                0x08000890                rt_test_009_002_setup.lto_priv.0
 *fill*         0x08000894        0xc 
 .text.rt_test_007_009_setup.lto_priv.0
                0x080008a0       0x28 C:\Users\RAKIBU~1\AppData\Local\Temp\ch.elf.ULtIRf.ltrans0.ltrans.o
                0x080008a0                rt_test_007_009_setup.lto_priv.0
 *fill*         0x080008c8        0x8 
 .text.rt_test_007_008_setup.lto_priv.0
                0x080008d0       0x1c C:\Users\RAKIBU~1\AppData\Local\Temp\ch.elf.ULtIRf.ltrans0.ltrans.o
                0x080008d0                rt_test_007_008_setup.lto_priv.0
 *fill*         0x080008ec        0x4 
 .text.rt_test_007_007_setup
                0x080008f0        0x4 C:\Users\RAKIBU~1\AppData\Local\Temp\ch.elf.ULtIRf.ltrans0.ltrans.o
                0x080008f0                rt_test_007_007_setup.lto_priv.0
 *fill*         0x080008f4        0xc 
 .text.rt_test_007_005_setup.lto_priv.0
                0x08000900       0x10 C:\Users\RAKIBU~1\AppData\Local\Temp\ch.elf.ULtIRf.ltrans0.ltrans.o
                0x08000900                rt_test_007_005_setup.lto_priv.0
 .text.rt_test_007_004_setup.lto_priv.0
                0x08000910       0x1c C:\Users\RAKIBU~1\AppData\Local\Temp\ch.elf.ULtIRf.ltrans0.ltrans.o
                0x08000910                rt_test_007_004_setup.lto_priv.0
 *fill*         0x0800092c        0x4 
 .text.rt_test_007_001_setup
                0x08000930        0x4 C:\Users\RAKIBU~1\AppData\Local\Temp\ch.elf.ULtIRf.ltrans0.ltrans.o
                0x08000930                rt_test_007_001_setup.lto_priv.0
 *fill*         0x08000934        0xc 
 .text.chSemWaitTimeout.constprop.0
                0x08000940       0x50 C:\Users\RAKIBU~1\AppData\Local\Temp\ch.elf.ULtIRf.ltrans0.ltrans.o
 .text.chEvtWaitOneTimeout.constprop.0
                0x08000990       0x4c C:\Users\RAKIBU~1\AppData\Local\Temp\ch.elf.ULtIRf.ltrans0.ltrans.o
 *fill*         0x080009dc        0x4 
 .text.rt_test_006_005_setup.lto_priv.0
                0x080009e0       0x10 C:\Users\RAKIBU~1\AppData\Local\Temp\ch.elf.ULtIRf.ltrans0.ltrans.o
                0x080009e0                rt_test_006_005_setup.lto_priv.0
 .text.rt_test_006_004_setup
                0x080009f0        0x4 C:\Users\RAKIBU~1\AppData\Local\Temp\ch.elf.ULtIRf.ltrans0.ltrans.o
                0x080009f0                rt_test_006_004_setup.lto_priv.0
 *fill*         0x080009f4        0xc 
 .text.rt_test_006_003_setup
                0x08000a00        0x4 C:\Users\RAKIBU~1\AppData\Local\Temp\ch.elf.ULtIRf.ltrans0.ltrans.o
                0x08000a00                rt_test_006_003_setup.lto_priv.0
 *fill*         0x08000a04        0xc 
 .text.rt_test_006_002_setup
                0x08000a10        0x4 C:\Users\RAKIBU~1\AppData\Local\Temp\ch.elf.ULtIRf.ltrans0.ltrans.o
                0x08000a10                rt_test_006_002_setup.lto_priv.0
 *fill*         0x08000a14        0xc 
 .text.rt_test_006_001_setup.lto_priv.0
                0x08000a20       0x10 C:\Users\RAKIBU~1\AppData\Local\Temp\ch.elf.ULtIRf.ltrans0.ltrans.o
                0x08000a20                rt_test_006_001_setup.lto_priv.0
 .text.rt_test_005_001_setup.lto_priv.0
                0x08000a30        0xc C:\Users\RAKIBU~1\AppData\Local\Temp\ch.elf.ULtIRf.ltrans0.ltrans.o
                0x08000a30                rt_test_005_001_setup.lto_priv.0
 *fill*         0x08000a3c        0x4 
 .text._test_assert
                0x08000a40       0x28 C:\Users\RAKIBU~1\AppData\Local\Temp\ch.elf.ULtIRf.ltrans0.ltrans.o
 *fill*         0x08000a68        0x8 
 .text.rt_test_003_002_execute.lto_priv.0
                0x08000a70        0xc C:\Users\RAKIBU~1\AppData\Local\Temp\ch.elf.ULtIRf.ltrans0.ltrans.o
                0x08000a70                rt_test_003_002_execute.lto_priv.0
 *fill*         0x08000a7c        0x4 
 .text.rt_test_003_001_execute.lto_priv.0
                0x08000a80       0x20 C:\Users\RAKIBU~1\AppData\Local\Temp\ch.elf.ULtIRf.ltrans0.ltrans.o
                0x08000a80                rt_test_003_001_execute.lto_priv.0
 .text.rt_test_002_003_execute.lto_priv.0
                0x08000aa0       0x24 C:\Users\RAKIBU~1\AppData\Local\Temp\ch.elf.ULtIRf.ltrans0.ltrans.o
                0x08000aa0                rt_test_002_003_execute.lto_priv.0
 *fill*         0x08000ac4        0xc 
 .text.test_terminate_threads
                0x08000ad0       0x34 C:\Users\RAKIBU~1\AppData\Local\Temp\ch.elf.ULtIRf.ltrans0.ltrans.o
 *fill*         0x08000b04        0xc 
 .text.test_printn.part.0
                0x08000b10       0x54 C:\Users\RAKIBU~1\AppData\Local\Temp\ch.elf.ULtIRf.ltrans0.ltrans.o
 *fill*         0x08000b64        0xc 
 .text.test_printn
                0x08000b70       0x18 C:\Users\RAKIBU~1\AppData\Local\Temp\ch.elf.ULtIRf.ltrans0.ltrans.o
 *fill*         0x08000b88        0x8 
 .text.test_emit_token
                0x08000b90       0x28 C:\Users\RAKIBU~1\AppData\Local\Temp\ch.elf.ULtIRf.ltrans0.ltrans.o
 *fill*         0x08000bb8        0x8 
 .text.obj_write
                0x08000bc0       0x10 C:\Users\RAKIBU~1\AppData\Local\Temp\ch.elf.ULtIRf.ltrans0.ltrans.o
 .text.dis_func0
                0x08000bd0       0x10 C:\Users\RAKIBU~1\AppData\Local\Temp\ch.elf.ULtIRf.ltrans0.ltrans.o
 .text.dis_func1
                0x08000be0       0x10 C:\Users\RAKIBU~1\AppData\Local\Temp\ch.elf.ULtIRf.ltrans0.ltrans.o
 .text.dis_func2
                0x08000bf0       0x18 C:\Users\RAKIBU~1\AppData\Local\Temp\ch.elf.ULtIRf.ltrans0.ltrans.o
 *fill*         0x08000c08        0x8 
 .text.dis_func3
                0x08000c10       0x20 C:\Users\RAKIBU~1\AppData\Local\Temp\ch.elf.ULtIRf.ltrans0.ltrans.o
 .text.dis_func4
                0x08000c30       0x28 C:\Users\RAKIBU~1\AppData\Local\Temp\ch.elf.ULtIRf.ltrans0.ltrans.o
 *fill*         0x08000c58        0x8 
 .text.dis_func_end
                0x08000c60       0x18 C:\Users\RAKIBU~1\AppData\Local\Temp\ch.elf.ULtIRf.ltrans0.ltrans.o
 *fill*         0x08000c78        0x8 
 .text.h3       0x08000c80        0x8 C:\Users\RAKIBU~1\AppData\Local\Temp\ch.elf.ULtIRf.ltrans0.ltrans.o
 *fill*         0x08000c88        0x8 
 .text.h2       0x08000c90        0x8 C:\Users\RAKIBU~1\AppData\Local\Temp\ch.elf.ULtIRf.ltrans0.ltrans.o
 *fill*         0x08000c98        0x8 
 .text.h1       0x08000ca0        0x8 C:\Users\RAKIBU~1\AppData\Local\Temp\ch.elf.ULtIRf.ltrans0.ltrans.o
 *fill*         0x08000ca8        0x8 
 .text.thread   0x08000cb0        0x8 C:\Users\RAKIBU~1\AppData\Local\Temp\ch.elf.ULtIRf.ltrans0.ltrans.o
 *fill*         0x08000cb8        0x8 
 .text.dyn_thread1
                0x08000cc0        0x4 C:\Users\RAKIBU~1\AppData\Local\Temp\ch.elf.ULtIRf.ltrans0.ltrans.o
 *fill*         0x08000cc4        0xc 
 .text.test_println
                0x08000cd0       0x38 C:\Users\RAKIBU~1\AppData\Local\Temp\ch.elf.ULtIRf.ltrans0.ltrans.o
 *fill*         0x08000d08        0x8 
 .text.test_print
                0x08000d10       0x24 C:\Users\RAKIBU~1\AppData\Local\Temp\ch.elf.ULtIRf.ltrans0.ltrans.o
 *fill*         0x08000d34        0xc 
 .text._test_assert_sequence
                0x08000d40       0x4c C:\Users\RAKIBU~1\AppData\Local\Temp\ch.elf.ULtIRf.ltrans0.ltrans.o
 *fill*         0x08000d8c        0x4 
 .text.print_line
                0x08000d90       0x2c C:\Users\RAKIBU~1\AppData\Local\Temp\ch.elf.ULtIRf.ltrans0.ltrans.o
 *fill*         0x08000dbc        0x4 
 .text.ff_uni2oem.part.0
                0x08000dc0       0x30 C:\Users\RAKIBU~1\AppData\Local\Temp\ch.elf.ULtIRf.ltrans0.ltrans.o
 .text.ff_wtoupper
                0x08000df0       0xb0 C:\Users\RAKIBU~1\AppData\Local\Temp\ch.elf.ULtIRf.ltrans0.ltrans.o
 .text.init_alloc_info.isra.0
                0x08000ea0       0x6c C:\Users\RAKIBU~1\AppData\Local\Temp\ch.elf.ULtIRf.ltrans0.ltrans.o
 *fill*         0x08000f0c        0x4 
 .text.get_ldnumber
                0x08000f10       0x30 C:\Users\RAKIBU~1\AppData\Local\Temp\ch.elf.ULtIRf.ltrans0.ltrans.o
 .text.put_utf  0x08000f40       0x3c C:\Users\RAKIBU~1\AppData\Local\Temp\ch.elf.ULtIRf.ltrans0.ltrans.o
 *fill*         0x08000f7c        0x4 
 .text.disk_initialize.part.0
                0x08000f80       0x20 C:\Users\RAKIBU~1\AppData\Local\Temp\ch.elf.ULtIRf.ltrans0.ltrans.o
 .text.RemoveHandler
                0x08000fa0       0x18 C:\Users\RAKIBU~1\AppData\Local\Temp\ch.elf.ULtIRf.ltrans0.ltrans.o
 *fill*         0x08000fb8        0x8 
 .text.chThdDequeueAllI.constprop.0
                0x08000fc0       0x24 C:\Users\RAKIBU~1\AppData\Local\Temp\ch.elf.ULtIRf.ltrans0.ltrans.o
 *fill*         0x08000fe4        0xc 
 .text.chCondSignalI.constprop.0
                0x08000ff0       0x1c C:\Users\RAKIBU~1\AppData\Local\Temp\ch.elf.ULtIRf.ltrans0.ltrans.o
 *fill*         0x0800100c        0x4 
 .text.chThdCreateStatic.constprop.0
                0x08001010       0x7c C:\Users\RAKIBU~1\AppData\Local\Temp\ch.elf.ULtIRf.ltrans0.ltrans.o
 *fill*         0x0800108c        0x4 
 .text.chCondSignal.constprop.0
                0x08001090       0x28 C:\Users\RAKIBU~1\AppData\Local\Temp\ch.elf.ULtIRf.ltrans0.ltrans.o
 *fill*         0x080010b8        0x8 
 .text.chSemResetWithMessage.constprop.0
                0x080010c0       0x38 C:\Users\RAKIBU~1\AppData\Local\Temp\ch.elf.ULtIRf.ltrans0.ltrans.o
 *fill*         0x080010f8        0x8 
 .text.rt_test_006_001_teardown.lto_priv.0
                0x08001100        0xc C:\Users\RAKIBU~1\AppData\Local\Temp\ch.elf.ULtIRf.ltrans0.ltrans.o
                0x08001100                rt_test_006_001_teardown.lto_priv.0
 *fill*         0x0800110c        0x4 
 .text.chMBReset.constprop.0
                0x08001110       0x38 C:\Users\RAKIBU~1\AppData\Local\Temp\ch.elf.ULtIRf.ltrans0.ltrans.o
 *fill*         0x08001148        0x8 
 .text.oslib_test_002_003_teardown.lto_priv.0
                0x08001150        0x4 C:\Users\RAKIBU~1\AppData\Local\Temp\ch.elf.ULtIRf.ltrans0.ltrans.o
                0x08001150                oslib_test_002_003_teardown.lto_priv.0
 *fill*         0x08001154        0xc 
 .text.oslib_test_002_002_teardown
                0x08001160        0x4 C:\Users\RAKIBU~1\AppData\Local\Temp\ch.elf.ULtIRf.ltrans0.ltrans.o
                0x08001160                oslib_test_002_002_teardown.lto_priv.0
 *fill*         0x08001164        0xc 
 .text.oslib_test_002_001_teardown
                0x08001170        0x4 C:\Users\RAKIBU~1\AppData\Local\Temp\ch.elf.ULtIRf.ltrans0.ltrans.o
                0x08001170                oslib_test_002_001_teardown.lto_priv.0
 *fill*         0x08001174        0xc 
 .text.chSemSignalWait.constprop.0
                0x08001180       0x68 C:\Users\RAKIBU~1\AppData\Local\Temp\ch.elf.ULtIRf.ltrans0.ltrans.o
 *fill*         0x080011e8        0x8 
 .text.rt_test_006_005_execute.lto_priv.0
                0x080011f0       0x9c C:\Users\RAKIBU~1\AppData\Local\Temp\ch.elf.ULtIRf.ltrans0.ltrans.o
                0x080011f0                rt_test_006_005_execute.lto_priv.0
 *fill*         0x0800128c        0x4 
 .text.chEvtWaitOne.constprop.0
                0x08001290       0x38 C:\Users\RAKIBU~1\AppData\Local\Temp\ch.elf.ULtIRf.ltrans0.ltrans.o
 *fill*         0x080012c8        0x8 
 .text.chEvtWaitAny.constprop.0
                0x080012d0       0x38 C:\Users\RAKIBU~1\AppData\Local\Temp\ch.elf.ULtIRf.ltrans0.ltrans.o
 *fill*         0x08001308        0x8 
 .text.chEvtWaitAll.constprop.0
                0x08001310       0x38 C:\Users\RAKIBU~1\AppData\Local\Temp\ch.elf.ULtIRf.ltrans0.ltrans.o
 *fill*         0x08001348        0x8 
 .text.bmk_thread4
                0x08001350       0x24 C:\Users\RAKIBU~1\AppData\Local\Temp\ch.elf.ULtIRf.ltrans0.ltrans.o
 *fill*         0x08001374        0xc 
 .text.thread9  0x08001380       0x20 C:\Users\RAKIBU~1\AppData\Local\Temp\ch.elf.ULtIRf.ltrans0.ltrans.o
 .text.rt_test_007_005_execute.lto_priv.0
                0x080013a0      0x15c C:\Users\RAKIBU~1\AppData\Local\Temp\ch.elf.ULtIRf.ltrans0.ltrans.o
                0x080013a0                rt_test_007_005_execute.lto_priv.0
 *fill*         0x080014fc        0x4 
 .text.thread1.lto_priv.2
                0x08001500       0x20 C:\Users\RAKIBU~1\AppData\Local\Temp\ch.elf.ULtIRf.ltrans0.ltrans.o
 .text.oslib_test_007_001_execute.lto_priv.0
                0x08001520      0x10c C:\Users\RAKIBU~1\AppData\Local\Temp\ch.elf.ULtIRf.ltrans0.ltrans.o
                0x08001520                oslib_test_007_001_execute.lto_priv.0
 *fill*         0x0800162c        0x4 
 .text.chThdCreateFromMemoryPool.constprop.0
                0x08001630       0x64 C:\Users\RAKIBU~1\AppData\Local\Temp\ch.elf.ULtIRf.ltrans0.ltrans.o
 *fill*         0x08001694        0xc 
 .text.oslib_test_001_003_execute.lto_priv.0
                0x080016a0      0x178 C:\Users\RAKIBU~1\AppData\Local\Temp\ch.elf.ULtIRf.ltrans0.ltrans.o
                0x080016a0                oslib_test_001_003_execute.lto_priv.0
 *fill*         0x08001818        0x8 
 .text.oslib_test_001_002_execute.lto_priv.0
                0x08001820       0x8c C:\Users\RAKIBU~1\AppData\Local\Temp\ch.elf.ULtIRf.ltrans0.ltrans.o
                0x08001820                oslib_test_001_002_execute.lto_priv.0
 *fill*         0x080018ac        0x4 
 .text.rt_test_011_012_execute.lto_priv.0
                0x080018b0       0xfc C:\Users\RAKIBU~1\AppData\Local\Temp\ch.elf.ULtIRf.ltrans0.ltrans.o
                0x080018b0                rt_test_011_012_execute.lto_priv.0
 *fill*         0x080019ac        0x4 
 .text.rt_test_009_006_execute.lto_priv.0
                0x080019b0      0x114 C:\Users\RAKIBU~1\AppData\Local\Temp\ch.elf.ULtIRf.ltrans0.ltrans.o
                0x080019b0                rt_test_009_006_execute.lto_priv.0
 *fill*         0x08001ac4        0xc 
 .text.rt_test_001_003_execute.lto_priv.0
                0x08001ad0      0x2d8 C:\Users\RAKIBU~1\AppData\Local\Temp\ch.elf.ULtIRf.ltrans0.ltrans.o
                0x08001ad0                rt_test_001_003_execute.lto_priv.0
 *fill*         0x08001da8        0x8 
 .text.rt_test_001_002_execute.lto_priv.0
                0x08001db0       0x8c C:\Users\RAKIBU~1\AppData\Local\Temp\ch.elf.ULtIRf.ltrans0.ltrans.o
                0x08001db0                rt_test_001_002_execute.lto_priv.0
 *fill*         0x08001e3c        0x4 
 .text.rt_test_001_001_execute.lto_priv.0
                0x08001e40       0xa8 C:\Users\RAKIBU~1\AppData\Local\Temp\ch.elf.ULtIRf.ltrans0.ltrans.o
                0x08001e40                rt_test_001_001_execute.lto_priv.0
 *fill*         0x08001ee8        0x8 
 .text.oslib_test_001_001_execute
                0x08001ef0        0x4 C:\Users\RAKIBU~1\AppData\Local\Temp\ch.elf.ULtIRf.ltrans0.ltrans.o
                0x08001ef0                oslib_test_001_001_execute.lto_priv.0
 *fill*         0x08001ef4        0xc 
 .text.chPipeWriteTimeout.constprop.0
                0x08001f00       0xf4 C:\Users\RAKIBU~1\AppData\Local\Temp\ch.elf.ULtIRf.ltrans0.ltrans.o
 *fill*         0x08001ff4        0xc 
 .text.chPipeReadTimeout.constprop.0
                0x08002000       0xe8 C:\Users\RAKIBU~1\AppData\Local\Temp\ch.elf.ULtIRf.ltrans0.ltrans.o
 *fill*         0x080020e8        0x8 
 .text.oslib_test_003_002_execute.lto_priv.0
                0x080020f0       0x9c C:\Users\RAKIBU~1\AppData\Local\Temp\ch.elf.ULtIRf.ltrans0.ltrans.o
                0x080020f0                oslib_test_003_002_execute.lto_priv.0
 *fill*         0x0800218c        0x4 
 .text.chCacheGetObject.constprop.0
                0x08002190      0x10c C:\Users\RAKIBU~1\AppData\Local\Temp\ch.elf.ULtIRf.ltrans0.ltrans.o
 *fill*         0x0800229c        0x4 
 .text.chFactoryRegisterObject.constprop.0
                0x080022a0       0x30 C:\Users\RAKIBU~1\AppData\Local\Temp\ch.elf.ULtIRf.ltrans0.ltrans.o
 .text.chFactoryCreateSemaphore.constprop.0
                0x080022d0       0x38 C:\Users\RAKIBU~1\AppData\Local\Temp\ch.elf.ULtIRf.ltrans0.ltrans.o
 *fill*         0x08002308        0x8 
 .text.chFactoryFindObject.constprop.0
                0x08002310       0x28 C:\Users\RAKIBU~1\AppData\Local\Temp\ch.elf.ULtIRf.ltrans0.ltrans.o
 *fill*         0x08002338        0x8 
 .text.chFactoryFindBuffer.constprop.0
                0x08002340       0x28 C:\Users\RAKIBU~1\AppData\Local\Temp\ch.elf.ULtIRf.ltrans0.ltrans.o
 *fill*         0x08002368        0x8 
 .text.chFactoryFindSemaphore.constprop.0
                0x08002370       0x28 C:\Users\RAKIBU~1\AppData\Local\Temp\ch.elf.ULtIRf.ltrans0.ltrans.o
 *fill*         0x08002398        0x8 
 .text.chFactoryFindMailbox.constprop.0
                0x080023a0       0x28 C:\Users\RAKIBU~1\AppData\Local\Temp\ch.elf.ULtIRf.ltrans0.ltrans.o
 *fill*         0x080023c8        0x8 
 .text.chFactoryFindObjectsFIFO.constprop.0
                0x080023d0       0x28 C:\Users\RAKIBU~1\AppData\Local\Temp\ch.elf.ULtIRf.ltrans0.ltrans.o
 *fill*         0x080023f8        0x8 
 .text.chFactoryFindPipe.constprop.0
                0x08002400       0x28 C:\Users\RAKIBU~1\AppData\Local\Temp\ch.elf.ULtIRf.ltrans0.ltrans.o
 *fill*         0x08002428        0x8 
 .text.chFactoryCreateMailbox.constprop.0
                0x08002430       0x54 C:\Users\RAKIBU~1\AppData\Local\Temp\ch.elf.ULtIRf.ltrans0.ltrans.o
 *fill*         0x08002484        0xc 
 .text.chFactoryCreatePipe.constprop.0
                0x08002490       0x64 C:\Users\RAKIBU~1\AppData\Local\Temp\ch.elf.ULtIRf.ltrans0.ltrans.o
 *fill*         0x080024f4        0xc 
 .text.chFactoryCreateBuffer.constprop.0
                0x08002500       0x38 C:\Users\RAKIBU~1\AppData\Local\Temp\ch.elf.ULtIRf.ltrans0.ltrans.o
 *fill*         0x08002538        0x8 
 .text.chFactoryCreateObjectsFIFO.constprop.0
                0x08002540       0x70 C:\Users\RAKIBU~1\AppData\Local\Temp\ch.elf.ULtIRf.ltrans0.ltrans.o
 .text.rt_test_009_002_execute.lto_priv.0
                0x080025b0       0x2c C:\Users\RAKIBU~1\AppData\Local\Temp\ch.elf.ULtIRf.ltrans0.ltrans.o
                0x080025b0                rt_test_009_002_execute.lto_priv.0
 *fill*         0x080025dc        0x4 
 .text.Thread1.lto_priv.2
                0x080025e0       0x40 C:\Users\RAKIBU~1\AppData\Local\Temp\ch.elf.ULtIRf.ltrans0.ltrans.o
 .text.job_slow
                0x08002620       0x14 C:\Users\RAKIBU~1\AppData\Local\Temp\ch.elf.ULtIRf.ltrans0.ltrans.o
 *fill*         0x08002634        0xc 
 .text.rt_test_007_004_execute.lto_priv.0
                0x08002640      0x138 C:\Users\RAKIBU~1\AppData\Local\Temp\ch.elf.ULtIRf.ltrans0.ltrans.o
                0x08002640                rt_test_007_004_execute.lto_priv.0
 *fill*         0x08002778        0x8 
 .text.thread4A
                0x08002780       0x20 C:\Users\RAKIBU~1\AppData\Local\Temp\ch.elf.ULtIRf.ltrans0.ltrans.o
 .text.rt_test_004_001_execute.lto_priv.0
                0x080027a0       0xd0 C:\Users\RAKIBU~1\AppData\Local\Temp\ch.elf.ULtIRf.ltrans0.ltrans.o
                0x080027a0                rt_test_004_001_execute.lto_priv.0
 .text.test_wait_tick
                0x08002870       0x20 C:\Users\RAKIBU~1\AppData\Local\Temp\ch.elf.ULtIRf.ltrans0.ltrans.o
 .text.rt_test_011_011_execute.lto_priv.0
                0x08002890       0x88 C:\Users\RAKIBU~1\AppData\Local\Temp\ch.elf.ULtIRf.ltrans0.ltrans.o
                0x08002890                rt_test_011_011_execute.lto_priv.0
 *fill*         0x08002918        0x8 
 .text.evt_thread7
                0x08002920       0x40 C:\Users\RAKIBU~1\AppData\Local\Temp\ch.elf.ULtIRf.ltrans0.ltrans.o
 .text.tmrfunc  0x08002960       0x78 C:\Users\RAKIBU~1\AppData\Local\Temp\ch.elf.ULtIRf.ltrans0.ltrans.o
 *fill*         0x080029d8        0x8 
 .text.rt_test_011_009_execute.lto_priv.0
                0x080029e0       0x98 C:\Users\RAKIBU~1\AppData\Local\Temp\ch.elf.ULtIRf.ltrans0.ltrans.o
                0x080029e0                rt_test_011_009_execute.lto_priv.0
 *fill*         0x08002a78        0x8 
 .text.ShellHandler
                0x08002a80       0x20 C:\Users\RAKIBU~1\AppData\Local\Temp\ch.elf.ULtIRf.ltrans0.ltrans.o
 .text.rt_test_011_005_execute.lto_priv.0
                0x08002aa0       0x7c C:\Users\RAKIBU~1\AppData\Local\Temp\ch.elf.ULtIRf.ltrans0.ltrans.o
                0x08002aa0                rt_test_011_005_execute.lto_priv.0
 *fill*         0x08002b1c        0x4 
 .text.test_wait_threads
                0x08002b20       0x24 C:\Users\RAKIBU~1\AppData\Local\Temp\ch.elf.ULtIRf.ltrans0.ltrans.o
 *fill*         0x08002b44        0xc 
 .text.rt_test_011_008_execute.lto_priv.0
                0x08002b50       0xe4 C:\Users\RAKIBU~1\AppData\Local\Temp\ch.elf.ULtIRf.ltrans0.ltrans.o
                0x08002b50                rt_test_011_008_execute.lto_priv.0
 *fill*         0x08002c34        0xc 
 .text.rt_test_011_007_execute.lto_priv.0
                0x08002c40      0x10c C:\Users\RAKIBU~1\AppData\Local\Temp\ch.elf.ULtIRf.ltrans0.ltrans.o
                0x08002c40                rt_test_011_007_execute.lto_priv.0
 *fill*         0x08002d4c        0x4 
 .text.rt_test_011_004_execute.lto_priv.0
                0x08002d50       0xcc C:\Users\RAKIBU~1\AppData\Local\Temp\ch.elf.ULtIRf.ltrans0.ltrans.o
                0x08002d50                rt_test_011_004_execute.lto_priv.0
 *fill*         0x08002e1c        0x4 
 .text.rt_test_010_002_execute.lto_priv.0
                0x08002e20      0x158 C:\Users\RAKIBU~1\AppData\Local\Temp\ch.elf.ULtIRf.ltrans0.ltrans.o
                0x08002e20                rt_test_010_002_execute.lto_priv.0
 *fill*         0x08002f78        0x8 
 .text.rt_test_007_009_execute.lto_priv.0
                0x08002f80       0xac C:\Users\RAKIBU~1\AppData\Local\Temp\ch.elf.ULtIRf.ltrans0.ltrans.o
                0x08002f80                rt_test_007_009_execute.lto_priv.0
 *fill*         0x0800302c        0x4 
 .text.rt_test_007_008_execute.lto_priv.0
                0x08003030       0xe8 C:\Users\RAKIBU~1\AppData\Local\Temp\ch.elf.ULtIRf.ltrans0.ltrans.o
                0x08003030                rt_test_007_008_execute.lto_priv.0
 *fill*         0x08003118        0x8 
 .text.rt_test_007_007_execute.lto_priv.0
                0x08003120       0xe4 C:\Users\RAKIBU~1\AppData\Local\Temp\ch.elf.ULtIRf.ltrans0.ltrans.o
                0x08003120                rt_test_007_007_execute.lto_priv.0
 *fill*         0x08003204        0xc 
 .text.rt_test_006_006_teardown.lto_priv.0
                0x08003210        0x4 C:\Users\RAKIBU~1\AppData\Local\Temp\ch.elf.ULtIRf.ltrans0.ltrans.o
                0x08003210                rt_test_006_006_teardown.lto_priv.0
 *fill*         0x08003214        0xc 
 .text.rt_test_007_004_teardown
                0x08003220        0x4 C:\Users\RAKIBU~1\AppData\Local\Temp\ch.elf.ULtIRf.ltrans0.ltrans.o
                0x08003220                rt_test_007_004_teardown.lto_priv.0
 *fill*         0x08003224        0xc 
 .text.rt_test_007_001_execute.lto_priv.0
                0x08003230       0xec C:\Users\RAKIBU~1\AppData\Local\Temp\ch.elf.ULtIRf.ltrans0.ltrans.o
                0x08003230                rt_test_007_001_execute.lto_priv.0
 *fill*         0x0800331c        0x4 
 .text.rt_test_006_005_teardown
                0x08003320        0x4 C:\Users\RAKIBU~1\AppData\Local\Temp\ch.elf.ULtIRf.ltrans0.ltrans.o
                0x08003320                rt_test_006_005_teardown.lto_priv.0
 *fill*         0x08003324        0xc 
 .text.rt_test_006_004_execute.lto_priv.0
                0x08003330       0xb4 C:\Users\RAKIBU~1\AppData\Local\Temp\ch.elf.ULtIRf.ltrans0.ltrans.o
                0x08003330                rt_test_006_004_execute.lto_priv.0
 *fill*         0x080033e4        0xc 
 .text.rt_test_006_003_execute.lto_priv.0
                0x080033f0      0x164 C:\Users\RAKIBU~1\AppData\Local\Temp\ch.elf.ULtIRf.ltrans0.ltrans.o
                0x080033f0                rt_test_006_003_execute.lto_priv.0
 *fill*         0x08003554        0xc 
 .text.rt_test_005_001_execute.lto_priv.0
                0x08003560       0xe0 C:\Users\RAKIBU~1\AppData\Local\Temp\ch.elf.ULtIRf.ltrans0.ltrans.o
                0x08003560                rt_test_005_001_execute.lto_priv.0
 .text.rt_test_004_002_execute.lto_priv.0
                0x08003640      0x1ac C:\Users\RAKIBU~1\AppData\Local\Temp\ch.elf.ULtIRf.ltrans0.ltrans.o
                0x08003640                rt_test_004_002_execute.lto_priv.0
 *fill*         0x080037ec        0x4 
 .text.oslib_test_009_006_execute.lto_priv.0
                0x080037f0      0x12c C:\Users\RAKIBU~1\AppData\Local\Temp\ch.elf.ULtIRf.ltrans0.ltrans.o
                0x080037f0                oslib_test_009_006_execute.lto_priv.0
 *fill*         0x0800391c        0x4 
 .text.oslib_test_009_006_teardown.lto_priv.0
                0x08003920       0x1c C:\Users\RAKIBU~1\AppData\Local\Temp\ch.elf.ULtIRf.ltrans0.ltrans.o
                0x08003920                oslib_test_009_006_teardown.lto_priv.0
 *fill*         0x0800393c        0x4 
 .text.oslib_test_009_005_execute.lto_priv.0
                0x08003940      0x12c C:\Users\RAKIBU~1\AppData\Local\Temp\ch.elf.ULtIRf.ltrans0.ltrans.o
                0x08003940                oslib_test_009_005_execute.lto_priv.0
 *fill*         0x08003a6c        0x4 
 .text.oslib_test_009_005_teardown.lto_priv.0
                0x08003a70       0x1c C:\Users\RAKIBU~1\AppData\Local\Temp\ch.elf.ULtIRf.ltrans0.ltrans.o
                0x08003a70                oslib_test_009_005_teardown.lto_priv.0
 *fill*         0x08003a8c        0x4 
 .text.oslib_test_009_004_execute.lto_priv.0
                0x08003a90      0x12c C:\Users\RAKIBU~1\AppData\Local\Temp\ch.elf.ULtIRf.ltrans0.ltrans.o
                0x08003a90                oslib_test_009_004_execute.lto_priv.0
 *fill*         0x08003bbc        0x4 
 .text.oslib_test_009_004_teardown.lto_priv.0
                0x08003bc0       0x1c C:\Users\RAKIBU~1\AppData\Local\Temp\ch.elf.ULtIRf.ltrans0.ltrans.o
                0x08003bc0                oslib_test_009_004_teardown.lto_priv.0
 *fill*         0x08003bdc        0x4 
 .text.oslib_test_009_003_execute.lto_priv.0
                0x08003be0      0x12c C:\Users\RAKIBU~1\AppData\Local\Temp\ch.elf.ULtIRf.ltrans0.ltrans.o
                0x08003be0                oslib_test_009_003_execute.lto_priv.0
 *fill*         0x08003d0c        0x4 
 .text.oslib_test_009_003_teardown.lto_priv.0
                0x08003d10       0x1c C:\Users\RAKIBU~1\AppData\Local\Temp\ch.elf.ULtIRf.ltrans0.ltrans.o
                0x08003d10                oslib_test_009_003_teardown.lto_priv.0
 *fill*         0x08003d2c        0x4 
 .text.oslib_test_009_002_execute.lto_priv.0
                0x08003d30      0x12c C:\Users\RAKIBU~1\AppData\Local\Temp\ch.elf.ULtIRf.ltrans0.ltrans.o
                0x08003d30                oslib_test_009_002_execute.lto_priv.0
 *fill*         0x08003e5c        0x4 
 .text.oslib_test_009_002_teardown.lto_priv.0
                0x08003e60       0x1c C:\Users\RAKIBU~1\AppData\Local\Temp\ch.elf.ULtIRf.ltrans0.ltrans.o
                0x08003e60                oslib_test_009_002_teardown.lto_priv.0
 *fill*         0x08003e7c        0x4 
 .text.oslib_test_009_001_execute.lto_priv.0
                0x08003e80      0x170 C:\Users\RAKIBU~1\AppData\Local\Temp\ch.elf.ULtIRf.ltrans0.ltrans.o
                0x08003e80                oslib_test_009_001_execute.lto_priv.0
 .text.oslib_test_009_001_teardown.lto_priv.0
                0x08003ff0       0x1c C:\Users\RAKIBU~1\AppData\Local\Temp\ch.elf.ULtIRf.ltrans0.ltrans.o
                0x08003ff0                oslib_test_009_001_teardown.lto_priv.0
 *fill*         0x0800400c        0x4 
 .text.rt_test_010_001_execute.lto_priv.0
                0x08004010      0x174 C:\Users\RAKIBU~1\AppData\Local\Temp\ch.elf.ULtIRf.ltrans0.ltrans.o
                0x08004010                rt_test_010_001_execute.lto_priv.0
 *fill*         0x08004184        0xc 
 .text.oslib_test_007_003_execute.lto_priv.0
                0x08004190       0x2c C:\Users\RAKIBU~1\AppData\Local\Temp\ch.elf.ULtIRf.ltrans0.ltrans.o
                0x08004190                oslib_test_007_003_execute.lto_priv.0
 *fill*         0x080041bc        0x4 
 .text.oslib_test_007_002_execute.lto_priv.0
                0x080041c0       0xe4 C:\Users\RAKIBU~1\AppData\Local\Temp\ch.elf.ULtIRf.ltrans0.ltrans.o
                0x080041c0                oslib_test_007_002_execute.lto_priv.0
 *fill*         0x080042a4        0xc 
 .text.thread2  0x080042b0       0x24 C:\Users\RAKIBU~1\AppData\Local\Temp\ch.elf.ULtIRf.ltrans0.ltrans.o
 *fill*         0x080042d4        0xc 
 .text.thread4  0x080042e0       0x2c C:\Users\RAKIBU~1\AppData\Local\Temp\ch.elf.ULtIRf.ltrans0.ltrans.o
 *fill*         0x0800430c        0x4 
 .text.oslib_test_006_001_execute.lto_priv.0
                0x08004310      0x370 C:\Users\RAKIBU~1\AppData\Local\Temp\ch.elf.ULtIRf.ltrans0.ltrans.o
                0x08004310                oslib_test_006_001_execute.lto_priv.0
 .text.obj_read
                0x08004680       0x3c C:\Users\RAKIBU~1\AppData\Local\Temp\ch.elf.ULtIRf.ltrans0.ltrans.o
 *fill*         0x080046bc        0x4 
 .text.oslib_test_005_001_execute.lto_priv.0
                0x080046c0      0x188 C:\Users\RAKIBU~1\AppData\Local\Temp\ch.elf.ULtIRf.ltrans0.ltrans.o
                0x080046c0                oslib_test_005_001_execute.lto_priv.0
 *fill*         0x08004848        0x8 
 .text.bmk_thread1
                0x08004850       0x28 C:\Users\RAKIBU~1\AppData\Local\Temp\ch.elf.ULtIRf.ltrans0.ltrans.o
 *fill*         0x08004878        0x8 
 .text.rt_test_008_001_execute.lto_priv.0
                0x08004880       0x78 C:\Users\RAKIBU~1\AppData\Local\Temp\ch.elf.ULtIRf.ltrans0.ltrans.o
                0x08004880                rt_test_008_001_execute.lto_priv.0
 *fill*         0x080048f8        0x8 
 .text.oslib_test_004_001_execute.lto_priv.0
                0x08004900      0x158 C:\Users\RAKIBU~1\AppData\Local\Temp\ch.elf.ULtIRf.ltrans0.ltrans.o
                0x08004900                oslib_test_004_001_execute.lto_priv.0
 *fill*         0x08004a58        0x8 
 .text.Thread1.lto_priv.0
                0x08004a60       0x50 C:\Users\RAKIBU~1\AppData\Local\Temp\ch.elf.ULtIRf.ltrans0.ltrans.o
 .text.oslib_test_003_001_execute.lto_priv.0
                0x08004ab0      0x4dc C:\Users\RAKIBU~1\AppData\Local\Temp\ch.elf.ULtIRf.ltrans0.ltrans.o
                0x08004ab0                oslib_test_003_001_execute.lto_priv.0
 *fill*         0x08004f8c        0x4 
 .text.thread1.lto_priv.0
                0x08004f90       0x2c C:\Users\RAKIBU~1\AppData\Local\Temp\ch.elf.ULtIRf.ltrans0.ltrans.o
 *fill*         0x08004fbc        0x4 
 .text.rt_test_006_002_execute.lto_priv.0
                0x08004fc0       0xf4 C:\Users\RAKIBU~1\AppData\Local\Temp\ch.elf.ULtIRf.ltrans0.ltrans.o
                0x08004fc0                rt_test_006_002_execute.lto_priv.0
 *fill*         0x080050b4        0xc 
 .text.rt_test_011_010_execute.lto_priv.0
                0x080050c0       0x88 C:\Users\RAKIBU~1\AppData\Local\Temp\ch.elf.ULtIRf.ltrans0.ltrans.o
                0x080050c0                rt_test_011_010_execute.lto_priv.0
 *fill*         0x08005148        0x8 
 .text.bmk_thread7
                0x08005150       0x2c C:\Users\RAKIBU~1\AppData\Local\Temp\ch.elf.ULtIRf.ltrans0.ltrans.o
 *fill*         0x0800517c        0x4 
 .text.rt_test_006_006_execute.lto_priv.0
                0x08005180      0x1b4 C:\Users\RAKIBU~1\AppData\Local\Temp\ch.elf.ULtIRf.ltrans0.ltrans.o
                0x08005180                rt_test_006_006_execute.lto_priv.0
 *fill*         0x08005334        0xc 
 .text.thread3  0x08005340       0x18 C:\Users\RAKIBU~1\AppData\Local\Temp\ch.elf.ULtIRf.ltrans0.ltrans.o
 *fill*         0x08005358        0x8 
 .text.thread1.lto_priv.1
                0x08005360       0x18 C:\Users\RAKIBU~1\AppData\Local\Temp\ch.elf.ULtIRf.ltrans0.ltrans.o
 *fill*         0x08005378        0x8 
 .text.rt_test_006_001_execute.lto_priv.0
                0x08005380       0xc0 C:\Users\RAKIBU~1\AppData\Local\Temp\ch.elf.ULtIRf.ltrans0.ltrans.o
                0x08005380                rt_test_006_001_execute.lto_priv.0
 .text.bmk_thread8
                0x08005440       0x2c C:\Users\RAKIBU~1\AppData\Local\Temp\ch.elf.ULtIRf.ltrans0.ltrans.o
 *fill*         0x0800546c        0x4 
 .text.rt_test_011_006_execute.lto_priv.0
                0x08005470       0x7c C:\Users\RAKIBU~1\AppData\Local\Temp\ch.elf.ULtIRf.ltrans0.ltrans.o
                0x08005470                rt_test_011_006_execute.lto_priv.0
 *fill*         0x080054ec        0x4 
 .text.msg_loop_test
                0x080054f0       0x34 C:\Users\RAKIBU~1\AppData\Local\Temp\ch.elf.ULtIRf.ltrans0.ltrans.o
 *fill*         0x08005524        0xc 
 .text.rt_test_011_003_execute.lto_priv.0
                0x08005530       0xe8 C:\Users\RAKIBU~1\AppData\Local\Temp\ch.elf.ULtIRf.ltrans0.ltrans.o
                0x08005530                rt_test_011_003_execute.lto_priv.0
 *fill*         0x08005618        0x8 
 .text.rt_test_011_002_execute.lto_priv.0
                0x08005620       0x74 C:\Users\RAKIBU~1\AppData\Local\Temp\ch.elf.ULtIRf.ltrans0.ltrans.o
                0x08005620                rt_test_011_002_execute.lto_priv.0
 *fill*         0x08005694        0xc 
 .text.rt_test_011_001_execute.lto_priv.0
                0x080056a0       0x74 C:\Users\RAKIBU~1\AppData\Local\Temp\ch.elf.ULtIRf.ltrans0.ltrans.o
                0x080056a0                rt_test_011_001_execute.lto_priv.0
 *fill*         0x08005714        0xc 
 .text.msg_thread1
                0x08005720       0x28 C:\Users\RAKIBU~1\AppData\Local\Temp\ch.elf.ULtIRf.ltrans0.ltrans.o
 *fill*         0x08005748        0x8 
 .text.rt_test_009_007_execute.lto_priv.0
                0x08005750       0xd8 C:\Users\RAKIBU~1\AppData\Local\Temp\ch.elf.ULtIRf.ltrans0.ltrans.o
                0x08005750                rt_test_009_007_execute.lto_priv.0
 *fill*         0x08005828        0x8 
 .text.rt_test_009_001_execute.lto_priv.0
                0x08005830       0xbc C:\Users\RAKIBU~1\AppData\Local\Temp\ch.elf.ULtIRf.ltrans0.ltrans.o
                0x08005830                rt_test_009_001_execute.lto_priv.0
 *fill*         0x080058ec        0x4 
 .text.rt_test_009_005_execute.lto_priv.0
                0x080058f0       0xd4 C:\Users\RAKIBU~1\AppData\Local\Temp\ch.elf.ULtIRf.ltrans0.ltrans.o
                0x080058f0                rt_test_009_005_execute.lto_priv.0
 *fill*         0x080059c4        0xc 
 .text.rt_test_009_004_execute.lto_priv.0
                0x080059d0       0xcc C:\Users\RAKIBU~1\AppData\Local\Temp\ch.elf.ULtIRf.ltrans0.ltrans.o
                0x080059d0                rt_test_009_004_execute.lto_priv.0
 *fill*         0x08005a9c        0x4 
 .text.rt_test_009_003_execute.lto_priv.0
                0x08005aa0       0xfc C:\Users\RAKIBU~1\AppData\Local\Temp\ch.elf.ULtIRf.ltrans0.ltrans.o
                0x08005aa0                rt_test_009_003_execute.lto_priv.0
 *fill*         0x08005b9c        0x4 
 .text.evt_thread3
                0x08005ba0       0x24 C:\Users\RAKIBU~1\AppData\Local\Temp\ch.elf.ULtIRf.ltrans0.ltrans.o
 *fill*         0x08005bc4        0xc 
 .text.thread4B
                0x08005bd0       0x30 C:\Users\RAKIBU~1\AppData\Local\Temp\ch.elf.ULtIRf.ltrans0.ltrans.o
 .text.thread8  0x08005c00       0x88 C:\Users\RAKIBU~1\AppData\Local\Temp\ch.elf.ULtIRf.ltrans0.ltrans.o
 *fill*         0x08005c88        0x8 
 .text.thread6  0x08005c90       0x6c C:\Users\RAKIBU~1\AppData\Local\Temp\ch.elf.ULtIRf.ltrans0.ltrans.o
 *fill*         0x08005cfc        0x4 
 .text.rt_test_004_004_execute.lto_priv.0
                0x08005d00       0xdc C:\Users\RAKIBU~1\AppData\Local\Temp\ch.elf.ULtIRf.ltrans0.ltrans.o
                0x08005d00                rt_test_004_004_execute.lto_priv.0
 *fill*         0x08005ddc        0x4 
 .text.rt_test_004_003_execute.lto_priv.0
                0x08005de0       0x8c C:\Users\RAKIBU~1\AppData\Local\Temp\ch.elf.ULtIRf.ltrans0.ltrans.o
                0x08005de0                rt_test_004_003_execute.lto_priv.0
 *fill*         0x08005e6c        0x4 
 .text.rt_test_002_002_execute.lto_priv.0
                0x08005e70       0xd4 C:\Users\RAKIBU~1\AppData\Local\Temp\ch.elf.ULtIRf.ltrans0.ltrans.o
                0x08005e70                rt_test_002_002_execute.lto_priv.0
 *fill*         0x08005f44        0xc 
 .text.vtcb     0x08005f50       0x28 C:\Users\RAKIBU~1\AppData\Local\Temp\ch.elf.ULtIRf.ltrans0.ltrans.o
 *fill*         0x08005f78        0x8 
 .text.rt_test_002_001_execute.lto_priv.0
                0x08005f80       0xa8 C:\Users\RAKIBU~1\AppData\Local\Temp\ch.elf.ULtIRf.ltrans0.ltrans.o
                0x08005f80                rt_test_002_001_execute.lto_priv.0
 *fill*         0x08006028        0x8 
 .text.move_window.part.0
                0x08006030       0x90 C:\Users\RAKIBU~1\AppData\Local\Temp\ch.elf.ULtIRf.ltrans0.ltrans.o
 .text.check_fs
                0x080060c0       0xc0 C:\Users\RAKIBU~1\AppData\Local\Temp\ch.elf.ULtIRf.ltrans0.ltrans.o
 .text.find_volume.constprop.0
                0x08006180      0x56c C:\Users\RAKIBU~1\AppData\Local\Temp\ch.elf.ULtIRf.ltrans0.ltrans.o
 *fill*         0x080066ec        0x4 
 .text.InsertHandler
                0x080066f0       0x6c C:\Users\RAKIBU~1\AppData\Local\Temp\ch.elf.ULtIRf.ltrans0.ltrans.o
 *fill*         0x0800675c        0x4 
 .text.get_fat  0x08006760      0x170 C:\Users\RAKIBU~1\AppData\Local\Temp\ch.elf.ULtIRf.ltrans0.ltrans.o
 .text.dir_sdi.constprop.0
                0x080068d0       0x70 C:\Users\RAKIBU~1\AppData\Local\Temp\ch.elf.ULtIRf.ltrans0.ltrans.o
 .text.dir_next.constprop.0
                0x08006940       0x94 C:\Users\RAKIBU~1\AppData\Local\Temp\ch.elf.ULtIRf.ltrans0.ltrans.o
 *fill*         0x080069d4        0xc 
 .text.dir_read.constprop.0
                0x080069e0      0x2a4 C:\Users\RAKIBU~1\AppData\Local\Temp\ch.elf.ULtIRf.ltrans0.ltrans.o
 *fill*         0x08006c84        0xc 
 .text.chThdDequeueNextI.constprop.0
                0x08006c90       0x18 C:\Users\RAKIBU~1\AppData\Local\Temp\ch.elf.ULtIRf.ltrans0.ltrans.o
                0x08006c90                chThdDequeueNextI.constprop.0
 *fill*         0x08006ca8        0x8 
 .text.chMBPostI.constprop.0
                0x08006cb0       0x48 C:\Users\RAKIBU~1\AppData\Local\Temp\ch.elf.ULtIRf.ltrans0.ltrans.o
 *fill*         0x08006cf8        0x8 
 .text.chMBPostAheadTimeout.constprop.0
                0x08006d00       0x6c C:\Users\RAKIBU~1\AppData\Local\Temp\ch.elf.ULtIRf.ltrans0.ltrans.o
 *fill*         0x08006d6c        0x4 
 .text.oslib_test_002_001_execute.lto_priv.0
                0x08006d70      0x32c C:\Users\RAKIBU~1\AppData\Local\Temp\ch.elf.ULtIRf.ltrans0.ltrans.o
                0x08006d70                oslib_test_002_001_execute.lto_priv.0
 *fill*         0x0800709c        0x4 
 .text.chMBPostAheadI.constprop.0
                0x080070a0       0x48 C:\Users\RAKIBU~1\AppData\Local\Temp\ch.elf.ULtIRf.ltrans0.ltrans.o
 *fill*         0x080070e8        0x8 
 .text.chMBFetchI.constprop.0
                0x080070f0       0x48 C:\Users\RAKIBU~1\AppData\Local\Temp\ch.elf.ULtIRf.ltrans0.ltrans.o
 *fill*         0x08007138        0x8 
 .text.oslib_test_002_003_execute.lto_priv.0
                0x08007140      0x124 C:\Users\RAKIBU~1\AppData\Local\Temp\ch.elf.ULtIRf.ltrans0.ltrans.o
                0x08007140                oslib_test_002_003_execute.lto_priv.0
 *fill*         0x08007264        0xc 
 .text.oslib_test_002_002_execute.lto_priv.0
                0x08007270      0x2f8 C:\Users\RAKIBU~1\AppData\Local\Temp\ch.elf.ULtIRf.ltrans0.ltrans.o
                0x08007270                oslib_test_002_002_execute.lto_priv.0
 *fill*         0x08007568        0x8 
 .text.dmaStreamAllocI.part.0.constprop.0
                0x08007570       0xbc C:\Users\RAKIBU~1\AppData\Local\Temp\ch.elf.ULtIRf.ltrans0.ltrans.o
                0x08007570                dmaStreamAllocI.part.0.constprop.0
 *fill*         0x0800762c        0x4 
 .text.chHeapAllocAligned.constprop.0
                0x08007630       0xec C:\Users\RAKIBU~1\AppData\Local\Temp\ch.elf.ULtIRf.ltrans0.ltrans.o
                0x08007630                chHeapAllocAligned.constprop.0
 *fill*         0x0800771c        0x4 
 .text.scan_files.constprop.0
                0x08007720      0xa88 C:\Users\RAKIBU~1\AppData\Local\Temp\ch.elf.ULtIRf.ltrans0.ltrans.o
 *fill*         0x080081a8        0x8 
 .text.cmd_tree
                0x080081b0      0x19c C:\Users\RAKIBU~1\AppData\Local\Temp\ch.elf.ULtIRf.ltrans0.ltrans.o
 *fill*         0x0800834c        0x4 
 .text.oslib_test_008_002_execute.lto_priv.0
                0x08008350       0x68 C:\Users\RAKIBU~1\AppData\Local\Temp\ch.elf.ULtIRf.ltrans0.ltrans.o
                0x08008350                oslib_test_008_002_execute.lto_priv.0
 *fill*         0x080083b8        0x8 
 .text.oslib_test_008_001_execute.lto_priv.0
                0x080083c0      0x330 C:\Users\RAKIBU~1\AppData\Local\Temp\ch.elf.ULtIRf.ltrans0.ltrans.o
                0x080083c0                oslib_test_008_001_execute.lto_priv.0
 .text.startup.main
                0x080086f0      0x588 C:\Users\RAKIBU~1\AppData\Local\Temp\ch.elf.ULtIRf.ltrans0.ltrans.o
                0x080086f0                main
 *fill*         0x08008c78        0x8 
 .text.test_execute
                0x08008c80      0x43c C:\Users\RAKIBU~1\AppData\Local\Temp\ch.elf.ULtIRf.ltrans0.ltrans.o
                0x08008c80                test_execute
 *fill*         0x080090bc        0x4 
 .text.Thread1.lto_priv.1
                0x080090c0       0x48 C:\Users\RAKIBU~1\AppData\Local\Temp\ch.elf.ULtIRf.ltrans0.ltrans.o
 *fill*         0x08009108        0x8 
 .text.bmk_thread3
                0x08009110        0x4 C:\Users\RAKIBU~1\AppData\Local\Temp\ch.elf.ULtIRf.ltrans0.ltrans.o
 *fill*         0x08009114        0xc 
 .text.mmc_lld_is_write_protected
                0x08009120       0x14 C:\Users\RAKIBU~1\AppData\Local\Temp\ch.elf.ULtIRf.ltrans1.ltrans.o
                0x08009120                mmc_lld_is_write_protected
 *fill*         0x08009134        0xc 
 .text._port_irq_epilogue
                0x08009140       0x4c C:\Users\RAKIBU~1\AppData\Local\Temp\ch.elf.ULtIRf.ltrans1.ltrans.o
 *fill*         0x0800918c        0x4 
 .text.chCoreAllocAlignedI.lto_priv.0
                0x08009190       0x28 C:\Users\RAKIBU~1\AppData\Local\Temp\ch.elf.ULtIRf.ltrans1.ltrans.o
                0x08009190                chCoreAllocAlignedI.lto_priv.0
 *fill*         0x080091b8        0x8 
 .text.__ch_delegate_fn4
                0x080091c0       0x20 C:\Users\RAKIBU~1\AppData\Local\Temp\ch.elf.ULtIRf.ltrans1.ltrans.o
                0x080091c0                __ch_delegate_fn4
 .text.__ch_delegate_fn3
                0x080091e0       0x20 C:\Users\RAKIBU~1\AppData\Local\Temp\ch.elf.ULtIRf.ltrans1.ltrans.o
                0x080091e0                __ch_delegate_fn3
 .text.__ch_delegate_fn2
                0x08009200       0x1c C:\Users\RAKIBU~1\AppData\Local\Temp\ch.elf.ULtIRf.ltrans1.ltrans.o
                0x08009200                __ch_delegate_fn2
 *fill*         0x0800921c        0x4 
 .text.__ch_delegate_fn1
                0x08009220       0x1c C:\Users\RAKIBU~1\AppData\Local\Temp\ch.elf.ULtIRf.ltrans1.ltrans.o
                0x08009220                __ch_delegate_fn1
 *fill*         0x0800923c        0x4 
 .text.__ch_delegate_fn0
                0x08009240        0xc C:\Users\RAKIBU~1\AppData\Local\Temp\ch.elf.ULtIRf.ltrans1.ltrans.o
                0x08009240                __ch_delegate_fn0
 *fill*         0x0800924c        0x4 
 .text.chCoreAllocFromTop
                0x08009250       0x3c C:\Users\RAKIBU~1\AppData\Local\Temp\ch.elf.ULtIRf.ltrans1.ltrans.o
                0x08009250                chCoreAllocFromTop
 *fill*         0x0800928c        0x4 
 .text.wakeup.lto_priv.0
                0x08009290       0x6c C:\Users\RAKIBU~1\AppData\Local\Temp\ch.elf.ULtIRf.ltrans1.ltrans.o
                0x08009290                wakeup.lto_priv.0
 *fill*         0x080092fc        0x4 
 .text._idle_thread.lto_priv.0
                0x08009300        0x4 C:\Users\RAKIBU~1\AppData\Local\Temp\ch.elf.ULtIRf.ltrans1.ltrans.o
                0x08009300                _idle_thread.lto_priv.0
 *fill*         0x08009304        0xc 
 .text.mmc_lld_is_card_inserted
                0x08009310       0x10 C:\Users\RAKIBU~1\AppData\Local\Temp\ch.elf.ULtIRf.ltrans1.ltrans.o
                0x08009310                mmc_lld_is_card_inserted
 .text.notify2.lto_priv.0
                0x08009320       0x10 C:\Users\RAKIBU~1\AppData\Local\Temp\ch.elf.ULtIRf.ltrans1.ltrans.o
                0x08009320                notify2.lto_priv.0
 .text.spi_lld_serve_tx_interrupt
                0x08009330       0x18 C:\Users\RAKIBU~1\AppData\Local\Temp\ch.elf.ULtIRf.ltrans1.ltrans.o
 *fill*         0x08009348        0x8 
 .text.dmaServeInterrupt
                0x08009350       0x3c C:\Users\RAKIBU~1\AppData\Local\Temp\ch.elf.ULtIRf.ltrans1.ltrans.o
 *fill*         0x0800938c        0x4 
 .text.dmaStreamFreeI
                0x08009390       0x6c C:\Users\RAKIBU~1\AppData\Local\Temp\ch.elf.ULtIRf.ltrans1.ltrans.o
 *fill*         0x080093fc        0x4 
 .text.spiUnselect
                0x08009400       0x1c C:\Users\RAKIBU~1\AppData\Local\Temp\ch.elf.ULtIRf.ltrans1.ltrans.o
 *fill*         0x0800941c        0x4 
 .text.spiSelect
                0x08009420       0x1c C:\Users\RAKIBU~1\AppData\Local\Temp\ch.elf.ULtIRf.ltrans1.ltrans.o
 *fill*         0x0800943c        0x4 
 .text.spiStop  0x08009440       0x5c C:\Users\RAKIBU~1\AppData\Local\Temp\ch.elf.ULtIRf.ltrans1.ltrans.o
 *fill*         0x0800949c        0x4 
 .text._ctl.lto_priv.0
                0x080094a0        0x4 C:\Users\RAKIBU~1\AppData\Local\Temp\ch.elf.ULtIRf.ltrans1.ltrans.o
                0x080094a0                _ctl.lto_priv.0
 *fill*         0x080094a4        0xc 
 .text.mmcGetInfo
                0x080094b0       0x18 C:\Users\RAKIBU~1\AppData\Local\Temp\ch.elf.ULtIRf.ltrans1.ltrans.o
                0x080094b0                mmcGetInfo
 *fill*         0x080094c8        0x8 
 .text.test_rt  0x080094d0        0xc C:\Users\RAKIBU~1\AppData\Local\Temp\ch.elf.ULtIRf.ltrans1.ltrans.o
 *fill*         0x080094dc        0x4 
 .text.test_oslib
                0x080094e0        0xc C:\Users\RAKIBU~1\AppData\Local\Temp\ch.elf.ULtIRf.ltrans1.ltrans.o
 *fill*         0x080094ec        0x4 
 .text.parse_arguments
                0x080094f0       0x54 C:\Users\RAKIBU~1\AppData\Local\Temp\ch.elf.ULtIRf.ltrans1.ltrans.o
 *fill*         0x08009544        0xc 
 .text.spiStart
                0x08009550       0xd4 C:\Users\RAKIBU~1\AppData\Local\Temp\ch.elf.ULtIRf.ltrans1.ltrans.o
 *fill*         0x08009624        0xc 
 .text.chprintf
                0x08009630      0x4b4 C:\Users\RAKIBU~1\AppData\Local\Temp\ch.elf.ULtIRf.ltrans1.ltrans.o
                0x08009630                chprintf
 *fill*         0x08009ae4        0xc 
 .text.cmd_systime
                0x08009af0       0x34 C:\Users\RAKIBU~1\AppData\Local\Temp\ch.elf.ULtIRf.ltrans1.ltrans.o
 *fill*         0x08009b24        0xc 
 .text.cmd_echo
                0x08009b30       0x20 C:\Users\RAKIBU~1\AppData\Local\Temp\ch.elf.ULtIRf.ltrans1.ltrans.o
 .text.cmd_info
                0x08009b50       0xbc C:\Users\RAKIBU~1\AppData\Local\Temp\ch.elf.ULtIRf.ltrans1.ltrans.o
 *fill*         0x08009c0c        0x4 
 .text.SVC_Handler
                0x08009c10       0x14 C:\Users\RAKIBU~1\AppData\Local\Temp\ch.elf.ULtIRf.ltrans1.ltrans.o
                0x08009c10                SVC_Handler
 *fill*         0x08009c24        0xc 
 .text.dyn_find_object.lto_priv.0
                0x08009c30       0x34 C:\Users\RAKIBU~1\AppData\Local\Temp\ch.elf.ULtIRf.ltrans1.ltrans.o
                0x08009c30                dyn_find_object.lto_priv.0
 *fill*         0x08009c64        0xc 
 .text.dyn_create_object_heap.lto_priv.0
                0x08009c70       0x54 C:\Users\RAKIBU~1\AppData\Local\Temp\ch.elf.ULtIRf.ltrans1.ltrans.o
                0x08009c70                dyn_create_object_heap.lto_priv.0
 *fill*         0x08009cc4        0xc 
 .text.chPoolAlloc
                0x08009cd0       0x30 C:\Users\RAKIBU~1\AppData\Local\Temp\ch.elf.ULtIRf.ltrans1.ltrans.o
                0x08009cd0                chPoolAlloc
 .text.dyn_create_object_pool.lto_priv.0
                0x08009d00       0x50 C:\Users\RAKIBU~1\AppData\Local\Temp\ch.elf.ULtIRf.ltrans1.ltrans.o
                0x08009d00                dyn_create_object_pool.lto_priv.0
 .text.chEvtDispatch
                0x08009d50       0x34 C:\Users\RAKIBU~1\AppData\Local\Temp\ch.elf.ULtIRf.ltrans1.ltrans.o
                0x08009d50                chEvtDispatch
 *fill*         0x08009d84        0xc 
 .text.chEvtAddEvents
                0x08009d90       0x1c C:\Users\RAKIBU~1\AppData\Local\Temp\ch.elf.ULtIRf.ltrans1.ltrans.o
                0x08009d90                chEvtAddEvents
 *fill*         0x08009dac        0x4 
 .text.chEvtUnregister
                0x08009db0       0x2c C:\Users\RAKIBU~1\AppData\Local\Temp\ch.elf.ULtIRf.ltrans1.ltrans.o
                0x08009db0                chEvtUnregister
 *fill*         0x08009ddc        0x4 
 .text.chTMStopMeasurementX
                0x08009de0       0x44 C:\Users\RAKIBU~1\AppData\Local\Temp\ch.elf.ULtIRf.ltrans1.ltrans.o
                0x08009de0                chTMStopMeasurementX
 *fill*         0x08009e24        0xc 
 .text.chTMStartMeasurementX
                0x08009e30        0xc C:\Users\RAKIBU~1\AppData\Local\Temp\ch.elf.ULtIRf.ltrans1.ltrans.o
                0x08009e30                chTMStartMeasurementX
 *fill*         0x08009e3c        0x4 
 .text.chThdYield
                0x08009e40       0x58 C:\Users\RAKIBU~1\AppData\Local\Temp\ch.elf.ULtIRf.ltrans1.ltrans.o
                0x08009e40                chThdYield
 *fill*         0x08009e98        0x8 
 .text.chThdCreateSuspendedI
                0x08009ea0       0x7c C:\Users\RAKIBU~1\AppData\Local\Temp\ch.elf.ULtIRf.ltrans1.ltrans.o
                0x08009ea0                chThdCreateSuspendedI
 *fill*         0x08009f1c        0x4 
 .text.chSchDoRescheduleAhead
                0x08009f20       0x3c C:\Users\RAKIBU~1\AppData\Local\Temp\ch.elf.ULtIRf.ltrans1.ltrans.o
                0x08009f20                chSchDoReschedule
 *fill*         0x08009f5c        0x4 
 .text.chSchRescheduleS
                0x08009f60       0x18 C:\Users\RAKIBU~1\AppData\Local\Temp\ch.elf.ULtIRf.ltrans1.ltrans.o
                0x08009f60                chSchRescheduleS
 *fill*         0x08009f78        0x8 
 .text.chThdSetPriority
                0x08009f80       0x30 C:\Users\RAKIBU~1\AppData\Local\Temp\ch.elf.ULtIRf.ltrans1.ltrans.o
                0x08009f80                chThdSetPriority
 .text.chSchWakeupS
                0x08009fb0       0x5c C:\Users\RAKIBU~1\AppData\Local\Temp\ch.elf.ULtIRf.ltrans1.ltrans.o
                0x08009fb0                chSchWakeupS
 *fill*         0x0800a00c        0x4 
 .text.chThdCreateFromHeap
                0x0800a010       0x4c C:\Users\RAKIBU~1\AppData\Local\Temp\ch.elf.ULtIRf.ltrans1.ltrans.o
                0x0800a010                chThdCreateFromHeap
 *fill*         0x0800a05c        0x4 
 .text.chSemSignal
                0x0800a060       0x34 C:\Users\RAKIBU~1\AppData\Local\Temp\ch.elf.ULtIRf.ltrans1.ltrans.o
                0x0800a060                chSemSignal
 *fill*         0x0800a094        0xc 
 .text.chThdCreate
                0x0800a0a0       0x20 C:\Users\RAKIBU~1\AppData\Local\Temp\ch.elf.ULtIRf.ltrans1.ltrans.o
                0x0800a0a0                chThdCreate
 .text.chSchGoSleepS
                0x0800a0c0       0x28 C:\Users\RAKIBU~1\AppData\Local\Temp\ch.elf.ULtIRf.ltrans1.ltrans.o
                0x0800a0c0                chSchGoSleepS
 *fill*         0x0800a0e8        0x8 
 .text.chMsgWaitS
                0x0800a0f0       0x34 C:\Users\RAKIBU~1\AppData\Local\Temp\ch.elf.ULtIRf.ltrans1.ltrans.o
                0x0800a0f0                chMsgWaitS
 *fill*         0x0800a124        0xc 
 .text.chSemWaitS.part.0
                0x0800a130       0x24 C:\Users\RAKIBU~1\AppData\Local\Temp\ch.elf.ULtIRf.ltrans1.ltrans.o
                0x0800a130                chSemWaitS.part.0
 *fill*         0x0800a154        0xc 
 .text.chSemWait
                0x0800a160       0x28 C:\Users\RAKIBU~1\AppData\Local\Temp\ch.elf.ULtIRf.ltrans1.ltrans.o
                0x0800a160                chSemWait
 *fill*         0x0800a188        0x8 
 .text.chSchReadyI
                0x0800a190       0x24 C:\Users\RAKIBU~1\AppData\Local\Temp\ch.elf.ULtIRf.ltrans1.ltrans.o
                0x0800a190                chSchReadyI
 *fill*         0x0800a1b4        0xc 
 .text.chMsgSend
                0x0800a1c0       0x40 C:\Users\RAKIBU~1\AppData\Local\Temp\ch.elf.ULtIRf.ltrans1.ltrans.o
                0x0800a1c0                chMsgSend
 .text.chDelegateCallVeneer
                0x0800a200       0x24 C:\Users\RAKIBU~1\AppData\Local\Temp\ch.elf.ULtIRf.ltrans1.ltrans.o
                0x0800a200                chDelegateCallVeneer
 *fill*         0x0800a224        0xc 
 .text.chEvtSignalI
                0x0800a230       0x2c C:\Users\RAKIBU~1\AppData\Local\Temp\ch.elf.ULtIRf.ltrans1.ltrans.o
                0x0800a230                chEvtSignalI
 *fill*         0x0800a25c        0x4 
 .text.chEvtBroadcastFlagsI
                0x0800a260       0x2c C:\Users\RAKIBU~1\AppData\Local\Temp\ch.elf.ULtIRf.ltrans1.ltrans.o
                0x0800a260                chEvtBroadcastFlagsI
 *fill*         0x0800a28c        0x4 
 .text.chMtxUnlockS
                0x0800a290       0x4c C:\Users\RAKIBU~1\AppData\Local\Temp\ch.elf.ULtIRf.ltrans1.ltrans.o
                0x0800a290                chMtxUnlockS
 *fill*         0x0800a2dc        0x4 
 .text.chMtxUnlock
                0x0800a2e0       0x60 C:\Users\RAKIBU~1\AppData\Local\Temp\ch.elf.ULtIRf.ltrans1.ltrans.o
                0x0800a2e0                chMtxUnlock
 .text.chMtxLockS
                0x0800a340       0xc0 C:\Users\RAKIBU~1\AppData\Local\Temp\ch.elf.ULtIRf.ltrans1.ltrans.o
                0x0800a340                chMtxLockS
 .text.chMtxLock
                0x0800a400       0x14 C:\Users\RAKIBU~1\AppData\Local\Temp\ch.elf.ULtIRf.ltrans1.ltrans.o
                0x0800a400                chMtxLock
 *fill*         0x0800a414        0xc 
 .text.chFactoryReleaseSemaphore
                0x0800a420       0x58 C:\Users\RAKIBU~1\AppData\Local\Temp\ch.elf.ULtIRf.ltrans1.ltrans.o
                0x0800a420                chFactoryReleaseSemaphore
 *fill*         0x0800a478        0x8 
 .text.chFactoryReleaseObject
                0x0800a480       0x58 C:\Users\RAKIBU~1\AppData\Local\Temp\ch.elf.ULtIRf.ltrans1.ltrans.o
                0x0800a480                chFactoryReleaseObject
 *fill*         0x0800a4d8        0x8 
 .text.chHeapStatus
                0x0800a4e0       0x64 C:\Users\RAKIBU~1\AppData\Local\Temp\ch.elf.ULtIRf.ltrans1.ltrans.o
                0x0800a4e0                chHeapStatus
 *fill*         0x0800a544        0xc 
 .text.cmd_mem  0x0800a550       0x70 C:\Users\RAKIBU~1\AppData\Local\Temp\ch.elf.ULtIRf.ltrans1.ltrans.o
 .text.chHeapFree
                0x0800a5c0       0x90 C:\Users\RAKIBU~1\AppData\Local\Temp\ch.elf.ULtIRf.ltrans1.ltrans.o
                0x0800a5c0                chHeapFree
 .text.dyn_release_object_heap.part.0
                0x0800a650       0x20 C:\Users\RAKIBU~1\AppData\Local\Temp\ch.elf.ULtIRf.ltrans1.ltrans.o
 .text.chFactoryReleasePipe
                0x0800a670       0x2c C:\Users\RAKIBU~1\AppData\Local\Temp\ch.elf.ULtIRf.ltrans1.ltrans.o
                0x0800a670                chFactoryReleasePipe
 *fill*         0x0800a69c        0x4 
 .text.chFactoryReleaseObjectsFIFO
                0x0800a6a0       0x2c C:\Users\RAKIBU~1\AppData\Local\Temp\ch.elf.ULtIRf.ltrans1.ltrans.o
                0x0800a6a0                chFactoryReleaseObjectsFIFO
 *fill*         0x0800a6cc        0x4 
 .text.chFactoryReleaseMailbox
                0x0800a6d0       0x2c C:\Users\RAKIBU~1\AppData\Local\Temp\ch.elf.ULtIRf.ltrans1.ltrans.o
                0x0800a6d0                chFactoryReleaseMailbox
 *fill*         0x0800a6fc        0x4 
 .text.chFactoryReleaseBuffer
                0x0800a700       0x2c C:\Users\RAKIBU~1\AppData\Local\Temp\ch.elf.ULtIRf.ltrans1.ltrans.o
                0x0800a700                chFactoryReleaseBuffer
 *fill*         0x0800a72c        0x4 
 .text.chThdRelease
                0x0800a730       0x64 C:\Users\RAKIBU~1\AppData\Local\Temp\ch.elf.ULtIRf.ltrans1.ltrans.o
                0x0800a730                chThdRelease
 *fill*         0x0800a794        0xc 
 .text.cmd_threads
                0x0800a7a0       0xc4 C:\Users\RAKIBU~1\AppData\Local\Temp\ch.elf.ULtIRf.ltrans1.ltrans.o
 *fill*         0x0800a864        0xc 
 .text.chThdWait
                0x0800a870       0x38 C:\Users\RAKIBU~1\AppData\Local\Temp\ch.elf.ULtIRf.ltrans1.ltrans.o
                0x0800a870                chThdWait
 *fill*         0x0800a8a8        0x8 
 .text.cmd_test
                0x0800a8b0       0x8c C:\Users\RAKIBU~1\AppData\Local\Temp\ch.elf.ULtIRf.ltrans1.ltrans.o
 *fill*         0x0800a93c        0x4 
 .text.chSemSignalI
                0x0800a940       0x20 C:\Users\RAKIBU~1\AppData\Local\Temp\ch.elf.ULtIRf.ltrans1.ltrans.o
                0x0800a940                chSemSignalI
 .text.chCacheReleaseObjectI
                0x0800a960       0x80 C:\Users\RAKIBU~1\AppData\Local\Temp\ch.elf.ULtIRf.ltrans1.ltrans.o
                0x0800a960                chCacheReleaseObjectI
 .text.chGuardedPoolLoadArray
                0x0800a9e0       0x34 C:\Users\RAKIBU~1\AppData\Local\Temp\ch.elf.ULtIRf.ltrans1.ltrans.o
                0x0800a9e0                chGuardedPoolLoadArray
 *fill*         0x0800aa14        0xc 
 .text.chThdResumeI
                0x0800aa20       0x14 C:\Users\RAKIBU~1\AppData\Local\Temp\ch.elf.ULtIRf.ltrans1.ltrans.o
                0x0800aa20                chThdResumeI
 *fill*         0x0800aa34        0xc 
 .text.spi_lld_serve_rx_interrupt
                0x0800aa40       0xa8 C:\Users\RAKIBU~1\AppData\Local\Temp\ch.elf.ULtIRf.ltrans1.ltrans.o
 *fill*         0x0800aae8        0x8 
 .text.chThdExitS
                0x0800aaf0       0x48 C:\Users\RAKIBU~1\AppData\Local\Temp\ch.elf.ULtIRf.ltrans1.ltrans.o
 *fill*         0x0800ab38        0x8 
 .text.cmd_exit
                0x0800ab40       0x34 C:\Users\RAKIBU~1\AppData\Local\Temp\ch.elf.ULtIRf.ltrans1.ltrans.o
 *fill*         0x0800ab74        0xc 
 .text.shellThread
                0x0800ab80      0x254 C:\Users\RAKIBU~1\AppData\Local\Temp\ch.elf.ULtIRf.ltrans1.ltrans.o
                0x0800ab80                shellThread
 *fill*         0x0800add4        0xc 
 .text.chThdExit
                0x0800ade0        0xc C:\Users\RAKIBU~1\AppData\Local\Temp\ch.elf.ULtIRf.ltrans1.ltrans.o
                0x0800ade0                chThdExit
 *fill*         0x0800adec        0x4 
 .text.chVTDoResetI
                0x0800adf0       0x84 C:\Users\RAKIBU~1\AppData\Local\Temp\ch.elf.ULtIRf.ltrans1.ltrans.o
                0x0800adf0                chVTDoResetI
 *fill*         0x0800ae74        0xc 
 .text.chVTDoSetI
                0x0800ae80       0x98 C:\Users\RAKIBU~1\AppData\Local\Temp\ch.elf.ULtIRf.ltrans1.ltrans.o
                0x0800ae80                chVTDoSetI
 *fill*         0x0800af18        0x8 
 .text.chSchGoSleepTimeoutS
                0x0800af20       0x44 C:\Users\RAKIBU~1\AppData\Local\Temp\ch.elf.ULtIRf.ltrans1.ltrans.o
                0x0800af20                chSchGoSleepTimeoutS
 *fill*         0x0800af64        0xc 
 .text.chGuardedPoolAllocTimeout
                0x0800af70       0x68 C:\Users\RAKIBU~1\AppData\Local\Temp\ch.elf.ULtIRf.ltrans1.ltrans.o
                0x0800af70                chGuardedPoolAllocTimeout
 *fill*         0x0800afd8        0x8 
 .text.chThdEnqueueTimeoutS
                0x0800afe0       0x28 C:\Users\RAKIBU~1\AppData\Local\Temp\ch.elf.ULtIRf.ltrans1.ltrans.o
                0x0800afe0                chThdEnqueueTimeoutS
 *fill*         0x0800b008        0x8 
 .text.chMBFetchTimeout
                0x0800b010       0x64 C:\Users\RAKIBU~1\AppData\Local\Temp\ch.elf.ULtIRf.ltrans1.ltrans.o
                0x0800b010                chMBFetchTimeout
 *fill*         0x0800b074        0xc 
 .text.chMBPostTimeout
                0x0800b080       0x68 C:\Users\RAKIBU~1\AppData\Local\Temp\ch.elf.ULtIRf.ltrans1.ltrans.o
                0x0800b080                chMBPostTimeout
 *fill*         0x0800b0e8        0x8 
 .text.oqWriteTimeout
                0x0800b0f0       0xd4 C:\Users\RAKIBU~1\AppData\Local\Temp\ch.elf.ULtIRf.ltrans1.ltrans.o
 *fill*         0x0800b1c4        0xc 
 .text._writet.lto_priv.0
                0x0800b1d0        0x8 C:\Users\RAKIBU~1\AppData\Local\Temp\ch.elf.ULtIRf.ltrans1.ltrans.o
                0x0800b1d0                _writet.lto_priv.0
 *fill*         0x0800b1d8        0x8 
 .text._write.lto_priv.0
                0x0800b1e0        0xc C:\Users\RAKIBU~1\AppData\Local\Temp\ch.elf.ULtIRf.ltrans1.ltrans.o
                0x0800b1e0                _write.lto_priv.0
 *fill*         0x0800b1ec        0x4 
 .text.oqPutTimeout
                0x0800b1f0       0x54 C:\Users\RAKIBU~1\AppData\Local\Temp\ch.elf.ULtIRf.ltrans1.ltrans.o
 *fill*         0x0800b244        0xc 
 .text._putt.lto_priv.0
                0x0800b250        0x8 C:\Users\RAKIBU~1\AppData\Local\Temp\ch.elf.ULtIRf.ltrans1.ltrans.o
                0x0800b250                _putt.lto_priv.0
 *fill*         0x0800b258        0x8 
 .text._put.lto_priv.0
                0x0800b260        0xc C:\Users\RAKIBU~1\AppData\Local\Temp\ch.elf.ULtIRf.ltrans1.ltrans.o
                0x0800b260                _put.lto_priv.0
 *fill*         0x0800b26c        0x4 
 .text.iqReadTimeout
                0x0800b270       0xd8 C:\Users\RAKIBU~1\AppData\Local\Temp\ch.elf.ULtIRf.ltrans1.ltrans.o
 *fill*         0x0800b348        0x8 
 .text._readt.lto_priv.0
                0x0800b350        0x8 C:\Users\RAKIBU~1\AppData\Local\Temp\ch.elf.ULtIRf.ltrans1.ltrans.o
                0x0800b350                _readt.lto_priv.0
 *fill*         0x0800b358        0x8 
 .text._read.lto_priv.0
                0x0800b360        0xc C:\Users\RAKIBU~1\AppData\Local\Temp\ch.elf.ULtIRf.ltrans1.ltrans.o
                0x0800b360                _read.lto_priv.0
 *fill*         0x0800b36c        0x4 
 .text.iqGetTimeout
                0x0800b370       0x54 C:\Users\RAKIBU~1\AppData\Local\Temp\ch.elf.ULtIRf.ltrans1.ltrans.o
 *fill*         0x0800b3c4        0xc 
 .text._gett.lto_priv.0
                0x0800b3d0        0x8 C:\Users\RAKIBU~1\AppData\Local\Temp\ch.elf.ULtIRf.ltrans1.ltrans.o
                0x0800b3d0                _gett.lto_priv.0
 *fill*         0x0800b3d8        0x8 
 .text._get.lto_priv.0
                0x0800b3e0        0xc C:\Users\RAKIBU~1\AppData\Local\Temp\ch.elf.ULtIRf.ltrans1.ltrans.o
                0x0800b3e0                _get.lto_priv.0
 *fill*         0x0800b3ec        0x4 
 .text.chThdSuspendTimeoutS
                0x0800b3f0       0x1c C:\Users\RAKIBU~1\AppData\Local\Temp\ch.elf.ULtIRf.ltrans1.ltrans.o
                0x0800b3f0                chThdSuspendTimeoutS
 *fill*         0x0800b40c        0x4 
 .text.spiReceive
                0x0800b410       0x50 C:\Users\RAKIBU~1\AppData\Local\Temp\ch.elf.ULtIRf.ltrans1.ltrans.o
 .text.recvr1.isra.0
                0x0800b460       0x24 C:\Users\RAKIBU~1\AppData\Local\Temp\ch.elf.ULtIRf.ltrans1.ltrans.o
 *fill*         0x0800b484        0xc 
 .text.spiSend  0x0800b490       0x50 C:\Users\RAKIBU~1\AppData\Local\Temp\ch.elf.ULtIRf.ltrans1.ltrans.o
 .text.spiIgnore
                0x0800b4e0       0x54 C:\Users\RAKIBU~1\AppData\Local\Temp\ch.elf.ULtIRf.ltrans1.ltrans.o
 *fill*         0x0800b534        0xc 
 .text.chThdSleep
                0x0800b540       0x18 C:\Users\RAKIBU~1\AppData\Local\Temp\ch.elf.ULtIRf.ltrans1.ltrans.o
                0x0800b540                chThdSleep
 *fill*         0x0800b558        0x8 
 .text.sync.isra.0
                0x0800b560       0x38 C:\Users\RAKIBU~1\AppData\Local\Temp\ch.elf.ULtIRf.ltrans1.ltrans.o
 *fill*         0x0800b598        0x8 
 .text.mmcSync  0x0800b5a0       0x2c C:\Users\RAKIBU~1\AppData\Local\Temp\ch.elf.ULtIRf.ltrans1.ltrans.o
                0x0800b5a0                mmcSync
 *fill*         0x0800b5cc        0x4 
 .text.mmcDisconnect
                0x0800b5d0       0x48 C:\Users\RAKIBU~1\AppData\Local\Temp\ch.elf.ULtIRf.ltrans1.ltrans.o
                0x0800b5d0                mmcDisconnect
 *fill*         0x0800b618        0x8 
 .text.wait.isra.0
                0x0800b620       0x40 C:\Users\RAKIBU~1\AppData\Local\Temp\ch.elf.ULtIRf.ltrans1.ltrans.o
 .text.mmcSequentialWrite
                0x0800b660       0x78 C:\Users\RAKIBU~1\AppData\Local\Temp\ch.elf.ULtIRf.ltrans1.ltrans.o
 *fill*         0x0800b6d8        0x8 
 .text.send_hdr
                0x0800b6e0       0x68 C:\Users\RAKIBU~1\AppData\Local\Temp\ch.elf.ULtIRf.ltrans1.ltrans.o
 *fill*         0x0800b748        0x8 
 .text.mmcStartSequentialWrite
                0x0800b750       0x60 C:\Users\RAKIBU~1\AppData\Local\Temp\ch.elf.ULtIRf.ltrans1.ltrans.o
 .text.disk_write
                0x0800b7b0       0x80 C:\Users\RAKIBU~1\AppData\Local\Temp\ch.elf.ULtIRf.ltrans1.ltrans.o
                0x0800b7b0                disk_write
 .text.mmc_write.lto_priv.0
                0x0800b830       0x54 C:\Users\RAKIBU~1\AppData\Local\Temp\ch.elf.ULtIRf.ltrans1.ltrans.o
                0x0800b830                mmc_write.lto_priv.0
 *fill*         0x0800b884        0xc 
 .text.read_CxD
                0x0800b890       0x94 C:\Users\RAKIBU~1\AppData\Local\Temp\ch.elf.ULtIRf.ltrans1.ltrans.o
 *fill*         0x0800b924        0xc 
 .text.send_command_R3
                0x0800b930       0x40 C:\Users\RAKIBU~1\AppData\Local\Temp\ch.elf.ULtIRf.ltrans1.ltrans.o
 .text.send_command_R1
                0x0800b970       0x30 C:\Users\RAKIBU~1\AppData\Local\Temp\ch.elf.ULtIRf.ltrans1.ltrans.o
 .text.mmcConnect
                0x0800b9a0      0x158 C:\Users\RAKIBU~1\AppData\Local\Temp\ch.elf.ULtIRf.ltrans1.ltrans.o
                0x0800b9a0                mmcConnect
 *fill*         0x0800baf8        0x8 
 .text.chSysRestoreStatusX.part.0
                0x0800bb00       0x20 C:\Users\RAKIBU~1\AppData\Local\Temp\ch.elf.ULtIRf.ltrans1.ltrans.o
                0x0800bb00                chSysRestoreStatusX.part.0
 .text.chSysGetStatusAndLockX.part.0
                0x0800bb20        0xc C:\Users\RAKIBU~1\AppData\Local\Temp\ch.elf.ULtIRf.ltrans1.ltrans.o
                0x0800bb20                chSysGetStatusAndLockX.part.0
 *fill*         0x0800bb2c        0x4 
 .text.chSysIntegrityCheckI
                0x0800bb30       0xa4 C:\Users\RAKIBU~1\AppData\Local\Temp\ch.elf.ULtIRf.ltrans1.ltrans.o
                0x0800bb30                chSysIntegrityCheckI
 *fill*         0x0800bbd4        0xc 
 .text.__early_init
                0x0800bbe0       0x7c C:\Users\RAKIBU~1\AppData\Local\Temp\ch.elf.ULtIRf.ltrans1.ltrans.o
                0x0800bbe0                __early_init
 *fill*         0x0800bc5c        0x4 
 .text.VectorD8
                0x0800bc60      0x19c C:\Users\RAKIBU~1\AppData\Local\Temp\ch.elf.ULtIRf.ltrans1.ltrans.o
                0x0800bc60                VectorD8
 *fill*         0x0800bdfc        0x4 
 .text.VectorB0
                0x0800be00       0xcc C:\Users\RAKIBU~1\AppData\Local\Temp\ch.elf.ULtIRf.ltrans1.ltrans.o
                0x0800be00                VectorB0
 *fill*         0x0800becc        0x4 
 .text.Vector84
                0x0800bed0       0x14 C:\Users\RAKIBU~1\AppData\Local\Temp\ch.elf.ULtIRf.ltrans1.ltrans.o
                0x0800bed0                Vector84
 *fill*         0x0800bee4        0xc 
 .text.Vector80
                0x0800bef0       0x14 C:\Users\RAKIBU~1\AppData\Local\Temp\ch.elf.ULtIRf.ltrans1.ltrans.o
                0x0800bef0                Vector80
 *fill*         0x0800bf04        0xc 
 .text.Vector7C
                0x0800bf10       0x14 C:\Users\RAKIBU~1\AppData\Local\Temp\ch.elf.ULtIRf.ltrans1.ltrans.o
                0x0800bf10                Vector7C
 *fill*         0x0800bf24        0xc 
 .text.Vector78
                0x0800bf30       0x14 C:\Users\RAKIBU~1\AppData\Local\Temp\ch.elf.ULtIRf.ltrans1.ltrans.o
                0x0800bf30                Vector78
 *fill*         0x0800bf44        0xc 
 .text.Vector74
                0x0800bf50       0x14 C:\Users\RAKIBU~1\AppData\Local\Temp\ch.elf.ULtIRf.ltrans1.ltrans.o
                0x0800bf50                Vector74
 *fill*         0x0800bf64        0xc 
 .text.Vector70
                0x0800bf70       0x14 C:\Users\RAKIBU~1\AppData\Local\Temp\ch.elf.ULtIRf.ltrans1.ltrans.o
                0x0800bf70                Vector70
 *fill*         0x0800bf84        0xc 
 .text.Vector6C
                0x0800bf90       0x14 C:\Users\RAKIBU~1\AppData\Local\Temp\ch.elf.ULtIRf.ltrans1.ltrans.o
                0x0800bf90                Vector6C
 *fill*         0x0800bfa4        0xc 
 .text.mmcStopSequentialRead.part.0
                0x0800bfb0       0x30 C:\Users\RAKIBU~1\AppData\Local\Temp\ch.elf.ULtIRf.ltrans1.ltrans.o
                0x0800bfb0                mmcStopSequentialRead.part.0
 .text.mmcSequentialRead
                0x0800bfe0       0x60 C:\Users\RAKIBU~1\AppData\Local\Temp\ch.elf.ULtIRf.ltrans1.ltrans.o
                0x0800bfe0                mmcSequentialRead
 .text.mmcStartSequentialRead
                0x0800c040       0x60 C:\Users\RAKIBU~1\AppData\Local\Temp\ch.elf.ULtIRf.ltrans1.ltrans.o
                0x0800c040                mmcStartSequentialRead
 .text.mmc_read.lto_priv.0
                0x0800c0a0       0x3c C:\Users\RAKIBU~1\AppData\Local\Temp\ch.elf.ULtIRf.ltrans1.ltrans.o
                0x0800c0a0                mmc_read.lto_priv.0
 *fill*         0x0800c0dc        0x4 
 .text.__init_ram_areas
                0x0800c0e0       0x68 C:\Users\RAKIBU~1\AppData\Local\Temp\ch.elf.ULtIRf.ltrans1.ltrans.o
                0x0800c0e0                __init_ram_areas
 *fill*         0x0800c148        0x8 
 .text.__default_exit
                0x0800c150        0x4 C:\Users\RAKIBU~1\AppData\Local\Temp\ch.elf.ULtIRf.ltrans1.ltrans.o
                0x0800c150                __default_exit
 *fill*         0x0800c154        0xc 
 .text.__late_init
                0x0800c160        0x4 C:\Users\RAKIBU~1\AppData\Local\Temp\ch.elf.ULtIRf.ltrans1.ltrans.o
                0x0800c160                __late_init
 *fill*         0x0800c164        0xc 
 .text.__core_init
                0x0800c170        0x4 C:\Users\RAKIBU~1\AppData\Local\Temp\ch.elf.ULtIRf.ltrans1.ltrans.o
                0x0800c170                __core_init
 .text.memcmp   0x0800c174       0x5c c:/chibistudio/tools/gnu tools arm embedded/9.0 2019q4/bin/../lib/gcc/arm-none-eabi/9.2.1/../../../../arm-none-eabi/lib/thumb/v7-m/nofp\libg.a(lib_a-memcmp.o)
                0x0800c174                memcmp
 .text.memset   0x0800c1d0       0xa0 c:/chibistudio/tools/gnu tools arm embedded/9.0 2019q4/bin/../lib/gcc/arm-none-eabi/9.2.1/../../../../arm-none-eabi/lib/thumb/v7-m/nofp\libg.a(lib_a-memset.o)
                0x0800c1d0                memset
 .text.strchr   0x0800c270       0xd0 c:/chibistudio/tools/gnu tools arm embedded/9.0 2019q4/bin/../lib/gcc/arm-none-eabi/9.2.1/../../../../arm-none-eabi/lib/thumb/v7-m/nofp\libg.a(lib_a-strchr.o)
                0x0800c270                strchr
 .text.strcpy   0x0800c340       0xbc c:/chibistudio/tools/gnu tools arm embedded/9.0 2019q4/bin/../lib/gcc/arm-none-eabi/9.2.1/../../../../arm-none-eabi/lib/thumb/v7-m/nofp\libg.a(lib_a-strcpy.o)
                0x0800c340                strcpy
 .text.strlen   0x0800c3fc       0x5c c:/chibistudio/tools/gnu tools arm embedded/9.0 2019q4/bin/../lib/gcc/arm-none-eabi/9.2.1/../../../../arm-none-eabi/lib/thumb/v7-m/nofp\libg.a(lib_a-strlen-stub.o)
                0x0800c3fc                strlen
 .text.strncmp  0x0800c458       0x7c c:/chibistudio/tools/gnu tools arm embedded/9.0 2019q4/bin/../lib/gcc/arm-none-eabi/9.2.1/../../../../arm-none-eabi/lib/thumb/v7-m/nofp\libg.a(lib_a-strncmp.o)
                0x0800c458                strncmp
 .text.strncpy  0x0800c4d4       0x68 c:/chibistudio/tools/gnu tools arm embedded/9.0 2019q4/bin/../lib/gcc/arm-none-eabi/9.2.1/../../../../arm-none-eabi/lib/thumb/v7-m/nofp\libg.a(lib_a-strncpy.o)
                0x0800c4d4                strncpy
 .text.strpbrk  0x0800c53c       0x38 c:/chibistudio/tools/gnu tools arm embedded/9.0 2019q4/bin/../lib/gcc/arm-none-eabi/9.2.1/../../../../arm-none-eabi/lib/thumb/v7-m/nofp\libg.a(lib_a-strpbrk.o)
                0x0800c53c                strpbrk
 .text.strspn   0x0800c574       0x30 c:/chibistudio/tools/gnu tools arm embedded/9.0 2019q4/bin/../lib/gcc/arm-none-eabi/9.2.1/../../../../arm-none-eabi/lib/thumb/v7-m/nofp\libg.a(lib_a-strspn.o)
                0x0800c574                strspn
 *(.glue_7t)
 .glue_7t       0x0800c5a4        0x0 linker stubs
 *(.glue_7)
 .glue_7        0x0800c5a4        0x0 linker stubs
 *(.gcc*)
                0x0800c5a4                __text_end__ = .

.vfp11_veneer   0x0800c5a4        0x0
 .vfp11_veneer  0x0800c5a4        0x0 linker stubs

.v4_bx          0x0800c5a4        0x0
 .v4_bx         0x0800c5a4        0x0 linker stubs

.iplt           0x0800c5a4        0x0
 .iplt          0x0800c5a4        0x0 ./build/obj/crt0_v7m.o

.rodata         0x0800c5a4     0x30d0
                0x0800c5a4                __rodata_base__ = .
 *(.rodata)
 *(.rodata.*)
 .rodata._test_assert_time_window.constprop.0.str1.4
                0x0800c5a4       0x13 C:\Users\RAKIBU~1\AppData\Local\Temp\ch.elf.ULtIRf.ltrans0.ltrans.o
 .rodata.test_println.str1.4
                0x0800c5b7       0x13 C:\Users\RAKIBU~1\AppData\Local\Temp\ch.elf.ULtIRf.ltrans0.ltrans.o
                                  0x3 (size before relaxing)
 *fill*         0x0800c5b7        0x1 
 .rodata.chThdCreateStatic.constprop.0.str1.4
                0x0800c5b8        0x7 C:\Users\RAKIBU~1\AppData\Local\Temp\ch.elf.ULtIRf.ltrans0.ltrans.o
 *fill*         0x0800c5bf        0x1 
 .rodata.rt_test_006_005_execute.lto_priv.0.str1.4
                0x0800c5c0       0x21 C:\Users\RAKIBU~1\AppData\Local\Temp\ch.elf.ULtIRf.ltrans0.ltrans.o
 *fill*         0x0800c5e1        0x3 
 .rodata.rt_test_007_005_execute.lto_priv.0.str1.4
                0x0800c5e4       0x3d C:\Users\RAKIBU~1\AppData\Local\Temp\ch.elf.ULtIRf.ltrans0.ltrans.o
 *fill*         0x0800c621        0x3 
 .rodata.oslib_test_007_001_execute.lto_priv.0.str1.4
                0x0800c624       0x35 C:\Users\RAKIBU~1\AppData\Local\Temp\ch.elf.ULtIRf.ltrans0.ltrans.o
 *fill*         0x0800c659        0x3 
 .rodata.oslib_test_001_003_execute.lto_priv.0.str1.4
                0x0800c65c      0x2bd C:\Users\RAKIBU~1\AppData\Local\Temp\ch.elf.ULtIRf.ltrans0.ltrans.o
                                0x2c1 (size before relaxing)
 *fill*         0x0800c919        0x3 
 .rodata.oslib_test_001_002_execute.lto_priv.0.str1.4
                0x0800c91c      0x115 C:\Users\RAKIBU~1\AppData\Local\Temp\ch.elf.ULtIRf.ltrans0.ltrans.o
 *fill*         0x0800ca31        0x3 
 .rodata.rt_test_011_012_execute.lto_priv.0.str1.4
                0x0800ca34       0x95 C:\Users\RAKIBU~1\AppData\Local\Temp\ch.elf.ULtIRf.ltrans0.ltrans.o
 *fill*         0x0800cac9        0x3 
 .rodata.rt_test_009_006_execute.lto_priv.0.str1.4
                0x0800cacc        0xf C:\Users\RAKIBU~1\AppData\Local\Temp\ch.elf.ULtIRf.ltrans0.ltrans.o
 *fill*         0x0800cadb        0x1 
 .rodata.rt_test_001_003_execute.lto_priv.0.str1.4
                0x0800cadc      0x57d C:\Users\RAKIBU~1\AppData\Local\Temp\ch.elf.ULtIRf.ltrans0.ltrans.o
 *fill*         0x0800d059        0x3 
 .rodata.rt_test_001_002_execute.lto_priv.0.str1.4
                0x0800d05c       0x3a C:\Users\RAKIBU~1\AppData\Local\Temp\ch.elf.ULtIRf.ltrans0.ltrans.o
 *fill*         0x0800d096        0x2 
 .rodata.rt_test_001_001_execute.lto_priv.0.str1.4
                0x0800d098      0x19d C:\Users\RAKIBU~1\AppData\Local\Temp\ch.elf.ULtIRf.ltrans0.ltrans.o
 *fill*         0x0800d235        0x3 
 .rodata.oslib_test_003_002_execute.lto_priv.0.str1.4
                0x0800d238       0x1f C:\Users\RAKIBU~1\AppData\Local\Temp\ch.elf.ULtIRf.ltrans0.ltrans.o
 *fill*         0x0800d257        0x1 
 .rodata.chFactoryRegisterObject.constprop.0.str1.4
                0x0800d258        0x6 C:\Users\RAKIBU~1\AppData\Local\Temp\ch.elf.ULtIRf.ltrans0.ltrans.o
 *fill*         0x0800d25e        0x2 
 .rodata.chFactoryCreateSemaphore.constprop.0.str1.4
                0x0800d260        0x6 C:\Users\RAKIBU~1\AppData\Local\Temp\ch.elf.ULtIRf.ltrans0.ltrans.o
 *fill*         0x0800d266        0x2 
 .rodata.chFactoryFindBuffer.constprop.0.str1.4
                0x0800d268        0x6 C:\Users\RAKIBU~1\AppData\Local\Temp\ch.elf.ULtIRf.ltrans0.ltrans.o
 *fill*         0x0800d26e        0x2 
 .rodata.chFactoryFindMailbox.constprop.0.str1.4
                0x0800d270        0x6 C:\Users\RAKIBU~1\AppData\Local\Temp\ch.elf.ULtIRf.ltrans0.ltrans.o
 *fill*         0x0800d276        0x2 
 .rodata.chFactoryFindObjectsFIFO.constprop.0.str1.4
                0x0800d278        0x7 C:\Users\RAKIBU~1\AppData\Local\Temp\ch.elf.ULtIRf.ltrans0.ltrans.o
 *fill*         0x0800d27f        0x1 
 .rodata.chFactoryFindPipe.constprop.0.str1.4
                0x0800d280        0x7 C:\Users\RAKIBU~1\AppData\Local\Temp\ch.elf.ULtIRf.ltrans0.ltrans.o
 *fill*         0x0800d287        0x1 
 .rodata.rt_test_009_002_execute.lto_priv.0.str1.4
                0x0800d288       0x18 C:\Users\RAKIBU~1\AppData\Local\Temp\ch.elf.ULtIRf.ltrans0.ltrans.o
 .rodata.Thread1.lto_priv.2.str1.4
                0x0800d2a0        0x8 C:\Users\RAKIBU~1\AppData\Local\Temp\ch.elf.ULtIRf.ltrans0.ltrans.o
 .rodata.rt_test_007_004_execute.lto_priv.0.str1.4
                0x0800d2a8        0x6 C:\Users\RAKIBU~1\AppData\Local\Temp\ch.elf.ULtIRf.ltrans0.ltrans.o
 *fill*         0x0800d2ae        0x2 
 .rodata.rt_test_011_011_execute.lto_priv.0.str1.4
                0x0800d2b0       0x1f C:\Users\RAKIBU~1\AppData\Local\Temp\ch.elf.ULtIRf.ltrans0.ltrans.o
 *fill*         0x0800d2cf        0x1 
 .rodata.rt_test_011_009_execute.lto_priv.0.str1.4
                0x0800d2d0        0xa C:\Users\RAKIBU~1\AppData\Local\Temp\ch.elf.ULtIRf.ltrans0.ltrans.o
 *fill*         0x0800d2da        0x2 
 .rodata.rt_test_011_005_execute.lto_priv.0.str1.4
                0x0800d2dc        0xb C:\Users\RAKIBU~1\AppData\Local\Temp\ch.elf.ULtIRf.ltrans0.ltrans.o
 *fill*         0x0800d2e7        0x1 
 .rodata.rt_test_011_008_execute.lto_priv.0.str1.4
                0x0800d2e8        0xa C:\Users\RAKIBU~1\AppData\Local\Temp\ch.elf.ULtIRf.ltrans0.ltrans.o
 *fill*         0x0800d2f2        0x2 
 .rodata.rt_test_011_007_execute.lto_priv.0.str1.4
                0x0800d2f4       0x11 C:\Users\RAKIBU~1\AppData\Local\Temp\ch.elf.ULtIRf.ltrans0.ltrans.o
 *fill*         0x0800d305        0x3 
 .rodata.rt_test_010_002_execute.lto_priv.0.str1.4
                0x0800d308       0x8c C:\Users\RAKIBU~1\AppData\Local\Temp\ch.elf.ULtIRf.ltrans0.ltrans.o
                                 0x94 (size before relaxing)
 .rodata.rt_test_007_008_execute.lto_priv.0.str1.4
                0x0800d394        0x6 C:\Users\RAKIBU~1\AppData\Local\Temp\ch.elf.ULtIRf.ltrans0.ltrans.o
 *fill*         0x0800d39a        0x2 
 .rodata.rt_test_006_004_execute.lto_priv.0.str1.4
                0x0800d39c       0x10 C:\Users\RAKIBU~1\AppData\Local\Temp\ch.elf.ULtIRf.ltrans0.ltrans.o
 .rodata.rt_test_006_003_execute.lto_priv.0.str1.4
                0x0800d3ac       0x16 C:\Users\RAKIBU~1\AppData\Local\Temp\ch.elf.ULtIRf.ltrans0.ltrans.o
 *fill*         0x0800d3c2        0x2 
 .rodata.rt_test_005_001_execute.lto_priv.0.str1.4
                0x0800d3c4       0x23 C:\Users\RAKIBU~1\AppData\Local\Temp\ch.elf.ULtIRf.ltrans0.ltrans.o
 *fill*         0x0800d3e7        0x1 
 .rodata.oslib_test_009_006_execute.lto_priv.0.str1.4
                0x0800d3e8       0x58 C:\Users\RAKIBU~1\AppData\Local\Temp\ch.elf.ULtIRf.ltrans0.ltrans.o
                                 0x60 (size before relaxing)
 .rodata.oslib_test_009_001_execute.lto_priv.0.str1.4
                0x0800d440       0x30 C:\Users\RAKIBU~1\AppData\Local\Temp\ch.elf.ULtIRf.ltrans0.ltrans.o
 .rodata.rt_test_010_001_execute.lto_priv.0.str1.4
                0x0800d470       0x66 C:\Users\RAKIBU~1\AppData\Local\Temp\ch.elf.ULtIRf.ltrans0.ltrans.o
 *fill*         0x0800d4d6        0x2 
 .rodata.oslib_test_006_001_execute.lto_priv.0.str1.4
                0x0800d4d8       0x5d C:\Users\RAKIBU~1\AppData\Local\Temp\ch.elf.ULtIRf.ltrans0.ltrans.o
                                 0x65 (size before relaxing)
 *fill*         0x0800d535        0x3 
 .rodata.oslib_test_005_001_execute.lto_priv.0.str1.4
                0x0800d538       0x46 C:\Users\RAKIBU~1\AppData\Local\Temp\ch.elf.ULtIRf.ltrans0.ltrans.o
 *fill*         0x0800d57e        0x2 
 .rodata.oslib_test_004_001_execute.lto_priv.0.str1.4
                0x0800d580       0x18 C:\Users\RAKIBU~1\AppData\Local\Temp\ch.elf.ULtIRf.ltrans0.ltrans.o
 .rodata.oslib_test_003_001_execute.lto_priv.0.str1.4
                0x0800d598       0x1d C:\Users\RAKIBU~1\AppData\Local\Temp\ch.elf.ULtIRf.ltrans0.ltrans.o
 *fill*         0x0800d5b5        0x3 
 .rodata.rt_test_011_010_execute.lto_priv.0.str1.4
                0x0800d5b8        0xf C:\Users\RAKIBU~1\AppData\Local\Temp\ch.elf.ULtIRf.ltrans0.ltrans.o
 *fill*         0x0800d5c7        0x1 
 .rodata.rt_test_006_006_execute.lto_priv.0.str1.4
                0x0800d5c8       0x3f C:\Users\RAKIBU~1\AppData\Local\Temp\ch.elf.ULtIRf.ltrans0.ltrans.o
                                 0x46 (size before relaxing)
 *fill*         0x0800d607        0x1 
 .rodata.rt_test_006_001_execute.lto_priv.0.str1.4
                0x0800d608       0x14 C:\Users\RAKIBU~1\AppData\Local\Temp\ch.elf.ULtIRf.ltrans0.ltrans.o
 .rodata.rt_test_011_003_execute.lto_priv.0.str1.4
                0x0800d61c        0xa C:\Users\RAKIBU~1\AppData\Local\Temp\ch.elf.ULtIRf.ltrans0.ltrans.o
 *fill*         0x0800d626        0x2 
 .rodata.rt_test_009_007_execute.lto_priv.0.str1.4
                0x0800d628       0x1b C:\Users\RAKIBU~1\AppData\Local\Temp\ch.elf.ULtIRf.ltrans0.ltrans.o
 *fill*         0x0800d643        0x1 
 .rodata.rt_test_009_001_execute.lto_priv.0.str1.4
                0x0800d644        0xc C:\Users\RAKIBU~1\AppData\Local\Temp\ch.elf.ULtIRf.ltrans0.ltrans.o
 .rodata.rt_test_009_005_execute.lto_priv.0.str1.4
                0x0800d650       0x2a C:\Users\RAKIBU~1\AppData\Local\Temp\ch.elf.ULtIRf.ltrans0.ltrans.o
 *fill*         0x0800d67a        0x2 
 .rodata.rt_test_009_004_execute.lto_priv.0.str1.4
                0x0800d67c       0x11 C:\Users\RAKIBU~1\AppData\Local\Temp\ch.elf.ULtIRf.ltrans0.ltrans.o
 *fill*         0x0800d68d        0x3 
 .rodata.rt_test_009_003_execute.lto_priv.0.str1.4
                0x0800d690       0x13 C:\Users\RAKIBU~1\AppData\Local\Temp\ch.elf.ULtIRf.ltrans0.ltrans.o
 *fill*         0x0800d6a3        0x1 
 .rodata.rt_test_004_004_execute.lto_priv.0.str1.4
                0x0800d6a4       0x87 C:\Users\RAKIBU~1\AppData\Local\Temp\ch.elf.ULtIRf.ltrans0.ltrans.o
 *fill*         0x0800d72b        0x1 
 .rodata.rt_test_002_002_execute.lto_priv.0.str1.4
                0x0800d72c       0x12 C:\Users\RAKIBU~1\AppData\Local\Temp\ch.elf.ULtIRf.ltrans0.ltrans.o
 *fill*         0x0800d73e        0x2 
 .rodata.rt_test_002_001_execute.lto_priv.0.str1.4
                0x0800d740       0x70 C:\Users\RAKIBU~1\AppData\Local\Temp\ch.elf.ULtIRf.ltrans0.ltrans.o
 .rodata.check_fs.str1.4
                0x0800d7b0       0x12 C:\Users\RAKIBU~1\AppData\Local\Temp\ch.elf.ULtIRf.ltrans0.ltrans.o
 *fill*         0x0800d7c2        0x2 
 .rodata.InsertHandler.str1.4
                0x0800d7c4        0x2 C:\Users\RAKIBU~1\AppData\Local\Temp\ch.elf.ULtIRf.ltrans0.ltrans.o
 *fill*         0x0800d7c6        0x2 
 .rodata.oslib_test_002_001_execute.lto_priv.0.str1.4
                0x0800d7c8       0xb7 C:\Users\RAKIBU~1\AppData\Local\Temp\ch.elf.ULtIRf.ltrans0.ltrans.o
 *fill*         0x0800d87f        0x1 
 .rodata.scan_files.constprop.0.str1.4
                0x0800d880       0x1c C:\Users\RAKIBU~1\AppData\Local\Temp\ch.elf.ULtIRf.ltrans0.ltrans.o
 .rodata.cmd_tree.str1.4
                0x0800d89c       0x89 C:\Users\RAKIBU~1\AppData\Local\Temp\ch.elf.ULtIRf.ltrans0.ltrans.o
 *fill*         0x0800d925        0x3 
 .rodata.oslib_test_008_002_execute.lto_priv.0.str1.4
                0x0800d928       0x2a C:\Users\RAKIBU~1\AppData\Local\Temp\ch.elf.ULtIRf.ltrans0.ltrans.o
 *fill*         0x0800d952        0x2 
 .rodata.oslib_test_008_001_execute.lto_priv.0.str1.4
                0x0800d954       0x49 C:\Users\RAKIBU~1\AppData\Local\Temp\ch.elf.ULtIRf.ltrans0.ltrans.o
 *fill*         0x0800d99d        0x3 
 .rodata.main.str1.4
                0x0800d9a0        0x6 C:\Users\RAKIBU~1\AppData\Local\Temp\ch.elf.ULtIRf.ltrans0.ltrans.o
 *fill*         0x0800d9a6        0x2 
 .rodata.test_execute.str1.4
                0x0800d9a8      0x17c C:\Users\RAKIBU~1\AppData\Local\Temp\ch.elf.ULtIRf.ltrans0.ltrans.o
                                0x184 (size before relaxing)
 .rodata.str1.4
                0x0800db24        0xd C:\Users\RAKIBU~1\AppData\Local\Temp\ch.elf.ULtIRf.ltrans0.ltrans.o
 *fill*         0x0800db31        0x3 
 .rodata.ExCvt  0x0800db34       0x80 C:\Users\RAKIBU~1\AppData\Local\Temp\ch.elf.ULtIRf.ltrans0.ltrans.o
 .rodata.LfnOfs
                0x0800dbb4        0xd C:\Users\RAKIBU~1\AppData\Local\Temp\ch.elf.ULtIRf.ltrans0.ltrans.o
 *fill*         0x0800dbc1        0x3 
 .rodata._stm32_dma_streams
                0x0800dbc4       0x70 C:\Users\RAKIBU~1\AppData\Local\Temp\ch.elf.ULtIRf.ltrans0.ltrans.o
                0x0800dbc4                _stm32_dma_streams
 .rodata.ch_debug
                0x0800dc34       0x16 C:\Users\RAKIBU~1\AppData\Local\Temp\ch.elf.ULtIRf.ltrans0.ltrans.o
 *fill*         0x0800dc4a        0x2 
 .rodata.commands
                0x0800dc4c       0x10 C:\Users\RAKIBU~1\AppData\Local\Temp\ch.elf.ULtIRf.ltrans0.ltrans.o
 .rodata.cvt1.6854
                0x0800dc5c      0x1f2 C:\Users\RAKIBU~1\AppData\Local\Temp\ch.elf.ULtIRf.ltrans0.ltrans.o
 *fill*         0x0800de4e        0x2 
 .rodata.cvt2.6855
                0x0800de50       0xbc C:\Users\RAKIBU~1\AppData\Local\Temp\ch.elf.ULtIRf.ltrans0.ltrans.o
 .rodata.evhndl
                0x0800df0c        0xc C:\Users\RAKIBU~1\AppData\Local\Temp\ch.elf.ULtIRf.ltrans0.ltrans.o
 .rodata.evhndl.8492
                0x0800df18        0xc C:\Users\RAKIBU~1\AppData\Local\Temp\ch.elf.ULtIRf.ltrans0.ltrans.o
 .rodata.idle_descriptor.6619
                0x0800df24       0x18 C:\Users\RAKIBU~1\AppData\Local\Temp\ch.elf.ULtIRf.ltrans0.ltrans.o
 .rodata.mmc_vmt
                0x0800df3c       0x24 C:\Users\RAKIBU~1\AppData\Local\Temp\ch.elf.ULtIRf.ltrans0.ltrans.o
 .rodata.pipe_pattern
                0x0800df60       0x11 C:\Users\RAKIBU~1\AppData\Local\Temp\ch.elf.ULtIRf.ltrans0.ltrans.o
 *fill*         0x0800df71        0x3 
 .rodata.shell_cfg1
                0x0800df74        0x8 C:\Users\RAKIBU~1\AppData\Local\Temp\ch.elf.ULtIRf.ltrans0.ltrans.o
 .rodata.uc850  0x0800df7c      0x100 C:\Users\RAKIBU~1\AppData\Local\Temp\ch.elf.ULtIRf.ltrans0.ltrans.o
 .rodata.vmt    0x0800e07c       0x28 C:\Users\RAKIBU~1\AppData\Local\Temp\ch.elf.ULtIRf.ltrans0.ltrans.o
 .rodata.wa     0x0800e0a4       0x14 C:\Users\RAKIBU~1\AppData\Local\Temp\ch.elf.ULtIRf.ltrans0.ltrans.o
 .rodata.spi_lld_serve_tx_interrupt.str1.4
                0x0800e0b8        0xc C:\Users\RAKIBU~1\AppData\Local\Temp\ch.elf.ULtIRf.ltrans1.ltrans.o
 .rodata.parse_arguments.str1.4
                0x0800e0c4        0x3 C:\Users\RAKIBU~1\AppData\Local\Temp\ch.elf.ULtIRf.ltrans1.ltrans.o
 *fill*         0x0800e0c7        0x1 
 .rodata.chprintf.str1.4
                0x0800e0c8        0x7 C:\Users\RAKIBU~1\AppData\Local\Temp\ch.elf.ULtIRf.ltrans1.ltrans.o
 *fill*         0x0800e0cf        0x1 
 .rodata.cmd_systime.str1.4
                0x0800e0d0       0x1a C:\Users\RAKIBU~1\AppData\Local\Temp\ch.elf.ULtIRf.ltrans1.ltrans.o
 *fill*         0x0800e0ea        0x2 
 .rodata.cmd_echo.str1.4
                0x0800e0ec       0x15 C:\Users\RAKIBU~1\AppData\Local\Temp\ch.elf.ULtIRf.ltrans1.ltrans.o
 *fill*         0x0800e101        0x3 
 .rodata.cmd_info.str1.4
                0x0800e104       0xc5 C:\Users\RAKIBU~1\AppData\Local\Temp\ch.elf.ULtIRf.ltrans1.ltrans.o
                                0x179 (size before relaxing)
 *fill*         0x0800e1c9        0x3 
 .rodata.cmd_mem.str1.4
                0x0800e1cc       0x7a C:\Users\RAKIBU~1\AppData\Local\Temp\ch.elf.ULtIRf.ltrans1.ltrans.o
 *fill*         0x0800e246        0x2 
 .rodata.cmd_threads.str1.4
                0x0800e248       0x67 C:\Users\RAKIBU~1\AppData\Local\Temp\ch.elf.ULtIRf.ltrans1.ltrans.o
                                 0x73 (size before relaxing)
 *fill*         0x0800e2af        0x1 
 .rodata.cmd_test.str1.4
                0x0800e2b0       0x20 C:\Users\RAKIBU~1\AppData\Local\Temp\ch.elf.ULtIRf.ltrans1.ltrans.o
                                 0x30 (size before relaxing)
 .rodata.cmd_exit.str1.4
                0x0800e2d0        0x5 C:\Users\RAKIBU~1\AppData\Local\Temp\ch.elf.ULtIRf.ltrans1.ltrans.o
 *fill*         0x0800e2d5        0x3 
 .rodata.shellThread.str1.4
                0x0800e2d8       0x65 C:\Users\RAKIBU~1\AppData\Local\Temp\ch.elf.ULtIRf.ltrans1.ltrans.o
                                 0x71 (size before relaxing)
 *fill*         0x0800e33d        0x3 
 .rodata.str1.4
                0x0800e340      0xa62 C:\Users\RAKIBU~1\AppData\Local\Temp\ch.elf.ULtIRf.ltrans1.ltrans.o
 *fill*         0x0800eda2        0x2 
 .rodata.crc7_lookup_table
                0x0800eda4      0x100 C:\Users\RAKIBU~1\AppData\Local\Temp\ch.elf.ULtIRf.ltrans1.ltrans.o
 .rodata.dummytx
                0x0800eea4        0x2 C:\Users\RAKIBU~1\AppData\Local\Temp\ch.elf.ULtIRf.ltrans1.ltrans.o
 *fill*         0x0800eea6        0x2 
 .rodata.oslib_test_001_001
                0x0800eea8       0x10 C:\Users\RAKIBU~1\AppData\Local\Temp\ch.elf.ULtIRf.ltrans1.ltrans.o
 .rodata.oslib_test_001_002
                0x0800eeb8       0x10 C:\Users\RAKIBU~1\AppData\Local\Temp\ch.elf.ULtIRf.ltrans1.ltrans.o
 .rodata.oslib_test_001_003
                0x0800eec8       0x10 C:\Users\RAKIBU~1\AppData\Local\Temp\ch.elf.ULtIRf.ltrans1.ltrans.o
 .rodata.oslib_test_002_001
                0x0800eed8       0x10 C:\Users\RAKIBU~1\AppData\Local\Temp\ch.elf.ULtIRf.ltrans1.ltrans.o
 .rodata.oslib_test_002_002
                0x0800eee8       0x10 C:\Users\RAKIBU~1\AppData\Local\Temp\ch.elf.ULtIRf.ltrans1.ltrans.o
 .rodata.oslib_test_002_003
                0x0800eef8       0x10 C:\Users\RAKIBU~1\AppData\Local\Temp\ch.elf.ULtIRf.ltrans1.ltrans.o
 .rodata.oslib_test_003_001
                0x0800ef08       0x10 C:\Users\RAKIBU~1\AppData\Local\Temp\ch.elf.ULtIRf.ltrans1.ltrans.o
 .rodata.oslib_test_003_002
                0x0800ef18       0x10 C:\Users\RAKIBU~1\AppData\Local\Temp\ch.elf.ULtIRf.ltrans1.ltrans.o
 .rodata.oslib_test_004_001
                0x0800ef28       0x10 C:\Users\RAKIBU~1\AppData\Local\Temp\ch.elf.ULtIRf.ltrans1.ltrans.o
 .rodata.oslib_test_005_001
                0x0800ef38       0x10 C:\Users\RAKIBU~1\AppData\Local\Temp\ch.elf.ULtIRf.ltrans1.ltrans.o
 .rodata.oslib_test_006_001
                0x0800ef48       0x10 C:\Users\RAKIBU~1\AppData\Local\Temp\ch.elf.ULtIRf.ltrans1.ltrans.o
 .rodata.oslib_test_007_001
                0x0800ef58       0x10 C:\Users\RAKIBU~1\AppData\Local\Temp\ch.elf.ULtIRf.ltrans1.ltrans.o
 .rodata.oslib_test_007_002
                0x0800ef68       0x10 C:\Users\RAKIBU~1\AppData\Local\Temp\ch.elf.ULtIRf.ltrans1.ltrans.o
 .rodata.oslib_test_007_003
                0x0800ef78       0x10 C:\Users\RAKIBU~1\AppData\Local\Temp\ch.elf.ULtIRf.ltrans1.ltrans.o
 .rodata.oslib_test_008_001
                0x0800ef88       0x10 C:\Users\RAKIBU~1\AppData\Local\Temp\ch.elf.ULtIRf.ltrans1.ltrans.o
 .rodata.oslib_test_008_002
                0x0800ef98       0x10 C:\Users\RAKIBU~1\AppData\Local\Temp\ch.elf.ULtIRf.ltrans1.ltrans.o
 .rodata.oslib_test_009_001
                0x0800efa8       0x10 C:\Users\RAKIBU~1\AppData\Local\Temp\ch.elf.ULtIRf.ltrans1.ltrans.o
 .rodata.oslib_test_009_002
                0x0800efb8       0x10 C:\Users\RAKIBU~1\AppData\Local\Temp\ch.elf.ULtIRf.ltrans1.ltrans.o
 .rodata.oslib_test_009_003
                0x0800efc8       0x10 C:\Users\RAKIBU~1\AppData\Local\Temp\ch.elf.ULtIRf.ltrans1.ltrans.o
 .rodata.oslib_test_009_004
                0x0800efd8       0x10 C:\Users\RAKIBU~1\AppData\Local\Temp\ch.elf.ULtIRf.ltrans1.ltrans.o
 .rodata.oslib_test_009_005
                0x0800efe8       0x10 C:\Users\RAKIBU~1\AppData\Local\Temp\ch.elf.ULtIRf.ltrans1.ltrans.o
 .rodata.oslib_test_009_006
                0x0800eff8       0x10 C:\Users\RAKIBU~1\AppData\Local\Temp\ch.elf.ULtIRf.ltrans1.ltrans.o
 .rodata.oslib_test_sequence_001
                0x0800f008        0x8 C:\Users\RAKIBU~1\AppData\Local\Temp\ch.elf.ULtIRf.ltrans1.ltrans.o
 .rodata.oslib_test_sequence_001_array
                0x0800f010       0x10 C:\Users\RAKIBU~1\AppData\Local\Temp\ch.elf.ULtIRf.ltrans1.ltrans.o
 .rodata.oslib_test_sequence_002
                0x0800f020        0x8 C:\Users\RAKIBU~1\AppData\Local\Temp\ch.elf.ULtIRf.ltrans1.ltrans.o
 .rodata.oslib_test_sequence_002_array
                0x0800f028       0x10 C:\Users\RAKIBU~1\AppData\Local\Temp\ch.elf.ULtIRf.ltrans1.ltrans.o
 .rodata.oslib_test_sequence_003
                0x0800f038        0x8 C:\Users\RAKIBU~1\AppData\Local\Temp\ch.elf.ULtIRf.ltrans1.ltrans.o
 .rodata.oslib_test_sequence_003_array
                0x0800f040        0xc C:\Users\RAKIBU~1\AppData\Local\Temp\ch.elf.ULtIRf.ltrans1.ltrans.o
 .rodata.oslib_test_sequence_004
                0x0800f04c        0x8 C:\Users\RAKIBU~1\AppData\Local\Temp\ch.elf.ULtIRf.ltrans1.ltrans.o
 .rodata.oslib_test_sequence_004_array
                0x0800f054        0x8 C:\Users\RAKIBU~1\AppData\Local\Temp\ch.elf.ULtIRf.ltrans1.ltrans.o
 .rodata.oslib_test_sequence_005
                0x0800f05c        0x8 C:\Users\RAKIBU~1\AppData\Local\Temp\ch.elf.ULtIRf.ltrans1.ltrans.o
 .rodata.oslib_test_sequence_005_array
                0x0800f064        0x8 C:\Users\RAKIBU~1\AppData\Local\Temp\ch.elf.ULtIRf.ltrans1.ltrans.o
 .rodata.oslib_test_sequence_006
                0x0800f06c        0x8 C:\Users\RAKIBU~1\AppData\Local\Temp\ch.elf.ULtIRf.ltrans1.ltrans.o
 .rodata.oslib_test_sequence_006_array
                0x0800f074        0x8 C:\Users\RAKIBU~1\AppData\Local\Temp\ch.elf.ULtIRf.ltrans1.ltrans.o
 .rodata.oslib_test_sequence_007
                0x0800f07c        0x8 C:\Users\RAKIBU~1\AppData\Local\Temp\ch.elf.ULtIRf.ltrans1.ltrans.o
 .rodata.oslib_test_sequence_007_array
                0x0800f084       0x10 C:\Users\RAKIBU~1\AppData\Local\Temp\ch.elf.ULtIRf.ltrans1.ltrans.o
 .rodata.oslib_test_sequence_008
                0x0800f094        0x8 C:\Users\RAKIBU~1\AppData\Local\Temp\ch.elf.ULtIRf.ltrans1.ltrans.o
 .rodata.oslib_test_sequence_008_array
                0x0800f09c        0xc C:\Users\RAKIBU~1\AppData\Local\Temp\ch.elf.ULtIRf.ltrans1.ltrans.o
 .rodata.oslib_test_sequence_009
                0x0800f0a8        0x8 C:\Users\RAKIBU~1\AppData\Local\Temp\ch.elf.ULtIRf.ltrans1.ltrans.o
 .rodata.oslib_test_sequence_009_array
                0x0800f0b0       0x1c C:\Users\RAKIBU~1\AppData\Local\Temp\ch.elf.ULtIRf.ltrans1.ltrans.o
 .rodata.oslib_test_suite
                0x0800f0cc        0x8 C:\Users\RAKIBU~1\AppData\Local\Temp\ch.elf.ULtIRf.ltrans1.ltrans.o
 .rodata.oslib_test_suite_array
                0x0800f0d4       0x28 C:\Users\RAKIBU~1\AppData\Local\Temp\ch.elf.ULtIRf.ltrans1.ltrans.o
 .rodata.ram_areas
                0x0800f0fc       0x80 C:\Users\RAKIBU~1\AppData\Local\Temp\ch.elf.ULtIRf.ltrans1.ltrans.o
 .rodata.rt_test_001_001
                0x0800f17c       0x10 C:\Users\RAKIBU~1\AppData\Local\Temp\ch.elf.ULtIRf.ltrans1.ltrans.o
 .rodata.rt_test_001_002
                0x0800f18c       0x10 C:\Users\RAKIBU~1\AppData\Local\Temp\ch.elf.ULtIRf.ltrans1.ltrans.o
 .rodata.rt_test_001_003
                0x0800f19c       0x10 C:\Users\RAKIBU~1\AppData\Local\Temp\ch.elf.ULtIRf.ltrans1.ltrans.o
 .rodata.rt_test_002_001
                0x0800f1ac       0x10 C:\Users\RAKIBU~1\AppData\Local\Temp\ch.elf.ULtIRf.ltrans1.ltrans.o
 .rodata.rt_test_002_002
                0x0800f1bc       0x10 C:\Users\RAKIBU~1\AppData\Local\Temp\ch.elf.ULtIRf.ltrans1.ltrans.o
 .rodata.rt_test_002_003
                0x0800f1cc       0x10 C:\Users\RAKIBU~1\AppData\Local\Temp\ch.elf.ULtIRf.ltrans1.ltrans.o
 .rodata.rt_test_003_001
                0x0800f1dc       0x10 C:\Users\RAKIBU~1\AppData\Local\Temp\ch.elf.ULtIRf.ltrans1.ltrans.o
 .rodata.rt_test_003_002
                0x0800f1ec       0x10 C:\Users\RAKIBU~1\AppData\Local\Temp\ch.elf.ULtIRf.ltrans1.ltrans.o
 .rodata.rt_test_004_001
                0x0800f1fc       0x10 C:\Users\RAKIBU~1\AppData\Local\Temp\ch.elf.ULtIRf.ltrans1.ltrans.o
 .rodata.rt_test_004_002
                0x0800f20c       0x10 C:\Users\RAKIBU~1\AppData\Local\Temp\ch.elf.ULtIRf.ltrans1.ltrans.o
 .rodata.rt_test_004_003
                0x0800f21c       0x10 C:\Users\RAKIBU~1\AppData\Local\Temp\ch.elf.ULtIRf.ltrans1.ltrans.o
 .rodata.rt_test_004_004
                0x0800f22c       0x10 C:\Users\RAKIBU~1\AppData\Local\Temp\ch.elf.ULtIRf.ltrans1.ltrans.o
 .rodata.rt_test_005_001
                0x0800f23c       0x10 C:\Users\RAKIBU~1\AppData\Local\Temp\ch.elf.ULtIRf.ltrans1.ltrans.o
 .rodata.rt_test_006_001
                0x0800f24c       0x10 C:\Users\RAKIBU~1\AppData\Local\Temp\ch.elf.ULtIRf.ltrans1.ltrans.o
 .rodata.rt_test_006_002
                0x0800f25c       0x10 C:\Users\RAKIBU~1\AppData\Local\Temp\ch.elf.ULtIRf.ltrans1.ltrans.o
 .rodata.rt_test_006_003
                0x0800f26c       0x10 C:\Users\RAKIBU~1\AppData\Local\Temp\ch.elf.ULtIRf.ltrans1.ltrans.o
 .rodata.rt_test_006_004
                0x0800f27c       0x10 C:\Users\RAKIBU~1\AppData\Local\Temp\ch.elf.ULtIRf.ltrans1.ltrans.o
 .rodata.rt_test_006_005
                0x0800f28c       0x10 C:\Users\RAKIBU~1\AppData\Local\Temp\ch.elf.ULtIRf.ltrans1.ltrans.o
 .rodata.rt_test_006_006
                0x0800f29c       0x10 C:\Users\RAKIBU~1\AppData\Local\Temp\ch.elf.ULtIRf.ltrans1.ltrans.o
 .rodata.rt_test_007_001
                0x0800f2ac       0x10 C:\Users\RAKIBU~1\AppData\Local\Temp\ch.elf.ULtIRf.ltrans1.ltrans.o
 .rodata.rt_test_007_004
                0x0800f2bc       0x10 C:\Users\RAKIBU~1\AppData\Local\Temp\ch.elf.ULtIRf.ltrans1.ltrans.o
 .rodata.rt_test_007_005
                0x0800f2cc       0x10 C:\Users\RAKIBU~1\AppData\Local\Temp\ch.elf.ULtIRf.ltrans1.ltrans.o
 .rodata.rt_test_007_007
                0x0800f2dc       0x10 C:\Users\RAKIBU~1\AppData\Local\Temp\ch.elf.ULtIRf.ltrans1.ltrans.o
 .rodata.rt_test_007_008
                0x0800f2ec       0x10 C:\Users\RAKIBU~1\AppData\Local\Temp\ch.elf.ULtIRf.ltrans1.ltrans.o
 .rodata.rt_test_007_009
                0x0800f2fc       0x10 C:\Users\RAKIBU~1\AppData\Local\Temp\ch.elf.ULtIRf.ltrans1.ltrans.o
 .rodata.rt_test_008_001
                0x0800f30c       0x10 C:\Users\RAKIBU~1\AppData\Local\Temp\ch.elf.ULtIRf.ltrans1.ltrans.o
 .rodata.rt_test_009_001
                0x0800f31c       0x10 C:\Users\RAKIBU~1\AppData\Local\Temp\ch.elf.ULtIRf.ltrans1.ltrans.o
 .rodata.rt_test_009_002
                0x0800f32c       0x10 C:\Users\RAKIBU~1\AppData\Local\Temp\ch.elf.ULtIRf.ltrans1.ltrans.o
 .rodata.rt_test_009_003
                0x0800f33c       0x10 C:\Users\RAKIBU~1\AppData\Local\Temp\ch.elf.ULtIRf.ltrans1.ltrans.o
 .rodata.rt_test_009_004
                0x0800f34c       0x10 C:\Users\RAKIBU~1\AppData\Local\Temp\ch.elf.ULtIRf.ltrans1.ltrans.o
 .rodata.rt_test_009_005
                0x0800f35c       0x10 C:\Users\RAKIBU~1\AppData\Local\Temp\ch.elf.ULtIRf.ltrans1.ltrans.o
 .rodata.rt_test_009_006
                0x0800f36c       0x10 C:\Users\RAKIBU~1\AppData\Local\Temp\ch.elf.ULtIRf.ltrans1.ltrans.o
 .rodata.rt_test_009_007
                0x0800f37c       0x10 C:\Users\RAKIBU~1\AppData\Local\Temp\ch.elf.ULtIRf.ltrans1.ltrans.o
 .rodata.rt_test_010_001
                0x0800f38c       0x10 C:\Users\RAKIBU~1\AppData\Local\Temp\ch.elf.ULtIRf.ltrans1.ltrans.o
 .rodata.rt_test_010_002
                0x0800f39c       0x10 C:\Users\RAKIBU~1\AppData\Local\Temp\ch.elf.ULtIRf.ltrans1.ltrans.o
 .rodata.rt_test_011_001
                0x0800f3ac       0x10 C:\Users\RAKIBU~1\AppData\Local\Temp\ch.elf.ULtIRf.ltrans1.ltrans.o
 .rodata.rt_test_011_002
                0x0800f3bc       0x10 C:\Users\RAKIBU~1\AppData\Local\Temp\ch.elf.ULtIRf.ltrans1.ltrans.o
 .rodata.rt_test_011_003
                0x0800f3cc       0x10 C:\Users\RAKIBU~1\AppData\Local\Temp\ch.elf.ULtIRf.ltrans1.ltrans.o
 .rodata.rt_test_011_004
                0x0800f3dc       0x10 C:\Users\RAKIBU~1\AppData\Local\Temp\ch.elf.ULtIRf.ltrans1.ltrans.o
 .rodata.rt_test_011_005
                0x0800f3ec       0x10 C:\Users\RAKIBU~1\AppData\Local\Temp\ch.elf.ULtIRf.ltrans1.ltrans.o
 .rodata.rt_test_011_006
                0x0800f3fc       0x10 C:\Users\RAKIBU~1\AppData\Local\Temp\ch.elf.ULtIRf.ltrans1.ltrans.o
 .rodata.rt_test_011_007
                0x0800f40c       0x10 C:\Users\RAKIBU~1\AppData\Local\Temp\ch.elf.ULtIRf.ltrans1.ltrans.o
 .rodata.rt_test_011_008
                0x0800f41c       0x10 C:\Users\RAKIBU~1\AppData\Local\Temp\ch.elf.ULtIRf.ltrans1.ltrans.o
 .rodata.rt_test_011_009
                0x0800f42c       0x10 C:\Users\RAKIBU~1\AppData\Local\Temp\ch.elf.ULtIRf.ltrans1.ltrans.o
 .rodata.rt_test_011_010
                0x0800f43c       0x10 C:\Users\RAKIBU~1\AppData\Local\Temp\ch.elf.ULtIRf.ltrans1.ltrans.o
 .rodata.rt_test_011_011
                0x0800f44c       0x10 C:\Users\RAKIBU~1\AppData\Local\Temp\ch.elf.ULtIRf.ltrans1.ltrans.o
 .rodata.rt_test_011_012
                0x0800f45c       0x10 C:\Users\RAKIBU~1\AppData\Local\Temp\ch.elf.ULtIRf.ltrans1.ltrans.o
 .rodata.rt_test_sequence_001
                0x0800f46c        0x8 C:\Users\RAKIBU~1\AppData\Local\Temp\ch.elf.ULtIRf.ltrans1.ltrans.o
 .rodata.rt_test_sequence_001_array
                0x0800f474       0x10 C:\Users\RAKIBU~1\AppData\Local\Temp\ch.elf.ULtIRf.ltrans1.ltrans.o
 .rodata.rt_test_sequence_002
                0x0800f484        0x8 C:\Users\RAKIBU~1\AppData\Local\Temp\ch.elf.ULtIRf.ltrans1.ltrans.o
 .rodata.rt_test_sequence_002_array
                0x0800f48c       0x10 C:\Users\RAKIBU~1\AppData\Local\Temp\ch.elf.ULtIRf.ltrans1.ltrans.o
 .rodata.rt_test_sequence_003
                0x0800f49c        0x8 C:\Users\RAKIBU~1\AppData\Local\Temp\ch.elf.ULtIRf.ltrans1.ltrans.o
 .rodata.rt_test_sequence_003_array
                0x0800f4a4        0xc C:\Users\RAKIBU~1\AppData\Local\Temp\ch.elf.ULtIRf.ltrans1.ltrans.o
 .rodata.rt_test_sequence_004
                0x0800f4b0        0x8 C:\Users\RAKIBU~1\AppData\Local\Temp\ch.elf.ULtIRf.ltrans1.ltrans.o
 .rodata.rt_test_sequence_004_array
                0x0800f4b8       0x14 C:\Users\RAKIBU~1\AppData\Local\Temp\ch.elf.ULtIRf.ltrans1.ltrans.o
 .rodata.rt_test_sequence_005
                0x0800f4cc        0x8 C:\Users\RAKIBU~1\AppData\Local\Temp\ch.elf.ULtIRf.ltrans1.ltrans.o
 .rodata.rt_test_sequence_005_array
                0x0800f4d4        0x8 C:\Users\RAKIBU~1\AppData\Local\Temp\ch.elf.ULtIRf.ltrans1.ltrans.o
 .rodata.rt_test_sequence_006
                0x0800f4dc        0x8 C:\Users\RAKIBU~1\AppData\Local\Temp\ch.elf.ULtIRf.ltrans1.ltrans.o
 .rodata.rt_test_sequence_006_array
                0x0800f4e4       0x1c C:\Users\RAKIBU~1\AppData\Local\Temp\ch.elf.ULtIRf.ltrans1.ltrans.o
 .rodata.rt_test_sequence_007
                0x0800f500        0x8 C:\Users\RAKIBU~1\AppData\Local\Temp\ch.elf.ULtIRf.ltrans1.ltrans.o
 .rodata.rt_test_sequence_007_array
                0x0800f508       0x1c C:\Users\RAKIBU~1\AppData\Local\Temp\ch.elf.ULtIRf.ltrans1.ltrans.o
 .rodata.rt_test_sequence_008
                0x0800f524        0x8 C:\Users\RAKIBU~1\AppData\Local\Temp\ch.elf.ULtIRf.ltrans1.ltrans.o
 .rodata.rt_test_sequence_008_array
                0x0800f52c        0x8 C:\Users\RAKIBU~1\AppData\Local\Temp\ch.elf.ULtIRf.ltrans1.ltrans.o
 .rodata.rt_test_sequence_009
                0x0800f534        0x8 C:\Users\RAKIBU~1\AppData\Local\Temp\ch.elf.ULtIRf.ltrans1.ltrans.o
 .rodata.rt_test_sequence_009_array
                0x0800f53c       0x20 C:\Users\RAKIBU~1\AppData\Local\Temp\ch.elf.ULtIRf.ltrans1.ltrans.o
 .rodata.rt_test_sequence_010
                0x0800f55c        0x8 C:\Users\RAKIBU~1\AppData\Local\Temp\ch.elf.ULtIRf.ltrans1.ltrans.o
 .rodata.rt_test_sequence_010_array
                0x0800f564        0xc C:\Users\RAKIBU~1\AppData\Local\Temp\ch.elf.ULtIRf.ltrans1.ltrans.o
 .rodata.rt_test_sequence_011
                0x0800f570        0x8 C:\Users\RAKIBU~1\AppData\Local\Temp\ch.elf.ULtIRf.ltrans1.ltrans.o
 .rodata.rt_test_sequence_011_array
                0x0800f578       0x34 C:\Users\RAKIBU~1\AppData\Local\Temp\ch.elf.ULtIRf.ltrans1.ltrans.o
 .rodata.rt_test_suite
                0x0800f5ac        0x8 C:\Users\RAKIBU~1\AppData\Local\Temp\ch.elf.ULtIRf.ltrans1.ltrans.o
 .rodata.rt_test_suite_array
                0x0800f5b4       0x30 C:\Users\RAKIBU~1\AppData\Local\Temp\ch.elf.ULtIRf.ltrans1.ltrans.o
 .rodata.shell_local_commands
                0x0800f5e4       0x40 C:\Users\RAKIBU~1\AppData\Local\Temp\ch.elf.ULtIRf.ltrans1.ltrans.o
 .rodata.start.8336
                0x0800f624        0x2 C:\Users\RAKIBU~1\AppData\Local\Temp\ch.elf.ULtIRf.ltrans1.ltrans.o
 *fill*         0x0800f626        0x2 
 .rodata.states.8325
                0x0800f628       0x40 C:\Users\RAKIBU~1\AppData\Local\Temp\ch.elf.ULtIRf.ltrans1.ltrans.o
 .rodata.stop.8342
                0x0800f668        0x2 C:\Users\RAKIBU~1\AppData\Local\Temp\ch.elf.ULtIRf.ltrans1.ltrans.o
 *fill*         0x0800f66a        0x2 
 .rodata.stopcmd.8325
                0x0800f66c        0x7 C:\Users\RAKIBU~1\AppData\Local\Temp\ch.elf.ULtIRf.ltrans1.ltrans.o
                0x0800f674                . = ALIGN (0x4)
 *fill*         0x0800f673        0x1 
                0x0800f674                __rodata_end__ = .

.rel.dyn        0x0800f674        0x0
 .rel.iplt      0x0800f674        0x0 ./build/obj/crt0_v7m.o

.ARM.extab
 *(.ARM.extab* .gnu.linkonce.armextab.*)

.ARM.exidx      0x0800f674        0x0
                0x0800f674                __exidx_base__ = .
                0x0800f674                __exidx_start = .
 *(.ARM.exidx* .gnu.linkonce.armexidx.*)
                0x0800f674                __exidx_end__ = .
                0x0800f674                __exidx_end = .

.eh_frame_hdr
 *(.eh_frame_hdr)

.eh_frame
 *(.eh_frame)

.data           0x20000800      0x110 load address 0x0800f674
                [!provide]                PROVIDE (_textdata = LOADADDR (.data))
                [!provide]                PROVIDE (_data = .)
                0x0800f674                __textdata_base__ = LOADADDR (.data)
                0x20000800                __data_base__ = .
 *(.data)
 *(.data.*)
 .data.c1       0x20000800        0x8 C:\Users\RAKIBU~1\AppData\Local\Temp\ch.elf.ULtIRf.ltrans0.ltrans.o
 .data.es1      0x20000808        0x4 C:\Users\RAKIBU~1\AppData\Local\Temp\ch.elf.ULtIRf.ltrans0.ltrans.o
 .data.es2      0x2000080c        0x4 C:\Users\RAKIBU~1\AppData\Local\Temp\ch.elf.ULtIRf.ltrans0.ltrans.o
 .data.gmp1     0x20000810       0x1c C:\Users\RAKIBU~1\AppData\Local\Temp\ch.elf.ULtIRf.ltrans0.ltrans.o
 .data.hs_spicfg
                0x2000082c       0x14 C:\Users\RAKIBU~1\AppData\Local\Temp\ch.elf.ULtIRf.ltrans0.ltrans.o
 .data.ls_spicfg
                0x20000840       0x14 C:\Users\RAKIBU~1\AppData\Local\Temp\ch.elf.ULtIRf.ltrans0.ltrans.o
 .data.m1       0x20000854       0x10 C:\Users\RAKIBU~1\AppData\Local\Temp\ch.elf.ULtIRf.ltrans0.ltrans.o
 .data.m2       0x20000864       0x10 C:\Users\RAKIBU~1\AppData\Local\Temp\ch.elf.ULtIRf.ltrans0.ltrans.o
 .data.mb1      0x20000874       0x28 C:\Users\RAKIBU~1\AppData\Local\Temp\ch.elf.ULtIRf.ltrans0.ltrans.o
 .data.mmccfg   0x2000089c        0xc C:\Users\RAKIBU~1\AppData\Local\Temp\ch.elf.ULtIRf.ltrans0.ltrans.o
 .data.mp1.lto_priv.1
                0x200008a8       0x10 C:\Users\RAKIBU~1\AppData\Local\Temp\ch.elf.ULtIRf.ltrans0.ltrans.o
 .data.myobj.7830
                0x200008b8        0x4 C:\Users\RAKIBU~1\AppData\Local\Temp\ch.elf.ULtIRf.ltrans0.ltrans.o
 .data.myobj.7832
                0x200008bc        0x4 C:\Users\RAKIBU~1\AppData\Local\Temp\ch.elf.ULtIRf.ltrans0.ltrans.o
 .data.pipe1    0x200008c0       0x50 C:\Users\RAKIBU~1\AppData\Local\Temp\ch.elf.ULtIRf.ltrans0.ltrans.o
 *(.ramtext)
                0x20000910                . = ALIGN (0x4)
                [!provide]                PROVIDE (_edata = .)
                0x20000910                __data_end__ = .

.igot.plt       0x20000910        0x0 load address 0x0800f784
 .igot.plt      0x20000910        0x0 ./build/obj/crt0_v7m.o

.bss            0x20000910     0x1af4 load address 0x0800f784
                0x20000910                __bss_base__ = .
 *(.bss)
 *(.bss.*)
 .bss.FatFs     0x20000910        0x4 C:\Users\RAKIBU~1\AppData\Local\Temp\ch.elf.ULtIRf.ltrans0.ltrans.o
 .bss.Fsid      0x20000914        0x2 C:\Users\RAKIBU~1\AppData\Local\Temp\ch.elf.ULtIRf.ltrans0.ltrans.o
 *fill*         0x20000916        0x2 
 .bss.MMCD1     0x20000918       0x34 C:\Users\RAKIBU~1\AppData\Local\Temp\ch.elf.ULtIRf.ltrans0.ltrans.o
                0x20000918                MMCD1
 .bss.SD2       0x2000094c       0x7c C:\Users\RAKIBU~1\AppData\Local\Temp\ch.elf.ULtIRf.ltrans0.ltrans.o
                0x2000094c                SD2
 .bss.SDC_FS    0x200009c8      0x23c C:\Users\RAKIBU~1\AppData\Local\Temp\ch.elf.ULtIRf.ltrans0.ltrans.o
 .bss.SPID2     0x20000c04       0x30 C:\Users\RAKIBU~1\AppData\Local\Temp\ch.elf.ULtIRf.ltrans0.ltrans.o
                0x20000c04                SPID2
 .bss.buffer    0x20000c34       0x10 C:\Users\RAKIBU~1\AppData\Local\Temp\ch.elf.ULtIRf.ltrans0.ltrans.o
 .bss.cache1    0x20000c44       0x44 C:\Users\RAKIBU~1\AppData\Local\Temp\ch.elf.ULtIRf.ltrans0.ltrans.o
 .bss.ch        0x20000c88       0x78 C:\Users\RAKIBU~1\AppData\Local\Temp\ch.elf.ULtIRf.ltrans0.ltrans.o
                0x20000c88                ch
 .bss.ch_factory
                0x20000d00       0x48 C:\Users\RAKIBU~1\AppData\Local\Temp\ch.elf.ULtIRf.ltrans0.ltrans.o
                0x20000d00                ch_factory
 .bss.ch_idle_thread_wa
                0x20000d48       0xd8 C:\Users\RAKIBU~1\AppData\Local\Temp\ch.elf.ULtIRf.ltrans0.ltrans.o
 .bss.ch_memcore
                0x20000e20        0x8 C:\Users\RAKIBU~1\AppData\Local\Temp\ch.elf.ULtIRf.ltrans0.ltrans.o
                0x20000e20                ch_memcore
 .bss.cnt       0x20000e28        0x4 C:\Users\RAKIBU~1\AppData\Local\Temp\ch.elf.ULtIRf.ltrans0.ltrans.o
 .bss.default_heap.lto_priv.0
                0x20000e2c       0x1c C:\Users\RAKIBU~1\AppData\Local\Temp\ch.elf.ULtIRf.ltrans0.ltrans.o
                0x20000e2c                default_heap.lto_priv.0
 .bss.dma.lto_priv.0
                0x20000e48       0x40 C:\Users\RAKIBU~1\AppData\Local\Temp\ch.elf.ULtIRf.ltrans0.ltrans.o
                0x20000e48                dma.lto_priv.0
 .bss.exit_flag
                0x20000e88        0x1 C:\Users\RAKIBU~1\AppData\Local\Temp\ch.elf.ULtIRf.ltrans0.ltrans.o
 *fill*         0x20000e89        0x3 
 .bss.fbuff     0x20000e8c      0x400 C:\Users\RAKIBU~1\AppData\Local\Temp\ch.elf.ULtIRf.ltrans0.ltrans.o
 *fill*         0x2000128c        0x4 
 .bss.fno.8454  0x20001290      0x120 C:\Users\RAKIBU~1\AppData\Local\Temp\ch.elf.ULtIRf.ltrans0.ltrans.o
 .bss.fs_ready  0x200013b0        0x1 C:\Users\RAKIBU~1\AppData\Local\Temp\ch.elf.ULtIRf.ltrans0.ltrans.o
 *fill*         0x200013b1        0x3 
 .bss.hash_headers
                0x200013b4       0x40 C:\Users\RAKIBU~1\AppData\Local\Temp\ch.elf.ULtIRf.ltrans0.ltrans.o
 .bss.heap1     0x200013f4       0x1c C:\Users\RAKIBU~1\AppData\Local\Temp\ch.elf.ULtIRf.ltrans0.ltrans.o
 .bss.inserted_event
                0x20001410        0x4 C:\Users\RAKIBU~1\AppData\Local\Temp\ch.elf.ULtIRf.ltrans0.ltrans.o
 .bss.jobs      0x20001414       0x20 C:\Users\RAKIBU~1\AppData\Local\Temp\ch.elf.ULtIRf.ltrans0.ltrans.o
 .bss.jq        0x20001434       0x44 C:\Users\RAKIBU~1\AppData\Local\Temp\ch.elf.ULtIRf.ltrans0.ltrans.o
 .bss.mb_buffer
                0x20001478       0x10 C:\Users\RAKIBU~1\AppData\Local\Temp\ch.elf.ULtIRf.ltrans0.ltrans.o
 .bss.mp1.lto_priv.0
                0x20001488       0x10 C:\Users\RAKIBU~1\AppData\Local\Temp\ch.elf.ULtIRf.ltrans0.ltrans.o
 .bss.msg_queue
                0x20001498       0x10 C:\Users\RAKIBU~1\AppData\Local\Temp\ch.elf.ULtIRf.ltrans0.ltrans.o
 .bss.mtx1      0x200014a8       0x10 C:\Users\RAKIBU~1\AppData\Local\Temp\ch.elf.ULtIRf.ltrans0.ltrans.o
 .bss.objects.lto_priv.0
                0x200014b8       0xf0 C:\Users\RAKIBU~1\AppData\Local\Temp\ch.elf.ULtIRf.ltrans0.ltrans.o
 .bss.objects.lto_priv.1
                0x200015a8       0x10 C:\Users\RAKIBU~1\AppData\Local\Temp\ch.elf.ULtIRf.ltrans0.ltrans.o
 .bss.removed_event
                0x200015b8        0x4 C:\Users\RAKIBU~1\AppData\Local\Temp\ch.elf.ULtIRf.ltrans0.ltrans.o
 .bss.sem1.lto_priv.0
                0x200015bc        0xc C:\Users\RAKIBU~1\AppData\Local\Temp\ch.elf.ULtIRf.ltrans0.ltrans.o
 .bss.sem1.lto_priv.1
                0x200015c8        0xc C:\Users\RAKIBU~1\AppData\Local\Temp\ch.elf.ULtIRf.ltrans0.ltrans.o
 .bss.shell_terminated
                0x200015d4        0x4 C:\Users\RAKIBU~1\AppData\Local\Temp\ch.elf.ULtIRf.ltrans0.ltrans.o
                0x200015d4                shell_terminated
 .bss.shelltp   0x200015d8        0x4 C:\Users\RAKIBU~1\AppData\Local\Temp\ch.elf.ULtIRf.ltrans0.ltrans.o
 *fill*         0x200015dc        0x4 
 .bss.test_buffer
                0x200015e0      0x668 C:\Users\RAKIBU~1\AppData\Local\Temp\ch.elf.ULtIRf.ltrans0.ltrans.o
 .bss.test_chp  0x20001c48        0x4 C:\Users\RAKIBU~1\AppData\Local\Temp\ch.elf.ULtIRf.ltrans0.ltrans.o
 .bss.test_failure_message
                0x20001c4c        0x4 C:\Users\RAKIBU~1\AppData\Local\Temp\ch.elf.ULtIRf.ltrans0.ltrans.o
 .bss.test_global_fail
                0x20001c50        0x1 C:\Users\RAKIBU~1\AppData\Local\Temp\ch.elf.ULtIRf.ltrans0.ltrans.o
 *fill*         0x20001c51        0x3 
 .bss.test_heap
                0x20001c54       0x1c C:\Users\RAKIBU~1\AppData\Local\Temp\ch.elf.ULtIRf.ltrans0.ltrans.o
 .bss.test_heap_buffer
                0x20001c70       0x80 C:\Users\RAKIBU~1\AppData\Local\Temp\ch.elf.ULtIRf.ltrans0.ltrans.o
 .bss.test_local_fail
                0x20001cf0        0x1 C:\Users\RAKIBU~1\AppData\Local\Temp\ch.elf.ULtIRf.ltrans0.ltrans.o
 *fill*         0x20001cf1        0x3 
 .bss.test_step
                0x20001cf4        0x4 C:\Users\RAKIBU~1\AppData\Local\Temp\ch.elf.ULtIRf.ltrans0.ltrans.o
 .bss.test_tokens_buffer
                0x20001cf8       0x10 C:\Users\RAKIBU~1\AppData\Local\Temp\ch.elf.ULtIRf.ltrans0.ltrans.o
 .bss.test_tokp
                0x20001d08        0x4 C:\Users\RAKIBU~1\AppData\Local\Temp\ch.elf.ULtIRf.ltrans0.ltrans.o
 .bss.threads   0x20001d0c       0x14 C:\Users\RAKIBU~1\AppData\Local\Temp\ch.elf.ULtIRf.ltrans0.ltrans.o
 .bss.tmr       0x20001d20       0x14 C:\Users\RAKIBU~1\AppData\Local\Temp\ch.elf.ULtIRf.ltrans0.ltrans.o
 .bss.tr1       0x20001d34        0x4 C:\Users\RAKIBU~1\AppData\Local\Temp\ch.elf.ULtIRf.ltrans0.ltrans.o
 .bss.vt1.7938  0x20001d38       0x14 C:\Users\RAKIBU~1\AppData\Local\Temp\ch.elf.ULtIRf.ltrans0.ltrans.o
 .bss.vt2.7939  0x20001d4c       0x14 C:\Users\RAKIBU~1\AppData\Local\Temp\ch.elf.ULtIRf.ltrans0.ltrans.o
 .bss.wa1Thread1
                0x20001d60      0x1c8 C:\Users\RAKIBU~1\AppData\Local\Temp\ch.elf.ULtIRf.ltrans0.ltrans.o
 .bss.wa2Thread1
                0x20001f28      0x1c8 C:\Users\RAKIBU~1\AppData\Local\Temp\ch.elf.ULtIRf.ltrans0.ltrans.o
 .bss.waThread1.lto_priv.0
                0x200020f0      0x1c8 C:\Users\RAKIBU~1\AppData\Local\Temp\ch.elf.ULtIRf.ltrans0.ltrans.o
 .bss.waThread1.lto_priv.1
                0x200022b8      0x148 C:\Users\RAKIBU~1\AppData\Local\Temp\ch.elf.ULtIRf.ltrans0.ltrans.o
 .bss.dummyrx   0x20002400        0x2 C:\Users\RAKIBU~1\AppData\Local\Temp\ch.elf.ULtIRf.ltrans1.ltrans.o
 *(COMMON)
                0x20002404                . = ALIGN (0x4)
 *fill*         0x20002402        0x2 
                0x20002404                __bss_end__ = .
                [!provide]                PROVIDE (end = .)
                0x20000000                __ram0_base__ = ORIGIN (ram0)
                0x00005000                __ram0_size__ = LENGTH (ram0)
                0x20005000                __ram0_end__ = (__ram0_base__ + __ram0_size__)
                0x00000000                __ram1_base__ = ORIGIN (ram1)
                0x00000000                __ram1_size__ = LENGTH (ram1)
                0x00000000                __ram1_end__ = (__ram1_base__ + __ram1_size__)
                0x00000000                __ram2_base__ = ORIGIN (ram2)
                0x00000000                __ram2_size__ = LENGTH (ram2)
                0x00000000                __ram2_end__ = (__ram2_base__ + __ram2_size__)
                0x00000000                __ram3_base__ = ORIGIN (ram3)
                0x00000000                __ram3_size__ = LENGTH (ram3)
                0x00000000                __ram3_end__ = (__ram3_base__ + __ram3_size__)
                0x00000000                __ram4_base__ = ORIGIN (ram4)
                0x00000000                __ram4_size__ = LENGTH (ram4)
                0x00000000                __ram4_end__ = (__ram4_base__ + __ram4_size__)
                0x00000000                __ram5_base__ = ORIGIN (ram5)
                0x00000000                __ram5_size__ = LENGTH (ram5)
                0x00000000                __ram5_end__ = (__ram5_base__ + __ram5_size__)
                0x00000000                __ram6_base__ = ORIGIN (ram6)
                0x00000000                __ram6_size__ = LENGTH (ram6)
                0x00000000                __ram6_end__ = (__ram6_base__ + __ram6_size__)
                0x00000000                __ram7_base__ = ORIGIN (ram7)
                0x00000000                __ram7_size__ = LENGTH (ram7)
                0x00000000                __ram7_end__ = (__ram7_base__ + __ram7_size__)
                0x08000000                __flash0_base__ = ORIGIN (flash0)
                0x00020000                __flash0_size__ = LENGTH (flash0)
                0x08020000                __flash0_end__ = (__flash0_base__ + __flash0_size__)
                0x00000000                __flash1_base__ = ORIGIN (flash1)
                0x00000000                __flash1_size__ = LENGTH (flash1)
                0x00000000                __flash1_end__ = (__flash1_base__ + __flash1_size__)
                0x00000000                __flash2_base__ = ORIGIN (flash2)
                0x00000000                __flash2_size__ = LENGTH (flash2)
                0x00000000                __flash2_end__ = (__flash2_base__ + __flash2_size__)
                0x00000000                __flash3_base__ = ORIGIN (flash3)
                0x00000000                __flash3_size__ = LENGTH (flash3)
                0x00000000                __flash3_end__ = (__flash3_base__ + __flash3_size__)
                0x00000000                __flash4_base__ = ORIGIN (flash4)
                0x00000000                __flash4_size__ = LENGTH (flash4)
                0x00000000                __flash4_end__ = (__flash4_base__ + __flash4_size__)
                0x00000000                __flash5_base__ = ORIGIN (flash5)
                0x00000000                __flash5_size__ = LENGTH (flash5)
                0x00000000                __flash5_end__ = (__flash5_base__ + __flash5_size__)
                0x00000000                __flash6_base__ = ORIGIN (flash6)
                0x00000000                __flash6_size__ = LENGTH (flash6)
                0x00000000                __flash6_end__ = (__flash6_base__ + __flash6_size__)
                0x00000000                __flash7_base__ = ORIGIN (flash7)
                0x00000000                __flash7_size__ = LENGTH (flash7)
                0x00000000                __flash7_end__ = (__flash7_base__ + __flash7_size__)

.ram0_init      0x20002404        0x0 load address 0x0800f784
                0x0800f784                __ram0_init_text__ = LOADADDR (.ram0_init)
                0x20002404                __ram0_init__ = .
 *(.ram0_init)
 *(.ram0_init.*)
                0x20002404                . = ALIGN (0x4)

.ram0           0x20002404        0x0 load address 0x0800f784
                0x20002404                __ram0_clear__ = .
 *(.ram0_clear)
 *(.ram0_clear.*)
                0x20002404                . = ALIGN (0x4)
                0x20002404                __ram0_noinit__ = .
 *(.ram0)
 *(.ram0.*)
                0x20002404                . = ALIGN (0x4)
                0x20002404                __ram0_free__ = .

.ram1_init      0x00000000        0x0 load address 0x0800f784
                0x0800f784                __ram1_init_text__ = LOADADDR (.ram1_init)
                0x00000000                __ram1_init__ = .
 *(.ram1_init)
 *(.ram1_init.*)
                0x00000000                . = ALIGN (0x4)

.ram1           0x00000000        0x0 load address 0x0800f784
                0x00000000                __ram1_clear__ = .
 *(.ram1_clear)
 *(.ram1_clear.*)
                0x00000000                . = ALIGN (0x4)
                0x00000000                __ram1_noinit__ = .
 *(.ram1)
 *(.ram1.*)
                0x00000000                . = ALIGN (0x4)
                0x00000000                __ram1_free__ = .

.ram2_init      0x00000000        0x0 load address 0x0800f784
                0x0800f784                __ram2_init_text__ = LOADADDR (.ram2_init)
                0x00000000                __ram2_init__ = .
 *(.ram2_init)
 *(.ram2_init.*)
                0x00000000                . = ALIGN (0x4)

.ram2           0x00000000        0x0 load address 0x0800f784
                0x00000000                __ram2_clear__ = .
 *(.ram2_clear)
 *(.ram2_clear.*)
                0x00000000                . = ALIGN (0x4)
                0x00000000                __ram2_noinit__ = .
 *(.ram2)
 *(.ram2.*)
                0x00000000                . = ALIGN (0x4)
                0x00000000                __ram2_free__ = .

.ram3_init      0x00000000        0x0 load address 0x0800f784
                0x0800f784                __ram3_init_text__ = LOADADDR (.ram3_init)
                0x00000000                __ram3_init__ = .
 *(.ram3_init)
 *(.ram3_init.*)
                0x00000000                . = ALIGN (0x4)

.ram3           0x00000000        0x0 load address 0x0800f784
                0x00000000                __ram3_clear__ = .
 *(.ram3_clear)
 *(.ram3_clear.*)
                0x00000000                . = ALIGN (0x4)
                0x00000000                __ram3_noinit__ = .
 *(.ram3)
 *(.ram3.*)
                0x00000000                . = ALIGN (0x4)
                0x00000000                __ram3_free__ = .

.ram4_init      0x00000000        0x0 load address 0x0800f784
                0x0800f784                __ram4_init_text__ = LOADADDR (.ram4_init)
                0x00000000                __ram4_init__ = .
 *(.ram4_init)
 *(.ram4_init.*)
                0x00000000                . = ALIGN (0x4)

.ram4           0x00000000        0x0 load address 0x0800f784
                0x00000000                __ram4_clear__ = .
 *(.ram4_clear)
 *(.ram4_clear.*)
                0x00000000                . = ALIGN (0x4)
                0x00000000                __ram4_noinit__ = .
 *(.ram4)
 *(.ram4.*)
                0x00000000                . = ALIGN (0x4)
                0x00000000                __ram4_free__ = .

.ram5_init      0x00000000        0x0 load address 0x0800f784
                0x0800f784                __ram5_init_text__ = LOADADDR (.ram5_init)
                0x00000000                __ram5_init__ = .
 *(.ram5_init)
 *(.ram5_init.*)
                0x00000000                . = ALIGN (0x4)

.ram5           0x00000000        0x0 load address 0x0800f784
                0x00000000                __ram5_clear__ = .
 *(.ram5_clear)
 *(.ram5_clear.*)
                0x00000000                . = ALIGN (0x4)
                0x00000000                __ram5_noinit__ = .
 *(.ram5)
 *(.ram5.*)
                0x00000000                . = ALIGN (0x4)
                0x00000000                __ram5_free__ = .

.ram6_init      0x00000000        0x0 load address 0x0800f784
                0x0800f784                __ram6_init_text__ = LOADADDR (.ram6_init)
                0x00000000                __ram6_init__ = .
 *(.ram6_init)
 *(.ram6_init.*)
                0x00000000                . = ALIGN (0x4)

.ram6           0x00000000        0x0 load address 0x0800f784
                0x00000000                __ram6_clear__ = .
 *(.ram6_clear)
 *(.ram6_clear.*)
                0x00000000                . = ALIGN (0x4)
                0x00000000                __ram6_noinit__ = .
 *(.ram6)
 *(.ram6.*)
                0x00000000                . = ALIGN (0x4)
                0x00000000                __ram6_free__ = .

.ram7_init      0x00000000        0x0 load address 0x0800f784
                0x0800f784                __ram7_init_text__ = LOADADDR (.ram7_init)
                0x00000000                __ram7_init__ = .
 *(.ram7_init)
 *(.ram7_init.*)
                0x00000000                . = ALIGN (0x4)

.ram7           0x00000000        0x0 load address 0x0800f784
                0x00000000                __ram7_clear__ = .
 *(.ram7_clear)
 *(.ram7_clear.*)
                0x00000000                . = ALIGN (0x4)
                0x00000000                __ram7_noinit__ = .
 *(.ram7)
 *(.ram7.*)
                0x00000000                . = ALIGN (0x4)
                0x00000000                __ram7_free__ = .

.flash0         0x0800f784        0x0
                0x0800f784                __flash0_init__ = .
 *(.flash0_init)
 *(.flash0_init.*)
                0x0800f784                __flash0_free__ = .

.flash1         0x00000000        0x0
                0x00000000                __flash1_init__ = .
 *(.flash1_init)
 *(.flash1_init.*)
                0x00000000                __flash1_free__ = .

.flash2         0x00000000        0x0
                0x00000000                __flash2_init__ = .
 *(.flash2_init)
 *(.flash2_init.*)
                0x00000000                __flash2_free__ = .

.flash3         0x00000000        0x0
                0x00000000                __flash3_init__ = .
 *(.flash3_init)
 *(.flash3_init.*)
                0x00000000                __flash3_free__ = .

.flash4         0x00000000        0x0
                0x00000000                __flash4_init__ = .
 *(.flash4_init)
 *(.flash4_init.*)
                0x00000000                __flash4_free__ = .

.flash5         0x00000000        0x0
                0x00000000                __flash5_init__ = .
 *(.flash5_init)
 *(.flash5_init.*)
                0x00000000                __flash5_free__ = .

.flash6         0x00000000        0x0
                0x00000000                __flash6_init__ = .
 *(.flash6_init)
 *(.flash6_init.*)
                0x00000000                __flash6_free__ = .

.flash7         0x00000000        0x0
                0x00000000                __flash7_init__ = .
 *(.flash7_init)
 *(.flash7_init.*)
                0x00000000                __flash7_free__ = .

.heap           0x20002404     0x2bfc
                0x20002408                . = ALIGN (0x8)
 *fill*         0x20002404        0x4 
                0x20002408                __heap_base__ = .
                0x20005000                . = (ORIGIN (HEAP_RAM) + LENGTH (HEAP_RAM))
 *fill*         0x20002408     0x2bf8 
                0x20005000                __heap_end__ = .
                0x00000400                __process_stack_size__ = 0x400
                0x00000400                __main_stack_size__ = 0x400
START GROUP
LOAD c:/chibistudio/tools/gnu tools arm embedded/9.0 2019q4/bin/../lib/gcc/arm-none-eabi/9.2.1/thumb/v7-m/nofp\libgcc.a
LOAD c:/chibistudio/tools/gnu tools arm embedded/9.0 2019q4/bin/../lib/gcc/arm-none-eabi/9.2.1/../../../../arm-none-eabi/lib/thumb/v7-m/nofp\libg.a
LOAD c:/chibistudio/tools/gnu tools arm embedded/9.0 2019q4/bin/../lib/gcc/arm-none-eabi/9.2.1/../../../../arm-none-eabi/lib/thumb/v7-m/nofp\libc.a
END GROUP
OUTPUT(build/ch.elf elf32-littlearm)

.ARM.attributes
                0x00000000       0x2f
 .ARM.attributes
                0x00000000       0x21 ./build/obj/crt0_v7m.o
 .ARM.attributes
                0x00000021       0x21 ./build/obj/vectors.o
 .ARM.attributes
                0x00000042       0x21 ./build/obj/chcoreasm_v7m.o
 .ARM.attributes
                0x00000063       0x2b C:\Users\RAKIBU~1\AppData\Local\Temp\ch.elf.ULtIRf.ltrans0.ltrans.o
 .ARM.attributes
                0x0000008e       0x2b C:\Users\RAKIBU~1\AppData\Local\Temp\ch.elf.ULtIRf.ltrans1.ltrans.o
 .ARM.attributes
                0x000000b9       0x2d c:/chibistudio/tools/gnu tools arm embedded/9.0 2019q4/bin/../lib/gcc/arm-none-eabi/9.2.1/../../../../arm-none-eabi/lib/thumb/v7-m/nofp\libg.a(lib_a-memcmp.o)
 .ARM.attributes
                0x000000e6       0x1b c:/chibistudio/tools/gnu tools arm embedded/9.0 2019q4/bin/../lib/gcc/arm-none-eabi/9.2.1/../../../../arm-none-eabi/lib/thumb/v7-m/nofp\libg.a(lib_a-memcpy.o)
 .ARM.attributes
                0x00000101       0x2d c:/chibistudio/tools/gnu tools arm embedded/9.0 2019q4/bin/../lib/gcc/arm-none-eabi/9.2.1/../../../../arm-none-eabi/lib/thumb/v7-m/nofp\libg.a(lib_a-memset.o)
 .ARM.attributes
                0x0000012e       0x2d c:/chibistudio/tools/gnu tools arm embedded/9.0 2019q4/bin/../lib/gcc/arm-none-eabi/9.2.1/../../../../arm-none-eabi/lib/thumb/v7-m/nofp\libg.a(lib_a-strchr.o)
 .ARM.attributes
                0x0000015b       0x1b c:/chibistudio/tools/gnu tools arm embedded/9.0 2019q4/bin/../lib/gcc/arm-none-eabi/9.2.1/../../../../arm-none-eabi/lib/thumb/v7-m/nofp\libg.a(lib_a-strcmp.o)
 .ARM.attributes
                0x00000176       0x2d c:/chibistudio/tools/gnu tools arm embedded/9.0 2019q4/bin/../lib/gcc/arm-none-eabi/9.2.1/../../../../arm-none-eabi/lib/thumb/v7-m/nofp\libg.a(lib_a-strcpy.o)
 .ARM.attributes
                0x000001a3       0x2d c:/chibistudio/tools/gnu tools arm embedded/9.0 2019q4/bin/../lib/gcc/arm-none-eabi/9.2.1/../../../../arm-none-eabi/lib/thumb/v7-m/nofp\libg.a(lib_a-strlen-stub.o)
 .ARM.attributes
                0x000001d0       0x2d c:/chibistudio/tools/gnu tools arm embedded/9.0 2019q4/bin/../lib/gcc/arm-none-eabi/9.2.1/../../../../arm-none-eabi/lib/thumb/v7-m/nofp\libg.a(lib_a-strncmp.o)
 .ARM.attributes
                0x000001fd       0x2d c:/chibistudio/tools/gnu tools arm embedded/9.0 2019q4/bin/../lib/gcc/arm-none-eabi/9.2.1/../../../../arm-none-eabi/lib/thumb/v7-m/nofp\libg.a(lib_a-strncpy.o)
 .ARM.attributes
                0x0000022a       0x2d c:/chibistudio/tools/gnu tools arm embedded/9.0 2019q4/bin/../lib/gcc/arm-none-eabi/9.2.1/../../../../arm-none-eabi/lib/thumb/v7-m/nofp\libg.a(lib_a-strpbrk.o)
 .ARM.attributes
                0x00000257       0x2d c:/chibistudio/tools/gnu tools arm embedded/9.0 2019q4/bin/../lib/gcc/arm-none-eabi/9.2.1/../../../../arm-none-eabi/lib/thumb/v7-m/nofp\libg.a(lib_a-strspn.o)

.comment        0x00000000       0x79
 .comment       0x00000000       0x79 C:\Users\RAKIBU~1\AppData\Local\Temp\ch.elf.ULtIRf.ltrans0.ltrans.o
                                 0x7a (size before relaxing)
 .comment       0x00000079       0x7a C:\Users\RAKIBU~1\AppData\Local\Temp\ch.elf.ULtIRf.ltrans1.ltrans.o

.debug_line     0x00000000    0x2def9
 .debug_line    0x00000000       0xc5 ./build/obj/crt0_v7m.o
 .debug_line    0x000000c5       0x6f ./build/obj/vectors.o
 .debug_line    0x00000134       0x86 ./build/obj/chcoreasm_v7m.o
 .debug_line    0x000001ba    0x10cd7 C:\Users\RAKIBU~1\AppData\Local\Temp\ch.elf.ULtIRf.ltrans0.ltrans.o
 .debug_line    0x00010e91     0x769d C:\Users\RAKIBU~1\AppData\Local\Temp\ch.elf.ULtIRf.ltrans1.ltrans.o
 .debug_line    0x0001852e      0x195 C:\Users\RAKIBU~1\AppData\Local\Temp\cch5nJgM.debug.temp.o
 .debug_line    0x000186c3      0x4db C:\Users\RAKIBU~1\AppData\Local\Temp\ccmroM3f.debug.temp.o
 .debug_line    0x00018b9e      0x4fd C:\Users\RAKIBU~1\AppData\Local\Temp\ccRgbWpJ.debug.temp.o
 .debug_line    0x0001909b      0x533 C:\Users\RAKIBU~1\AppData\Local\Temp\ccwdJDrd.debug.temp.o
 .debug_line    0x000195ce      0x521 C:\Users\RAKIBU~1\AppData\Local\Temp\ccxvOrNF.debug.temp.o
 .debug_line    0x00019aef      0x4f0 C:\Users\RAKIBU~1\AppData\Local\Temp\ccuHb8T8.debug.temp.o
 .debug_line    0x00019fdf      0x4db C:\Users\RAKIBU~1\AppData\Local\Temp\ccxo170E.debug.temp.o
 .debug_line    0x0001a4ba      0x535 C:\Users\RAKIBU~1\AppData\Local\Temp\ccMfTFNb.debug.temp.o
 .debug_line    0x0001a9ef      0x4c6 C:\Users\RAKIBU~1\AppData\Local\Temp\ccDuRjaI.debug.temp.o
 .debug_line    0x0001aeb5      0x4f1 C:\Users\RAKIBU~1\AppData\Local\Temp\ccEifbRc.debug.temp.o
 .debug_line    0x0001b3a6      0x4ee C:\Users\RAKIBU~1\AppData\Local\Temp\cct8M7cI.debug.temp.o
 .debug_line    0x0001b894      0x4c6 C:\Users\RAKIBU~1\AppData\Local\Temp\ccq6WkEg.debug.temp.o
 .debug_line    0x0001bd5a      0x4cd C:\Users\RAKIBU~1\AppData\Local\Temp\ccVlNPLP.debug.temp.o
 .debug_line    0x0001c227      0x4cb C:\Users\RAKIBU~1\AppData\Local\Temp\ccQAGjoo.debug.temp.o
 .debug_line    0x0001c6f2      0x4dc C:\Users\RAKIBU~1\AppData\Local\Temp\ccQfGwWs.debug.temp.o
 .debug_line    0x0001cbce      0x4a9 C:\Users\RAKIBU~1\AppData\Local\Temp\ccl1YbE3.debug.temp.o
 .debug_line    0x0001d077      0x4de C:\Users\RAKIBU~1\AppData\Local\Temp\cca76SWE.debug.temp.o
 .debug_line    0x0001d555      0x512 C:\Users\RAKIBU~1\AppData\Local\Temp\cclCSeAe.debug.temp.o
 .debug_line    0x0001da67      0x4e1 C:\Users\RAKIBU~1\AppData\Local\Temp\ccWAiDOO.debug.temp.o
 .debug_line    0x0001df48      0x4ee C:\Users\RAKIBU~1\AppData\Local\Temp\ccFDYt3r.debug.temp.o
 .debug_line    0x0001e436      0x35e C:\Users\RAKIBU~1\AppData\Local\Temp\cc9rP78H.debug.temp.o
 .debug_line    0x0001e794      0x334 C:\Users\RAKIBU~1\AppData\Local\Temp\ccgSPRmB.debug.temp.o
 .debug_line    0x0001eac8      0x333 C:\Users\RAKIBU~1\AppData\Local\Temp\ccXBqgoh.debug.temp.o
 .debug_line    0x0001edfb      0x357 C:\Users\RAKIBU~1\AppData\Local\Temp\cci81NJV.debug.temp.o
 .debug_line    0x0001f152      0x318 C:\Users\RAKIBU~1\AppData\Local\Temp\ccTqmAAz.debug.temp.o
 .debug_line    0x0001f46a      0x35d C:\Users\RAKIBU~1\AppData\Local\Temp\ccGTIU6d.debug.temp.o
 .debug_line    0x0001f7c7      0x328 C:\Users\RAKIBU~1\AppData\Local\Temp\ccrfkuIV.debug.temp.o
 .debug_line    0x0001faef      0x328 C:\Users\RAKIBU~1\AppData\Local\Temp\cc6T6f0D.debug.temp.o
 .debug_line    0x0001fe17      0x344 C:\Users\RAKIBU~1\AppData\Local\Temp\ccLmp5Bk.debug.temp.o
 .debug_line    0x0002015b      0x339 C:\Users\RAKIBU~1\AppData\Local\Temp\ccSRFCX1.debug.temp.o
 .debug_line    0x00020494      0x333 C:\Users\RAKIBU~1\AppData\Local\Temp\ccdyOYNI.debug.temp.o
 .debug_line    0x000207c7      0x34b C:\Users\RAKIBU~1\AppData\Local\Temp\ccacQuKs.debug.temp.o
 .debug_line    0x00020b12      0x34b C:\Users\RAKIBU~1\AppData\Local\Temp\ccbihpmd.debug.temp.o
 .debug_line    0x00020e5d      0x32f C:\Users\RAKIBU~1\AppData\Local\Temp\ccqx9oiW.debug.temp.o
 .debug_line    0x0002118c      0x331 C:\Users\RAKIBU~1\AppData\Local\Temp\ccD7UjYF.debug.temp.o
 .debug_line    0x000214bd      0x330 C:\Users\RAKIBU~1\AppData\Local\Temp\ccy69Y8o.debug.temp.o
 .debug_line    0x000217ed      0x35b C:\Users\RAKIBU~1\AppData\Local\Temp\ccFTVllb.debug.temp.o
 .debug_line    0x00021b48      0x342 C:\Users\RAKIBU~1\AppData\Local\Temp\ccKt1dhY.debug.temp.o
 .debug_line    0x00021e8a      0x367 C:\Users\RAKIBU~1\AppData\Local\Temp\ccZCwjxJ.debug.temp.o
 .debug_line    0x000221f1      0x37c C:\Users\RAKIBU~1\AppData\Local\Temp\cc2lLTsv.debug.temp.o
 .debug_line    0x0002256d      0x34c C:\Users\RAKIBU~1\AppData\Local\Temp\ccAOt7V8.debug.temp.o
 .debug_line    0x000228b9      0x4fd C:\Users\RAKIBU~1\AppData\Local\Temp\cc7ypz8X.debug.temp.o
 .debug_line    0x00022db6      0x527 C:\Users\RAKIBU~1\AppData\Local\Temp\cc4laSbr.debug.temp.o
 .debug_line    0x000232dd      0x7ed C:\Users\RAKIBU~1\AppData\Local\Temp\cchAui2h.debug.temp.o
 .debug_line    0x00023aca      0x51a C:\Users\RAKIBU~1\AppData\Local\Temp\ccOe3Py9.debug.temp.o
 .debug_line    0x00023fe4      0x4fd C:\Users\RAKIBU~1\AppData\Local\Temp\cc3LaxpZ.debug.temp.o
 .debug_line    0x000244e1      0x32e C:\Users\RAKIBU~1\AppData\Local\Temp\ccC99UZP.debug.temp.o
 .debug_line    0x0002480f      0x329 C:\Users\RAKIBU~1\AppData\Local\Temp\ccrPy3AJ.debug.temp.o
 .debug_line    0x00024b38      0x526 C:\Users\RAKIBU~1\AppData\Local\Temp\ccQljqMC.debug.temp.o
 .debug_line    0x0002505e      0x641 C:\Users\RAKIBU~1\AppData\Local\Temp\ccBhtmDw.debug.temp.o
 .debug_line    0x0002569f      0x61e C:\Users\RAKIBU~1\AppData\Local\Temp\cc4zVzSo.debug.temp.o
 .debug_line    0x00025cbd      0x637 C:\Users\RAKIBU~1\AppData\Local\Temp\cc78exNh.debug.temp.o
 .debug_line    0x000262f4      0x63a C:\Users\RAKIBU~1\AppData\Local\Temp\ccWMCzNd.debug.temp.o
 .debug_line    0x0002692e      0x658 C:\Users\RAKIBU~1\AppData\Local\Temp\ccxV1mi9.debug.temp.o
 .debug_line    0x00026f86      0x658 C:\Users\RAKIBU~1\AppData\Local\Temp\cca7x3x5.debug.temp.o
 .debug_line    0x000275de      0x66e C:\Users\RAKIBU~1\AppData\Local\Temp\ccL3iN7Z.debug.temp.o
 .debug_line    0x00027c4c      0x648 C:\Users\RAKIBU~1\AppData\Local\Temp\ccWGiAmV.debug.temp.o
 .debug_line    0x00028294      0x647 C:\Users\RAKIBU~1\AppData\Local\Temp\ccX2tSGT.debug.temp.o
 .debug_line    0x000288db      0x662 C:\Users\RAKIBU~1\AppData\Local\Temp\ccOzRCwR.debug.temp.o
 .debug_line    0x00028f3d      0x63d C:\Users\RAKIBU~1\AppData\Local\Temp\cc9bu55P.debug.temp.o
 .debug_line    0x0002957a      0x663 C:\Users\RAKIBU~1\AppData\Local\Temp\ccEnwLZM.debug.temp.o
 .debug_line    0x00029bdd      0x606 C:\Users\RAKIBU~1\AppData\Local\Temp\cchbm8uK.debug.temp.o
 .debug_line    0x0002a1e3      0x60e C:\Users\RAKIBU~1\AppData\Local\Temp\ccgqGw5K.debug.temp.o
 .debug_line    0x0002a7f1      0x651 C:\Users\RAKIBU~1\AppData\Local\Temp\cctSjtlM.debug.temp.o
 .debug_line    0x0002ae42      0x63c C:\Users\RAKIBU~1\AppData\Local\Temp\ccmCpTQL.debug.temp.o
 .debug_line    0x0002b47e      0x637 C:\Users\RAKIBU~1\AppData\Local\Temp\ccRJBpWK.debug.temp.o
 .debug_line    0x0002bab5      0x62e C:\Users\RAKIBU~1\AppData\Local\Temp\ccKjuvHK.debug.temp.o
 .debug_line    0x0002c0e3      0x64f C:\Users\RAKIBU~1\AppData\Local\Temp\ccnttPtN.debug.temp.o
 .debug_line    0x0002c732      0x60e C:\Users\RAKIBU~1\AppData\Local\Temp\cckt4zVQ.debug.temp.o
 .debug_line    0x0002cd40      0x61e C:\Users\RAKIBU~1\AppData\Local\Temp\ccZluKLS.debug.temp.o
 .debug_line    0x0002d35e      0x639 C:\Users\RAKIBU~1\AppData\Local\Temp\ccexyFdV.debug.temp.o
 .debug_line    0x0002d997      0x562 C:\Users\RAKIBU~1\AppData\Local\Temp\ccpYxvaX.debug.temp.o

.debug_info     0x00000000    0x851a7
 .debug_info    0x00000000       0x26 ./build/obj/crt0_v7m.o
 .debug_info    0x00000026       0x26 ./build/obj/vectors.o
 .debug_info    0x0000004c       0x26 ./build/obj/chcoreasm_v7m.o
 .debug_info    0x00000072    0x19323 C:\Users\RAKIBU~1\AppData\Local\Temp\ch.elf.ULtIRf.ltrans0.ltrans.o
 .debug_info    0x00019395     0x9103 C:\Users\RAKIBU~1\AppData\Local\Temp\ch.elf.ULtIRf.ltrans1.ltrans.o
 .debug_info    0x00022498      0x35d C:\Users\RAKIBU~1\AppData\Local\Temp\cch5nJgM.debug.temp.o
                0x00022498                crt1.c.a13e7b71
 .debug_info    0x000227f5     0x1317 C:\Users\RAKIBU~1\AppData\Local\Temp\ccmroM3f.debug.temp.o
                0x000227f5                hal.c.446329e9
 .debug_info    0x00023b0c     0x1574 C:\Users\RAKIBU~1\AppData\Local\Temp\ccRgbWpJ.debug.temp.o
                0x00023b0c                hal_st.c.72777ac1
 .debug_info    0x00025080     0x2355 C:\Users\RAKIBU~1\AppData\Local\Temp\ccwdJDrd.debug.temp.o
                0x00025080                hal_buffers.c.575e08d3
 .debug_info    0x000273d5     0x216e C:\Users\RAKIBU~1\AppData\Local\Temp\ccxvOrNF.debug.temp.o
                0x000273d5                hal_queues.c.24673bf5
 .debug_info    0x00029543     0x16da C:\Users\RAKIBU~1\AppData\Local\Temp\ccuHb8T8.debug.temp.o
                0x00029543                hal_flash.c.a1212400
 .debug_info    0x0002ac1d     0x1dd9 C:\Users\RAKIBU~1\AppData\Local\Temp\ccxo170E.debug.temp.o
                0x0002ac1d                hal_mmcsd.c.52f32186
 .debug_info    0x0002c9f6     0x256e C:\Users\RAKIBU~1\AppData\Local\Temp\ccMfTFNb.debug.temp.o
                0x0002c9f6                hal_mmc_spi.c.0ae72ec3
 .debug_info    0x0002ef64     0x1433 C:\Users\RAKIBU~1\AppData\Local\Temp\ccDuRjaI.debug.temp.o
                0x0002ef64                hal_pal.c.50d4f3a2
 .debug_info    0x00030397     0x17ed C:\Users\RAKIBU~1\AppData\Local\Temp\ccEifbRc.debug.temp.o
                0x00030397                hal_serial.c.94ede67d
 .debug_info    0x00031b84     0x17f9 C:\Users\RAKIBU~1\AppData\Local\Temp\cct8M7cI.debug.temp.o
                0x00031b84                hal_spi.c.80ad946b
 .debug_info    0x0003337d     0x1683 C:\Users\RAKIBU~1\AppData\Local\Temp\ccq6WkEg.debug.temp.o
                0x0003337d                nvic.c.0219eec8
 .debug_info    0x00034a00     0x145d C:\Users\RAKIBU~1\AppData\Local\Temp\ccVlNPLP.debug.temp.o
                0x00034a00                stm32_isr.c.39da4bcb
 .debug_info    0x00035e5d     0x148f C:\Users\RAKIBU~1\AppData\Local\Temp\ccQAGjoo.debug.temp.o
                0x00035e5d                hal_lld.c.d07cf0bc
 .debug_info    0x000372ec     0x16a3 C:\Users\RAKIBU~1\AppData\Local\Temp\ccQfGwWs.debug.temp.o
                0x000372ec                stm32_dma.c.fd15b742
 .debug_info    0x0003898f     0x1476 C:\Users\RAKIBU~1\AppData\Local\Temp\ccl1YbE3.debug.temp.o
                0x0003898f                hal_pal_lld.c.100c10c8
 .debug_info    0x00039e05     0x16cb C:\Users\RAKIBU~1\AppData\Local\Temp\cca76SWE.debug.temp.o
                0x00039e05                hal_spi_lld.c.ef3f8922
 .debug_info    0x0003b4d0     0x15db C:\Users\RAKIBU~1\AppData\Local\Temp\cclCSeAe.debug.temp.o
                0x0003b4d0                hal_st_lld.c.cd87a62d
 .debug_info    0x0003caab     0x15f0 C:\Users\RAKIBU~1\AppData\Local\Temp\ccWAiDOO.debug.temp.o
                0x0003caab                hal_serial_lld.c.c61e4a3b
 .debug_info    0x0003e09b     0x15bf C:\Users\RAKIBU~1\AppData\Local\Temp\ccFDYt3r.debug.temp.o
                0x0003e09b                board.c.b416bc25
 .debug_info    0x0003f65a      0xfec C:\Users\RAKIBU~1\AppData\Local\Temp\cc9rP78H.debug.temp.o
                0x0003f65a                chsys.c.a14f75a2
 .debug_info    0x00040646      0xbcf C:\Users\RAKIBU~1\AppData\Local\Temp\ccgSPRmB.debug.temp.o
                0x00040646                chvt.c.3a4d6d4c
 .debug_info    0x00041215      0xd4d C:\Users\RAKIBU~1\AppData\Local\Temp\ccXBqgoh.debug.temp.o
                0x00041215                chschd.c.993c0655
 .debug_info    0x00041f62     0x12cb C:\Users\RAKIBU~1\AppData\Local\Temp\cci81NJV.debug.temp.o
                0x00041f62                chthreads.c.00c0faf3
 .debug_info    0x0004322d      0xce7 C:\Users\RAKIBU~1\AppData\Local\Temp\ccTqmAAz.debug.temp.o
                0x0004322d                chtm.c.4a17fcd2
 .debug_info    0x00043f14     0x1435 C:\Users\RAKIBU~1\AppData\Local\Temp\ccGTIU6d.debug.temp.o
                0x00043f14                chregistry.c.932e2427
 .debug_info    0x00045349      0xdec C:\Users\RAKIBU~1\AppData\Local\Temp\ccrfkuIV.debug.temp.o
                0x00045349                chsem.c.7c8dc6c9
 .debug_info    0x00046135      0xd82 C:\Users\RAKIBU~1\AppData\Local\Temp\cc6T6f0D.debug.temp.o
                0x00046135                chmtx.c.3d20854a
 .debug_info    0x00046eb7      0xd7b C:\Users\RAKIBU~1\AppData\Local\Temp\ccLmp5Bk.debug.temp.o
                0x00046eb7                chcond.c.bd20f3c6
 .debug_info    0x00047c32      0xf98 C:\Users\RAKIBU~1\AppData\Local\Temp\ccSRFCX1.debug.temp.o
                0x00047c32                chevents.c.0a40b136
 .debug_info    0x00048bca      0xc26 C:\Users\RAKIBU~1\AppData\Local\Temp\ccdyOYNI.debug.temp.o
                0x00048bca                chmsg.c.35029ba3
 .debug_info    0x000497f0      0xd07 C:\Users\RAKIBU~1\AppData\Local\Temp\ccacQuKs.debug.temp.o
                0x000497f0                chdynamic.c.9a559737
 .debug_info    0x0004a4f7      0xf02 C:\Users\RAKIBU~1\AppData\Local\Temp\ccbihpmd.debug.temp.o
                0x0004a4f7                chmboxes.c.a41e4ad8
 .debug_info    0x0004b3f9      0xc2e C:\Users\RAKIBU~1\AppData\Local\Temp\ccqx9oiW.debug.temp.o
                0x0004b3f9                chmemcore.c.f981dbd2
 .debug_info    0x0004c027      0xd24 C:\Users\RAKIBU~1\AppData\Local\Temp\ccD7UjYF.debug.temp.o
                0x0004c027                chmemheaps.c.a81a6f32
 .debug_info    0x0004cd4b      0xdd9 C:\Users\RAKIBU~1\AppData\Local\Temp\ccy69Y8o.debug.temp.o
                0x0004cd4b                chmempools.c.6292b27e
 .debug_info    0x0004db24     0x1639 C:\Users\RAKIBU~1\AppData\Local\Temp\ccFTVllb.debug.temp.o
                0x0004db24                chpipes.c.a617b8b3
 .debug_info    0x0004f15d      0xf5e C:\Users\RAKIBU~1\AppData\Local\Temp\ccKt1dhY.debug.temp.o
                0x0004f15d                chobjcaches.c.fa0206e9
 .debug_info    0x000500bb      0xe59 C:\Users\RAKIBU~1\AppData\Local\Temp\ccZCwjxJ.debug.temp.o
                0x000500bb                chdelegates.c.2d83c02a
 .debug_info    0x00050f14     0x1ce1 C:\Users\RAKIBU~1\AppData\Local\Temp\cc2lLTsv.debug.temp.o
                0x00050f14                chfactory.c.066ddd56
 .debug_info    0x00052bf5     0x1a69 C:\Users\RAKIBU~1\AppData\Local\Temp\ccAOt7V8.debug.temp.o
                0x00052bf5                chcore_v7m.c.e9eaba40
 .debug_info    0x0005465e     0x16f4 C:\Users\RAKIBU~1\AppData\Local\Temp\cc7ypz8X.debug.temp.o
                0x0005465e                chprintf.c.07a3b500
 .debug_info    0x00055d52     0x1fb7 C:\Users\RAKIBU~1\AppData\Local\Temp\cc4laSbr.debug.temp.o
                0x00055d52                shell.c.11e2d3a1
 .debug_info    0x00057d09     0x21ba C:\Users\RAKIBU~1\AppData\Local\Temp\cchAui2h.debug.temp.o
                0x00057d09                shell_cmd.c.31b6598f
 .debug_info    0x00059ec3     0x16f3 C:\Users\RAKIBU~1\AppData\Local\Temp\ccOe3Py9.debug.temp.o
                0x00059ec3                fatfs_diskio.c.aebf6a04
 .debug_info    0x0005b5b6     0x145f C:\Users\RAKIBU~1\AppData\Local\Temp\cc3LaxpZ.debug.temp.o
                0x0005b5b6                fatfs_syscall.c.d1785fef
 .debug_info    0x0005ca15     0x28de C:\Users\RAKIBU~1\AppData\Local\Temp\ccC99UZP.debug.temp.o
                0x0005ca15                ff.c.ce7d80e0
 .debug_info    0x0005f2f3      0xbb5 C:\Users\RAKIBU~1\AppData\Local\Temp\ccrPy3AJ.debug.temp.o
                0x0005f2f3                ffunicode.c.0acb7d30
 .debug_info    0x0005fea8     0x186b C:\Users\RAKIBU~1\AppData\Local\Temp\ccQljqMC.debug.temp.o
                0x0005fea8                ch_test.c.27ae1787
 .debug_info    0x00061713     0x15fc C:\Users\RAKIBU~1\AppData\Local\Temp\ccBhtmDw.debug.temp.o
                0x00061713                rt_test_root.c.466889a6
 .debug_info    0x00062d0f     0x1556 C:\Users\RAKIBU~1\AppData\Local\Temp\cc4zVzSo.debug.temp.o
                0x00062d0f                rt_test_sequence_001.c.8d3bbd5a
 .debug_info    0x00064265     0x17f5 C:\Users\RAKIBU~1\AppData\Local\Temp\cc78exNh.debug.temp.o
                0x00064265                rt_test_sequence_002.c.4ac5b5ba
 .debug_info    0x00065a5a     0x15d0 C:\Users\RAKIBU~1\AppData\Local\Temp\ccWMCzNd.debug.temp.o
                0x00065a5a                rt_test_sequence_003.c.991208fe
 .debug_info    0x0006702a     0x16b8 C:\Users\RAKIBU~1\AppData\Local\Temp\ccxV1mi9.debug.temp.o
                0x0006702a                rt_test_sequence_004.c.701ced23
 .debug_info    0x000686e2     0x165d C:\Users\RAKIBU~1\AppData\Local\Temp\cca7x3x5.debug.temp.o
                0x000686e2                rt_test_sequence_005.c.c1068511
 .debug_info    0x00069d3f     0x18fa C:\Users\RAKIBU~1\AppData\Local\Temp\ccL3iN7Z.debug.temp.o
                0x00069d3f                rt_test_sequence_006.c.d9c566c9
 .debug_info    0x0006b639     0x17ec C:\Users\RAKIBU~1\AppData\Local\Temp\ccWGiAmV.debug.temp.o
                0x0006b639                rt_test_sequence_007.c.3590149a
 .debug_info    0x0006ce25     0x1638 C:\Users\RAKIBU~1\AppData\Local\Temp\ccX2tSGT.debug.temp.o
                0x0006ce25                rt_test_sequence_008.c.6832f25c
 .debug_info    0x0006e45d     0x18df C:\Users\RAKIBU~1\AppData\Local\Temp\ccOzRCwR.debug.temp.o
                0x0006e45d                rt_test_sequence_009.c.ec45f511
 .debug_info    0x0006fd3c     0x1735 C:\Users\RAKIBU~1\AppData\Local\Temp\cc9bu55P.debug.temp.o
                0x0006fd3c                rt_test_sequence_010.c.68d8a0e2
 .debug_info    0x00071471     0x1adb C:\Users\RAKIBU~1\AppData\Local\Temp\ccEnwLZM.debug.temp.o
                0x00071471                rt_test_sequence_011.c.e88aa221
 .debug_info    0x00072f4c     0x14a1 C:\Users\RAKIBU~1\AppData\Local\Temp\cchbm8uK.debug.temp.o
                0x00072f4c                oslib_test_root.c.894cb7a9
 .debug_info    0x000743ed     0x14dd C:\Users\RAKIBU~1\AppData\Local\Temp\ccgqGw5K.debug.temp.o
                0x000743ed                oslib_test_sequence_001.c.7eea7997
 .debug_info    0x000758ca     0x1727 C:\Users\RAKIBU~1\AppData\Local\Temp\cctSjtlM.debug.temp.o
                0x000758ca                oslib_test_sequence_002.c.6519db63
 .debug_info    0x00076ff1     0x1f8e C:\Users\RAKIBU~1\AppData\Local\Temp\ccmCpTQL.debug.temp.o
                0x00076ff1                oslib_test_sequence_003.c.06aa96cc
 .debug_info    0x00078f7f     0x18f1 C:\Users\RAKIBU~1\AppData\Local\Temp\ccRJBpWK.debug.temp.o
                0x00078f7f                oslib_test_sequence_004.c.11222e6b
 .debug_info    0x0007a870     0x1870 C:\Users\RAKIBU~1\AppData\Local\Temp\ccKjuvHK.debug.temp.o
                0x0007a870                oslib_test_sequence_005.c.0b12a24b
 .debug_info    0x0007c0e0     0x214e C:\Users\RAKIBU~1\AppData\Local\Temp\ccnttPtN.debug.temp.o
                0x0007c0e0                oslib_test_sequence_006.c.8100ea22
 .debug_info    0x0007e22e     0x161e C:\Users\RAKIBU~1\AppData\Local\Temp\cckt4zVQ.debug.temp.o
                0x0007e22e                oslib_test_sequence_007.c.4f9b76c8
 .debug_info    0x0007f84c     0x1690 C:\Users\RAKIBU~1\AppData\Local\Temp\ccZluKLS.debug.temp.o
                0x0007f84c                oslib_test_sequence_008.c.97aace2c
 .debug_info    0x00080edc     0x1a67 C:\Users\RAKIBU~1\AppData\Local\Temp\ccexyFdV.debug.temp.o
                0x00080edc                oslib_test_sequence_009.c.ac627467
 .debug_info    0x00082943     0x2864 C:\Users\RAKIBU~1\AppData\Local\Temp\ccpYxvaX.debug.temp.o
                0x00082943                main.c.d8c48950

.debug_abbrev   0x00000000     0xb4a7
 .debug_abbrev  0x00000000       0x14 ./build/obj/crt0_v7m.o
 .debug_abbrev  0x00000014       0x14 ./build/obj/vectors.o
 .debug_abbrev  0x00000028       0x14 ./build/obj/chcoreasm_v7m.o
 .debug_abbrev  0x0000003c      0x382 C:\Users\RAKIBU~1\AppData\Local\Temp\ch.elf.ULtIRf.ltrans0.ltrans.o
 .debug_abbrev  0x000003be      0x35e C:\Users\RAKIBU~1\AppData\Local\Temp\ch.elf.ULtIRf.ltrans1.ltrans.o
 .debug_abbrev  0x0000071c       0xff C:\Users\RAKIBU~1\AppData\Local\Temp\cch5nJgM.debug.temp.o
 .debug_abbrev  0x0000081b      0x1ba C:\Users\RAKIBU~1\AppData\Local\Temp\ccmroM3f.debug.temp.o
 .debug_abbrev  0x000009d5      0x240 C:\Users\RAKIBU~1\AppData\Local\Temp\ccRgbWpJ.debug.temp.o
 .debug_abbrev  0x00000c15      0x308 C:\Users\RAKIBU~1\AppData\Local\Temp\ccwdJDrd.debug.temp.o
 .debug_abbrev  0x00000f1d      0x31b C:\Users\RAKIBU~1\AppData\Local\Temp\ccxvOrNF.debug.temp.o
 .debug_abbrev  0x00001238      0x20a C:\Users\RAKIBU~1\AppData\Local\Temp\ccuHb8T8.debug.temp.o
 .debug_abbrev  0x00001442      0x23a C:\Users\RAKIBU~1\AppData\Local\Temp\ccxo170E.debug.temp.o
 .debug_abbrev  0x0000167c      0x331 C:\Users\RAKIBU~1\AppData\Local\Temp\ccMfTFNb.debug.temp.o
 .debug_abbrev  0x000019ad      0x1ff C:\Users\RAKIBU~1\AppData\Local\Temp\ccDuRjaI.debug.temp.o
 .debug_abbrev  0x00001bac      0x28b C:\Users\RAKIBU~1\AppData\Local\Temp\ccEifbRc.debug.temp.o
 .debug_abbrev  0x00001e37      0x25f C:\Users\RAKIBU~1\AppData\Local\Temp\cct8M7cI.debug.temp.o
 .debug_abbrev  0x00002096      0x221 C:\Users\RAKIBU~1\AppData\Local\Temp\ccq6WkEg.debug.temp.o
 .debug_abbrev  0x000022b7      0x1b4 C:\Users\RAKIBU~1\AppData\Local\Temp\ccVlNPLP.debug.temp.o
 .debug_abbrev  0x0000246b      0x1c7 C:\Users\RAKIBU~1\AppData\Local\Temp\ccQAGjoo.debug.temp.o
 .debug_abbrev  0x00002632      0x25b C:\Users\RAKIBU~1\AppData\Local\Temp\ccQfGwWs.debug.temp.o
 .debug_abbrev  0x0000288d      0x1da C:\Users\RAKIBU~1\AppData\Local\Temp\ccl1YbE3.debug.temp.o
 .debug_abbrev  0x00002a67      0x26c C:\Users\RAKIBU~1\AppData\Local\Temp\cca76SWE.debug.temp.o
 .debug_abbrev  0x00002cd3      0x209 C:\Users\RAKIBU~1\AppData\Local\Temp\cclCSeAe.debug.temp.o
 .debug_abbrev  0x00002edc      0x271 C:\Users\RAKIBU~1\AppData\Local\Temp\ccWAiDOO.debug.temp.o
 .debug_abbrev  0x0000314d      0x1dc C:\Users\RAKIBU~1\AppData\Local\Temp\ccFDYt3r.debug.temp.o
 .debug_abbrev  0x00003329      0x303 C:\Users\RAKIBU~1\AppData\Local\Temp\cc9rP78H.debug.temp.o
 .debug_abbrev  0x0000362c      0x252 C:\Users\RAKIBU~1\AppData\Local\Temp\ccgSPRmB.debug.temp.o
 .debug_abbrev  0x0000387e      0x2ad C:\Users\RAKIBU~1\AppData\Local\Temp\ccXBqgoh.debug.temp.o
 .debug_abbrev  0x00003b2b      0x29c C:\Users\RAKIBU~1\AppData\Local\Temp\cci81NJV.debug.temp.o
 .debug_abbrev  0x00003dc7      0x1e0 C:\Users\RAKIBU~1\AppData\Local\Temp\ccTqmAAz.debug.temp.o
 .debug_abbrev  0x00003fa7      0x2ae C:\Users\RAKIBU~1\AppData\Local\Temp\ccGTIU6d.debug.temp.o
 .debug_abbrev  0x00004255      0x26b C:\Users\RAKIBU~1\AppData\Local\Temp\ccrfkuIV.debug.temp.o
 .debug_abbrev  0x000044c0      0x28f C:\Users\RAKIBU~1\AppData\Local\Temp\cc6T6f0D.debug.temp.o
 .debug_abbrev  0x0000474f      0x26b C:\Users\RAKIBU~1\AppData\Local\Temp\ccLmp5Bk.debug.temp.o
 .debug_abbrev  0x000049ba      0x284 C:\Users\RAKIBU~1\AppData\Local\Temp\ccSRFCX1.debug.temp.o
 .debug_abbrev  0x00004c3e      0x262 C:\Users\RAKIBU~1\AppData\Local\Temp\ccdyOYNI.debug.temp.o
 .debug_abbrev  0x00004ea0      0x20b C:\Users\RAKIBU~1\AppData\Local\Temp\ccacQuKs.debug.temp.o
 .debug_abbrev  0x000050ab      0x253 C:\Users\RAKIBU~1\AppData\Local\Temp\ccbihpmd.debug.temp.o
 .debug_abbrev  0x000052fe      0x22d C:\Users\RAKIBU~1\AppData\Local\Temp\ccqx9oiW.debug.temp.o
 .debug_abbrev  0x0000552b      0x270 C:\Users\RAKIBU~1\AppData\Local\Temp\ccD7UjYF.debug.temp.o
 .debug_abbrev  0x0000579b      0x273 C:\Users\RAKIBU~1\AppData\Local\Temp\ccy69Y8o.debug.temp.o
 .debug_abbrev  0x00005a0e      0x2b5 C:\Users\RAKIBU~1\AppData\Local\Temp\ccFTVllb.debug.temp.o
 .debug_abbrev  0x00005cc3      0x285 C:\Users\RAKIBU~1\AppData\Local\Temp\ccKt1dhY.debug.temp.o
 .debug_abbrev  0x00005f48      0x259 C:\Users\RAKIBU~1\AppData\Local\Temp\ccZCwjxJ.debug.temp.o
 .debug_abbrev  0x000061a1      0x2f5 C:\Users\RAKIBU~1\AppData\Local\Temp\cc2lLTsv.debug.temp.o
 .debug_abbrev  0x00006496      0x2e9 C:\Users\RAKIBU~1\AppData\Local\Temp\ccAOt7V8.debug.temp.o
 .debug_abbrev  0x0000677f      0x28e C:\Users\RAKIBU~1\AppData\Local\Temp\cc7ypz8X.debug.temp.o
 .debug_abbrev  0x00006a0d      0x304 C:\Users\RAKIBU~1\AppData\Local\Temp\cc4laSbr.debug.temp.o
 .debug_abbrev  0x00006d11      0x2f6 C:\Users\RAKIBU~1\AppData\Local\Temp\cchAui2h.debug.temp.o
 .debug_abbrev  0x00007007      0x202 C:\Users\RAKIBU~1\AppData\Local\Temp\ccOe3Py9.debug.temp.o
 .debug_abbrev  0x00007209      0x1f3 C:\Users\RAKIBU~1\AppData\Local\Temp\cc3LaxpZ.debug.temp.o
 .debug_abbrev  0x000073fc      0x242 C:\Users\RAKIBU~1\AppData\Local\Temp\ccC99UZP.debug.temp.o
 .debug_abbrev  0x0000763e      0x1c4 C:\Users\RAKIBU~1\AppData\Local\Temp\ccrPy3AJ.debug.temp.o
 .debug_abbrev  0x00007802      0x2c6 C:\Users\RAKIBU~1\AppData\Local\Temp\ccQljqMC.debug.temp.o
 .debug_abbrev  0x00007ac8      0x28c C:\Users\RAKIBU~1\AppData\Local\Temp\ccBhtmDw.debug.temp.o
 .debug_abbrev  0x00007d54      0x208 C:\Users\RAKIBU~1\AppData\Local\Temp\cc4zVzSo.debug.temp.o
 .debug_abbrev  0x00007f5c      0x2b5 C:\Users\RAKIBU~1\AppData\Local\Temp\cc78exNh.debug.temp.o
 .debug_abbrev  0x00008211      0x256 C:\Users\RAKIBU~1\AppData\Local\Temp\ccWMCzNd.debug.temp.o
 .debug_abbrev  0x00008467      0x2b5 C:\Users\RAKIBU~1\AppData\Local\Temp\ccxV1mi9.debug.temp.o
 .debug_abbrev  0x0000871c      0x297 C:\Users\RAKIBU~1\AppData\Local\Temp\cca7x3x5.debug.temp.o
 .debug_abbrev  0x000089b3      0x2da C:\Users\RAKIBU~1\AppData\Local\Temp\ccL3iN7Z.debug.temp.o
 .debug_abbrev  0x00008c8d      0x2b8 C:\Users\RAKIBU~1\AppData\Local\Temp\ccWGiAmV.debug.temp.o
 .debug_abbrev  0x00008f45      0x28b C:\Users\RAKIBU~1\AppData\Local\Temp\ccX2tSGT.debug.temp.o
 .debug_abbrev  0x000091d0      0x2d7 C:\Users\RAKIBU~1\AppData\Local\Temp\ccOzRCwR.debug.temp.o
 .debug_abbrev  0x000094a7      0x268 C:\Users\RAKIBU~1\AppData\Local\Temp\cc9bu55P.debug.temp.o
 .debug_abbrev  0x0000970f      0x2ed C:\Users\RAKIBU~1\AppData\Local\Temp\ccEnwLZM.debug.temp.o
 .debug_abbrev  0x000099fc      0x1bf C:\Users\RAKIBU~1\AppData\Local\Temp\cchbm8uK.debug.temp.o
 .debug_abbrev  0x00009bbb      0x1dd C:\Users\RAKIBU~1\AppData\Local\Temp\ccgqGw5K.debug.temp.o
 .debug_abbrev  0x00009d98      0x286 C:\Users\RAKIBU~1\AppData\Local\Temp\cctSjtlM.debug.temp.o
 .debug_abbrev  0x0000a01e      0x2b2 C:\Users\RAKIBU~1\AppData\Local\Temp\ccmCpTQL.debug.temp.o
 .debug_abbrev  0x0000a2d0      0x298 C:\Users\RAKIBU~1\AppData\Local\Temp\ccRJBpWK.debug.temp.o
 .debug_abbrev  0x0000a568      0x256 C:\Users\RAKIBU~1\AppData\Local\Temp\ccKjuvHK.debug.temp.o
 .debug_abbrev  0x0000a7be      0x2df C:\Users\RAKIBU~1\AppData\Local\Temp\ccnttPtN.debug.temp.o
 .debug_abbrev  0x0000aa9d      0x24c C:\Users\RAKIBU~1\AppData\Local\Temp\cckt4zVQ.debug.temp.o
 .debug_abbrev  0x0000ace9      0x242 C:\Users\RAKIBU~1\AppData\Local\Temp\ccZluKLS.debug.temp.o
 .debug_abbrev  0x0000af2b      0x249 C:\Users\RAKIBU~1\AppData\Local\Temp\ccexyFdV.debug.temp.o
 .debug_abbrev  0x0000b174      0x333 C:\Users\RAKIBU~1\AppData\Local\Temp\ccpYxvaX.debug.temp.o

.debug_aranges  0x00000000      0xb78
 .debug_aranges
                0x00000000       0x20 ./build/obj/crt0_v7m.o
 .debug_aranges
                0x00000020       0x20 ./build/obj/vectors.o
 .debug_aranges
                0x00000040       0x20 ./build/obj/chcoreasm_v7m.o
 .debug_aranges
                0x00000060      0x690 C:\Users\RAKIBU~1\AppData\Local\Temp\ch.elf.ULtIRf.ltrans0.ltrans.o
 .debug_aranges
                0x000006f0      0x488 C:\Users\RAKIBU~1\AppData\Local\Temp\ch.elf.ULtIRf.ltrans1.ltrans.o

.debug_str      0x00000000     0x736b
 .debug_str     0x00000000       0x94 ./build/obj/crt0_v7m.o
 .debug_str     0x00000094       0x3a ./build/obj/vectors.o
                                 0x93 (size before relaxing)
 .debug_str     0x000000ce       0x3e ./build/obj/chcoreasm_v7m.o
                                 0x97 (size before relaxing)
 .debug_str     0x0000010c      0x209 C:\Users\RAKIBU~1\AppData\Local\Temp\ch.elf.ULtIRf.ltrans0.ltrans.o
                                0x276 (size before relaxing)
 .debug_str     0x00000315       0x7d C:\Users\RAKIBU~1\AppData\Local\Temp\ch.elf.ULtIRf.ltrans1.ltrans.o
                                0x254 (size before relaxing)
 .debug_str     0x00000392      0x409 C:\Users\RAKIBU~1\AppData\Local\Temp\cch5nJgM.debug.temp.o
                                0x4ed (size before relaxing)
 .debug_str     0x0000079b      0x7ab C:\Users\RAKIBU~1\AppData\Local\Temp\ccmroM3f.debug.temp.o
                                0xab8 (size before relaxing)
 .debug_str     0x00000f46      0x12e C:\Users\RAKIBU~1\AppData\Local\Temp\ccRgbWpJ.debug.temp.o
                                0xbbb (size before relaxing)
 .debug_str     0x00001074      0x6ba C:\Users\RAKIBU~1\AppData\Local\Temp\ccwdJDrd.debug.temp.o
                               0x11b5 (size before relaxing)
 .debug_str     0x0000172e       0xc7 C:\Users\RAKIBU~1\AppData\Local\Temp\ccxvOrNF.debug.temp.o
                               0x102d (size before relaxing)
 .debug_str     0x000017f5      0x276 C:\Users\RAKIBU~1\AppData\Local\Temp\ccuHb8T8.debug.temp.o
                                0xd1e (size before relaxing)
 .debug_str     0x00001a6b      0x42b C:\Users\RAKIBU~1\AppData\Local\Temp\ccxo170E.debug.temp.o
                                0xee2 (size before relaxing)
 .debug_str     0x00001e96      0x1f3 C:\Users\RAKIBU~1\AppData\Local\Temp\ccMfTFNb.debug.temp.o
                               0x11d2 (size before relaxing)
 .debug_str     0x00002089       0x6b C:\Users\RAKIBU~1\AppData\Local\Temp\ccDuRjaI.debug.temp.o
                                0xb0b (size before relaxing)
 .debug_str     0x000020f4      0x12d C:\Users\RAKIBU~1\AppData\Local\Temp\ccEifbRc.debug.temp.o
                                0xc3a (size before relaxing)
 .debug_str     0x00002221      0x153 C:\Users\RAKIBU~1\AppData\Local\Temp\cct8M7cI.debug.temp.o
                                0xc69 (size before relaxing)
 .debug_str     0x00002374      0x13b C:\Users\RAKIBU~1\AppData\Local\Temp\ccq6WkEg.debug.temp.o
                                0xbd1 (size before relaxing)
 .debug_str     0x000024af      0x319 C:\Users\RAKIBU~1\AppData\Local\Temp\ccVlNPLP.debug.temp.o
                                0xda6 (size before relaxing)
 .debug_str     0x000027c8       0xd3 C:\Users\RAKIBU~1\AppData\Local\Temp\ccQAGjoo.debug.temp.o
                                0xb6a (size before relaxing)
 .debug_str     0x0000289b      0x112 C:\Users\RAKIBU~1\AppData\Local\Temp\ccQfGwWs.debug.temp.o
                                0xc50 (size before relaxing)
 .debug_str     0x000029ad       0x60 C:\Users\RAKIBU~1\AppData\Local\Temp\ccl1YbE3.debug.temp.o
                                0xb51 (size before relaxing)
 .debug_str     0x00002a0d      0x192 C:\Users\RAKIBU~1\AppData\Local\Temp\cca76SWE.debug.temp.o
                                0xcc5 (size before relaxing)
 .debug_str     0x00002b9f       0x8e C:\Users\RAKIBU~1\AppData\Local\Temp\cclCSeAe.debug.temp.o
                                0xc36 (size before relaxing)
 .debug_str     0x00002c2d       0x91 C:\Users\RAKIBU~1\AppData\Local\Temp\ccWAiDOO.debug.temp.o
                                0xc48 (size before relaxing)
 .debug_str     0x00002cbe       0x6f C:\Users\RAKIBU~1\AppData\Local\Temp\ccFDYt3r.debug.temp.o
                                0xc3a (size before relaxing)
 .debug_str     0x00002d2d      0x2fe C:\Users\RAKIBU~1\AppData\Local\Temp\cc9rP78H.debug.temp.o
                                0xad1 (size before relaxing)
 .debug_str     0x0000302b       0x68 C:\Users\RAKIBU~1\AppData\Local\Temp\ccgSPRmB.debug.temp.o
                                0x804 (size before relaxing)
 .debug_str     0x00003093      0x148 C:\Users\RAKIBU~1\AppData\Local\Temp\ccXBqgoh.debug.temp.o
                                0x8e7 (size before relaxing)
 .debug_str     0x000031db      0x26d C:\Users\RAKIBU~1\AppData\Local\Temp\cci81NJV.debug.temp.o
                                0xa5a (size before relaxing)
 .debug_str     0x00003448       0xb9 C:\Users\RAKIBU~1\AppData\Local\Temp\ccTqmAAz.debug.temp.o
                                0x88d (size before relaxing)
 .debug_str     0x00003501       0xa1 C:\Users\RAKIBU~1\AppData\Local\Temp\ccGTIU6d.debug.temp.o
                                0xbdc (size before relaxing)
 .debug_str     0x000035a2       0xdc C:\Users\RAKIBU~1\AppData\Local\Temp\ccrfkuIV.debug.temp.o
                                0x864 (size before relaxing)
 .debug_str     0x0000367e       0xb9 C:\Users\RAKIBU~1\AppData\Local\Temp\cc6T6f0D.debug.temp.o
                                0x845 (size before relaxing)
 .debug_str     0x00003737       0xe0 C:\Users\RAKIBU~1\AppData\Local\Temp\ccLmp5Bk.debug.temp.o
                                0x87e (size before relaxing)
 .debug_str     0x00003817      0x19d C:\Users\RAKIBU~1\AppData\Local\Temp\ccSRFCX1.debug.temp.o
                                0x94f (size before relaxing)
 .debug_str     0x000039b4       0x78 C:\Users\RAKIBU~1\AppData\Local\Temp\ccdyOYNI.debug.temp.o
                                0x7e9 (size before relaxing)
 .debug_str     0x00003a2c       0x95 C:\Users\RAKIBU~1\AppData\Local\Temp\ccacQuKs.debug.temp.o
                                0x828 (size before relaxing)
 .debug_str     0x00003ac1      0x114 C:\Users\RAKIBU~1\AppData\Local\Temp\ccbihpmd.debug.temp.o
                                0x8a3 (size before relaxing)
 .debug_str     0x00003bd5       0x9e C:\Users\RAKIBU~1\AppData\Local\Temp\ccqx9oiW.debug.temp.o
                                0x7f3 (size before relaxing)
 .debug_str     0x00003c73       0x9c C:\Users\RAKIBU~1\AppData\Local\Temp\ccD7UjYF.debug.temp.o
                                0x808 (size before relaxing)
 .debug_str     0x00003d0f      0x13c C:\Users\RAKIBU~1\AppData\Local\Temp\ccy69Y8o.debug.temp.o
                                0x8a4 (size before relaxing)
 .debug_str     0x00003e4b       0xba C:\Users\RAKIBU~1\AppData\Local\Temp\ccFTVllb.debug.temp.o
                                0xc0d (size before relaxing)
 .debug_str     0x00003f05      0x1e8 C:\Users\RAKIBU~1\AppData\Local\Temp\ccKt1dhY.debug.temp.o
                                0x95f (size before relaxing)
 .debug_str     0x000040ed      0x17b C:\Users\RAKIBU~1\AppData\Local\Temp\ccZCwjxJ.debug.temp.o
                                0x8da (size before relaxing)
 .debug_str     0x00004268      0x3c8 C:\Users\RAKIBU~1\AppData\Local\Temp\cc2lLTsv.debug.temp.o
                                0xf9b (size before relaxing)
 .debug_str     0x00004630      0x132 C:\Users\RAKIBU~1\AppData\Local\Temp\ccAOt7V8.debug.temp.o
                               0x10b1 (size before relaxing)
 .debug_str     0x00004762      0x12e C:\Users\RAKIBU~1\AppData\Local\Temp\cc7ypz8X.debug.temp.o
                                0xbf0 (size before relaxing)
 .debug_str     0x00004890      0x169 C:\Users\RAKIBU~1\AppData\Local\Temp\cc4laSbr.debug.temp.o
                               0x105b (size before relaxing)
 .debug_str     0x000049f9      0x2f1 C:\Users\RAKIBU~1\AppData\Local\Temp\cchAui2h.debug.temp.o
                               0x129b (size before relaxing)
 .debug_str     0x00004cea       0xd6 C:\Users\RAKIBU~1\AppData\Local\Temp\ccOe3Py9.debug.temp.o
                                0xc99 (size before relaxing)
 .debug_str     0x00004dc0       0x51 C:\Users\RAKIBU~1\AppData\Local\Temp\cc3LaxpZ.debug.temp.o
                                0xb53 (size before relaxing)
 .debug_str     0x00004e11      0x601 C:\Users\RAKIBU~1\AppData\Local\Temp\ccC99UZP.debug.temp.o
                                0xdb3 (size before relaxing)
 .debug_str     0x00005412       0x55 C:\Users\RAKIBU~1\AppData\Local\Temp\ccrPy3AJ.debug.temp.o
                                0x765 (size before relaxing)
 .debug_str     0x00005467      0x1fd C:\Users\RAKIBU~1\AppData\Local\Temp\ccQljqMC.debug.temp.o
                                0xdf4 (size before relaxing)
 .debug_str     0x00005664       0x78 C:\Users\RAKIBU~1\AppData\Local\Temp\ccBhtmDw.debug.temp.o
                                0xd02 (size before relaxing)
 .debug_str     0x000056dc       0xc7 C:\Users\RAKIBU~1\AppData\Local\Temp\cc4zVzSo.debug.temp.o
                                0xcc5 (size before relaxing)
 .debug_str     0x000057a3      0x14d C:\Users\RAKIBU~1\AppData\Local\Temp\cc78exNh.debug.temp.o
                                0xe8c (size before relaxing)
 .debug_str     0x000058f0       0x9f C:\Users\RAKIBU~1\AppData\Local\Temp\ccWMCzNd.debug.temp.o
                                0xce0 (size before relaxing)
 .debug_str     0x0000598f       0xef C:\Users\RAKIBU~1\AppData\Local\Temp\ccxV1mi9.debug.temp.o
                                0xdac (size before relaxing)
 .debug_str     0x00005a7e       0x8d C:\Users\RAKIBU~1\AppData\Local\Temp\cca7x3x5.debug.temp.o
                                0xd52 (size before relaxing)
 .debug_str     0x00005b0b      0x2af C:\Users\RAKIBU~1\AppData\Local\Temp\ccL3iN7Z.debug.temp.o
                                0xf8f (size before relaxing)
 .debug_str     0x00005dba      0x1fe C:\Users\RAKIBU~1\AppData\Local\Temp\ccWGiAmV.debug.temp.o
                                0xeb9 (size before relaxing)
 .debug_str     0x00005fb8       0x83 C:\Users\RAKIBU~1\AppData\Local\Temp\ccX2tSGT.debug.temp.o
                                0xcff (size before relaxing)
 .debug_str     0x0000603b      0x23d C:\Users\RAKIBU~1\AppData\Local\Temp\ccOzRCwR.debug.temp.o
                                0xf1a (size before relaxing)
 .debug_str     0x00006278       0xfd C:\Users\RAKIBU~1\AppData\Local\Temp\cc9bu55P.debug.temp.o
                                0xd8a (size before relaxing)
 .debug_str     0x00006375      0x2dd C:\Users\RAKIBU~1\AppData\Local\Temp\ccEnwLZM.debug.temp.o
                                0xffc (size before relaxing)
 .debug_str     0x00006652       0x49 C:\Users\RAKIBU~1\AppData\Local\Temp\cchbm8uK.debug.temp.o
                                0xc27 (size before relaxing)
 .debug_str     0x0000669b       0xe2 C:\Users\RAKIBU~1\AppData\Local\Temp\ccgqGw5K.debug.temp.o
                                0xcc0 (size before relaxing)
 .debug_str     0x0000677d      0x1a1 C:\Users\RAKIBU~1\AppData\Local\Temp\cctSjtlM.debug.temp.o
                                0xe38 (size before relaxing)
 .debug_str     0x0000691e      0x106 C:\Users\RAKIBU~1\AppData\Local\Temp\ccmCpTQL.debug.temp.o
                               0x10ef (size before relaxing)
 .debug_str     0x00006a24      0x16c C:\Users\RAKIBU~1\AppData\Local\Temp\ccRJBpWK.debug.temp.o
                                0xe0a (size before relaxing)
 .debug_str     0x00006b90      0x147 C:\Users\RAKIBU~1\AppData\Local\Temp\ccKjuvHK.debug.temp.o
                                0xdcc (size before relaxing)
 .debug_str     0x00006cd7       0xda C:\Users\RAKIBU~1\AppData\Local\Temp\ccnttPtN.debug.temp.o
                               0x1233 (size before relaxing)
 .debug_str     0x00006db1      0x140 C:\Users\RAKIBU~1\AppData\Local\Temp\cckt4zVQ.debug.temp.o
                                0xd82 (size before relaxing)
 .debug_str     0x00006ef1      0x100 C:\Users\RAKIBU~1\AppData\Local\Temp\ccZluKLS.debug.temp.o
                                0xd4e (size before relaxing)
 .debug_str     0x00006ff1      0x274 C:\Users\RAKIBU~1\AppData\Local\Temp\ccexyFdV.debug.temp.o
                                0xfb9 (size before relaxing)
 .debug_str     0x00007265      0x106 C:\Users\RAKIBU~1\AppData\Local\Temp\ccpYxvaX.debug.temp.o
                               0x14fe (size before relaxing)

.debug_loc      0x00000000    0x181f6
 .debug_loc     0x00000000     0xfefd C:\Users\RAKIBU~1\AppData\Local\Temp\ch.elf.ULtIRf.ltrans0.ltrans.o
 .debug_loc     0x0000fefd     0x82f9 C:\Users\RAKIBU~1\AppData\Local\Temp\ch.elf.ULtIRf.ltrans1.ltrans.o

.debug_ranges   0x00000000     0xd620
 .debug_ranges  0x00000000     0x96c0 C:\Users\RAKIBU~1\AppData\Local\Temp\ch.elf.ULtIRf.ltrans0.ltrans.o
 .debug_ranges  0x000096c0     0x3f60 C:\Users\RAKIBU~1\AppData\Local\Temp\ch.elf.ULtIRf.ltrans1.ltrans.o

.debug_frame    0x00000000     0x2d6c
 .debug_frame   0x00000000     0x1b1c C:\Users\RAKIBU~1\AppData\Local\Temp\ch.elf.ULtIRf.ltrans0.ltrans.o
 .debug_frame   0x00001b1c     0x1030 C:\Users\RAKIBU~1\AppData\Local\Temp\ch.elf.ULtIRf.ltrans1.ltrans.o
 .debug_frame   0x00002b4c       0x3c c:/chibistudio/tools/gnu tools arm embedded/9.0 2019q4/bin/../lib/gcc/arm-none-eabi/9.2.1/../../../../arm-none-eabi/lib/thumb/v7-m/nofp\libg.a(lib_a-memcmp.o)
 .debug_frame   0x00002b88       0x38 c:/chibistudio/tools/gnu tools arm embedded/9.0 2019q4/bin/../lib/gcc/arm-none-eabi/9.2.1/../../../../arm-none-eabi/lib/thumb/v7-m/nofp\libg.a(lib_a-memset.o)
 .debug_frame   0x00002bc0       0x40 c:/chibistudio/tools/gnu tools arm embedded/9.0 2019q4/bin/../lib/gcc/arm-none-eabi/9.2.1/../../../../arm-none-eabi/lib/thumb/v7-m/nofp\libg.a(lib_a-strchr.o)
 .debug_frame   0x00002c00       0x34 c:/chibistudio/tools/gnu tools arm embedded/9.0 2019q4/bin/../lib/gcc/arm-none-eabi/9.2.1/../../../../arm-none-eabi/lib/thumb/v7-m/nofp\libg.a(lib_a-strcmp.o)
 .debug_frame   0x00002c34       0x20 c:/chibistudio/tools/gnu tools arm embedded/9.0 2019q4/bin/../lib/gcc/arm-none-eabi/9.2.1/../../../../arm-none-eabi/lib/thumb/v7-m/nofp\libg.a(lib_a-strcpy.o)
 .debug_frame   0x00002c54       0x20 c:/chibistudio/tools/gnu tools arm embedded/9.0 2019q4/bin/../lib/gcc/arm-none-eabi/9.2.1/../../../../arm-none-eabi/lib/thumb/v7-m/nofp\libg.a(lib_a-strlen-stub.o)
 .debug_frame   0x00002c74       0x58 c:/chibistudio/tools/gnu tools arm embedded/9.0 2019q4/bin/../lib/gcc/arm-none-eabi/9.2.1/../../../../arm-none-eabi/lib/thumb/v7-m/nofp\libg.a(lib_a-strncmp.o)
 .debug_frame   0x00002ccc       0x38 c:/chibistudio/tools/gnu tools arm embedded/9.0 2019q4/bin/../lib/gcc/arm-none-eabi/9.2.1/../../../../arm-none-eabi/lib/thumb/v7-m/nofp\libg.a(lib_a-strncpy.o)
 .debug_frame   0x00002d04       0x34 c:/chibistudio/tools/gnu tools arm embedded/9.0 2019q4/bin/../lib/gcc/arm-none-eabi/9.2.1/../../../../arm-none-eabi/lib/thumb/v7-m/nofp\libg.a(lib_a-strpbrk.o)
 .debug_frame   0x00002d38       0x34 c:/chibistudio/tools/gnu tools arm embedded/9.0 2019q4/bin/../lib/gcc/arm-none-eabi/9.2.1/../../../../arm-none-eabi/lib/thumb/v7-m/nofp\libg.a(lib_a-strspn.o)

Cross Reference Table

Symbol                                            File
BusFault_Handler                                  ./build/obj/vectors.o
DebugMon_Handler                                  ./build/obj/vectors.o
HardFault_Handler                                 ./build/obj/vectors.o
MMCD1                                             C:\Users\RAKIBU~1\AppData\Local\Temp\ch.elf.ULtIRf.ltrans0.ltrans.o
                                                  ./build/obj/main.o (symbol from plugin)
                                                  C:\Users\RAKIBU~1\AppData\Local\Temp\ch.elf.ULtIRf.ltrans1.ltrans.o
                                                  ./build/obj/fatfs_diskio.o (symbol from plugin)
MemManage_Handler                                 ./build/obj/vectors.o
NMI_Handler                                       ./build/obj/vectors.o
PendSV_Handler                                    ./build/obj/vectors.o
Reset_Handler                                     ./build/obj/vectors.o
SD2                                               C:\Users\RAKIBU~1\AppData\Local\Temp\ch.elf.ULtIRf.ltrans0.ltrans.o
                                                  ./build/obj/hal_serial_lld.o (symbol from plugin)
                                                  C:\Users\RAKIBU~1\AppData\Local\Temp\ch.elf.ULtIRf.ltrans1.ltrans.o
                                                  ./build/obj/main.o (symbol from plugin)
SPID2                                             C:\Users\RAKIBU~1\AppData\Local\Temp\ch.elf.ULtIRf.ltrans0.ltrans.o
                                                  ./build/obj/hal_spi_lld.o (symbol from plugin)
                                                  C:\Users\RAKIBU~1\AppData\Local\Temp\ch.elf.ULtIRf.ltrans1.ltrans.o
                                                  ./build/obj/main.o (symbol from plugin)
SVC_Handler                                       C:\Users\RAKIBU~1\AppData\Local\Temp\ch.elf.ULtIRf.ltrans1.ltrans.o
                                                  ./build/obj/chcore_v7m.o (symbol from plugin)
                                                  ./build/obj/vectors.o
SysTick_Handler                                   ./build/obj/vectors.o
SystemCoreClock                                   ./build/obj/hal_lld.o (symbol from plugin)
UsageFault_Handler                                ./build/obj/vectors.o
Vector100                                         ./build/obj/vectors.o
Vector104                                         ./build/obj/vectors.o
Vector108                                         ./build/obj/vectors.o
Vector10C                                         ./build/obj/vectors.o
Vector110                                         ./build/obj/vectors.o
Vector114                                         ./build/obj/vectors.o
Vector118                                         ./build/obj/vectors.o
Vector11C                                         ./build/obj/vectors.o
Vector120                                         ./build/obj/vectors.o
Vector124                                         ./build/obj/vectors.o
Vector128                                         ./build/obj/vectors.o
Vector12C                                         ./build/obj/vectors.o
Vector130                                         ./build/obj/vectors.o
Vector134                                         ./build/obj/vectors.o
Vector138                                         ./build/obj/vectors.o
Vector13C                                         ./build/obj/vectors.o
Vector140                                         ./build/obj/vectors.o
Vector144                                         ./build/obj/vectors.o
Vector148                                         ./build/obj/vectors.o
Vector14C                                         ./build/obj/vectors.o
Vector150                                         ./build/obj/vectors.o
Vector154                                         ./build/obj/vectors.o
Vector158                                         ./build/obj/vectors.o
Vector15C                                         ./build/obj/vectors.o
Vector1C                                          ./build/obj/vectors.o
Vector20                                          ./build/obj/vectors.o
Vector24                                          ./build/obj/vectors.o
Vector28                                          ./build/obj/vectors.o
Vector34                                          ./build/obj/vectors.o
Vector40                                          ./build/obj/vectors.o
Vector44                                          ./build/obj/vectors.o
Vector48                                          ./build/obj/vectors.o
Vector4C                                          ./build/obj/vectors.o
Vector50                                          ./build/obj/vectors.o
Vector54                                          ./build/obj/vectors.o
Vector58                                          ./build/obj/vectors.o
Vector5C                                          ./build/obj/vectors.o
Vector60                                          ./build/obj/vectors.o
Vector64                                          ./build/obj/vectors.o
Vector68                                          ./build/obj/vectors.o
Vector6C                                          C:\Users\RAKIBU~1\AppData\Local\Temp\ch.elf.ULtIRf.ltrans1.ltrans.o
                                                  ./build/obj/stm32_dma.o (symbol from plugin)
                                                  ./build/obj/vectors.o
Vector70                                          C:\Users\RAKIBU~1\AppData\Local\Temp\ch.elf.ULtIRf.ltrans1.ltrans.o
                                                  ./build/obj/stm32_dma.o (symbol from plugin)
                                                  ./build/obj/vectors.o
Vector74                                          C:\Users\RAKIBU~1\AppData\Local\Temp\ch.elf.ULtIRf.ltrans1.ltrans.o
                                                  ./build/obj/stm32_dma.o (symbol from plugin)
                                                  ./build/obj/vectors.o
Vector78                                          C:\Users\RAKIBU~1\AppData\Local\Temp\ch.elf.ULtIRf.ltrans1.ltrans.o
                                                  ./build/obj/stm32_dma.o (symbol from plugin)
                                                  ./build/obj/vectors.o
Vector7C                                          C:\Users\RAKIBU~1\AppData\Local\Temp\ch.elf.ULtIRf.ltrans1.ltrans.o
                                                  ./build/obj/stm32_dma.o (symbol from plugin)
                                                  ./build/obj/vectors.o
Vector80                                          C:\Users\RAKIBU~1\AppData\Local\Temp\ch.elf.ULtIRf.ltrans1.ltrans.o
                                                  ./build/obj/stm32_dma.o (symbol from plugin)
                                                  ./build/obj/vectors.o
Vector84                                          C:\Users\RAKIBU~1\AppData\Local\Temp\ch.elf.ULtIRf.ltrans1.ltrans.o
                                                  ./build/obj/stm32_dma.o (symbol from plugin)
                                                  ./build/obj/vectors.o
Vector88                                          ./build/obj/vectors.o
Vector8C                                          ./build/obj/vectors.o
Vector90                                          ./build/obj/vectors.o
Vector94                                          ./build/obj/vectors.o
Vector98                                          ./build/obj/vectors.o
Vector9C                                          ./build/obj/vectors.o
VectorA0                                          ./build/obj/vectors.o
VectorA4                                          ./build/obj/vectors.o
VectorA8                                          ./build/obj/vectors.o
VectorAC                                          ./build/obj/vectors.o
VectorB0                                          C:\Users\RAKIBU~1\AppData\Local\Temp\ch.elf.ULtIRf.ltrans1.ltrans.o
                                                  ./build/obj/hal_st_lld.o (symbol from plugin)
                                                  ./build/obj/vectors.o
VectorB4                                          ./build/obj/vectors.o
VectorB8                                          ./build/obj/vectors.o
VectorBC                                          ./build/obj/vectors.o
VectorC0                                          ./build/obj/vectors.o
VectorC4                                          ./build/obj/vectors.o
VectorC8                                          ./build/obj/vectors.o
VectorCC                                          ./build/obj/vectors.o
VectorD0                                          ./build/obj/vectors.o
VectorD4                                          ./build/obj/vectors.o
VectorD8                                          C:\Users\RAKIBU~1\AppData\Local\Temp\ch.elf.ULtIRf.ltrans1.ltrans.o
                                                  ./build/obj/hal_serial_lld.o (symbol from plugin)
                                                  ./build/obj/vectors.o
VectorDC                                          ./build/obj/vectors.o
VectorE0                                          ./build/obj/vectors.o
VectorE4                                          ./build/obj/vectors.o
VectorE8                                          ./build/obj/vectors.o
VectorEC                                          ./build/obj/vectors.o
VectorF0                                          ./build/obj/vectors.o
VectorF4                                          ./build/obj/vectors.o
VectorF8                                          ./build/obj/vectors.o
VectorFC                                          ./build/obj/vectors.o
__bss_base__                                      C:\Users\RAKIBU~1\AppData\Local\Temp\ch.elf.ULtIRf.ltrans0.ltrans.o
                                                  ./build/obj/ch_test.o (symbol from plugin)
                                                  ./build/obj/crt0_v7m.o
__bss_end__                                       C:\Users\RAKIBU~1\AppData\Local\Temp\ch.elf.ULtIRf.ltrans0.ltrans.o
                                                  ./build/obj/ch_test.o (symbol from plugin)
                                                  ./build/obj/crt0_v7m.o
__ch_delegate_fn0                                 C:\Users\RAKIBU~1\AppData\Local\Temp\ch.elf.ULtIRf.ltrans1.ltrans.o
                                                  ./build/obj/chdelegates.o (symbol from plugin)
                                                  C:\Users\RAKIBU~1\AppData\Local\Temp\ch.elf.ULtIRf.ltrans0.ltrans.o
                                                  ./build/obj/oslib_test_sequence_005.o (symbol from plugin)
__ch_delegate_fn1                                 C:\Users\RAKIBU~1\AppData\Local\Temp\ch.elf.ULtIRf.ltrans1.ltrans.o
                                                  ./build/obj/chdelegates.o (symbol from plugin)
                                                  C:\Users\RAKIBU~1\AppData\Local\Temp\ch.elf.ULtIRf.ltrans0.ltrans.o
                                                  ./build/obj/oslib_test_sequence_005.o (symbol from plugin)
__ch_delegate_fn2                                 C:\Users\RAKIBU~1\AppData\Local\Temp\ch.elf.ULtIRf.ltrans1.ltrans.o
                                                  ./build/obj/chdelegates.o (symbol from plugin)
                                                  C:\Users\RAKIBU~1\AppData\Local\Temp\ch.elf.ULtIRf.ltrans0.ltrans.o
                                                  ./build/obj/oslib_test_sequence_005.o (symbol from plugin)
__ch_delegate_fn3                                 C:\Users\RAKIBU~1\AppData\Local\Temp\ch.elf.ULtIRf.ltrans1.ltrans.o
                                                  ./build/obj/chdelegates.o (symbol from plugin)
                                                  C:\Users\RAKIBU~1\AppData\Local\Temp\ch.elf.ULtIRf.ltrans0.ltrans.o
                                                  ./build/obj/oslib_test_sequence_005.o (symbol from plugin)
__ch_delegate_fn4                                 C:\Users\RAKIBU~1\AppData\Local\Temp\ch.elf.ULtIRf.ltrans1.ltrans.o
                                                  ./build/obj/chdelegates.o (symbol from plugin)
                                                  C:\Users\RAKIBU~1\AppData\Local\Temp\ch.elf.ULtIRf.ltrans0.ltrans.o
                                                  ./build/obj/oslib_test_sequence_005.o (symbol from plugin)
__core_init                                       C:\Users\RAKIBU~1\AppData\Local\Temp\ch.elf.ULtIRf.ltrans1.ltrans.o
                                                  ./build/obj/crt1.o (symbol from plugin)
                                                  ./build/obj/crt0_v7m.o
__data_base__                                     C:\Users\RAKIBU~1\AppData\Local\Temp\ch.elf.ULtIRf.ltrans0.ltrans.o
                                                  ./build/obj/ch_test.o (symbol from plugin)
                                                  ./build/obj/crt0_v7m.o
__data_end__                                      C:\Users\RAKIBU~1\AppData\Local\Temp\ch.elf.ULtIRf.ltrans0.ltrans.o
                                                  ./build/obj/ch_test.o (symbol from plugin)
                                                  ./build/obj/crt0_v7m.o
__default_exit                                    C:\Users\RAKIBU~1\AppData\Local\Temp\ch.elf.ULtIRf.ltrans1.ltrans.o
                                                  ./build/obj/crt1.o (symbol from plugin)
                                                  ./build/obj/crt0_v7m.o
__early_init                                      C:\Users\RAKIBU~1\AppData\Local\Temp\ch.elf.ULtIRf.ltrans1.ltrans.o
                                                  ./build/obj/board.o (symbol from plugin)
                                                  ./build/obj/crt1.o (symbol from plugin)
                                                  ./build/obj/crt0_v7m.o
__fini_array_base__                               ./build/obj/crt0_v7m.o
__fini_array_end__                                ./build/obj/crt0_v7m.o
__heap_base__                                     C:\Users\RAKIBU~1\AppData\Local\Temp\ch.elf.ULtIRf.ltrans0.ltrans.o
                                                  ./build/obj/chmemcore.o (symbol from plugin)
__heap_end__                                      C:\Users\RAKIBU~1\AppData\Local\Temp\ch.elf.ULtIRf.ltrans0.ltrans.o
                                                  ./build/obj/chmemcore.o (symbol from plugin)
__init_array_base__                               ./build/obj/crt0_v7m.o
__init_array_end__                                ./build/obj/crt0_v7m.o
__init_ram_areas                                  C:\Users\RAKIBU~1\AppData\Local\Temp\ch.elf.ULtIRf.ltrans1.ltrans.o
                                                  ./build/obj/crt1.o (symbol from plugin)
                                                  ./build/obj/crt0_v7m.o
__late_init                                       C:\Users\RAKIBU~1\AppData\Local\Temp\ch.elf.ULtIRf.ltrans1.ltrans.o
                                                  ./build/obj/crt1.o (symbol from plugin)
                                                  ./build/obj/crt0_v7m.o
__main_stack_base__                               ./build/obj/crt0_v7m.o
__main_stack_end__                                ./build/obj/vectors.o
                                                  ./build/obj/crt0_v7m.o
__process_stack_base__                            ./build/obj/crt0_v7m.o
__process_stack_end__                             ./build/obj/crt0_v7m.o
__ram0_clear__                                    C:\Users\RAKIBU~1\AppData\Local\Temp\ch.elf.ULtIRf.ltrans1.ltrans.o
                                                  ./build/obj/crt1.o (symbol from plugin)
__ram0_init__                                     C:\Users\RAKIBU~1\AppData\Local\Temp\ch.elf.ULtIRf.ltrans1.ltrans.o
                                                  ./build/obj/crt1.o (symbol from plugin)
__ram0_init_text__                                C:\Users\RAKIBU~1\AppData\Local\Temp\ch.elf.ULtIRf.ltrans1.ltrans.o
                                                  ./build/obj/crt1.o (symbol from plugin)
__ram0_noinit__                                   C:\Users\RAKIBU~1\AppData\Local\Temp\ch.elf.ULtIRf.ltrans1.ltrans.o
                                                  ./build/obj/crt1.o (symbol from plugin)
__ram1_clear__                                    C:\Users\RAKIBU~1\AppData\Local\Temp\ch.elf.ULtIRf.ltrans1.ltrans.o
                                                  ./build/obj/crt1.o (symbol from plugin)
__ram1_init__                                     C:\Users\RAKIBU~1\AppData\Local\Temp\ch.elf.ULtIRf.ltrans1.ltrans.o
                                                  ./build/obj/crt1.o (symbol from plugin)
__ram1_init_text__                                C:\Users\RAKIBU~1\AppData\Local\Temp\ch.elf.ULtIRf.ltrans1.ltrans.o
                                                  ./build/obj/crt1.o (symbol from plugin)
__ram1_noinit__                                   C:\Users\RAKIBU~1\AppData\Local\Temp\ch.elf.ULtIRf.ltrans1.ltrans.o
                                                  ./build/obj/crt1.o (symbol from plugin)
__ram2_clear__                                    C:\Users\RAKIBU~1\AppData\Local\Temp\ch.elf.ULtIRf.ltrans1.ltrans.o
                                                  ./build/obj/crt1.o (symbol from plugin)
__ram2_init__                                     C:\Users\RAKIBU~1\AppData\Local\Temp\ch.elf.ULtIRf.ltrans1.ltrans.o
                                                  ./build/obj/crt1.o (symbol from plugin)
__ram2_init_text__                                C:\Users\RAKIBU~1\AppData\Local\Temp\ch.elf.ULtIRf.ltrans1.ltrans.o
                                                  ./build/obj/crt1.o (symbol from plugin)
__ram2_noinit__                                   C:\Users\RAKIBU~1\AppData\Local\Temp\ch.elf.ULtIRf.ltrans1.ltrans.o
                                                  ./build/obj/crt1.o (symbol from plugin)
__ram3_clear__                                    C:\Users\RAKIBU~1\AppData\Local\Temp\ch.elf.ULtIRf.ltrans1.ltrans.o
                                                  ./build/obj/crt1.o (symbol from plugin)
__ram3_init__                                     C:\Users\RAKIBU~1\AppData\Local\Temp\ch.elf.ULtIRf.ltrans1.ltrans.o
                                                  ./build/obj/crt1.o (symbol from plugin)
__ram3_init_text__                                C:\Users\RAKIBU~1\AppData\Local\Temp\ch.elf.ULtIRf.ltrans1.ltrans.o
                                                  ./build/obj/crt1.o (symbol from plugin)
__ram3_noinit__                                   C:\Users\RAKIBU~1\AppData\Local\Temp\ch.elf.ULtIRf.ltrans1.ltrans.o
                                                  ./build/obj/crt1.o (symbol from plugin)
__ram4_clear__                                    C:\Users\RAKIBU~1\AppData\Local\Temp\ch.elf.ULtIRf.ltrans1.ltrans.o
                                                  ./build/obj/crt1.o (symbol from plugin)
__ram4_init__                                     C:\Users\RAKIBU~1\AppData\Local\Temp\ch.elf.ULtIRf.ltrans1.ltrans.o
                                                  ./build/obj/crt1.o (symbol from plugin)
__ram4_init_text__                                C:\Users\RAKIBU~1\AppData\Local\Temp\ch.elf.ULtIRf.ltrans1.ltrans.o
                                                  ./build/obj/crt1.o (symbol from plugin)
__ram4_noinit__                                   C:\Users\RAKIBU~1\AppData\Local\Temp\ch.elf.ULtIRf.ltrans1.ltrans.o
                                                  ./build/obj/crt1.o (symbol from plugin)
__ram5_clear__                                    C:\Users\RAKIBU~1\AppData\Local\Temp\ch.elf.ULtIRf.ltrans1.ltrans.o
                                                  ./build/obj/crt1.o (symbol from plugin)
__ram5_init__                                     C:\Users\RAKIBU~1\AppData\Local\Temp\ch.elf.ULtIRf.ltrans1.ltrans.o
                                                  ./build/obj/crt1.o (symbol from plugin)
__ram5_init_text__                                C:\Users\RAKIBU~1\AppData\Local\Temp\ch.elf.ULtIRf.ltrans1.ltrans.o
                                                  ./build/obj/crt1.o (symbol from plugin)
__ram5_noinit__                                   C:\Users\RAKIBU~1\AppData\Local\Temp\ch.elf.ULtIRf.ltrans1.ltrans.o
                                                  ./build/obj/crt1.o (symbol from plugin)
__ram6_clear__                                    C:\Users\RAKIBU~1\AppData\Local\Temp\ch.elf.ULtIRf.ltrans1.ltrans.o
                                                  ./build/obj/crt1.o (symbol from plugin)
__ram6_init__                                     C:\Users\RAKIBU~1\AppData\Local\Temp\ch.elf.ULtIRf.ltrans1.ltrans.o
                                                  ./build/obj/crt1.o (symbol from plugin)
__ram6_init_text__                                C:\Users\RAKIBU~1\AppData\Local\Temp\ch.elf.ULtIRf.ltrans1.ltrans.o
                                                  ./build/obj/crt1.o (symbol from plugin)
__ram6_noinit__                                   C:\Users\RAKIBU~1\AppData\Local\Temp\ch.elf.ULtIRf.ltrans1.ltrans.o
                                                  ./build/obj/crt1.o (symbol from plugin)
__ram7_clear__                                    C:\Users\RAKIBU~1\AppData\Local\Temp\ch.elf.ULtIRf.ltrans1.ltrans.o
                                                  ./build/obj/crt1.o (symbol from plugin)
__ram7_init__                                     C:\Users\RAKIBU~1\AppData\Local\Temp\ch.elf.ULtIRf.ltrans1.ltrans.o
                                                  ./build/obj/crt1.o (symbol from plugin)
__ram7_init_text__                                C:\Users\RAKIBU~1\AppData\Local\Temp\ch.elf.ULtIRf.ltrans1.ltrans.o
                                                  ./build/obj/crt1.o (symbol from plugin)
__ram7_noinit__                                   C:\Users\RAKIBU~1\AppData\Local\Temp\ch.elf.ULtIRf.ltrans1.ltrans.o
                                                  ./build/obj/crt1.o (symbol from plugin)
__rodata_base__                                   C:\Users\RAKIBU~1\AppData\Local\Temp\ch.elf.ULtIRf.ltrans0.ltrans.o
                                                  ./build/obj/ch_test.o (symbol from plugin)
__rodata_end__                                    C:\Users\RAKIBU~1\AppData\Local\Temp\ch.elf.ULtIRf.ltrans0.ltrans.o
                                                  ./build/obj/ch_test.o (symbol from plugin)
__text_base__                                     C:\Users\RAKIBU~1\AppData\Local\Temp\ch.elf.ULtIRf.ltrans0.ltrans.o
                                                  ./build/obj/ch_test.o (symbol from plugin)
__text_end__                                      C:\Users\RAKIBU~1\AppData\Local\Temp\ch.elf.ULtIRf.ltrans0.ltrans.o
                                                  ./build/obj/ch_test.o (symbol from plugin)
__textdata_base__                                 ./build/obj/crt0_v7m.o
_core_init                                        ./build/obj/chmemcore.o (symbol from plugin)
                                                  ./build/obj/chsys.o (symbol from plugin)
_crt0_entry                                       ./build/obj/crt0_v7m.o
                                                  ./build/obj/vectors.o
_ctl.lto_priv.0                                   C:\Users\RAKIBU~1\AppData\Local\Temp\ch.elf.ULtIRf.ltrans1.ltrans.o
                                                  C:\Users\RAKIBU~1\AppData\Local\Temp\ch.elf.ULtIRf.ltrans0.ltrans.o
_factory_init                                     ./build/obj/chfactory.o (symbol from plugin)
                                                  ./build/obj/chsys.o (symbol from plugin)
_get.lto_priv.0                                   C:\Users\RAKIBU~1\AppData\Local\Temp\ch.elf.ULtIRf.ltrans1.ltrans.o
                                                  C:\Users\RAKIBU~1\AppData\Local\Temp\ch.elf.ULtIRf.ltrans0.ltrans.o
_gett.lto_priv.0                                  C:\Users\RAKIBU~1\AppData\Local\Temp\ch.elf.ULtIRf.ltrans1.ltrans.o
                                                  C:\Users\RAKIBU~1\AppData\Local\Temp\ch.elf.ULtIRf.ltrans0.ltrans.o
_heap_init                                        ./build/obj/chmemheaps.o (symbol from plugin)
                                                  ./build/obj/chsys.o (symbol from plugin)
_idle_thread.lto_priv.0                           C:\Users\RAKIBU~1\AppData\Local\Temp\ch.elf.ULtIRf.ltrans1.ltrans.o
                                                  C:\Users\RAKIBU~1\AppData\Local\Temp\ch.elf.ULtIRf.ltrans0.ltrans.o
_mmcsd_get_capacity                               ./build/obj/hal_mmcsd.o (symbol from plugin)
                                                  ./build/obj/hal_mmc_spi.o (symbol from plugin)
_mmcsd_get_capacity_ext                           ./build/obj/hal_mmcsd.o (symbol from plugin)
_mmcsd_get_slice                                  ./build/obj/hal_mmcsd.o (symbol from plugin)
_mmcsd_unpack_csd_mmc                             ./build/obj/hal_mmcsd.o (symbol from plugin)
_mmcsd_unpack_csd_v10                             ./build/obj/hal_mmcsd.o (symbol from plugin)
_mmcsd_unpack_csd_v20                             ./build/obj/hal_mmcsd.o (symbol from plugin)
_mmcsd_unpack_mmc_cid                             ./build/obj/hal_mmcsd.o (symbol from plugin)
_mmcsd_unpack_sdc_cid                             ./build/obj/hal_mmcsd.o (symbol from plugin)
_pal_lld_init                                     ./build/obj/hal_pal_lld.o (symbol from plugin)
                                                  ./build/obj/hal.o (symbol from plugin)
_pal_lld_setgroupmode                             ./build/obj/hal_pal_lld.o (symbol from plugin)
                                                  ./build/obj/main.o (symbol from plugin)
                                                  ./build/obj/hal_pal.o (symbol from plugin)
_port_exit_from_isr                               ./build/obj/chcoreasm_v7m.o
                                                  C:\Users\RAKIBU~1\AppData\Local\Temp\ch.elf.ULtIRf.ltrans1.ltrans.o
                                                  ./build/obj/chcore_v7m.o (symbol from plugin)
_port_irq_epilogue                                ./build/obj/chcore_v7m.o (symbol from plugin)
                                                  ./build/obj/hal_serial_lld.o (symbol from plugin)
                                                  ./build/obj/hal_st_lld.o (symbol from plugin)
                                                  ./build/obj/stm32_dma.o (symbol from plugin)
_port_switch                                      ./build/obj/chcoreasm_v7m.o
                                                  C:\Users\RAKIBU~1\AppData\Local\Temp\ch.elf.ULtIRf.ltrans1.ltrans.o
                                                  ./build/obj/chschd.o (symbol from plugin)
_port_switch_from_isr                             ./build/obj/chcoreasm_v7m.o
                                                  C:\Users\RAKIBU~1\AppData\Local\Temp\ch.elf.ULtIRf.ltrans1.ltrans.o
                                                  ./build/obj/chcore_v7m.o (symbol from plugin)
_port_thread_start                                ./build/obj/chcoreasm_v7m.o
                                                  C:\Users\RAKIBU~1\AppData\Local\Temp\ch.elf.ULtIRf.ltrans1.ltrans.o
                                                  C:\Users\RAKIBU~1\AppData\Local\Temp\ch.elf.ULtIRf.ltrans0.ltrans.o
                                                  ./build/obj/chthreads.o (symbol from plugin)
_put.lto_priv.0                                   C:\Users\RAKIBU~1\AppData\Local\Temp\ch.elf.ULtIRf.ltrans1.ltrans.o
                                                  C:\Users\RAKIBU~1\AppData\Local\Temp\ch.elf.ULtIRf.ltrans0.ltrans.o
_putt.lto_priv.0                                  C:\Users\RAKIBU~1\AppData\Local\Temp\ch.elf.ULtIRf.ltrans1.ltrans.o
                                                  C:\Users\RAKIBU~1\AppData\Local\Temp\ch.elf.ULtIRf.ltrans0.ltrans.o
_read.lto_priv.0                                  C:\Users\RAKIBU~1\AppData\Local\Temp\ch.elf.ULtIRf.ltrans1.ltrans.o
                                                  C:\Users\RAKIBU~1\AppData\Local\Temp\ch.elf.ULtIRf.ltrans0.ltrans.o
_readt.lto_priv.0                                 C:\Users\RAKIBU~1\AppData\Local\Temp\ch.elf.ULtIRf.ltrans1.ltrans.o
                                                  C:\Users\RAKIBU~1\AppData\Local\Temp\ch.elf.ULtIRf.ltrans0.ltrans.o
_scheduler_init                                   ./build/obj/chschd.o (symbol from plugin)
                                                  ./build/obj/chsys.o (symbol from plugin)
_stm32_dma_streams                                C:\Users\RAKIBU~1\AppData\Local\Temp\ch.elf.ULtIRf.ltrans0.ltrans.o
                                                  ./build/obj/stm32_dma.o (symbol from plugin)
                                                  C:\Users\RAKIBU~1\AppData\Local\Temp\ch.elf.ULtIRf.ltrans1.ltrans.o
_test_assert                                      ./build/obj/ch_test.o (symbol from plugin)
                                                  ./build/obj/oslib_test_sequence_009.o (symbol from plugin)
                                                  ./build/obj/oslib_test_sequence_008.o (symbol from plugin)
                                                  ./build/obj/oslib_test_sequence_007.o (symbol from plugin)
                                                  ./build/obj/oslib_test_sequence_006.o (symbol from plugin)
                                                  ./build/obj/oslib_test_sequence_005.o (symbol from plugin)
                                                  ./build/obj/oslib_test_sequence_003.o (symbol from plugin)
                                                  ./build/obj/oslib_test_sequence_002.o (symbol from plugin)
                                                  ./build/obj/rt_test_sequence_010.o (symbol from plugin)
                                                  ./build/obj/rt_test_sequence_009.o (symbol from plugin)
                                                  ./build/obj/rt_test_sequence_007.o (symbol from plugin)
                                                  ./build/obj/rt_test_sequence_006.o (symbol from plugin)
                                                  ./build/obj/rt_test_sequence_005.o (symbol from plugin)
                                                  ./build/obj/rt_test_sequence_004.o (symbol from plugin)
                                                  ./build/obj/rt_test_sequence_003.o (symbol from plugin)
                                                  ./build/obj/rt_test_sequence_002.o (symbol from plugin)
_test_assert_sequence                             ./build/obj/ch_test.o (symbol from plugin)
                                                  ./build/obj/oslib_test_sequence_006.o (symbol from plugin)
                                                  ./build/obj/oslib_test_sequence_005.o (symbol from plugin)
                                                  ./build/obj/oslib_test_sequence_004.o (symbol from plugin)
                                                  ./build/obj/oslib_test_sequence_002.o (symbol from plugin)
                                                  ./build/obj/rt_test_sequence_010.o (symbol from plugin)
                                                  ./build/obj/rt_test_sequence_009.o (symbol from plugin)
                                                  ./build/obj/rt_test_sequence_008.o (symbol from plugin)
                                                  ./build/obj/rt_test_sequence_007.o (symbol from plugin)
                                                  ./build/obj/rt_test_sequence_006.o (symbol from plugin)
                                                  ./build/obj/rt_test_sequence_004.o (symbol from plugin)
_test_assert_time_window                          ./build/obj/ch_test.o (symbol from plugin)
                                                  ./build/obj/rt_test_sequence_009.o (symbol from plugin)
                                                  ./build/obj/rt_test_sequence_006.o (symbol from plugin)
                                                  ./build/obj/rt_test_sequence_005.o (symbol from plugin)
                                                  ./build/obj/rt_test_sequence_004.o (symbol from plugin)
_test_fail                                        ./build/obj/ch_test.o (symbol from plugin)
_thread_init                                      ./build/obj/chthreads.o (symbol from plugin)
                                                  ./build/obj/chsys.o (symbol from plugin)
_tm_init                                          ./build/obj/chtm.o (symbol from plugin)
                                                  ./build/obj/chsys.o (symbol from plugin)
_unhandled_exception                              ./build/obj/vectors.o
_vectors                                          ./build/obj/vectors.o
                                                  ./build/obj/crt0_v7m.o
_vt_init                                          ./build/obj/chvt.o (symbol from plugin)
                                                  ./build/obj/chsys.o (symbol from plugin)
_write.lto_priv.0                                 C:\Users\RAKIBU~1\AppData\Local\Temp\ch.elf.ULtIRf.ltrans1.ltrans.o
                                                  C:\Users\RAKIBU~1\AppData\Local\Temp\ch.elf.ULtIRf.ltrans0.ltrans.o
_writet.lto_priv.0                                C:\Users\RAKIBU~1\AppData\Local\Temp\ch.elf.ULtIRf.ltrans1.ltrans.o
                                                  C:\Users\RAKIBU~1\AppData\Local\Temp\ch.elf.ULtIRf.ltrans0.ltrans.o
board.c.b416bc25                                  C:\Users\RAKIBU~1\AppData\Local\Temp\ccFDYt3r.debug.temp.o
                                                  C:\Users\RAKIBU~1\AppData\Local\Temp\ch.elf.ULtIRf.ltrans1.ltrans.o
                                                  C:\Users\RAKIBU~1\AppData\Local\Temp\ch.elf.ULtIRf.ltrans0.ltrans.o
boardInit                                         ./build/obj/board.o (symbol from plugin)
                                                  ./build/obj/hal.o (symbol from plugin)
ch                                                C:\Users\RAKIBU~1\AppData\Local\Temp\ch.elf.ULtIRf.ltrans0.ltrans.o
                                                  ./build/obj/chschd.o (symbol from plugin)
                                                  C:\Users\RAKIBU~1\AppData\Local\Temp\ch.elf.ULtIRf.ltrans1.ltrans.o
                                                  ./build/obj/main.o (symbol from plugin)
                                                  ./build/obj/oslib_test_sequence_005.o (symbol from plugin)
                                                  ./build/obj/oslib_test_sequence_004.o (symbol from plugin)
                                                  ./build/obj/rt_test_sequence_011.o (symbol from plugin)
                                                  ./build/obj/rt_test_sequence_010.o (symbol from plugin)
                                                  ./build/obj/rt_test_sequence_009.o (symbol from plugin)
                                                  ./build/obj/rt_test_sequence_008.o (symbol from plugin)
                                                  ./build/obj/rt_test_sequence_007.o (symbol from plugin)
                                                  ./build/obj/rt_test_sequence_006.o (symbol from plugin)
                                                  ./build/obj/rt_test_sequence_005.o (symbol from plugin)
                                                  ./build/obj/rt_test_sequence_004.o (symbol from plugin)
                                                  ./build/obj/shell_cmd.o (symbol from plugin)
                                                  ./build/obj/shell.o (symbol from plugin)
                                                  ./build/obj/chmsg.o (symbol from plugin)
                                                  ./build/obj/chevents.o (symbol from plugin)
                                                  ./build/obj/chcond.o (symbol from plugin)
                                                  ./build/obj/chmtx.o (symbol from plugin)
                                                  ./build/obj/chsem.o (symbol from plugin)
                                                  ./build/obj/chregistry.o (symbol from plugin)
                                                  ./build/obj/chtm.o (symbol from plugin)
                                                  ./build/obj/chthreads.o (symbol from plugin)
                                                  ./build/obj/chvt.o (symbol from plugin)
                                                  ./build/obj/chsys.o (symbol from plugin)
chCacheGetObject                                  ./build/obj/chobjcaches.o (symbol from plugin)
                                                  ./build/obj/oslib_test_sequence_006.o (symbol from plugin)
chCacheObjectInit                                 ./build/obj/chobjcaches.o (symbol from plugin)
                                                  ./build/obj/oslib_test_sequence_006.o (symbol from plugin)
chCacheReadObject                                 ./build/obj/chobjcaches.o (symbol from plugin)
                                                  ./build/obj/oslib_test_sequence_006.o (symbol from plugin)
chCacheReleaseObjectI                             C:\Users\RAKIBU~1\AppData\Local\Temp\ch.elf.ULtIRf.ltrans1.ltrans.o
                                                  ./build/obj/chobjcaches.o (symbol from plugin)
                                                  C:\Users\RAKIBU~1\AppData\Local\Temp\ch.elf.ULtIRf.ltrans0.ltrans.o
                                                  ./build/obj/oslib_test_sequence_006.o (symbol from plugin)
chCacheWriteObject                                ./build/obj/chobjcaches.o (symbol from plugin)
chCondBroadcast                                   ./build/obj/chcond.o (symbol from plugin)
                                                  ./build/obj/rt_test_sequence_007.o (symbol from plugin)
chCondBroadcastI                                  ./build/obj/chcond.o (symbol from plugin)
chCondObjectInit                                  ./build/obj/chcond.o (symbol from plugin)
                                                  ./build/obj/rt_test_sequence_007.o (symbol from plugin)
chCondSignal                                      ./build/obj/chcond.o (symbol from plugin)
                                                  ./build/obj/rt_test_sequence_007.o (symbol from plugin)
chCondSignalI                                     ./build/obj/chcond.o (symbol from plugin)
                                                  ./build/obj/rt_test_sequence_007.o (symbol from plugin)
chCondWait                                        ./build/obj/chcond.o (symbol from plugin)
                                                  ./build/obj/rt_test_sequence_007.o (symbol from plugin)
chCondWaitS                                       ./build/obj/chcond.o (symbol from plugin)
chCondWaitTimeout                                 ./build/obj/chcond.o (symbol from plugin)
                                                  ./build/obj/rt_test_sequence_007.o (symbol from plugin)
chCondWaitTimeoutS                                ./build/obj/chcond.o (symbol from plugin)
chCoreAllocAlignedI.lto_priv.0                    C:\Users\RAKIBU~1\AppData\Local\Temp\ch.elf.ULtIRf.ltrans1.ltrans.o
                                                  C:\Users\RAKIBU~1\AppData\Local\Temp\ch.elf.ULtIRf.ltrans0.ltrans.o
chCoreAllocFromBase                               ./build/obj/chmemcore.o (symbol from plugin)
chCoreAllocFromBaseI                              ./build/obj/chmemcore.o (symbol from plugin)
chCoreAllocFromTop                                C:\Users\RAKIBU~1\AppData\Local\Temp\ch.elf.ULtIRf.ltrans1.ltrans.o
                                                  ./build/obj/chmemcore.o (symbol from plugin)
                                                  C:\Users\RAKIBU~1\AppData\Local\Temp\ch.elf.ULtIRf.ltrans0.ltrans.o
                                                  ./build/obj/chmemheaps.o (symbol from plugin)
chCoreAllocFromTopI                               ./build/obj/chmemcore.o (symbol from plugin)
                                                  ./build/obj/chfactory.o (symbol from plugin)
chCoreGetStatusX                                  ./build/obj/chmemcore.o (symbol from plugin)
                                                  ./build/obj/shell_cmd.o (symbol from plugin)
chDelegateCallVeneer                              C:\Users\RAKIBU~1\AppData\Local\Temp\ch.elf.ULtIRf.ltrans1.ltrans.o
                                                  ./build/obj/chdelegates.o (symbol from plugin)
                                                  C:\Users\RAKIBU~1\AppData\Local\Temp\ch.elf.ULtIRf.ltrans0.ltrans.o
                                                  ./build/obj/oslib_test_sequence_005.o (symbol from plugin)
chDelegateDispatch                                ./build/obj/chdelegates.o (symbol from plugin)
                                                  ./build/obj/oslib_test_sequence_005.o (symbol from plugin)
chDelegateDispatchTimeout                         ./build/obj/chdelegates.o (symbol from plugin)
chEvtAddEvents                                    C:\Users\RAKIBU~1\AppData\Local\Temp\ch.elf.ULtIRf.ltrans1.ltrans.o
                                                  ./build/obj/chevents.o (symbol from plugin)
                                                  C:\Users\RAKIBU~1\AppData\Local\Temp\ch.elf.ULtIRf.ltrans0.ltrans.o
                                                  ./build/obj/rt_test_sequence_009.o (symbol from plugin)
chEvtBroadcastFlags                               ./build/obj/chevents.o (symbol from plugin)
                                                  ./build/obj/rt_test_sequence_009.o (symbol from plugin)
chEvtBroadcastFlagsI                              C:\Users\RAKIBU~1\AppData\Local\Temp\ch.elf.ULtIRf.ltrans1.ltrans.o
                                                  ./build/obj/chevents.o (symbol from plugin)
                                                  C:\Users\RAKIBU~1\AppData\Local\Temp\ch.elf.ULtIRf.ltrans0.ltrans.o
                                                  ./build/obj/main.o (symbol from plugin)
                                                  ./build/obj/shell.o (symbol from plugin)
                                                  ./build/obj/hal_serial_lld.o (symbol from plugin)
                                                  ./build/obj/hal_serial.o (symbol from plugin)
chEvtDispatch                                     C:\Users\RAKIBU~1\AppData\Local\Temp\ch.elf.ULtIRf.ltrans1.ltrans.o
                                                  ./build/obj/chevents.o (symbol from plugin)
                                                  C:\Users\RAKIBU~1\AppData\Local\Temp\ch.elf.ULtIRf.ltrans0.ltrans.o
                                                  ./build/obj/main.o (symbol from plugin)
                                                  ./build/obj/rt_test_sequence_009.o (symbol from plugin)
chEvtGetAndClearEvents                            ./build/obj/chevents.o (symbol from plugin)
                                                  ./build/obj/rt_test_sequence_009.o (symbol from plugin)
chEvtGetAndClearEventsI                           ./build/obj/chevents.o (symbol from plugin)
chEvtGetAndClearFlags                             ./build/obj/chevents.o (symbol from plugin)
chEvtGetAndClearFlagsI                            ./build/obj/chevents.o (symbol from plugin)
chEvtRegisterMaskWithFlags                        ./build/obj/chevents.o (symbol from plugin)
                                                  ./build/obj/main.o (symbol from plugin)
                                                  ./build/obj/rt_test_sequence_009.o (symbol from plugin)
chEvtSignal                                       ./build/obj/chevents.o (symbol from plugin)
                                                  ./build/obj/rt_test_sequence_009.o (symbol from plugin)
chEvtSignalI                                      C:\Users\RAKIBU~1\AppData\Local\Temp\ch.elf.ULtIRf.ltrans1.ltrans.o
                                                  ./build/obj/chevents.o (symbol from plugin)
                                                  C:\Users\RAKIBU~1\AppData\Local\Temp\ch.elf.ULtIRf.ltrans0.ltrans.o
chEvtUnregister                                   C:\Users\RAKIBU~1\AppData\Local\Temp\ch.elf.ULtIRf.ltrans1.ltrans.o
                                                  ./build/obj/chevents.o (symbol from plugin)
                                                  C:\Users\RAKIBU~1\AppData\Local\Temp\ch.elf.ULtIRf.ltrans0.ltrans.o
                                                  ./build/obj/rt_test_sequence_009.o (symbol from plugin)
chEvtWaitAll                                      ./build/obj/chevents.o (symbol from plugin)
                                                  ./build/obj/rt_test_sequence_009.o (symbol from plugin)
chEvtWaitAllTimeout                               ./build/obj/chevents.o (symbol from plugin)
                                                  ./build/obj/rt_test_sequence_009.o (symbol from plugin)
chEvtWaitAny                                      ./build/obj/chevents.o (symbol from plugin)
                                                  ./build/obj/rt_test_sequence_009.o (symbol from plugin)
chEvtWaitAnyTimeout                               ./build/obj/chevents.o (symbol from plugin)
                                                  ./build/obj/rt_test_sequence_009.o (symbol from plugin)
chEvtWaitOne                                      ./build/obj/chevents.o (symbol from plugin)
                                                  ./build/obj/rt_test_sequence_009.o (symbol from plugin)
chEvtWaitOneTimeout                               ./build/obj/chevents.o (symbol from plugin)
                                                  ./build/obj/main.o (symbol from plugin)
                                                  ./build/obj/rt_test_sequence_009.o (symbol from plugin)
chFactoryCreateBuffer                             ./build/obj/chfactory.o (symbol from plugin)
                                                  ./build/obj/oslib_test_sequence_009.o (symbol from plugin)
chFactoryCreateMailbox                            ./build/obj/chfactory.o (symbol from plugin)
                                                  ./build/obj/oslib_test_sequence_009.o (symbol from plugin)
chFactoryCreateObjectsFIFO                        ./build/obj/chfactory.o (symbol from plugin)
                                                  ./build/obj/oslib_test_sequence_009.o (symbol from plugin)
chFactoryCreatePipe                               ./build/obj/chfactory.o (symbol from plugin)
                                                  ./build/obj/oslib_test_sequence_009.o (symbol from plugin)
chFactoryCreateSemaphore                          ./build/obj/chfactory.o (symbol from plugin)
                                                  ./build/obj/oslib_test_sequence_009.o (symbol from plugin)
chFactoryFindBuffer                               ./build/obj/chfactory.o (symbol from plugin)
                                                  ./build/obj/oslib_test_sequence_009.o (symbol from plugin)
chFactoryFindMailbox                              ./build/obj/chfactory.o (symbol from plugin)
                                                  ./build/obj/oslib_test_sequence_009.o (symbol from plugin)
chFactoryFindObject                               ./build/obj/chfactory.o (symbol from plugin)
                                                  ./build/obj/oslib_test_sequence_009.o (symbol from plugin)
chFactoryFindObjectByPointer                      ./build/obj/chfactory.o (symbol from plugin)
chFactoryFindObjectsFIFO                          ./build/obj/chfactory.o (symbol from plugin)
                                                  ./build/obj/oslib_test_sequence_009.o (symbol from plugin)
chFactoryFindPipe                                 ./build/obj/chfactory.o (symbol from plugin)
                                                  ./build/obj/oslib_test_sequence_009.o (symbol from plugin)
chFactoryFindSemaphore                            ./build/obj/chfactory.o (symbol from plugin)
                                                  ./build/obj/oslib_test_sequence_009.o (symbol from plugin)
chFactoryRegisterObject                           ./build/obj/chfactory.o (symbol from plugin)
                                                  ./build/obj/oslib_test_sequence_009.o (symbol from plugin)
chFactoryReleaseBuffer                            C:\Users\RAKIBU~1\AppData\Local\Temp\ch.elf.ULtIRf.ltrans1.ltrans.o
                                                  ./build/obj/chfactory.o (symbol from plugin)
                                                  C:\Users\RAKIBU~1\AppData\Local\Temp\ch.elf.ULtIRf.ltrans0.ltrans.o
                                                  ./build/obj/oslib_test_sequence_009.o (symbol from plugin)
chFactoryReleaseMailbox                           C:\Users\RAKIBU~1\AppData\Local\Temp\ch.elf.ULtIRf.ltrans1.ltrans.o
                                                  ./build/obj/chfactory.o (symbol from plugin)
                                                  C:\Users\RAKIBU~1\AppData\Local\Temp\ch.elf.ULtIRf.ltrans0.ltrans.o
                                                  ./build/obj/oslib_test_sequence_009.o (symbol from plugin)
chFactoryReleaseObject                            C:\Users\RAKIBU~1\AppData\Local\Temp\ch.elf.ULtIRf.ltrans1.ltrans.o
                                                  ./build/obj/chfactory.o (symbol from plugin)
                                                  C:\Users\RAKIBU~1\AppData\Local\Temp\ch.elf.ULtIRf.ltrans0.ltrans.o
                                                  ./build/obj/oslib_test_sequence_009.o (symbol from plugin)
chFactoryReleaseObjectsFIFO                       C:\Users\RAKIBU~1\AppData\Local\Temp\ch.elf.ULtIRf.ltrans1.ltrans.o
                                                  ./build/obj/chfactory.o (symbol from plugin)
                                                  C:\Users\RAKIBU~1\AppData\Local\Temp\ch.elf.ULtIRf.ltrans0.ltrans.o
                                                  ./build/obj/oslib_test_sequence_009.o (symbol from plugin)
chFactoryReleasePipe                              C:\Users\RAKIBU~1\AppData\Local\Temp\ch.elf.ULtIRf.ltrans1.ltrans.o
                                                  ./build/obj/chfactory.o (symbol from plugin)
                                                  C:\Users\RAKIBU~1\AppData\Local\Temp\ch.elf.ULtIRf.ltrans0.ltrans.o
                                                  ./build/obj/oslib_test_sequence_009.o (symbol from plugin)
chFactoryReleaseSemaphore                         C:\Users\RAKIBU~1\AppData\Local\Temp\ch.elf.ULtIRf.ltrans1.ltrans.o
                                                  ./build/obj/chfactory.o (symbol from plugin)
                                                  C:\Users\RAKIBU~1\AppData\Local\Temp\ch.elf.ULtIRf.ltrans0.ltrans.o
                                                  ./build/obj/oslib_test_sequence_009.o (symbol from plugin)
chGuardedPoolAllocTimeout                         C:\Users\RAKIBU~1\AppData\Local\Temp\ch.elf.ULtIRf.ltrans1.ltrans.o
                                                  ./build/obj/chmempools.o (symbol from plugin)
                                                  C:\Users\RAKIBU~1\AppData\Local\Temp\ch.elf.ULtIRf.ltrans0.ltrans.o
                                                  ./build/obj/oslib_test_sequence_007.o (symbol from plugin)
                                                  ./build/obj/oslib_test_sequence_004.o (symbol from plugin)
chGuardedPoolAllocTimeoutS                        ./build/obj/chmempools.o (symbol from plugin)
chGuardedPoolFree                                 ./build/obj/chmempools.o (symbol from plugin)
                                                  ./build/obj/oslib_test_sequence_007.o (symbol from plugin)
                                                  ./build/obj/oslib_test_sequence_004.o (symbol from plugin)
chGuardedPoolLoadArray                            C:\Users\RAKIBU~1\AppData\Local\Temp\ch.elf.ULtIRf.ltrans1.ltrans.o
                                                  ./build/obj/chmempools.o (symbol from plugin)
                                                  C:\Users\RAKIBU~1\AppData\Local\Temp\ch.elf.ULtIRf.ltrans0.ltrans.o
                                                  ./build/obj/oslib_test_sequence_007.o (symbol from plugin)
                                                  ./build/obj/oslib_test_sequence_004.o (symbol from plugin)
                                                  ./build/obj/chfactory.o (symbol from plugin)
chGuardedPoolObjectInitAligned                    ./build/obj/chmempools.o (symbol from plugin)
                                                  ./build/obj/oslib_test_sequence_007.o (symbol from plugin)
                                                  ./build/obj/oslib_test_sequence_004.o (symbol from plugin)
                                                  ./build/obj/chfactory.o (symbol from plugin)
chHeapAllocAligned                                ./build/obj/chmemheaps.o (symbol from plugin)
                                                  ./build/obj/oslib_test_sequence_008.o (symbol from plugin)
                                                  ./build/obj/fatfs_syscall.o (symbol from plugin)
                                                  ./build/obj/chfactory.o (symbol from plugin)
                                                  ./build/obj/chdynamic.o (symbol from plugin)
chHeapAllocAligned.constprop.0                    C:\Users\RAKIBU~1\AppData\Local\Temp\ch.elf.ULtIRf.ltrans0.ltrans.o
                                                  C:\Users\RAKIBU~1\AppData\Local\Temp\ch.elf.ULtIRf.ltrans1.ltrans.o
chHeapFree                                        C:\Users\RAKIBU~1\AppData\Local\Temp\ch.elf.ULtIRf.ltrans1.ltrans.o
                                                  ./build/obj/chmemheaps.o (symbol from plugin)
                                                  C:\Users\RAKIBU~1\AppData\Local\Temp\ch.elf.ULtIRf.ltrans0.ltrans.o
                                                  ./build/obj/oslib_test_sequence_008.o (symbol from plugin)
                                                  ./build/obj/fatfs_syscall.o (symbol from plugin)
                                                  ./build/obj/chfactory.o (symbol from plugin)
                                                  ./build/obj/chthreads.o (symbol from plugin)
chHeapObjectInit                                  ./build/obj/chmemheaps.o (symbol from plugin)
                                                  ./build/obj/oslib_test_sequence_008.o (symbol from plugin)
                                                  ./build/obj/rt_test_sequence_010.o (symbol from plugin)
chHeapStatus                                      C:\Users\RAKIBU~1\AppData\Local\Temp\ch.elf.ULtIRf.ltrans1.ltrans.o
                                                  ./build/obj/chmemheaps.o (symbol from plugin)
                                                  C:\Users\RAKIBU~1\AppData\Local\Temp\ch.elf.ULtIRf.ltrans0.ltrans.o
                                                  ./build/obj/oslib_test_sequence_008.o (symbol from plugin)
                                                  ./build/obj/rt_test_sequence_010.o (symbol from plugin)
                                                  ./build/obj/shell_cmd.o (symbol from plugin)
chMBFetchI                                        ./build/obj/chmboxes.o (symbol from plugin)
                                                  ./build/obj/oslib_test_sequence_002.o (symbol from plugin)
chMBFetchTimeout                                  C:\Users\RAKIBU~1\AppData\Local\Temp\ch.elf.ULtIRf.ltrans1.ltrans.o
                                                  ./build/obj/chmboxes.o (symbol from plugin)
                                                  C:\Users\RAKIBU~1\AppData\Local\Temp\ch.elf.ULtIRf.ltrans0.ltrans.o
                                                  ./build/obj/oslib_test_sequence_004.o (symbol from plugin)
                                                  ./build/obj/oslib_test_sequence_002.o (symbol from plugin)
chMBFetchTimeoutS                                 ./build/obj/chmboxes.o (symbol from plugin)
chMBObjectInit                                    ./build/obj/chmboxes.o (symbol from plugin)
                                                  ./build/obj/oslib_test_sequence_004.o (symbol from plugin)
                                                  ./build/obj/oslib_test_sequence_002.o (symbol from plugin)
                                                  ./build/obj/chfactory.o (symbol from plugin)
chMBPostAheadI                                    ./build/obj/chmboxes.o (symbol from plugin)
                                                  ./build/obj/oslib_test_sequence_002.o (symbol from plugin)
chMBPostAheadTimeout                              ./build/obj/chmboxes.o (symbol from plugin)
                                                  ./build/obj/oslib_test_sequence_002.o (symbol from plugin)
chMBPostAheadTimeoutS                             ./build/obj/chmboxes.o (symbol from plugin)
chMBPostI                                         ./build/obj/chmboxes.o (symbol from plugin)
                                                  ./build/obj/oslib_test_sequence_002.o (symbol from plugin)
chMBPostTimeout                                   C:\Users\RAKIBU~1\AppData\Local\Temp\ch.elf.ULtIRf.ltrans1.ltrans.o
                                                  ./build/obj/chmboxes.o (symbol from plugin)
                                                  C:\Users\RAKIBU~1\AppData\Local\Temp\ch.elf.ULtIRf.ltrans0.ltrans.o
                                                  ./build/obj/oslib_test_sequence_004.o (symbol from plugin)
                                                  ./build/obj/oslib_test_sequence_002.o (symbol from plugin)
chMBPostTimeoutS                                  ./build/obj/chmboxes.o (symbol from plugin)
chMBReset                                         ./build/obj/chmboxes.o (symbol from plugin)
                                                  ./build/obj/oslib_test_sequence_002.o (symbol from plugin)
chMBResetI                                        ./build/obj/chmboxes.o (symbol from plugin)
                                                  ./build/obj/oslib_test_sequence_002.o (symbol from plugin)
chMsgPollS                                        ./build/obj/chmsg.o (symbol from plugin)
chMsgRelease                                      ./build/obj/chmsg.o (symbol from plugin)
                                                  ./build/obj/rt_test_sequence_011.o (symbol from plugin)
                                                  ./build/obj/rt_test_sequence_008.o (symbol from plugin)
                                                  ./build/obj/chdelegates.o (symbol from plugin)
chMsgSend                                         C:\Users\RAKIBU~1\AppData\Local\Temp\ch.elf.ULtIRf.ltrans1.ltrans.o
                                                  ./build/obj/chmsg.o (symbol from plugin)
                                                  C:\Users\RAKIBU~1\AppData\Local\Temp\ch.elf.ULtIRf.ltrans0.ltrans.o
                                                  ./build/obj/rt_test_sequence_011.o (symbol from plugin)
                                                  ./build/obj/rt_test_sequence_008.o (symbol from plugin)
                                                  ./build/obj/chdelegates.o (symbol from plugin)
chMsgWaitS                                        C:\Users\RAKIBU~1\AppData\Local\Temp\ch.elf.ULtIRf.ltrans1.ltrans.o
                                                  ./build/obj/chmsg.o (symbol from plugin)
                                                  C:\Users\RAKIBU~1\AppData\Local\Temp\ch.elf.ULtIRf.ltrans0.ltrans.o
                                                  ./build/obj/rt_test_sequence_011.o (symbol from plugin)
                                                  ./build/obj/rt_test_sequence_008.o (symbol from plugin)
                                                  ./build/obj/chdelegates.o (symbol from plugin)
chMsgWaitTimeoutS                                 ./build/obj/chmsg.o (symbol from plugin)
                                                  ./build/obj/chdelegates.o (symbol from plugin)
chMtxLock                                         C:\Users\RAKIBU~1\AppData\Local\Temp\ch.elf.ULtIRf.ltrans1.ltrans.o
                                                  ./build/obj/chmtx.o (symbol from plugin)
                                                  C:\Users\RAKIBU~1\AppData\Local\Temp\ch.elf.ULtIRf.ltrans0.ltrans.o
                                                  ./build/obj/rt_test_sequence_011.o (symbol from plugin)
                                                  ./build/obj/rt_test_sequence_007.o (symbol from plugin)
                                                  ./build/obj/chfactory.o (symbol from plugin)
                                                  ./build/obj/chpipes.o (symbol from plugin)
                                                  ./build/obj/chmemheaps.o (symbol from plugin)
                                                  ./build/obj/hal_spi.o (symbol from plugin)
chMtxLockS                                        C:\Users\RAKIBU~1\AppData\Local\Temp\ch.elf.ULtIRf.ltrans1.ltrans.o
                                                  ./build/obj/chmtx.o (symbol from plugin)
                                                  C:\Users\RAKIBU~1\AppData\Local\Temp\ch.elf.ULtIRf.ltrans0.ltrans.o
                                                  ./build/obj/rt_test_sequence_007.o (symbol from plugin)
                                                  ./build/obj/chcond.o (symbol from plugin)
chMtxObjectInit                                   ./build/obj/chmtx.o (symbol from plugin)
                                                  ./build/obj/rt_test_sequence_011.o (symbol from plugin)
                                                  ./build/obj/rt_test_sequence_007.o (symbol from plugin)
                                                  ./build/obj/chfactory.o (symbol from plugin)
                                                  ./build/obj/chpipes.o (symbol from plugin)
                                                  ./build/obj/chmemheaps.o (symbol from plugin)
                                                  ./build/obj/hal_spi.o (symbol from plugin)
chMtxTryLock                                      ./build/obj/chmtx.o (symbol from plugin)
                                                  ./build/obj/rt_test_sequence_007.o (symbol from plugin)
chMtxTryLockS                                     ./build/obj/chmtx.o (symbol from plugin)
chMtxUnlock                                       C:\Users\RAKIBU~1\AppData\Local\Temp\ch.elf.ULtIRf.ltrans1.ltrans.o
                                                  ./build/obj/chmtx.o (symbol from plugin)
                                                  C:\Users\RAKIBU~1\AppData\Local\Temp\ch.elf.ULtIRf.ltrans0.ltrans.o
                                                  ./build/obj/rt_test_sequence_011.o (symbol from plugin)
                                                  ./build/obj/rt_test_sequence_007.o (symbol from plugin)
                                                  ./build/obj/chfactory.o (symbol from plugin)
                                                  ./build/obj/chpipes.o (symbol from plugin)
                                                  ./build/obj/chmemheaps.o (symbol from plugin)
                                                  ./build/obj/hal_spi.o (symbol from plugin)
chMtxUnlockAll                                    ./build/obj/chmtx.o (symbol from plugin)
                                                  ./build/obj/rt_test_sequence_007.o (symbol from plugin)
chMtxUnlockAllS                                   ./build/obj/chmtx.o (symbol from plugin)
chMtxUnlockS                                      C:\Users\RAKIBU~1\AppData\Local\Temp\ch.elf.ULtIRf.ltrans1.ltrans.o
                                                  ./build/obj/chmtx.o (symbol from plugin)
                                                  C:\Users\RAKIBU~1\AppData\Local\Temp\ch.elf.ULtIRf.ltrans0.ltrans.o
                                                  ./build/obj/rt_test_sequence_007.o (symbol from plugin)
                                                  ./build/obj/chcond.o (symbol from plugin)
chPipeObjectInit                                  ./build/obj/chpipes.o (symbol from plugin)
                                                  ./build/obj/oslib_test_sequence_003.o (symbol from plugin)
                                                  ./build/obj/chfactory.o (symbol from plugin)
chPipeReadTimeout                                 ./build/obj/chpipes.o (symbol from plugin)
                                                  ./build/obj/oslib_test_sequence_003.o (symbol from plugin)
chPipeReset                                       ./build/obj/chpipes.o (symbol from plugin)
                                                  ./build/obj/oslib_test_sequence_003.o (symbol from plugin)
chPipeWriteTimeout                                ./build/obj/chpipes.o (symbol from plugin)
                                                  ./build/obj/oslib_test_sequence_003.o (symbol from plugin)
chPoolAlloc                                       C:\Users\RAKIBU~1\AppData\Local\Temp\ch.elf.ULtIRf.ltrans1.ltrans.o
                                                  ./build/obj/chmempools.o (symbol from plugin)
                                                  C:\Users\RAKIBU~1\AppData\Local\Temp\ch.elf.ULtIRf.ltrans0.ltrans.o
                                                  ./build/obj/oslib_test_sequence_007.o (symbol from plugin)
                                                  ./build/obj/rt_test_sequence_010.o (symbol from plugin)
                                                  ./build/obj/chfactory.o (symbol from plugin)
                                                  ./build/obj/chdynamic.o (symbol from plugin)
chPoolAllocI                                      ./build/obj/chmempools.o (symbol from plugin)
chPoolFree                                        ./build/obj/chmempools.o (symbol from plugin)
                                                  ./build/obj/oslib_test_sequence_007.o (symbol from plugin)
                                                  ./build/obj/rt_test_sequence_010.o (symbol from plugin)
                                                  ./build/obj/chfactory.o (symbol from plugin)
                                                  ./build/obj/chthreads.o (symbol from plugin)
chPoolFreeI                                       ./build/obj/chmempools.o (symbol from plugin)
chPoolLoadArray                                   ./build/obj/chmempools.o (symbol from plugin)
                                                  ./build/obj/oslib_test_sequence_007.o (symbol from plugin)
chPoolObjectInitAligned                           ./build/obj/chmempools.o (symbol from plugin)
                                                  ./build/obj/oslib_test_sequence_007.o (symbol from plugin)
                                                  ./build/obj/rt_test_sequence_010.o (symbol from plugin)
                                                  ./build/obj/chfactory.o (symbol from plugin)
chRegFindThreadByName                             ./build/obj/chregistry.o (symbol from plugin)
chRegFindThreadByPointer                          ./build/obj/chregistry.o (symbol from plugin)
chRegFindThreadByWorkingArea                      ./build/obj/chregistry.o (symbol from plugin)
chRegFirstThread                                  ./build/obj/chregistry.o (symbol from plugin)
                                                  ./build/obj/shell_cmd.o (symbol from plugin)
chRegNextThread                                   ./build/obj/chregistry.o (symbol from plugin)
                                                  ./build/obj/shell_cmd.o (symbol from plugin)
chSchDoReschedule                                 C:\Users\RAKIBU~1\AppData\Local\Temp\ch.elf.ULtIRf.ltrans1.ltrans.o
                                                  ./build/obj/chschd.o (symbol from plugin)
                                                  ./build/obj/chcoreasm_v7m.o
chSchDoRescheduleAhead                            ./build/obj/chschd.o (symbol from plugin)
chSchDoRescheduleBehind                           ./build/obj/chschd.o (symbol from plugin)
                                                  ./build/obj/chthreads.o (symbol from plugin)
chSchGoSleepS                                     C:\Users\RAKIBU~1\AppData\Local\Temp\ch.elf.ULtIRf.ltrans1.ltrans.o
                                                  ./build/obj/chschd.o (symbol from plugin)
                                                  C:\Users\RAKIBU~1\AppData\Local\Temp\ch.elf.ULtIRf.ltrans0.ltrans.o
                                                  ./build/obj/rt_test_sequence_011.o (symbol from plugin)
                                                  ./build/obj/chmsg.o (symbol from plugin)
                                                  ./build/obj/chevents.o (symbol from plugin)
                                                  ./build/obj/chcond.o (symbol from plugin)
                                                  ./build/obj/chmtx.o (symbol from plugin)
                                                  ./build/obj/chsem.o (symbol from plugin)
                                                  ./build/obj/chthreads.o (symbol from plugin)
chSchGoSleepTimeoutS                              C:\Users\RAKIBU~1\AppData\Local\Temp\ch.elf.ULtIRf.ltrans1.ltrans.o
                                                  ./build/obj/chschd.o (symbol from plugin)
                                                  C:\Users\RAKIBU~1\AppData\Local\Temp\ch.elf.ULtIRf.ltrans0.ltrans.o
                                                  ./build/obj/chmsg.o (symbol from plugin)
                                                  ./build/obj/chevents.o (symbol from plugin)
                                                  ./build/obj/chcond.o (symbol from plugin)
                                                  ./build/obj/chsem.o (symbol from plugin)
                                                  ./build/obj/chthreads.o (symbol from plugin)
chSchIsPreemptionRequired                         ./build/obj/chschd.o (symbol from plugin)
                                                  ./build/obj/chcore_v7m.o (symbol from plugin)
chSchReadyAheadI                                  ./build/obj/chschd.o (symbol from plugin)
chSchReadyI                                       C:\Users\RAKIBU~1\AppData\Local\Temp\ch.elf.ULtIRf.ltrans1.ltrans.o
                                                  ./build/obj/chschd.o (symbol from plugin)
                                                  C:\Users\RAKIBU~1\AppData\Local\Temp\ch.elf.ULtIRf.ltrans0.ltrans.o
                                                  ./build/obj/chmsg.o (symbol from plugin)
                                                  ./build/obj/chevents.o (symbol from plugin)
                                                  ./build/obj/chcond.o (symbol from plugin)
                                                  ./build/obj/chmtx.o (symbol from plugin)
                                                  ./build/obj/chsem.o (symbol from plugin)
                                                  ./build/obj/chthreads.o (symbol from plugin)
chSchRescheduleS                                  C:\Users\RAKIBU~1\AppData\Local\Temp\ch.elf.ULtIRf.ltrans1.ltrans.o
                                                  ./build/obj/chschd.o (symbol from plugin)
                                                  C:\Users\RAKIBU~1\AppData\Local\Temp\ch.elf.ULtIRf.ltrans0.ltrans.o
                                                  ./build/obj/oslib_test_sequence_006.o (symbol from plugin)
                                                  ./build/obj/rt_test_sequence_007.o (symbol from plugin)
                                                  ./build/obj/rt_test_sequence_006.o (symbol from plugin)
                                                  ./build/obj/rt_test_sequence_005.o (symbol from plugin)
                                                  ./build/obj/chpipes.o (symbol from plugin)
                                                  ./build/obj/chmempools.o (symbol from plugin)
                                                  ./build/obj/chmboxes.o (symbol from plugin)
                                                  ./build/obj/chevents.o (symbol from plugin)
                                                  ./build/obj/chcond.o (symbol from plugin)
                                                  ./build/obj/chmtx.o (symbol from plugin)
                                                  ./build/obj/chsem.o (symbol from plugin)
                                                  ./build/obj/chthreads.o (symbol from plugin)
                                                  ./build/obj/chsys.o (symbol from plugin)
                                                  ./build/obj/hal_spi.o (symbol from plugin)
                                                  ./build/obj/hal_serial.o (symbol from plugin)
chSchWakeupS                                      C:\Users\RAKIBU~1\AppData\Local\Temp\ch.elf.ULtIRf.ltrans1.ltrans.o
                                                  ./build/obj/chschd.o (symbol from plugin)
                                                  C:\Users\RAKIBU~1\AppData\Local\Temp\ch.elf.ULtIRf.ltrans0.ltrans.o
                                                  ./build/obj/rt_test_sequence_011.o (symbol from plugin)
                                                  ./build/obj/chdynamic.o (symbol from plugin)
                                                  ./build/obj/chmsg.o (symbol from plugin)
                                                  ./build/obj/chcond.o (symbol from plugin)
                                                  ./build/obj/chsem.o (symbol from plugin)
                                                  ./build/obj/chthreads.o (symbol from plugin)
chSemAddCounterI                                  ./build/obj/chsem.o (symbol from plugin)
                                                  ./build/obj/rt_test_sequence_006.o (symbol from plugin)
chSemObjectInit                                   ./build/obj/chsem.o (symbol from plugin)
                                                  ./build/obj/rt_test_sequence_011.o (symbol from plugin)
                                                  ./build/obj/rt_test_sequence_006.o (symbol from plugin)
                                                  ./build/obj/chfactory.o (symbol from plugin)
                                                  ./build/obj/chobjcaches.o (symbol from plugin)
                                                  ./build/obj/chmempools.o (symbol from plugin)
chSemResetWithMessage                             ./build/obj/chsem.o (symbol from plugin)
                                                  ./build/obj/rt_test_sequence_011.o (symbol from plugin)
                                                  ./build/obj/rt_test_sequence_006.o (symbol from plugin)
chSemResetWithMessageI                            ./build/obj/chsem.o (symbol from plugin)
chSemSignal                                       C:\Users\RAKIBU~1\AppData\Local\Temp\ch.elf.ULtIRf.ltrans1.ltrans.o
                                                  ./build/obj/chsem.o (symbol from plugin)
                                                  C:\Users\RAKIBU~1\AppData\Local\Temp\ch.elf.ULtIRf.ltrans0.ltrans.o
                                                  ./build/obj/rt_test_sequence_011.o (symbol from plugin)
                                                  ./build/obj/rt_test_sequence_006.o (symbol from plugin)
chSemSignalI                                      C:\Users\RAKIBU~1\AppData\Local\Temp\ch.elf.ULtIRf.ltrans1.ltrans.o
                                                  ./build/obj/chsem.o (symbol from plugin)
                                                  C:\Users\RAKIBU~1\AppData\Local\Temp\ch.elf.ULtIRf.ltrans0.ltrans.o
                                                  ./build/obj/rt_test_sequence_006.o (symbol from plugin)
                                                  ./build/obj/chobjcaches.o (symbol from plugin)
                                                  ./build/obj/chmempools.o (symbol from plugin)
chSemSignalWait                                   ./build/obj/chsem.o (symbol from plugin)
                                                  ./build/obj/rt_test_sequence_006.o (symbol from plugin)
chSemWait                                         C:\Users\RAKIBU~1\AppData\Local\Temp\ch.elf.ULtIRf.ltrans1.ltrans.o
                                                  ./build/obj/chsem.o (symbol from plugin)
                                                  C:\Users\RAKIBU~1\AppData\Local\Temp\ch.elf.ULtIRf.ltrans0.ltrans.o
                                                  ./build/obj/rt_test_sequence_011.o (symbol from plugin)
                                                  ./build/obj/rt_test_sequence_006.o (symbol from plugin)
chSemWaitS                                        ./build/obj/chsem.o (symbol from plugin)
                                                  ./build/obj/chobjcaches.o (symbol from plugin)
chSemWaitS.part.0                                 C:\Users\RAKIBU~1\AppData\Local\Temp\ch.elf.ULtIRf.ltrans1.ltrans.o
                                                  C:\Users\RAKIBU~1\AppData\Local\Temp\ch.elf.ULtIRf.ltrans0.ltrans.o
chSemWaitTimeout                                  ./build/obj/chsem.o (symbol from plugin)
                                                  ./build/obj/rt_test_sequence_006.o (symbol from plugin)
chSemWaitTimeoutS                                 ./build/obj/chsem.o (symbol from plugin)
                                                  ./build/obj/chmempools.o (symbol from plugin)
chSysGetStatusAndLockX                            ./build/obj/chsys.o (symbol from plugin)
                                                  ./build/obj/rt_test_sequence_002.o (symbol from plugin)
chSysGetStatusAndLockX.part.0                     C:\Users\RAKIBU~1\AppData\Local\Temp\ch.elf.ULtIRf.ltrans1.ltrans.o
                                                  C:\Users\RAKIBU~1\AppData\Local\Temp\ch.elf.ULtIRf.ltrans0.ltrans.o
chSysHalt                                         ./build/obj/chsys.o (symbol from plugin)
                                                  ./build/obj/hal_spi_lld.o (symbol from plugin)
chSysInit                                         ./build/obj/chsys.o (symbol from plugin)
                                                  ./build/obj/main.o (symbol from plugin)
chSysIntegrityCheckI                              C:\Users\RAKIBU~1\AppData\Local\Temp\ch.elf.ULtIRf.ltrans1.ltrans.o
                                                  ./build/obj/chsys.o (symbol from plugin)
                                                  C:\Users\RAKIBU~1\AppData\Local\Temp\ch.elf.ULtIRf.ltrans0.ltrans.o
                                                  ./build/obj/rt_test_sequence_002.o (symbol from plugin)
chSysIsCounterWithinX                             ./build/obj/chsys.o (symbol from plugin)
chSysPolledDelayX                                 ./build/obj/chsys.o (symbol from plugin)
chSysRestoreStatusX                               ./build/obj/chsys.o (symbol from plugin)
                                                  ./build/obj/rt_test_sequence_002.o (symbol from plugin)
chSysRestoreStatusX.part.0                        C:\Users\RAKIBU~1\AppData\Local\Temp\ch.elf.ULtIRf.ltrans1.ltrans.o
                                                  C:\Users\RAKIBU~1\AppData\Local\Temp\ch.elf.ULtIRf.ltrans0.ltrans.o
chSysTimerHandlerI                                ./build/obj/chsys.o (symbol from plugin)
                                                  ./build/obj/hal_st_lld.o (symbol from plugin)
chTMChainMeasurementToX                           ./build/obj/chtm.o (symbol from plugin)
chTMObjectInit                                    ./build/obj/chtm.o (symbol from plugin)
chTMStartMeasurementX                             C:\Users\RAKIBU~1\AppData\Local\Temp\ch.elf.ULtIRf.ltrans1.ltrans.o
                                                  ./build/obj/chtm.o (symbol from plugin)
                                                  C:\Users\RAKIBU~1\AppData\Local\Temp\ch.elf.ULtIRf.ltrans0.ltrans.o
chTMStopMeasurementX                              C:\Users\RAKIBU~1\AppData\Local\Temp\ch.elf.ULtIRf.ltrans1.ltrans.o
                                                  ./build/obj/chtm.o (symbol from plugin)
                                                  C:\Users\RAKIBU~1\AppData\Local\Temp\ch.elf.ULtIRf.ltrans0.ltrans.o
chThdAddRef                                       ./build/obj/chthreads.o (symbol from plugin)
chThdCreate                                       C:\Users\RAKIBU~1\AppData\Local\Temp\ch.elf.ULtIRf.ltrans1.ltrans.o
                                                  ./build/obj/chthreads.o (symbol from plugin)
                                                  C:\Users\RAKIBU~1\AppData\Local\Temp\ch.elf.ULtIRf.ltrans0.ltrans.o
                                                  ./build/obj/oslib_test_sequence_005.o (symbol from plugin)
                                                  ./build/obj/oslib_test_sequence_004.o (symbol from plugin)
                                                  ./build/obj/chsys.o (symbol from plugin)
chThdCreateFromHeap                               C:\Users\RAKIBU~1\AppData\Local\Temp\ch.elf.ULtIRf.ltrans1.ltrans.o
                                                  ./build/obj/chdynamic.o (symbol from plugin)
                                                  C:\Users\RAKIBU~1\AppData\Local\Temp\ch.elf.ULtIRf.ltrans0.ltrans.o
                                                  ./build/obj/main.o (symbol from plugin)
                                                  ./build/obj/rt_test_sequence_010.o (symbol from plugin)
                                                  ./build/obj/shell_cmd.o (symbol from plugin)
chThdCreateFromMemoryPool                         ./build/obj/chdynamic.o (symbol from plugin)
                                                  ./build/obj/rt_test_sequence_010.o (symbol from plugin)
chThdCreateI                                      ./build/obj/chthreads.o (symbol from plugin)
chThdCreateStatic                                 ./build/obj/chthreads.o (symbol from plugin)
                                                  ./build/obj/main.o (symbol from plugin)
                                                  ./build/obj/rt_test_sequence_011.o (symbol from plugin)
                                                  ./build/obj/rt_test_sequence_009.o (symbol from plugin)
                                                  ./build/obj/rt_test_sequence_008.o (symbol from plugin)
                                                  ./build/obj/rt_test_sequence_007.o (symbol from plugin)
                                                  ./build/obj/rt_test_sequence_006.o (symbol from plugin)
                                                  ./build/obj/rt_test_sequence_005.o (symbol from plugin)
                                                  ./build/obj/rt_test_sequence_004.o (symbol from plugin)
chThdCreateSuspended                              ./build/obj/chthreads.o (symbol from plugin)
chThdCreateSuspendedI                             C:\Users\RAKIBU~1\AppData\Local\Temp\ch.elf.ULtIRf.ltrans1.ltrans.o
                                                  ./build/obj/chthreads.o (symbol from plugin)
                                                  C:\Users\RAKIBU~1\AppData\Local\Temp\ch.elf.ULtIRf.ltrans0.ltrans.o
                                                  ./build/obj/chdynamic.o (symbol from plugin)
chThdDequeueAllI                                  ./build/obj/chthreads.o (symbol from plugin)
                                                  ./build/obj/chmboxes.o (symbol from plugin)
                                                  ./build/obj/hal_queues.o (symbol from plugin)
                                                  ./build/obj/hal_buffers.o (symbol from plugin)
chThdDequeueNextI                                 ./build/obj/chthreads.o (symbol from plugin)
                                                  ./build/obj/chmboxes.o (symbol from plugin)
                                                  ./build/obj/hal_queues.o (symbol from plugin)
                                                  ./build/obj/hal_buffers.o (symbol from plugin)
chThdDequeueNextI.constprop.0                     C:\Users\RAKIBU~1\AppData\Local\Temp\ch.elf.ULtIRf.ltrans0.ltrans.o
                                                  C:\Users\RAKIBU~1\AppData\Local\Temp\ch.elf.ULtIRf.ltrans1.ltrans.o
chThdEnqueueTimeoutS                              C:\Users\RAKIBU~1\AppData\Local\Temp\ch.elf.ULtIRf.ltrans1.ltrans.o
                                                  ./build/obj/chthreads.o (symbol from plugin)
                                                  C:\Users\RAKIBU~1\AppData\Local\Temp\ch.elf.ULtIRf.ltrans0.ltrans.o
                                                  ./build/obj/chmboxes.o (symbol from plugin)
                                                  ./build/obj/hal_queues.o (symbol from plugin)
                                                  ./build/obj/hal_buffers.o (symbol from plugin)
chThdExit                                         C:\Users\RAKIBU~1\AppData\Local\Temp\ch.elf.ULtIRf.ltrans1.ltrans.o
                                                  ./build/obj/chthreads.o (symbol from plugin)
                                                  C:\Users\RAKIBU~1\AppData\Local\Temp\ch.elf.ULtIRf.ltrans0.ltrans.o
                                                  ./build/obj/oslib_test_sequence_005.o (symbol from plugin)
                                                  ./build/obj/rt_test_sequence_011.o (symbol from plugin)
                                                  ./build/obj/chcoreasm_v7m.o
chThdExitS                                        ./build/obj/chthreads.o (symbol from plugin)
                                                  ./build/obj/shell.o (symbol from plugin)
chThdRelease                                      C:\Users\RAKIBU~1\AppData\Local\Temp\ch.elf.ULtIRf.ltrans1.ltrans.o
                                                  ./build/obj/chthreads.o (symbol from plugin)
                                                  C:\Users\RAKIBU~1\AppData\Local\Temp\ch.elf.ULtIRf.ltrans0.ltrans.o
                                                  ./build/obj/rt_test_sequence_011.o (symbol from plugin)
                                                  ./build/obj/chregistry.o (symbol from plugin)
chThdResume                                       ./build/obj/chthreads.o (symbol from plugin)
                                                  ./build/obj/chpipes.o (symbol from plugin)
chThdResumeI                                      C:\Users\RAKIBU~1\AppData\Local\Temp\ch.elf.ULtIRf.ltrans1.ltrans.o
                                                  ./build/obj/chthreads.o (symbol from plugin)
                                                  C:\Users\RAKIBU~1\AppData\Local\Temp\ch.elf.ULtIRf.ltrans0.ltrans.o
                                                  ./build/obj/rt_test_sequence_005.o (symbol from plugin)
                                                  ./build/obj/chpipes.o (symbol from plugin)
                                                  ./build/obj/hal_spi_lld.o (symbol from plugin)
                                                  ./build/obj/hal_spi.o (symbol from plugin)
chThdResumeS                                      ./build/obj/chthreads.o (symbol from plugin)
chThdSetPriority                                  C:\Users\RAKIBU~1\AppData\Local\Temp\ch.elf.ULtIRf.ltrans1.ltrans.o
                                                  ./build/obj/chthreads.o (symbol from plugin)
                                                  C:\Users\RAKIBU~1\AppData\Local\Temp\ch.elf.ULtIRf.ltrans0.ltrans.o
                                                  ./build/obj/rt_test_sequence_004.o (symbol from plugin)
chThdSleep                                        C:\Users\RAKIBU~1\AppData\Local\Temp\ch.elf.ULtIRf.ltrans1.ltrans.o
                                                  ./build/obj/chthreads.o (symbol from plugin)
                                                  C:\Users\RAKIBU~1\AppData\Local\Temp\ch.elf.ULtIRf.ltrans0.ltrans.o
                                                  ./build/obj/main.o (symbol from plugin)
                                                  ./build/obj/oslib_test_sequence_004.o (symbol from plugin)
                                                  ./build/obj/rt_test_sequence_011.o (symbol from plugin)
                                                  ./build/obj/rt_test_sequence_009.o (symbol from plugin)
                                                  ./build/obj/rt_test_sequence_007.o (symbol from plugin)
                                                  ./build/obj/rt_test_sequence_006.o (symbol from plugin)
                                                  ./build/obj/rt_test_sequence_004.o (symbol from plugin)
                                                  ./build/obj/rt_test_sequence_002.o (symbol from plugin)
                                                  ./build/obj/rt_test_root.o (symbol from plugin)
                                                  ./build/obj/ch_test.o (symbol from plugin)
                                                  ./build/obj/hal_mmc_spi.o (symbol from plugin)
                                                  ./build/obj/hal_flash.o (symbol from plugin)
chThdSleepUntil                                   ./build/obj/chthreads.o (symbol from plugin)
                                                  ./build/obj/rt_test_sequence_004.o (symbol from plugin)
chThdSleepUntilWindowed                           ./build/obj/chthreads.o (symbol from plugin)
chThdStart                                        ./build/obj/chthreads.o (symbol from plugin)
chThdSuspendS                                     ./build/obj/chthreads.o (symbol from plugin)
chThdSuspendTimeoutS                              C:\Users\RAKIBU~1\AppData\Local\Temp\ch.elf.ULtIRf.ltrans1.ltrans.o
                                                  ./build/obj/chthreads.o (symbol from plugin)
                                                  C:\Users\RAKIBU~1\AppData\Local\Temp\ch.elf.ULtIRf.ltrans0.ltrans.o
                                                  ./build/obj/rt_test_sequence_005.o (symbol from plugin)
                                                  ./build/obj/chpipes.o (symbol from plugin)
                                                  ./build/obj/hal_spi.o (symbol from plugin)
chThdTerminate                                    ./build/obj/chthreads.o (symbol from plugin)
                                                  ./build/obj/rt_test_root.o (symbol from plugin)
chThdWait                                         C:\Users\RAKIBU~1\AppData\Local\Temp\ch.elf.ULtIRf.ltrans1.ltrans.o
                                                  ./build/obj/chthreads.o (symbol from plugin)
                                                  C:\Users\RAKIBU~1\AppData\Local\Temp\ch.elf.ULtIRf.ltrans0.ltrans.o
                                                  ./build/obj/main.o (symbol from plugin)
                                                  ./build/obj/oslib_test_sequence_005.o (symbol from plugin)
                                                  ./build/obj/oslib_test_sequence_004.o (symbol from plugin)
                                                  ./build/obj/rt_test_sequence_011.o (symbol from plugin)
                                                  ./build/obj/rt_test_root.o (symbol from plugin)
                                                  ./build/obj/shell_cmd.o (symbol from plugin)
chThdYield                                        C:\Users\RAKIBU~1\AppData\Local\Temp\ch.elf.ULtIRf.ltrans1.ltrans.o
                                                  ./build/obj/chthreads.o (symbol from plugin)
                                                  C:\Users\RAKIBU~1\AppData\Local\Temp\ch.elf.ULtIRf.ltrans0.ltrans.o
                                                  ./build/obj/rt_test_sequence_011.o (symbol from plugin)
chVTDoResetI                                      C:\Users\RAKIBU~1\AppData\Local\Temp\ch.elf.ULtIRf.ltrans1.ltrans.o
                                                  ./build/obj/chvt.o (symbol from plugin)
                                                  C:\Users\RAKIBU~1\AppData\Local\Temp\ch.elf.ULtIRf.ltrans0.ltrans.o
                                                  ./build/obj/main.o (symbol from plugin)
                                                  ./build/obj/rt_test_sequence_011.o (symbol from plugin)
                                                  ./build/obj/rt_test_sequence_002.o (symbol from plugin)
                                                  ./build/obj/chschd.o (symbol from plugin)
chVTDoSetI                                        C:\Users\RAKIBU~1\AppData\Local\Temp\ch.elf.ULtIRf.ltrans1.ltrans.o
                                                  ./build/obj/chvt.o (symbol from plugin)
                                                  C:\Users\RAKIBU~1\AppData\Local\Temp\ch.elf.ULtIRf.ltrans0.ltrans.o
                                                  ./build/obj/main.o (symbol from plugin)
                                                  ./build/obj/rt_test_sequence_011.o (symbol from plugin)
                                                  ./build/obj/rt_test_sequence_002.o (symbol from plugin)
                                                  ./build/obj/chschd.o (symbol from plugin)
ch_debug                                          ./build/obj/chregistry.o (symbol from plugin)
                                                  ./build/obj/chsys.o (symbol from plugin)
ch_factory                                        C:\Users\RAKIBU~1\AppData\Local\Temp\ch.elf.ULtIRf.ltrans0.ltrans.o
                                                  ./build/obj/chfactory.o (symbol from plugin)
                                                  C:\Users\RAKIBU~1\AppData\Local\Temp\ch.elf.ULtIRf.ltrans1.ltrans.o
ch_idle_thread_wa                                 ./build/obj/chsys.o (symbol from plugin)
ch_memcore                                        C:\Users\RAKIBU~1\AppData\Local\Temp\ch.elf.ULtIRf.ltrans0.ltrans.o
                                                  ./build/obj/chmemcore.o (symbol from plugin)
                                                  C:\Users\RAKIBU~1\AppData\Local\Temp\ch.elf.ULtIRf.ltrans1.ltrans.o
ch_test.c.27ae1787                                C:\Users\RAKIBU~1\AppData\Local\Temp\ccQljqMC.debug.temp.o
                                                  C:\Users\RAKIBU~1\AppData\Local\Temp\ch.elf.ULtIRf.ltrans1.ltrans.o
                                                  C:\Users\RAKIBU~1\AppData\Local\Temp\ch.elf.ULtIRf.ltrans0.ltrans.o
chcond.c.bd20f3c6                                 C:\Users\RAKIBU~1\AppData\Local\Temp\ccLmp5Bk.debug.temp.o
                                                  C:\Users\RAKIBU~1\AppData\Local\Temp\ch.elf.ULtIRf.ltrans0.ltrans.o
chcore.c.404f6419                                 C:\Users\RAKIBU~1\AppData\Local\Temp\ccrCn4pk.debug.temp.o
chcore_v7m.c.e9eaba40                             C:\Users\RAKIBU~1\AppData\Local\Temp\ccAOt7V8.debug.temp.o
                                                  C:\Users\RAKIBU~1\AppData\Local\Temp\ch.elf.ULtIRf.ltrans1.ltrans.o
                                                  C:\Users\RAKIBU~1\AppData\Local\Temp\ch.elf.ULtIRf.ltrans0.ltrans.o
chdebug.c.d9548b5d                                C:\Users\RAKIBU~1\AppData\Local\Temp\ccaY5fOj.debug.temp.o
chdelegates.c.2d83c02a                            C:\Users\RAKIBU~1\AppData\Local\Temp\ccZCwjxJ.debug.temp.o
                                                  C:\Users\RAKIBU~1\AppData\Local\Temp\ch.elf.ULtIRf.ltrans1.ltrans.o
                                                  C:\Users\RAKIBU~1\AppData\Local\Temp\ch.elf.ULtIRf.ltrans0.ltrans.o
chdynamic.c.9a559737                              C:\Users\RAKIBU~1\AppData\Local\Temp\ccacQuKs.debug.temp.o
                                                  C:\Users\RAKIBU~1\AppData\Local\Temp\ch.elf.ULtIRf.ltrans1.ltrans.o
                                                  C:\Users\RAKIBU~1\AppData\Local\Temp\ch.elf.ULtIRf.ltrans0.ltrans.o
chevents.c.0a40b136                               C:\Users\RAKIBU~1\AppData\Local\Temp\ccSRFCX1.debug.temp.o
                                                  C:\Users\RAKIBU~1\AppData\Local\Temp\ch.elf.ULtIRf.ltrans1.ltrans.o
                                                  C:\Users\RAKIBU~1\AppData\Local\Temp\ch.elf.ULtIRf.ltrans0.ltrans.o
chfactory.c.066ddd56                              C:\Users\RAKIBU~1\AppData\Local\Temp\cc2lLTsv.debug.temp.o
                                                  C:\Users\RAKIBU~1\AppData\Local\Temp\ch.elf.ULtIRf.ltrans1.ltrans.o
                                                  C:\Users\RAKIBU~1\AppData\Local\Temp\ch.elf.ULtIRf.ltrans0.ltrans.o
chmboxes.c.a41e4ad8                               C:\Users\RAKIBU~1\AppData\Local\Temp\ccbihpmd.debug.temp.o
                                                  C:\Users\RAKIBU~1\AppData\Local\Temp\ch.elf.ULtIRf.ltrans1.ltrans.o
                                                  C:\Users\RAKIBU~1\AppData\Local\Temp\ch.elf.ULtIRf.ltrans0.ltrans.o
chmemcore.c.f981dbd2                              C:\Users\RAKIBU~1\AppData\Local\Temp\ccqx9oiW.debug.temp.o
                                                  C:\Users\RAKIBU~1\AppData\Local\Temp\ch.elf.ULtIRf.ltrans1.ltrans.o
                                                  C:\Users\RAKIBU~1\AppData\Local\Temp\ch.elf.ULtIRf.ltrans0.ltrans.o
chmemheaps.c.a81a6f32                             C:\Users\RAKIBU~1\AppData\Local\Temp\ccD7UjYF.debug.temp.o
                                                  C:\Users\RAKIBU~1\AppData\Local\Temp\ch.elf.ULtIRf.ltrans1.ltrans.o
                                                  C:\Users\RAKIBU~1\AppData\Local\Temp\ch.elf.ULtIRf.ltrans0.ltrans.o
chmempools.c.6292b27e                             C:\Users\RAKIBU~1\AppData\Local\Temp\ccy69Y8o.debug.temp.o
                                                  C:\Users\RAKIBU~1\AppData\Local\Temp\ch.elf.ULtIRf.ltrans1.ltrans.o
                                                  C:\Users\RAKIBU~1\AppData\Local\Temp\ch.elf.ULtIRf.ltrans0.ltrans.o
chmsg.c.35029ba3                                  C:\Users\RAKIBU~1\AppData\Local\Temp\ccdyOYNI.debug.temp.o
                                                  C:\Users\RAKIBU~1\AppData\Local\Temp\ch.elf.ULtIRf.ltrans1.ltrans.o
                                                  C:\Users\RAKIBU~1\AppData\Local\Temp\ch.elf.ULtIRf.ltrans0.ltrans.o
chmtx.c.3d20854a                                  C:\Users\RAKIBU~1\AppData\Local\Temp\cc6T6f0D.debug.temp.o
                                                  C:\Users\RAKIBU~1\AppData\Local\Temp\ch.elf.ULtIRf.ltrans1.ltrans.o
                                                  C:\Users\RAKIBU~1\AppData\Local\Temp\ch.elf.ULtIRf.ltrans0.ltrans.o
chobjcaches.c.fa0206e9                            C:\Users\RAKIBU~1\AppData\Local\Temp\ccKt1dhY.debug.temp.o
                                                  C:\Users\RAKIBU~1\AppData\Local\Temp\ch.elf.ULtIRf.ltrans1.ltrans.o
                                                  C:\Users\RAKIBU~1\AppData\Local\Temp\ch.elf.ULtIRf.ltrans0.ltrans.o
chpipes.c.a617b8b3                                C:\Users\RAKIBU~1\AppData\Local\Temp\ccFTVllb.debug.temp.o
                                                  C:\Users\RAKIBU~1\AppData\Local\Temp\ch.elf.ULtIRf.ltrans1.ltrans.o
                                                  C:\Users\RAKIBU~1\AppData\Local\Temp\ch.elf.ULtIRf.ltrans0.ltrans.o
chprintf                                          C:\Users\RAKIBU~1\AppData\Local\Temp\ch.elf.ULtIRf.ltrans1.ltrans.o
                                                  ./build/obj/chprintf.o (symbol from plugin)
                                                  C:\Users\RAKIBU~1\AppData\Local\Temp\ch.elf.ULtIRf.ltrans0.ltrans.o
                                                  ./build/obj/main.o (symbol from plugin)
                                                  ./build/obj/shell_cmd.o (symbol from plugin)
                                                  ./build/obj/shell.o (symbol from plugin)
chprintf.c.07a3b500                               C:\Users\RAKIBU~1\AppData\Local\Temp\cc7ypz8X.debug.temp.o
                                                  C:\Users\RAKIBU~1\AppData\Local\Temp\ch.elf.ULtIRf.ltrans1.ltrans.o
                                                  C:\Users\RAKIBU~1\AppData\Local\Temp\ch.elf.ULtIRf.ltrans0.ltrans.o
chregistry.c.932e2427                             C:\Users\RAKIBU~1\AppData\Local\Temp\ccGTIU6d.debug.temp.o
                                                  C:\Users\RAKIBU~1\AppData\Local\Temp\ch.elf.ULtIRf.ltrans1.ltrans.o
                                                  C:\Users\RAKIBU~1\AppData\Local\Temp\ch.elf.ULtIRf.ltrans0.ltrans.o
chschd.c.993c0655                                 C:\Users\RAKIBU~1\AppData\Local\Temp\ccXBqgoh.debug.temp.o
                                                  C:\Users\RAKIBU~1\AppData\Local\Temp\ch.elf.ULtIRf.ltrans1.ltrans.o
                                                  C:\Users\RAKIBU~1\AppData\Local\Temp\ch.elf.ULtIRf.ltrans0.ltrans.o
chsem.c.7c8dc6c9                                  C:\Users\RAKIBU~1\AppData\Local\Temp\ccrfkuIV.debug.temp.o
                                                  C:\Users\RAKIBU~1\AppData\Local\Temp\ch.elf.ULtIRf.ltrans1.ltrans.o
                                                  C:\Users\RAKIBU~1\AppData\Local\Temp\ch.elf.ULtIRf.ltrans0.ltrans.o
chsnprintf                                        ./build/obj/chprintf.o (symbol from plugin)
chsys.c.a14f75a2                                  C:\Users\RAKIBU~1\AppData\Local\Temp\cc9rP78H.debug.temp.o
                                                  C:\Users\RAKIBU~1\AppData\Local\Temp\ch.elf.ULtIRf.ltrans1.ltrans.o
                                                  C:\Users\RAKIBU~1\AppData\Local\Temp\ch.elf.ULtIRf.ltrans0.ltrans.o
chthreads.c.00c0faf3                              C:\Users\RAKIBU~1\AppData\Local\Temp\cci81NJV.debug.temp.o
                                                  C:\Users\RAKIBU~1\AppData\Local\Temp\ch.elf.ULtIRf.ltrans1.ltrans.o
                                                  C:\Users\RAKIBU~1\AppData\Local\Temp\ch.elf.ULtIRf.ltrans0.ltrans.o
chtm.c.4a17fcd2                                   C:\Users\RAKIBU~1\AppData\Local\Temp\ccTqmAAz.debug.temp.o
                                                  C:\Users\RAKIBU~1\AppData\Local\Temp\ch.elf.ULtIRf.ltrans1.ltrans.o
                                                  C:\Users\RAKIBU~1\AppData\Local\Temp\ch.elf.ULtIRf.ltrans0.ltrans.o
chtrace.c.09616169                                C:\Users\RAKIBU~1\AppData\Local\Temp\ccLM084V.debug.temp.o
chvprintf                                         ./build/obj/chprintf.o (symbol from plugin)
chvsnprintf                                       ./build/obj/chprintf.o (symbol from plugin)
chvt.c.3a4d6d4c                                   C:\Users\RAKIBU~1\AppData\Local\Temp\ccgSPRmB.debug.temp.o
                                                  C:\Users\RAKIBU~1\AppData\Local\Temp\ch.elf.ULtIRf.ltrans1.ltrans.o
                                                  C:\Users\RAKIBU~1\AppData\Local\Temp\ch.elf.ULtIRf.ltrans0.ltrans.o
crt1.c.a13e7b71                                   C:\Users\RAKIBU~1\AppData\Local\Temp\cch5nJgM.debug.temp.o
                                                  C:\Users\RAKIBU~1\AppData\Local\Temp\ch.elf.ULtIRf.ltrans1.ltrans.o
                                                  C:\Users\RAKIBU~1\AppData\Local\Temp\ch.elf.ULtIRf.ltrans0.ltrans.o
default_heap.lto_priv.0                           C:\Users\RAKIBU~1\AppData\Local\Temp\ch.elf.ULtIRf.ltrans0.ltrans.o
                                                  C:\Users\RAKIBU~1\AppData\Local\Temp\ch.elf.ULtIRf.ltrans1.ltrans.o
disk_initialize                                   ./build/obj/fatfs_diskio.o (symbol from plugin)
                                                  ./build/obj/ff.o (symbol from plugin)
disk_ioctl                                        ./build/obj/fatfs_diskio.o (symbol from plugin)
                                                  ./build/obj/ff.o (symbol from plugin)
disk_read                                         ./build/obj/fatfs_diskio.o (symbol from plugin)
                                                  ./build/obj/ff.o (symbol from plugin)
disk_status                                       ./build/obj/fatfs_diskio.o (symbol from plugin)
                                                  ./build/obj/ff.o (symbol from plugin)
disk_write                                        C:\Users\RAKIBU~1\AppData\Local\Temp\ch.elf.ULtIRf.ltrans1.ltrans.o
                                                  ./build/obj/fatfs_diskio.o (symbol from plugin)
                                                  C:\Users\RAKIBU~1\AppData\Local\Temp\ch.elf.ULtIRf.ltrans0.ltrans.o
                                                  ./build/obj/ff.o (symbol from plugin)
dma.lto_priv.0                                    C:\Users\RAKIBU~1\AppData\Local\Temp\ch.elf.ULtIRf.ltrans0.ltrans.o
                                                  C:\Users\RAKIBU~1\AppData\Local\Temp\ch.elf.ULtIRf.ltrans1.ltrans.o
dmaInit                                           ./build/obj/stm32_dma.o (symbol from plugin)
                                                  ./build/obj/hal_lld.o (symbol from plugin)
dmaServeInterrupt                                 ./build/obj/stm32_dma.o (symbol from plugin)
dmaStreamAlloc                                    ./build/obj/stm32_dma.o (symbol from plugin)
dmaStreamAllocI                                   ./build/obj/stm32_dma.o (symbol from plugin)
                                                  ./build/obj/hal_spi_lld.o (symbol from plugin)
dmaStreamAllocI.part.0.constprop.0                C:\Users\RAKIBU~1\AppData\Local\Temp\ch.elf.ULtIRf.ltrans0.ltrans.o
                                                  C:\Users\RAKIBU~1\AppData\Local\Temp\ch.elf.ULtIRf.ltrans1.ltrans.o
dmaStreamFree                                     ./build/obj/stm32_dma.o (symbol from plugin)
dmaStreamFreeI                                    ./build/obj/stm32_dma.o (symbol from plugin)
                                                  ./build/obj/hal_spi_lld.o (symbol from plugin)
dyn_create_object_heap.lto_priv.0                 C:\Users\RAKIBU~1\AppData\Local\Temp\ch.elf.ULtIRf.ltrans1.ltrans.o
                                                  C:\Users\RAKIBU~1\AppData\Local\Temp\ch.elf.ULtIRf.ltrans0.ltrans.o
dyn_create_object_pool.lto_priv.0                 C:\Users\RAKIBU~1\AppData\Local\Temp\ch.elf.ULtIRf.ltrans1.ltrans.o
                                                  C:\Users\RAKIBU~1\AppData\Local\Temp\ch.elf.ULtIRf.ltrans0.ltrans.o
dyn_find_object.lto_priv.0                        C:\Users\RAKIBU~1\AppData\Local\Temp\ch.elf.ULtIRf.ltrans1.ltrans.o
                                                  C:\Users\RAKIBU~1\AppData\Local\Temp\ch.elf.ULtIRf.ltrans0.ltrans.o
f_close                                           ./build/obj/ff.o (symbol from plugin)
f_closedir                                        ./build/obj/ff.o (symbol from plugin)
f_getfree                                         ./build/obj/ff.o (symbol from plugin)
                                                  ./build/obj/main.o (symbol from plugin)
f_lseek                                           ./build/obj/ff.o (symbol from plugin)
f_mkdir                                           ./build/obj/ff.o (symbol from plugin)
f_mount                                           ./build/obj/ff.o (symbol from plugin)
                                                  ./build/obj/main.o (symbol from plugin)
f_open                                            ./build/obj/ff.o (symbol from plugin)
f_opendir                                         ./build/obj/ff.o (symbol from plugin)
                                                  ./build/obj/main.o (symbol from plugin)
f_read                                            ./build/obj/ff.o (symbol from plugin)
f_readdir                                         ./build/obj/ff.o (symbol from plugin)
                                                  ./build/obj/main.o (symbol from plugin)
f_rename                                          ./build/obj/ff.o (symbol from plugin)
f_stat                                            ./build/obj/ff.o (symbol from plugin)
f_sync                                            ./build/obj/ff.o (symbol from plugin)
f_truncate                                        ./build/obj/ff.o (symbol from plugin)
f_unlink                                          ./build/obj/ff.o (symbol from plugin)
f_write                                           ./build/obj/ff.o (symbol from plugin)
fatfs_diskio.c.aebf6a04                           C:\Users\RAKIBU~1\AppData\Local\Temp\ccOe3Py9.debug.temp.o
                                                  C:\Users\RAKIBU~1\AppData\Local\Temp\ch.elf.ULtIRf.ltrans1.ltrans.o
                                                  C:\Users\RAKIBU~1\AppData\Local\Temp\ch.elf.ULtIRf.ltrans0.ltrans.o
fatfs_syscall.c.d1785fef                          C:\Users\RAKIBU~1\AppData\Local\Temp\cc3LaxpZ.debug.temp.o
                                                  C:\Users\RAKIBU~1\AppData\Local\Temp\ch.elf.ULtIRf.ltrans0.ltrans.o
ff.c.ce7d80e0                                     C:\Users\RAKIBU~1\AppData\Local\Temp\ccC99UZP.debug.temp.o
                                                  C:\Users\RAKIBU~1\AppData\Local\Temp\ch.elf.ULtIRf.ltrans0.ltrans.o
ff_memalloc                                       ./build/obj/fatfs_syscall.o (symbol from plugin)
                                                  ./build/obj/ff.o (symbol from plugin)
ff_memfree                                        ./build/obj/fatfs_syscall.o (symbol from plugin)
                                                  ./build/obj/ff.o (symbol from plugin)
ff_oem2uni                                        ./build/obj/ffunicode.o (symbol from plugin)
                                                  ./build/obj/ff.o (symbol from plugin)
ff_uni2oem                                        ./build/obj/ffunicode.o (symbol from plugin)
                                                  ./build/obj/ff.o (symbol from plugin)
ff_wtoupper                                       ./build/obj/ffunicode.o (symbol from plugin)
                                                  ./build/obj/ff.o (symbol from plugin)
ffunicode.c.0acb7d30                              C:\Users\RAKIBU~1\AppData\Local\Temp\ccrPy3AJ.debug.temp.o
                                                  C:\Users\RAKIBU~1\AppData\Local\Temp\ch.elf.ULtIRf.ltrans0.ltrans.o
flashGetSectorOffset                              ./build/obj/hal_flash.o (symbol from plugin)
flashGetSectorSize                                ./build/obj/hal_flash.o (symbol from plugin)
flashWaitErase                                    ./build/obj/hal_flash.o (symbol from plugin)
get_fattime                                       ./build/obj/fatfs_diskio.o (symbol from plugin)
gnu_lto_v1                                        C:\Users\RAKIBU~1\AppData\Local\Temp\ccpYxvaX.debug.temp.o
                                                  C:\Users\RAKIBU~1\AppData\Local\Temp\ccexyFdV.debug.temp.o
                                                  C:\Users\RAKIBU~1\AppData\Local\Temp\ccZluKLS.debug.temp.o
                                                  C:\Users\RAKIBU~1\AppData\Local\Temp\cckt4zVQ.debug.temp.o
                                                  C:\Users\RAKIBU~1\AppData\Local\Temp\ccnttPtN.debug.temp.o
                                                  C:\Users\RAKIBU~1\AppData\Local\Temp\ccKjuvHK.debug.temp.o
                                                  C:\Users\RAKIBU~1\AppData\Local\Temp\ccRJBpWK.debug.temp.o
                                                  C:\Users\RAKIBU~1\AppData\Local\Temp\ccmCpTQL.debug.temp.o
                                                  C:\Users\RAKIBU~1\AppData\Local\Temp\cctSjtlM.debug.temp.o
                                                  C:\Users\RAKIBU~1\AppData\Local\Temp\ccgqGw5K.debug.temp.o
                                                  C:\Users\RAKIBU~1\AppData\Local\Temp\cchbm8uK.debug.temp.o
                                                  C:\Users\RAKIBU~1\AppData\Local\Temp\ccEnwLZM.debug.temp.o
                                                  C:\Users\RAKIBU~1\AppData\Local\Temp\cc9bu55P.debug.temp.o
                                                  C:\Users\RAKIBU~1\AppData\Local\Temp\ccOzRCwR.debug.temp.o
                                                  C:\Users\RAKIBU~1\AppData\Local\Temp\ccX2tSGT.debug.temp.o
                                                  C:\Users\RAKIBU~1\AppData\Local\Temp\ccWGiAmV.debug.temp.o
                                                  C:\Users\RAKIBU~1\AppData\Local\Temp\ccL3iN7Z.debug.temp.o
                                                  C:\Users\RAKIBU~1\AppData\Local\Temp\cca7x3x5.debug.temp.o
                                                  C:\Users\RAKIBU~1\AppData\Local\Temp\ccxV1mi9.debug.temp.o
                                                  C:\Users\RAKIBU~1\AppData\Local\Temp\ccWMCzNd.debug.temp.o
                                                  C:\Users\RAKIBU~1\AppData\Local\Temp\cc78exNh.debug.temp.o
                                                  C:\Users\RAKIBU~1\AppData\Local\Temp\cc4zVzSo.debug.temp.o
                                                  C:\Users\RAKIBU~1\AppData\Local\Temp\ccBhtmDw.debug.temp.o
                                                  C:\Users\RAKIBU~1\AppData\Local\Temp\ccQljqMC.debug.temp.o
                                                  C:\Users\RAKIBU~1\AppData\Local\Temp\ccrPy3AJ.debug.temp.o
                                                  C:\Users\RAKIBU~1\AppData\Local\Temp\ccC99UZP.debug.temp.o
                                                  C:\Users\RAKIBU~1\AppData\Local\Temp\cc3LaxpZ.debug.temp.o
                                                  C:\Users\RAKIBU~1\AppData\Local\Temp\ccOe3Py9.debug.temp.o
                                                  C:\Users\RAKIBU~1\AppData\Local\Temp\cchAui2h.debug.temp.o
                                                  C:\Users\RAKIBU~1\AppData\Local\Temp\cc4laSbr.debug.temp.o
                                                  C:\Users\RAKIBU~1\AppData\Local\Temp\ccNp4TUz.debug.temp.o
                                                  C:\Users\RAKIBU~1\AppData\Local\Temp\ccaO6jEL.debug.temp.o
                                                  C:\Users\RAKIBU~1\AppData\Local\Temp\cc7ypz8X.debug.temp.o
                                                  C:\Users\RAKIBU~1\AppData\Local\Temp\ccAOt7V8.debug.temp.o
                                                  C:\Users\RAKIBU~1\AppData\Local\Temp\ccrCn4pk.debug.temp.o
                                                  C:\Users\RAKIBU~1\AppData\Local\Temp\cc2lLTsv.debug.temp.o
                                                  C:\Users\RAKIBU~1\AppData\Local\Temp\ccZCwjxJ.debug.temp.o
                                                  C:\Users\RAKIBU~1\AppData\Local\Temp\ccKt1dhY.debug.temp.o
                                                  C:\Users\RAKIBU~1\AppData\Local\Temp\ccFTVllb.debug.temp.o
                                                  C:\Users\RAKIBU~1\AppData\Local\Temp\ccy69Y8o.debug.temp.o
                                                  C:\Users\RAKIBU~1\AppData\Local\Temp\ccD7UjYF.debug.temp.o
                                                  C:\Users\RAKIBU~1\AppData\Local\Temp\ccqx9oiW.debug.temp.o
                                                  C:\Users\RAKIBU~1\AppData\Local\Temp\ccbihpmd.debug.temp.o
                                                  C:\Users\RAKIBU~1\AppData\Local\Temp\ccacQuKs.debug.temp.o
                                                  C:\Users\RAKIBU~1\AppData\Local\Temp\ccdyOYNI.debug.temp.o
                                                  C:\Users\RAKIBU~1\AppData\Local\Temp\ccSRFCX1.debug.temp.o
                                                  C:\Users\RAKIBU~1\AppData\Local\Temp\ccLmp5Bk.debug.temp.o
                                                  C:\Users\RAKIBU~1\AppData\Local\Temp\cc6T6f0D.debug.temp.o
                                                  C:\Users\RAKIBU~1\AppData\Local\Temp\ccrfkuIV.debug.temp.o
                                                  C:\Users\RAKIBU~1\AppData\Local\Temp\ccGTIU6d.debug.temp.o
                                                  C:\Users\RAKIBU~1\AppData\Local\Temp\ccTqmAAz.debug.temp.o
                                                  C:\Users\RAKIBU~1\AppData\Local\Temp\cci81NJV.debug.temp.o
                                                  C:\Users\RAKIBU~1\AppData\Local\Temp\ccXBqgoh.debug.temp.o
                                                  C:\Users\RAKIBU~1\AppData\Local\Temp\ccgSPRmB.debug.temp.o
                                                  C:\Users\RAKIBU~1\AppData\Local\Temp\ccLM084V.debug.temp.o
                                                  C:\Users\RAKIBU~1\AppData\Local\Temp\ccaY5fOj.debug.temp.o
                                                  C:\Users\RAKIBU~1\AppData\Local\Temp\cc9rP78H.debug.temp.o
                                                  C:\Users\RAKIBU~1\AppData\Local\Temp\cccOzMN4.debug.temp.o
                                                  C:\Users\RAKIBU~1\AppData\Local\Temp\ccFDYt3r.debug.temp.o
                                                  C:\Users\RAKIBU~1\AppData\Local\Temp\ccWAiDOO.debug.temp.o
                                                  C:\Users\RAKIBU~1\AppData\Local\Temp\cclCSeAe.debug.temp.o
                                                  C:\Users\RAKIBU~1\AppData\Local\Temp\cca76SWE.debug.temp.o
                                                  C:\Users\RAKIBU~1\AppData\Local\Temp\ccl1YbE3.debug.temp.o
                                                  C:\Users\RAKIBU~1\AppData\Local\Temp\ccQfGwWs.debug.temp.o
                                                  C:\Users\RAKIBU~1\AppData\Local\Temp\ccp63NkV.debug.temp.o
                                                  C:\Users\RAKIBU~1\AppData\Local\Temp\ccQAGjoo.debug.temp.o
                                                  C:\Users\RAKIBU~1\AppData\Local\Temp\ccVlNPLP.debug.temp.o
                                                  C:\Users\RAKIBU~1\AppData\Local\Temp\ccq6WkEg.debug.temp.o
                                                  C:\Users\RAKIBU~1\AppData\Local\Temp\cct8M7cI.debug.temp.o
                                                  C:\Users\RAKIBU~1\AppData\Local\Temp\ccEifbRc.debug.temp.o
                                                  C:\Users\RAKIBU~1\AppData\Local\Temp\ccDuRjaI.debug.temp.o
                                                  C:\Users\RAKIBU~1\AppData\Local\Temp\ccMfTFNb.debug.temp.o
                                                  C:\Users\RAKIBU~1\AppData\Local\Temp\ccxo170E.debug.temp.o
                                                  C:\Users\RAKIBU~1\AppData\Local\Temp\ccuHb8T8.debug.temp.o
                                                  C:\Users\RAKIBU~1\AppData\Local\Temp\ccxvOrNF.debug.temp.o
                                                  C:\Users\RAKIBU~1\AppData\Local\Temp\ccwdJDrd.debug.temp.o
                                                  C:\Users\RAKIBU~1\AppData\Local\Temp\ccRgbWpJ.debug.temp.o
                                                  C:\Users\RAKIBU~1\AppData\Local\Temp\ccmroM3f.debug.temp.o
                                                  C:\Users\RAKIBU~1\AppData\Local\Temp\cch5nJgM.debug.temp.o
hal.c.446329e9                                    C:\Users\RAKIBU~1\AppData\Local\Temp\ccmroM3f.debug.temp.o
                                                  C:\Users\RAKIBU~1\AppData\Local\Temp\ch.elf.ULtIRf.ltrans1.ltrans.o
                                                  C:\Users\RAKIBU~1\AppData\Local\Temp\ch.elf.ULtIRf.ltrans0.ltrans.o
halInit                                           ./build/obj/hal.o (symbol from plugin)
                                                  ./build/obj/main.o (symbol from plugin)
hal_buffers.c.575e08d3                            C:\Users\RAKIBU~1\AppData\Local\Temp\ccwdJDrd.debug.temp.o
                                                  C:\Users\RAKIBU~1\AppData\Local\Temp\ch.elf.ULtIRf.ltrans1.ltrans.o
                                                  C:\Users\RAKIBU~1\AppData\Local\Temp\ch.elf.ULtIRf.ltrans0.ltrans.o
hal_efl_lld.c.2a6b7e4b                            C:\Users\RAKIBU~1\AppData\Local\Temp\ccp63NkV.debug.temp.o
hal_flash.c.a1212400                              C:\Users\RAKIBU~1\AppData\Local\Temp\ccuHb8T8.debug.temp.o
                                                  C:\Users\RAKIBU~1\AppData\Local\Temp\ch.elf.ULtIRf.ltrans1.ltrans.o
                                                  C:\Users\RAKIBU~1\AppData\Local\Temp\ch.elf.ULtIRf.ltrans0.ltrans.o
hal_lld.c.d07cf0bc                                C:\Users\RAKIBU~1\AppData\Local\Temp\ccQAGjoo.debug.temp.o
                                                  C:\Users\RAKIBU~1\AppData\Local\Temp\ch.elf.ULtIRf.ltrans1.ltrans.o
                                                  C:\Users\RAKIBU~1\AppData\Local\Temp\ch.elf.ULtIRf.ltrans0.ltrans.o
hal_lld_init                                      ./build/obj/hal_lld.o (symbol from plugin)
                                                  ./build/obj/hal.o (symbol from plugin)
hal_mmc_spi.c.0ae72ec3                            C:\Users\RAKIBU~1\AppData\Local\Temp\ccMfTFNb.debug.temp.o
                                                  C:\Users\RAKIBU~1\AppData\Local\Temp\ch.elf.ULtIRf.ltrans1.ltrans.o
                                                  C:\Users\RAKIBU~1\AppData\Local\Temp\ch.elf.ULtIRf.ltrans0.ltrans.o
hal_mmcsd.c.52f32186                              C:\Users\RAKIBU~1\AppData\Local\Temp\ccxo170E.debug.temp.o
                                                  C:\Users\RAKIBU~1\AppData\Local\Temp\ch.elf.ULtIRf.ltrans1.ltrans.o
                                                  C:\Users\RAKIBU~1\AppData\Local\Temp\ch.elf.ULtIRf.ltrans0.ltrans.o
hal_pal.c.50d4f3a2                                C:\Users\RAKIBU~1\AppData\Local\Temp\ccDuRjaI.debug.temp.o
                                                  C:\Users\RAKIBU~1\AppData\Local\Temp\ch.elf.ULtIRf.ltrans1.ltrans.o
                                                  C:\Users\RAKIBU~1\AppData\Local\Temp\ch.elf.ULtIRf.ltrans0.ltrans.o
hal_pal_lld.c.100c10c8                            C:\Users\RAKIBU~1\AppData\Local\Temp\ccl1YbE3.debug.temp.o
                                                  C:\Users\RAKIBU~1\AppData\Local\Temp\ch.elf.ULtIRf.ltrans0.ltrans.o
hal_queues.c.24673bf5                             C:\Users\RAKIBU~1\AppData\Local\Temp\ccxvOrNF.debug.temp.o
                                                  C:\Users\RAKIBU~1\AppData\Local\Temp\ch.elf.ULtIRf.ltrans1.ltrans.o
                                                  C:\Users\RAKIBU~1\AppData\Local\Temp\ch.elf.ULtIRf.ltrans0.ltrans.o
hal_serial.c.94ede67d                             C:\Users\RAKIBU~1\AppData\Local\Temp\ccEifbRc.debug.temp.o
                                                  C:\Users\RAKIBU~1\AppData\Local\Temp\ch.elf.ULtIRf.ltrans1.ltrans.o
                                                  C:\Users\RAKIBU~1\AppData\Local\Temp\ch.elf.ULtIRf.ltrans0.ltrans.o
hal_serial_lld.c.c61e4a3b                         C:\Users\RAKIBU~1\AppData\Local\Temp\ccWAiDOO.debug.temp.o
                                                  C:\Users\RAKIBU~1\AppData\Local\Temp\ch.elf.ULtIRf.ltrans1.ltrans.o
                                                  C:\Users\RAKIBU~1\AppData\Local\Temp\ch.elf.ULtIRf.ltrans0.ltrans.o
hal_spi.c.80ad946b                                C:\Users\RAKIBU~1\AppData\Local\Temp\cct8M7cI.debug.temp.o
                                                  C:\Users\RAKIBU~1\AppData\Local\Temp\ch.elf.ULtIRf.ltrans1.ltrans.o
                                                  C:\Users\RAKIBU~1\AppData\Local\Temp\ch.elf.ULtIRf.ltrans0.ltrans.o
hal_spi_lld.c.ef3f8922                            C:\Users\RAKIBU~1\AppData\Local\Temp\cca76SWE.debug.temp.o
                                                  C:\Users\RAKIBU~1\AppData\Local\Temp\ch.elf.ULtIRf.ltrans1.ltrans.o
                                                  C:\Users\RAKIBU~1\AppData\Local\Temp\ch.elf.ULtIRf.ltrans0.ltrans.o
hal_st.c.72777ac1                                 C:\Users\RAKIBU~1\AppData\Local\Temp\ccRgbWpJ.debug.temp.o
                                                  C:\Users\RAKIBU~1\AppData\Local\Temp\ch.elf.ULtIRf.ltrans1.ltrans.o
                                                  C:\Users\RAKIBU~1\AppData\Local\Temp\ch.elf.ULtIRf.ltrans0.ltrans.o
hal_st_lld.c.cd87a62d                             C:\Users\RAKIBU~1\AppData\Local\Temp\cclCSeAe.debug.temp.o
                                                  C:\Users\RAKIBU~1\AppData\Local\Temp\ch.elf.ULtIRf.ltrans1.ltrans.o
                                                  C:\Users\RAKIBU~1\AppData\Local\Temp\ch.elf.ULtIRf.ltrans0.ltrans.o
ibqGetEmptyBufferI                                ./build/obj/hal_buffers.o (symbol from plugin)
ibqGetFullBufferTimeout                           ./build/obj/hal_buffers.o (symbol from plugin)
ibqGetFullBufferTimeoutS                          ./build/obj/hal_buffers.o (symbol from plugin)
ibqGetTimeout                                     ./build/obj/hal_buffers.o (symbol from plugin)
ibqObjectInit                                     ./build/obj/hal_buffers.o (symbol from plugin)
ibqPostFullBufferI                                ./build/obj/hal_buffers.o (symbol from plugin)
ibqReadTimeout                                    ./build/obj/hal_buffers.o (symbol from plugin)
ibqReleaseEmptyBuffer                             ./build/obj/hal_buffers.o (symbol from plugin)
ibqReleaseEmptyBufferS                            ./build/obj/hal_buffers.o (symbol from plugin)
ibqResetI                                         ./build/obj/hal_buffers.o (symbol from plugin)
iqGetI                                            ./build/obj/hal_queues.o (symbol from plugin)
iqGetTimeout                                      ./build/obj/hal_queues.o (symbol from plugin)
                                                  ./build/obj/hal_serial.o (symbol from plugin)
iqObjectInit                                      ./build/obj/hal_queues.o (symbol from plugin)
                                                  ./build/obj/hal_serial.o (symbol from plugin)
iqPutI                                            ./build/obj/hal_queues.o (symbol from plugin)
                                                  ./build/obj/hal_serial.o (symbol from plugin)
iqReadI                                           ./build/obj/hal_queues.o (symbol from plugin)
iqReadTimeout                                     ./build/obj/hal_queues.o (symbol from plugin)
                                                  ./build/obj/hal_serial.o (symbol from plugin)
iqResetI                                          ./build/obj/hal_queues.o (symbol from plugin)
                                                  ./build/obj/hal_serial.o (symbol from plugin)
irqDeinit                                         ./build/obj/stm32_isr.o (symbol from plugin)
irqInit                                           ./build/obj/stm32_isr.o (symbol from plugin)
                                                  ./build/obj/hal_lld.o (symbol from plugin)
main                                              C:\Users\RAKIBU~1\AppData\Local\Temp\ch.elf.ULtIRf.ltrans0.ltrans.o
                                                  ./build/obj/main.o (symbol from plugin)
                                                  ./build/obj/crt0_v7m.o
main.c.d8c48950                                   C:\Users\RAKIBU~1\AppData\Local\Temp\ccpYxvaX.debug.temp.o
                                                  C:\Users\RAKIBU~1\AppData\Local\Temp\ch.elf.ULtIRf.ltrans1.ltrans.o
                                                  C:\Users\RAKIBU~1\AppData\Local\Temp\ch.elf.ULtIRf.ltrans0.ltrans.o
memcmp                                            c:/chibistudio/tools/gnu tools arm embedded/9.0 2019q4/bin/../lib/gcc/arm-none-eabi/9.2.1/../../../../arm-none-eabi/lib/thumb/v7-m/nofp\libg.a(lib_a-memcmp.o)
                                                  C:\Users\RAKIBU~1\AppData\Local\Temp\ch.elf.ULtIRf.ltrans0.ltrans.o
memcpy                                            c:/chibistudio/tools/gnu tools arm embedded/9.0 2019q4/bin/../lib/gcc/arm-none-eabi/9.2.1/../../../../arm-none-eabi/lib/thumb/v7-m/nofp\libg.a(lib_a-memcpy.o)
                                                  C:\Users\RAKIBU~1\AppData\Local\Temp\ch.elf.ULtIRf.ltrans1.ltrans.o
                                                  C:\Users\RAKIBU~1\AppData\Local\Temp\ch.elf.ULtIRf.ltrans0.ltrans.o
memset                                            c:/chibistudio/tools/gnu tools arm embedded/9.0 2019q4/bin/../lib/gcc/arm-none-eabi/9.2.1/../../../../arm-none-eabi/lib/thumb/v7-m/nofp\libg.a(lib_a-memset.o)
                                                  C:\Users\RAKIBU~1\AppData\Local\Temp\ch.elf.ULtIRf.ltrans0.ltrans.o
memstreams.c.4413b18c                             C:\Users\RAKIBU~1\AppData\Local\Temp\ccaO6jEL.debug.temp.o
mmcConnect                                        C:\Users\RAKIBU~1\AppData\Local\Temp\ch.elf.ULtIRf.ltrans1.ltrans.o
                                                  ./build/obj/hal_mmc_spi.o (symbol from plugin)
                                                  C:\Users\RAKIBU~1\AppData\Local\Temp\ch.elf.ULtIRf.ltrans0.ltrans.o
                                                  ./build/obj/main.o (symbol from plugin)
mmcDisconnect                                     C:\Users\RAKIBU~1\AppData\Local\Temp\ch.elf.ULtIRf.ltrans1.ltrans.o
                                                  ./build/obj/hal_mmc_spi.o (symbol from plugin)
                                                  C:\Users\RAKIBU~1\AppData\Local\Temp\ch.elf.ULtIRf.ltrans0.ltrans.o
                                                  ./build/obj/main.o (symbol from plugin)
mmcErase                                          ./build/obj/hal_mmc_spi.o (symbol from plugin)
mmcGetInfo                                        C:\Users\RAKIBU~1\AppData\Local\Temp\ch.elf.ULtIRf.ltrans1.ltrans.o
                                                  ./build/obj/hal_mmc_spi.o (symbol from plugin)
                                                  C:\Users\RAKIBU~1\AppData\Local\Temp\ch.elf.ULtIRf.ltrans0.ltrans.o
mmcInit                                           ./build/obj/hal_mmc_spi.o (symbol from plugin)
                                                  ./build/obj/hal.o (symbol from plugin)
mmcObjectInit                                     ./build/obj/hal_mmc_spi.o (symbol from plugin)
                                                  ./build/obj/main.o (symbol from plugin)
mmcSequentialRead                                 C:\Users\RAKIBU~1\AppData\Local\Temp\ch.elf.ULtIRf.ltrans1.ltrans.o
                                                  ./build/obj/hal_mmc_spi.o (symbol from plugin)
                                                  C:\Users\RAKIBU~1\AppData\Local\Temp\ch.elf.ULtIRf.ltrans0.ltrans.o
                                                  ./build/obj/fatfs_diskio.o (symbol from plugin)
mmcSequentialWrite                                ./build/obj/hal_mmc_spi.o (symbol from plugin)
                                                  ./build/obj/fatfs_diskio.o (symbol from plugin)
mmcStart                                          ./build/obj/hal_mmc_spi.o (symbol from plugin)
                                                  ./build/obj/main.o (symbol from plugin)
mmcStartSequentialRead                            C:\Users\RAKIBU~1\AppData\Local\Temp\ch.elf.ULtIRf.ltrans1.ltrans.o
                                                  ./build/obj/hal_mmc_spi.o (symbol from plugin)
                                                  C:\Users\RAKIBU~1\AppData\Local\Temp\ch.elf.ULtIRf.ltrans0.ltrans.o
                                                  ./build/obj/fatfs_diskio.o (symbol from plugin)
mmcStartSequentialWrite                           ./build/obj/hal_mmc_spi.o (symbol from plugin)
                                                  ./build/obj/fatfs_diskio.o (symbol from plugin)
mmcStop                                           ./build/obj/hal_mmc_spi.o (symbol from plugin)
mmcStopSequentialRead                             ./build/obj/hal_mmc_spi.o (symbol from plugin)
                                                  ./build/obj/fatfs_diskio.o (symbol from plugin)
mmcStopSequentialRead.part.0                      C:\Users\RAKIBU~1\AppData\Local\Temp\ch.elf.ULtIRf.ltrans1.ltrans.o
                                                  C:\Users\RAKIBU~1\AppData\Local\Temp\ch.elf.ULtIRf.ltrans0.ltrans.o
mmcStopSequentialWrite                            ./build/obj/hal_mmc_spi.o (symbol from plugin)
                                                  ./build/obj/fatfs_diskio.o (symbol from plugin)
mmcSync                                           C:\Users\RAKIBU~1\AppData\Local\Temp\ch.elf.ULtIRf.ltrans1.ltrans.o
                                                  ./build/obj/hal_mmc_spi.o (symbol from plugin)
                                                  C:\Users\RAKIBU~1\AppData\Local\Temp\ch.elf.ULtIRf.ltrans0.ltrans.o
mmc_lld_is_card_inserted                          C:\Users\RAKIBU~1\AppData\Local\Temp\ch.elf.ULtIRf.ltrans1.ltrans.o
                                                  ./build/obj/board.o (symbol from plugin)
                                                  C:\Users\RAKIBU~1\AppData\Local\Temp\ch.elf.ULtIRf.ltrans0.ltrans.o
                                                  ./build/obj/hal_mmc_spi.o (symbol from plugin)
mmc_lld_is_write_protected                        C:\Users\RAKIBU~1\AppData\Local\Temp\ch.elf.ULtIRf.ltrans1.ltrans.o
                                                  ./build/obj/board.o (symbol from plugin)
                                                  C:\Users\RAKIBU~1\AppData\Local\Temp\ch.elf.ULtIRf.ltrans0.ltrans.o
                                                  ./build/obj/fatfs_diskio.o (symbol from plugin)
                                                  ./build/obj/hal_mmc_spi.o (symbol from plugin)
mmc_read.lto_priv.0                               C:\Users\RAKIBU~1\AppData\Local\Temp\ch.elf.ULtIRf.ltrans1.ltrans.o
                                                  C:\Users\RAKIBU~1\AppData\Local\Temp\ch.elf.ULtIRf.ltrans0.ltrans.o
mmc_write.lto_priv.0                              C:\Users\RAKIBU~1\AppData\Local\Temp\ch.elf.ULtIRf.ltrans1.ltrans.o
                                                  C:\Users\RAKIBU~1\AppData\Local\Temp\ch.elf.ULtIRf.ltrans0.ltrans.o
msObjectInit                                      ./build/obj/memstreams.o (symbol from plugin)
                                                  ./build/obj/chprintf.o (symbol from plugin)
notify2.lto_priv.0                                C:\Users\RAKIBU~1\AppData\Local\Temp\ch.elf.ULtIRf.ltrans1.ltrans.o
                                                  C:\Users\RAKIBU~1\AppData\Local\Temp\ch.elf.ULtIRf.ltrans0.ltrans.o
nullObjectInit                                    ./build/obj/nullstreams.o (symbol from plugin)
nullstreams.c.ff46a9cd                            C:\Users\RAKIBU~1\AppData\Local\Temp\ccNp4TUz.debug.temp.o
nvic.c.0219eec8                                   C:\Users\RAKIBU~1\AppData\Local\Temp\ccq6WkEg.debug.temp.o
                                                  C:\Users\RAKIBU~1\AppData\Local\Temp\ch.elf.ULtIRf.ltrans1.ltrans.o
                                                  C:\Users\RAKIBU~1\AppData\Local\Temp\ch.elf.ULtIRf.ltrans0.ltrans.o
nvicClearPending                                  ./build/obj/nvic.o (symbol from plugin)
nvicDisableVector                                 ./build/obj/nvic.o (symbol from plugin)
                                                  ./build/obj/hal_serial_lld.o (symbol from plugin)
                                                  ./build/obj/stm32_dma.o (symbol from plugin)
                                                  ./build/obj/stm32_isr.o (symbol from plugin)
nvicEnableVector                                  ./build/obj/nvic.o (symbol from plugin)
                                                  ./build/obj/hal_serial_lld.o (symbol from plugin)
                                                  ./build/obj/hal_st_lld.o (symbol from plugin)
                                                  ./build/obj/stm32_dma.o (symbol from plugin)
                                                  ./build/obj/stm32_isr.o (symbol from plugin)
nvicSetSystemHandlerPriority                      ./build/obj/nvic.o (symbol from plugin)
obqFlush                                          ./build/obj/hal_buffers.o (symbol from plugin)
obqGetEmptyBufferTimeout                          ./build/obj/hal_buffers.o (symbol from plugin)
obqGetEmptyBufferTimeoutS                         ./build/obj/hal_buffers.o (symbol from plugin)
obqGetFullBufferI                                 ./build/obj/hal_buffers.o (symbol from plugin)
obqObjectInit                                     ./build/obj/hal_buffers.o (symbol from plugin)
obqPostFullBuffer                                 ./build/obj/hal_buffers.o (symbol from plugin)
obqPostFullBufferS                                ./build/obj/hal_buffers.o (symbol from plugin)
obqPutTimeout                                     ./build/obj/hal_buffers.o (symbol from plugin)
obqReleaseEmptyBufferI                            ./build/obj/hal_buffers.o (symbol from plugin)
obqResetI                                         ./build/obj/hal_buffers.o (symbol from plugin)
obqTryFlushI                                      ./build/obj/hal_buffers.o (symbol from plugin)
obqWriteTimeout                                   ./build/obj/hal_buffers.o (symbol from plugin)
oqGetI                                            ./build/obj/hal_queues.o (symbol from plugin)
                                                  ./build/obj/hal_serial_lld.o (symbol from plugin)
                                                  ./build/obj/hal_serial.o (symbol from plugin)
oqObjectInit                                      ./build/obj/hal_queues.o (symbol from plugin)
                                                  ./build/obj/hal_serial.o (symbol from plugin)
oqPutI                                            ./build/obj/hal_queues.o (symbol from plugin)
oqPutTimeout                                      ./build/obj/hal_queues.o (symbol from plugin)
                                                  ./build/obj/hal_serial.o (symbol from plugin)
oqResetI                                          ./build/obj/hal_queues.o (symbol from plugin)
                                                  ./build/obj/hal_serial.o (symbol from plugin)
oqWriteI                                          ./build/obj/hal_queues.o (symbol from plugin)
oqWriteTimeout                                    ./build/obj/hal_queues.o (symbol from plugin)
                                                  ./build/obj/hal_serial.o (symbol from plugin)
osal.c.4cc5d452                                   C:\Users\RAKIBU~1\AppData\Local\Temp\cccOzMN4.debug.temp.o
oslib_test_001_001_execute.lto_priv.0             C:\Users\RAKIBU~1\AppData\Local\Temp\ch.elf.ULtIRf.ltrans0.ltrans.o
                                                  C:\Users\RAKIBU~1\AppData\Local\Temp\ch.elf.ULtIRf.ltrans1.ltrans.o
oslib_test_001_002_execute.lto_priv.0             C:\Users\RAKIBU~1\AppData\Local\Temp\ch.elf.ULtIRf.ltrans0.ltrans.o
                                                  C:\Users\RAKIBU~1\AppData\Local\Temp\ch.elf.ULtIRf.ltrans1.ltrans.o
oslib_test_001_003_execute.lto_priv.0             C:\Users\RAKIBU~1\AppData\Local\Temp\ch.elf.ULtIRf.ltrans0.ltrans.o
                                                  C:\Users\RAKIBU~1\AppData\Local\Temp\ch.elf.ULtIRf.ltrans1.ltrans.o
oslib_test_002_001_execute.lto_priv.0             C:\Users\RAKIBU~1\AppData\Local\Temp\ch.elf.ULtIRf.ltrans0.ltrans.o
                                                  C:\Users\RAKIBU~1\AppData\Local\Temp\ch.elf.ULtIRf.ltrans1.ltrans.o
oslib_test_002_001_setup.lto_priv.0               C:\Users\RAKIBU~1\AppData\Local\Temp\ch.elf.ULtIRf.ltrans0.ltrans.o
                                                  C:\Users\RAKIBU~1\AppData\Local\Temp\ch.elf.ULtIRf.ltrans1.ltrans.o
oslib_test_002_001_teardown.lto_priv.0            C:\Users\RAKIBU~1\AppData\Local\Temp\ch.elf.ULtIRf.ltrans0.ltrans.o
                                                  C:\Users\RAKIBU~1\AppData\Local\Temp\ch.elf.ULtIRf.ltrans1.ltrans.o
oslib_test_002_002_execute.lto_priv.0             C:\Users\RAKIBU~1\AppData\Local\Temp\ch.elf.ULtIRf.ltrans0.ltrans.o
                                                  C:\Users\RAKIBU~1\AppData\Local\Temp\ch.elf.ULtIRf.ltrans1.ltrans.o
oslib_test_002_002_setup.lto_priv.0               C:\Users\RAKIBU~1\AppData\Local\Temp\ch.elf.ULtIRf.ltrans0.ltrans.o
                                                  C:\Users\RAKIBU~1\AppData\Local\Temp\ch.elf.ULtIRf.ltrans1.ltrans.o
oslib_test_002_002_teardown.lto_priv.0            C:\Users\RAKIBU~1\AppData\Local\Temp\ch.elf.ULtIRf.ltrans0.ltrans.o
                                                  C:\Users\RAKIBU~1\AppData\Local\Temp\ch.elf.ULtIRf.ltrans1.ltrans.o
oslib_test_002_003_execute.lto_priv.0             C:\Users\RAKIBU~1\AppData\Local\Temp\ch.elf.ULtIRf.ltrans0.ltrans.o
                                                  C:\Users\RAKIBU~1\AppData\Local\Temp\ch.elf.ULtIRf.ltrans1.ltrans.o
oslib_test_002_003_setup.lto_priv.0               C:\Users\RAKIBU~1\AppData\Local\Temp\ch.elf.ULtIRf.ltrans0.ltrans.o
                                                  C:\Users\RAKIBU~1\AppData\Local\Temp\ch.elf.ULtIRf.ltrans1.ltrans.o
oslib_test_002_003_teardown.lto_priv.0            C:\Users\RAKIBU~1\AppData\Local\Temp\ch.elf.ULtIRf.ltrans0.ltrans.o
                                                  C:\Users\RAKIBU~1\AppData\Local\Temp\ch.elf.ULtIRf.ltrans1.ltrans.o
oslib_test_003_001_execute.lto_priv.0             C:\Users\RAKIBU~1\AppData\Local\Temp\ch.elf.ULtIRf.ltrans0.ltrans.o
                                                  C:\Users\RAKIBU~1\AppData\Local\Temp\ch.elf.ULtIRf.ltrans1.ltrans.o
oslib_test_003_001_setup.lto_priv.0               C:\Users\RAKIBU~1\AppData\Local\Temp\ch.elf.ULtIRf.ltrans0.ltrans.o
                                                  C:\Users\RAKIBU~1\AppData\Local\Temp\ch.elf.ULtIRf.ltrans1.ltrans.o
oslib_test_003_002_execute.lto_priv.0             C:\Users\RAKIBU~1\AppData\Local\Temp\ch.elf.ULtIRf.ltrans0.ltrans.o
                                                  C:\Users\RAKIBU~1\AppData\Local\Temp\ch.elf.ULtIRf.ltrans1.ltrans.o
oslib_test_003_002_setup.lto_priv.0               C:\Users\RAKIBU~1\AppData\Local\Temp\ch.elf.ULtIRf.ltrans0.ltrans.o
                                                  C:\Users\RAKIBU~1\AppData\Local\Temp\ch.elf.ULtIRf.ltrans1.ltrans.o
oslib_test_004_001_execute.lto_priv.0             C:\Users\RAKIBU~1\AppData\Local\Temp\ch.elf.ULtIRf.ltrans0.ltrans.o
                                                  C:\Users\RAKIBU~1\AppData\Local\Temp\ch.elf.ULtIRf.ltrans1.ltrans.o
oslib_test_005_001_execute.lto_priv.0             C:\Users\RAKIBU~1\AppData\Local\Temp\ch.elf.ULtIRf.ltrans0.ltrans.o
                                                  C:\Users\RAKIBU~1\AppData\Local\Temp\ch.elf.ULtIRf.ltrans1.ltrans.o
oslib_test_006_001_execute.lto_priv.0             C:\Users\RAKIBU~1\AppData\Local\Temp\ch.elf.ULtIRf.ltrans0.ltrans.o
                                                  C:\Users\RAKIBU~1\AppData\Local\Temp\ch.elf.ULtIRf.ltrans1.ltrans.o
oslib_test_007_001_execute.lto_priv.0             C:\Users\RAKIBU~1\AppData\Local\Temp\ch.elf.ULtIRf.ltrans0.ltrans.o
                                                  C:\Users\RAKIBU~1\AppData\Local\Temp\ch.elf.ULtIRf.ltrans1.ltrans.o
oslib_test_007_001_setup.lto_priv.0               C:\Users\RAKIBU~1\AppData\Local\Temp\ch.elf.ULtIRf.ltrans0.ltrans.o
                                                  C:\Users\RAKIBU~1\AppData\Local\Temp\ch.elf.ULtIRf.ltrans1.ltrans.o
oslib_test_007_002_execute.lto_priv.0             C:\Users\RAKIBU~1\AppData\Local\Temp\ch.elf.ULtIRf.ltrans0.ltrans.o
                                                  C:\Users\RAKIBU~1\AppData\Local\Temp\ch.elf.ULtIRf.ltrans1.ltrans.o
oslib_test_007_002_setup.lto_priv.0               C:\Users\RAKIBU~1\AppData\Local\Temp\ch.elf.ULtIRf.ltrans0.ltrans.o
                                                  C:\Users\RAKIBU~1\AppData\Local\Temp\ch.elf.ULtIRf.ltrans1.ltrans.o
oslib_test_007_003_execute.lto_priv.0             C:\Users\RAKIBU~1\AppData\Local\Temp\ch.elf.ULtIRf.ltrans0.ltrans.o
                                                  C:\Users\RAKIBU~1\AppData\Local\Temp\ch.elf.ULtIRf.ltrans1.ltrans.o
oslib_test_007_003_setup.lto_priv.0               C:\Users\RAKIBU~1\AppData\Local\Temp\ch.elf.ULtIRf.ltrans0.ltrans.o
                                                  C:\Users\RAKIBU~1\AppData\Local\Temp\ch.elf.ULtIRf.ltrans1.ltrans.o
oslib_test_008_001_execute.lto_priv.0             C:\Users\RAKIBU~1\AppData\Local\Temp\ch.elf.ULtIRf.ltrans0.ltrans.o
                                                  C:\Users\RAKIBU~1\AppData\Local\Temp\ch.elf.ULtIRf.ltrans1.ltrans.o
oslib_test_008_001_setup.lto_priv.0               C:\Users\RAKIBU~1\AppData\Local\Temp\ch.elf.ULtIRf.ltrans0.ltrans.o
                                                  C:\Users\RAKIBU~1\AppData\Local\Temp\ch.elf.ULtIRf.ltrans1.ltrans.o
oslib_test_008_002_execute.lto_priv.0             C:\Users\RAKIBU~1\AppData\Local\Temp\ch.elf.ULtIRf.ltrans0.ltrans.o
                                                  C:\Users\RAKIBU~1\AppData\Local\Temp\ch.elf.ULtIRf.ltrans1.ltrans.o
oslib_test_009_001_execute.lto_priv.0             C:\Users\RAKIBU~1\AppData\Local\Temp\ch.elf.ULtIRf.ltrans0.ltrans.o
                                                  C:\Users\RAKIBU~1\AppData\Local\Temp\ch.elf.ULtIRf.ltrans1.ltrans.o
oslib_test_009_001_teardown.lto_priv.0            C:\Users\RAKIBU~1\AppData\Local\Temp\ch.elf.ULtIRf.ltrans0.ltrans.o
                                                  C:\Users\RAKIBU~1\AppData\Local\Temp\ch.elf.ULtIRf.ltrans1.ltrans.o
oslib_test_009_002_execute.lto_priv.0             C:\Users\RAKIBU~1\AppData\Local\Temp\ch.elf.ULtIRf.ltrans0.ltrans.o
                                                  C:\Users\RAKIBU~1\AppData\Local\Temp\ch.elf.ULtIRf.ltrans1.ltrans.o
oslib_test_009_002_teardown.lto_priv.0            C:\Users\RAKIBU~1\AppData\Local\Temp\ch.elf.ULtIRf.ltrans0.ltrans.o
                                                  C:\Users\RAKIBU~1\AppData\Local\Temp\ch.elf.ULtIRf.ltrans1.ltrans.o
oslib_test_009_003_execute.lto_priv.0             C:\Users\RAKIBU~1\AppData\Local\Temp\ch.elf.ULtIRf.ltrans0.ltrans.o
                                                  C:\Users\RAKIBU~1\AppData\Local\Temp\ch.elf.ULtIRf.ltrans1.ltrans.o
oslib_test_009_003_teardown.lto_priv.0            C:\Users\RAKIBU~1\AppData\Local\Temp\ch.elf.ULtIRf.ltrans0.ltrans.o
                                                  C:\Users\RAKIBU~1\AppData\Local\Temp\ch.elf.ULtIRf.ltrans1.ltrans.o
oslib_test_009_004_execute.lto_priv.0             C:\Users\RAKIBU~1\AppData\Local\Temp\ch.elf.ULtIRf.ltrans0.ltrans.o
                                                  C:\Users\RAKIBU~1\AppData\Local\Temp\ch.elf.ULtIRf.ltrans1.ltrans.o
oslib_test_009_004_teardown.lto_priv.0            C:\Users\RAKIBU~1\AppData\Local\Temp\ch.elf.ULtIRf.ltrans0.ltrans.o
                                                  C:\Users\RAKIBU~1\AppData\Local\Temp\ch.elf.ULtIRf.ltrans1.ltrans.o
oslib_test_009_005_execute.lto_priv.0             C:\Users\RAKIBU~1\AppData\Local\Temp\ch.elf.ULtIRf.ltrans0.ltrans.o
                                                  C:\Users\RAKIBU~1\AppData\Local\Temp\ch.elf.ULtIRf.ltrans1.ltrans.o
oslib_test_009_005_teardown.lto_priv.0            C:\Users\RAKIBU~1\AppData\Local\Temp\ch.elf.ULtIRf.ltrans0.ltrans.o
                                                  C:\Users\RAKIBU~1\AppData\Local\Temp\ch.elf.ULtIRf.ltrans1.ltrans.o
oslib_test_009_006_execute.lto_priv.0             C:\Users\RAKIBU~1\AppData\Local\Temp\ch.elf.ULtIRf.ltrans0.ltrans.o
                                                  C:\Users\RAKIBU~1\AppData\Local\Temp\ch.elf.ULtIRf.ltrans1.ltrans.o
oslib_test_009_006_teardown.lto_priv.0            C:\Users\RAKIBU~1\AppData\Local\Temp\ch.elf.ULtIRf.ltrans0.ltrans.o
                                                  C:\Users\RAKIBU~1\AppData\Local\Temp\ch.elf.ULtIRf.ltrans1.ltrans.o
oslib_test_root.c.894cb7a9                        C:\Users\RAKIBU~1\AppData\Local\Temp\cchbm8uK.debug.temp.o
                                                  C:\Users\RAKIBU~1\AppData\Local\Temp\ch.elf.ULtIRf.ltrans1.ltrans.o
oslib_test_sequence_001                           ./build/obj/oslib_test_sequence_001.o (symbol from plugin)
                                                  ./build/obj/oslib_test_root.o (symbol from plugin)
oslib_test_sequence_001.c.7eea7997                C:\Users\RAKIBU~1\AppData\Local\Temp\ccgqGw5K.debug.temp.o
                                                  C:\Users\RAKIBU~1\AppData\Local\Temp\ch.elf.ULtIRf.ltrans1.ltrans.o
                                                  C:\Users\RAKIBU~1\AppData\Local\Temp\ch.elf.ULtIRf.ltrans0.ltrans.o
oslib_test_sequence_001_array                     ./build/obj/oslib_test_sequence_001.o (symbol from plugin)
oslib_test_sequence_002                           ./build/obj/oslib_test_sequence_002.o (symbol from plugin)
                                                  ./build/obj/oslib_test_root.o (symbol from plugin)
oslib_test_sequence_002.c.6519db63                C:\Users\RAKIBU~1\AppData\Local\Temp\cctSjtlM.debug.temp.o
                                                  C:\Users\RAKIBU~1\AppData\Local\Temp\ch.elf.ULtIRf.ltrans1.ltrans.o
                                                  C:\Users\RAKIBU~1\AppData\Local\Temp\ch.elf.ULtIRf.ltrans0.ltrans.o
oslib_test_sequence_002_array                     ./build/obj/oslib_test_sequence_002.o (symbol from plugin)
oslib_test_sequence_003                           ./build/obj/oslib_test_sequence_003.o (symbol from plugin)
                                                  ./build/obj/oslib_test_root.o (symbol from plugin)
oslib_test_sequence_003.c.06aa96cc                C:\Users\RAKIBU~1\AppData\Local\Temp\ccmCpTQL.debug.temp.o
                                                  C:\Users\RAKIBU~1\AppData\Local\Temp\ch.elf.ULtIRf.ltrans1.ltrans.o
                                                  C:\Users\RAKIBU~1\AppData\Local\Temp\ch.elf.ULtIRf.ltrans0.ltrans.o
oslib_test_sequence_003_array                     ./build/obj/oslib_test_sequence_003.o (symbol from plugin)
oslib_test_sequence_004                           ./build/obj/oslib_test_sequence_004.o (symbol from plugin)
                                                  ./build/obj/oslib_test_root.o (symbol from plugin)
oslib_test_sequence_004.c.11222e6b                C:\Users\RAKIBU~1\AppData\Local\Temp\ccRJBpWK.debug.temp.o
                                                  C:\Users\RAKIBU~1\AppData\Local\Temp\ch.elf.ULtIRf.ltrans1.ltrans.o
                                                  C:\Users\RAKIBU~1\AppData\Local\Temp\ch.elf.ULtIRf.ltrans0.ltrans.o
oslib_test_sequence_004_array                     ./build/obj/oslib_test_sequence_004.o (symbol from plugin)
oslib_test_sequence_005                           ./build/obj/oslib_test_sequence_005.o (symbol from plugin)
                                                  ./build/obj/oslib_test_root.o (symbol from plugin)
oslib_test_sequence_005.c.0b12a24b                C:\Users\RAKIBU~1\AppData\Local\Temp\ccKjuvHK.debug.temp.o
                                                  C:\Users\RAKIBU~1\AppData\Local\Temp\ch.elf.ULtIRf.ltrans1.ltrans.o
                                                  C:\Users\RAKIBU~1\AppData\Local\Temp\ch.elf.ULtIRf.ltrans0.ltrans.o
oslib_test_sequence_005_array                     ./build/obj/oslib_test_sequence_005.o (symbol from plugin)
oslib_test_sequence_006                           ./build/obj/oslib_test_sequence_006.o (symbol from plugin)
                                                  ./build/obj/oslib_test_root.o (symbol from plugin)
oslib_test_sequence_006.c.8100ea22                C:\Users\RAKIBU~1\AppData\Local\Temp\ccnttPtN.debug.temp.o
                                                  C:\Users\RAKIBU~1\AppData\Local\Temp\ch.elf.ULtIRf.ltrans1.ltrans.o
                                                  C:\Users\RAKIBU~1\AppData\Local\Temp\ch.elf.ULtIRf.ltrans0.ltrans.o
oslib_test_sequence_006_array                     ./build/obj/oslib_test_sequence_006.o (symbol from plugin)
oslib_test_sequence_007                           ./build/obj/oslib_test_sequence_007.o (symbol from plugin)
                                                  ./build/obj/oslib_test_root.o (symbol from plugin)
oslib_test_sequence_007.c.4f9b76c8                C:\Users\RAKIBU~1\AppData\Local\Temp\cckt4zVQ.debug.temp.o
                                                  C:\Users\RAKIBU~1\AppData\Local\Temp\ch.elf.ULtIRf.ltrans1.ltrans.o
                                                  C:\Users\RAKIBU~1\AppData\Local\Temp\ch.elf.ULtIRf.ltrans0.ltrans.o
oslib_test_sequence_007_array                     ./build/obj/oslib_test_sequence_007.o (symbol from plugin)
oslib_test_sequence_008                           ./build/obj/oslib_test_sequence_008.o (symbol from plugin)
                                                  ./build/obj/oslib_test_root.o (symbol from plugin)
oslib_test_sequence_008.c.97aace2c                C:\Users\RAKIBU~1\AppData\Local\Temp\ccZluKLS.debug.temp.o
                                                  C:\Users\RAKIBU~1\AppData\Local\Temp\ch.elf.ULtIRf.ltrans1.ltrans.o
                                                  C:\Users\RAKIBU~1\AppData\Local\Temp\ch.elf.ULtIRf.ltrans0.ltrans.o
oslib_test_sequence_008_array                     ./build/obj/oslib_test_sequence_008.o (symbol from plugin)
oslib_test_sequence_009                           ./build/obj/oslib_test_sequence_009.o (symbol from plugin)
                                                  ./build/obj/oslib_test_root.o (symbol from plugin)
oslib_test_sequence_009.c.ac627467                C:\Users\RAKIBU~1\AppData\Local\Temp\ccexyFdV.debug.temp.o
                                                  C:\Users\RAKIBU~1\AppData\Local\Temp\ch.elf.ULtIRf.ltrans1.ltrans.o
                                                  C:\Users\RAKIBU~1\AppData\Local\Temp\ch.elf.ULtIRf.ltrans0.ltrans.o
oslib_test_sequence_009_array                     ./build/obj/oslib_test_sequence_009.o (symbol from plugin)
oslib_test_suite                                  ./build/obj/oslib_test_root.o (symbol from plugin)
                                                  ./build/obj/shell_cmd.o (symbol from plugin)
oslib_test_suite_array                            ./build/obj/oslib_test_root.o (symbol from plugin)
palReadBus                                        ./build/obj/hal_pal.o (symbol from plugin)
palSetBusMode                                     ./build/obj/hal_pal.o (symbol from plugin)
palWriteBus                                       ./build/obj/hal_pal.o (symbol from plugin)
pal_default_config                                ./build/obj/board.o (symbol from plugin)
                                                  ./build/obj/hal.o (symbol from plugin)
port_init                                         ./build/obj/chcore_v7m.o (symbol from plugin)
                                                  ./build/obj/chsys.o (symbol from plugin)
rt_test_001_001_execute.lto_priv.0                C:\Users\RAKIBU~1\AppData\Local\Temp\ch.elf.ULtIRf.ltrans0.ltrans.o
                                                  C:\Users\RAKIBU~1\AppData\Local\Temp\ch.elf.ULtIRf.ltrans1.ltrans.o
rt_test_001_002_execute.lto_priv.0                C:\Users\RAKIBU~1\AppData\Local\Temp\ch.elf.ULtIRf.ltrans0.ltrans.o
                                                  C:\Users\RAKIBU~1\AppData\Local\Temp\ch.elf.ULtIRf.ltrans1.ltrans.o
rt_test_001_003_execute.lto_priv.0                C:\Users\RAKIBU~1\AppData\Local\Temp\ch.elf.ULtIRf.ltrans0.ltrans.o
                                                  C:\Users\RAKIBU~1\AppData\Local\Temp\ch.elf.ULtIRf.ltrans1.ltrans.o
rt_test_002_001_execute.lto_priv.0                C:\Users\RAKIBU~1\AppData\Local\Temp\ch.elf.ULtIRf.ltrans0.ltrans.o
                                                  C:\Users\RAKIBU~1\AppData\Local\Temp\ch.elf.ULtIRf.ltrans1.ltrans.o
rt_test_002_002_execute.lto_priv.0                C:\Users\RAKIBU~1\AppData\Local\Temp\ch.elf.ULtIRf.ltrans0.ltrans.o
                                                  C:\Users\RAKIBU~1\AppData\Local\Temp\ch.elf.ULtIRf.ltrans1.ltrans.o
rt_test_002_003_execute.lto_priv.0                C:\Users\RAKIBU~1\AppData\Local\Temp\ch.elf.ULtIRf.ltrans0.ltrans.o
                                                  C:\Users\RAKIBU~1\AppData\Local\Temp\ch.elf.ULtIRf.ltrans1.ltrans.o
rt_test_003_001_execute.lto_priv.0                C:\Users\RAKIBU~1\AppData\Local\Temp\ch.elf.ULtIRf.ltrans0.ltrans.o
                                                  C:\Users\RAKIBU~1\AppData\Local\Temp\ch.elf.ULtIRf.ltrans1.ltrans.o
rt_test_003_002_execute.lto_priv.0                C:\Users\RAKIBU~1\AppData\Local\Temp\ch.elf.ULtIRf.ltrans0.ltrans.o
                                                  C:\Users\RAKIBU~1\AppData\Local\Temp\ch.elf.ULtIRf.ltrans1.ltrans.o
rt_test_004_001_execute.lto_priv.0                C:\Users\RAKIBU~1\AppData\Local\Temp\ch.elf.ULtIRf.ltrans0.ltrans.o
                                                  C:\Users\RAKIBU~1\AppData\Local\Temp\ch.elf.ULtIRf.ltrans1.ltrans.o
rt_test_004_002_execute.lto_priv.0                C:\Users\RAKIBU~1\AppData\Local\Temp\ch.elf.ULtIRf.ltrans0.ltrans.o
                                                  C:\Users\RAKIBU~1\AppData\Local\Temp\ch.elf.ULtIRf.ltrans1.ltrans.o
rt_test_004_003_execute.lto_priv.0                C:\Users\RAKIBU~1\AppData\Local\Temp\ch.elf.ULtIRf.ltrans0.ltrans.o
                                                  C:\Users\RAKIBU~1\AppData\Local\Temp\ch.elf.ULtIRf.ltrans1.ltrans.o
rt_test_004_004_execute.lto_priv.0                C:\Users\RAKIBU~1\AppData\Local\Temp\ch.elf.ULtIRf.ltrans0.ltrans.o
                                                  C:\Users\RAKIBU~1\AppData\Local\Temp\ch.elf.ULtIRf.ltrans1.ltrans.o
rt_test_005_001_execute.lto_priv.0                C:\Users\RAKIBU~1\AppData\Local\Temp\ch.elf.ULtIRf.ltrans0.ltrans.o
                                                  C:\Users\RAKIBU~1\AppData\Local\Temp\ch.elf.ULtIRf.ltrans1.ltrans.o
rt_test_005_001_setup.lto_priv.0                  C:\Users\RAKIBU~1\AppData\Local\Temp\ch.elf.ULtIRf.ltrans0.ltrans.o
                                                  C:\Users\RAKIBU~1\AppData\Local\Temp\ch.elf.ULtIRf.ltrans1.ltrans.o
rt_test_006_001_execute.lto_priv.0                C:\Users\RAKIBU~1\AppData\Local\Temp\ch.elf.ULtIRf.ltrans0.ltrans.o
                                                  C:\Users\RAKIBU~1\AppData\Local\Temp\ch.elf.ULtIRf.ltrans1.ltrans.o
rt_test_006_001_setup.lto_priv.0                  C:\Users\RAKIBU~1\AppData\Local\Temp\ch.elf.ULtIRf.ltrans0.ltrans.o
                                                  C:\Users\RAKIBU~1\AppData\Local\Temp\ch.elf.ULtIRf.ltrans1.ltrans.o
rt_test_006_001_teardown.lto_priv.0               C:\Users\RAKIBU~1\AppData\Local\Temp\ch.elf.ULtIRf.ltrans0.ltrans.o
                                                  C:\Users\RAKIBU~1\AppData\Local\Temp\ch.elf.ULtIRf.ltrans1.ltrans.o
rt_test_006_002_execute.lto_priv.0                C:\Users\RAKIBU~1\AppData\Local\Temp\ch.elf.ULtIRf.ltrans0.ltrans.o
                                                  C:\Users\RAKIBU~1\AppData\Local\Temp\ch.elf.ULtIRf.ltrans1.ltrans.o
rt_test_006_002_setup.lto_priv.0                  C:\Users\RAKIBU~1\AppData\Local\Temp\ch.elf.ULtIRf.ltrans0.ltrans.o
                                                  C:\Users\RAKIBU~1\AppData\Local\Temp\ch.elf.ULtIRf.ltrans1.ltrans.o
rt_test_006_003_execute.lto_priv.0                C:\Users\RAKIBU~1\AppData\Local\Temp\ch.elf.ULtIRf.ltrans0.ltrans.o
                                                  C:\Users\RAKIBU~1\AppData\Local\Temp\ch.elf.ULtIRf.ltrans1.ltrans.o
rt_test_006_003_setup.lto_priv.0                  C:\Users\RAKIBU~1\AppData\Local\Temp\ch.elf.ULtIRf.ltrans0.ltrans.o
                                                  C:\Users\RAKIBU~1\AppData\Local\Temp\ch.elf.ULtIRf.ltrans1.ltrans.o
rt_test_006_004_execute.lto_priv.0                C:\Users\RAKIBU~1\AppData\Local\Temp\ch.elf.ULtIRf.ltrans0.ltrans.o
                                                  C:\Users\RAKIBU~1\AppData\Local\Temp\ch.elf.ULtIRf.ltrans1.ltrans.o
rt_test_006_004_setup.lto_priv.0                  C:\Users\RAKIBU~1\AppData\Local\Temp\ch.elf.ULtIRf.ltrans0.ltrans.o
                                                  C:\Users\RAKIBU~1\AppData\Local\Temp\ch.elf.ULtIRf.ltrans1.ltrans.o
rt_test_006_005_execute.lto_priv.0                C:\Users\RAKIBU~1\AppData\Local\Temp\ch.elf.ULtIRf.ltrans0.ltrans.o
                                                  C:\Users\RAKIBU~1\AppData\Local\Temp\ch.elf.ULtIRf.ltrans1.ltrans.o
rt_test_006_005_setup.lto_priv.0                  C:\Users\RAKIBU~1\AppData\Local\Temp\ch.elf.ULtIRf.ltrans0.ltrans.o
                                                  C:\Users\RAKIBU~1\AppData\Local\Temp\ch.elf.ULtIRf.ltrans1.ltrans.o
rt_test_006_005_teardown.lto_priv.0               C:\Users\RAKIBU~1\AppData\Local\Temp\ch.elf.ULtIRf.ltrans0.ltrans.o
                                                  C:\Users\RAKIBU~1\AppData\Local\Temp\ch.elf.ULtIRf.ltrans1.ltrans.o
rt_test_006_006_execute.lto_priv.0                C:\Users\RAKIBU~1\AppData\Local\Temp\ch.elf.ULtIRf.ltrans0.ltrans.o
                                                  C:\Users\RAKIBU~1\AppData\Local\Temp\ch.elf.ULtIRf.ltrans1.ltrans.o
rt_test_006_006_teardown.lto_priv.0               C:\Users\RAKIBU~1\AppData\Local\Temp\ch.elf.ULtIRf.ltrans0.ltrans.o
                                                  C:\Users\RAKIBU~1\AppData\Local\Temp\ch.elf.ULtIRf.ltrans1.ltrans.o
rt_test_007_001_execute.lto_priv.0                C:\Users\RAKIBU~1\AppData\Local\Temp\ch.elf.ULtIRf.ltrans0.ltrans.o
                                                  C:\Users\RAKIBU~1\AppData\Local\Temp\ch.elf.ULtIRf.ltrans1.ltrans.o
rt_test_007_001_setup.lto_priv.0                  C:\Users\RAKIBU~1\AppData\Local\Temp\ch.elf.ULtIRf.ltrans0.ltrans.o
                                                  C:\Users\RAKIBU~1\AppData\Local\Temp\ch.elf.ULtIRf.ltrans1.ltrans.o
rt_test_007_004_execute.lto_priv.0                C:\Users\RAKIBU~1\AppData\Local\Temp\ch.elf.ULtIRf.ltrans0.ltrans.o
                                                  C:\Users\RAKIBU~1\AppData\Local\Temp\ch.elf.ULtIRf.ltrans1.ltrans.o
rt_test_007_004_setup.lto_priv.0                  C:\Users\RAKIBU~1\AppData\Local\Temp\ch.elf.ULtIRf.ltrans0.ltrans.o
                                                  C:\Users\RAKIBU~1\AppData\Local\Temp\ch.elf.ULtIRf.ltrans1.ltrans.o
rt_test_007_004_teardown.lto_priv.0               C:\Users\RAKIBU~1\AppData\Local\Temp\ch.elf.ULtIRf.ltrans0.ltrans.o
                                                  C:\Users\RAKIBU~1\AppData\Local\Temp\ch.elf.ULtIRf.ltrans1.ltrans.o
rt_test_007_005_execute.lto_priv.0                C:\Users\RAKIBU~1\AppData\Local\Temp\ch.elf.ULtIRf.ltrans0.ltrans.o
                                                  C:\Users\RAKIBU~1\AppData\Local\Temp\ch.elf.ULtIRf.ltrans1.ltrans.o
rt_test_007_005_setup.lto_priv.0                  C:\Users\RAKIBU~1\AppData\Local\Temp\ch.elf.ULtIRf.ltrans0.ltrans.o
                                                  C:\Users\RAKIBU~1\AppData\Local\Temp\ch.elf.ULtIRf.ltrans1.ltrans.o
rt_test_007_007_execute.lto_priv.0                C:\Users\RAKIBU~1\AppData\Local\Temp\ch.elf.ULtIRf.ltrans0.ltrans.o
                                                  C:\Users\RAKIBU~1\AppData\Local\Temp\ch.elf.ULtIRf.ltrans1.ltrans.o
rt_test_007_007_setup.lto_priv.0                  C:\Users\RAKIBU~1\AppData\Local\Temp\ch.elf.ULtIRf.ltrans0.ltrans.o
                                                  C:\Users\RAKIBU~1\AppData\Local\Temp\ch.elf.ULtIRf.ltrans1.ltrans.o
rt_test_007_008_execute.lto_priv.0                C:\Users\RAKIBU~1\AppData\Local\Temp\ch.elf.ULtIRf.ltrans0.ltrans.o
                                                  C:\Users\RAKIBU~1\AppData\Local\Temp\ch.elf.ULtIRf.ltrans1.ltrans.o
rt_test_007_008_setup.lto_priv.0                  C:\Users\RAKIBU~1\AppData\Local\Temp\ch.elf.ULtIRf.ltrans0.ltrans.o
                                                  C:\Users\RAKIBU~1\AppData\Local\Temp\ch.elf.ULtIRf.ltrans1.ltrans.o
rt_test_007_009_execute.lto_priv.0                C:\Users\RAKIBU~1\AppData\Local\Temp\ch.elf.ULtIRf.ltrans0.ltrans.o
                                                  C:\Users\RAKIBU~1\AppData\Local\Temp\ch.elf.ULtIRf.ltrans1.ltrans.o
rt_test_007_009_setup.lto_priv.0                  C:\Users\RAKIBU~1\AppData\Local\Temp\ch.elf.ULtIRf.ltrans0.ltrans.o
                                                  C:\Users\RAKIBU~1\AppData\Local\Temp\ch.elf.ULtIRf.ltrans1.ltrans.o
rt_test_008_001_execute.lto_priv.0                C:\Users\RAKIBU~1\AppData\Local\Temp\ch.elf.ULtIRf.ltrans0.ltrans.o
                                                  C:\Users\RAKIBU~1\AppData\Local\Temp\ch.elf.ULtIRf.ltrans1.ltrans.o
rt_test_009_001_execute.lto_priv.0                C:\Users\RAKIBU~1\AppData\Local\Temp\ch.elf.ULtIRf.ltrans0.ltrans.o
                                                  C:\Users\RAKIBU~1\AppData\Local\Temp\ch.elf.ULtIRf.ltrans1.ltrans.o
rt_test_009_002_execute.lto_priv.0                C:\Users\RAKIBU~1\AppData\Local\Temp\ch.elf.ULtIRf.ltrans0.ltrans.o
                                                  C:\Users\RAKIBU~1\AppData\Local\Temp\ch.elf.ULtIRf.ltrans1.ltrans.o
rt_test_009_002_setup.lto_priv.0                  C:\Users\RAKIBU~1\AppData\Local\Temp\ch.elf.ULtIRf.ltrans0.ltrans.o
                                                  C:\Users\RAKIBU~1\AppData\Local\Temp\ch.elf.ULtIRf.ltrans1.ltrans.o
rt_test_009_003_execute.lto_priv.0                C:\Users\RAKIBU~1\AppData\Local\Temp\ch.elf.ULtIRf.ltrans0.ltrans.o
                                                  C:\Users\RAKIBU~1\AppData\Local\Temp\ch.elf.ULtIRf.ltrans1.ltrans.o
rt_test_009_003_setup.lto_priv.0                  C:\Users\RAKIBU~1\AppData\Local\Temp\ch.elf.ULtIRf.ltrans0.ltrans.o
                                                  C:\Users\RAKIBU~1\AppData\Local\Temp\ch.elf.ULtIRf.ltrans1.ltrans.o
rt_test_009_004_execute.lto_priv.0                C:\Users\RAKIBU~1\AppData\Local\Temp\ch.elf.ULtIRf.ltrans0.ltrans.o
                                                  C:\Users\RAKIBU~1\AppData\Local\Temp\ch.elf.ULtIRf.ltrans1.ltrans.o
rt_test_009_004_setup.lto_priv.0                  C:\Users\RAKIBU~1\AppData\Local\Temp\ch.elf.ULtIRf.ltrans0.ltrans.o
                                                  C:\Users\RAKIBU~1\AppData\Local\Temp\ch.elf.ULtIRf.ltrans1.ltrans.o
rt_test_009_005_execute.lto_priv.0                C:\Users\RAKIBU~1\AppData\Local\Temp\ch.elf.ULtIRf.ltrans0.ltrans.o
                                                  C:\Users\RAKIBU~1\AppData\Local\Temp\ch.elf.ULtIRf.ltrans1.ltrans.o
rt_test_009_005_setup.lto_priv.0                  C:\Users\RAKIBU~1\AppData\Local\Temp\ch.elf.ULtIRf.ltrans0.ltrans.o
                                                  C:\Users\RAKIBU~1\AppData\Local\Temp\ch.elf.ULtIRf.ltrans1.ltrans.o
rt_test_009_006_execute.lto_priv.0                C:\Users\RAKIBU~1\AppData\Local\Temp\ch.elf.ULtIRf.ltrans0.ltrans.o
                                                  C:\Users\RAKIBU~1\AppData\Local\Temp\ch.elf.ULtIRf.ltrans1.ltrans.o
rt_test_009_006_setup.lto_priv.0                  C:\Users\RAKIBU~1\AppData\Local\Temp\ch.elf.ULtIRf.ltrans0.ltrans.o
                                                  C:\Users\RAKIBU~1\AppData\Local\Temp\ch.elf.ULtIRf.ltrans1.ltrans.o
rt_test_009_007_execute.lto_priv.0                C:\Users\RAKIBU~1\AppData\Local\Temp\ch.elf.ULtIRf.ltrans0.ltrans.o
                                                  C:\Users\RAKIBU~1\AppData\Local\Temp\ch.elf.ULtIRf.ltrans1.ltrans.o
rt_test_009_007_setup.lto_priv.0                  C:\Users\RAKIBU~1\AppData\Local\Temp\ch.elf.ULtIRf.ltrans0.ltrans.o
                                                  C:\Users\RAKIBU~1\AppData\Local\Temp\ch.elf.ULtIRf.ltrans1.ltrans.o
rt_test_010_001_execute.lto_priv.0                C:\Users\RAKIBU~1\AppData\Local\Temp\ch.elf.ULtIRf.ltrans0.ltrans.o
                                                  C:\Users\RAKIBU~1\AppData\Local\Temp\ch.elf.ULtIRf.ltrans1.ltrans.o
rt_test_010_001_setup.lto_priv.0                  C:\Users\RAKIBU~1\AppData\Local\Temp\ch.elf.ULtIRf.ltrans0.ltrans.o
                                                  C:\Users\RAKIBU~1\AppData\Local\Temp\ch.elf.ULtIRf.ltrans1.ltrans.o
rt_test_010_002_execute.lto_priv.0                C:\Users\RAKIBU~1\AppData\Local\Temp\ch.elf.ULtIRf.ltrans0.ltrans.o
                                                  C:\Users\RAKIBU~1\AppData\Local\Temp\ch.elf.ULtIRf.ltrans1.ltrans.o
rt_test_010_002_setup.lto_priv.0                  C:\Users\RAKIBU~1\AppData\Local\Temp\ch.elf.ULtIRf.ltrans0.ltrans.o
                                                  C:\Users\RAKIBU~1\AppData\Local\Temp\ch.elf.ULtIRf.ltrans1.ltrans.o
rt_test_011_001_execute.lto_priv.0                C:\Users\RAKIBU~1\AppData\Local\Temp\ch.elf.ULtIRf.ltrans0.ltrans.o
                                                  C:\Users\RAKIBU~1\AppData\Local\Temp\ch.elf.ULtIRf.ltrans1.ltrans.o
rt_test_011_002_execute.lto_priv.0                C:\Users\RAKIBU~1\AppData\Local\Temp\ch.elf.ULtIRf.ltrans0.ltrans.o
                                                  C:\Users\RAKIBU~1\AppData\Local\Temp\ch.elf.ULtIRf.ltrans1.ltrans.o
rt_test_011_003_execute.lto_priv.0                C:\Users\RAKIBU~1\AppData\Local\Temp\ch.elf.ULtIRf.ltrans0.ltrans.o
                                                  C:\Users\RAKIBU~1\AppData\Local\Temp\ch.elf.ULtIRf.ltrans1.ltrans.o
rt_test_011_004_execute.lto_priv.0                C:\Users\RAKIBU~1\AppData\Local\Temp\ch.elf.ULtIRf.ltrans0.ltrans.o
                                                  C:\Users\RAKIBU~1\AppData\Local\Temp\ch.elf.ULtIRf.ltrans1.ltrans.o
rt_test_011_005_execute.lto_priv.0                C:\Users\RAKIBU~1\AppData\Local\Temp\ch.elf.ULtIRf.ltrans0.ltrans.o
                                                  C:\Users\RAKIBU~1\AppData\Local\Temp\ch.elf.ULtIRf.ltrans1.ltrans.o
rt_test_011_006_execute.lto_priv.0                C:\Users\RAKIBU~1\AppData\Local\Temp\ch.elf.ULtIRf.ltrans0.ltrans.o
                                                  C:\Users\RAKIBU~1\AppData\Local\Temp\ch.elf.ULtIRf.ltrans1.ltrans.o
rt_test_011_007_execute.lto_priv.0                C:\Users\RAKIBU~1\AppData\Local\Temp\ch.elf.ULtIRf.ltrans0.ltrans.o
                                                  C:\Users\RAKIBU~1\AppData\Local\Temp\ch.elf.ULtIRf.ltrans1.ltrans.o
rt_test_011_007_setup.lto_priv.0                  C:\Users\RAKIBU~1\AppData\Local\Temp\ch.elf.ULtIRf.ltrans0.ltrans.o
                                                  C:\Users\RAKIBU~1\AppData\Local\Temp\ch.elf.ULtIRf.ltrans1.ltrans.o
rt_test_011_008_execute.lto_priv.0                C:\Users\RAKIBU~1\AppData\Local\Temp\ch.elf.ULtIRf.ltrans0.ltrans.o
                                                  C:\Users\RAKIBU~1\AppData\Local\Temp\ch.elf.ULtIRf.ltrans1.ltrans.o
rt_test_011_009_execute.lto_priv.0                C:\Users\RAKIBU~1\AppData\Local\Temp\ch.elf.ULtIRf.ltrans0.ltrans.o
                                                  C:\Users\RAKIBU~1\AppData\Local\Temp\ch.elf.ULtIRf.ltrans1.ltrans.o
rt_test_011_010_execute.lto_priv.0                C:\Users\RAKIBU~1\AppData\Local\Temp\ch.elf.ULtIRf.ltrans0.ltrans.o
                                                  C:\Users\RAKIBU~1\AppData\Local\Temp\ch.elf.ULtIRf.ltrans1.ltrans.o
rt_test_011_010_setup.lto_priv.0                  C:\Users\RAKIBU~1\AppData\Local\Temp\ch.elf.ULtIRf.ltrans0.ltrans.o
                                                  C:\Users\RAKIBU~1\AppData\Local\Temp\ch.elf.ULtIRf.ltrans1.ltrans.o
rt_test_011_011_execute.lto_priv.0                C:\Users\RAKIBU~1\AppData\Local\Temp\ch.elf.ULtIRf.ltrans0.ltrans.o
                                                  C:\Users\RAKIBU~1\AppData\Local\Temp\ch.elf.ULtIRf.ltrans1.ltrans.o
rt_test_011_011_setup.lto_priv.0                  C:\Users\RAKIBU~1\AppData\Local\Temp\ch.elf.ULtIRf.ltrans0.ltrans.o
                                                  C:\Users\RAKIBU~1\AppData\Local\Temp\ch.elf.ULtIRf.ltrans1.ltrans.o
rt_test_011_012_execute.lto_priv.0                C:\Users\RAKIBU~1\AppData\Local\Temp\ch.elf.ULtIRf.ltrans0.ltrans.o
                                                  C:\Users\RAKIBU~1\AppData\Local\Temp\ch.elf.ULtIRf.ltrans1.ltrans.o
rt_test_root.c.466889a6                           C:\Users\RAKIBU~1\AppData\Local\Temp\ccBhtmDw.debug.temp.o
                                                  C:\Users\RAKIBU~1\AppData\Local\Temp\ch.elf.ULtIRf.ltrans1.ltrans.o
                                                  C:\Users\RAKIBU~1\AppData\Local\Temp\ch.elf.ULtIRf.ltrans0.ltrans.o
rt_test_sequence_001                              ./build/obj/rt_test_sequence_001.o (symbol from plugin)
                                                  ./build/obj/rt_test_root.o (symbol from plugin)
rt_test_sequence_001.c.8d3bbd5a                   C:\Users\RAKIBU~1\AppData\Local\Temp\cc4zVzSo.debug.temp.o
                                                  C:\Users\RAKIBU~1\AppData\Local\Temp\ch.elf.ULtIRf.ltrans1.ltrans.o
                                                  C:\Users\RAKIBU~1\AppData\Local\Temp\ch.elf.ULtIRf.ltrans0.ltrans.o
rt_test_sequence_001_array                        ./build/obj/rt_test_sequence_001.o (symbol from plugin)
rt_test_sequence_002                              ./build/obj/rt_test_sequence_002.o (symbol from plugin)
                                                  ./build/obj/rt_test_root.o (symbol from plugin)
rt_test_sequence_002.c.4ac5b5ba                   C:\Users\RAKIBU~1\AppData\Local\Temp\cc78exNh.debug.temp.o
                                                  C:\Users\RAKIBU~1\AppData\Local\Temp\ch.elf.ULtIRf.ltrans1.ltrans.o
                                                  C:\Users\RAKIBU~1\AppData\Local\Temp\ch.elf.ULtIRf.ltrans0.ltrans.o
rt_test_sequence_002_array                        ./build/obj/rt_test_sequence_002.o (symbol from plugin)
rt_test_sequence_003                              ./build/obj/rt_test_sequence_003.o (symbol from plugin)
                                                  ./build/obj/rt_test_root.o (symbol from plugin)
rt_test_sequence_003.c.991208fe                   C:\Users\RAKIBU~1\AppData\Local\Temp\ccWMCzNd.debug.temp.o
                                                  C:\Users\RAKIBU~1\AppData\Local\Temp\ch.elf.ULtIRf.ltrans1.ltrans.o
                                                  C:\Users\RAKIBU~1\AppData\Local\Temp\ch.elf.ULtIRf.ltrans0.ltrans.o
rt_test_sequence_003_array                        ./build/obj/rt_test_sequence_003.o (symbol from plugin)
rt_test_sequence_004                              ./build/obj/rt_test_sequence_004.o (symbol from plugin)
                                                  ./build/obj/rt_test_root.o (symbol from plugin)
rt_test_sequence_004.c.701ced23                   C:\Users\RAKIBU~1\AppData\Local\Temp\ccxV1mi9.debug.temp.o
                                                  C:\Users\RAKIBU~1\AppData\Local\Temp\ch.elf.ULtIRf.ltrans1.ltrans.o
                                                  C:\Users\RAKIBU~1\AppData\Local\Temp\ch.elf.ULtIRf.ltrans0.ltrans.o
rt_test_sequence_004_array                        ./build/obj/rt_test_sequence_004.o (symbol from plugin)
rt_test_sequence_005                              ./build/obj/rt_test_sequence_005.o (symbol from plugin)
                                                  ./build/obj/rt_test_root.o (symbol from plugin)
rt_test_sequence_005.c.c1068511                   C:\Users\RAKIBU~1\AppData\Local\Temp\cca7x3x5.debug.temp.o
                                                  C:\Users\RAKIBU~1\AppData\Local\Temp\ch.elf.ULtIRf.ltrans1.ltrans.o
                                                  C:\Users\RAKIBU~1\AppData\Local\Temp\ch.elf.ULtIRf.ltrans0.ltrans.o
rt_test_sequence_005_array                        ./build/obj/rt_test_sequence_005.o (symbol from plugin)
rt_test_sequence_006                              ./build/obj/rt_test_sequence_006.o (symbol from plugin)
                                                  ./build/obj/rt_test_root.o (symbol from plugin)
rt_test_sequence_006.c.d9c566c9                   C:\Users\RAKIBU~1\AppData\Local\Temp\ccL3iN7Z.debug.temp.o
                                                  C:\Users\RAKIBU~1\AppData\Local\Temp\ch.elf.ULtIRf.ltrans1.ltrans.o
                                                  C:\Users\RAKIBU~1\AppData\Local\Temp\ch.elf.ULtIRf.ltrans0.ltrans.o
rt_test_sequence_006_array                        ./build/obj/rt_test_sequence_006.o (symbol from plugin)
rt_test_sequence_007                              ./build/obj/rt_test_sequence_007.o (symbol from plugin)
                                                  ./build/obj/rt_test_root.o (symbol from plugin)
rt_test_sequence_007.c.3590149a                   C:\Users\RAKIBU~1\AppData\Local\Temp\ccWGiAmV.debug.temp.o
                                                  C:\Users\RAKIBU~1\AppData\Local\Temp\ch.elf.ULtIRf.ltrans1.ltrans.o
                                                  C:\Users\RAKIBU~1\AppData\Local\Temp\ch.elf.ULtIRf.ltrans0.ltrans.o
rt_test_sequence_007_array                        ./build/obj/rt_test_sequence_007.o (symbol from plugin)
rt_test_sequence_008                              ./build/obj/rt_test_sequence_008.o (symbol from plugin)
                                                  ./build/obj/rt_test_root.o (symbol from plugin)
rt_test_sequence_008.c.6832f25c                   C:\Users\RAKIBU~1\AppData\Local\Temp\ccX2tSGT.debug.temp.o
                                                  C:\Users\RAKIBU~1\AppData\Local\Temp\ch.elf.ULtIRf.ltrans1.ltrans.o
                                                  C:\Users\RAKIBU~1\AppData\Local\Temp\ch.elf.ULtIRf.ltrans0.ltrans.o
rt_test_sequence_008_array                        ./build/obj/rt_test_sequence_008.o (symbol from plugin)
rt_test_sequence_009                              ./build/obj/rt_test_sequence_009.o (symbol from plugin)
                                                  ./build/obj/rt_test_root.o (symbol from plugin)
rt_test_sequence_009.c.ec45f511                   C:\Users\RAKIBU~1\AppData\Local\Temp\ccOzRCwR.debug.temp.o
                                                  C:\Users\RAKIBU~1\AppData\Local\Temp\ch.elf.ULtIRf.ltrans1.ltrans.o
                                                  C:\Users\RAKIBU~1\AppData\Local\Temp\ch.elf.ULtIRf.ltrans0.ltrans.o
rt_test_sequence_009_array                        ./build/obj/rt_test_sequence_009.o (symbol from plugin)
rt_test_sequence_010                              ./build/obj/rt_test_sequence_010.o (symbol from plugin)
                                                  ./build/obj/rt_test_root.o (symbol from plugin)
rt_test_sequence_010.c.68d8a0e2                   C:\Users\RAKIBU~1\AppData\Local\Temp\cc9bu55P.debug.temp.o
                                                  C:\Users\RAKIBU~1\AppData\Local\Temp\ch.elf.ULtIRf.ltrans1.ltrans.o
                                                  C:\Users\RAKIBU~1\AppData\Local\Temp\ch.elf.ULtIRf.ltrans0.ltrans.o
rt_test_sequence_010_array                        ./build/obj/rt_test_sequence_010.o (symbol from plugin)
rt_test_sequence_011                              ./build/obj/rt_test_sequence_011.o (symbol from plugin)
                                                  ./build/obj/rt_test_root.o (symbol from plugin)
rt_test_sequence_011.c.e88aa221                   C:\Users\RAKIBU~1\AppData\Local\Temp\ccEnwLZM.debug.temp.o
                                                  C:\Users\RAKIBU~1\AppData\Local\Temp\ch.elf.ULtIRf.ltrans1.ltrans.o
                                                  C:\Users\RAKIBU~1\AppData\Local\Temp\ch.elf.ULtIRf.ltrans0.ltrans.o
rt_test_sequence_011_array                        ./build/obj/rt_test_sequence_011.o (symbol from plugin)
rt_test_suite                                     ./build/obj/rt_test_root.o (symbol from plugin)
                                                  ./build/obj/shell_cmd.o (symbol from plugin)
rt_test_suite_array                               ./build/obj/rt_test_root.o (symbol from plugin)
sdControl                                         ./build/obj/hal_serial.o (symbol from plugin)
sdGetWouldBlock                                   ./build/obj/hal_serial.o (symbol from plugin)
sdIncomingDataI                                   ./build/obj/hal_serial.o (symbol from plugin)
                                                  ./build/obj/hal_serial_lld.o (symbol from plugin)
sdInit                                            ./build/obj/hal_serial.o (symbol from plugin)
                                                  ./build/obj/hal.o (symbol from plugin)
sdObjectInit                                      ./build/obj/hal_serial.o (symbol from plugin)
                                                  ./build/obj/hal_serial_lld.o (symbol from plugin)
sdPutWouldBlock                                   ./build/obj/hal_serial.o (symbol from plugin)
sdRequestDataI                                    ./build/obj/hal_serial.o (symbol from plugin)
sdStart                                           ./build/obj/hal_serial.o (symbol from plugin)
                                                  ./build/obj/main.o (symbol from plugin)
sdStop                                            ./build/obj/hal_serial.o (symbol from plugin)
sd_lld_init                                       ./build/obj/hal_serial_lld.o (symbol from plugin)
                                                  ./build/obj/hal_serial.o (symbol from plugin)
sd_lld_start                                      ./build/obj/hal_serial_lld.o (symbol from plugin)
                                                  ./build/obj/hal_serial.o (symbol from plugin)
sd_lld_stop                                       ./build/obj/hal_serial_lld.o (symbol from plugin)
                                                  ./build/obj/hal_serial.o (symbol from plugin)
shell.c.11e2d3a1                                  C:\Users\RAKIBU~1\AppData\Local\Temp\cc4laSbr.debug.temp.o
                                                  C:\Users\RAKIBU~1\AppData\Local\Temp\ch.elf.ULtIRf.ltrans1.ltrans.o
                                                  C:\Users\RAKIBU~1\AppData\Local\Temp\ch.elf.ULtIRf.ltrans0.ltrans.o
shellExit                                         ./build/obj/shell.o (symbol from plugin)
                                                  ./build/obj/shell_cmd.o (symbol from plugin)
shellGetLine                                      ./build/obj/shell.o (symbol from plugin)
shellInit                                         ./build/obj/shell.o (symbol from plugin)
                                                  ./build/obj/main.o (symbol from plugin)
shellThread                                       C:\Users\RAKIBU~1\AppData\Local\Temp\ch.elf.ULtIRf.ltrans1.ltrans.o
                                                  ./build/obj/shell.o (symbol from plugin)
                                                  C:\Users\RAKIBU~1\AppData\Local\Temp\ch.elf.ULtIRf.ltrans0.ltrans.o
                                                  ./build/obj/main.o (symbol from plugin)
shell_cmd.c.31b6598f                              C:\Users\RAKIBU~1\AppData\Local\Temp\cchAui2h.debug.temp.o
                                                  C:\Users\RAKIBU~1\AppData\Local\Temp\ch.elf.ULtIRf.ltrans1.ltrans.o
                                                  C:\Users\RAKIBU~1\AppData\Local\Temp\ch.elf.ULtIRf.ltrans0.ltrans.o
shell_local_commands                              ./build/obj/shell_cmd.o (symbol from plugin)
                                                  ./build/obj/shell.o (symbol from plugin)
shell_terminated                                  C:\Users\RAKIBU~1\AppData\Local\Temp\ch.elf.ULtIRf.ltrans0.ltrans.o
                                                  ./build/obj/shell.o (symbol from plugin)
                                                  C:\Users\RAKIBU~1\AppData\Local\Temp\ch.elf.ULtIRf.ltrans1.ltrans.o
                                                  ./build/obj/main.o (symbol from plugin)
spiAbort                                          ./build/obj/hal_spi.o (symbol from plugin)
spiAbortI                                         ./build/obj/hal_spi.o (symbol from plugin)
spiAcquireBus                                     ./build/obj/hal_spi.o (symbol from plugin)
spiExchange                                       ./build/obj/hal_spi.o (symbol from plugin)
spiIgnore                                         ./build/obj/hal_spi.o (symbol from plugin)
                                                  ./build/obj/hal_mmc_spi.o (symbol from plugin)
spiInit                                           ./build/obj/hal_spi.o (symbol from plugin)
                                                  ./build/obj/hal.o (symbol from plugin)
spiObjectInit                                     ./build/obj/hal_spi.o (symbol from plugin)
                                                  ./build/obj/hal_spi_lld.o (symbol from plugin)
spiReceive                                        ./build/obj/hal_spi.o (symbol from plugin)
                                                  ./build/obj/hal_mmc_spi.o (symbol from plugin)
spiReleaseBus                                     ./build/obj/hal_spi.o (symbol from plugin)
spiSelect                                         ./build/obj/hal_spi.o (symbol from plugin)
                                                  ./build/obj/hal_mmc_spi.o (symbol from plugin)
spiSend                                           ./build/obj/hal_spi.o (symbol from plugin)
                                                  ./build/obj/hal_mmc_spi.o (symbol from plugin)
spiStart                                          ./build/obj/hal_spi.o (symbol from plugin)
                                                  ./build/obj/hal_mmc_spi.o (symbol from plugin)
spiStartExchange                                  ./build/obj/hal_spi.o (symbol from plugin)
spiStartIgnore                                    ./build/obj/hal_spi.o (symbol from plugin)
spiStartReceive                                   ./build/obj/hal_spi.o (symbol from plugin)
spiStartSend                                      ./build/obj/hal_spi.o (symbol from plugin)
spiStop                                           ./build/obj/hal_spi.o (symbol from plugin)
                                                  ./build/obj/hal_mmc_spi.o (symbol from plugin)
spiUnselect                                       ./build/obj/hal_spi.o (symbol from plugin)
                                                  ./build/obj/hal_mmc_spi.o (symbol from plugin)
spi_lld_abort                                     ./build/obj/hal_spi_lld.o (symbol from plugin)
                                                  ./build/obj/hal_spi.o (symbol from plugin)
spi_lld_exchange                                  ./build/obj/hal_spi_lld.o (symbol from plugin)
                                                  ./build/obj/hal_spi.o (symbol from plugin)
spi_lld_ignore                                    ./build/obj/hal_spi_lld.o (symbol from plugin)
                                                  ./build/obj/hal_spi.o (symbol from plugin)
spi_lld_init                                      ./build/obj/hal_spi_lld.o (symbol from plugin)
                                                  ./build/obj/hal_spi.o (symbol from plugin)
spi_lld_polled_exchange                           ./build/obj/hal_spi_lld.o (symbol from plugin)
spi_lld_receive                                   ./build/obj/hal_spi_lld.o (symbol from plugin)
                                                  ./build/obj/hal_spi.o (symbol from plugin)
spi_lld_send                                      ./build/obj/hal_spi_lld.o (symbol from plugin)
                                                  ./build/obj/hal_spi.o (symbol from plugin)
spi_lld_start                                     ./build/obj/hal_spi_lld.o (symbol from plugin)
                                                  ./build/obj/hal_spi.o (symbol from plugin)
spi_lld_stop                                      ./build/obj/hal_spi_lld.o (symbol from plugin)
                                                  ./build/obj/hal_spi.o (symbol from plugin)
stGetAlarm                                        ./build/obj/hal_st.o (symbol from plugin)
stGetCounter                                      ./build/obj/hal_st.o (symbol from plugin)
                                                  ./build/obj/rt_test_sequence_011.o (symbol from plugin)
                                                  ./build/obj/rt_test_sequence_005.o (symbol from plugin)
                                                  ./build/obj/rt_test_sequence_004.o (symbol from plugin)
                                                  ./build/obj/rt_test_sequence_003.o (symbol from plugin)
                                                  ./build/obj/rt_test_root.o (symbol from plugin)
                                                  ./build/obj/ch_test.o (symbol from plugin)
                                                  ./build/obj/shell_cmd.o (symbol from plugin)
                                                  ./build/obj/chthreads.o (symbol from plugin)
                                                  ./build/obj/chvt.o (symbol from plugin)
                                                  ./build/obj/chsys.o (symbol from plugin)
stInit                                            ./build/obj/hal_st.o (symbol from plugin)
                                                  ./build/obj/hal.o (symbol from plugin)
stIsAlarmActive                                   ./build/obj/hal_st.o (symbol from plugin)
stSetAlarm                                        ./build/obj/hal_st.o (symbol from plugin)
                                                  ./build/obj/chvt.o (symbol from plugin)
                                                  ./build/obj/chsys.o (symbol from plugin)
stStartAlarm                                      ./build/obj/hal_st.o (symbol from plugin)
                                                  ./build/obj/chvt.o (symbol from plugin)
stStopAlarm                                       ./build/obj/hal_st.o (symbol from plugin)
                                                  ./build/obj/chvt.o (symbol from plugin)
                                                  ./build/obj/chsys.o (symbol from plugin)
st_lld_init                                       ./build/obj/hal_st_lld.o (symbol from plugin)
                                                  ./build/obj/hal_st.o (symbol from plugin)
st_lld_serve_interrupt                            ./build/obj/hal_st_lld.o (symbol from plugin)
stm32_clock_init                                  ./build/obj/hal_lld.o (symbol from plugin)
                                                  ./build/obj/board.o (symbol from plugin)
stm32_dma.c.fd15b742                              C:\Users\RAKIBU~1\AppData\Local\Temp\ccQfGwWs.debug.temp.o
                                                  C:\Users\RAKIBU~1\AppData\Local\Temp\ch.elf.ULtIRf.ltrans1.ltrans.o
                                                  C:\Users\RAKIBU~1\AppData\Local\Temp\ch.elf.ULtIRf.ltrans0.ltrans.o
stm32_isr.c.39da4bcb                              C:\Users\RAKIBU~1\AppData\Local\Temp\ccVlNPLP.debug.temp.o
                                                  C:\Users\RAKIBU~1\AppData\Local\Temp\ch.elf.ULtIRf.ltrans0.ltrans.o
strchr                                            c:/chibistudio/tools/gnu tools arm embedded/9.0 2019q4/bin/../lib/gcc/arm-none-eabi/9.2.1/../../../../arm-none-eabi/lib/thumb/v7-m/nofp\libg.a(lib_a-strchr.o)
                                                  C:\Users\RAKIBU~1\AppData\Local\Temp\ch.elf.ULtIRf.ltrans1.ltrans.o
strcmp                                            c:/chibistudio/tools/gnu tools arm embedded/9.0 2019q4/bin/../lib/gcc/arm-none-eabi/9.2.1/../../../../arm-none-eabi/lib/thumb/v7-m/nofp\libg.a(lib_a-strcmp.o)
                                                  C:\Users\RAKIBU~1\AppData\Local\Temp\ch.elf.ULtIRf.ltrans1.ltrans.o
strcpy                                            c:/chibistudio/tools/gnu tools arm embedded/9.0 2019q4/bin/../lib/gcc/arm-none-eabi/9.2.1/../../../../arm-none-eabi/lib/thumb/v7-m/nofp\libg.a(lib_a-strcpy.o)
                                                  C:\Users\RAKIBU~1\AppData\Local\Temp\ch.elf.ULtIRf.ltrans0.ltrans.o
strlen                                            c:/chibistudio/tools/gnu tools arm embedded/9.0 2019q4/bin/../lib/gcc/arm-none-eabi/9.2.1/../../../../arm-none-eabi/lib/thumb/v7-m/nofp\libg.a(lib_a-strlen-stub.o)
                                                  C:\Users\RAKIBU~1\AppData\Local\Temp\ch.elf.ULtIRf.ltrans0.ltrans.o
strncmp                                           c:/chibistudio/tools/gnu tools arm embedded/9.0 2019q4/bin/../lib/gcc/arm-none-eabi/9.2.1/../../../../arm-none-eabi/lib/thumb/v7-m/nofp\libg.a(lib_a-strncmp.o)
                                                  C:\Users\RAKIBU~1\AppData\Local\Temp\ch.elf.ULtIRf.ltrans1.ltrans.o
strncpy                                           c:/chibistudio/tools/gnu tools arm embedded/9.0 2019q4/bin/../lib/gcc/arm-none-eabi/9.2.1/../../../../arm-none-eabi/lib/thumb/v7-m/nofp\libg.a(lib_a-strncpy.o)
                                                  C:\Users\RAKIBU~1\AppData\Local\Temp\ch.elf.ULtIRf.ltrans1.ltrans.o
strpbrk                                           c:/chibistudio/tools/gnu tools arm embedded/9.0 2019q4/bin/../lib/gcc/arm-none-eabi/9.2.1/../../../../arm-none-eabi/lib/thumb/v7-m/nofp\libg.a(lib_a-strpbrk.o)
                                                  C:\Users\RAKIBU~1\AppData\Local\Temp\ch.elf.ULtIRf.ltrans1.ltrans.o
strspn                                            c:/chibistudio/tools/gnu tools arm embedded/9.0 2019q4/bin/../lib/gcc/arm-none-eabi/9.2.1/../../../../arm-none-eabi/lib/thumb/v7-m/nofp\libg.a(lib_a-strspn.o)
                                                  C:\Users\RAKIBU~1\AppData\Local\Temp\ch.elf.ULtIRf.ltrans1.ltrans.o
test_buffer                                       ./build/obj/rt_test_root.o (symbol from plugin)
                                                  ./build/obj/rt_test_sequence_010.o (symbol from plugin)
test_emit_token                                   ./build/obj/ch_test.o (symbol from plugin)
                                                  ./build/obj/oslib_test_sequence_006.o (symbol from plugin)
                                                  ./build/obj/oslib_test_sequence_005.o (symbol from plugin)
                                                  ./build/obj/oslib_test_sequence_004.o (symbol from plugin)
                                                  ./build/obj/oslib_test_sequence_002.o (symbol from plugin)
                                                  ./build/obj/rt_test_sequence_010.o (symbol from plugin)
                                                  ./build/obj/rt_test_sequence_009.o (symbol from plugin)
                                                  ./build/obj/rt_test_sequence_008.o (symbol from plugin)
                                                  ./build/obj/rt_test_sequence_007.o (symbol from plugin)
                                                  ./build/obj/rt_test_sequence_006.o (symbol from plugin)
                                                  ./build/obj/rt_test_sequence_005.o (symbol from plugin)
                                                  ./build/obj/rt_test_sequence_004.o (symbol from plugin)
test_emit_token_i                                 ./build/obj/ch_test.o (symbol from plugin)
test_execute                                      C:\Users\RAKIBU~1\AppData\Local\Temp\ch.elf.ULtIRf.ltrans0.ltrans.o
                                                  ./build/obj/ch_test.o (symbol from plugin)
                                                  C:\Users\RAKIBU~1\AppData\Local\Temp\ch.elf.ULtIRf.ltrans1.ltrans.o
                                                  ./build/obj/shell_cmd.o (symbol from plugin)
test_global_fail                                  ./build/obj/ch_test.o (symbol from plugin)
test_print                                        ./build/obj/ch_test.o (symbol from plugin)
                                                  ./build/obj/oslib_test_sequence_001.o (symbol from plugin)
                                                  ./build/obj/rt_test_sequence_011.o (symbol from plugin)
                                                  ./build/obj/rt_test_sequence_001.o (symbol from plugin)
test_println                                      ./build/obj/ch_test.o (symbol from plugin)
                                                  ./build/obj/oslib_test_sequence_001.o (symbol from plugin)
                                                  ./build/obj/rt_test_sequence_011.o (symbol from plugin)
                                                  ./build/obj/rt_test_sequence_001.o (symbol from plugin)
test_printn                                       ./build/obj/ch_test.o (symbol from plugin)
                                                  ./build/obj/oslib_test_sequence_001.o (symbol from plugin)
                                                  ./build/obj/rt_test_sequence_011.o (symbol from plugin)
                                                  ./build/obj/rt_test_sequence_001.o (symbol from plugin)
test_step                                         ./build/obj/ch_test.o (symbol from plugin)
                                                  ./build/obj/oslib_test_sequence_009.o (symbol from plugin)
                                                  ./build/obj/oslib_test_sequence_008.o (symbol from plugin)
                                                  ./build/obj/oslib_test_sequence_007.o (symbol from plugin)
                                                  ./build/obj/oslib_test_sequence_006.o (symbol from plugin)
                                                  ./build/obj/oslib_test_sequence_005.o (symbol from plugin)
                                                  ./build/obj/oslib_test_sequence_004.o (symbol from plugin)
                                                  ./build/obj/oslib_test_sequence_003.o (symbol from plugin)
                                                  ./build/obj/oslib_test_sequence_002.o (symbol from plugin)
                                                  ./build/obj/oslib_test_sequence_001.o (symbol from plugin)
                                                  ./build/obj/rt_test_sequence_011.o (symbol from plugin)
                                                  ./build/obj/rt_test_sequence_010.o (symbol from plugin)
                                                  ./build/obj/rt_test_sequence_009.o (symbol from plugin)
                                                  ./build/obj/rt_test_sequence_008.o (symbol from plugin)
                                                  ./build/obj/rt_test_sequence_007.o (symbol from plugin)
                                                  ./build/obj/rt_test_sequence_006.o (symbol from plugin)
                                                  ./build/obj/rt_test_sequence_005.o (symbol from plugin)
                                                  ./build/obj/rt_test_sequence_004.o (symbol from plugin)
                                                  ./build/obj/rt_test_sequence_003.o (symbol from plugin)
                                                  ./build/obj/rt_test_sequence_002.o (symbol from plugin)
                                                  ./build/obj/rt_test_sequence_001.o (symbol from plugin)
test_terminate_threads                            ./build/obj/rt_test_root.o (symbol from plugin)
                                                  ./build/obj/rt_test_sequence_011.o (symbol from plugin)
test_wait_threads                                 ./build/obj/rt_test_root.o (symbol from plugin)
                                                  ./build/obj/rt_test_sequence_011.o (symbol from plugin)
                                                  ./build/obj/rt_test_sequence_010.o (symbol from plugin)
                                                  ./build/obj/rt_test_sequence_009.o (symbol from plugin)
                                                  ./build/obj/rt_test_sequence_008.o (symbol from plugin)
                                                  ./build/obj/rt_test_sequence_007.o (symbol from plugin)
                                                  ./build/obj/rt_test_sequence_006.o (symbol from plugin)
                                                  ./build/obj/rt_test_sequence_005.o (symbol from plugin)
                                                  ./build/obj/rt_test_sequence_004.o (symbol from plugin)
test_wait_tick                                    ./build/obj/rt_test_root.o (symbol from plugin)
                                                  ./build/obj/rt_test_sequence_011.o (symbol from plugin)
                                                  ./build/obj/rt_test_sequence_009.o (symbol from plugin)
                                                  ./build/obj/rt_test_sequence_006.o (symbol from plugin)
threads                                           ./build/obj/rt_test_root.o (symbol from plugin)
                                                  ./build/obj/rt_test_sequence_011.o (symbol from plugin)
                                                  ./build/obj/rt_test_sequence_010.o (symbol from plugin)
                                                  ./build/obj/rt_test_sequence_009.o (symbol from plugin)
                                                  ./build/obj/rt_test_sequence_008.o (symbol from plugin)
                                                  ./build/obj/rt_test_sequence_007.o (symbol from plugin)
                                                  ./build/obj/rt_test_sequence_006.o (symbol from plugin)
                                                  ./build/obj/rt_test_sequence_005.o (symbol from plugin)
                                                  ./build/obj/rt_test_sequence_004.o (symbol from plugin)
wa                                                ./build/obj/rt_test_root.o (symbol from plugin)
                                                  ./build/obj/rt_test_sequence_011.o (symbol from plugin)
                                                  ./build/obj/rt_test_sequence_010.o (symbol from plugin)
                                                  ./build/obj/rt_test_sequence_009.o (symbol from plugin)
                                                  ./build/obj/rt_test_sequence_008.o (symbol from plugin)
                                                  ./build/obj/rt_test_sequence_007.o (symbol from plugin)
                                                  ./build/obj/rt_test_sequence_006.o (symbol from plugin)
                                                  ./build/obj/rt_test_sequence_005.o (symbol from plugin)
                                                  ./build/obj/rt_test_sequence_004.o (symbol from plugin)
wakeup.lto_priv.0                                 C:\Users\RAKIBU~1\AppData\Local\Temp\ch.elf.ULtIRf.ltrans1.ltrans.o
