ARM GAS  C:\Users\RAKIBU~1\AppData\Local\Temp\ccpGccwq.s 			page 1


   1              		.cpu cortex-m4
   2              		.eabi_attribute 20, 1
   3              		.eabi_attribute 21, 1
   4              		.eabi_attribute 23, 3
   5              		.eabi_attribute 24, 1
   6              		.eabi_attribute 25, 1
   7              		.eabi_attribute 26, 1
   8              		.eabi_attribute 30, 1
   9              		.eabi_attribute 34, 1
  10              		.eabi_attribute 18, 4
  11              		.file	"chfactory.c"
  12              		.text
  13              	.Ltext0:
  14              		.cfi_sections	.debug_frame
  15              		.align	1
  16              		.p2align 4,,15
  17              		.syntax unified
  18              		.thumb
  19              		.thumb_func
  20              		.fpu softvfp
  21              		.type	dyn_list_unlink, %function
  22              	dyn_list_unlink:
  23              	.LFB297:
  24              		.file 1 "../../../ChibiOSRepo/chibios191/os/oslib/src/chfactory.c"
  25              		.loc 1 105 0
  26              		.cfi_startproc
  27              		@ args = 0, pretend = 0, frame = 0
  28              		@ frame_needed = 0, uses_anonymous_args = 0
  29              		@ link register save eliminated.
  30              	.LVL0:
  31              		.loc 1 106 0
  32 0000 0A46     		mov	r2, r1
  33              	.LVL1:
  34              	.L2:
  35              		.loc 1 109 0
  36 0002 1368     		ldr	r3, [r2]
  37 0004 8B42     		cmp	r3, r1
  38 0006 06D0     		beq	.L6
  39              		.loc 1 110 0
  40 0008 8342     		cmp	r3, r0
  41 000a 01D0     		beq	.L7
  42              		.loc 1 117 0
  43 000c 1A46     		mov	r2, r3
  44              	.LVL2:
  45 000e F8E7     		b	.L2
  46              	.LVL3:
  47              	.L7:
  48              		.loc 1 112 0
  49 0010 0368     		ldr	r3, [r0]
  50 0012 1360     		str	r3, [r2]
  51              		.loc 1 113 0
  52 0014 7047     		bx	lr
  53              	.L6:
  54              		.loc 1 120 0
  55 0016 0020     		movs	r0, #0
  56              	.LVL4:
  57              		.loc 1 121 0
ARM GAS  C:\Users\RAKIBU~1\AppData\Local\Temp\ccpGccwq.s 			page 2


  58 0018 7047     		bx	lr
  59              		.cfi_endproc
  60              	.LFE297:
  61              		.size	dyn_list_unlink, .-dyn_list_unlink
  62              		.align	1
  63 001a 00BFAFF3 		.p2align 4,,15
  63      0080
  64              		.syntax unified
  65              		.thumb
  66              		.thumb_func
  67              		.fpu softvfp
  68              		.type	chCoreAllocAlignedI, %function
  69              	chCoreAllocAlignedI:
  70              	.LFB249:
  71              		.file 2 "../../../ChibiOSRepo/chibios191/os/oslib/include/chmemcore.h"
  72              		.loc 2 135 0
  73              		.cfi_startproc
  74              		@ args = 0, pretend = 0, frame = 0
  75              		@ frame_needed = 0, uses_anonymous_args = 0
  76              	.LVL5:
  77 0020 08B5     		push	{r3, lr}
  78              		.cfi_def_cfa_offset 8
  79              		.cfi_offset 3, -8
  80              		.cfi_offset 14, -4
  81              		.loc 2 137 0
  82 0022 0022     		movs	r2, #0
  83 0024 FFF7FEFF 		bl	chCoreAllocAlignedWithOffsetI
  84              	.LVL6:
  85              		.loc 2 138 0
  86 0028 08BD     		pop	{r3, pc}
  87              		.cfi_endproc
  88              	.LFE249:
  89              		.size	chCoreAllocAlignedI, .-chCoreAllocAlignedI
  90              		.align	1
  91 002a 00BFAFF3 		.p2align 4,,15
  91      0080
  92              		.syntax unified
  93              		.thumb
  94              		.thumb_func
  95              		.fpu softvfp
  96              		.type	dyn_list_find, %function
  97              	dyn_list_find:
  98              	.LFB296:
  99              		.loc 1 91 0
 100              		.cfi_startproc
 101              		@ args = 0, pretend = 0, frame = 0
 102              		@ frame_needed = 0, uses_anonymous_args = 0
 103              	.LVL7:
 104 0030 70B5     		push	{r4, r5, r6, lr}
 105              		.cfi_def_cfa_offset 16
 106              		.cfi_offset 4, -16
 107              		.cfi_offset 5, -12
 108              		.cfi_offset 6, -8
 109              		.cfi_offset 14, -4
 110 0032 0646     		mov	r6, r0
 111 0034 0D46     		mov	r5, r1
 112              		.loc 1 92 0
ARM GAS  C:\Users\RAKIBU~1\AppData\Local\Temp\ccpGccwq.s 			page 3


 113 0036 0C68     		ldr	r4, [r1]
 114              	.LVL8:
 115              	.L11:
 116              		.loc 1 94 0
 117 0038 AC42     		cmp	r4, r5
 118 003a 07D0     		beq	.L15
 119              		.loc 1 95 0
 120 003c 0822     		movs	r2, #8
 121 003e 3146     		mov	r1, r6
 122 0040 A018     		adds	r0, r4, r2
 123 0042 FFF7FEFF 		bl	strncmp
 124              	.LVL9:
 125 0046 10B1     		cbz	r0, .L10
 126              		.loc 1 98 0
 127 0048 2468     		ldr	r4, [r4]
 128              	.LVL10:
 129 004a F5E7     		b	.L11
 130              	.L15:
 131              		.loc 1 101 0
 132 004c 0024     		movs	r4, #0
 133              	.LVL11:
 134              	.L10:
 135              		.loc 1 102 0
 136 004e 2046     		mov	r0, r4
 137 0050 70BD     		pop	{r4, r5, r6, pc}
 138              		.cfi_endproc
 139              	.LFE296:
 140              		.size	dyn_list_find, .-dyn_list_find
 141              		.align	1
 142 0052 00BFAFF3 		.p2align 4,,15
 142      0080AFF3 
 142      0080AFF3 
 142      0080
 143              		.syntax unified
 144              		.thumb
 145              		.thumb_func
 146              		.fpu softvfp
 147              		.type	dyn_create_object_pool, %function
 148              	dyn_create_object_pool:
 149              	.LFB300:
 150              		.loc 1 175 0
 151              		.cfi_startproc
 152              		@ args = 0, pretend = 0, frame = 0
 153              		@ frame_needed = 0, uses_anonymous_args = 0
 154              	.LVL12:
 155 0060 70B5     		push	{r4, r5, r6, lr}
 156              		.cfi_def_cfa_offset 16
 157              		.cfi_offset 4, -16
 158              		.cfi_offset 5, -12
 159              		.cfi_offset 6, -8
 160              		.cfi_offset 14, -4
 161 0062 0D46     		mov	r5, r1
 162 0064 1446     		mov	r4, r2
 163              		.loc 1 178 0
 164 0066 0646     		mov	r6, r0
 165 0068 A8B1     		cbz	r0, .L21
 166              	.LVL13:
ARM GAS  C:\Users\RAKIBU~1\AppData\Local\Temp\ccpGccwq.s 			page 4


 167              	.L17:
 168              		.loc 1 181 0
 169 006a 2946     		mov	r1, r5
 170 006c 3046     		mov	r0, r6
 171 006e FFF7DFFF 		bl	dyn_list_find
 172              	.LVL14:
 173              		.loc 1 182 0
 174 0072 A0B9     		cbnz	r0, .L19
 175              		.loc 1 187 0
 176 0074 2046     		mov	r0, r4
 177              	.LVL15:
 178 0076 FFF7FEFF 		bl	chPoolAlloc
 179              	.LVL16:
 180              		.loc 1 188 0
 181 007a 0446     		mov	r4, r0
 182              	.LVL17:
 183 007c 48B1     		cbz	r0, .L16
 184              		.loc 1 195 0
 185 007e 0822     		movs	r2, #8
 186 0080 3146     		mov	r1, r6
 187 0082 1044     		add	r0, r0, r2
 188              	.LVL18:
 189 0084 FFF7FEFF 		bl	strncpy
 190              	.LVL19:
 191              		.loc 1 197 0
 192 0088 0123     		movs	r3, #1
 193 008a 6360     		str	r3, [r4, #4]
 194              		.loc 1 198 0
 195 008c 2B68     		ldr	r3, [r5]
 196 008e 2360     		str	r3, [r4]
 197              		.loc 1 201 0
 198 0090 2C60     		str	r4, [r5]
 199              	.LVL20:
 200              	.L16:
 201              		.loc 1 204 0
 202 0092 2046     		mov	r0, r4
 203 0094 70BD     		pop	{r4, r5, r6, pc}
 204              	.LVL21:
 205              	.L21:
 206              		.loc 1 178 0 discriminator 2
 207 0096 0348     		ldr	r0, .L22
 208              	.LVL22:
 209 0098 FFF7FEFF 		bl	chSysHalt
 210              	.LVL23:
 211 009c E5E7     		b	.L17
 212              	.LVL24:
 213              	.L19:
 214              		.loc 1 183 0
 215 009e 0024     		movs	r4, #0
 216              	.LVL25:
 217 00a0 F7E7     		b	.L16
 218              	.L23:
 219 00a2 00BF     		.align	2
 220              	.L22:
 221 00a4 00000000 		.word	.LANCHOR0
 222              		.cfi_endproc
 223              	.LFE300:
ARM GAS  C:\Users\RAKIBU~1\AppData\Local\Temp\ccpGccwq.s 			page 5


 224              		.size	dyn_create_object_pool, .-dyn_create_object_pool
 225              		.align	1
 226 00a8 AFF30080 		.p2align 4,,15
 226      AFF30080 
 227              		.syntax unified
 228              		.thumb
 229              		.thumb_func
 230              		.fpu softvfp
 231              		.type	dyn_find_object, %function
 232              	dyn_find_object:
 233              	.LFB302:
 234              		.loc 1 221 0
 235              		.cfi_startproc
 236              		@ args = 0, pretend = 0, frame = 0
 237              		@ frame_needed = 0, uses_anonymous_args = 0
 238              	.LVL26:
 239 00b0 38B5     		push	{r3, r4, r5, lr}
 240              		.cfi_def_cfa_offset 16
 241              		.cfi_offset 3, -16
 242              		.cfi_offset 4, -12
 243              		.cfi_offset 5, -8
 244              		.cfi_offset 14, -4
 245 00b2 0D46     		mov	r5, r1
 246              		.loc 1 224 0
 247 00b4 0446     		mov	r4, r0
 248 00b6 50B1     		cbz	r0, .L28
 249              	.LVL27:
 250              	.L25:
 251              		.loc 1 227 0
 252 00b8 2946     		mov	r1, r5
 253 00ba 2046     		mov	r0, r4
 254 00bc FFF7B8FF 		bl	dyn_list_find
 255              	.LVL28:
 256              		.loc 1 228 0
 257 00c0 0346     		mov	r3, r0
 258 00c2 10B1     		cbz	r0, .L24
 259              		.loc 1 230 0
 260 00c4 4268     		ldr	r2, [r0, #4]
 261 00c6 0132     		adds	r2, r2, #1
 262 00c8 4260     		str	r2, [r0, #4]
 263              	.L24:
 264              		.loc 1 234 0
 265 00ca 1846     		mov	r0, r3
 266              	.LVL29:
 267 00cc 38BD     		pop	{r3, r4, r5, pc}
 268              	.LVL30:
 269              	.L28:
 270              		.loc 1 224 0 discriminator 2
 271 00ce 0248     		ldr	r0, .L29
 272              	.LVL31:
 273 00d0 FFF7FEFF 		bl	chSysHalt
 274              	.LVL32:
 275 00d4 F0E7     		b	.L25
 276              	.L30:
 277 00d6 00BF     		.align	2
 278              	.L29:
 279 00d8 18000000 		.word	.LANCHOR0+24
ARM GAS  C:\Users\RAKIBU~1\AppData\Local\Temp\ccpGccwq.s 			page 6


 280              		.cfi_endproc
 281              	.LFE302:
 282              		.size	dyn_find_object, .-dyn_find_object
 283              		.align	1
 284 00dc AFF30080 		.p2align 4,,15
 285              		.syntax unified
 286              		.thumb
 287              		.thumb_func
 288              		.fpu softvfp
 289              		.type	dyn_release_object_pool, %function
 290              	dyn_release_object_pool:
 291              	.LFB301:
 292              		.loc 1 208 0
 293              		.cfi_startproc
 294              		@ args = 0, pretend = 0, frame = 0
 295              		@ frame_needed = 0, uses_anonymous_args = 0
 296              	.LVL33:
 297 00e0 70B5     		push	{r4, r5, r6, lr}
 298              		.cfi_def_cfa_offset 16
 299              		.cfi_offset 4, -16
 300              		.cfi_offset 5, -12
 301              		.cfi_offset 6, -8
 302              		.cfi_offset 14, -4
 303 00e2 0E46     		mov	r6, r1
 304 00e4 1546     		mov	r5, r2
 305              		.loc 1 210 0
 306 00e6 0446     		mov	r4, r0
 307 00e8 30B1     		cbz	r0, .L36
 308              	.LVL34:
 309              	.L32:
 310              		.loc 1 211 0 discriminator 1
 311 00ea 6368     		ldr	r3, [r4, #4]
 312 00ec 43B1     		cbz	r3, .L37
 313              	.L33:
 314              		.loc 1 213 0
 315 00ee 6368     		ldr	r3, [r4, #4]
 316 00f0 013B     		subs	r3, r3, #1
 317 00f2 6360     		str	r3, [r4, #4]
 318              		.loc 1 214 0
 319 00f4 43B1     		cbz	r3, .L38
 320              	.LVL35:
 321              	.L31:
 322              		.loc 1 218 0
 323 00f6 70BD     		pop	{r4, r5, r6, pc}
 324              	.LVL36:
 325              	.L36:
 326              		.loc 1 210 0 discriminator 2
 327 00f8 0848     		ldr	r0, .L39
 328              	.LVL37:
 329 00fa FFF7FEFF 		bl	chSysHalt
 330              	.LVL38:
 331 00fe F4E7     		b	.L32
 332              	.L37:
 333              		.loc 1 211 0 discriminator 2
 334 0100 0648     		ldr	r0, .L39
 335 0102 FFF7FEFF 		bl	chSysHalt
 336              	.LVL39:
ARM GAS  C:\Users\RAKIBU~1\AppData\Local\Temp\ccpGccwq.s 			page 7


 337 0106 F2E7     		b	.L33
 338              	.L38:
 339              		.loc 1 215 0
 340 0108 3146     		mov	r1, r6
 341 010a 2046     		mov	r0, r4
 342 010c FFF778FF 		bl	dyn_list_unlink
 343              	.LVL40:
 344              		.loc 1 216 0
 345 0110 0146     		mov	r1, r0
 346 0112 2846     		mov	r0, r5
 347              	.LVL41:
 348 0114 FFF7FEFF 		bl	chPoolFree
 349              	.LVL42:
 350              		.loc 1 218 0
 351 0118 EDE7     		b	.L31
 352              	.L40:
 353 011a 00BF     		.align	2
 354              	.L39:
 355 011c 28000000 		.word	.LANCHOR0+40
 356              		.cfi_endproc
 357              	.LFE301:
 358              		.size	dyn_release_object_pool, .-dyn_release_object_pool
 359              		.align	1
 360              		.p2align 4,,15
 361              		.syntax unified
 362              		.thumb
 363              		.thumb_func
 364              		.fpu softvfp
 365              		.type	dyn_create_object_heap, %function
 366              	dyn_create_object_heap:
 367              	.LFB298:
 368              		.loc 1 126 0
 369              		.cfi_startproc
 370              		@ args = 0, pretend = 0, frame = 0
 371              		@ frame_needed = 0, uses_anonymous_args = 0
 372              	.LVL43:
 373 0120 70B5     		push	{r4, r5, r6, lr}
 374              		.cfi_def_cfa_offset 16
 375              		.cfi_offset 4, -16
 376              		.cfi_offset 5, -12
 377              		.cfi_offset 6, -8
 378              		.cfi_offset 14, -4
 379 0122 0D46     		mov	r5, r1
 380 0124 1446     		mov	r4, r2
 381              		.loc 1 129 0
 382 0126 0646     		mov	r6, r0
 383 0128 B0B1     		cbz	r0, .L46
 384              	.LVL44:
 385              	.L42:
 386              		.loc 1 132 0
 387 012a 2946     		mov	r1, r5
 388 012c 3046     		mov	r0, r6
 389 012e FFF77FFF 		bl	dyn_list_find
 390              	.LVL45:
 391              		.loc 1 133 0
 392 0132 A8B9     		cbnz	r0, .L44
 393              	.LVL46:
ARM GAS  C:\Users\RAKIBU~1\AppData\Local\Temp\ccpGccwq.s 			page 8


 394              	.LBB20:
 395              	.LBB21:
 396              		.file 3 "../../../ChibiOSRepo/chibios191/os/oslib/include/chmemheaps.h"
 397              		.loc 3 156 0
 398 0134 0822     		movs	r2, #8
 399 0136 2146     		mov	r1, r4
 400 0138 FFF7FEFF 		bl	chHeapAllocAligned
 401              	.LVL47:
 402              	.LBE21:
 403              	.LBE20:
 404              		.loc 1 141 0
 405 013c 0446     		mov	r4, r0
 406              	.LVL48:
 407 013e 48B1     		cbz	r0, .L41
 408              		.loc 1 146 0
 409 0140 0822     		movs	r2, #8
 410 0142 3146     		mov	r1, r6
 411 0144 1044     		add	r0, r0, r2
 412 0146 FFF7FEFF 		bl	strncpy
 413              	.LVL49:
 414              		.loc 1 148 0
 415 014a 0123     		movs	r3, #1
 416 014c 6360     		str	r3, [r4, #4]
 417              		.loc 1 149 0
 418 014e 2B68     		ldr	r3, [r5]
 419 0150 2360     		str	r3, [r4]
 420              		.loc 1 152 0
 421 0152 2C60     		str	r4, [r5]
 422              	.L41:
 423              		.loc 1 155 0
 424 0154 2046     		mov	r0, r4
 425 0156 70BD     		pop	{r4, r5, r6, pc}
 426              	.LVL50:
 427              	.L46:
 428              		.loc 1 129 0 discriminator 2
 429 0158 0248     		ldr	r0, .L47
 430              	.LVL51:
 431 015a FFF7FEFF 		bl	chSysHalt
 432              	.LVL52:
 433 015e E4E7     		b	.L42
 434              	.LVL53:
 435              	.L44:
 436              		.loc 1 134 0
 437 0160 0024     		movs	r4, #0
 438              	.LVL54:
 439 0162 F7E7     		b	.L41
 440              	.L48:
 441              		.align	2
 442              	.L47:
 443 0164 40000000 		.word	.LANCHOR0+64
 444              		.cfi_endproc
 445              	.LFE298:
 446              		.size	dyn_create_object_heap, .-dyn_create_object_heap
 447              		.align	1
 448 0168 AFF30080 		.p2align 4,,15
 448      AFF30080 
 449              		.syntax unified
ARM GAS  C:\Users\RAKIBU~1\AppData\Local\Temp\ccpGccwq.s 			page 9


 450              		.thumb
 451              		.thumb_func
 452              		.fpu softvfp
 453              		.type	dyn_release_object_heap, %function
 454              	dyn_release_object_heap:
 455              	.LFB299:
 456              		.loc 1 158 0
 457              		.cfi_startproc
 458              		@ args = 0, pretend = 0, frame = 0
 459              		@ frame_needed = 0, uses_anonymous_args = 0
 460              	.LVL55:
 461 0170 38B5     		push	{r3, r4, r5, lr}
 462              		.cfi_def_cfa_offset 16
 463              		.cfi_offset 3, -16
 464              		.cfi_offset 4, -12
 465              		.cfi_offset 5, -8
 466              		.cfi_offset 14, -4
 467 0172 0D46     		mov	r5, r1
 468              		.loc 1 160 0
 469 0174 0446     		mov	r4, r0
 470 0176 30B1     		cbz	r0, .L54
 471              	.LVL56:
 472              	.L50:
 473              		.loc 1 161 0 discriminator 1
 474 0178 6368     		ldr	r3, [r4, #4]
 475 017a 43B1     		cbz	r3, .L55
 476              	.L51:
 477              		.loc 1 164 0
 478 017c 6368     		ldr	r3, [r4, #4]
 479 017e 013B     		subs	r3, r3, #1
 480 0180 6360     		str	r3, [r4, #4]
 481              		.loc 1 165 0
 482 0182 43B1     		cbz	r3, .L56
 483              	.LVL57:
 484              	.L49:
 485              		.loc 1 169 0
 486 0184 38BD     		pop	{r3, r4, r5, pc}
 487              	.LVL58:
 488              	.L54:
 489              		.loc 1 160 0 discriminator 2
 490 0186 0748     		ldr	r0, .L57
 491              	.LVL59:
 492 0188 FFF7FEFF 		bl	chSysHalt
 493              	.LVL60:
 494 018c F4E7     		b	.L50
 495              	.L55:
 496              		.loc 1 161 0 discriminator 2
 497 018e 0548     		ldr	r0, .L57
 498 0190 FFF7FEFF 		bl	chSysHalt
 499              	.LVL61:
 500 0194 F2E7     		b	.L51
 501              	.L56:
 502              		.loc 1 166 0
 503 0196 2946     		mov	r1, r5
 504 0198 2046     		mov	r0, r4
 505 019a FFF731FF 		bl	dyn_list_unlink
 506              	.LVL62:
ARM GAS  C:\Users\RAKIBU~1\AppData\Local\Temp\ccpGccwq.s 			page 10


 507              		.loc 1 167 0
 508 019e FFF7FEFF 		bl	chHeapFree
 509              	.LVL63:
 510              		.loc 1 169 0
 511 01a2 EFE7     		b	.L49
 512              	.L58:
 513              		.align	2
 514              	.L57:
 515 01a4 58000000 		.word	.LANCHOR0+88
 516              		.cfi_endproc
 517              	.LFE299:
 518              		.size	dyn_release_object_heap, .-dyn_release_object_heap
 519              		.align	1
 520 01a8 AFF30080 		.p2align 4,,15
 520      AFF30080 
 521              		.global	_factory_init
 522              		.syntax unified
 523              		.thumb
 524              		.thumb_func
 525              		.fpu softvfp
 526              		.type	_factory_init, %function
 527              	_factory_init:
 528              	.LFB303:
 529              		.loc 1 245 0
 530              		.cfi_startproc
 531              		@ args = 0, pretend = 0, frame = 0
 532              		@ frame_needed = 0, uses_anonymous_args = 0
 533 01b0 38B5     		push	{r3, r4, r5, lr}
 534              		.cfi_def_cfa_offset 16
 535              		.cfi_offset 3, -16
 536              		.cfi_offset 4, -12
 537              		.cfi_offset 5, -8
 538              		.cfi_offset 14, -4
 539              		.loc 1 248 0
 540 01b2 124C     		ldr	r4, .L61
 541 01b4 2046     		mov	r0, r4
 542 01b6 FFF7FEFF 		bl	chMtxObjectInit
 543              	.LVL64:
 544              	.LBB22:
 545              	.LBB23:
 546              		.loc 1 88 0
 547 01ba 04F11003 		add	r3, r4, #16
 548 01be 2361     		str	r3, [r4, #16]
 549              	.LVL65:
 550              	.LBE23:
 551              	.LBE22:
 552              	.LBB24:
 553              	.LBB25:
 554              		.file 4 "../../../ChibiOSRepo/chibios191/os/oslib/include/chmempools.h"
 555              		.loc 4 193 0
 556 01c0 0F4D     		ldr	r5, .L61+4
 557 01c2 2B46     		mov	r3, r5
 558 01c4 0422     		movs	r2, #4
 559 01c6 1421     		movs	r1, #20
 560 01c8 6018     		adds	r0, r4, r1
 561 01ca FFF7FEFF 		bl	chPoolObjectInitAligned
 562              	.LVL66:
ARM GAS  C:\Users\RAKIBU~1\AppData\Local\Temp\ccpGccwq.s 			page 11


 563              	.LBE25:
 564              	.LBE24:
 565              	.LBB26:
 566              	.LBB27:
 567              		.loc 1 88 0
 568 01ce 04F12403 		add	r3, r4, #36
 569 01d2 6362     		str	r3, [r4, #36]
 570              	.LVL67:
 571              	.LBE27:
 572              	.LBE26:
 573              	.LBB28:
 574              	.LBB29:
 575 01d4 04F12803 		add	r3, r4, #40
 576 01d8 A362     		str	r3, [r4, #40]
 577              	.LVL68:
 578              	.LBE29:
 579              	.LBE28:
 580              	.LBB30:
 581              	.LBB31:
 582              		.loc 4 193 0
 583 01da 2B46     		mov	r3, r5
 584 01dc 0422     		movs	r2, #4
 585 01de 1C21     		movs	r1, #28
 586 01e0 04F12C00 		add	r0, r4, #44
 587 01e4 FFF7FEFF 		bl	chPoolObjectInitAligned
 588              	.LVL69:
 589              	.LBE31:
 590              	.LBE30:
 591              	.LBB32:
 592              	.LBB33:
 593              		.loc 1 88 0
 594 01e8 04F13C03 		add	r3, r4, #60
 595 01ec E363     		str	r3, [r4, #60]
 596              	.LVL70:
 597              	.LBE33:
 598              	.LBE32:
 599              	.LBB34:
 600              	.LBB35:
 601 01ee 04F14003 		add	r3, r4, #64
 602 01f2 2364     		str	r3, [r4, #64]
 603              	.LVL71:
 604              	.LBE35:
 605              	.LBE34:
 606              	.LBB36:
 607              	.LBB37:
 608 01f4 04F14403 		add	r3, r4, #68
 609 01f8 6364     		str	r3, [r4, #68]
 610              	.LVL72:
 611              	.LBE37:
 612              	.LBE36:
 613              		.loc 1 277 0
 614 01fa 38BD     		pop	{r3, r4, r5, pc}
 615              	.L62:
 616              		.align	2
 617              	.L61:
 618 01fc 00000000 		.word	ch_factory
 619 0200 00000000 		.word	chCoreAllocAlignedI
ARM GAS  C:\Users\RAKIBU~1\AppData\Local\Temp\ccpGccwq.s 			page 12


 620              		.cfi_endproc
 621              	.LFE303:
 622              		.size	_factory_init, .-_factory_init
 623              		.align	1
 624 0204 AFF30080 		.p2align 4,,15
 624      AFF30080 
 624      AFF30080 
 625              		.global	chFactoryRegisterObject
 626              		.syntax unified
 627              		.thumb
 628              		.thumb_func
 629              		.fpu softvfp
 630              		.type	chFactoryRegisterObject, %function
 631              	chFactoryRegisterObject:
 632              	.LFB304:
 633              		.loc 1 295 0
 634              		.cfi_startproc
 635              		@ args = 0, pretend = 0, frame = 0
 636              		@ frame_needed = 0, uses_anonymous_args = 0
 637              	.LVL73:
 638 0210 70B5     		push	{r4, r5, r6, lr}
 639              		.cfi_def_cfa_offset 16
 640              		.cfi_offset 4, -16
 641              		.cfi_offset 5, -12
 642              		.cfi_offset 6, -8
 643              		.cfi_offset 14, -4
 644 0212 0546     		mov	r5, r0
 645 0214 0E46     		mov	r6, r1
 646              		.loc 1 298 0
 647 0216 094C     		ldr	r4, .L66
 648 0218 2046     		mov	r0, r4
 649              	.LVL74:
 650 021a FFF7FEFF 		bl	chMtxLock
 651              	.LVL75:
 652              		.loc 1 300 0
 653 021e 04F11402 		add	r2, r4, #20
 654 0222 04F11001 		add	r1, r4, #16
 655 0226 2846     		mov	r0, r5
 656 0228 FFF71AFF 		bl	dyn_create_object_pool
 657              	.LVL76:
 658              		.loc 1 303 0
 659 022c 0446     		mov	r4, r0
 660 022e 00B1     		cbz	r0, .L64
 661              		.loc 1 305 0
 662 0230 0661     		str	r6, [r0, #16]
 663              	.L64:
 664              		.loc 1 308 0
 665 0232 0248     		ldr	r0, .L66
 666              	.LVL77:
 667 0234 FFF7FEFF 		bl	chMtxUnlock
 668              	.LVL78:
 669              		.loc 1 311 0
 670 0238 2046     		mov	r0, r4
 671 023a 70BD     		pop	{r4, r5, r6, pc}
 672              	.LVL79:
 673              	.L67:
 674              		.align	2
ARM GAS  C:\Users\RAKIBU~1\AppData\Local\Temp\ccpGccwq.s 			page 13


 675              	.L66:
 676 023c 00000000 		.word	ch_factory
 677              		.cfi_endproc
 678              	.LFE304:
 679              		.size	chFactoryRegisterObject, .-chFactoryRegisterObject
 680              		.align	1
 681              		.p2align 4,,15
 682              		.global	chFactoryFindObject
 683              		.syntax unified
 684              		.thumb
 685              		.thumb_func
 686              		.fpu softvfp
 687              		.type	chFactoryFindObject, %function
 688              	chFactoryFindObject:
 689              	.LFB305:
 690              		.loc 1 326 0
 691              		.cfi_startproc
 692              		@ args = 0, pretend = 0, frame = 0
 693              		@ frame_needed = 0, uses_anonymous_args = 0
 694              	.LVL80:
 695 0240 38B5     		push	{r3, r4, r5, lr}
 696              		.cfi_def_cfa_offset 16
 697              		.cfi_offset 3, -16
 698              		.cfi_offset 4, -12
 699              		.cfi_offset 5, -8
 700              		.cfi_offset 14, -4
 701 0242 0546     		mov	r5, r0
 702              		.loc 1 329 0
 703 0244 074C     		ldr	r4, .L70
 704 0246 2046     		mov	r0, r4
 705              	.LVL81:
 706 0248 FFF7FEFF 		bl	chMtxLock
 707              	.LVL82:
 708              		.loc 1 331 0
 709 024c 04F11001 		add	r1, r4, #16
 710 0250 2846     		mov	r0, r5
 711 0252 FFF72DFF 		bl	dyn_find_object
 712              	.LVL83:
 713 0256 0546     		mov	r5, r0
 714              	.LVL84:
 715              		.loc 1 333 0
 716 0258 2046     		mov	r0, r4
 717              	.LVL85:
 718 025a FFF7FEFF 		bl	chMtxUnlock
 719              	.LVL86:
 720              		.loc 1 336 0
 721 025e 2846     		mov	r0, r5
 722 0260 38BD     		pop	{r3, r4, r5, pc}
 723              	.LVL87:
 724              	.L71:
 725 0262 00BF     		.align	2
 726              	.L70:
 727 0264 00000000 		.word	ch_factory
 728              		.cfi_endproc
 729              	.LFE305:
 730              		.size	chFactoryFindObject, .-chFactoryFindObject
 731              		.align	1
ARM GAS  C:\Users\RAKIBU~1\AppData\Local\Temp\ccpGccwq.s 			page 14


 732 0268 AFF30080 		.p2align 4,,15
 732      AFF30080 
 733              		.global	chFactoryFindObjectByPointer
 734              		.syntax unified
 735              		.thumb
 736              		.thumb_func
 737              		.fpu softvfp
 738              		.type	chFactoryFindObjectByPointer, %function
 739              	chFactoryFindObjectByPointer:
 740              	.LFB306:
 741              		.loc 1 351 0
 742              		.cfi_startproc
 743              		@ args = 0, pretend = 0, frame = 0
 744              		@ frame_needed = 0, uses_anonymous_args = 0
 745              	.LVL88:
 746 0270 38B5     		push	{r3, r4, r5, lr}
 747              		.cfi_def_cfa_offset 16
 748              		.cfi_offset 3, -16
 749              		.cfi_offset 4, -12
 750              		.cfi_offset 5, -8
 751              		.cfi_offset 14, -4
 752 0272 0546     		mov	r5, r0
 753              		.loc 1 352 0
 754 0274 0C48     		ldr	r0, .L80
 755              	.LVL89:
 756 0276 0469     		ldr	r4, [r0, #16]
 757              	.LVL90:
 758              		.loc 1 354 0
 759 0278 FFF7FEFF 		bl	chMtxLock
 760              	.LVL91:
 761              	.L73:
 762              		.loc 1 356 0
 763 027c 0B4B     		ldr	r3, .L80+4
 764 027e 9C42     		cmp	r4, r3
 765 0280 0BD0     		beq	.L78
 766              		.loc 1 357 0
 767 0282 2369     		ldr	r3, [r4, #16]
 768 0284 AB42     		cmp	r3, r5
 769 0286 01D0     		beq	.L79
 770              		.loc 1 364 0
 771 0288 2468     		ldr	r4, [r4]
 772              	.LVL92:
 773 028a F7E7     		b	.L73
 774              	.L79:
 775              		.loc 1 358 0
 776 028c 6368     		ldr	r3, [r4, #4]
 777 028e 0133     		adds	r3, r3, #1
 778 0290 6360     		str	r3, [r4, #4]
 779              		.loc 1 360 0
 780 0292 0548     		ldr	r0, .L80
 781 0294 FFF7FEFF 		bl	chMtxUnlock
 782              	.LVL93:
 783              		.loc 1 362 0
 784 0298 04E0     		b	.L72
 785              	.L78:
 786              		.loc 1 367 0
 787 029a A3F11000 		sub	r0, r3, #16
ARM GAS  C:\Users\RAKIBU~1\AppData\Local\Temp\ccpGccwq.s 			page 15


 788 029e FFF7FEFF 		bl	chMtxUnlock
 789              	.LVL94:
 790              		.loc 1 369 0
 791 02a2 0024     		movs	r4, #0
 792              	.LVL95:
 793              	.L72:
 794              		.loc 1 370 0
 795 02a4 2046     		mov	r0, r4
 796 02a6 38BD     		pop	{r3, r4, r5, pc}
 797              	.LVL96:
 798              	.L81:
 799              		.align	2
 800              	.L80:
 801 02a8 00000000 		.word	ch_factory
 802 02ac 10000000 		.word	ch_factory+16
 803              		.cfi_endproc
 804              	.LFE306:
 805              		.size	chFactoryFindObjectByPointer, .-chFactoryFindObjectByPointer
 806              		.align	1
 807              		.p2align 4,,15
 808              		.global	chFactoryReleaseObject
 809              		.syntax unified
 810              		.thumb
 811              		.thumb_func
 812              		.fpu softvfp
 813              		.type	chFactoryReleaseObject, %function
 814              	chFactoryReleaseObject:
 815              	.LFB307:
 816              		.loc 1 384 0
 817              		.cfi_startproc
 818              		@ args = 0, pretend = 0, frame = 0
 819              		@ frame_needed = 0, uses_anonymous_args = 0
 820              	.LVL97:
 821 02b0 38B5     		push	{r3, r4, r5, lr}
 822              		.cfi_def_cfa_offset 16
 823              		.cfi_offset 3, -16
 824              		.cfi_offset 4, -12
 825              		.cfi_offset 5, -8
 826              		.cfi_offset 14, -4
 827 02b2 0546     		mov	r5, r0
 828              		.loc 1 386 0
 829 02b4 074C     		ldr	r4, .L84
 830 02b6 2046     		mov	r0, r4
 831              	.LVL98:
 832 02b8 FFF7FEFF 		bl	chMtxLock
 833              	.LVL99:
 834              		.loc 1 388 0
 835 02bc 04F11402 		add	r2, r4, #20
 836 02c0 04F11001 		add	r1, r4, #16
 837 02c4 2846     		mov	r0, r5
 838 02c6 FFF70BFF 		bl	dyn_release_object_pool
 839              	.LVL100:
 840              		.loc 1 392 0
 841 02ca 2046     		mov	r0, r4
 842 02cc FFF7FEFF 		bl	chMtxUnlock
 843              	.LVL101:
 844              		.loc 1 393 0
ARM GAS  C:\Users\RAKIBU~1\AppData\Local\Temp\ccpGccwq.s 			page 16


 845 02d0 38BD     		pop	{r3, r4, r5, pc}
 846              	.LVL102:
 847              	.L85:
 848 02d2 00BF     		.align	2
 849              	.L84:
 850 02d4 00000000 		.word	ch_factory
 851              		.cfi_endproc
 852              	.LFE307:
 853              		.size	chFactoryReleaseObject, .-chFactoryReleaseObject
 854              		.align	1
 855 02d8 AFF30080 		.p2align 4,,15
 855      AFF30080 
 856              		.global	chFactoryCreateBuffer
 857              		.syntax unified
 858              		.thumb
 859              		.thumb_func
 860              		.fpu softvfp
 861              		.type	chFactoryCreateBuffer, %function
 862              	chFactoryCreateBuffer:
 863              	.LFB308:
 864              		.loc 1 412 0
 865              		.cfi_startproc
 866              		@ args = 0, pretend = 0, frame = 0
 867              		@ frame_needed = 0, uses_anonymous_args = 0
 868              	.LVL103:
 869 02e0 70B5     		push	{r4, r5, r6, lr}
 870              		.cfi_def_cfa_offset 16
 871              		.cfi_offset 4, -16
 872              		.cfi_offset 5, -12
 873              		.cfi_offset 6, -8
 874              		.cfi_offset 14, -4
 875 02e2 0646     		mov	r6, r0
 876 02e4 0D46     		mov	r5, r1
 877              		.loc 1 415 0
 878 02e6 0B4C     		ldr	r4, .L89
 879 02e8 2046     		mov	r0, r4
 880              	.LVL104:
 881 02ea FFF7FEFF 		bl	chMtxLock
 882              	.LVL105:
 883              		.loc 1 417 0
 884 02ee 2A46     		mov	r2, r5
 885 02f0 04F12401 		add	r1, r4, #36
 886 02f4 3046     		mov	r0, r6
 887 02f6 FFF713FF 		bl	dyn_create_object_heap
 888              	.LVL106:
 889              		.loc 1 420 0
 890 02fa 0446     		mov	r4, r0
 891 02fc 20B1     		cbz	r0, .L87
 892              		.loc 1 422 0
 893 02fe 2A46     		mov	r2, r5
 894 0300 0021     		movs	r1, #0
 895 0302 1030     		adds	r0, r0, #16
 896              	.LVL107:
 897 0304 FFF7FEFF 		bl	memset
 898              	.LVL108:
 899              	.L87:
 900              		.loc 1 425 0
ARM GAS  C:\Users\RAKIBU~1\AppData\Local\Temp\ccpGccwq.s 			page 17


 901 0308 0248     		ldr	r0, .L89
 902 030a FFF7FEFF 		bl	chMtxUnlock
 903              	.LVL109:
 904              		.loc 1 428 0
 905 030e 2046     		mov	r0, r4
 906 0310 70BD     		pop	{r4, r5, r6, pc}
 907              	.LVL110:
 908              	.L90:
 909 0312 00BF     		.align	2
 910              	.L89:
 911 0314 00000000 		.word	ch_factory
 912              		.cfi_endproc
 913              	.LFE308:
 914              		.size	chFactoryCreateBuffer, .-chFactoryCreateBuffer
 915              		.align	1
 916 0318 AFF30080 		.p2align 4,,15
 916      AFF30080 
 917              		.global	chFactoryFindBuffer
 918              		.syntax unified
 919              		.thumb
 920              		.thumb_func
 921              		.fpu softvfp
 922              		.type	chFactoryFindBuffer, %function
 923              	chFactoryFindBuffer:
 924              	.LFB309:
 925              		.loc 1 443 0
 926              		.cfi_startproc
 927              		@ args = 0, pretend = 0, frame = 0
 928              		@ frame_needed = 0, uses_anonymous_args = 0
 929              	.LVL111:
 930 0320 38B5     		push	{r3, r4, r5, lr}
 931              		.cfi_def_cfa_offset 16
 932              		.cfi_offset 3, -16
 933              		.cfi_offset 4, -12
 934              		.cfi_offset 5, -8
 935              		.cfi_offset 14, -4
 936 0322 0546     		mov	r5, r0
 937              		.loc 1 446 0
 938 0324 074C     		ldr	r4, .L93
 939 0326 2046     		mov	r0, r4
 940              	.LVL112:
 941 0328 FFF7FEFF 		bl	chMtxLock
 942              	.LVL113:
 943              		.loc 1 448 0
 944 032c 04F12401 		add	r1, r4, #36
 945 0330 2846     		mov	r0, r5
 946 0332 FFF7BDFE 		bl	dyn_find_object
 947              	.LVL114:
 948 0336 0546     		mov	r5, r0
 949              	.LVL115:
 950              		.loc 1 450 0
 951 0338 2046     		mov	r0, r4
 952              	.LVL116:
 953 033a FFF7FEFF 		bl	chMtxUnlock
 954              	.LVL117:
 955              		.loc 1 453 0
 956 033e 2846     		mov	r0, r5
ARM GAS  C:\Users\RAKIBU~1\AppData\Local\Temp\ccpGccwq.s 			page 18


 957 0340 38BD     		pop	{r3, r4, r5, pc}
 958              	.LVL118:
 959              	.L94:
 960 0342 00BF     		.align	2
 961              	.L93:
 962 0344 00000000 		.word	ch_factory
 963              		.cfi_endproc
 964              	.LFE309:
 965              		.size	chFactoryFindBuffer, .-chFactoryFindBuffer
 966              		.align	1
 967 0348 AFF30080 		.p2align 4,,15
 967      AFF30080 
 968              		.global	chFactoryReleaseBuffer
 969              		.syntax unified
 970              		.thumb
 971              		.thumb_func
 972              		.fpu softvfp
 973              		.type	chFactoryReleaseBuffer, %function
 974              	chFactoryReleaseBuffer:
 975              	.LFB310:
 976              		.loc 1 465 0
 977              		.cfi_startproc
 978              		@ args = 0, pretend = 0, frame = 0
 979              		@ frame_needed = 0, uses_anonymous_args = 0
 980              	.LVL119:
 981 0350 38B5     		push	{r3, r4, r5, lr}
 982              		.cfi_def_cfa_offset 16
 983              		.cfi_offset 3, -16
 984              		.cfi_offset 4, -12
 985              		.cfi_offset 5, -8
 986              		.cfi_offset 14, -4
 987 0352 0546     		mov	r5, r0
 988              		.loc 1 467 0
 989 0354 064C     		ldr	r4, .L97
 990 0356 2046     		mov	r0, r4
 991              	.LVL120:
 992 0358 FFF7FEFF 		bl	chMtxLock
 993              	.LVL121:
 994              		.loc 1 469 0
 995 035c 04F12401 		add	r1, r4, #36
 996 0360 2846     		mov	r0, r5
 997 0362 FFF705FF 		bl	dyn_release_object_heap
 998              	.LVL122:
 999              		.loc 1 471 0
 1000 0366 2046     		mov	r0, r4
 1001 0368 FFF7FEFF 		bl	chMtxUnlock
 1002              	.LVL123:
 1003              		.loc 1 472 0
 1004 036c 38BD     		pop	{r3, r4, r5, pc}
 1005              	.LVL124:
 1006              	.L98:
 1007 036e 00BF     		.align	2
 1008              	.L97:
 1009 0370 00000000 		.word	ch_factory
 1010              		.cfi_endproc
 1011              	.LFE310:
 1012              		.size	chFactoryReleaseBuffer, .-chFactoryReleaseBuffer
ARM GAS  C:\Users\RAKIBU~1\AppData\Local\Temp\ccpGccwq.s 			page 19


 1013              		.align	1
 1014 0374 AFF30080 		.p2align 4,,15
 1014      AFF30080 
 1014      AFF30080 
 1015              		.global	chFactoryCreateSemaphore
 1016              		.syntax unified
 1017              		.thumb
 1018              		.thumb_func
 1019              		.fpu softvfp
 1020              		.type	chFactoryCreateSemaphore, %function
 1021              	chFactoryCreateSemaphore:
 1022              	.LFB311:
 1023              		.loc 1 491 0
 1024              		.cfi_startproc
 1025              		@ args = 0, pretend = 0, frame = 0
 1026              		@ frame_needed = 0, uses_anonymous_args = 0
 1027              	.LVL125:
 1028 0380 70B5     		push	{r4, r5, r6, lr}
 1029              		.cfi_def_cfa_offset 16
 1030              		.cfi_offset 4, -16
 1031              		.cfi_offset 5, -12
 1032              		.cfi_offset 6, -8
 1033              		.cfi_offset 14, -4
 1034 0382 0546     		mov	r5, r0
 1035 0384 0E46     		mov	r6, r1
 1036              		.loc 1 494 0
 1037 0386 0B4C     		ldr	r4, .L102
 1038 0388 2046     		mov	r0, r4
 1039              	.LVL126:
 1040 038a FFF7FEFF 		bl	chMtxLock
 1041              	.LVL127:
 1042              		.loc 1 496 0
 1043 038e 04F12C02 		add	r2, r4, #44
 1044 0392 04F12801 		add	r1, r4, #40
 1045 0396 2846     		mov	r0, r5
 1046 0398 FFF762FE 		bl	dyn_create_object_pool
 1047              	.LVL128:
 1048              		.loc 1 499 0
 1049 039c 0446     		mov	r4, r0
 1050 039e 18B1     		cbz	r0, .L100
 1051              		.loc 1 501 0
 1052 03a0 3146     		mov	r1, r6
 1053 03a2 1030     		adds	r0, r0, #16
 1054              	.LVL129:
 1055 03a4 FFF7FEFF 		bl	chSemObjectInit
 1056              	.LVL130:
 1057              	.L100:
 1058              		.loc 1 504 0
 1059 03a8 0248     		ldr	r0, .L102
 1060 03aa FFF7FEFF 		bl	chMtxUnlock
 1061              	.LVL131:
 1062              		.loc 1 507 0
 1063 03ae 2046     		mov	r0, r4
 1064 03b0 70BD     		pop	{r4, r5, r6, pc}
 1065              	.LVL132:
 1066              	.L103:
 1067 03b2 00BF     		.align	2
ARM GAS  C:\Users\RAKIBU~1\AppData\Local\Temp\ccpGccwq.s 			page 20


 1068              	.L102:
 1069 03b4 00000000 		.word	ch_factory
 1070              		.cfi_endproc
 1071              	.LFE311:
 1072              		.size	chFactoryCreateSemaphore, .-chFactoryCreateSemaphore
 1073              		.align	1
 1074 03b8 AFF30080 		.p2align 4,,15
 1074      AFF30080 
 1075              		.global	chFactoryFindSemaphore
 1076              		.syntax unified
 1077              		.thumb
 1078              		.thumb_func
 1079              		.fpu softvfp
 1080              		.type	chFactoryFindSemaphore, %function
 1081              	chFactoryFindSemaphore:
 1082              	.LFB312:
 1083              		.loc 1 522 0
 1084              		.cfi_startproc
 1085              		@ args = 0, pretend = 0, frame = 0
 1086              		@ frame_needed = 0, uses_anonymous_args = 0
 1087              	.LVL133:
 1088 03c0 38B5     		push	{r3, r4, r5, lr}
 1089              		.cfi_def_cfa_offset 16
 1090              		.cfi_offset 3, -16
 1091              		.cfi_offset 4, -12
 1092              		.cfi_offset 5, -8
 1093              		.cfi_offset 14, -4
 1094 03c2 0546     		mov	r5, r0
 1095              		.loc 1 525 0
 1096 03c4 074C     		ldr	r4, .L106
 1097 03c6 2046     		mov	r0, r4
 1098              	.LVL134:
 1099 03c8 FFF7FEFF 		bl	chMtxLock
 1100              	.LVL135:
 1101              		.loc 1 527 0
 1102 03cc 04F12801 		add	r1, r4, #40
 1103 03d0 2846     		mov	r0, r5
 1104 03d2 FFF76DFE 		bl	dyn_find_object
 1105              	.LVL136:
 1106 03d6 0546     		mov	r5, r0
 1107              	.LVL137:
 1108              		.loc 1 529 0
 1109 03d8 2046     		mov	r0, r4
 1110              	.LVL138:
 1111 03da FFF7FEFF 		bl	chMtxUnlock
 1112              	.LVL139:
 1113              		.loc 1 532 0
 1114 03de 2846     		mov	r0, r5
 1115 03e0 38BD     		pop	{r3, r4, r5, pc}
 1116              	.LVL140:
 1117              	.L107:
 1118 03e2 00BF     		.align	2
 1119              	.L106:
 1120 03e4 00000000 		.word	ch_factory
 1121              		.cfi_endproc
 1122              	.LFE312:
 1123              		.size	chFactoryFindSemaphore, .-chFactoryFindSemaphore
ARM GAS  C:\Users\RAKIBU~1\AppData\Local\Temp\ccpGccwq.s 			page 21


 1124              		.align	1
 1125 03e8 AFF30080 		.p2align 4,,15
 1125      AFF30080 
 1126              		.global	chFactoryReleaseSemaphore
 1127              		.syntax unified
 1128              		.thumb
 1129              		.thumb_func
 1130              		.fpu softvfp
 1131              		.type	chFactoryReleaseSemaphore, %function
 1132              	chFactoryReleaseSemaphore:
 1133              	.LFB313:
 1134              		.loc 1 544 0
 1135              		.cfi_startproc
 1136              		@ args = 0, pretend = 0, frame = 0
 1137              		@ frame_needed = 0, uses_anonymous_args = 0
 1138              	.LVL141:
 1139 03f0 38B5     		push	{r3, r4, r5, lr}
 1140              		.cfi_def_cfa_offset 16
 1141              		.cfi_offset 3, -16
 1142              		.cfi_offset 4, -12
 1143              		.cfi_offset 5, -8
 1144              		.cfi_offset 14, -4
 1145 03f2 0546     		mov	r5, r0
 1146              		.loc 1 546 0
 1147 03f4 074C     		ldr	r4, .L110
 1148 03f6 2046     		mov	r0, r4
 1149              	.LVL142:
 1150 03f8 FFF7FEFF 		bl	chMtxLock
 1151              	.LVL143:
 1152              		.loc 1 548 0
 1153 03fc 04F12C02 		add	r2, r4, #44
 1154 0400 04F12801 		add	r1, r4, #40
 1155 0404 2846     		mov	r0, r5
 1156 0406 FFF76BFE 		bl	dyn_release_object_pool
 1157              	.LVL144:
 1158              		.loc 1 552 0
 1159 040a 2046     		mov	r0, r4
 1160 040c FFF7FEFF 		bl	chMtxUnlock
 1161              	.LVL145:
 1162              		.loc 1 553 0
 1163 0410 38BD     		pop	{r3, r4, r5, pc}
 1164              	.LVL146:
 1165              	.L111:
 1166 0412 00BF     		.align	2
 1167              	.L110:
 1168 0414 00000000 		.word	ch_factory
 1169              		.cfi_endproc
 1170              	.LFE313:
 1171              		.size	chFactoryReleaseSemaphore, .-chFactoryReleaseSemaphore
 1172              		.align	1
 1173 0418 AFF30080 		.p2align 4,,15
 1173      AFF30080 
 1174              		.global	chFactoryCreateMailbox
 1175              		.syntax unified
 1176              		.thumb
 1177              		.thumb_func
 1178              		.fpu softvfp
ARM GAS  C:\Users\RAKIBU~1\AppData\Local\Temp\ccpGccwq.s 			page 22


 1179              		.type	chFactoryCreateMailbox, %function
 1180              	chFactoryCreateMailbox:
 1181              	.LFB314:
 1182              		.loc 1 572 0
 1183              		.cfi_startproc
 1184              		@ args = 0, pretend = 0, frame = 0
 1185              		@ frame_needed = 0, uses_anonymous_args = 0
 1186              	.LVL147:
 1187 0420 70B5     		push	{r4, r5, r6, lr}
 1188              		.cfi_def_cfa_offset 16
 1189              		.cfi_offset 4, -16
 1190              		.cfi_offset 5, -12
 1191              		.cfi_offset 6, -8
 1192              		.cfi_offset 14, -4
 1193 0422 0646     		mov	r6, r0
 1194 0424 0D46     		mov	r5, r1
 1195              		.loc 1 575 0
 1196 0426 0C4C     		ldr	r4, .L115
 1197 0428 2046     		mov	r0, r4
 1198              	.LVL148:
 1199 042a FFF7FEFF 		bl	chMtxLock
 1200              	.LVL149:
 1201              		.loc 1 577 0
 1202 042e 05F10E02 		add	r2, r5, #14
 1203 0432 9200     		lsls	r2, r2, #2
 1204 0434 04F13C01 		add	r1, r4, #60
 1205 0438 3046     		mov	r0, r6
 1206 043a FFF771FE 		bl	dyn_create_object_heap
 1207              	.LVL150:
 1208              		.loc 1 581 0
 1209 043e 0446     		mov	r4, r0
 1210 0440 28B1     		cbz	r0, .L113
 1211              		.loc 1 583 0
 1212 0442 2A46     		mov	r2, r5
 1213 0444 00F13801 		add	r1, r0, #56
 1214 0448 1030     		adds	r0, r0, #16
 1215              	.LVL151:
 1216 044a FFF7FEFF 		bl	chMBObjectInit
 1217              	.LVL152:
 1218              	.L113:
 1219              		.loc 1 586 0
 1220 044e 0248     		ldr	r0, .L115
 1221 0450 FFF7FEFF 		bl	chMtxUnlock
 1222              	.LVL153:
 1223              		.loc 1 589 0
 1224 0454 2046     		mov	r0, r4
 1225 0456 70BD     		pop	{r4, r5, r6, pc}
 1226              	.LVL154:
 1227              	.L116:
 1228              		.align	2
 1229              	.L115:
 1230 0458 00000000 		.word	ch_factory
 1231              		.cfi_endproc
 1232              	.LFE314:
 1233              		.size	chFactoryCreateMailbox, .-chFactoryCreateMailbox
 1234              		.align	1
 1235 045c AFF30080 		.p2align 4,,15
ARM GAS  C:\Users\RAKIBU~1\AppData\Local\Temp\ccpGccwq.s 			page 23


 1236              		.global	chFactoryFindMailbox
 1237              		.syntax unified
 1238              		.thumb
 1239              		.thumb_func
 1240              		.fpu softvfp
 1241              		.type	chFactoryFindMailbox, %function
 1242              	chFactoryFindMailbox:
 1243              	.LFB315:
 1244              		.loc 1 604 0
 1245              		.cfi_startproc
 1246              		@ args = 0, pretend = 0, frame = 0
 1247              		@ frame_needed = 0, uses_anonymous_args = 0
 1248              	.LVL155:
 1249 0460 38B5     		push	{r3, r4, r5, lr}
 1250              		.cfi_def_cfa_offset 16
 1251              		.cfi_offset 3, -16
 1252              		.cfi_offset 4, -12
 1253              		.cfi_offset 5, -8
 1254              		.cfi_offset 14, -4
 1255 0462 0546     		mov	r5, r0
 1256              		.loc 1 607 0
 1257 0464 074C     		ldr	r4, .L119
 1258 0466 2046     		mov	r0, r4
 1259              	.LVL156:
 1260 0468 FFF7FEFF 		bl	chMtxLock
 1261              	.LVL157:
 1262              		.loc 1 609 0
 1263 046c 04F13C01 		add	r1, r4, #60
 1264 0470 2846     		mov	r0, r5
 1265 0472 FFF71DFE 		bl	dyn_find_object
 1266              	.LVL158:
 1267 0476 0546     		mov	r5, r0
 1268              	.LVL159:
 1269              		.loc 1 611 0
 1270 0478 2046     		mov	r0, r4
 1271              	.LVL160:
 1272 047a FFF7FEFF 		bl	chMtxUnlock
 1273              	.LVL161:
 1274              		.loc 1 614 0
 1275 047e 2846     		mov	r0, r5
 1276 0480 38BD     		pop	{r3, r4, r5, pc}
 1277              	.LVL162:
 1278              	.L120:
 1279 0482 00BF     		.align	2
 1280              	.L119:
 1281 0484 00000000 		.word	ch_factory
 1282              		.cfi_endproc
 1283              	.LFE315:
 1284              		.size	chFactoryFindMailbox, .-chFactoryFindMailbox
 1285              		.align	1
 1286 0488 AFF30080 		.p2align 4,,15
 1286      AFF30080 
 1287              		.global	chFactoryReleaseMailbox
 1288              		.syntax unified
 1289              		.thumb
 1290              		.thumb_func
 1291              		.fpu softvfp
ARM GAS  C:\Users\RAKIBU~1\AppData\Local\Temp\ccpGccwq.s 			page 24


 1292              		.type	chFactoryReleaseMailbox, %function
 1293              	chFactoryReleaseMailbox:
 1294              	.LFB316:
 1295              		.loc 1 626 0
 1296              		.cfi_startproc
 1297              		@ args = 0, pretend = 0, frame = 0
 1298              		@ frame_needed = 0, uses_anonymous_args = 0
 1299              	.LVL163:
 1300 0490 38B5     		push	{r3, r4, r5, lr}
 1301              		.cfi_def_cfa_offset 16
 1302              		.cfi_offset 3, -16
 1303              		.cfi_offset 4, -12
 1304              		.cfi_offset 5, -8
 1305              		.cfi_offset 14, -4
 1306 0492 0546     		mov	r5, r0
 1307              		.loc 1 628 0
 1308 0494 064C     		ldr	r4, .L123
 1309 0496 2046     		mov	r0, r4
 1310              	.LVL164:
 1311 0498 FFF7FEFF 		bl	chMtxLock
 1312              	.LVL165:
 1313              		.loc 1 630 0
 1314 049c 04F13C01 		add	r1, r4, #60
 1315 04a0 2846     		mov	r0, r5
 1316 04a2 FFF765FE 		bl	dyn_release_object_heap
 1317              	.LVL166:
 1318              		.loc 1 632 0
 1319 04a6 2046     		mov	r0, r4
 1320 04a8 FFF7FEFF 		bl	chMtxUnlock
 1321              	.LVL167:
 1322              		.loc 1 633 0
 1323 04ac 38BD     		pop	{r3, r4, r5, pc}
 1324              	.LVL168:
 1325              	.L124:
 1326 04ae 00BF     		.align	2
 1327              	.L123:
 1328 04b0 00000000 		.word	ch_factory
 1329              		.cfi_endproc
 1330              	.LFE316:
 1331              		.size	chFactoryReleaseMailbox, .-chFactoryReleaseMailbox
 1332              		.align	1
 1333 04b4 AFF30080 		.p2align 4,,15
 1333      AFF30080 
 1333      AFF30080 
 1334              		.global	chFactoryCreateObjectsFIFO
 1335              		.syntax unified
 1336              		.thumb
 1337              		.thumb_func
 1338              		.fpu softvfp
 1339              		.type	chFactoryCreateObjectsFIFO, %function
 1340              	chFactoryCreateObjectsFIFO:
 1341              	.LFB317:
 1342              		.loc 1 659 0
 1343              		.cfi_startproc
 1344              		@ args = 0, pretend = 0, frame = 0
 1345              		@ frame_needed = 0, uses_anonymous_args = 0
 1346              	.LVL169:
ARM GAS  C:\Users\RAKIBU~1\AppData\Local\Temp\ccpGccwq.s 			page 25


 1347 04c0 2DE9F047 		push	{r4, r5, r6, r7, r8, r9, r10, lr}
 1348              		.cfi_def_cfa_offset 32
 1349              		.cfi_offset 4, -32
 1350              		.cfi_offset 5, -28
 1351              		.cfi_offset 6, -24
 1352              		.cfi_offset 7, -20
 1353              		.cfi_offset 8, -16
 1354              		.cfi_offset 9, -12
 1355              		.cfi_offset 10, -8
 1356              		.cfi_offset 14, -4
 1357 04c4 0746     		mov	r7, r0
 1358 04c6 0D46     		mov	r5, r1
 1359 04c8 1446     		mov	r4, r2
 1360 04ca 9846     		mov	r8, r3
 1361              		.loc 1 662 0
 1362 04cc 1C4E     		ldr	r6, .L130
 1363 04ce 3046     		mov	r0, r6
 1364              	.LVL170:
 1365 04d0 FFF7FEFF 		bl	chMtxLock
 1366              	.LVL171:
 1367              		.loc 1 666 0
 1368 04d4 04F11502 		add	r2, r4, #21
 1369              		.loc 1 668 0
 1370 04d8 05FB04F3 		mul	r3, r5, r4
 1371              		.loc 1 664 0
 1372 04dc 03EB8202 		add	r2, r3, r2, lsl #2
 1373 04e0 06F14001 		add	r1, r6, #64
 1374 04e4 3846     		mov	r0, r7
 1375 04e6 FFF71BFE 		bl	dyn_create_object_heap
 1376              	.LVL172:
 1377              		.loc 1 669 0
 1378 04ea 0646     		mov	r6, r0
 1379 04ec 10B3     		cbz	r0, .L126
 1380              		.loc 1 671 0
 1381 04ee 00F11009 		add	r9, r0, #16
 1382              		.loc 1 672 0
 1383 04f2 04F11407 		add	r7, r4, #20
 1384              	.LVL173:
 1385 04f6 00EB8707 		add	r7, r0, r7, lsl #2
 1386 04fa 0437     		adds	r7, r7, #4
 1387 04fc 00F1540A 		add	r10, r0, #84
 1388              	.LVL174:
 1389              	.LBB40:
 1390              	.LBB41:
 1391              		.file 5 "../../../ChibiOSRepo/chibios191/os/oslib/include/chobjfifos.h"
 1392              		.loc 5 132 0
 1393 0500 4545     		cmp	r5, r8
 1394 0502 04D3     		bcc	.L127
 1395 0504 B5FBF8F3 		udiv	r3, r5, r8
 1396 0508 08FB1353 		mls	r3, r8, r3, r5
 1397 050c 13B1     		cbz	r3, .L128
 1398              	.L127:
 1399 050e 0D48     		ldr	r0, .L130+4
 1400              	.LVL175:
 1401 0510 FFF7FEFF 		bl	chSysHalt
 1402              	.LVL176:
 1403              	.L128:
ARM GAS  C:\Users\RAKIBU~1\AppData\Local\Temp\ccpGccwq.s 			page 26


 1404              		.loc 5 134 0
 1405 0514 4246     		mov	r2, r8
 1406 0516 2946     		mov	r1, r5
 1407 0518 4846     		mov	r0, r9
 1408 051a FFF7FEFF 		bl	chGuardedPoolObjectInitAligned
 1409              	.LVL177:
 1410              		.loc 5 135 0
 1411 051e 2246     		mov	r2, r4
 1412 0520 3946     		mov	r1, r7
 1413 0522 4846     		mov	r0, r9
 1414 0524 FFF7FEFF 		bl	chGuardedPoolLoadArray
 1415              	.LVL178:
 1416              		.loc 5 136 0
 1417 0528 2246     		mov	r2, r4
 1418 052a 5146     		mov	r1, r10
 1419 052c 09F11C00 		add	r0, r9, #28
 1420 0530 FFF7FEFF 		bl	chMBObjectInit
 1421              	.LVL179:
 1422              	.L126:
 1423              	.LBE41:
 1424              	.LBE40:
 1425              		.loc 1 675 0
 1426 0534 0248     		ldr	r0, .L130
 1427 0536 FFF7FEFF 		bl	chMtxUnlock
 1428              	.LVL180:
 1429              		.loc 1 678 0
 1430 053a 3046     		mov	r0, r6
 1431 053c BDE8F087 		pop	{r4, r5, r6, r7, r8, r9, r10, pc}
 1432              	.LVL181:
 1433              	.L131:
 1434              		.align	2
 1435              	.L130:
 1436 0540 00000000 		.word	ch_factory
 1437 0544 70000000 		.word	.LANCHOR0+112
 1438              		.cfi_endproc
 1439              	.LFE317:
 1440              		.size	chFactoryCreateObjectsFIFO, .-chFactoryCreateObjectsFIFO
 1441              		.align	1
 1442 0548 AFF30080 		.p2align 4,,15
 1442      AFF30080 
 1443              		.global	chFactoryFindObjectsFIFO
 1444              		.syntax unified
 1445              		.thumb
 1446              		.thumb_func
 1447              		.fpu softvfp
 1448              		.type	chFactoryFindObjectsFIFO, %function
 1449              	chFactoryFindObjectsFIFO:
 1450              	.LFB318:
 1451              		.loc 1 694 0
 1452              		.cfi_startproc
 1453              		@ args = 0, pretend = 0, frame = 0
 1454              		@ frame_needed = 0, uses_anonymous_args = 0
 1455              	.LVL182:
 1456 0550 38B5     		push	{r3, r4, r5, lr}
 1457              		.cfi_def_cfa_offset 16
 1458              		.cfi_offset 3, -16
 1459              		.cfi_offset 4, -12
ARM GAS  C:\Users\RAKIBU~1\AppData\Local\Temp\ccpGccwq.s 			page 27


 1460              		.cfi_offset 5, -8
 1461              		.cfi_offset 14, -4
 1462 0552 0546     		mov	r5, r0
 1463              		.loc 1 697 0
 1464 0554 074C     		ldr	r4, .L134
 1465 0556 2046     		mov	r0, r4
 1466              	.LVL183:
 1467 0558 FFF7FEFF 		bl	chMtxLock
 1468              	.LVL184:
 1469              		.loc 1 699 0
 1470 055c 04F14001 		add	r1, r4, #64
 1471 0560 2846     		mov	r0, r5
 1472 0562 FFF7A5FD 		bl	dyn_find_object
 1473              	.LVL185:
 1474 0566 0546     		mov	r5, r0
 1475              	.LVL186:
 1476              		.loc 1 701 0
 1477 0568 2046     		mov	r0, r4
 1478              	.LVL187:
 1479 056a FFF7FEFF 		bl	chMtxUnlock
 1480              	.LVL188:
 1481              		.loc 1 704 0
 1482 056e 2846     		mov	r0, r5
 1483 0570 38BD     		pop	{r3, r4, r5, pc}
 1484              	.LVL189:
 1485              	.L135:
 1486 0572 00BF     		.align	2
 1487              	.L134:
 1488 0574 00000000 		.word	ch_factory
 1489              		.cfi_endproc
 1490              	.LFE318:
 1491              		.size	chFactoryFindObjectsFIFO, .-chFactoryFindObjectsFIFO
 1492              		.align	1
 1493 0578 AFF30080 		.p2align 4,,15
 1493      AFF30080 
 1494              		.global	chFactoryReleaseObjectsFIFO
 1495              		.syntax unified
 1496              		.thumb
 1497              		.thumb_func
 1498              		.fpu softvfp
 1499              		.type	chFactoryReleaseObjectsFIFO, %function
 1500              	chFactoryReleaseObjectsFIFO:
 1501              	.LFB319:
 1502              		.loc 1 716 0
 1503              		.cfi_startproc
 1504              		@ args = 0, pretend = 0, frame = 0
 1505              		@ frame_needed = 0, uses_anonymous_args = 0
 1506              	.LVL190:
 1507 0580 38B5     		push	{r3, r4, r5, lr}
 1508              		.cfi_def_cfa_offset 16
 1509              		.cfi_offset 3, -16
 1510              		.cfi_offset 4, -12
 1511              		.cfi_offset 5, -8
 1512              		.cfi_offset 14, -4
 1513 0582 0546     		mov	r5, r0
 1514              		.loc 1 718 0
 1515 0584 064C     		ldr	r4, .L138
ARM GAS  C:\Users\RAKIBU~1\AppData\Local\Temp\ccpGccwq.s 			page 28


 1516 0586 2046     		mov	r0, r4
 1517              	.LVL191:
 1518 0588 FFF7FEFF 		bl	chMtxLock
 1519              	.LVL192:
 1520              		.loc 1 720 0
 1521 058c 04F14001 		add	r1, r4, #64
 1522 0590 2846     		mov	r0, r5
 1523 0592 FFF7EDFD 		bl	dyn_release_object_heap
 1524              	.LVL193:
 1525              		.loc 1 722 0
 1526 0596 2046     		mov	r0, r4
 1527 0598 FFF7FEFF 		bl	chMtxUnlock
 1528              	.LVL194:
 1529              		.loc 1 723 0
 1530 059c 38BD     		pop	{r3, r4, r5, pc}
 1531              	.LVL195:
 1532              	.L139:
 1533 059e 00BF     		.align	2
 1534              	.L138:
 1535 05a0 00000000 		.word	ch_factory
 1536              		.cfi_endproc
 1537              	.LFE319:
 1538              		.size	chFactoryReleaseObjectsFIFO, .-chFactoryReleaseObjectsFIFO
 1539              		.align	1
 1540 05a4 AFF30080 		.p2align 4,,15
 1540      AFF30080 
 1540      AFF30080 
 1541              		.global	chFactoryCreatePipe
 1542              		.syntax unified
 1543              		.thumb
 1544              		.thumb_func
 1545              		.fpu softvfp
 1546              		.type	chFactoryCreatePipe, %function
 1547              	chFactoryCreatePipe:
 1548              	.LFB320:
 1549              		.loc 1 744 0
 1550              		.cfi_startproc
 1551              		@ args = 0, pretend = 0, frame = 0
 1552              		@ frame_needed = 0, uses_anonymous_args = 0
 1553              	.LVL196:
 1554 05b0 70B5     		push	{r4, r5, r6, lr}
 1555              		.cfi_def_cfa_offset 16
 1556              		.cfi_offset 4, -16
 1557              		.cfi_offset 5, -12
 1558              		.cfi_offset 6, -8
 1559              		.cfi_offset 14, -4
 1560 05b2 0646     		mov	r6, r0
 1561 05b4 0D46     		mov	r5, r1
 1562              		.loc 1 747 0
 1563 05b6 0C4C     		ldr	r4, .L143
 1564 05b8 2046     		mov	r0, r4
 1565              	.LVL197:
 1566 05ba FFF7FEFF 		bl	chMtxLock
 1567              	.LVL198:
 1568              		.loc 1 749 0
 1569 05be 05F16002 		add	r2, r5, #96
 1570 05c2 04F14401 		add	r1, r4, #68
ARM GAS  C:\Users\RAKIBU~1\AppData\Local\Temp\ccpGccwq.s 			page 29


 1571 05c6 3046     		mov	r0, r6
 1572 05c8 FFF7AAFD 		bl	dyn_create_object_heap
 1573              	.LVL199:
 1574              		.loc 1 752 0
 1575 05cc 0446     		mov	r4, r0
 1576 05ce 28B1     		cbz	r0, .L141
 1577              		.loc 1 754 0
 1578 05d0 2A46     		mov	r2, r5
 1579 05d2 00F16001 		add	r1, r0, #96
 1580 05d6 1030     		adds	r0, r0, #16
 1581              	.LVL200:
 1582 05d8 FFF7FEFF 		bl	chPipeObjectInit
 1583              	.LVL201:
 1584              	.L141:
 1585              		.loc 1 757 0
 1586 05dc 0248     		ldr	r0, .L143
 1587 05de FFF7FEFF 		bl	chMtxUnlock
 1588              	.LVL202:
 1589              		.loc 1 760 0
 1590 05e2 2046     		mov	r0, r4
 1591 05e4 70BD     		pop	{r4, r5, r6, pc}
 1592              	.LVL203:
 1593              	.L144:
 1594 05e6 00BF     		.align	2
 1595              	.L143:
 1596 05e8 00000000 		.word	ch_factory
 1597              		.cfi_endproc
 1598              	.LFE320:
 1599              		.size	chFactoryCreatePipe, .-chFactoryCreatePipe
 1600              		.align	1
 1601 05ec AFF30080 		.p2align 4,,15
 1602              		.global	chFactoryFindPipe
 1603              		.syntax unified
 1604              		.thumb
 1605              		.thumb_func
 1606              		.fpu softvfp
 1607              		.type	chFactoryFindPipe, %function
 1608              	chFactoryFindPipe:
 1609              	.LFB321:
 1610              		.loc 1 776 0
 1611              		.cfi_startproc
 1612              		@ args = 0, pretend = 0, frame = 0
 1613              		@ frame_needed = 0, uses_anonymous_args = 0
 1614              	.LVL204:
 1615 05f0 38B5     		push	{r3, r4, r5, lr}
 1616              		.cfi_def_cfa_offset 16
 1617              		.cfi_offset 3, -16
 1618              		.cfi_offset 4, -12
 1619              		.cfi_offset 5, -8
 1620              		.cfi_offset 14, -4
 1621 05f2 0546     		mov	r5, r0
 1622              		.loc 1 779 0
 1623 05f4 074C     		ldr	r4, .L147
 1624 05f6 2046     		mov	r0, r4
 1625              	.LVL205:
 1626 05f8 FFF7FEFF 		bl	chMtxLock
 1627              	.LVL206:
ARM GAS  C:\Users\RAKIBU~1\AppData\Local\Temp\ccpGccwq.s 			page 30


 1628              		.loc 1 781 0
 1629 05fc 04F14401 		add	r1, r4, #68
 1630 0600 2846     		mov	r0, r5
 1631 0602 FFF755FD 		bl	dyn_find_object
 1632              	.LVL207:
 1633 0606 0546     		mov	r5, r0
 1634              	.LVL208:
 1635              		.loc 1 783 0
 1636 0608 2046     		mov	r0, r4
 1637              	.LVL209:
 1638 060a FFF7FEFF 		bl	chMtxUnlock
 1639              	.LVL210:
 1640              		.loc 1 786 0
 1641 060e 2846     		mov	r0, r5
 1642 0610 38BD     		pop	{r3, r4, r5, pc}
 1643              	.LVL211:
 1644              	.L148:
 1645 0612 00BF     		.align	2
 1646              	.L147:
 1647 0614 00000000 		.word	ch_factory
 1648              		.cfi_endproc
 1649              	.LFE321:
 1650              		.size	chFactoryFindPipe, .-chFactoryFindPipe
 1651              		.align	1
 1652 0618 AFF30080 		.p2align 4,,15
 1652      AFF30080 
 1653              		.global	chFactoryReleasePipe
 1654              		.syntax unified
 1655              		.thumb
 1656              		.thumb_func
 1657              		.fpu softvfp
 1658              		.type	chFactoryReleasePipe, %function
 1659              	chFactoryReleasePipe:
 1660              	.LFB322:
 1661              		.loc 1 798 0
 1662              		.cfi_startproc
 1663              		@ args = 0, pretend = 0, frame = 0
 1664              		@ frame_needed = 0, uses_anonymous_args = 0
 1665              	.LVL212:
 1666 0620 38B5     		push	{r3, r4, r5, lr}
 1667              		.cfi_def_cfa_offset 16
 1668              		.cfi_offset 3, -16
 1669              		.cfi_offset 4, -12
 1670              		.cfi_offset 5, -8
 1671              		.cfi_offset 14, -4
 1672 0622 0546     		mov	r5, r0
 1673              		.loc 1 800 0
 1674 0624 064C     		ldr	r4, .L151
 1675 0626 2046     		mov	r0, r4
 1676              	.LVL213:
 1677 0628 FFF7FEFF 		bl	chMtxLock
 1678              	.LVL214:
 1679              		.loc 1 802 0
 1680 062c 04F14401 		add	r1, r4, #68
 1681 0630 2846     		mov	r0, r5
 1682 0632 FFF79DFD 		bl	dyn_release_object_heap
 1683              	.LVL215:
ARM GAS  C:\Users\RAKIBU~1\AppData\Local\Temp\ccpGccwq.s 			page 31


 1684              		.loc 1 804 0
 1685 0636 2046     		mov	r0, r4
 1686 0638 FFF7FEFF 		bl	chMtxUnlock
 1687              	.LVL216:
 1688              		.loc 1 805 0
 1689 063c 38BD     		pop	{r3, r4, r5, pc}
 1690              	.LVL217:
 1691              	.L152:
 1692 063e 00BF     		.align	2
 1693              	.L151:
 1694 0640 00000000 		.word	ch_factory
 1695              		.cfi_endproc
 1696              	.LFE322:
 1697              		.size	chFactoryReleasePipe, .-chFactoryReleasePipe
 1698              		.comm	ch_factory,72,4
 1699              		.section	.rodata
 1700              		.align	2
 1701              		.set	.LANCHOR0,. + 0
 1702              		.type	__func__.7542, %object
 1703              		.size	__func__.7542, 23
 1704              	__func__.7542:
 1705 0000 64796E5F 		.ascii	"dyn_create_object_pool\000"
 1705      63726561 
 1705      74655F6F 
 1705      626A6563 
 1705      745F706F 
 1706 0017 00       		.space	1
 1707              		.type	__func__.7554, %object
 1708              		.size	__func__.7554, 16
 1709              	__func__.7554:
 1710 0018 64796E5F 		.ascii	"dyn_find_object\000"
 1710      66696E64 
 1710      5F6F626A 
 1710      65637400 
 1711              		.type	__func__.7548, %object
 1712              		.size	__func__.7548, 24
 1713              	__func__.7548:
 1714 0028 64796E5F 		.ascii	"dyn_release_object_pool\000"
 1714      72656C65 
 1714      6173655F 
 1714      6F626A65 
 1714      63745F70 
 1715              		.type	__func__.7530, %object
 1716              		.size	__func__.7530, 23
 1717              	__func__.7530:
 1718 0040 64796E5F 		.ascii	"dyn_create_object_heap\000"
 1718      63726561 
 1718      74655F6F 
 1718      626A6563 
 1718      745F6865 
 1719 0057 00       		.space	1
 1720              		.type	__func__.7535, %object
 1721              		.size	__func__.7535, 24
 1722              	__func__.7535:
 1723 0058 64796E5F 		.ascii	"dyn_release_object_heap\000"
 1723      72656C65 
 1723      6173655F 
ARM GAS  C:\Users\RAKIBU~1\AppData\Local\Temp\ccpGccwq.s 			page 32


 1723      6F626A65 
 1723      63745F68 
 1724              		.type	__func__.7250, %object
 1725              		.size	__func__.7250, 24
 1726              	__func__.7250:
 1727 0070 63684669 		.ascii	"chFifoObjectInitAligned\000"
 1727      666F4F62 
 1727      6A656374 
 1727      496E6974 
 1727      416C6967 
 1728              		.text
 1729              	.Letext0:
 1730              		.file 6 "c:\\chibistudio\\tools\\gnu tools arm embedded\\7.0 2017q4\\lib\\gcc\\arm-none-eabi\\7.2.
 1731              		.file 7 "c:\\chibistudio\\tools\\gnu tools arm embedded\\7.0 2017q4\\arm-none-eabi\\include\\machi
 1732              		.file 8 "c:\\chibistudio\\tools\\gnu tools arm embedded\\7.0 2017q4\\arm-none-eabi\\include\\sys\\
 1733              		.file 9 "c:\\chibistudio\\tools\\gnu tools arm embedded\\7.0 2017q4\\arm-none-eabi\\include\\sys\\
 1734              		.file 10 "c:\\chibistudio\\tools\\gnu tools arm embedded\\7.0 2017q4\\arm-none-eabi\\include\\sys\
 1735              		.file 11 "c:\\chibistudio\\tools\\gnu tools arm embedded\\7.0 2017q4\\arm-none-eabi\\include\\sys\
 1736              		.file 12 "../../../ChibiOSRepo/chibios191/os/common/ports/ARMCMx/compilers/GCC/chtypes.h"
 1737              		.file 13 "../../../ChibiOSRepo/chibios191/os/rt/include/chsystypes.h"
 1738              		.file 14 "../../../ChibiOSRepo/chibios191/os/rt/include/chschd.h"
 1739              		.file 15 "../../../ChibiOSRepo/chibios191/os/rt/include/chtime.h"
 1740              		.file 16 "../../../ChibiOSRepo/chibios191/os/common/ext/ARM/CMSIS/Core/Include/core_cm4.h"
 1741              		.file 17 "../../../ChibiOSRepo/chibios191/os/common/ext/ST/STM32F4xx/system_stm32f4xx.h"
 1742              		.file 18 "../../../ChibiOSRepo/chibios191/os/common/ports/ARMCMx/chcore.h"
 1743              		.file 19 "../../../ChibiOSRepo/chibios191/os/common/ports/ARMCMx/chcore_v7m.h"
 1744              		.file 20 "../../../ChibiOSRepo/chibios191/os/rt/include/chtrace.h"
 1745              		.file 21 "../../../ChibiOSRepo/chibios191/os/rt/include/chtm.h"
 1746              		.file 22 "../../../ChibiOSRepo/chibios191/os/rt/include/chstats.h"
 1747              		.file 23 "../../../ChibiOSRepo/chibios191/os/rt/include/chsem.h"
 1748              		.file 24 "../../../ChibiOSRepo/chibios191/os/rt/include/chmtx.h"
 1749              		.file 25 "../../../ChibiOSRepo/chibios191/os/rt/include/chsys.h"
 1750              		.file 26 "../../../ChibiOSRepo/chibios191/os/rt/include/chregistry.h"
 1751              		.file 27 "../../../ChibiOSRepo/chibios191/os/oslib/include/chmboxes.h"
 1752              		.file 28 "../../../ChibiOSRepo/chibios191/os/oslib/include/chpipes.h"
 1753              		.file 29 "../../../ChibiOSRepo/chibios191/os/oslib/include/chfactory.h"
 1754              		.file 30 "../../../ChibiOSRepo/chibios191/os/rt/include/ch.h"
 1755              		.file 31 "c:\\chibistudio\\tools\\gnu tools arm embedded\\7.0 2017q4\\arm-none-eabi\\include\\stri
 1756              		.file 32 "<built-in>"