ARM GAS  C:\Users\RAKIBU~1\AppData\Local\Temp\ccGxpSlI.s 			page 1


   1              		.cpu cortex-m4
   2              		.eabi_attribute 20, 1
   3              		.eabi_attribute 21, 1
   4              		.eabi_attribute 23, 3
   5              		.eabi_attribute 24, 1
   6              		.eabi_attribute 25, 1
   7              		.eabi_attribute 26, 1
   8              		.eabi_attribute 30, 1
   9              		.eabi_attribute 34, 1
  10              		.eabi_attribute 18, 4
  11              		.file	"chmboxes.c"
  12              		.text
  13              	.Ltext0:
  14              		.cfi_sections	.debug_frame
  15              		.align	1
  16              		.p2align 4,,15
  17              		.global	chMBObjectInit
  18              		.syntax unified
  19              		.thumb
  20              		.thumb_func
  21              		.fpu softvfp
  22              		.type	chMBObjectInit, %function
  23              	chMBObjectInit:
  24              	.LFB295:
  25              		.file 1 "../../../ChibiOSRepo/chibios191/os/oslib/src/chmboxes.c"
  26              		.loc 1 87 0
  27              		.cfi_startproc
  28              		@ args = 0, pretend = 0, frame = 0
  29              		@ frame_needed = 0, uses_anonymous_args = 0
  30              	.LVL0:
  31 0000 70B5     		push	{r4, r5, r6, lr}
  32              		.cfi_def_cfa_offset 16
  33              		.cfi_offset 4, -16
  34              		.cfi_offset 5, -12
  35              		.cfi_offset 6, -8
  36              		.cfi_offset 14, -4
  37 0002 0D46     		mov	r5, r1
  38 0004 1646     		mov	r6, r2
  39              		.loc 1 89 0
  40 0006 0446     		mov	r4, r0
  41 0008 08B1     		cbz	r0, .L2
  42              		.loc 1 89 0 is_stmt 0 discriminator 3
  43 000a 01B1     		cbz	r1, .L2
  44              		.loc 1 89 0 discriminator 5
  45 000c 12B9     		cbnz	r2, .L3
  46              	.L2:
  47              		.loc 1 89 0 discriminator 6
  48 000e 0A48     		ldr	r0, .L5
  49              	.LVL1:
  50 0010 FFF7FEFF 		bl	chSysHalt
  51              	.LVL2:
  52              	.L3:
  53              		.loc 1 91 0 is_stmt 1
  54 0014 2560     		str	r5, [r4]
  55              		.loc 1 92 0
  56 0016 E560     		str	r5, [r4, #12]
  57              		.loc 1 93 0
ARM GAS  C:\Users\RAKIBU~1\AppData\Local\Temp\ccGxpSlI.s 			page 2


  58 0018 A560     		str	r5, [r4, #8]
  59              		.loc 1 94 0
  60 001a 05EB8605 		add	r5, r5, r6, lsl #2
  61              	.LVL3:
  62 001e 6560     		str	r5, [r4, #4]
  63              		.loc 1 95 0
  64 0020 0023     		movs	r3, #0
  65 0022 2361     		str	r3, [r4, #16]
  66              		.loc 1 96 0
  67 0024 2375     		strb	r3, [r4, #20]
  68              		.loc 1 97 0
  69 0026 04F11803 		add	r3, r4, #24
  70              	.LVL4:
  71              	.LBB76:
  72              	.LBB77:
  73              	.LBB78:
  74              		.file 2 "../../../ChibiOSRepo/chibios191/os/rt/include/chschd.h"
  75              		.loc 2 539 0
  76 002a A361     		str	r3, [r4, #24]
  77              		.loc 2 540 0
  78 002c E361     		str	r3, [r4, #28]
  79              	.LVL5:
  80              	.LBE78:
  81              	.LBE77:
  82              	.LBE76:
  83              		.loc 1 98 0
  84 002e 04F12003 		add	r3, r4, #32
  85              	.LVL6:
  86              	.LBB79:
  87              	.LBB80:
  88              	.LBB81:
  89              		.loc 2 539 0
  90 0032 2362     		str	r3, [r4, #32]
  91              		.loc 2 540 0
  92 0034 6362     		str	r3, [r4, #36]
  93              	.LVL7:
  94              	.LBE81:
  95              	.LBE80:
  96              	.LBE79:
  97              		.loc 1 99 0
  98 0036 70BD     		pop	{r4, r5, r6, pc}
  99              	.LVL8:
 100              	.L6:
 101              		.align	2
 102              	.L5:
 103 0038 00000000 		.word	.LANCHOR0
 104              		.cfi_endproc
 105              	.LFE295:
 106              		.size	chMBObjectInit, .-chMBObjectInit
 107              		.align	1
 108 003c AFF30080 		.p2align 4,,15
 109              		.global	chMBResetI
 110              		.syntax unified
 111              		.thumb
 112              		.thumb_func
 113              		.fpu softvfp
 114              		.type	chMBResetI, %function
ARM GAS  C:\Users\RAKIBU~1\AppData\Local\Temp\ccGxpSlI.s 			page 3


 115              	chMBResetI:
 116              	.LFB297:
 117              		.loc 1 133 0
 118              		.cfi_startproc
 119              		@ args = 0, pretend = 0, frame = 0
 120              		@ frame_needed = 0, uses_anonymous_args = 0
 121              	.LVL9:
 122 0040 10B5     		push	{r4, lr}
 123              		.cfi_def_cfa_offset 8
 124              		.cfi_offset 4, -8
 125              		.cfi_offset 14, -4
 126 0042 0446     		mov	r4, r0
 127              		.loc 1 135 0
 128 0044 FFF7FEFF 		bl	chDbgCheckClassI
 129              	.LVL10:
 130              		.loc 1 136 0
 131 0048 9CB1     		cbz	r4, .L10
 132              	.L8:
 133              		.loc 1 138 0
 134 004a 2368     		ldr	r3, [r4]
 135 004c A360     		str	r3, [r4, #8]
 136              		.loc 1 139 0
 137 004e E360     		str	r3, [r4, #12]
 138              		.loc 1 140 0
 139 0050 0023     		movs	r3, #0
 140 0052 2361     		str	r3, [r4, #16]
 141              		.loc 1 141 0
 142 0054 0123     		movs	r3, #1
 143 0056 2375     		strb	r3, [r4, #20]
 144              		.loc 1 142 0
 145 0058 6FF00101 		mvn	r1, #1
 146 005c 04F11800 		add	r0, r4, #24
 147 0060 FFF7FEFF 		bl	chThdDequeueAllI
 148              	.LVL11:
 149              		.loc 1 143 0
 150 0064 6FF00101 		mvn	r1, #1
 151 0068 04F12000 		add	r0, r4, #32
 152 006c FFF7FEFF 		bl	chThdDequeueAllI
 153              	.LVL12:
 154              		.loc 1 144 0
 155 0070 10BD     		pop	{r4, pc}
 156              	.LVL13:
 157              	.L10:
 158              		.loc 1 136 0 discriminator 2
 159 0072 0248     		ldr	r0, .L11
 160 0074 FFF7FEFF 		bl	chSysHalt
 161              	.LVL14:
 162 0078 E7E7     		b	.L8
 163              	.L12:
 164 007a 00BF     		.align	2
 165              	.L11:
 166 007c 10000000 		.word	.LANCHOR0+16
 167              		.cfi_endproc
 168              	.LFE297:
 169              		.size	chMBResetI, .-chMBResetI
 170              		.align	1
 171              		.p2align 4,,15
ARM GAS  C:\Users\RAKIBU~1\AppData\Local\Temp\ccGxpSlI.s 			page 4


 172              		.global	chMBReset
 173              		.syntax unified
 174              		.thumb
 175              		.thumb_func
 176              		.fpu softvfp
 177              		.type	chMBReset, %function
 178              	chMBReset:
 179              	.LFB296:
 180              		.loc 1 113 0
 181              		.cfi_startproc
 182              		@ args = 0, pretend = 0, frame = 0
 183              		@ frame_needed = 0, uses_anonymous_args = 0
 184              	.LVL15:
 185 0080 10B5     		push	{r4, lr}
 186              		.cfi_def_cfa_offset 8
 187              		.cfi_offset 4, -8
 188              		.cfi_offset 14, -4
 189 0082 0446     		mov	r4, r0
 190              	.LVL16:
 191              	.LBB92:
 192              	.LBB93:
 193              	.LBB94:
 194              	.LBB95:
 195              	.LBB96:
 196              		.file 3 "../../../ChibiOSRepo/chibios191/os/common/ext/ARM/CMSIS/Core/Include/cmsis_gcc.h"
 197              		.loc 3 493 0
 198 0084 2023     		movs	r3, #32
 199              		.syntax unified
 200              	@ 493 "../../../ChibiOSRepo/chibios191/os/common/ext/ARM/CMSIS/Core/Include/cmsis_gcc.h" 1
 201 0086 83F31188 		MSR basepri, r3
 202              	@ 0 "" 2
 203              	.LVL17:
 204              		.thumb
 205              		.syntax unified
 206              	.LBE96:
 207              	.LBE95:
 208              	.LBE94:
 209              		.file 4 "../../../ChibiOSRepo/chibios191/os/rt/include/chsys.h"
 210              		.loc 4 356 0
 211 008a FFF7FEFF 		bl	_stats_start_measure_crit_thd
 212              	.LVL18:
 213              		.loc 4 357 0
 214 008e FFF7FEFF 		bl	_dbg_check_lock
 215              	.LVL19:
 216              	.LBE93:
 217              	.LBE92:
 218              		.loc 1 116 0
 219 0092 2046     		mov	r0, r4
 220 0094 FFF7FEFF 		bl	chMBResetI
 221              	.LVL20:
 222              		.loc 1 117 0
 223 0098 FFF7FEFF 		bl	chSchRescheduleS
 224              	.LVL21:
 225              	.LBB97:
 226              	.LBB98:
 227              		.loc 4 367 0
 228 009c FFF7FEFF 		bl	_dbg_check_unlock
ARM GAS  C:\Users\RAKIBU~1\AppData\Local\Temp\ccGxpSlI.s 			page 5


 229              	.LVL22:
 230              		.loc 4 368 0
 231 00a0 FFF7FEFF 		bl	_stats_stop_measure_crit_thd
 232              	.LVL23:
 233              		.loc 4 374 0
 234 00a4 084B     		ldr	r3, .L17
 235 00a6 1A68     		ldr	r2, [r3]
 236 00a8 9A42     		cmp	r2, r3
 237 00aa 04D0     		beq	.L14
 238 00ac 9B69     		ldr	r3, [r3, #24]
 239 00ae 9968     		ldr	r1, [r3, #8]
 240 00b0 9368     		ldr	r3, [r2, #8]
 241 00b2 9942     		cmp	r1, r3
 242 00b4 03D3     		bcc	.L16
 243              	.L14:
 244              	.LVL24:
 245              	.LBB99:
 246              	.LBB100:
 247              	.LBB101:
 248              		.loc 3 493 0
 249 00b6 0023     		movs	r3, #0
 250              		.syntax unified
 251              	@ 493 "../../../ChibiOSRepo/chibios191/os/common/ext/ARM/CMSIS/Core/Include/cmsis_gcc.h" 1
 252 00b8 83F31188 		MSR basepri, r3
 253              	@ 0 "" 2
 254              	.LVL25:
 255              		.thumb
 256              		.syntax unified
 257              	.LBE101:
 258              	.LBE100:
 259              	.LBE99:
 260              	.LBE98:
 261              	.LBE97:
 262              		.loc 1 119 0
 263 00bc 10BD     		pop	{r4, pc}
 264              	.LVL26:
 265              	.L16:
 266              	.LBB103:
 267              	.LBB102:
 268              		.loc 4 374 0
 269 00be 0348     		ldr	r0, .L17+4
 270 00c0 FFF7FEFF 		bl	chSysHalt
 271              	.LVL27:
 272 00c4 F7E7     		b	.L14
 273              	.L18:
 274 00c6 00BF     		.align	2
 275              	.L17:
 276 00c8 00000000 		.word	ch
 277 00cc 1C000000 		.word	.LANCHOR0+28
 278              	.LBE102:
 279              	.LBE103:
 280              		.cfi_endproc
 281              	.LFE296:
 282              		.size	chMBReset, .-chMBReset
 283              		.align	1
 284              		.p2align 4,,15
 285              		.global	chMBPostTimeoutS
ARM GAS  C:\Users\RAKIBU~1\AppData\Local\Temp\ccGxpSlI.s 			page 6


 286              		.syntax unified
 287              		.thumb
 288              		.thumb_func
 289              		.fpu softvfp
 290              		.type	chMBPostTimeoutS, %function
 291              	chMBPostTimeoutS:
 292              	.LFB299:
 293              		.loc 1 194 0
 294              		.cfi_startproc
 295              		@ args = 0, pretend = 0, frame = 0
 296              		@ frame_needed = 0, uses_anonymous_args = 0
 297              	.LVL28:
 298 00d0 2DE9F041 		push	{r4, r5, r6, r7, r8, lr}
 299              		.cfi_def_cfa_offset 24
 300              		.cfi_offset 4, -24
 301              		.cfi_offset 5, -20
 302              		.cfi_offset 6, -16
 303              		.cfi_offset 7, -12
 304              		.cfi_offset 8, -8
 305              		.cfi_offset 14, -4
 306 00d4 0546     		mov	r5, r0
 307 00d6 8846     		mov	r8, r1
 308 00d8 1646     		mov	r6, r2
 309 00da 1F46     		mov	r7, r3
 310              		.loc 1 197 0
 311 00dc FFF7FEFF 		bl	chDbgCheckClassS
 312              	.LVL29:
 313              		.loc 1 198 0
 314 00e0 B5B1     		cbz	r5, .L27
 315              	.L24:
 316              		.loc 1 202 0
 317 00e2 2B7D     		ldrb	r3, [r5, #20]	@ zero_extendqisi2
 318 00e4 7BBB     		cbnz	r3, .L25
 319              	.LVL30:
 320              	.LBB104:
 321              	.LBB105:
 322              		.file 5 "../../../ChibiOSRepo/chibios191/os/oslib/include/chmboxes.h"
 323              		.loc 5 169 0
 324 00e6 FFF7FEFF 		bl	chDbgCheckClassI
 325              	.LVL31:
 326              	.LBB106:
 327              	.LBB107:
 328              		.loc 5 140 0
 329 00ea 6C68     		ldr	r4, [r5, #4]
 330 00ec 2B68     		ldr	r3, [r5]
 331 00ee E41A     		subs	r4, r4, r3
 332 00f0 A410     		asrs	r4, r4, #2
 333              	.LVL32:
 334              	.LBE107:
 335              	.LBE106:
 336              	.LBB108:
 337              	.LBB109:
 338              		.loc 5 154 0
 339 00f2 FFF7FEFF 		bl	chDbgCheckClassI
 340              	.LVL33:
 341              		.loc 5 156 0
 342 00f6 2B69     		ldr	r3, [r5, #16]
ARM GAS  C:\Users\RAKIBU~1\AppData\Local\Temp\ccGxpSlI.s 			page 7


 343              	.LVL34:
 344              	.LBE109:
 345              	.LBE108:
 346              	.LBE105:
 347              	.LBE104:
 348              		.loc 1 207 0
 349 00f8 9C42     		cmp	r4, r3
 350 00fa 0DD1     		bne	.L28
 351              		.loc 1 222 0
 352 00fc 3246     		mov	r2, r6
 353 00fe 3B46     		mov	r3, r7
 354 0100 05F11800 		add	r0, r5, #24
 355 0104 FFF7FEFF 		bl	chThdEnqueueTimeoutS
 356              	.LVL35:
 357              		.loc 1 223 0
 358 0108 0346     		mov	r3, r0
 359 010a 0028     		cmp	r0, #0
 360 010c E9D0     		beq	.L24
 361 010e 1CE0     		b	.L19
 362              	.LVL36:
 363              	.L27:
 364              		.loc 1 198 0 discriminator 2
 365 0110 0F48     		ldr	r0, .L29
 366 0112 FFF7FEFF 		bl	chSysHalt
 367              	.LVL37:
 368 0116 E4E7     		b	.L24
 369              	.L28:
 370              		.loc 1 208 0
 371 0118 AB68     		ldr	r3, [r5, #8]
 372 011a 1A1D     		adds	r2, r3, #4
 373 011c AA60     		str	r2, [r5, #8]
 374 011e C3F80080 		str	r8, [r3]
 375              		.loc 1 209 0
 376 0122 AA68     		ldr	r2, [r5, #8]
 377 0124 6B68     		ldr	r3, [r5, #4]
 378 0126 9A42     		cmp	r2, r3
 379 0128 01D3     		bcc	.L23
 380              		.loc 1 210 0
 381 012a 2B68     		ldr	r3, [r5]
 382 012c AB60     		str	r3, [r5, #8]
 383              	.L23:
 384              		.loc 1 212 0
 385 012e 2B69     		ldr	r3, [r5, #16]
 386 0130 0133     		adds	r3, r3, #1
 387 0132 2B61     		str	r3, [r5, #16]
 388              		.loc 1 215 0
 389 0134 0021     		movs	r1, #0
 390 0136 05F12000 		add	r0, r5, #32
 391 013a FFF7FEFF 		bl	chThdDequeueNextI
 392              	.LVL38:
 393              		.loc 1 216 0
 394 013e FFF7FEFF 		bl	chSchRescheduleS
 395              	.LVL39:
 396              		.loc 1 218 0
 397 0142 0023     		movs	r3, #0
 398 0144 01E0     		b	.L19
 399              	.L25:
ARM GAS  C:\Users\RAKIBU~1\AppData\Local\Temp\ccGxpSlI.s 			page 8


 400              		.loc 1 203 0
 401 0146 6FF00103 		mvn	r3, #1
 402              	.L19:
 403              		.loc 1 226 0
 404 014a 1846     		mov	r0, r3
 405 014c BDE8F081 		pop	{r4, r5, r6, r7, r8, pc}
 406              	.LVL40:
 407              	.L30:
 408              		.align	2
 409              	.L29:
 410 0150 28000000 		.word	.LANCHOR0+40
 411              		.cfi_endproc
 412              	.LFE299:
 413              		.size	chMBPostTimeoutS, .-chMBPostTimeoutS
 414              		.align	1
 415 0154 AFF30080 		.p2align 4,,15
 415      AFF30080 
 415      AFF30080 
 416              		.global	chMBPostTimeout
 417              		.syntax unified
 418              		.thumb
 419              		.thumb_func
 420              		.fpu softvfp
 421              		.type	chMBPostTimeout, %function
 422              	chMBPostTimeout:
 423              	.LFB298:
 424              		.loc 1 165 0
 425              		.cfi_startproc
 426              		@ args = 0, pretend = 0, frame = 0
 427              		@ frame_needed = 0, uses_anonymous_args = 0
 428              	.LVL41:
 429 0160 F8B5     		push	{r3, r4, r5, r6, r7, lr}
 430              		.cfi_def_cfa_offset 24
 431              		.cfi_offset 3, -24
 432              		.cfi_offset 4, -20
 433              		.cfi_offset 5, -16
 434              		.cfi_offset 6, -12
 435              		.cfi_offset 7, -8
 436              		.cfi_offset 14, -4
 437 0162 0446     		mov	r4, r0
 438 0164 0D46     		mov	r5, r1
 439 0166 1646     		mov	r6, r2
 440 0168 1F46     		mov	r7, r3
 441              	.LVL42:
 442              	.LBB120:
 443              	.LBB121:
 444              	.LBB122:
 445              	.LBB123:
 446              	.LBB124:
 447              		.loc 3 493 0
 448 016a 2023     		movs	r3, #32
 449              		.syntax unified
 450              	@ 493 "../../../ChibiOSRepo/chibios191/os/common/ext/ARM/CMSIS/Core/Include/cmsis_gcc.h" 1
 451 016c 83F31188 		MSR basepri, r3
 452              	@ 0 "" 2
 453              	.LVL43:
 454              		.thumb
ARM GAS  C:\Users\RAKIBU~1\AppData\Local\Temp\ccGxpSlI.s 			page 9


 455              		.syntax unified
 456              	.LBE124:
 457              	.LBE123:
 458              	.LBE122:
 459              		.loc 4 356 0
 460 0170 FFF7FEFF 		bl	_stats_start_measure_crit_thd
 461              	.LVL44:
 462              		.loc 4 357 0
 463 0174 FFF7FEFF 		bl	_dbg_check_lock
 464              	.LVL45:
 465              	.LBE121:
 466              	.LBE120:
 467              		.loc 1 169 0
 468 0178 3246     		mov	r2, r6
 469 017a 3B46     		mov	r3, r7
 470 017c 2946     		mov	r1, r5
 471 017e 2046     		mov	r0, r4
 472 0180 FFF7FEFF 		bl	chMBPostTimeoutS
 473              	.LVL46:
 474 0184 0446     		mov	r4, r0
 475              	.LVL47:
 476              	.LBB125:
 477              	.LBB126:
 478              		.loc 4 367 0
 479 0186 FFF7FEFF 		bl	_dbg_check_unlock
 480              	.LVL48:
 481              		.loc 4 368 0
 482 018a FFF7FEFF 		bl	_stats_stop_measure_crit_thd
 483              	.LVL49:
 484              		.loc 4 374 0
 485 018e 094B     		ldr	r3, .L35
 486 0190 1A68     		ldr	r2, [r3]
 487 0192 9A42     		cmp	r2, r3
 488 0194 04D0     		beq	.L32
 489 0196 9B69     		ldr	r3, [r3, #24]
 490 0198 9968     		ldr	r1, [r3, #8]
 491 019a 9368     		ldr	r3, [r2, #8]
 492 019c 9942     		cmp	r1, r3
 493 019e 04D3     		bcc	.L34
 494              	.L32:
 495              	.LVL50:
 496              	.LBB127:
 497              	.LBB128:
 498              	.LBB129:
 499              		.loc 3 493 0
 500 01a0 0023     		movs	r3, #0
 501              		.syntax unified
 502              	@ 493 "../../../ChibiOSRepo/chibios191/os/common/ext/ARM/CMSIS/Core/Include/cmsis_gcc.h" 1
 503 01a2 83F31188 		MSR basepri, r3
 504              	@ 0 "" 2
 505              	.LVL51:
 506              		.thumb
 507              		.syntax unified
 508              	.LBE129:
 509              	.LBE128:
 510              	.LBE127:
 511              	.LBE126:
ARM GAS  C:\Users\RAKIBU~1\AppData\Local\Temp\ccGxpSlI.s 			page 10


 512              	.LBE125:
 513              		.loc 1 173 0
 514 01a6 2046     		mov	r0, r4
 515 01a8 F8BD     		pop	{r3, r4, r5, r6, r7, pc}
 516              	.LVL52:
 517              	.L34:
 518              	.LBB131:
 519              	.LBB130:
 520              		.loc 4 374 0
 521 01aa 0348     		ldr	r0, .L35+4
 522 01ac FFF7FEFF 		bl	chSysHalt
 523              	.LVL53:
 524 01b0 F6E7     		b	.L32
 525              	.L36:
 526 01b2 00BF     		.align	2
 527              	.L35:
 528 01b4 00000000 		.word	ch
 529 01b8 1C000000 		.word	.LANCHOR0+28
 530              	.LBE130:
 531              	.LBE131:
 532              		.cfi_endproc
 533              	.LFE298:
 534              		.size	chMBPostTimeout, .-chMBPostTimeout
 535              		.align	1
 536 01bc AFF30080 		.p2align 4,,15
 537              		.global	chMBPostI
 538              		.syntax unified
 539              		.thumb
 540              		.thumb_func
 541              		.fpu softvfp
 542              		.type	chMBPostI, %function
 543              	chMBPostI:
 544              	.LFB300:
 545              		.loc 1 243 0
 546              		.cfi_startproc
 547              		@ args = 0, pretend = 0, frame = 0
 548              		@ frame_needed = 0, uses_anonymous_args = 0
 549              	.LVL54:
 550 01c0 70B5     		push	{r4, r5, r6, lr}
 551              		.cfi_def_cfa_offset 16
 552              		.cfi_offset 4, -16
 553              		.cfi_offset 5, -12
 554              		.cfi_offset 6, -8
 555              		.cfi_offset 14, -4
 556 01c2 0446     		mov	r4, r0
 557 01c4 0E46     		mov	r6, r1
 558              		.loc 1 245 0
 559 01c6 FFF7FEFF 		bl	chDbgCheckClassI
 560              	.LVL55:
 561              		.loc 1 246 0
 562 01ca 04B3     		cbz	r4, .L44
 563              	.L38:
 564              		.loc 1 249 0
 565 01cc 237D     		ldrb	r3, [r4, #20]	@ zero_extendqisi2
 566 01ce 13BB     		cbnz	r3, .L41
 567              	.LVL56:
 568              	.LBB132:
ARM GAS  C:\Users\RAKIBU~1\AppData\Local\Temp\ccGxpSlI.s 			page 11


 569              	.LBB133:
 570              		.loc 5 169 0
 571 01d0 FFF7FEFF 		bl	chDbgCheckClassI
 572              	.LVL57:
 573              	.LBB134:
 574              	.LBB135:
 575              		.loc 5 140 0
 576 01d4 6568     		ldr	r5, [r4, #4]
 577 01d6 2368     		ldr	r3, [r4]
 578 01d8 ED1A     		subs	r5, r5, r3
 579 01da AD10     		asrs	r5, r5, #2
 580              	.LVL58:
 581              	.LBE135:
 582              	.LBE134:
 583              	.LBB136:
 584              	.LBB137:
 585              		.loc 5 154 0
 586 01dc FFF7FEFF 		bl	chDbgCheckClassI
 587              	.LVL59:
 588              		.loc 5 156 0
 589 01e0 2369     		ldr	r3, [r4, #16]
 590              	.LVL60:
 591              	.LBE137:
 592              	.LBE136:
 593              	.LBE133:
 594              	.LBE132:
 595              		.loc 1 254 0
 596 01e2 9D42     		cmp	r5, r3
 597 01e4 1AD0     		beq	.L42
 598              		.loc 1 255 0
 599 01e6 A368     		ldr	r3, [r4, #8]
 600 01e8 1A1D     		adds	r2, r3, #4
 601 01ea A260     		str	r2, [r4, #8]
 602 01ec 1E60     		str	r6, [r3]
 603              		.loc 1 256 0
 604 01ee A268     		ldr	r2, [r4, #8]
 605 01f0 6368     		ldr	r3, [r4, #4]
 606 01f2 9A42     		cmp	r2, r3
 607 01f4 01D3     		bcc	.L40
 608              		.loc 1 257 0
 609 01f6 2368     		ldr	r3, [r4]
 610 01f8 A360     		str	r3, [r4, #8]
 611              	.L40:
 612              		.loc 1 259 0
 613 01fa 2369     		ldr	r3, [r4, #16]
 614 01fc 0133     		adds	r3, r3, #1
 615 01fe 2361     		str	r3, [r4, #16]
 616              		.loc 1 262 0
 617 0200 0021     		movs	r1, #0
 618 0202 04F12000 		add	r0, r4, #32
 619 0206 FFF7FEFF 		bl	chThdDequeueNextI
 620              	.LVL61:
 621              		.loc 1 264 0
 622 020a 0020     		movs	r0, #0
 623              	.L37:
 624              		.loc 1 269 0
 625 020c 70BD     		pop	{r4, r5, r6, pc}
ARM GAS  C:\Users\RAKIBU~1\AppData\Local\Temp\ccGxpSlI.s 			page 12


 626              	.LVL62:
 627              	.L44:
 628              		.loc 1 246 0 discriminator 2
 629 020e 0548     		ldr	r0, .L45
 630 0210 FFF7FEFF 		bl	chSysHalt
 631              	.LVL63:
 632 0214 DAE7     		b	.L38
 633              	.L41:
 634              		.loc 1 250 0
 635 0216 6FF00100 		mvn	r0, #1
 636 021a F7E7     		b	.L37
 637              	.L42:
 638              		.loc 1 268 0
 639 021c 4FF0FF30 		mov	r0, #-1
 640 0220 F4E7     		b	.L37
 641              	.L46:
 642 0222 00BF     		.align	2
 643              	.L45:
 644 0224 3C000000 		.word	.LANCHOR0+60
 645              		.cfi_endproc
 646              	.LFE300:
 647              		.size	chMBPostI, .-chMBPostI
 648              		.align	1
 649 0228 AFF30080 		.p2align 4,,15
 649      AFF30080 
 650              		.global	chMBPostAheadTimeoutS
 651              		.syntax unified
 652              		.thumb
 653              		.thumb_func
 654              		.fpu softvfp
 655              		.type	chMBPostAheadTimeoutS, %function
 656              	chMBPostAheadTimeoutS:
 657              	.LFB302:
 658              		.loc 1 319 0
 659              		.cfi_startproc
 660              		@ args = 0, pretend = 0, frame = 0
 661              		@ frame_needed = 0, uses_anonymous_args = 0
 662              	.LVL64:
 663 0230 2DE9F041 		push	{r4, r5, r6, r7, r8, lr}
 664              		.cfi_def_cfa_offset 24
 665              		.cfi_offset 4, -24
 666              		.cfi_offset 5, -20
 667              		.cfi_offset 6, -16
 668              		.cfi_offset 7, -12
 669              		.cfi_offset 8, -8
 670              		.cfi_offset 14, -4
 671 0234 0546     		mov	r5, r0
 672 0236 8846     		mov	r8, r1
 673 0238 1646     		mov	r6, r2
 674 023a 1F46     		mov	r7, r3
 675              		.loc 1 322 0
 676 023c FFF7FEFF 		bl	chDbgCheckClassS
 677              	.LVL65:
 678              		.loc 1 323 0
 679 0240 B5B1     		cbz	r5, .L55
 680              	.L52:
 681              		.loc 1 327 0
ARM GAS  C:\Users\RAKIBU~1\AppData\Local\Temp\ccGxpSlI.s 			page 13


 682 0242 2B7D     		ldrb	r3, [r5, #20]	@ zero_extendqisi2
 683 0244 83BB     		cbnz	r3, .L53
 684              	.LVL66:
 685              	.LBB138:
 686              	.LBB139:
 687              		.loc 5 169 0
 688 0246 FFF7FEFF 		bl	chDbgCheckClassI
 689              	.LVL67:
 690              	.LBB140:
 691              	.LBB141:
 692              		.loc 5 140 0
 693 024a 6C68     		ldr	r4, [r5, #4]
 694 024c 2B68     		ldr	r3, [r5]
 695 024e E41A     		subs	r4, r4, r3
 696 0250 A410     		asrs	r4, r4, #2
 697              	.LVL68:
 698              	.LBE141:
 699              	.LBE140:
 700              	.LBB142:
 701              	.LBB143:
 702              		.loc 5 154 0
 703 0252 FFF7FEFF 		bl	chDbgCheckClassI
 704              	.LVL69:
 705              		.loc 5 156 0
 706 0256 2B69     		ldr	r3, [r5, #16]
 707              	.LVL70:
 708              	.LBE143:
 709              	.LBE142:
 710              	.LBE139:
 711              	.LBE138:
 712              		.loc 1 332 0
 713 0258 9C42     		cmp	r4, r3
 714 025a 0DD1     		bne	.L56
 715              		.loc 1 347 0
 716 025c 3246     		mov	r2, r6
 717 025e 3B46     		mov	r3, r7
 718 0260 05F11800 		add	r0, r5, #24
 719 0264 FFF7FEFF 		bl	chThdEnqueueTimeoutS
 720              	.LVL71:
 721              		.loc 1 348 0
 722 0268 0346     		mov	r3, r0
 723 026a 0028     		cmp	r0, #0
 724 026c E9D0     		beq	.L52
 725 026e 1DE0     		b	.L47
 726              	.LVL72:
 727              	.L55:
 728              		.loc 1 323 0 discriminator 2
 729 0270 1048     		ldr	r0, .L57
 730 0272 FFF7FEFF 		bl	chSysHalt
 731              	.LVL73:
 732 0276 E4E7     		b	.L52
 733              	.L56:
 734              		.loc 1 333 0
 735 0278 EB68     		ldr	r3, [r5, #12]
 736 027a 043B     		subs	r3, r3, #4
 737 027c EB60     		str	r3, [r5, #12]
 738 027e 2A68     		ldr	r2, [r5]
ARM GAS  C:\Users\RAKIBU~1\AppData\Local\Temp\ccGxpSlI.s 			page 14


 739 0280 9342     		cmp	r3, r2
 740 0282 02D2     		bcs	.L51
 741              		.loc 1 334 0
 742 0284 6B68     		ldr	r3, [r5, #4]
 743 0286 043B     		subs	r3, r3, #4
 744 0288 EB60     		str	r3, [r5, #12]
 745              	.L51:
 746              		.loc 1 336 0
 747 028a EB68     		ldr	r3, [r5, #12]
 748 028c C3F80080 		str	r8, [r3]
 749              		.loc 1 337 0
 750 0290 2B69     		ldr	r3, [r5, #16]
 751 0292 0133     		adds	r3, r3, #1
 752 0294 2B61     		str	r3, [r5, #16]
 753              		.loc 1 340 0
 754 0296 0021     		movs	r1, #0
 755 0298 05F12000 		add	r0, r5, #32
 756 029c FFF7FEFF 		bl	chThdDequeueNextI
 757              	.LVL74:
 758              		.loc 1 341 0
 759 02a0 FFF7FEFF 		bl	chSchRescheduleS
 760              	.LVL75:
 761              		.loc 1 343 0
 762 02a4 0023     		movs	r3, #0
 763 02a6 01E0     		b	.L47
 764              	.L53:
 765              		.loc 1 328 0
 766 02a8 6FF00103 		mvn	r3, #1
 767              	.L47:
 768              		.loc 1 351 0
 769 02ac 1846     		mov	r0, r3
 770 02ae BDE8F081 		pop	{r4, r5, r6, r7, r8, pc}
 771              	.LVL76:
 772              	.L58:
 773 02b2 00BF     		.align	2
 774              	.L57:
 775 02b4 48000000 		.word	.LANCHOR0+72
 776              		.cfi_endproc
 777              	.LFE302:
 778              		.size	chMBPostAheadTimeoutS, .-chMBPostAheadTimeoutS
 779              		.align	1
 780 02b8 AFF30080 		.p2align 4,,15
 780      AFF30080 
 781              		.global	chMBPostAheadTimeout
 782              		.syntax unified
 783              		.thumb
 784              		.thumb_func
 785              		.fpu softvfp
 786              		.type	chMBPostAheadTimeout, %function
 787              	chMBPostAheadTimeout:
 788              	.LFB301:
 789              		.loc 1 290 0
 790              		.cfi_startproc
 791              		@ args = 0, pretend = 0, frame = 0
 792              		@ frame_needed = 0, uses_anonymous_args = 0
 793              	.LVL77:
 794 02c0 F8B5     		push	{r3, r4, r5, r6, r7, lr}
ARM GAS  C:\Users\RAKIBU~1\AppData\Local\Temp\ccGxpSlI.s 			page 15


 795              		.cfi_def_cfa_offset 24
 796              		.cfi_offset 3, -24
 797              		.cfi_offset 4, -20
 798              		.cfi_offset 5, -16
 799              		.cfi_offset 6, -12
 800              		.cfi_offset 7, -8
 801              		.cfi_offset 14, -4
 802 02c2 0446     		mov	r4, r0
 803 02c4 0D46     		mov	r5, r1
 804 02c6 1646     		mov	r6, r2
 805 02c8 1F46     		mov	r7, r3
 806              	.LVL78:
 807              	.LBB154:
 808              	.LBB155:
 809              	.LBB156:
 810              	.LBB157:
 811              	.LBB158:
 812              		.loc 3 493 0
 813 02ca 2023     		movs	r3, #32
 814              		.syntax unified
 815              	@ 493 "../../../ChibiOSRepo/chibios191/os/common/ext/ARM/CMSIS/Core/Include/cmsis_gcc.h" 1
 816 02cc 83F31188 		MSR basepri, r3
 817              	@ 0 "" 2
 818              	.LVL79:
 819              		.thumb
 820              		.syntax unified
 821              	.LBE158:
 822              	.LBE157:
 823              	.LBE156:
 824              		.loc 4 356 0
 825 02d0 FFF7FEFF 		bl	_stats_start_measure_crit_thd
 826              	.LVL80:
 827              		.loc 4 357 0
 828 02d4 FFF7FEFF 		bl	_dbg_check_lock
 829              	.LVL81:
 830              	.LBE155:
 831              	.LBE154:
 832              		.loc 1 294 0
 833 02d8 3246     		mov	r2, r6
 834 02da 3B46     		mov	r3, r7
 835 02dc 2946     		mov	r1, r5
 836 02de 2046     		mov	r0, r4
 837 02e0 FFF7FEFF 		bl	chMBPostAheadTimeoutS
 838              	.LVL82:
 839 02e4 0446     		mov	r4, r0
 840              	.LVL83:
 841              	.LBB159:
 842              	.LBB160:
 843              		.loc 4 367 0
 844 02e6 FFF7FEFF 		bl	_dbg_check_unlock
 845              	.LVL84:
 846              		.loc 4 368 0
 847 02ea FFF7FEFF 		bl	_stats_stop_measure_crit_thd
 848              	.LVL85:
 849              		.loc 4 374 0
 850 02ee 094B     		ldr	r3, .L63
 851 02f0 1A68     		ldr	r2, [r3]
ARM GAS  C:\Users\RAKIBU~1\AppData\Local\Temp\ccGxpSlI.s 			page 16


 852 02f2 9A42     		cmp	r2, r3
 853 02f4 04D0     		beq	.L60
 854 02f6 9B69     		ldr	r3, [r3, #24]
 855 02f8 9968     		ldr	r1, [r3, #8]
 856 02fa 9368     		ldr	r3, [r2, #8]
 857 02fc 9942     		cmp	r1, r3
 858 02fe 04D3     		bcc	.L62
 859              	.L60:
 860              	.LVL86:
 861              	.LBB161:
 862              	.LBB162:
 863              	.LBB163:
 864              		.loc 3 493 0
 865 0300 0023     		movs	r3, #0
 866              		.syntax unified
 867              	@ 493 "../../../ChibiOSRepo/chibios191/os/common/ext/ARM/CMSIS/Core/Include/cmsis_gcc.h" 1
 868 0302 83F31188 		MSR basepri, r3
 869              	@ 0 "" 2
 870              	.LVL87:
 871              		.thumb
 872              		.syntax unified
 873              	.LBE163:
 874              	.LBE162:
 875              	.LBE161:
 876              	.LBE160:
 877              	.LBE159:
 878              		.loc 1 298 0
 879 0306 2046     		mov	r0, r4
 880 0308 F8BD     		pop	{r3, r4, r5, r6, r7, pc}
 881              	.LVL88:
 882              	.L62:
 883              	.LBB165:
 884              	.LBB164:
 885              		.loc 4 374 0
 886 030a 0348     		ldr	r0, .L63+4
 887 030c FFF7FEFF 		bl	chSysHalt
 888              	.LVL89:
 889 0310 F6E7     		b	.L60
 890              	.L64:
 891 0312 00BF     		.align	2
 892              	.L63:
 893 0314 00000000 		.word	ch
 894 0318 1C000000 		.word	.LANCHOR0+28
 895              	.LBE164:
 896              	.LBE165:
 897              		.cfi_endproc
 898              	.LFE301:
 899              		.size	chMBPostAheadTimeout, .-chMBPostAheadTimeout
 900              		.align	1
 901 031c AFF30080 		.p2align 4,,15
 902              		.global	chMBPostAheadI
 903              		.syntax unified
 904              		.thumb
 905              		.thumb_func
 906              		.fpu softvfp
 907              		.type	chMBPostAheadI, %function
 908              	chMBPostAheadI:
ARM GAS  C:\Users\RAKIBU~1\AppData\Local\Temp\ccGxpSlI.s 			page 17


 909              	.LFB303:
 910              		.loc 1 368 0
 911              		.cfi_startproc
 912              		@ args = 0, pretend = 0, frame = 0
 913              		@ frame_needed = 0, uses_anonymous_args = 0
 914              	.LVL90:
 915 0320 70B5     		push	{r4, r5, r6, lr}
 916              		.cfi_def_cfa_offset 16
 917              		.cfi_offset 4, -16
 918              		.cfi_offset 5, -12
 919              		.cfi_offset 6, -8
 920              		.cfi_offset 14, -4
 921 0322 0446     		mov	r4, r0
 922 0324 0E46     		mov	r6, r1
 923              		.loc 1 370 0
 924 0326 FFF7FEFF 		bl	chDbgCheckClassI
 925              	.LVL91:
 926              		.loc 1 371 0
 927 032a 0CB3     		cbz	r4, .L72
 928              	.L66:
 929              		.loc 1 374 0
 930 032c 237D     		ldrb	r3, [r4, #20]	@ zero_extendqisi2
 931 032e 1BBB     		cbnz	r3, .L69
 932              	.LVL92:
 933              	.LBB166:
 934              	.LBB167:
 935              		.loc 5 169 0
 936 0330 FFF7FEFF 		bl	chDbgCheckClassI
 937              	.LVL93:
 938              	.LBB168:
 939              	.LBB169:
 940              		.loc 5 140 0
 941 0334 6568     		ldr	r5, [r4, #4]
 942 0336 2368     		ldr	r3, [r4]
 943 0338 ED1A     		subs	r5, r5, r3
 944 033a AD10     		asrs	r5, r5, #2
 945              	.LVL94:
 946              	.LBE169:
 947              	.LBE168:
 948              	.LBB170:
 949              	.LBB171:
 950              		.loc 5 154 0
 951 033c FFF7FEFF 		bl	chDbgCheckClassI
 952              	.LVL95:
 953              		.loc 5 156 0
 954 0340 2369     		ldr	r3, [r4, #16]
 955              	.LVL96:
 956              	.LBE171:
 957              	.LBE170:
 958              	.LBE167:
 959              	.LBE166:
 960              		.loc 1 379 0
 961 0342 9D42     		cmp	r5, r3
 962 0344 1BD0     		beq	.L70
 963              		.loc 1 380 0
 964 0346 E368     		ldr	r3, [r4, #12]
 965 0348 043B     		subs	r3, r3, #4
ARM GAS  C:\Users\RAKIBU~1\AppData\Local\Temp\ccGxpSlI.s 			page 18


 966 034a E360     		str	r3, [r4, #12]
 967 034c 2268     		ldr	r2, [r4]
 968 034e 9342     		cmp	r3, r2
 969 0350 02D2     		bcs	.L68
 970              		.loc 1 381 0
 971 0352 6368     		ldr	r3, [r4, #4]
 972 0354 043B     		subs	r3, r3, #4
 973 0356 E360     		str	r3, [r4, #12]
 974              	.L68:
 975              		.loc 1 383 0
 976 0358 E368     		ldr	r3, [r4, #12]
 977 035a 1E60     		str	r6, [r3]
 978              		.loc 1 384 0
 979 035c 2369     		ldr	r3, [r4, #16]
 980 035e 0133     		adds	r3, r3, #1
 981 0360 2361     		str	r3, [r4, #16]
 982              		.loc 1 387 0
 983 0362 0021     		movs	r1, #0
 984 0364 04F12000 		add	r0, r4, #32
 985 0368 FFF7FEFF 		bl	chThdDequeueNextI
 986              	.LVL97:
 987              		.loc 1 389 0
 988 036c 0020     		movs	r0, #0
 989              	.L65:
 990              		.loc 1 394 0
 991 036e 70BD     		pop	{r4, r5, r6, pc}
 992              	.LVL98:
 993              	.L72:
 994              		.loc 1 371 0 discriminator 2
 995 0370 0448     		ldr	r0, .L73
 996 0372 FFF7FEFF 		bl	chSysHalt
 997              	.LVL99:
 998 0376 D9E7     		b	.L66
 999              	.L69:
 1000              		.loc 1 375 0
 1001 0378 6FF00100 		mvn	r0, #1
 1002 037c F7E7     		b	.L65
 1003              	.L70:
 1004              		.loc 1 393 0
 1005 037e 4FF0FF30 		mov	r0, #-1
 1006 0382 F4E7     		b	.L65
 1007              	.L74:
 1008              		.align	2
 1009              	.L73:
 1010 0384 60000000 		.word	.LANCHOR0+96
 1011              		.cfi_endproc
 1012              	.LFE303:
 1013              		.size	chMBPostAheadI, .-chMBPostAheadI
 1014              		.align	1
 1015 0388 AFF30080 		.p2align 4,,15
 1015      AFF30080 
 1016              		.global	chMBFetchTimeoutS
 1017              		.syntax unified
 1018              		.thumb
 1019              		.thumb_func
 1020              		.fpu softvfp
 1021              		.type	chMBFetchTimeoutS, %function
ARM GAS  C:\Users\RAKIBU~1\AppData\Local\Temp\ccGxpSlI.s 			page 19


 1022              	chMBFetchTimeoutS:
 1023              	.LFB305:
 1024              		.loc 1 444 0
 1025              		.cfi_startproc
 1026              		@ args = 0, pretend = 0, frame = 0
 1027              		@ frame_needed = 0, uses_anonymous_args = 0
 1028              	.LVL100:
 1029 0390 F8B5     		push	{r3, r4, r5, r6, r7, lr}
 1030              		.cfi_def_cfa_offset 24
 1031              		.cfi_offset 3, -24
 1032              		.cfi_offset 4, -20
 1033              		.cfi_offset 5, -16
 1034              		.cfi_offset 6, -12
 1035              		.cfi_offset 7, -8
 1036              		.cfi_offset 14, -4
 1037 0392 0446     		mov	r4, r0
 1038 0394 0D46     		mov	r5, r1
 1039 0396 1646     		mov	r6, r2
 1040 0398 1F46     		mov	r7, r3
 1041              		.loc 1 447 0
 1042 039a FFF7FEFF 		bl	chDbgCheckClassS
 1043              	.LVL101:
 1044              		.loc 1 448 0
 1045 039e 84B1     		cbz	r4, .L76
 1046              		.loc 1 448 0 is_stmt 0 discriminator 3
 1047 03a0 7DB1     		cbz	r5, .L76
 1048              	.L81:
 1049              		.loc 1 452 0 is_stmt 1
 1050 03a2 237D     		ldrb	r3, [r4, #20]	@ zero_extendqisi2
 1051 03a4 43BB     		cbnz	r3, .L82
 1052              	.LVL102:
 1053              	.LBB172:
 1054              	.LBB173:
 1055              		.loc 5 154 0
 1056 03a6 FFF7FEFF 		bl	chDbgCheckClassI
 1057              	.LVL103:
 1058              		.loc 5 156 0
 1059 03aa 2369     		ldr	r3, [r4, #16]
 1060              	.LVL104:
 1061              	.LBE173:
 1062              	.LBE172:
 1063              		.loc 1 457 0
 1064 03ac 6BB9     		cbnz	r3, .L84
 1065              		.loc 1 472 0
 1066 03ae 3246     		mov	r2, r6
 1067 03b0 3B46     		mov	r3, r7
 1068 03b2 04F12000 		add	r0, r4, #32
 1069 03b6 FFF7FEFF 		bl	chThdEnqueueTimeoutS
 1070              	.LVL105:
 1071              		.loc 1 473 0
 1072 03ba 0346     		mov	r3, r0
 1073 03bc 0028     		cmp	r0, #0
 1074 03be F0D0     		beq	.L81
 1075 03c0 1CE0     		b	.L75
 1076              	.LVL106:
 1077              	.L76:
 1078              		.loc 1 448 0 discriminator 4
ARM GAS  C:\Users\RAKIBU~1\AppData\Local\Temp\ccGxpSlI.s 			page 20


 1079 03c2 0F48     		ldr	r0, .L85
 1080 03c4 FFF7FEFF 		bl	chSysHalt
 1081              	.LVL107:
 1082 03c8 EBE7     		b	.L81
 1083              	.L84:
 1084              		.loc 1 458 0
 1085 03ca E368     		ldr	r3, [r4, #12]
 1086 03cc 1A1D     		adds	r2, r3, #4
 1087 03ce E260     		str	r2, [r4, #12]
 1088 03d0 1B68     		ldr	r3, [r3]
 1089 03d2 2B60     		str	r3, [r5]
 1090              		.loc 1 459 0
 1091 03d4 E268     		ldr	r2, [r4, #12]
 1092 03d6 6368     		ldr	r3, [r4, #4]
 1093 03d8 9A42     		cmp	r2, r3
 1094 03da 01D3     		bcc	.L80
 1095              		.loc 1 460 0
 1096 03dc 2368     		ldr	r3, [r4]
 1097 03de E360     		str	r3, [r4, #12]
 1098              	.L80:
 1099              		.loc 1 462 0
 1100 03e0 2369     		ldr	r3, [r4, #16]
 1101 03e2 013B     		subs	r3, r3, #1
 1102 03e4 2361     		str	r3, [r4, #16]
 1103              		.loc 1 465 0
 1104 03e6 0021     		movs	r1, #0
 1105 03e8 04F11800 		add	r0, r4, #24
 1106 03ec FFF7FEFF 		bl	chThdDequeueNextI
 1107              	.LVL108:
 1108              		.loc 1 466 0
 1109 03f0 FFF7FEFF 		bl	chSchRescheduleS
 1110              	.LVL109:
 1111              		.loc 1 468 0
 1112 03f4 0023     		movs	r3, #0
 1113 03f6 01E0     		b	.L75
 1114              	.L82:
 1115              		.loc 1 453 0
 1116 03f8 6FF00103 		mvn	r3, #1
 1117              	.L75:
 1118              		.loc 1 476 0
 1119 03fc 1846     		mov	r0, r3
 1120 03fe F8BD     		pop	{r3, r4, r5, r6, r7, pc}
 1121              	.LVL110:
 1122              	.L86:
 1123              		.align	2
 1124              	.L85:
 1125 0400 70000000 		.word	.LANCHOR0+112
 1126              		.cfi_endproc
 1127              	.LFE305:
 1128              		.size	chMBFetchTimeoutS, .-chMBFetchTimeoutS
 1129              		.align	1
 1130 0404 AFF30080 		.p2align 4,,15
 1130      AFF30080 
 1130      AFF30080 
 1131              		.global	chMBFetchTimeout
 1132              		.syntax unified
 1133              		.thumb
ARM GAS  C:\Users\RAKIBU~1\AppData\Local\Temp\ccGxpSlI.s 			page 21


 1134              		.thumb_func
 1135              		.fpu softvfp
 1136              		.type	chMBFetchTimeout, %function
 1137              	chMBFetchTimeout:
 1138              	.LFB304:
 1139              		.loc 1 415 0
 1140              		.cfi_startproc
 1141              		@ args = 0, pretend = 0, frame = 0
 1142              		@ frame_needed = 0, uses_anonymous_args = 0
 1143              	.LVL111:
 1144 0410 F8B5     		push	{r3, r4, r5, r6, r7, lr}
 1145              		.cfi_def_cfa_offset 24
 1146              		.cfi_offset 3, -24
 1147              		.cfi_offset 4, -20
 1148              		.cfi_offset 5, -16
 1149              		.cfi_offset 6, -12
 1150              		.cfi_offset 7, -8
 1151              		.cfi_offset 14, -4
 1152 0412 0446     		mov	r4, r0
 1153 0414 0D46     		mov	r5, r1
 1154 0416 1646     		mov	r6, r2
 1155 0418 1F46     		mov	r7, r3
 1156              	.LVL112:
 1157              	.LBB184:
 1158              	.LBB185:
 1159              	.LBB186:
 1160              	.LBB187:
 1161              	.LBB188:
 1162              		.loc 3 493 0
 1163 041a 2023     		movs	r3, #32
 1164              		.syntax unified
 1165              	@ 493 "../../../ChibiOSRepo/chibios191/os/common/ext/ARM/CMSIS/Core/Include/cmsis_gcc.h" 1
 1166 041c 83F31188 		MSR basepri, r3
 1167              	@ 0 "" 2
 1168              	.LVL113:
 1169              		.thumb
 1170              		.syntax unified
 1171              	.LBE188:
 1172              	.LBE187:
 1173              	.LBE186:
 1174              		.loc 4 356 0
 1175 0420 FFF7FEFF 		bl	_stats_start_measure_crit_thd
 1176              	.LVL114:
 1177              		.loc 4 357 0
 1178 0424 FFF7FEFF 		bl	_dbg_check_lock
 1179              	.LVL115:
 1180              	.LBE185:
 1181              	.LBE184:
 1182              		.loc 1 419 0
 1183 0428 3246     		mov	r2, r6
 1184 042a 3B46     		mov	r3, r7
 1185 042c 2946     		mov	r1, r5
 1186 042e 2046     		mov	r0, r4
 1187 0430 FFF7FEFF 		bl	chMBFetchTimeoutS
 1188              	.LVL116:
 1189 0434 0446     		mov	r4, r0
 1190              	.LVL117:
ARM GAS  C:\Users\RAKIBU~1\AppData\Local\Temp\ccGxpSlI.s 			page 22


 1191              	.LBB189:
 1192              	.LBB190:
 1193              		.loc 4 367 0
 1194 0436 FFF7FEFF 		bl	_dbg_check_unlock
 1195              	.LVL118:
 1196              		.loc 4 368 0
 1197 043a FFF7FEFF 		bl	_stats_stop_measure_crit_thd
 1198              	.LVL119:
 1199              		.loc 4 374 0
 1200 043e 094B     		ldr	r3, .L91
 1201 0440 1A68     		ldr	r2, [r3]
 1202 0442 9A42     		cmp	r2, r3
 1203 0444 04D0     		beq	.L88
 1204 0446 9B69     		ldr	r3, [r3, #24]
 1205 0448 9968     		ldr	r1, [r3, #8]
 1206 044a 9368     		ldr	r3, [r2, #8]
 1207 044c 9942     		cmp	r1, r3
 1208 044e 04D3     		bcc	.L90
 1209              	.L88:
 1210              	.LVL120:
 1211              	.LBB191:
 1212              	.LBB192:
 1213              	.LBB193:
 1214              		.loc 3 493 0
 1215 0450 0023     		movs	r3, #0
 1216              		.syntax unified
 1217              	@ 493 "../../../ChibiOSRepo/chibios191/os/common/ext/ARM/CMSIS/Core/Include/cmsis_gcc.h" 1
 1218 0452 83F31188 		MSR basepri, r3
 1219              	@ 0 "" 2
 1220              	.LVL121:
 1221              		.thumb
 1222              		.syntax unified
 1223              	.LBE193:
 1224              	.LBE192:
 1225              	.LBE191:
 1226              	.LBE190:
 1227              	.LBE189:
 1228              		.loc 1 423 0
 1229 0456 2046     		mov	r0, r4
 1230 0458 F8BD     		pop	{r3, r4, r5, r6, r7, pc}
 1231              	.LVL122:
 1232              	.L90:
 1233              	.LBB195:
 1234              	.LBB194:
 1235              		.loc 4 374 0
 1236 045a 0348     		ldr	r0, .L91+4
 1237 045c FFF7FEFF 		bl	chSysHalt
 1238              	.LVL123:
 1239 0460 F6E7     		b	.L88
 1240              	.L92:
 1241 0462 00BF     		.align	2
 1242              	.L91:
 1243 0464 00000000 		.word	ch
 1244 0468 1C000000 		.word	.LANCHOR0+28
 1245              	.LBE194:
 1246              	.LBE195:
 1247              		.cfi_endproc
ARM GAS  C:\Users\RAKIBU~1\AppData\Local\Temp\ccGxpSlI.s 			page 23


 1248              	.LFE304:
 1249              		.size	chMBFetchTimeout, .-chMBFetchTimeout
 1250              		.align	1
 1251 046c AFF30080 		.p2align 4,,15
 1252              		.global	chMBFetchI
 1253              		.syntax unified
 1254              		.thumb
 1255              		.thumb_func
 1256              		.fpu softvfp
 1257              		.type	chMBFetchI, %function
 1258              	chMBFetchI:
 1259              	.LFB306:
 1260              		.loc 1 493 0
 1261              		.cfi_startproc
 1262              		@ args = 0, pretend = 0, frame = 0
 1263              		@ frame_needed = 0, uses_anonymous_args = 0
 1264              	.LVL124:
 1265 0470 38B5     		push	{r3, r4, r5, lr}
 1266              		.cfi_def_cfa_offset 16
 1267              		.cfi_offset 3, -16
 1268              		.cfi_offset 4, -12
 1269              		.cfi_offset 5, -8
 1270              		.cfi_offset 14, -4
 1271 0472 0446     		mov	r4, r0
 1272 0474 0D46     		mov	r5, r1
 1273              		.loc 1 495 0
 1274 0476 FFF7FEFF 		bl	chDbgCheckClassI
 1275              	.LVL125:
 1276              		.loc 1 496 0
 1277 047a DCB1     		cbz	r4, .L94
 1278              		.loc 1 496 0 is_stmt 0 discriminator 3
 1279 047c D5B1     		cbz	r5, .L94
 1280              	.L95:
 1281              		.loc 1 499 0 is_stmt 1
 1282 047e 237D     		ldrb	r3, [r4, #20]	@ zero_extendqisi2
 1283 0480 E3B9     		cbnz	r3, .L98
 1284              	.LVL126:
 1285              	.LBB196:
 1286              	.LBB197:
 1287              		.loc 5 154 0
 1288 0482 FFF7FEFF 		bl	chDbgCheckClassI
 1289              	.LVL127:
 1290              		.loc 5 156 0
 1291 0486 2369     		ldr	r3, [r4, #16]
 1292              	.LVL128:
 1293              	.LBE197:
 1294              	.LBE196:
 1295              		.loc 1 504 0
 1296 0488 DBB1     		cbz	r3, .L99
 1297              		.loc 1 505 0
 1298 048a E368     		ldr	r3, [r4, #12]
 1299 048c 1A1D     		adds	r2, r3, #4
 1300 048e E260     		str	r2, [r4, #12]
 1301 0490 1B68     		ldr	r3, [r3]
 1302 0492 2B60     		str	r3, [r5]
 1303              		.loc 1 506 0
 1304 0494 E268     		ldr	r2, [r4, #12]
ARM GAS  C:\Users\RAKIBU~1\AppData\Local\Temp\ccGxpSlI.s 			page 24


 1305 0496 6368     		ldr	r3, [r4, #4]
 1306 0498 9A42     		cmp	r2, r3
 1307 049a 01D3     		bcc	.L97
 1308              		.loc 1 507 0
 1309 049c 2368     		ldr	r3, [r4]
 1310 049e E360     		str	r3, [r4, #12]
 1311              	.L97:
 1312              		.loc 1 509 0
 1313 04a0 2369     		ldr	r3, [r4, #16]
 1314 04a2 013B     		subs	r3, r3, #1
 1315 04a4 2361     		str	r3, [r4, #16]
 1316              		.loc 1 512 0
 1317 04a6 0021     		movs	r1, #0
 1318 04a8 04F11800 		add	r0, r4, #24
 1319 04ac FFF7FEFF 		bl	chThdDequeueNextI
 1320              	.LVL129:
 1321              		.loc 1 514 0
 1322 04b0 0020     		movs	r0, #0
 1323              	.L93:
 1324              		.loc 1 519 0
 1325 04b2 38BD     		pop	{r3, r4, r5, pc}
 1326              	.LVL130:
 1327              	.L94:
 1328              		.loc 1 496 0 discriminator 4
 1329 04b4 0448     		ldr	r0, .L101
 1330 04b6 FFF7FEFF 		bl	chSysHalt
 1331              	.LVL131:
 1332 04ba E0E7     		b	.L95
 1333              	.L98:
 1334              		.loc 1 500 0
 1335 04bc 6FF00100 		mvn	r0, #1
 1336 04c0 F7E7     		b	.L93
 1337              	.L99:
 1338              		.loc 1 518 0
 1339 04c2 4FF0FF30 		mov	r0, #-1
 1340 04c6 F4E7     		b	.L93
 1341              	.L102:
 1342              		.align	2
 1343              	.L101:
 1344 04c8 84000000 		.word	.LANCHOR0+132
 1345              		.cfi_endproc
 1346              	.LFE306:
 1347              		.size	chMBFetchI, .-chMBFetchI
 1348              		.section	.rodata
 1349              		.align	2
 1350              		.set	.LANCHOR0,. + 0
 1351              		.type	__func__.7108, %object
 1352              		.size	__func__.7108, 15
 1353              	__func__.7108:
 1354 0000 63684D42 		.ascii	"chMBObjectInit\000"
 1354      4F626A65 
 1354      6374496E 
 1354      697400
 1355 000f 00       		.space	1
 1356              		.type	__func__.7115, %object
 1357              		.size	__func__.7115, 11
 1358              	__func__.7115:
ARM GAS  C:\Users\RAKIBU~1\AppData\Local\Temp\ccGxpSlI.s 			page 25


 1359 0010 63684D42 		.ascii	"chMBResetI\000"
 1359      52657365 
 1359      744900
 1360 001b 00       		.space	1
 1361              		.type	__func__.6118, %object
 1362              		.size	__func__.6118, 12
 1363              	__func__.6118:
 1364 001c 63685379 		.ascii	"chSysUnlock\000"
 1364      73556E6C 
 1364      6F636B00 
 1365              		.type	__func__.7128, %object
 1366              		.size	__func__.7128, 17
 1367              	__func__.7128:
 1368 0028 63684D42 		.ascii	"chMBPostTimeoutS\000"
 1368      506F7374 
 1368      54696D65 
 1368      6F757453 
 1368      00
 1369 0039 000000   		.space	3
 1370              		.type	__func__.7135, %object
 1371              		.size	__func__.7135, 10
 1372              	__func__.7135:
 1373 003c 63684D42 		.ascii	"chMBPostI\000"
 1373      506F7374 
 1373      4900
 1374 0046 0000     		.space	2
 1375              		.type	__func__.7148, %object
 1376              		.size	__func__.7148, 22
 1377              	__func__.7148:
 1378 0048 63684D42 		.ascii	"chMBPostAheadTimeoutS\000"
 1378      506F7374 
 1378      41686561 
 1378      6454696D 
 1378      656F7574 
 1379 005e 0000     		.space	2
 1380              		.type	__func__.7155, %object
 1381              		.size	__func__.7155, 15
 1382              	__func__.7155:
 1383 0060 63684D42 		.ascii	"chMBPostAheadI\000"
 1383      506F7374 
 1383      41686561 
 1383      644900
 1384 006f 00       		.space	1
 1385              		.type	__func__.7168, %object
 1386              		.size	__func__.7168, 18
 1387              	__func__.7168:
 1388 0070 63684D42 		.ascii	"chMBFetchTimeoutS\000"
 1388      46657463 
 1388      6854696D 
 1388      656F7574 
 1388      5300
 1389 0082 0000     		.space	2
 1390              		.type	__func__.7175, %object
 1391              		.size	__func__.7175, 11
 1392              	__func__.7175:
 1393 0084 63684D42 		.ascii	"chMBFetchI\000"
 1393      46657463 
ARM GAS  C:\Users\RAKIBU~1\AppData\Local\Temp\ccGxpSlI.s 			page 26


 1393      684900
 1394              		.text
 1395              	.Letext0:
 1396              		.file 6 "c:\\chibistudio\\tools\\gnu tools arm embedded\\7.0 2017q4\\lib\\gcc\\arm-none-eabi\\7.2.
 1397              		.file 7 "c:\\chibistudio\\tools\\gnu tools arm embedded\\7.0 2017q4\\arm-none-eabi\\include\\machi
 1398              		.file 8 "c:\\chibistudio\\tools\\gnu tools arm embedded\\7.0 2017q4\\arm-none-eabi\\include\\sys\\
 1399              		.file 9 "../../../ChibiOSRepo/chibios191/os/common/ports/ARMCMx/compilers/GCC/chtypes.h"
 1400              		.file 10 "../../../ChibiOSRepo/chibios191/os/rt/include/chsystypes.h"
 1401              		.file 11 "../../../ChibiOSRepo/chibios191/os/rt/include/chtime.h"
 1402              		.file 12 "../../../ChibiOSRepo/chibios191/os/common/ext/ARM/CMSIS/Core/Include/core_cm4.h"
 1403              		.file 13 "../../../ChibiOSRepo/chibios191/os/common/ext/ST/STM32F4xx/system_stm32f4xx.h"
 1404              		.file 14 "../../../ChibiOSRepo/chibios191/os/common/ports/ARMCMx/chcore.h"
 1405              		.file 15 "../../../ChibiOSRepo/chibios191/os/common/ports/ARMCMx/chcore_v7m.h"
 1406              		.file 16 "../../../ChibiOSRepo/chibios191/os/rt/include/chtrace.h"
 1407              		.file 17 "../../../ChibiOSRepo/chibios191/os/rt/include/chtm.h"
 1408              		.file 18 "../../../ChibiOSRepo/chibios191/os/rt/include/chstats.h"
 1409              		.file 19 "../../../ChibiOSRepo/chibios191/os/rt/include/chsem.h"
 1410              		.file 20 "../../../ChibiOSRepo/chibios191/os/rt/include/chmtx.h"
 1411              		.file 21 "../../../ChibiOSRepo/chibios191/os/rt/include/chregistry.h"
 1412              		.file 22 "../../../ChibiOSRepo/chibios191/os/oslib/include/chmemcore.h"
 1413              		.file 23 "../../../ChibiOSRepo/chibios191/os/oslib/include/chmempools.h"
 1414              		.file 24 "../../../ChibiOSRepo/chibios191/os/oslib/include/chfactory.h"
 1415              		.file 25 "../../../ChibiOSRepo/chibios191/os/rt/include/chthreads.h"
 1416              		.file 26 "../../../ChibiOSRepo/chibios191/os/rt/include/chdebug.h"
 1417              		.file 27 "../../../ChibiOSRepo/chibios191/os/rt/include/ch.h"