ARM GAS  C:\Users\RAKIBU~1\AppData\Local\Temp\cc5wOhHj.s 			page 1


   1              		.cpu cortex-m4
   2              		.eabi_attribute 20, 1
   3              		.eabi_attribute 21, 1
   4              		.eabi_attribute 23, 3
   5              		.eabi_attribute 24, 1
   6              		.eabi_attribute 25, 1
   7              		.eabi_attribute 26, 1
   8              		.eabi_attribute 30, 1
   9              		.eabi_attribute 34, 1
  10              		.eabi_attribute 18, 4
  11              		.file	"chmemheaps.c"
  12              		.text
  13              	.Ltext0:
  14              		.cfi_sections	.debug_frame
  15              		.align	1
  16              		.p2align 4,,15
  17              		.global	_heap_init
  18              		.syntax unified
  19              		.thumb
  20              		.thumb_func
  21              		.fpu softvfp
  22              		.type	_heap_init, %function
  23              	_heap_init:
  24              	.LFB295:
  25              		.file 1 "../../../ChibiOSRepo/chibios191/os/oslib/src/chmemheaps.c"
  26              		.loc 1 107 0
  27              		.cfi_startproc
  28              		@ args = 0, pretend = 0, frame = 0
  29              		@ frame_needed = 0, uses_anonymous_args = 0
  30 0000 08B5     		push	{r3, lr}
  31              		.cfi_def_cfa_offset 8
  32              		.cfi_offset 3, -8
  33              		.cfi_offset 14, -4
  34              		.loc 1 109 0
  35 0002 0548     		ldr	r0, .L3
  36 0004 054B     		ldr	r3, .L3+4
  37 0006 0360     		str	r3, [r0]
  38              		.loc 1 110 0
  39 0008 0023     		movs	r3, #0
  40 000a 4360     		str	r3, [r0, #4]
  41              		.loc 1 111 0
  42 000c 8360     		str	r3, [r0, #8]
  43              		.loc 1 113 0
  44 000e 0C30     		adds	r0, r0, #12
  45 0010 FFF7FEFF 		bl	chMtxObjectInit
  46              	.LVL0:
  47              		.loc 1 117 0
  48 0014 08BD     		pop	{r3, pc}
  49              	.L4:
  50 0016 00BF     		.align	2
  51              	.L3:
  52 0018 00000000 		.word	.LANCHOR0
  53 001c 00000000 		.word	chCoreAllocAlignedWithOffset
  54              		.cfi_endproc
  55              	.LFE295:
  56              		.size	_heap_init, .-_heap_init
  57              		.align	1
ARM GAS  C:\Users\RAKIBU~1\AppData\Local\Temp\cc5wOhHj.s 			page 2


  58              		.p2align 4,,15
  59              		.global	chHeapObjectInit
  60              		.syntax unified
  61              		.thumb
  62              		.thumb_func
  63              		.fpu softvfp
  64              		.type	chHeapObjectInit, %function
  65              	chHeapObjectInit:
  66              	.LFB296:
  67              		.loc 1 131 0
  68              		.cfi_startproc
  69              		@ args = 0, pretend = 0, frame = 0
  70              		@ frame_needed = 0, uses_anonymous_args = 0
  71              	.LVL1:
  72 0020 F8B5     		push	{r3, r4, r5, r6, r7, lr}
  73              		.cfi_def_cfa_offset 24
  74              		.cfi_offset 3, -24
  75              		.cfi_offset 4, -20
  76              		.cfi_offset 5, -16
  77              		.cfi_offset 6, -12
  78              		.cfi_offset 7, -8
  79              		.cfi_offset 14, -4
  80 0022 0F46     		mov	r7, r1
  81 0024 1446     		mov	r4, r2
  82              		.loc 1 132 0
  83 0026 CD1D     		adds	r5, r1, #7
  84 0028 25F00705 		bic	r5, r5, #7
  85              	.LVL2:
  86              		.loc 1 134 0
  87 002c 0646     		mov	r6, r0
  88 002e 00B1     		cbz	r0, .L6
  89              		.loc 1 134 0 is_stmt 0 discriminator 3
  90 0030 12B9     		cbnz	r2, .L7
  91              	.L6:
  92              		.loc 1 134 0 discriminator 4
  93 0032 0948     		ldr	r0, .L9
  94              	.LVL3:
  95 0034 FFF7FEFF 		bl	chSysHalt
  96              	.LVL4:
  97              	.L7:
  98              		.loc 1 139 0 is_stmt 1
  99 0038 EF1B     		subs	r7, r5, r7
 100              	.LVL5:
 101 003a E41B     		subs	r4, r4, r7
 102              	.LVL6:
 103              		.loc 1 143 0
 104 003c 0023     		movs	r3, #0
 105 003e 3360     		str	r3, [r6]
 106              		.loc 1 144 0
 107 0040 7560     		str	r5, [r6, #4]
 108              		.loc 1 145 0
 109 0042 B360     		str	r3, [r6, #8]
 110              		.loc 1 146 0
 111 0044 2B60     		str	r3, [r5]
 112              		.loc 1 147 0
 113 0046 083C     		subs	r4, r4, #8
 114              	.LVL7:
ARM GAS  C:\Users\RAKIBU~1\AppData\Local\Temp\cc5wOhHj.s 			page 3


 115 0048 E408     		lsrs	r4, r4, #3
 116              	.LVL8:
 117 004a 6C60     		str	r4, [r5, #4]
 118              		.loc 1 149 0
 119 004c 06F10C00 		add	r0, r6, #12
 120 0050 FFF7FEFF 		bl	chMtxObjectInit
 121              	.LVL9:
 122              		.loc 1 153 0
 123 0054 F8BD     		pop	{r3, r4, r5, r6, r7, pc}
 124              	.LVL10:
 125              	.L10:
 126 0056 00BF     		.align	2
 127              	.L9:
 128 0058 00000000 		.word	.LANCHOR1
 129              		.cfi_endproc
 130              	.LFE296:
 131              		.size	chHeapObjectInit, .-chHeapObjectInit
 132              		.align	1
 133 005c AFF30080 		.p2align 4,,15
 134              		.global	chHeapAllocAligned
 135              		.syntax unified
 136              		.thumb
 137              		.thumb_func
 138              		.fpu softvfp
 139              		.type	chHeapAllocAligned, %function
 140              	chHeapAllocAligned:
 141              	.LFB297:
 142              		.loc 1 172 0
 143              		.cfi_startproc
 144              		@ args = 0, pretend = 0, frame = 0
 145              		@ frame_needed = 0, uses_anonymous_args = 0
 146              	.LVL11:
 147 0060 2DE9F047 		push	{r4, r5, r6, r7, r8, r9, r10, lr}
 148              		.cfi_def_cfa_offset 32
 149              		.cfi_offset 4, -32
 150              		.cfi_offset 5, -28
 151              		.cfi_offset 6, -24
 152              		.cfi_offset 7, -20
 153              		.cfi_offset 8, -16
 154              		.cfi_offset 9, -12
 155              		.cfi_offset 10, -8
 156              		.cfi_offset 14, -4
 157 0064 0646     		mov	r6, r0
 158 0066 1446     		mov	r4, r2
 159              		.loc 1 176 0
 160 0068 8846     		mov	r8, r1
 161 006a 19B1     		cbz	r1, .L12
 162              		.loc 1 176 0 is_stmt 0 discriminator 3
 163 006c 12B1     		cbz	r2, .L12
 164              		.loc 1 176 0 discriminator 5
 165 006e 531E     		subs	r3, r2, #1
 166 0070 1342     		tst	r3, r2
 167 0072 02D0     		beq	.L13
 168              	.L12:
 169              		.loc 1 176 0 discriminator 6
 170 0074 3E48     		ldr	r0, .L33
 171              	.LVL12:
ARM GAS  C:\Users\RAKIBU~1\AppData\Local\Temp\cc5wOhHj.s 			page 4


 172 0076 FFF7FEFF 		bl	chSysHalt
 173              	.LVL13:
 174              	.L13:
 175              		.loc 1 179 0 is_stmt 1
 176 007a 6EB1     		cbz	r6, .L29
 177              	.LVL14:
 178              	.L14:
 179              		.loc 1 184 0
 180 007c 072C     		cmp	r4, #7
 181 007e 00D8     		bhi	.L15
 182              		.loc 1 185 0
 183 0080 0824     		movs	r4, #8
 184              	.LVL15:
 185              	.L15:
 186              		.loc 1 189 0
 187 0082 08F10705 		add	r5, r8, #7
 188 0086 ED08     		lsrs	r5, r5, #3
 189              	.LVL16:
 190              		.loc 1 192 0
 191 0088 06F10C07 		add	r7, r6, #12
 192 008c 3846     		mov	r0, r7
 193 008e FFF7FEFF 		bl	chMtxLock
 194              	.LVL17:
 195              		.loc 1 195 0
 196 0092 06F1040C 		add	ip, r6, #4
 197              	.LVL18:
 198              		.loc 1 196 0
 199 0096 37E0     		b	.L16
 200              	.LVL19:
 201              	.L29:
 202              		.loc 1 180 0
 203 0098 364E     		ldr	r6, .L33+4
 204              	.LVL20:
 205 009a EFE7     		b	.L14
 206              	.LVL21:
 207              	.L32:
 208              		.loc 1 208 0
 209 009c 9942     		cmp	r1, r3
 210 009e 11D2     		bcs	.L17
 211              	.LVL22:
 212              	.LBB2:
 213              		.loc 1 213 0
 214 00a0 A3EB0E03 		sub	r3, r3, lr
 215              	.LVL23:
 216 00a4 DB10     		asrs	r3, r3, #3
 217 00a6 4B60     		str	r3, [r1, #4]
 218              		.loc 1 214 0
 219 00a8 AA42     		cmp	r2, r5
 220 00aa 1FD9     		bls	.L18
 221              	.LBB3:
 222              		.loc 1 219 0
 223 00ac 681C     		adds	r0, r5, #1
 224 00ae 09EBC002 		add	r2, r9, r0, lsl #3
 225              	.LVL24:
 226              		.loc 1 220 0
 227 00b2 AAEB0503 		sub	r3, r10, r5
 228 00b6 013B     		subs	r3, r3, #1
ARM GAS  C:\Users\RAKIBU~1\AppData\Local\Temp\cc5wOhHj.s 			page 5


 229 00b8 5360     		str	r3, [r2, #4]
 230              		.loc 1 223 0
 231 00ba 0B68     		ldr	r3, [r1]
 232 00bc 49F83030 		str	r3, [r9, r0, lsl #3]
 233              		.loc 1 224 0
 234 00c0 0A60     		str	r2, [r1]
 235 00c2 13E0     		b	.L18
 236              	.LVL25:
 237              	.L17:
 238              	.LBE3:
 239              	.LBE2:
 240              		.loc 1 232 0
 241 00c4 A842     		cmp	r0, r5
 242 00c6 19D0     		beq	.L30
 243              	.LBB4:
 244              		.loc 1 240 0
 245 00c8 0135     		adds	r5, r5, #1
 246              	.LVL26:
 247 00ca 01EBC502 		add	r2, r1, r5, lsl #3
 248              	.LVL27:
 249              		.loc 1 241 0
 250 00ce 0B68     		ldr	r3, [r1]
 251              	.LVL28:
 252 00d0 41F83530 		str	r3, [r1, r5, lsl #3]
 253              		.loc 1 242 0
 254 00d4 4B68     		ldr	r3, [r1, #4]
 255 00d6 0133     		adds	r3, r3, #1
 256 00d8 01EBC303 		add	r3, r1, r3, lsl #3
 257 00dc 02F10800 		add	r0, r2, #8
 258 00e0 1B1A     		subs	r3, r3, r0
 259 00e2 DB10     		asrs	r3, r3, #3
 260 00e4 5360     		str	r3, [r2, #4]
 261              		.loc 1 243 0
 262 00e6 CCF80020 		str	r2, [ip]
 263              	.LBE4:
 264              		.loc 1 199 0
 265 00ea 8946     		mov	r9, r1
 266              	.LVL29:
 267              	.L18:
 268              		.loc 1 248 0
 269 00ec C9F80480 		str	r8, [r9, #4]
 270              		.loc 1 249 0
 271 00f0 49F8086B 		str	r6, [r9], #8
 272              	.LVL30:
 273              		.loc 1 252 0
 274 00f4 3846     		mov	r0, r7
 275 00f6 FFF7FEFF 		bl	chMtxUnlock
 276              	.LVL31:
 277              		.loc 1 255 0
 278 00fa 30E0     		b	.L11
 279              	.LVL32:
 280              	.L30:
 281              		.loc 1 234 0
 282 00fc 0B68     		ldr	r3, [r1]
 283              	.LVL33:
 284 00fe CCF80030 		str	r3, [ip]
 285              		.loc 1 199 0
ARM GAS  C:\Users\RAKIBU~1\AppData\Local\Temp\cc5wOhHj.s 			page 6


 286 0102 8946     		mov	r9, r1
 287              	.LVL34:
 288 0104 F2E7     		b	.L18
 289              	.LVL35:
 290              	.L24:
 291 0106 8C46     		mov	ip, r1
 292              	.LVL36:
 293              	.L16:
 294              		.loc 1 196 0
 295 0108 DCF80010 		ldr	r1, [ip]
 296 010c C1B1     		cbz	r1, .L31
 297              	.LVL37:
 298              		.loc 1 202 0
 299 010e 01F1080E 		add	lr, r1, #8
 300 0112 0EEB0403 		add	r3, lr, r4
 301 0116 013B     		subs	r3, r3, #1
 302 0118 6242     		negs	r2, r4
 303 011a 1340     		ands	r3, r3, r2
 304 011c 083B     		subs	r3, r3, #8
 305 011e 9946     		mov	r9, r3
 306              	.LVL38:
 307              		.loc 1 204 0
 308 0120 4868     		ldr	r0, [r1, #4]
 309 0122 421C     		adds	r2, r0, #1
 310 0124 01EBC202 		add	r2, r1, r2, lsl #3
 311 0128 9A42     		cmp	r2, r3
 312 012a ECD9     		bls	.L24
 313              		.loc 1 204 0 is_stmt 0 discriminator 1
 314 012c 03F1080A 		add	r10, r3, #8
 315 0130 A2EB0A02 		sub	r2, r2, r10
 316 0134 D210     		asrs	r2, r2, #3
 317 0136 9246     		mov	r10, r2
 318 0138 AA42     		cmp	r2, r5
 319 013a AFD2     		bcs	.L32
 320 013c 8C46     		mov	ip, r1
 321              	.LVL39:
 322 013e E3E7     		b	.L16
 323              	.LVL40:
 324              	.L31:
 325              		.loc 1 264 0 is_stmt 1
 326 0140 3846     		mov	r0, r7
 327 0142 FFF7FEFF 		bl	chMtxUnlock
 328              	.LVL41:
 329              		.loc 1 268 0
 330 0146 3368     		ldr	r3, [r6]
 331 0148 63B1     		cbz	r3, .L26
 332              		.loc 1 269 0
 333 014a 0822     		movs	r2, #8
 334 014c 2146     		mov	r1, r4
 335 014e E800     		lsls	r0, r5, #3
 336 0150 9847     		blx	r3
 337              	.LVL42:
 338              		.loc 1 272 0
 339 0152 8146     		mov	r9, r0
 340 0154 48B1     		cbz	r0, .L27
 341              	.LVL43:
 342              		.loc 1 274 0
ARM GAS  C:\Users\RAKIBU~1\AppData\Local\Temp\cc5wOhHj.s 			page 7


 343 0156 40F8086C 		str	r6, [r0, #-8]
 344              		.loc 1 275 0
 345 015a 40F8048C 		str	r8, [r0, #-4]
 346              	.LVL44:
 347              	.L11:
 348              		.loc 1 284 0
 349 015e 4846     		mov	r0, r9
 350 0160 BDE8F087 		pop	{r4, r5, r6, r7, r8, r9, r10, pc}
 351              	.LVL45:
 352              	.L26:
 353              		.loc 1 283 0
 354 0164 4FF00009 		mov	r9, #0
 355 0168 F9E7     		b	.L11
 356              	.LVL46:
 357              	.L27:
 358 016a 4FF00009 		mov	r9, #0
 359 016e F6E7     		b	.L11
 360              	.L34:
 361              		.align	2
 362              	.L33:
 363 0170 14000000 		.word	.LANCHOR1+20
 364 0174 00000000 		.word	.LANCHOR0
 365              		.cfi_endproc
 366              	.LFE297:
 367              		.size	chHeapAllocAligned, .-chHeapAllocAligned
 368              		.align	1
 369 0178 AFF30080 		.p2align 4,,15
 369      AFF30080 
 370              		.global	chHeapFree
 371              		.syntax unified
 372              		.thumb
 373              		.thumb_func
 374              		.fpu softvfp
 375              		.type	chHeapFree, %function
 376              	chHeapFree:
 377              	.LFB298:
 378              		.loc 1 293 0
 379              		.cfi_startproc
 380              		@ args = 0, pretend = 0, frame = 0
 381              		@ frame_needed = 0, uses_anonymous_args = 0
 382              	.LVL47:
 383 0180 2DE9F041 		push	{r4, r5, r6, r7, r8, lr}
 384              		.cfi_def_cfa_offset 24
 385              		.cfi_offset 4, -24
 386              		.cfi_offset 5, -20
 387              		.cfi_offset 6, -16
 388              		.cfi_offset 7, -12
 389              		.cfi_offset 8, -8
 390              		.cfi_offset 14, -4
 391              		.loc 1 297 0
 392 0184 0746     		mov	r7, r0
 393 0186 10B1     		cbz	r0, .L36
 394              		.loc 1 297 0 is_stmt 0 discriminator 3
 395 0188 10F0070F 		tst	r0, #7
 396 018c 02D0     		beq	.L37
 397              	.L36:
 398              		.loc 1 297 0 discriminator 4
ARM GAS  C:\Users\RAKIBU~1\AppData\Local\Temp\cc5wOhHj.s 			page 8


 399 018e 2948     		ldr	r0, .L48
 400              	.LVL48:
 401 0190 FFF7FEFF 		bl	chSysHalt
 402              	.LVL49:
 403              	.L37:
 404              		.loc 1 300 0 is_stmt 1
 405 0194 A7F10805 		sub	r5, r7, #8
 406              	.LVL50:
 407              		.loc 1 302 0
 408 0198 57F8082C 		ldr	r2, [r7, #-8]
 409              	.LVL51:
 410              		.loc 1 303 0
 411 019c 161D     		adds	r6, r2, #4
 412              	.LVL52:
 413              		.loc 1 306 0
 414 019e 57F8043C 		ldr	r3, [r7, #-4]
 415 01a2 0733     		adds	r3, r3, #7
 416              		.loc 1 307 0
 417 01a4 DB08     		lsrs	r3, r3, #3
 418              		.loc 1 306 0
 419 01a6 47F8043C 		str	r3, [r7, #-4]
 420              		.loc 1 310 0
 421 01aa 02F10C08 		add	r8, r2, #12
 422 01ae 4046     		mov	r0, r8
 423 01b0 FFF7FEFF 		bl	chMtxLock
 424              	.LVL53:
 425              		.loc 1 303 0
 426 01b4 3446     		mov	r4, r6
 427 01b6 08E0     		b	.L44
 428              	.LVL54:
 429              	.L38:
 430              		.loc 1 315 0
 431 01b8 B442     		cmp	r4, r6
 432 01ba 01D0     		beq	.L39
 433              		.loc 1 315 0 is_stmt 0 discriminator 2
 434 01bc AC42     		cmp	r4, r5
 435 01be 03D2     		bcs	.L40
 436              	.L39:
 437              		.loc 1 316 0 is_stmt 1 discriminator 3
 438 01c0 2368     		ldr	r3, [r4]
 439              		.loc 1 315 0 discriminator 3
 440 01c2 73B1     		cbz	r3, .L41
 441              		.loc 1 316 0
 442 01c4 AB42     		cmp	r3, r5
 443 01c6 0CD8     		bhi	.L41
 444              	.L40:
 445              		.loc 1 333 0
 446 01c8 2468     		ldr	r4, [r4]
 447              	.LVL55:
 448              	.L44:
 449              		.loc 1 313 0 discriminator 1
 450 01ca AC42     		cmp	r4, r5
 451 01cc F4D8     		bhi	.L38
 452              		.loc 1 313 0 is_stmt 0 discriminator 2
 453 01ce 6368     		ldr	r3, [r4, #4]
 454 01d0 0133     		adds	r3, r3, #1
 455 01d2 04EBC303 		add	r3, r4, r3, lsl #3
ARM GAS  C:\Users\RAKIBU~1\AppData\Local\Temp\cc5wOhHj.s 			page 9


 456 01d6 AB42     		cmp	r3, r5
 457 01d8 EED9     		bls	.L38
 458              		.loc 1 313 0 discriminator 3
 459 01da 1648     		ldr	r0, .L48
 460 01dc FFF7FEFF 		bl	chSysHalt
 461              	.LVL56:
 462 01e0 EAE7     		b	.L38
 463              	.L41:
 464              		.loc 1 318 0 is_stmt 1
 465 01e2 47F8083C 		str	r3, [r7, #-8]
 466              		.loc 1 319 0
 467 01e6 2560     		str	r5, [r4]
 468              		.loc 1 321 0
 469 01e8 57F8042C 		ldr	r2, [r7, #-4]
 470 01ec 531C     		adds	r3, r2, #1
 471 01ee 05EBC303 		add	r3, r5, r3, lsl #3
 472 01f2 57F8081C 		ldr	r1, [r7, #-8]
 473 01f6 8B42     		cmp	r3, r1
 474 01f8 0AD0     		beq	.L46
 475              	.L42:
 476              		.loc 1 326 0
 477 01fa 6268     		ldr	r2, [r4, #4]
 478 01fc 531C     		adds	r3, r2, #1
 479 01fe 04EBC303 		add	r3, r4, r3, lsl #3
 480 0202 AB42     		cmp	r3, r5
 481 0204 0DD0     		beq	.L47
 482              	.L43:
 483              		.loc 1 337 0
 484 0206 4046     		mov	r0, r8
 485 0208 FFF7FEFF 		bl	chMtxUnlock
 486              	.LVL57:
 487              		.loc 1 340 0
 488 020c BDE8F081 		pop	{r4, r5, r6, r7, r8, pc}
 489              	.LVL58:
 490              	.L46:
 491              		.loc 1 323 0
 492 0210 4B68     		ldr	r3, [r1, #4]
 493 0212 1A44     		add	r2, r2, r3
 494 0214 0132     		adds	r2, r2, #1
 495 0216 47F8042C 		str	r2, [r7, #-4]
 496              		.loc 1 324 0
 497 021a 0B68     		ldr	r3, [r1]
 498 021c 47F8083C 		str	r3, [r7, #-8]
 499 0220 EBE7     		b	.L42
 500              	.L47:
 501              		.loc 1 328 0
 502 0222 57F8043C 		ldr	r3, [r7, #-4]
 503 0226 1A44     		add	r2, r2, r3
 504 0228 0132     		adds	r2, r2, #1
 505 022a 6260     		str	r2, [r4, #4]
 506              		.loc 1 329 0
 507 022c 57F8083C 		ldr	r3, [r7, #-8]
 508 0230 2360     		str	r3, [r4]
 509 0232 E8E7     		b	.L43
 510              	.L49:
 511              		.align	2
 512              	.L48:
ARM GAS  C:\Users\RAKIBU~1\AppData\Local\Temp\cc5wOhHj.s 			page 10


 513 0234 28000000 		.word	.LANCHOR1+40
 514              		.cfi_endproc
 515              	.LFE298:
 516              		.size	chHeapFree, .-chHeapFree
 517              		.align	1
 518 0238 AFF30080 		.p2align 4,,15
 518      AFF30080 
 519              		.global	chHeapStatus
 520              		.syntax unified
 521              		.thumb
 522              		.thumb_func
 523              		.fpu softvfp
 524              		.type	chHeapStatus, %function
 525              	chHeapStatus:
 526              	.LFB299:
 527              		.loc 1 357 0
 528              		.cfi_startproc
 529              		@ args = 0, pretend = 0, frame = 0
 530              		@ frame_needed = 0, uses_anonymous_args = 0
 531              	.LVL59:
 532 0240 F8B5     		push	{r3, r4, r5, r6, r7, lr}
 533              		.cfi_def_cfa_offset 24
 534              		.cfi_offset 3, -24
 535              		.cfi_offset 4, -20
 536              		.cfi_offset 5, -16
 537              		.cfi_offset 6, -12
 538              		.cfi_offset 7, -8
 539              		.cfi_offset 14, -4
 540 0242 0F46     		mov	r7, r1
 541 0244 1646     		mov	r6, r2
 542              		.loc 1 361 0
 543 0246 0446     		mov	r4, r0
 544 0248 88B1     		cbz	r0, .L60
 545              	.L51:
 546              	.LVL60:
 547              		.loc 1 365 0
 548 024a 04F10C05 		add	r5, r4, #12
 549 024e 2846     		mov	r0, r5
 550 0250 FFF7FEFF 		bl	chMtxLock
 551              	.LVL61:
 552              		.loc 1 369 0
 553 0254 201D     		adds	r0, r4, #4
 554              	.LVL62:
 555              		.loc 1 367 0
 556 0256 0021     		movs	r1, #0
 557              		.loc 1 366 0
 558 0258 0A46     		mov	r2, r1
 559              		.loc 1 368 0
 560 025a 0C46     		mov	r4, r1
 561              	.LVL63:
 562              	.L52:
 563              		.loc 1 370 0
 564 025c 0068     		ldr	r0, [r0]
 565              	.LVL64:
 566 025e 40B1     		cbz	r0, .L61
 567              	.LBB5:
 568              		.loc 1 371 0
ARM GAS  C:\Users\RAKIBU~1\AppData\Local\Temp\cc5wOhHj.s 			page 11


 569 0260 4368     		ldr	r3, [r0, #4]
 570              	.LVL65:
 571              		.loc 1 374 0
 572 0262 0134     		adds	r4, r4, #1
 573              	.LVL66:
 574              		.loc 1 375 0
 575 0264 1A44     		add	r2, r2, r3
 576              	.LVL67:
 577              		.loc 1 376 0
 578 0266 9942     		cmp	r1, r3
 579 0268 F8D2     		bcs	.L52
 580              		.loc 1 377 0
 581 026a 1946     		mov	r1, r3
 582              	.LVL68:
 583 026c F6E7     		b	.L52
 584              	.LVL69:
 585              	.L60:
 586              	.LBE5:
 587              		.loc 1 362 0
 588 026e 064C     		ldr	r4, .L62
 589 0270 EBE7     		b	.L51
 590              	.LVL70:
 591              	.L61:
 592              		.loc 1 384 0
 593 0272 0FB1     		cbz	r7, .L55
 594              		.loc 1 385 0
 595 0274 D200     		lsls	r2, r2, #3
 596              	.LVL71:
 597 0276 3A60     		str	r2, [r7]
 598              	.L55:
 599              		.loc 1 389 0
 600 0278 0EB1     		cbz	r6, .L56
 601              		.loc 1 390 0
 602 027a C900     		lsls	r1, r1, #3
 603              	.LVL72:
 604 027c 3160     		str	r1, [r6]
 605              	.L56:
 606              		.loc 1 392 0
 607 027e 2846     		mov	r0, r5
 608 0280 FFF7FEFF 		bl	chMtxUnlock
 609              	.LVL73:
 610              		.loc 1 395 0
 611 0284 2046     		mov	r0, r4
 612 0286 F8BD     		pop	{r3, r4, r5, r6, r7, pc}
 613              	.LVL74:
 614              	.L63:
 615              		.align	2
 616              	.L62:
 617 0288 00000000 		.word	.LANCHOR0
 618              		.cfi_endproc
 619              	.LFE299:
 620              		.size	chHeapStatus, .-chHeapStatus
 621              		.section	.rodata
 622              		.align	2
 623              		.set	.LANCHOR1,. + 0
 624              		.type	__func__.7113, %object
 625              		.size	__func__.7113, 17
ARM GAS  C:\Users\RAKIBU~1\AppData\Local\Temp\cc5wOhHj.s 			page 12


 626              	__func__.7113:
 627 0000 63684865 		.ascii	"chHeapObjectInit\000"
 627      61704F62 
 627      6A656374 
 627      496E6974 
 627      00
 628 0011 000000   		.space	3
 629              		.type	__func__.7123, %object
 630              		.size	__func__.7123, 19
 631              	__func__.7123:
 632 0014 63684865 		.ascii	"chHeapAllocAligned\000"
 632      6170416C 
 632      6C6F6341 
 632      6C69676E 
 632      656400
 633 0027 00       		.space	1
 634              		.type	__func__.7136, %object
 635              		.size	__func__.7136, 11
 636              	__func__.7136:
 637 0028 63684865 		.ascii	"chHeapFree\000"
 637      61704672 
 637      656500
 638              		.bss
 639              		.align	2
 640              		.set	.LANCHOR0,. + 0
 641              		.type	default_heap, %object
 642              		.size	default_heap, 28
 643              	default_heap:
 644 0000 00000000 		.space	28
 644      00000000 
 644      00000000 
 644      00000000 
 644      00000000 
 645              		.text
 646              	.Letext0:
 647              		.file 2 "c:\\chibistudio\\tools\\gnu tools arm embedded\\7.0 2017q4\\lib\\gcc\\arm-none-eabi\\7.2.
 648              		.file 3 "c:\\chibistudio\\tools\\gnu tools arm embedded\\7.0 2017q4\\arm-none-eabi\\include\\machi
 649              		.file 4 "c:\\chibistudio\\tools\\gnu tools arm embedded\\7.0 2017q4\\arm-none-eabi\\include\\sys\\
 650              		.file 5 "../../../ChibiOSRepo/chibios191/os/common/ports/ARMCMx/compilers/GCC/chtypes.h"
 651              		.file 6 "../../../ChibiOSRepo/chibios191/os/rt/include/chsystypes.h"
 652              		.file 7 "../../../ChibiOSRepo/chibios191/os/rt/include/chschd.h"
 653              		.file 8 "../../../ChibiOSRepo/chibios191/os/rt/include/chtime.h"
 654              		.file 9 "../../../ChibiOSRepo/chibios191/os/common/ext/ARM/CMSIS/Core/Include/core_cm4.h"
 655              		.file 10 "../../../ChibiOSRepo/chibios191/os/common/ext/ST/STM32F4xx/system_stm32f4xx.h"
 656              		.file 11 "../../../ChibiOSRepo/chibios191/os/common/ports/ARMCMx/chcore.h"
 657              		.file 12 "../../../ChibiOSRepo/chibios191/os/common/ports/ARMCMx/chcore_v7m.h"
 658              		.file 13 "../../../ChibiOSRepo/chibios191/os/rt/include/chtrace.h"
 659              		.file 14 "../../../ChibiOSRepo/chibios191/os/rt/include/chtm.h"
 660              		.file 15 "../../../ChibiOSRepo/chibios191/os/rt/include/chstats.h"
 661              		.file 16 "../../../ChibiOSRepo/chibios191/os/rt/include/chsem.h"
 662              		.file 17 "../../../ChibiOSRepo/chibios191/os/rt/include/chmtx.h"
 663              		.file 18 "../../../ChibiOSRepo/chibios191/os/rt/include/chsys.h"
 664              		.file 19 "../../../ChibiOSRepo/chibios191/os/rt/include/chregistry.h"
 665              		.file 20 "../../../ChibiOSRepo/chibios191/os/oslib/include/chmemcore.h"
 666              		.file 21 "../../../ChibiOSRepo/chibios191/os/oslib/include/chmemheaps.h"
 667              		.file 22 "../../../ChibiOSRepo/chibios191/os/oslib/include/chmempools.h"
 668              		.file 23 "../../../ChibiOSRepo/chibios191/os/oslib/include/chfactory.h"
ARM GAS  C:\Users\RAKIBU~1\AppData\Local\Temp\cc5wOhHj.s 			page 13


 669              		.file 24 "../../../ChibiOSRepo/chibios191/os/rt/include/ch.h"
 670              		.section	.debug_info,"",%progbits
 671              	.Ldebug_info0:
 672 0000 AC100000 		.4byte	0x10ac
 673 0004 0400     		.2byte	0x4
 674 0006 00000000 		.4byte	.Ldebug_abbrev0
 675 000a 04       		.byte	0x4
 676 000b 01       		.uleb128 0x1
 677 000c 55040000 		.4byte	.LASF197
 678 0010 0C       		.byte	0xc
 679 0011 CC070000 		.4byte	.LASF198
 680 0015 17080000 		.4byte	.LASF199
 681 0019 00000000 		.4byte	.Ltext0
 682 001d 8C020000 		.4byte	.Letext0-.Ltext0
 683 0021 00000000 		.4byte	.Ldebug_line0
 684 0025 02       		.uleb128 0x2
 685 0026 04       		.byte	0x4
 686 0027 05       		.byte	0x5
 687 0028 696E7400 		.ascii	"int\000"
 688 002c 03       		.uleb128 0x3
 689 002d 14000000 		.4byte	.LASF4
 690 0031 02       		.byte	0x2
 691 0032 D8       		.byte	0xd8
 692 0033 37000000 		.4byte	0x37
 693 0037 04       		.uleb128 0x4
 694 0038 04       		.byte	0x4
 695 0039 07       		.byte	0x7
 696 003a 88020000 		.4byte	.LASF0
 697 003e 04       		.uleb128 0x4
 698 003f 08       		.byte	0x8
 699 0040 05       		.byte	0x5
 700 0041 CB010000 		.4byte	.LASF1
 701 0045 04       		.uleb128 0x4
 702 0046 08       		.byte	0x8
 703 0047 04       		.byte	0x4
 704 0048 0B040000 		.4byte	.LASF2
 705 004c 04       		.uleb128 0x4
 706 004d 01       		.byte	0x1
 707 004e 06       		.byte	0x6
 708 004f 4E010000 		.4byte	.LASF3
 709 0053 03       		.uleb128 0x3
 710 0054 43000000 		.4byte	.LASF5
 711 0058 03       		.byte	0x3
 712 0059 2B       		.byte	0x2b
 713 005a 5E000000 		.4byte	0x5e
 714 005e 04       		.uleb128 0x4
 715 005f 01       		.byte	0x1
 716 0060 08       		.byte	0x8
 717 0061 7F050000 		.4byte	.LASF6
 718 0065 04       		.uleb128 0x4
 719 0066 02       		.byte	0x2
 720 0067 05       		.byte	0x5
 721 0068 A3050000 		.4byte	.LASF7
 722 006c 03       		.uleb128 0x3
 723 006d B4060000 		.4byte	.LASF8
 724 0071 03       		.byte	0x3
 725 0072 39       		.byte	0x39
ARM GAS  C:\Users\RAKIBU~1\AppData\Local\Temp\cc5wOhHj.s 			page 14


 726 0073 77000000 		.4byte	0x77
 727 0077 04       		.uleb128 0x4
 728 0078 02       		.byte	0x2
 729 0079 07       		.byte	0x7
 730 007a 32070000 		.4byte	.LASF9
 731 007e 03       		.uleb128 0x3
 732 007f 90030000 		.4byte	.LASF10
 733 0083 03       		.byte	0x3
 734 0084 4D       		.byte	0x4d
 735 0085 89000000 		.4byte	0x89
 736 0089 04       		.uleb128 0x4
 737 008a 04       		.byte	0x4
 738 008b 05       		.byte	0x5
 739 008c 8C010000 		.4byte	.LASF11
 740 0090 03       		.uleb128 0x3
 741 0091 12020000 		.4byte	.LASF12
 742 0095 03       		.byte	0x3
 743 0096 4F       		.byte	0x4f
 744 0097 9B000000 		.4byte	0x9b
 745 009b 04       		.uleb128 0x4
 746 009c 04       		.byte	0x4
 747 009d 07       		.byte	0x7
 748 009e 7A060000 		.4byte	.LASF13
 749 00a2 03       		.uleb128 0x3
 750 00a3 05050000 		.4byte	.LASF14
 751 00a7 03       		.byte	0x3
 752 00a8 69       		.byte	0x69
 753 00a9 AD000000 		.4byte	0xad
 754 00ad 04       		.uleb128 0x4
 755 00ae 08       		.byte	0x8
 756 00af 07       		.byte	0x7
 757 00b0 AC000000 		.4byte	.LASF15
 758 00b4 03       		.uleb128 0x3
 759 00b5 0F080000 		.4byte	.LASF16
 760 00b9 04       		.byte	0x4
 761 00ba 18       		.byte	0x18
 762 00bb 53000000 		.4byte	0x53
 763 00bf 05       		.uleb128 0x5
 764 00c0 B4000000 		.4byte	0xb4
 765 00c4 03       		.uleb128 0x3
 766 00c5 95020000 		.4byte	.LASF17
 767 00c9 04       		.byte	0x4
 768 00ca 24       		.byte	0x24
 769 00cb 6C000000 		.4byte	0x6c
 770 00cf 03       		.uleb128 0x3
 771 00d0 77050000 		.4byte	.LASF18
 772 00d4 04       		.byte	0x4
 773 00d5 2C       		.byte	0x2c
 774 00d6 7E000000 		.4byte	0x7e
 775 00da 06       		.uleb128 0x6
 776 00db CF000000 		.4byte	0xcf
 777 00df 03       		.uleb128 0x3
 778 00e0 4F060000 		.4byte	.LASF19
 779 00e4 04       		.byte	0x4
 780 00e5 30       		.byte	0x30
 781 00e6 90000000 		.4byte	0x90
 782 00ea 03       		.uleb128 0x3
ARM GAS  C:\Users\RAKIBU~1\AppData\Local\Temp\cc5wOhHj.s 			page 15


 783 00eb 2D000000 		.4byte	.LASF20
 784 00ef 04       		.byte	0x4
 785 00f0 3C       		.byte	0x3c
 786 00f1 A2000000 		.4byte	0xa2
 787 00f5 03       		.uleb128 0x3
 788 00f6 D9030000 		.4byte	.LASF21
 789 00fa 05       		.byte	0x5
 790 00fb 27       		.byte	0x27
 791 00fc DF000000 		.4byte	0xdf
 792 0100 03       		.uleb128 0x3
 793 0101 2E010000 		.4byte	.LASF22
 794 0105 05       		.byte	0x5
 795 0106 28       		.byte	0x28
 796 0107 EA000000 		.4byte	0xea
 797 010b 03       		.uleb128 0x3
 798 010c 4E030000 		.4byte	.LASF23
 799 0110 05       		.byte	0x5
 800 0111 2A       		.byte	0x2a
 801 0112 B4000000 		.4byte	0xb4
 802 0116 03       		.uleb128 0x3
 803 0117 9F010000 		.4byte	.LASF24
 804 011b 05       		.byte	0x5
 805 011c 2B       		.byte	0x2b
 806 011d B4000000 		.4byte	0xb4
 807 0121 03       		.uleb128 0x3
 808 0122 2A050000 		.4byte	.LASF25
 809 0126 05       		.byte	0x5
 810 0127 2C       		.byte	0x2c
 811 0128 B4000000 		.4byte	0xb4
 812 012c 03       		.uleb128 0x3
 813 012d 57050000 		.4byte	.LASF26
 814 0131 05       		.byte	0x5
 815 0132 2E       		.byte	0x2e
 816 0133 DF000000 		.4byte	0xdf
 817 0137 03       		.uleb128 0x3
 818 0138 17030000 		.4byte	.LASF27
 819 013c 05       		.byte	0x5
 820 013d 2F       		.byte	0x2f
 821 013e CF000000 		.4byte	0xcf
 822 0142 03       		.uleb128 0x3
 823 0143 6F030000 		.4byte	.LASF28
 824 0147 05       		.byte	0x5
 825 0148 31       		.byte	0x31
 826 0149 DF000000 		.4byte	0xdf
 827 014d 03       		.uleb128 0x3
 828 014e 79020000 		.4byte	.LASF29
 829 0152 05       		.byte	0x5
 830 0153 33       		.byte	0x33
 831 0154 CF000000 		.4byte	0xcf
 832 0158 03       		.uleb128 0x3
 833 0159 1D030000 		.4byte	.LASF30
 834 015d 05       		.byte	0x5
 835 015e 34       		.byte	0x34
 836 015f DF000000 		.4byte	0xdf
 837 0163 03       		.uleb128 0x3
 838 0164 BF060000 		.4byte	.LASF31
 839 0168 06       		.byte	0x6
ARM GAS  C:\Users\RAKIBU~1\AppData\Local\Temp\cc5wOhHj.s 			page 16


 840 0169 34       		.byte	0x34
 841 016a 6E010000 		.4byte	0x16e
 842 016e 07       		.uleb128 0x7
 843 016f 0D030000 		.4byte	.LASF50
 844 0173 60       		.byte	0x60
 845 0174 07       		.byte	0x7
 846 0175 8E       		.byte	0x8e
 847 0176 59020000 		.4byte	0x259
 848 017a 08       		.uleb128 0x8
 849 017b DD020000 		.4byte	.LASF32
 850 017f 07       		.byte	0x7
 851 0180 8F       		.byte	0x8f
 852 0181 8E020000 		.4byte	0x28e
 853 0185 00       		.byte	0
 854 0186 08       		.uleb128 0x8
 855 0187 EF040000 		.4byte	.LASF33
 856 018b 07       		.byte	0x7
 857 018c 90       		.byte	0x90
 858 018d 2C010000 		.4byte	0x12c
 859 0191 08       		.byte	0x8
 860 0192 09       		.uleb128 0x9
 861 0193 63747800 		.ascii	"ctx\000"
 862 0197 07       		.byte	0x7
 863 0198 91       		.byte	0x91
 864 0199 25050000 		.4byte	0x525
 865 019d 0C       		.byte	0xc
 866 019e 08       		.uleb128 0x8
 867 019f 6E070000 		.4byte	.LASF34
 868 01a3 07       		.byte	0x7
 869 01a4 93       		.byte	0x93
 870 01a5 64020000 		.4byte	0x264
 871 01a9 10       		.byte	0x10
 872 01aa 08       		.uleb128 0x8
 873 01ab A5060000 		.4byte	.LASF35
 874 01af 07       		.byte	0x7
 875 01b0 94       		.byte	0x94
 876 01b1 64020000 		.4byte	0x264
 877 01b5 14       		.byte	0x14
 878 01b6 08       		.uleb128 0x8
 879 01b7 08030000 		.4byte	.LASF36
 880 01bb 07       		.byte	0x7
 881 01bc 9B       		.byte	0x9b
 882 01bd F5050000 		.4byte	0x5f5
 883 01c1 18       		.byte	0x18
 884 01c2 08       		.uleb128 0x8
 885 01c3 8C060000 		.4byte	.LASF37
 886 01c7 07       		.byte	0x7
 887 01c8 A4       		.byte	0xa4
 888 01c9 A4080000 		.4byte	0x8a4
 889 01cd 1C       		.byte	0x1c
 890 01ce 08       		.uleb128 0x8
 891 01cf 86010000 		.4byte	.LASF38
 892 01d3 07       		.byte	0x7
 893 01d4 A9       		.byte	0xa9
 894 01d5 16010000 		.4byte	0x116
 895 01d9 20       		.byte	0x20
 896 01da 08       		.uleb128 0x8
ARM GAS  C:\Users\RAKIBU~1\AppData\Local\Temp\cc5wOhHj.s 			page 17


 897 01db 96080000 		.4byte	.LASF39
 898 01df 07       		.byte	0x7
 899 01e0 AD       		.byte	0xad
 900 01e1 0B010000 		.4byte	0x10b
 901 01e5 21       		.byte	0x21
 902 01e6 08       		.uleb128 0x8
 903 01e7 3D050000 		.4byte	.LASF40
 904 01eb 07       		.byte	0x7
 905 01ec B2       		.byte	0xb2
 906 01ed 21010000 		.4byte	0x121
 907 01f1 22       		.byte	0x22
 908 01f2 0A       		.uleb128 0xa
 909 01f3 7500     		.ascii	"u\000"
 910 01f5 07       		.byte	0x7
 911 01f6 0301     		.2byte	0x103
 912 01f8 DA070000 		.4byte	0x7da
 913 01fc 24       		.byte	0x24
 914 01fd 0B       		.uleb128 0xb
 915 01fe 3F020000 		.4byte	.LASF41
 916 0202 07       		.byte	0x7
 917 0203 0801     		.2byte	0x108
 918 0205 6A020000 		.4byte	0x26a
 919 0209 28       		.byte	0x28
 920 020a 0B       		.uleb128 0xb
 921 020b 7F020000 		.4byte	.LASF42
 922 020f 07       		.byte	0x7
 923 0210 0E01     		.2byte	0x10e
 924 0212 8E020000 		.4byte	0x28e
 925 0216 2C       		.byte	0x2c
 926 0217 0B       		.uleb128 0xb
 927 0218 24030000 		.4byte	.LASF43
 928 021c 07       		.byte	0x7
 929 021d 1401     		.2byte	0x114
 930 021f 42010000 		.4byte	0x142
 931 0223 34       		.byte	0x34
 932 0224 0B       		.uleb128 0xb
 933 0225 EF080000 		.4byte	.LASF44
 934 0229 07       		.byte	0x7
 935 022a 1B01     		.2byte	0x11b
 936 022c 9E080000 		.4byte	0x89e
 937 0230 38       		.byte	0x38
 938 0231 0B       		.uleb128 0xb
 939 0232 BE030000 		.4byte	.LASF45
 940 0236 07       		.byte	0x7
 941 0237 1F01     		.2byte	0x11f
 942 0239 2C010000 		.4byte	0x12c
 943 023d 3C       		.byte	0x3c
 944 023e 0B       		.uleb128 0xb
 945 023f E3020000 		.4byte	.LASF46
 946 0243 07       		.byte	0x7
 947 0244 2601     		.2byte	0x126
 948 0246 41030000 		.4byte	0x341
 949 024a 40       		.byte	0x40
 950 024b 0B       		.uleb128 0xb
 951 024c BE010000 		.4byte	.LASF47
 952 0250 07       		.byte	0x7
 953 0251 2C01     		.2byte	0x12c
ARM GAS  C:\Users\RAKIBU~1\AppData\Local\Temp\cc5wOhHj.s 			page 18


 954 0253 8B070000 		.4byte	0x78b
 955 0257 48       		.byte	0x48
 956 0258 00       		.byte	0
 957 0259 03       		.uleb128 0x3
 958 025a E1030000 		.4byte	.LASF48
 959 025e 06       		.byte	0x6
 960 025f 39       		.byte	0x39
 961 0260 64020000 		.4byte	0x264
 962 0264 0C       		.uleb128 0xc
 963 0265 04       		.byte	0x4
 964 0266 63010000 		.4byte	0x163
 965 026a 03       		.uleb128 0x3
 966 026b AD080000 		.4byte	.LASF49
 967 026f 06       		.byte	0x6
 968 0270 3E       		.byte	0x3e
 969 0271 75020000 		.4byte	0x275
 970 0275 07       		.uleb128 0x7
 971 0276 5F060000 		.4byte	.LASF51
 972 027a 04       		.byte	0x4
 973 027b 07       		.byte	0x7
 974 027c 7C       		.byte	0x7c
 975 027d 8E020000 		.4byte	0x28e
 976 0281 08       		.uleb128 0x8
 977 0282 1B000000 		.4byte	.LASF52
 978 0286 07       		.byte	0x7
 979 0287 7D       		.byte	0x7d
 980 0288 64020000 		.4byte	0x264
 981 028c 00       		.byte	0
 982 028d 00       		.byte	0
 983 028e 03       		.uleb128 0x3
 984 028f A8070000 		.4byte	.LASF53
 985 0293 06       		.byte	0x6
 986 0294 45       		.byte	0x45
 987 0295 99020000 		.4byte	0x299
 988 0299 07       		.uleb128 0x7
 989 029a 11090000 		.4byte	.LASF54
 990 029e 08       		.byte	0x8
 991 029f 07       		.byte	0x7
 992 02a0 83       		.byte	0x83
 993 02a1 BE020000 		.4byte	0x2be
 994 02a5 08       		.uleb128 0x8
 995 02a6 1B000000 		.4byte	.LASF52
 996 02aa 07       		.byte	0x7
 997 02ab 84       		.byte	0x84
 998 02ac 64020000 		.4byte	0x264
 999 02b0 00       		.byte	0
 1000 02b1 08       		.uleb128 0x8
 1001 02b2 4D000000 		.4byte	.LASF55
 1002 02b6 07       		.byte	0x7
 1003 02b7 85       		.byte	0x85
 1004 02b8 64020000 		.4byte	0x264
 1005 02bc 04       		.byte	0x4
 1006 02bd 00       		.byte	0
 1007 02be 03       		.uleb128 0x3
 1008 02bf 07000000 		.4byte	.LASF56
 1009 02c3 06       		.byte	0x6
 1010 02c4 4C       		.byte	0x4c
ARM GAS  C:\Users\RAKIBU~1\AppData\Local\Temp\cc5wOhHj.s 			page 19


 1011 02c5 C9020000 		.4byte	0x2c9
 1012 02c9 0D       		.uleb128 0xd
 1013 02ca 61030000 		.4byte	.LASF57
 1014 02ce 1C       		.byte	0x1c
 1015 02cf 07       		.byte	0x7
 1016 02d0 5E01     		.2byte	0x15e
 1017 02d2 25030000 		.4byte	0x325
 1018 02d6 0B       		.uleb128 0xb
 1019 02d7 DD020000 		.4byte	.LASF32
 1020 02db 07       		.byte	0x7
 1021 02dc 5F01     		.2byte	0x15f
 1022 02de 8E020000 		.4byte	0x28e
 1023 02e2 00       		.byte	0
 1024 02e3 0B       		.uleb128 0xb
 1025 02e4 EF040000 		.4byte	.LASF33
 1026 02e8 07       		.byte	0x7
 1027 02e9 6001     		.2byte	0x160
 1028 02eb 2C010000 		.4byte	0x12c
 1029 02ef 08       		.byte	0x8
 1030 02f0 0A       		.uleb128 0xa
 1031 02f1 63747800 		.ascii	"ctx\000"
 1032 02f5 07       		.byte	0x7
 1033 02f6 6201     		.2byte	0x162
 1034 02f8 25050000 		.4byte	0x525
 1035 02fc 0C       		.byte	0xc
 1036 02fd 0B       		.uleb128 0xb
 1037 02fe 6E070000 		.4byte	.LASF34
 1038 0302 07       		.byte	0x7
 1039 0303 6501     		.2byte	0x165
 1040 0305 64020000 		.4byte	0x264
 1041 0309 10       		.byte	0x10
 1042 030a 0B       		.uleb128 0xb
 1043 030b A5060000 		.4byte	.LASF35
 1044 030f 07       		.byte	0x7
 1045 0310 6601     		.2byte	0x166
 1046 0312 64020000 		.4byte	0x264
 1047 0316 14       		.byte	0x14
 1048 0317 0B       		.uleb128 0xb
 1049 0318 FD040000 		.4byte	.LASF58
 1050 031c 07       		.byte	0x7
 1051 031d 6901     		.2byte	0x169
 1052 031f 64020000 		.4byte	0x264
 1053 0323 18       		.byte	0x18
 1054 0324 00       		.byte	0
 1055 0325 03       		.uleb128 0x3
 1056 0326 E2060000 		.4byte	.LASF59
 1057 032a 06       		.byte	0x6
 1058 032b 51       		.byte	0x51
 1059 032c 30030000 		.4byte	0x330
 1060 0330 0C       		.uleb128 0xc
 1061 0331 04       		.byte	0x4
 1062 0332 36030000 		.4byte	0x336
 1063 0336 0E       		.uleb128 0xe
 1064 0337 41030000 		.4byte	0x341
 1065 033b 0F       		.uleb128 0xf
 1066 033c 41030000 		.4byte	0x341
 1067 0340 00       		.byte	0
ARM GAS  C:\Users\RAKIBU~1\AppData\Local\Temp\cc5wOhHj.s 			page 20


 1068 0341 10       		.uleb128 0x10
 1069 0342 04       		.byte	0x4
 1070 0343 03       		.uleb128 0x3
 1071 0344 42050000 		.4byte	.LASF60
 1072 0348 06       		.byte	0x6
 1073 0349 56       		.byte	0x56
 1074 034a 4E030000 		.4byte	0x34e
 1075 034e 0D       		.uleb128 0xd
 1076 034f FC050000 		.4byte	.LASF61
 1077 0353 18       		.byte	0x18
 1078 0354 07       		.byte	0x7
 1079 0355 3901     		.2byte	0x139
 1080 0357 9D030000 		.4byte	0x39d
 1081 035b 0B       		.uleb128 0xb
 1082 035c 1B000000 		.4byte	.LASF52
 1083 0360 07       		.byte	0x7
 1084 0361 3A01     		.2byte	0x13a
 1085 0363 AA080000 		.4byte	0x8aa
 1086 0367 00       		.byte	0
 1087 0368 0B       		.uleb128 0xb
 1088 0369 4D000000 		.4byte	.LASF55
 1089 036d 07       		.byte	0x7
 1090 036e 3B01     		.2byte	0x13b
 1091 0370 AA080000 		.4byte	0x8aa
 1092 0374 04       		.byte	0x4
 1093 0375 0B       		.uleb128 0xb
 1094 0376 20000000 		.4byte	.LASF62
 1095 037a 07       		.byte	0x7
 1096 037b 3C01     		.2byte	0x13c
 1097 037d AD040000 		.4byte	0x4ad
 1098 0381 08       		.byte	0x8
 1099 0382 0B       		.uleb128 0xb
 1100 0383 B9010000 		.4byte	.LASF63
 1101 0387 07       		.byte	0x7
 1102 0388 3D01     		.2byte	0x13d
 1103 038a 25030000 		.4byte	0x325
 1104 038e 10       		.byte	0x10
 1105 038f 0A       		.uleb128 0xa
 1106 0390 70617200 		.ascii	"par\000"
 1107 0394 07       		.byte	0x7
 1108 0395 3F01     		.2byte	0x13f
 1109 0397 41030000 		.4byte	0x341
 1110 039b 14       		.byte	0x14
 1111 039c 00       		.byte	0
 1112 039d 03       		.uleb128 0x3
 1113 039e F1000000 		.4byte	.LASF64
 1114 03a2 06       		.byte	0x6
 1115 03a3 5B       		.byte	0x5b
 1116 03a4 A8030000 		.4byte	0x3a8
 1117 03a8 0D       		.uleb128 0xd
 1118 03a9 F4030000 		.4byte	.LASF65
 1119 03ad 18       		.byte	0x18
 1120 03ae 07       		.byte	0x7
 1121 03af 4901     		.2byte	0x149
 1122 03b1 EA030000 		.4byte	0x3ea
 1123 03b5 0B       		.uleb128 0xb
 1124 03b6 1B000000 		.4byte	.LASF52
ARM GAS  C:\Users\RAKIBU~1\AppData\Local\Temp\cc5wOhHj.s 			page 21


 1125 03ba 07       		.byte	0x7
 1126 03bb 4A01     		.2byte	0x14a
 1127 03bd AA080000 		.4byte	0x8aa
 1128 03c1 00       		.byte	0
 1129 03c2 0B       		.uleb128 0xb
 1130 03c3 4D000000 		.4byte	.LASF55
 1131 03c7 07       		.byte	0x7
 1132 03c8 4C01     		.2byte	0x14c
 1133 03ca AA080000 		.4byte	0x8aa
 1134 03ce 04       		.byte	0x4
 1135 03cf 0B       		.uleb128 0xb
 1136 03d0 20000000 		.4byte	.LASF62
 1137 03d4 07       		.byte	0x7
 1138 03d5 4E01     		.2byte	0x14e
 1139 03d7 AD040000 		.4byte	0x4ad
 1140 03db 08       		.byte	0x8
 1141 03dc 0B       		.uleb128 0xb
 1142 03dd AD050000 		.4byte	.LASF66
 1143 03e1 07       		.byte	0x7
 1144 03e2 5601     		.2byte	0x156
 1145 03e4 A2040000 		.4byte	0x4a2
 1146 03e8 10       		.byte	0x10
 1147 03e9 00       		.byte	0
 1148 03ea 03       		.uleb128 0x3
 1149 03eb 64000000 		.4byte	.LASF67
 1150 03ef 06       		.byte	0x6
 1151 03f0 60       		.byte	0x60
 1152 03f1 F5030000 		.4byte	0x3f5
 1153 03f5 11       		.uleb128 0x11
 1154 03f6 2F020000 		.4byte	.LASF68
 1155 03fa 1408     		.2byte	0x814
 1156 03fc 07       		.byte	0x7
 1157 03fd 7001     		.2byte	0x170
 1158 03ff 38040000 		.4byte	0x438
 1159 0403 0B       		.uleb128 0xb
 1160 0404 FB060000 		.4byte	.LASF69
 1161 0408 07       		.byte	0x7
 1162 0409 7801     		.2byte	0x178
 1163 040b FB050000 		.4byte	0x5fb
 1164 040f 00       		.byte	0
 1165 0410 0B       		.uleb128 0xb
 1166 0411 C4070000 		.4byte	.LASF70
 1167 0415 07       		.byte	0x7
 1168 0416 7D01     		.2byte	0x17d
 1169 0418 4D010000 		.4byte	0x14d
 1170 041c 04       		.byte	0x4
 1171 041d 0B       		.uleb128 0xb
 1172 041e 62020000 		.4byte	.LASF71
 1173 0422 07       		.byte	0x7
 1174 0423 8101     		.2byte	0x181
 1175 0425 4D010000 		.4byte	0x14d
 1176 0429 08       		.byte	0x8
 1177 042a 0B       		.uleb128 0xb
 1178 042b C6080000 		.4byte	.LASF72
 1179 042f 07       		.byte	0x7
 1180 0430 8701     		.2byte	0x187
 1181 0432 1D070000 		.4byte	0x71d
ARM GAS  C:\Users\RAKIBU~1\AppData\Local\Temp\cc5wOhHj.s 			page 22


 1182 0436 0C       		.byte	0xc
 1183 0437 00       		.byte	0
 1184 0438 03       		.uleb128 0x3
 1185 0439 4A070000 		.4byte	.LASF73
 1186 043d 06       		.byte	0x6
 1187 043e 65       		.byte	0x65
 1188 043f 43040000 		.4byte	0x443
 1189 0443 11       		.uleb128 0x11
 1190 0444 CE050000 		.4byte	.LASF74
 1191 0448 F008     		.2byte	0x8f0
 1192 044a 07       		.byte	0x7
 1193 044b 9001     		.2byte	0x190
 1194 044d A2040000 		.4byte	0x4a2
 1195 0451 0B       		.uleb128 0xb
 1196 0452 6E010000 		.4byte	.LASF75
 1197 0456 07       		.byte	0x7
 1198 0457 9401     		.2byte	0x194
 1199 0459 BE020000 		.4byte	0x2be
 1200 045d 00       		.byte	0
 1201 045e 0B       		.uleb128 0xb
 1202 045f 7F010000 		.4byte	.LASF76
 1203 0463 07       		.byte	0x7
 1204 0464 9801     		.2byte	0x198
 1205 0466 9D030000 		.4byte	0x39d
 1206 046a 20       		.byte	0x20
 1207 046b 0A       		.uleb128 0xa
 1208 046c 64626700 		.ascii	"dbg\000"
 1209 0470 07       		.byte	0x7
 1210 0471 9C01     		.2byte	0x19c
 1211 0473 EA030000 		.4byte	0x3ea
 1212 0477 38       		.byte	0x38
 1213 0478 12       		.uleb128 0x12
 1214 0479 DE000000 		.4byte	.LASF77
 1215 047d 07       		.byte	0x7
 1216 047e A001     		.2byte	0x1a0
 1217 0480 63010000 		.4byte	0x163
 1218 0484 5008     		.2byte	0x850
 1219 0486 13       		.uleb128 0x13
 1220 0487 746D00   		.ascii	"tm\000"
 1221 048a 07       		.byte	0x7
 1222 048b A501     		.2byte	0x1a5
 1223 048d 3D070000 		.4byte	0x73d
 1224 0491 B008     		.2byte	0x8b0
 1225 0493 12       		.uleb128 0x12
 1226 0494 36000000 		.4byte	.LASF78
 1227 0498 07       		.byte	0x7
 1228 0499 AB01     		.2byte	0x1ab
 1229 049b CF070000 		.4byte	0x7cf
 1230 049f B808     		.2byte	0x8b8
 1231 04a1 00       		.byte	0
 1232 04a2 03       		.uleb128 0x3
 1233 04a3 D8060000 		.4byte	.LASF79
 1234 04a7 08       		.byte	0x8
 1235 04a8 6D       		.byte	0x6d
 1236 04a9 DF000000 		.4byte	0xdf
 1237 04ad 03       		.uleb128 0x3
 1238 04ae 6B020000 		.4byte	.LASF80
ARM GAS  C:\Users\RAKIBU~1\AppData\Local\Temp\cc5wOhHj.s 			page 23


 1239 04b2 08       		.byte	0x8
 1240 04b3 77       		.byte	0x77
 1241 04b4 EA000000 		.4byte	0xea
 1242 04b8 14       		.uleb128 0x14
 1243 04b9 07010000 		.4byte	.LASF81
 1244 04bd 09       		.byte	0x9
 1245 04be 0408     		.2byte	0x804
 1246 04c0 DA000000 		.4byte	0xda
 1247 04c4 15       		.uleb128 0x15
 1248 04c5 9E020000 		.4byte	.LASF82
 1249 04c9 0A       		.byte	0xa
 1250 04ca 4C       		.byte	0x4c
 1251 04cb DF000000 		.4byte	0xdf
 1252 04cf 16       		.uleb128 0x16
 1253 04d0 BF000000 		.4byte	0xbf
 1254 04d4 DF040000 		.4byte	0x4df
 1255 04d8 17       		.uleb128 0x17
 1256 04d9 37000000 		.4byte	0x37
 1257 04dd 0F       		.byte	0xf
 1258 04de 00       		.byte	0
 1259 04df 05       		.uleb128 0x5
 1260 04e0 CF040000 		.4byte	0x4cf
 1261 04e4 15       		.uleb128 0x15
 1262 04e5 7B030000 		.4byte	.LASF83
 1263 04e9 0A       		.byte	0xa
 1264 04ea 4E       		.byte	0x4e
 1265 04eb DF040000 		.4byte	0x4df
 1266 04ef 16       		.uleb128 0x16
 1267 04f0 BF000000 		.4byte	0xbf
 1268 04f4 FF040000 		.4byte	0x4ff
 1269 04f8 17       		.uleb128 0x17
 1270 04f9 37000000 		.4byte	0x37
 1271 04fd 07       		.byte	0x7
 1272 04fe 00       		.byte	0
 1273 04ff 05       		.uleb128 0x5
 1274 0500 EF040000 		.4byte	0x4ef
 1275 0504 15       		.uleb128 0x15
 1276 0505 47020000 		.4byte	.LASF84
 1277 0509 0A       		.byte	0xa
 1278 050a 4F       		.byte	0x4f
 1279 050b FF040000 		.4byte	0x4ff
 1280 050f 03       		.uleb128 0x3
 1281 0510 1D020000 		.4byte	.LASF85
 1282 0514 0B       		.byte	0xb
 1283 0515 65       		.byte	0x65
 1284 0516 41030000 		.4byte	0x341
 1285 051a 03       		.uleb128 0x3
 1286 051b 9A030000 		.4byte	.LASF86
 1287 051f 0B       		.byte	0xb
 1288 0520 6D       		.byte	0x6d
 1289 0521 EA000000 		.4byte	0xea
 1290 0525 07       		.uleb128 0x7
 1291 0526 37040000 		.4byte	.LASF87
 1292 052a 04       		.byte	0x4
 1293 052b 0B       		.byte	0xb
 1294 052c 89       		.byte	0x89
 1295 052d 3D050000 		.4byte	0x53d
ARM GAS  C:\Users\RAKIBU~1\AppData\Local\Temp\cc5wOhHj.s 			page 24


 1296 0531 09       		.uleb128 0x9
 1297 0532 737000   		.ascii	"sp\000"
 1298 0535 0B       		.byte	0xb
 1299 0536 8A       		.byte	0x8a
 1300 0537 B9050000 		.4byte	0x5b9
 1301 053b 00       		.byte	0
 1302 053c 00       		.byte	0
 1303 053d 0D       		.uleb128 0xd
 1304 053e 52000000 		.4byte	.LASF88
 1305 0542 24       		.byte	0x24
 1306 0543 0C       		.byte	0xc
 1307 0544 6001     		.2byte	0x160
 1308 0546 B9050000 		.4byte	0x5b9
 1309 054a 0A       		.uleb128 0xa
 1310 054b 723400   		.ascii	"r4\000"
 1311 054e 0C       		.byte	0xc
 1312 054f 7301     		.2byte	0x173
 1313 0551 0F050000 		.4byte	0x50f
 1314 0555 00       		.byte	0
 1315 0556 0A       		.uleb128 0xa
 1316 0557 723500   		.ascii	"r5\000"
 1317 055a 0C       		.byte	0xc
 1318 055b 7401     		.2byte	0x174
 1319 055d 0F050000 		.4byte	0x50f
 1320 0561 04       		.byte	0x4
 1321 0562 0A       		.uleb128 0xa
 1322 0563 723600   		.ascii	"r6\000"
 1323 0566 0C       		.byte	0xc
 1324 0567 7501     		.2byte	0x175
 1325 0569 0F050000 		.4byte	0x50f
 1326 056d 08       		.byte	0x8
 1327 056e 0A       		.uleb128 0xa
 1328 056f 723700   		.ascii	"r7\000"
 1329 0572 0C       		.byte	0xc
 1330 0573 7601     		.2byte	0x176
 1331 0575 0F050000 		.4byte	0x50f
 1332 0579 0C       		.byte	0xc
 1333 057a 0A       		.uleb128 0xa
 1334 057b 723800   		.ascii	"r8\000"
 1335 057e 0C       		.byte	0xc
 1336 057f 7701     		.2byte	0x177
 1337 0581 0F050000 		.4byte	0x50f
 1338 0585 10       		.byte	0x10
 1339 0586 0A       		.uleb128 0xa
 1340 0587 723900   		.ascii	"r9\000"
 1341 058a 0C       		.byte	0xc
 1342 058b 7801     		.2byte	0x178
 1343 058d 0F050000 		.4byte	0x50f
 1344 0591 14       		.byte	0x14
 1345 0592 0A       		.uleb128 0xa
 1346 0593 72313000 		.ascii	"r10\000"
 1347 0597 0C       		.byte	0xc
 1348 0598 7901     		.2byte	0x179
 1349 059a 0F050000 		.4byte	0x50f
 1350 059e 18       		.byte	0x18
 1351 059f 0A       		.uleb128 0xa
 1352 05a0 72313100 		.ascii	"r11\000"
ARM GAS  C:\Users\RAKIBU~1\AppData\Local\Temp\cc5wOhHj.s 			page 25


 1353 05a4 0C       		.byte	0xc
 1354 05a5 7A01     		.2byte	0x17a
 1355 05a7 0F050000 		.4byte	0x50f
 1356 05ab 1C       		.byte	0x1c
 1357 05ac 0A       		.uleb128 0xa
 1358 05ad 6C7200   		.ascii	"lr\000"
 1359 05b0 0C       		.byte	0xc
 1360 05b1 7B01     		.2byte	0x17b
 1361 05b3 0F050000 		.4byte	0x50f
 1362 05b7 20       		.byte	0x20
 1363 05b8 00       		.byte	0
 1364 05b9 0C       		.uleb128 0xc
 1365 05ba 04       		.byte	0x4
 1366 05bb 3D050000 		.4byte	0x53d
 1367 05bf 18       		.uleb128 0x18
 1368 05c0 08       		.byte	0x8
 1369 05c1 0D       		.byte	0xd
 1370 05c2 7F       		.byte	0x7f
 1371 05c3 E0050000 		.4byte	0x5e0
 1372 05c7 09       		.uleb128 0x9
 1373 05c8 6E747000 		.ascii	"ntp\000"
 1374 05cc 0D       		.byte	0xd
 1375 05cd 83       		.byte	0x83
 1376 05ce 64020000 		.4byte	0x264
 1377 05d2 00       		.byte	0
 1378 05d3 08       		.uleb128 0x8
 1379 05d4 A6080000 		.4byte	.LASF89
 1380 05d8 0D       		.byte	0xd
 1381 05d9 87       		.byte	0x87
 1382 05da 41030000 		.4byte	0x341
 1383 05de 04       		.byte	0x4
 1384 05df 00       		.byte	0
 1385 05e0 18       		.uleb128 0x18
 1386 05e1 04       		.byte	0x4
 1387 05e2 0D       		.byte	0xd
 1388 05e3 8C       		.byte	0x8c
 1389 05e4 F5050000 		.4byte	0x5f5
 1390 05e8 08       		.uleb128 0x8
 1391 05e9 08030000 		.4byte	.LASF36
 1392 05ed 0D       		.byte	0xd
 1393 05ee 90       		.byte	0x90
 1394 05ef F5050000 		.4byte	0x5f5
 1395 05f3 00       		.byte	0
 1396 05f4 00       		.byte	0
 1397 05f5 0C       		.uleb128 0xc
 1398 05f6 04       		.byte	0x4
 1399 05f7 07060000 		.4byte	0x607
 1400 05fb 06       		.uleb128 0x6
 1401 05fc F5050000 		.4byte	0x5f5
 1402 0600 04       		.uleb128 0x4
 1403 0601 01       		.byte	0x1
 1404 0602 08       		.byte	0x8
 1405 0603 A0060000 		.4byte	.LASF90
 1406 0607 05       		.uleb128 0x5
 1407 0608 00060000 		.4byte	0x600
 1408 060c 18       		.uleb128 0x18
 1409 060d 04       		.byte	0x4
ARM GAS  C:\Users\RAKIBU~1\AppData\Local\Temp\cc5wOhHj.s 			page 26


 1410 060e 0D       		.byte	0xd
 1411 060f 95       		.byte	0x95
 1412 0610 21060000 		.4byte	0x621
 1413 0614 08       		.uleb128 0x8
 1414 0615 F5050000 		.4byte	.LASF91
 1415 0619 0D       		.byte	0xd
 1416 061a 99       		.byte	0x99
 1417 061b F5050000 		.4byte	0x5f5
 1418 061f 00       		.byte	0
 1419 0620 00       		.byte	0
 1420 0621 18       		.uleb128 0x18
 1421 0622 08       		.byte	0x8
 1422 0623 0D       		.byte	0xd
 1423 0624 9E       		.byte	0x9e
 1424 0625 42060000 		.4byte	0x642
 1425 0629 09       		.uleb128 0x9
 1426 062a 75703100 		.ascii	"up1\000"
 1427 062e 0D       		.byte	0xd
 1428 062f A2       		.byte	0xa2
 1429 0630 41030000 		.4byte	0x341
 1430 0634 00       		.byte	0
 1431 0635 09       		.uleb128 0x9
 1432 0636 75703200 		.ascii	"up2\000"
 1433 063a 0D       		.byte	0xd
 1434 063b A6       		.byte	0xa6
 1435 063c 41030000 		.4byte	0x341
 1436 0640 04       		.byte	0x4
 1437 0641 00       		.byte	0
 1438 0642 19       		.uleb128 0x19
 1439 0643 08       		.byte	0x8
 1440 0644 0D       		.byte	0xd
 1441 0645 7B       		.byte	0x7b
 1442 0646 76060000 		.4byte	0x676
 1443 064a 1A       		.uleb128 0x1a
 1444 064b 737700   		.ascii	"sw\000"
 1445 064e 0D       		.byte	0xd
 1446 064f 88       		.byte	0x88
 1447 0650 BF050000 		.4byte	0x5bf
 1448 0654 1A       		.uleb128 0x1a
 1449 0655 69737200 		.ascii	"isr\000"
 1450 0659 0D       		.byte	0xd
 1451 065a 91       		.byte	0x91
 1452 065b E0050000 		.4byte	0x5e0
 1453 065f 1B       		.uleb128 0x1b
 1454 0660 B6050000 		.4byte	.LASF92
 1455 0664 0D       		.byte	0xd
 1456 0665 9A       		.byte	0x9a
 1457 0666 0C060000 		.4byte	0x60c
 1458 066a 1B       		.uleb128 0x1b
 1459 066b 52050000 		.4byte	.LASF93
 1460 066f 0D       		.byte	0xd
 1461 0670 A7       		.byte	0xa7
 1462 0671 21060000 		.4byte	0x621
 1463 0675 00       		.byte	0
 1464 0676 18       		.uleb128 0x18
 1465 0677 10       		.byte	0x10
 1466 0678 0D       		.byte	0xd
ARM GAS  C:\Users\RAKIBU~1\AppData\Local\Temp\cc5wOhHj.s 			page 27


 1467 0679 68       		.byte	0x68
 1468 067a C2060000 		.4byte	0x6c2
 1469 067e 1C       		.uleb128 0x1c
 1470 067f 85000000 		.4byte	.LASF94
 1471 0683 0D       		.byte	0xd
 1472 0684 6C       		.byte	0x6c
 1473 0685 DF000000 		.4byte	0xdf
 1474 0689 04       		.byte	0x4
 1475 068a 03       		.byte	0x3
 1476 068b 1D       		.byte	0x1d
 1477 068c 00       		.byte	0
 1478 068d 1C       		.uleb128 0x1c
 1479 068e 86010000 		.4byte	.LASF38
 1480 0692 0D       		.byte	0xd
 1481 0693 70       		.byte	0x70
 1482 0694 DF000000 		.4byte	0xdf
 1483 0698 04       		.byte	0x4
 1484 0699 05       		.byte	0x5
 1485 069a 18       		.byte	0x18
 1486 069b 00       		.byte	0
 1487 069c 1C       		.uleb128 0x1c
 1488 069d B6030000 		.4byte	.LASF95
 1489 06a1 0D       		.byte	0xd
 1490 06a2 76       		.byte	0x76
 1491 06a3 DF000000 		.4byte	0xdf
 1492 06a7 04       		.byte	0x4
 1493 06a8 18       		.byte	0x18
 1494 06a9 00       		.byte	0
 1495 06aa 00       		.byte	0
 1496 06ab 08       		.uleb128 0x8
 1497 06ac EA040000 		.4byte	.LASF96
 1498 06b0 0D       		.byte	0xd
 1499 06b1 7A       		.byte	0x7a
 1500 06b2 A2040000 		.4byte	0x4a2
 1501 06b6 04       		.byte	0x4
 1502 06b7 09       		.uleb128 0x9
 1503 06b8 7500     		.ascii	"u\000"
 1504 06ba 0D       		.byte	0xd
 1505 06bb A8       		.byte	0xa8
 1506 06bc 42060000 		.4byte	0x642
 1507 06c0 08       		.byte	0x8
 1508 06c1 00       		.byte	0
 1509 06c2 03       		.uleb128 0x3
 1510 06c3 A8010000 		.4byte	.LASF97
 1511 06c7 0D       		.byte	0xd
 1512 06c8 A9       		.byte	0xa9
 1513 06c9 76060000 		.4byte	0x676
 1514 06cd 1D       		.uleb128 0x1d
 1515 06ce 0808     		.2byte	0x808
 1516 06d0 0D       		.byte	0xd
 1517 06d1 AF       		.byte	0xaf
 1518 06d2 07070000 		.4byte	0x707
 1519 06d6 08       		.uleb128 0x8
 1520 06d7 95010000 		.4byte	.LASF98
 1521 06db 0D       		.byte	0xd
 1522 06dc B3       		.byte	0xb3
 1523 06dd C4000000 		.4byte	0xc4
ARM GAS  C:\Users\RAKIBU~1\AppData\Local\Temp\cc5wOhHj.s 			page 28


 1524 06e1 00       		.byte	0
 1525 06e2 08       		.uleb128 0x8
 1526 06e3 69010000 		.4byte	.LASF99
 1527 06e7 0D       		.byte	0xd
 1528 06e8 B7       		.byte	0xb7
 1529 06e9 C4000000 		.4byte	0xc4
 1530 06ed 02       		.byte	0x2
 1531 06ee 09       		.uleb128 0x9
 1532 06ef 70747200 		.ascii	"ptr\000"
 1533 06f3 0D       		.byte	0xd
 1534 06f4 BB       		.byte	0xbb
 1535 06f5 07070000 		.4byte	0x707
 1536 06f9 04       		.byte	0x4
 1537 06fa 08       		.uleb128 0x8
 1538 06fb FD010000 		.4byte	.LASF100
 1539 06ff 0D       		.byte	0xd
 1540 0700 BF       		.byte	0xbf
 1541 0701 0D070000 		.4byte	0x70d
 1542 0705 08       		.byte	0x8
 1543 0706 00       		.byte	0
 1544 0707 0C       		.uleb128 0xc
 1545 0708 04       		.byte	0x4
 1546 0709 C2060000 		.4byte	0x6c2
 1547 070d 16       		.uleb128 0x16
 1548 070e C2060000 		.4byte	0x6c2
 1549 0712 1D070000 		.4byte	0x71d
 1550 0716 17       		.uleb128 0x17
 1551 0717 37000000 		.4byte	0x37
 1552 071b 7F       		.byte	0x7f
 1553 071c 00       		.byte	0
 1554 071d 03       		.uleb128 0x3
 1555 071e C3000000 		.4byte	.LASF101
 1556 0722 0D       		.byte	0xd
 1557 0723 C0       		.byte	0xc0
 1558 0724 CD060000 		.4byte	0x6cd
 1559 0728 18       		.uleb128 0x18
 1560 0729 04       		.byte	0x4
 1561 072a 0E       		.byte	0xe
 1562 072b 38       		.byte	0x38
 1563 072c 3D070000 		.4byte	0x73d
 1564 0730 08       		.uleb128 0x8
 1565 0731 05070000 		.4byte	.LASF102
 1566 0735 0E       		.byte	0xe
 1567 0736 3C       		.byte	0x3c
 1568 0737 F5000000 		.4byte	0xf5
 1569 073b 00       		.byte	0
 1570 073c 00       		.byte	0
 1571 073d 03       		.uleb128 0x3
 1572 073e 44040000 		.4byte	.LASF103
 1573 0742 0E       		.byte	0xe
 1574 0743 3D       		.byte	0x3d
 1575 0744 28070000 		.4byte	0x728
 1576 0748 18       		.uleb128 0x18
 1577 0749 18       		.byte	0x18
 1578 074a 0E       		.byte	0xe
 1579 074b 48       		.byte	0x48
 1580 074c 8B070000 		.4byte	0x78b
ARM GAS  C:\Users\RAKIBU~1\AppData\Local\Temp\cc5wOhHj.s 			page 29


 1581 0750 08       		.uleb128 0x8
 1582 0751 C8060000 		.4byte	.LASF104
 1583 0755 0E       		.byte	0xe
 1584 0756 49       		.byte	0x49
 1585 0757 F5000000 		.4byte	0xf5
 1586 075b 00       		.byte	0
 1587 075c 08       		.uleb128 0x8
 1588 075d 93000000 		.4byte	.LASF105
 1589 0761 0E       		.byte	0xe
 1590 0762 4A       		.byte	0x4a
 1591 0763 F5000000 		.4byte	0xf5
 1592 0767 04       		.byte	0x4
 1593 0768 08       		.uleb128 0x8
 1594 0769 C4020000 		.4byte	.LASF106
 1595 076d 0E       		.byte	0xe
 1596 076e 4B       		.byte	0x4b
 1597 076f F5000000 		.4byte	0xf5
 1598 0773 08       		.byte	0x8
 1599 0774 09       		.uleb128 0x9
 1600 0775 6E00     		.ascii	"n\000"
 1601 0777 0E       		.byte	0xe
 1602 0778 4C       		.byte	0x4c
 1603 0779 58010000 		.4byte	0x158
 1604 077d 0C       		.byte	0xc
 1605 077e 08       		.uleb128 0x8
 1606 077f 1A050000 		.4byte	.LASF107
 1607 0783 0E       		.byte	0xe
 1608 0784 4D       		.byte	0x4d
 1609 0785 00010000 		.4byte	0x100
 1610 0789 10       		.byte	0x10
 1611 078a 00       		.byte	0
 1612 078b 03       		.uleb128 0x3
 1613 078c 99000000 		.4byte	.LASF108
 1614 0790 0E       		.byte	0xe
 1615 0791 4E       		.byte	0x4e
 1616 0792 48070000 		.4byte	0x748
 1617 0796 18       		.uleb128 0x18
 1618 0797 38       		.byte	0x38
 1619 0798 0F       		.byte	0xf
 1620 0799 38       		.byte	0x38
 1621 079a CF070000 		.4byte	0x7cf
 1622 079e 08       		.uleb128 0x8
 1623 079f D7020000 		.4byte	.LASF109
 1624 07a3 0F       		.byte	0xf
 1625 07a4 39       		.byte	0x39
 1626 07a5 58010000 		.4byte	0x158
 1627 07a9 00       		.byte	0
 1628 07aa 08       		.uleb128 0x8
 1629 07ab 68050000 		.4byte	.LASF110
 1630 07af 0F       		.byte	0xf
 1631 07b0 3A       		.byte	0x3a
 1632 07b1 58010000 		.4byte	0x158
 1633 07b5 04       		.byte	0x4
 1634 07b6 08       		.uleb128 0x8
 1635 07b7 F7080000 		.4byte	.LASF111
 1636 07bb 0F       		.byte	0xf
 1637 07bc 3B       		.byte	0x3b
ARM GAS  C:\Users\RAKIBU~1\AppData\Local\Temp\cc5wOhHj.s 			page 30


 1638 07bd 8B070000 		.4byte	0x78b
 1639 07c1 08       		.byte	0x8
 1640 07c2 08       		.uleb128 0x8
 1641 07c3 56030000 		.4byte	.LASF112
 1642 07c7 0F       		.byte	0xf
 1643 07c8 3D       		.byte	0x3d
 1644 07c9 8B070000 		.4byte	0x78b
 1645 07cd 20       		.byte	0x20
 1646 07ce 00       		.byte	0
 1647 07cf 03       		.uleb128 0x3
 1648 07d0 F9020000 		.4byte	.LASF113
 1649 07d4 0F       		.byte	0xf
 1650 07d5 3F       		.byte	0x3f
 1651 07d6 96070000 		.4byte	0x796
 1652 07da 19       		.uleb128 0x19
 1653 07db 04       		.byte	0x4
 1654 07dc 07       		.byte	0x7
 1655 07dd C6       		.byte	0xc6
 1656 07de 3C080000 		.4byte	0x83c
 1657 07e2 1B       		.uleb128 0x1b
 1658 07e3 26000000 		.4byte	.LASF114
 1659 07e7 07       		.byte	0x7
 1660 07e8 CD       		.byte	0xcd
 1661 07e9 37010000 		.4byte	0x137
 1662 07ed 1B       		.uleb128 0x1b
 1663 07ee D5000000 		.4byte	.LASF115
 1664 07f2 07       		.byte	0x7
 1665 07f3 D4       		.byte	0xd4
 1666 07f4 37010000 		.4byte	0x137
 1667 07f8 1B       		.uleb128 0x1b
 1668 07f9 A6080000 		.4byte	.LASF89
 1669 07fd 07       		.byte	0x7
 1670 07fe DB       		.byte	0xdb
 1671 07ff 41030000 		.4byte	0x341
 1672 0803 1B       		.uleb128 0x1b
 1673 0804 B5020000 		.4byte	.LASF116
 1674 0808 07       		.byte	0x7
 1675 0809 E2       		.byte	0xe2
 1676 080a 3C080000 		.4byte	0x83c
 1677 080e 1B       		.uleb128 0x1b
 1678 080f E9000000 		.4byte	.LASF117
 1679 0813 07       		.byte	0x7
 1680 0814 E7       		.byte	0xe7
 1681 0815 37010000 		.4byte	0x137
 1682 0819 1B       		.uleb128 0x1b
 1683 081a AE020000 		.4byte	.LASF118
 1684 081e 07       		.byte	0x7
 1685 081f F0       		.byte	0xf0
 1686 0820 67080000 		.4byte	0x867
 1687 0824 1B       		.uleb128 0x1b
 1688 0825 58060000 		.4byte	.LASF119
 1689 0829 07       		.byte	0x7
 1690 082a F9       		.byte	0xf9
 1691 082b 9E080000 		.4byte	0x89e
 1692 082f 1E       		.uleb128 0x1e
 1693 0830 C7050000 		.4byte	.LASF120
 1694 0834 07       		.byte	0x7
ARM GAS  C:\Users\RAKIBU~1\AppData\Local\Temp\cc5wOhHj.s 			page 31


 1695 0835 0101     		.2byte	0x101
 1696 0837 42010000 		.4byte	0x142
 1697 083b 00       		.byte	0
 1698 083c 0C       		.uleb128 0xc
 1699 083d 04       		.byte	0x4
 1700 083e 59020000 		.4byte	0x259
 1701 0842 07       		.uleb128 0x7
 1702 0843 0D060000 		.4byte	.LASF121
 1703 0847 0C       		.byte	0xc
 1704 0848 10       		.byte	0x10
 1705 0849 34       		.byte	0x34
 1706 084a 67080000 		.4byte	0x867
 1707 084e 08       		.uleb128 0x8
 1708 084f DD020000 		.4byte	.LASF32
 1709 0853 10       		.byte	0x10
 1710 0854 35       		.byte	0x35
 1711 0855 8E020000 		.4byte	0x28e
 1712 0859 00       		.byte	0
 1713 085a 09       		.uleb128 0x9
 1714 085b 636E7400 		.ascii	"cnt\000"
 1715 085f 10       		.byte	0x10
 1716 0860 37       		.byte	0x37
 1717 0861 4D010000 		.4byte	0x14d
 1718 0865 08       		.byte	0x8
 1719 0866 00       		.byte	0
 1720 0867 0C       		.uleb128 0xc
 1721 0868 04       		.byte	0x4
 1722 0869 42080000 		.4byte	0x842
 1723 086d 07       		.uleb128 0x7
 1724 086e 1F070000 		.4byte	.LASF122
 1725 0872 10       		.byte	0x10
 1726 0873 11       		.byte	0x11
 1727 0874 39       		.byte	0x39
 1728 0875 9E080000 		.4byte	0x89e
 1729 0879 08       		.uleb128 0x8
 1730 087a DD020000 		.4byte	.LASF32
 1731 087e 11       		.byte	0x11
 1732 087f 3A       		.byte	0x3a
 1733 0880 8E020000 		.4byte	0x28e
 1734 0884 00       		.byte	0
 1735 0885 08       		.uleb128 0x8
 1736 0886 6F060000 		.4byte	.LASF123
 1737 088a 11       		.byte	0x11
 1738 088b 3C       		.byte	0x3c
 1739 088c 64020000 		.4byte	0x264
 1740 0890 08       		.byte	0x8
 1741 0891 08       		.uleb128 0x8
 1742 0892 1B000000 		.4byte	.LASF52
 1743 0896 11       		.byte	0x11
 1744 0897 3E       		.byte	0x3e
 1745 0898 E9090000 		.4byte	0x9e9
 1746 089c 0C       		.byte	0xc
 1747 089d 00       		.byte	0
 1748 089e 0C       		.uleb128 0xc
 1749 089f 04       		.byte	0x4
 1750 08a0 6D080000 		.4byte	0x86d
 1751 08a4 0C       		.uleb128 0xc
ARM GAS  C:\Users\RAKIBU~1\AppData\Local\Temp\cc5wOhHj.s 			page 32


 1752 08a5 04       		.byte	0x4
 1753 08a6 1A050000 		.4byte	0x51a
 1754 08aa 0C       		.uleb128 0xc
 1755 08ab 04       		.byte	0x4
 1756 08ac 43030000 		.4byte	0x343
 1757 08b0 1F       		.uleb128 0x1f
 1758 08b1 636800   		.ascii	"ch\000"
 1759 08b4 07       		.byte	0x7
 1760 08b5 C701     		.2byte	0x1c7
 1761 08b7 38040000 		.4byte	0x438
 1762 08bb 16       		.uleb128 0x16
 1763 08bc 1A050000 		.4byte	0x51a
 1764 08c0 C6080000 		.4byte	0x8c6
 1765 08c4 20       		.uleb128 0x20
 1766 08c5 00       		.byte	0
 1767 08c6 14       		.uleb128 0x14
 1768 08c7 23060000 		.4byte	.LASF124
 1769 08cb 12       		.byte	0x12
 1770 08cc 1701     		.2byte	0x117
 1771 08ce BB080000 		.4byte	0x8bb
 1772 08d2 18       		.uleb128 0x18
 1773 08d3 16       		.byte	0x16
 1774 08d4 13       		.byte	0x13
 1775 08d5 34       		.byte	0x34
 1776 08d6 B3090000 		.4byte	0x9b3
 1777 08da 08       		.uleb128 0x8
 1778 08db 56070000 		.4byte	.LASF125
 1779 08df 13       		.byte	0x13
 1780 08e0 35       		.byte	0x35
 1781 08e1 B3090000 		.4byte	0x9b3
 1782 08e5 00       		.byte	0
 1783 08e6 08       		.uleb128 0x8
 1784 08e7 55020000 		.4byte	.LASF126
 1785 08eb 13       		.byte	0x13
 1786 08ec 36       		.byte	0x36
 1787 08ed B4000000 		.4byte	0xb4
 1788 08f1 04       		.byte	0x4
 1789 08f2 08       		.uleb128 0x8
 1790 08f3 69010000 		.4byte	.LASF99
 1791 08f7 13       		.byte	0x13
 1792 08f8 37       		.byte	0x37
 1793 08f9 B4000000 		.4byte	0xb4
 1794 08fd 05       		.byte	0x5
 1795 08fe 08       		.uleb128 0x8
 1796 08ff C7030000 		.4byte	.LASF127
 1797 0903 13       		.byte	0x13
 1798 0904 38       		.byte	0x38
 1799 0905 C4000000 		.4byte	0xc4
 1800 0909 06       		.byte	0x6
 1801 090a 08       		.uleb128 0x8
 1802 090b 8D070000 		.4byte	.LASF128
 1803 090f 13       		.byte	0x13
 1804 0910 39       		.byte	0x39
 1805 0911 B4000000 		.4byte	0xb4
 1806 0915 08       		.byte	0x8
 1807 0916 08       		.uleb128 0x8
 1808 0917 35060000 		.4byte	.LASF129
ARM GAS  C:\Users\RAKIBU~1\AppData\Local\Temp\cc5wOhHj.s 			page 33


 1809 091b 13       		.byte	0x13
 1810 091c 3A       		.byte	0x3a
 1811 091d B4000000 		.4byte	0xb4
 1812 0921 09       		.byte	0x9
 1813 0922 08       		.uleb128 0x8
 1814 0923 32050000 		.4byte	.LASF130
 1815 0927 13       		.byte	0x13
 1816 0928 3B       		.byte	0x3b
 1817 0929 B4000000 		.4byte	0xb4
 1818 092d 0A       		.byte	0xa
 1819 092e 08       		.uleb128 0x8
 1820 092f 8D050000 		.4byte	.LASF131
 1821 0933 13       		.byte	0x13
 1822 0934 3C       		.byte	0x3c
 1823 0935 B4000000 		.4byte	0xb4
 1824 0939 0B       		.byte	0xb
 1825 093a 08       		.uleb128 0x8
 1826 093b 46030000 		.4byte	.LASF132
 1827 093f 13       		.byte	0x13
 1828 0940 3D       		.byte	0x3d
 1829 0941 B4000000 		.4byte	0xb4
 1830 0945 0C       		.byte	0xc
 1831 0946 08       		.uleb128 0x8
 1832 0947 23040000 		.4byte	.LASF133
 1833 094b 13       		.byte	0x13
 1834 094c 3E       		.byte	0x3e
 1835 094d B4000000 		.4byte	0xb4
 1836 0951 0D       		.byte	0xd
 1837 0952 08       		.uleb128 0x8
 1838 0953 28070000 		.4byte	.LASF134
 1839 0957 13       		.byte	0x13
 1840 0958 3F       		.byte	0x3f
 1841 0959 B4000000 		.4byte	0xb4
 1842 095d 0E       		.byte	0xe
 1843 095e 08       		.uleb128 0x8
 1844 095f 06080000 		.4byte	.LASF135
 1845 0963 13       		.byte	0x13
 1846 0964 40       		.byte	0x40
 1847 0965 B4000000 		.4byte	0xb4
 1848 0969 0F       		.byte	0xf
 1849 096a 08       		.uleb128 0x8
 1850 096b 96050000 		.4byte	.LASF136
 1851 096f 13       		.byte	0x13
 1852 0970 41       		.byte	0x41
 1853 0971 B4000000 		.4byte	0xb4
 1854 0975 10       		.byte	0x10
 1855 0976 08       		.uleb128 0x8
 1856 0977 BC080000 		.4byte	.LASF137
 1857 097b 13       		.byte	0x13
 1858 097c 42       		.byte	0x42
 1859 097d B4000000 		.4byte	0xb4
 1860 0981 11       		.byte	0x11
 1861 0982 08       		.uleb128 0x8
 1862 0983 E5080000 		.4byte	.LASF138
 1863 0987 13       		.byte	0x13
 1864 0988 43       		.byte	0x43
 1865 0989 B4000000 		.4byte	0xb4
ARM GAS  C:\Users\RAKIBU~1\AppData\Local\Temp\cc5wOhHj.s 			page 34


 1866 098d 12       		.byte	0x12
 1867 098e 08       		.uleb128 0x8
 1868 098f F0020000 		.4byte	.LASF139
 1869 0993 13       		.byte	0x13
 1870 0994 44       		.byte	0x44
 1871 0995 B4000000 		.4byte	0xb4
 1872 0999 13       		.byte	0x13
 1873 099a 08       		.uleb128 0x8
 1874 099b F1010000 		.4byte	.LASF140
 1875 099f 13       		.byte	0x13
 1876 09a0 45       		.byte	0x45
 1877 09a1 B4000000 		.4byte	0xb4
 1878 09a5 14       		.byte	0x14
 1879 09a6 08       		.uleb128 0x8
 1880 09a7 1A060000 		.4byte	.LASF141
 1881 09ab 13       		.byte	0x13
 1882 09ac 46       		.byte	0x46
 1883 09ad B4000000 		.4byte	0xb4
 1884 09b1 15       		.byte	0x15
 1885 09b2 00       		.byte	0
 1886 09b3 16       		.uleb128 0x16
 1887 09b4 00060000 		.4byte	0x600
 1888 09b8 C3090000 		.4byte	0x9c3
 1889 09bc 17       		.uleb128 0x17
 1890 09bd 37000000 		.4byte	0x37
 1891 09c1 03       		.byte	0x3
 1892 09c2 00       		.byte	0
 1893 09c3 03       		.uleb128 0x3
 1894 09c4 E7010000 		.4byte	.LASF142
 1895 09c8 13       		.byte	0x13
 1896 09c9 47       		.byte	0x47
 1897 09ca D2080000 		.4byte	0x8d2
 1898 09ce 05       		.uleb128 0x5
 1899 09cf C3090000 		.4byte	0x9c3
 1900 09d3 15       		.uleb128 0x15
 1901 09d4 BB020000 		.4byte	.LASF143
 1902 09d8 13       		.byte	0x13
 1903 09d9 6C       		.byte	0x6c
 1904 09da CE090000 		.4byte	0x9ce
 1905 09de 03       		.uleb128 0x3
 1906 09df 5A020000 		.4byte	.LASF144
 1907 09e3 11       		.byte	0x11
 1908 09e4 34       		.byte	0x34
 1909 09e5 6D080000 		.4byte	0x86d
 1910 09e9 0C       		.uleb128 0xc
 1911 09ea 04       		.byte	0x4
 1912 09eb DE090000 		.4byte	0x9de
 1913 09ef 04       		.uleb128 0x4
 1914 09f0 01       		.byte	0x1
 1915 09f1 02       		.byte	0x2
 1916 09f2 71050000 		.4byte	.LASF145
 1917 09f6 03       		.uleb128 0x3
 1918 09f7 61070000 		.4byte	.LASF146
 1919 09fb 14       		.byte	0x14
 1920 09fc 47       		.byte	0x47
 1921 09fd 010A0000 		.4byte	0xa01
 1922 0a01 0C       		.uleb128 0xc
ARM GAS  C:\Users\RAKIBU~1\AppData\Local\Temp\cc5wOhHj.s 			page 35


 1923 0a02 04       		.byte	0x4
 1924 0a03 070A0000 		.4byte	0xa07
 1925 0a07 21       		.uleb128 0x21
 1926 0a08 41030000 		.4byte	0x341
 1927 0a0c 1B0A0000 		.4byte	0xa1b
 1928 0a10 0F       		.uleb128 0xf
 1929 0a11 2C000000 		.4byte	0x2c
 1930 0a15 0F       		.uleb128 0xf
 1931 0a16 37000000 		.4byte	0x37
 1932 0a1a 00       		.byte	0
 1933 0a1b 03       		.uleb128 0x3
 1934 0a1c D9010000 		.4byte	.LASF147
 1935 0a20 14       		.byte	0x14
 1936 0a21 4C       		.byte	0x4c
 1937 0a22 260A0000 		.4byte	0xa26
 1938 0a26 0C       		.uleb128 0xc
 1939 0a27 04       		.byte	0x4
 1940 0a28 2C0A0000 		.4byte	0xa2c
 1941 0a2c 21       		.uleb128 0x21
 1942 0a2d 41030000 		.4byte	0x341
 1943 0a31 450A0000 		.4byte	0xa45
 1944 0a35 0F       		.uleb128 0xf
 1945 0a36 2C000000 		.4byte	0x2c
 1946 0a3a 0F       		.uleb128 0xf
 1947 0a3b 37000000 		.4byte	0x37
 1948 0a3f 0F       		.uleb128 0xf
 1949 0a40 2C000000 		.4byte	0x2c
 1950 0a44 00       		.byte	0
 1951 0a45 18       		.uleb128 0x18
 1952 0a46 08       		.byte	0x8
 1953 0a47 14       		.byte	0x14
 1954 0a48 51       		.byte	0x51
 1955 0a49 660A0000 		.4byte	0xa66
 1956 0a4d 08       		.uleb128 0x8
 1957 0a4e 09090000 		.4byte	.LASF148
 1958 0a52 14       		.byte	0x14
 1959 0a53 55       		.byte	0x55
 1960 0a54 660A0000 		.4byte	0xa66
 1961 0a58 00       		.byte	0
 1962 0a59 08       		.uleb128 0x8
 1963 0a5a 89030000 		.4byte	.LASF149
 1964 0a5e 14       		.byte	0x14
 1965 0a5f 59       		.byte	0x59
 1966 0a60 660A0000 		.4byte	0xa66
 1967 0a64 04       		.byte	0x4
 1968 0a65 00       		.byte	0
 1969 0a66 0C       		.uleb128 0xc
 1970 0a67 04       		.byte	0x4
 1971 0a68 B4000000 		.4byte	0xb4
 1972 0a6c 03       		.uleb128 0x3
 1973 0a6d 10050000 		.4byte	.LASF150
 1974 0a71 14       		.byte	0x14
 1975 0a72 5A       		.byte	0x5a
 1976 0a73 450A0000 		.4byte	0xa45
 1977 0a77 15       		.uleb128 0x15
 1978 0a78 CD060000 		.4byte	.LASF151
 1979 0a7c 14       		.byte	0x14
ARM GAS  C:\Users\RAKIBU~1\AppData\Local\Temp\cc5wOhHj.s 			page 36


 1980 0a7d 65       		.byte	0x65
 1981 0a7e 6C0A0000 		.4byte	0xa6c
 1982 0a82 03       		.uleb128 0x3
 1983 0a83 38030000 		.4byte	.LASF152
 1984 0a87 15       		.byte	0x15
 1985 0a88 48       		.byte	0x48
 1986 0a89 8D0A0000 		.4byte	0xa8d
 1987 0a8d 07       		.uleb128 0x7
 1988 0a8e 22090000 		.4byte	.LASF153
 1989 0a92 1C       		.byte	0x1c
 1990 0a93 15       		.byte	0x15
 1991 0a94 60       		.byte	0x60
 1992 0a95 BE0A0000 		.4byte	0xabe
 1993 0a99 08       		.uleb128 0x8
 1994 0a9a 7C000000 		.4byte	.LASF154
 1995 0a9e 15       		.byte	0x15
 1996 0a9f 61       		.byte	0x61
 1997 0aa0 1B0A0000 		.4byte	0xa1b
 1998 0aa4 00       		.byte	0
 1999 0aa5 08       		.uleb128 0x8
 2000 0aa6 02090000 		.4byte	.LASF155
 2001 0aaa 15       		.byte	0x15
 2002 0aab 63       		.byte	0x63
 2003 0aac BE0A0000 		.4byte	0xabe
 2004 0ab0 04       		.byte	0x4
 2005 0ab1 09       		.uleb128 0x9
 2006 0ab2 6D747800 		.ascii	"mtx\000"
 2007 0ab6 15       		.byte	0x15
 2008 0ab7 65       		.byte	0x65
 2009 0ab8 DE090000 		.4byte	0x9de
 2010 0abc 0C       		.byte	0xc
 2011 0abd 00       		.byte	0
 2012 0abe 03       		.uleb128 0x3
 2013 0abf 04020000 		.4byte	.LASF156
 2014 0ac3 15       		.byte	0x15
 2015 0ac4 4D       		.byte	0x4d
 2016 0ac5 C90A0000 		.4byte	0xac9
 2017 0ac9 22       		.uleb128 0x22
 2018 0aca BB050000 		.4byte	.LASF200
 2019 0ace 08       		.byte	0x8
 2020 0acf 15       		.byte	0x15
 2021 0ad0 52       		.byte	0x52
 2022 0ad1 EC0A0000 		.4byte	0xaec
 2023 0ad5 1B       		.uleb128 0x1b
 2024 0ad6 45070000 		.4byte	.LASF157
 2025 0ada 15       		.byte	0x15
 2026 0adb 56       		.byte	0x56
 2027 0adc EC0A0000 		.4byte	0xaec
 2028 0ae0 1B       		.uleb128 0x1b
 2029 0ae1 25050000 		.4byte	.LASF158
 2030 0ae5 15       		.byte	0x15
 2031 0ae6 5A       		.byte	0x5a
 2032 0ae7 130B0000 		.4byte	0xb13
 2033 0aeb 00       		.byte	0
 2034 0aec 18       		.uleb128 0x18
 2035 0aed 08       		.byte	0x8
 2036 0aee 15       		.byte	0x15
ARM GAS  C:\Users\RAKIBU~1\AppData\Local\Temp\cc5wOhHj.s 			page 37


 2037 0aef 53       		.byte	0x53
 2038 0af0 0D0B0000 		.4byte	0xb0d
 2039 0af4 08       		.uleb128 0x8
 2040 0af5 1B000000 		.4byte	.LASF52
 2041 0af9 15       		.byte	0x15
 2042 0afa 54       		.byte	0x54
 2043 0afb 0D0B0000 		.4byte	0xb0d
 2044 0aff 00       		.byte	0
 2045 0b00 08       		.uleb128 0x8
 2046 0b01 5E000000 		.4byte	.LASF159
 2047 0b05 15       		.byte	0x15
 2048 0b06 55       		.byte	0x55
 2049 0b07 2C000000 		.4byte	0x2c
 2050 0b0b 04       		.byte	0x4
 2051 0b0c 00       		.byte	0
 2052 0b0d 0C       		.uleb128 0xc
 2053 0b0e 04       		.byte	0x4
 2054 0b0f BE0A0000 		.4byte	0xabe
 2055 0b13 18       		.uleb128 0x18
 2056 0b14 08       		.byte	0x8
 2057 0b15 15       		.byte	0x15
 2058 0b16 57       		.byte	0x57
 2059 0b17 340B0000 		.4byte	0xb34
 2060 0b1b 08       		.uleb128 0x8
 2061 0b1c 75060000 		.4byte	.LASF160
 2062 0b20 15       		.byte	0x15
 2063 0b21 58       		.byte	0x58
 2064 0b22 340B0000 		.4byte	0xb34
 2065 0b26 00       		.byte	0
 2066 0b27 08       		.uleb128 0x8
 2067 0b28 69010000 		.4byte	.LASF99
 2068 0b2c 15       		.byte	0x15
 2069 0b2d 59       		.byte	0x59
 2070 0b2e 2C000000 		.4byte	0x2c
 2071 0b32 04       		.byte	0x4
 2072 0b33 00       		.byte	0
 2073 0b34 0C       		.uleb128 0xc
 2074 0b35 04       		.byte	0x4
 2075 0b36 820A0000 		.4byte	0xa82
 2076 0b3a 07       		.uleb128 0x7
 2077 0b3b B8070000 		.4byte	.LASF161
 2078 0b3f 04       		.byte	0x4
 2079 0b40 16       		.byte	0x16
 2080 0b41 38       		.byte	0x38
 2081 0b42 530B0000 		.4byte	0xb53
 2082 0b46 08       		.uleb128 0x8
 2083 0b47 1B000000 		.4byte	.LASF52
 2084 0b4b 16       		.byte	0x16
 2085 0b4c 39       		.byte	0x39
 2086 0b4d 530B0000 		.4byte	0xb53
 2087 0b51 00       		.byte	0
 2088 0b52 00       		.byte	0
 2089 0b53 0C       		.uleb128 0xc
 2090 0b54 04       		.byte	0x4
 2091 0b55 3A0B0000 		.4byte	0xb3a
 2092 0b59 18       		.uleb128 0x18
 2093 0b5a 10       		.byte	0x10
ARM GAS  C:\Users\RAKIBU~1\AppData\Local\Temp\cc5wOhHj.s 			page 38


 2094 0b5b 16       		.byte	0x16
 2095 0b5c 40       		.byte	0x40
 2096 0b5d 920B0000 		.4byte	0xb92
 2097 0b61 08       		.uleb128 0x8
 2098 0b62 1B000000 		.4byte	.LASF52
 2099 0b66 16       		.byte	0x16
 2100 0b67 41       		.byte	0x41
 2101 0b68 530B0000 		.4byte	0xb53
 2102 0b6c 00       		.byte	0
 2103 0b6d 08       		.uleb128 0x8
 2104 0b6e 74070000 		.4byte	.LASF162
 2105 0b72 16       		.byte	0x16
 2106 0b73 42       		.byte	0x42
 2107 0b74 2C000000 		.4byte	0x2c
 2108 0b78 04       		.byte	0x4
 2109 0b79 08       		.uleb128 0x8
 2110 0b7a 28010000 		.4byte	.LASF163
 2111 0b7e 16       		.byte	0x16
 2112 0b7f 44       		.byte	0x44
 2113 0b80 37000000 		.4byte	0x37
 2114 0b84 08       		.byte	0x8
 2115 0b85 08       		.uleb128 0x8
 2116 0b86 7C000000 		.4byte	.LASF154
 2117 0b8a 16       		.byte	0x16
 2118 0b8b 45       		.byte	0x45
 2119 0b8c F6090000 		.4byte	0x9f6
 2120 0b90 0C       		.byte	0xc
 2121 0b91 00       		.byte	0
 2122 0b92 03       		.uleb128 0x3
 2123 0b93 C9020000 		.4byte	.LASF164
 2124 0b97 16       		.byte	0x16
 2125 0b98 47       		.byte	0x47
 2126 0b99 590B0000 		.4byte	0xb59
 2127 0b9d 07       		.uleb128 0x7
 2128 0b9e 5A010000 		.4byte	.LASF165
 2129 0ba2 10       		.byte	0x10
 2130 0ba3 17       		.byte	0x17
 2131 0ba4 A9       		.byte	0xa9
 2132 0ba5 CE0B0000 		.4byte	0xbce
 2133 0ba9 08       		.uleb128 0x8
 2134 0baa 1B000000 		.4byte	.LASF52
 2135 0bae 17       		.byte	0x17
 2136 0baf AD       		.byte	0xad
 2137 0bb0 CE0B0000 		.4byte	0xbce
 2138 0bb4 00       		.byte	0
 2139 0bb5 08       		.uleb128 0x8
 2140 0bb6 3D050000 		.4byte	.LASF40
 2141 0bba 17       		.byte	0x17
 2142 0bbb B1       		.byte	0xb1
 2143 0bbc 58010000 		.4byte	0x158
 2144 0bc0 04       		.byte	0x4
 2145 0bc1 08       		.uleb128 0x8
 2146 0bc2 08030000 		.4byte	.LASF36
 2147 0bc6 17       		.byte	0x17
 2148 0bc7 B3       		.byte	0xb3
 2149 0bc8 D40B0000 		.4byte	0xbd4
 2150 0bcc 08       		.byte	0x8
ARM GAS  C:\Users\RAKIBU~1\AppData\Local\Temp\cc5wOhHj.s 			page 39


 2151 0bcd 00       		.byte	0
 2152 0bce 0C       		.uleb128 0xc
 2153 0bcf 04       		.byte	0x4
 2154 0bd0 9D0B0000 		.4byte	0xb9d
 2155 0bd4 16       		.uleb128 0x16
 2156 0bd5 00060000 		.4byte	0x600
 2157 0bd9 E40B0000 		.4byte	0xbe4
 2158 0bdd 17       		.uleb128 0x17
 2159 0bde 37000000 		.4byte	0x37
 2160 0be2 07       		.byte	0x7
 2161 0be3 00       		.byte	0
 2162 0be4 03       		.uleb128 0x3
 2163 0be5 1A010000 		.4byte	.LASF166
 2164 0be9 17       		.byte	0x17
 2165 0bea B7       		.byte	0xb7
 2166 0beb 9D0B0000 		.4byte	0xb9d
 2167 0bef 07       		.uleb128 0x7
 2168 0bf0 17040000 		.4byte	.LASF167
 2169 0bf4 04       		.byte	0x4
 2170 0bf5 17       		.byte	0x17
 2171 0bf6 BC       		.byte	0xbc
 2172 0bf7 080C0000 		.4byte	0xc08
 2173 0bfb 08       		.uleb128 0x8
 2174 0bfc 1B000000 		.4byte	.LASF52
 2175 0c00 17       		.byte	0x17
 2176 0c01 BD       		.byte	0xbd
 2177 0c02 080C0000 		.4byte	0xc08
 2178 0c06 00       		.byte	0
 2179 0c07 00       		.byte	0
 2180 0c08 0C       		.uleb128 0xc
 2181 0c09 04       		.byte	0x4
 2182 0c0a E40B0000 		.4byte	0xbe4
 2183 0c0e 03       		.uleb128 0x3
 2184 0c0f 2D030000 		.4byte	.LASF168
 2185 0c13 17       		.byte	0x17
 2186 0c14 BE       		.byte	0xbe
 2187 0c15 EF0B0000 		.4byte	0xbef
 2188 0c19 0D       		.uleb128 0xd
 2189 0c1a 95070000 		.4byte	.LASF169
 2190 0c1e 48       		.byte	0x48
 2191 0c1f 17       		.byte	0x17
 2192 0c20 3E01     		.2byte	0x13e
 2193 0c22 9C0C0000 		.4byte	0xc9c
 2194 0c26 0A       		.uleb128 0xa
 2195 0c27 6D747800 		.ascii	"mtx\000"
 2196 0c2b 17       		.byte	0x17
 2197 0c2c 4301     		.2byte	0x143
 2198 0c2e DE090000 		.4byte	0x9de
 2199 0c32 00       		.byte	0
 2200 0c33 0B       		.uleb128 0xb
 2201 0c34 AB060000 		.4byte	.LASF170
 2202 0c38 17       		.byte	0x17
 2203 0c39 4A01     		.2byte	0x14a
 2204 0c3b 0E0C0000 		.4byte	0xc0e
 2205 0c3f 10       		.byte	0x10
 2206 0c40 0B       		.uleb128 0xb
 2207 0c41 EC050000 		.4byte	.LASF171
ARM GAS  C:\Users\RAKIBU~1\AppData\Local\Temp\cc5wOhHj.s 			page 40


 2208 0c45 17       		.byte	0x17
 2209 0c46 4E01     		.2byte	0x14e
 2210 0c48 920B0000 		.4byte	0xb92
 2211 0c4c 14       		.byte	0x14
 2212 0c4d 0B       		.uleb128 0xb
 2213 0c4e 5F050000 		.4byte	.LASF172
 2214 0c52 17       		.byte	0x17
 2215 0c53 5301     		.2byte	0x153
 2216 0c55 0E0C0000 		.4byte	0xc0e
 2217 0c59 24       		.byte	0x24
 2218 0c5a 0B       		.uleb128 0xb
 2219 0c5b 8A000000 		.4byte	.LASF173
 2220 0c5f 17       		.byte	0x17
 2221 0c60 5901     		.2byte	0x159
 2222 0c62 0E0C0000 		.4byte	0xc0e
 2223 0c66 28       		.byte	0x28
 2224 0c67 0B       		.uleb128 0xb
 2225 0c68 F4040000 		.4byte	.LASF174
 2226 0c6c 17       		.byte	0x17
 2227 0c6d 5D01     		.2byte	0x15d
 2228 0c6f 920B0000 		.4byte	0xb92
 2229 0c73 2C       		.byte	0x2c
 2230 0c74 0B       		.uleb128 0xb
 2231 0c75 26020000 		.4byte	.LASF175
 2232 0c79 17       		.byte	0x17
 2233 0c7a 6301     		.2byte	0x163
 2234 0c7c 0E0C0000 		.4byte	0xc0e
 2235 0c80 3C       		.byte	0x3c
 2236 0c81 0B       		.uleb128 0xb
 2237 0c82 9C080000 		.4byte	.LASF176
 2238 0c86 17       		.byte	0x17
 2239 0c87 6901     		.2byte	0x169
 2240 0c89 0E0C0000 		.4byte	0xc0e
 2241 0c8d 40       		.byte	0x40
 2242 0c8e 0B       		.uleb128 0xb
 2243 0c8f 45060000 		.4byte	.LASF177
 2244 0c93 17       		.byte	0x17
 2245 0c94 6F01     		.2byte	0x16f
 2246 0c96 0E0C0000 		.4byte	0xc0e
 2247 0c9a 44       		.byte	0x44
 2248 0c9b 00       		.byte	0
 2249 0c9c 23       		.uleb128 0x23
 2250 0c9d D3080000 		.4byte	.LASF178
 2251 0ca1 17       		.byte	0x17
 2252 0ca2 7101     		.2byte	0x171
 2253 0ca4 190C0000 		.4byte	0xc19
 2254 0ca8 14       		.uleb128 0x14
 2255 0ca9 E1050000 		.4byte	.LASF179
 2256 0cad 17       		.byte	0x17
 2257 0cae 7C01     		.2byte	0x17c
 2258 0cb0 9C0C0000 		.4byte	0xc9c
 2259 0cb4 24       		.uleb128 0x24
 2260 0cb5 93060000 		.4byte	.LASF183
 2261 0cb9 01       		.byte	0x1
 2262 0cba 5C       		.byte	0x5c
 2263 0cbb 820A0000 		.4byte	0xa82
 2264 0cbf 05       		.uleb128 0x5
ARM GAS  C:\Users\RAKIBU~1\AppData\Local\Temp\cc5wOhHj.s 			page 41


 2265 0cc0 03       		.byte	0x3
 2266 0cc1 00000000 		.4byte	default_heap
 2267 0cc5 25       		.uleb128 0x25
 2268 0cc6 80070000 		.4byte	.LASF186
 2269 0cca 01       		.byte	0x1
 2270 0ccb 6501     		.2byte	0x165
 2271 0ccd 2C000000 		.4byte	0x2c
 2272 0cd1 40020000 		.4byte	.LFB299
 2273 0cd5 4C000000 		.4byte	.LFE299-.LFB299
 2274 0cd9 01       		.uleb128 0x1
 2275 0cda 9C       		.byte	0x9c
 2276 0cdb 8F0D0000 		.4byte	0xd8f
 2277 0cdf 26       		.uleb128 0x26
 2278 0ce0 14010000 		.4byte	.LASF180
 2279 0ce4 01       		.byte	0x1
 2280 0ce5 6501     		.2byte	0x165
 2281 0ce7 340B0000 		.4byte	0xb34
 2282 0ceb 00000000 		.4byte	.LLST17
 2283 0cef 26       		.uleb128 0x26
 2284 0cf0 00000000 		.4byte	.LASF181
 2285 0cf4 01       		.byte	0x1
 2286 0cf5 6501     		.2byte	0x165
 2287 0cf7 8F0D0000 		.4byte	0xd8f
 2288 0cfb 43000000 		.4byte	.LLST18
 2289 0cff 26       		.uleb128 0x26
 2290 0d00 73000000 		.4byte	.LASF182
 2291 0d04 01       		.byte	0x1
 2292 0d05 6501     		.2byte	0x165
 2293 0d07 8F0D0000 		.4byte	0xd8f
 2294 0d0b 85000000 		.4byte	.LLST19
 2295 0d0f 27       		.uleb128 0x27
 2296 0d10 717000   		.ascii	"qp\000"
 2297 0d13 01       		.byte	0x1
 2298 0d14 6601     		.2byte	0x166
 2299 0d16 0D0B0000 		.4byte	0xb0d
 2300 0d1a C7000000 		.4byte	.LLST20
 2301 0d1e 27       		.uleb128 0x27
 2302 0d1f 6E00     		.ascii	"n\000"
 2303 0d21 01       		.byte	0x1
 2304 0d22 6701     		.2byte	0x167
 2305 0d24 2C000000 		.4byte	0x2c
 2306 0d28 DA000000 		.4byte	.LLST21
 2307 0d2c 28       		.uleb128 0x28
 2308 0d2d 3E060000 		.4byte	.LASF184
 2309 0d31 01       		.byte	0x1
 2310 0d32 6701     		.2byte	0x167
 2311 0d34 2C000000 		.4byte	0x2c
 2312 0d38 0F010000 		.4byte	.LLST22
 2313 0d3c 28       		.uleb128 0x28
 2314 0d3d E9020000 		.4byte	.LASF185
 2315 0d41 01       		.byte	0x1
 2316 0d42 6701     		.2byte	0x167
 2317 0d44 2C000000 		.4byte	0x2c
 2318 0d48 39010000 		.4byte	.LLST23
 2319 0d4c 29       		.uleb128 0x29
 2320 0d4d 60020000 		.4byte	.LBB5
 2321 0d51 0E000000 		.4byte	.LBE5-.LBB5
ARM GAS  C:\Users\RAKIBU~1\AppData\Local\Temp\cc5wOhHj.s 			page 42


 2322 0d55 6A0D0000 		.4byte	0xd6a
 2323 0d59 28       		.uleb128 0x28
 2324 0d5a 5E000000 		.4byte	.LASF159
 2325 0d5e 01       		.byte	0x1
 2326 0d5f 7301     		.2byte	0x173
 2327 0d61 2C000000 		.4byte	0x2c
 2328 0d65 63010000 		.4byte	.LLST24
 2329 0d69 00       		.byte	0
 2330 0d6a 2A       		.uleb128 0x2a
 2331 0d6b 54020000 		.4byte	.LVL61
 2332 0d6f 83100000 		.4byte	0x1083
 2333 0d73 7E0D0000 		.4byte	0xd7e
 2334 0d77 2B       		.uleb128 0x2b
 2335 0d78 01       		.uleb128 0x1
 2336 0d79 50       		.byte	0x50
 2337 0d7a 02       		.uleb128 0x2
 2338 0d7b 75       		.byte	0x75
 2339 0d7c 00       		.sleb128 0
 2340 0d7d 00       		.byte	0
 2341 0d7e 2C       		.uleb128 0x2c
 2342 0d7f 84020000 		.4byte	.LVL73
 2343 0d83 8E100000 		.4byte	0x108e
 2344 0d87 2B       		.uleb128 0x2b
 2345 0d88 01       		.uleb128 0x1
 2346 0d89 50       		.byte	0x50
 2347 0d8a 02       		.uleb128 0x2
 2348 0d8b 75       		.byte	0x75
 2349 0d8c 00       		.sleb128 0
 2350 0d8d 00       		.byte	0
 2351 0d8e 00       		.byte	0
 2352 0d8f 0C       		.uleb128 0xc
 2353 0d90 04       		.byte	0x4
 2354 0d91 2C000000 		.4byte	0x2c
 2355 0d95 2D       		.uleb128 0x2d
 2356 0d96 74010000 		.4byte	.LASF190
 2357 0d9a 01       		.byte	0x1
 2358 0d9b 2501     		.2byte	0x125
 2359 0d9d 80010000 		.4byte	.LFB298
 2360 0da1 B8000000 		.4byte	.LFE298-.LFB298
 2361 0da5 01       		.uleb128 0x1
 2362 0da6 9C       		.byte	0x9c
 2363 0da7 470E0000 		.4byte	0xe47
 2364 0dab 2E       		.uleb128 0x2e
 2365 0dac 7000     		.ascii	"p\000"
 2366 0dae 01       		.byte	0x1
 2367 0daf 2501     		.2byte	0x125
 2368 0db1 41030000 		.4byte	0x341
 2369 0db5 76010000 		.4byte	.LLST14
 2370 0db9 27       		.uleb128 0x27
 2371 0dba 717000   		.ascii	"qp\000"
 2372 0dbd 01       		.byte	0x1
 2373 0dbe 2601     		.2byte	0x126
 2374 0dc0 0D0B0000 		.4byte	0xb0d
 2375 0dc4 94010000 		.4byte	.LLST15
 2376 0dc8 2F       		.uleb128 0x2f
 2377 0dc9 687000   		.ascii	"hp\000"
 2378 0dcc 01       		.byte	0x1
ARM GAS  C:\Users\RAKIBU~1\AppData\Local\Temp\cc5wOhHj.s 			page 43


 2379 0dcd 2601     		.2byte	0x126
 2380 0dcf 0D0B0000 		.4byte	0xb0d
 2381 0dd3 01       		.uleb128 0x1
 2382 0dd4 55       		.byte	0x55
 2383 0dd5 28       		.uleb128 0x28
 2384 0dd6 14010000 		.4byte	.LASF180
 2385 0dda 01       		.byte	0x1
 2386 0ddb 2701     		.2byte	0x127
 2387 0ddd 340B0000 		.4byte	0xb34
 2388 0de1 B2010000 		.4byte	.LLST16
 2389 0de5 30       		.uleb128 0x30
 2390 0de6 D8050000 		.4byte	.LASF188
 2391 0dea 570E0000 		.4byte	0xe57
 2392 0dee 05       		.uleb128 0x5
 2393 0def 03       		.byte	0x3
 2394 0df0 28000000 		.4byte	__func__.7136
 2395 0df4 2A       		.uleb128 0x2a
 2396 0df5 94010000 		.4byte	.LVL49
 2397 0df9 99100000 		.4byte	0x1099
 2398 0dfd 0B0E0000 		.4byte	0xe0b
 2399 0e01 2B       		.uleb128 0x2b
 2400 0e02 01       		.uleb128 0x1
 2401 0e03 50       		.byte	0x50
 2402 0e04 05       		.uleb128 0x5
 2403 0e05 03       		.byte	0x3
 2404 0e06 28000000 		.4byte	.LANCHOR1+40
 2405 0e0a 00       		.byte	0
 2406 0e0b 2A       		.uleb128 0x2a
 2407 0e0c B4010000 		.4byte	.LVL53
 2408 0e10 83100000 		.4byte	0x1083
 2409 0e14 1F0E0000 		.4byte	0xe1f
 2410 0e18 2B       		.uleb128 0x2b
 2411 0e19 01       		.uleb128 0x1
 2412 0e1a 50       		.byte	0x50
 2413 0e1b 02       		.uleb128 0x2
 2414 0e1c 78       		.byte	0x78
 2415 0e1d 00       		.sleb128 0
 2416 0e1e 00       		.byte	0
 2417 0e1f 2A       		.uleb128 0x2a
 2418 0e20 E0010000 		.4byte	.LVL56
 2419 0e24 99100000 		.4byte	0x1099
 2420 0e28 360E0000 		.4byte	0xe36
 2421 0e2c 2B       		.uleb128 0x2b
 2422 0e2d 01       		.uleb128 0x1
 2423 0e2e 50       		.byte	0x50
 2424 0e2f 05       		.uleb128 0x5
 2425 0e30 03       		.byte	0x3
 2426 0e31 28000000 		.4byte	.LANCHOR1+40
 2427 0e35 00       		.byte	0
 2428 0e36 2C       		.uleb128 0x2c
 2429 0e37 0C020000 		.4byte	.LVL57
 2430 0e3b 8E100000 		.4byte	0x108e
 2431 0e3f 2B       		.uleb128 0x2b
 2432 0e40 01       		.uleb128 0x1
 2433 0e41 50       		.byte	0x50
 2434 0e42 02       		.uleb128 0x2
 2435 0e43 78       		.byte	0x78
ARM GAS  C:\Users\RAKIBU~1\AppData\Local\Temp\cc5wOhHj.s 			page 44


 2436 0e44 00       		.sleb128 0
 2437 0e45 00       		.byte	0
 2438 0e46 00       		.byte	0
 2439 0e47 16       		.uleb128 0x16
 2440 0e48 07060000 		.4byte	0x607
 2441 0e4c 570E0000 		.4byte	0xe57
 2442 0e50 17       		.uleb128 0x17
 2443 0e51 37000000 		.4byte	0x37
 2444 0e55 0A       		.byte	0xa
 2445 0e56 00       		.byte	0
 2446 0e57 05       		.uleb128 0x5
 2447 0e58 470E0000 		.4byte	0xe47
 2448 0e5c 31       		.uleb128 0x31
 2449 0e5d 0C070000 		.4byte	.LASF187
 2450 0e61 01       		.byte	0x1
 2451 0e62 AC       		.byte	0xac
 2452 0e63 41030000 		.4byte	0x341
 2453 0e67 60000000 		.4byte	.LFB297
 2454 0e6b 18010000 		.4byte	.LFE297-.LFB297
 2455 0e6f 01       		.uleb128 0x1
 2456 0e70 9C       		.byte	0x9c
 2457 0e71 A90F0000 		.4byte	0xfa9
 2458 0e75 32       		.uleb128 0x32
 2459 0e76 14010000 		.4byte	.LASF180
 2460 0e7a 01       		.byte	0x1
 2461 0e7b AC       		.byte	0xac
 2462 0e7c 340B0000 		.4byte	0xb34
 2463 0e80 D2010000 		.4byte	.LLST4
 2464 0e84 32       		.uleb128 0x32
 2465 0e85 69010000 		.4byte	.LASF99
 2466 0e89 01       		.byte	0x1
 2467 0e8a AC       		.byte	0xac
 2468 0e8b 2C000000 		.4byte	0x2c
 2469 0e8f 09020000 		.4byte	.LLST5
 2470 0e93 32       		.uleb128 0x32
 2471 0e94 28010000 		.4byte	.LASF163
 2472 0e98 01       		.byte	0x1
 2473 0e99 AC       		.byte	0xac
 2474 0e9a 37000000 		.4byte	0x37
 2475 0e9e 27020000 		.4byte	.LLST6
 2476 0ea2 33       		.uleb128 0x33
 2477 0ea3 717000   		.ascii	"qp\000"
 2478 0ea6 01       		.byte	0x1
 2479 0ea7 AD       		.byte	0xad
 2480 0ea8 0D0B0000 		.4byte	0xb0d
 2481 0eac 45020000 		.4byte	.LLST7
 2482 0eb0 33       		.uleb128 0x33
 2483 0eb1 687000   		.ascii	"hp\000"
 2484 0eb4 01       		.byte	0x1
 2485 0eb5 AD       		.byte	0xad
 2486 0eb6 0D0B0000 		.4byte	0xb0d
 2487 0eba 79020000 		.4byte	.LLST8
 2488 0ebe 33       		.uleb128 0x33
 2489 0ebf 61687000 		.ascii	"ahp\000"
 2490 0ec3 01       		.byte	0x1
 2491 0ec4 AD       		.byte	0xad
 2492 0ec5 0D0B0000 		.4byte	0xb0d
ARM GAS  C:\Users\RAKIBU~1\AppData\Local\Temp\cc5wOhHj.s 			page 45


 2493 0ec9 C7020000 		.4byte	.LLST9
 2494 0ecd 34       		.uleb128 0x34
 2495 0ece 5E000000 		.4byte	.LASF159
 2496 0ed2 01       		.byte	0x1
 2497 0ed3 AE       		.byte	0xae
 2498 0ed4 2C000000 		.4byte	0x2c
 2499 0ed8 6D030000 		.4byte	.LLST10
 2500 0edc 30       		.uleb128 0x30
 2501 0edd D8050000 		.4byte	.LASF188
 2502 0ee1 B90F0000 		.4byte	0xfb9
 2503 0ee5 05       		.uleb128 0x5
 2504 0ee6 03       		.byte	0x3
 2505 0ee7 14000000 		.4byte	__func__.7123
 2506 0eeb 29       		.uleb128 0x29
 2507 0eec A0000000 		.4byte	.LBB2
 2508 0ef0 24000000 		.4byte	.LBE2-.LBB2
 2509 0ef4 200F0000 		.4byte	0xf20
 2510 0ef8 34       		.uleb128 0x34
 2511 0ef9 C4010000 		.4byte	.LASF189
 2512 0efd 01       		.byte	0x1
 2513 0efe D2       		.byte	0xd2
 2514 0eff 2C000000 		.4byte	0x2c
 2515 0f03 CC030000 		.4byte	.LLST11
 2516 0f07 35       		.uleb128 0x35
 2517 0f08 AC000000 		.4byte	.LBB3
 2518 0f0c 18000000 		.4byte	.LBE3-.LBB3
 2519 0f10 33       		.uleb128 0x33
 2520 0f11 667000   		.ascii	"fp\000"
 2521 0f14 01       		.byte	0x1
 2522 0f15 D8       		.byte	0xd8
 2523 0f16 0D0B0000 		.4byte	0xb0d
 2524 0f1a EA030000 		.4byte	.LLST12
 2525 0f1e 00       		.byte	0
 2526 0f1f 00       		.byte	0
 2527 0f20 29       		.uleb128 0x29
 2528 0f21 C8000000 		.4byte	.LBB4
 2529 0f25 22000000 		.4byte	.LBE4-.LBB4
 2530 0f29 3C0F0000 		.4byte	0xf3c
 2531 0f2d 33       		.uleb128 0x33
 2532 0f2e 667000   		.ascii	"fp\000"
 2533 0f31 01       		.byte	0x1
 2534 0f32 EE       		.byte	0xee
 2535 0f33 0D0B0000 		.4byte	0xb0d
 2536 0f37 FD030000 		.4byte	.LLST13
 2537 0f3b 00       		.byte	0
 2538 0f3c 2A       		.uleb128 0x2a
 2539 0f3d 7A000000 		.4byte	.LVL13
 2540 0f41 99100000 		.4byte	0x1099
 2541 0f45 530F0000 		.4byte	0xf53
 2542 0f49 2B       		.uleb128 0x2b
 2543 0f4a 01       		.uleb128 0x1
 2544 0f4b 50       		.byte	0x50
 2545 0f4c 05       		.uleb128 0x5
 2546 0f4d 03       		.byte	0x3
 2547 0f4e 14000000 		.4byte	.LANCHOR1+20
 2548 0f52 00       		.byte	0
 2549 0f53 2A       		.uleb128 0x2a
ARM GAS  C:\Users\RAKIBU~1\AppData\Local\Temp\cc5wOhHj.s 			page 46


 2550 0f54 92000000 		.4byte	.LVL17
 2551 0f58 83100000 		.4byte	0x1083
 2552 0f5c 670F0000 		.4byte	0xf67
 2553 0f60 2B       		.uleb128 0x2b
 2554 0f61 01       		.uleb128 0x1
 2555 0f62 50       		.byte	0x50
 2556 0f63 02       		.uleb128 0x2
 2557 0f64 77       		.byte	0x77
 2558 0f65 00       		.sleb128 0
 2559 0f66 00       		.byte	0
 2560 0f67 2A       		.uleb128 0x2a
 2561 0f68 FA000000 		.4byte	.LVL31
 2562 0f6c 8E100000 		.4byte	0x108e
 2563 0f70 7B0F0000 		.4byte	0xf7b
 2564 0f74 2B       		.uleb128 0x2b
 2565 0f75 01       		.uleb128 0x1
 2566 0f76 50       		.byte	0x50
 2567 0f77 02       		.uleb128 0x2
 2568 0f78 77       		.byte	0x77
 2569 0f79 00       		.sleb128 0
 2570 0f7a 00       		.byte	0
 2571 0f7b 2A       		.uleb128 0x2a
 2572 0f7c 46010000 		.4byte	.LVL41
 2573 0f80 8E100000 		.4byte	0x108e
 2574 0f84 8F0F0000 		.4byte	0xf8f
 2575 0f88 2B       		.uleb128 0x2b
 2576 0f89 01       		.uleb128 0x1
 2577 0f8a 50       		.byte	0x50
 2578 0f8b 02       		.uleb128 0x2
 2579 0f8c 77       		.byte	0x77
 2580 0f8d 00       		.sleb128 0
 2581 0f8e 00       		.byte	0
 2582 0f8f 36       		.uleb128 0x36
 2583 0f90 52010000 		.4byte	.LVL42
 2584 0f94 2B       		.uleb128 0x2b
 2585 0f95 01       		.uleb128 0x1
 2586 0f96 50       		.byte	0x50
 2587 0f97 04       		.uleb128 0x4
 2588 0f98 75       		.byte	0x75
 2589 0f99 00       		.sleb128 0
 2590 0f9a 33       		.byte	0x33
 2591 0f9b 24       		.byte	0x24
 2592 0f9c 2B       		.uleb128 0x2b
 2593 0f9d 01       		.uleb128 0x1
 2594 0f9e 51       		.byte	0x51
 2595 0f9f 02       		.uleb128 0x2
 2596 0fa0 74       		.byte	0x74
 2597 0fa1 00       		.sleb128 0
 2598 0fa2 2B       		.uleb128 0x2b
 2599 0fa3 01       		.uleb128 0x1
 2600 0fa4 52       		.byte	0x52
 2601 0fa5 01       		.uleb128 0x1
 2602 0fa6 38       		.byte	0x38
 2603 0fa7 00       		.byte	0
 2604 0fa8 00       		.byte	0
 2605 0fa9 16       		.uleb128 0x16
 2606 0faa 07060000 		.4byte	0x607
ARM GAS  C:\Users\RAKIBU~1\AppData\Local\Temp\cc5wOhHj.s 			page 47


 2607 0fae B90F0000 		.4byte	0xfb9
 2608 0fb2 17       		.uleb128 0x17
 2609 0fb3 37000000 		.4byte	0x37
 2610 0fb7 12       		.byte	0x12
 2611 0fb8 00       		.byte	0
 2612 0fb9 05       		.uleb128 0x5
 2613 0fba A90F0000 		.4byte	0xfa9
 2614 0fbe 37       		.uleb128 0x37
 2615 0fbf A5030000 		.4byte	.LASF191
 2616 0fc3 01       		.byte	0x1
 2617 0fc4 83       		.byte	0x83
 2618 0fc5 20000000 		.4byte	.LFB296
 2619 0fc9 3C000000 		.4byte	.LFE296-.LFB296
 2620 0fcd 01       		.uleb128 0x1
 2621 0fce 9C       		.byte	0x9c
 2622 0fcf 45100000 		.4byte	0x1045
 2623 0fd3 32       		.uleb128 0x32
 2624 0fd4 14010000 		.4byte	.LASF180
 2625 0fd8 01       		.byte	0x1
 2626 0fd9 83       		.byte	0x83
 2627 0fda 340B0000 		.4byte	0xb34
 2628 0fde 10040000 		.4byte	.LLST0
 2629 0fe2 38       		.uleb128 0x38
 2630 0fe3 62756600 		.ascii	"buf\000"
 2631 0fe7 01       		.byte	0x1
 2632 0fe8 83       		.byte	0x83
 2633 0fe9 41030000 		.4byte	0x341
 2634 0fed 3C040000 		.4byte	.LLST1
 2635 0ff1 32       		.uleb128 0x32
 2636 0ff2 69010000 		.4byte	.LASF99
 2637 0ff6 01       		.byte	0x1
 2638 0ff7 83       		.byte	0x83
 2639 0ff8 2C000000 		.4byte	0x2c
 2640 0ffc 68040000 		.4byte	.LLST2
 2641 1000 33       		.uleb128 0x33
 2642 1001 687000   		.ascii	"hp\000"
 2643 1004 01       		.byte	0x1
 2644 1005 84       		.byte	0x84
 2645 1006 0D0B0000 		.4byte	0xb0d
 2646 100a BF040000 		.4byte	.LLST3
 2647 100e 30       		.uleb128 0x30
 2648 100f D8050000 		.4byte	.LASF188
 2649 1013 55100000 		.4byte	0x1055
 2650 1017 05       		.uleb128 0x5
 2651 1018 03       		.byte	0x3
 2652 1019 00000000 		.4byte	__func__.7113
 2653 101d 2A       		.uleb128 0x2a
 2654 101e 38000000 		.4byte	.LVL4
 2655 1022 99100000 		.4byte	0x1099
 2656 1026 34100000 		.4byte	0x1034
 2657 102a 2B       		.uleb128 0x2b
 2658 102b 01       		.uleb128 0x1
 2659 102c 50       		.byte	0x50
 2660 102d 05       		.uleb128 0x5
 2661 102e 03       		.byte	0x3
 2662 102f 00000000 		.4byte	.LANCHOR1
 2663 1033 00       		.byte	0
ARM GAS  C:\Users\RAKIBU~1\AppData\Local\Temp\cc5wOhHj.s 			page 48


 2664 1034 2C       		.uleb128 0x2c
 2665 1035 54000000 		.4byte	.LVL9
 2666 1039 A4100000 		.4byte	0x10a4
 2667 103d 2B       		.uleb128 0x2b
 2668 103e 01       		.uleb128 0x1
 2669 103f 50       		.byte	0x50
 2670 1040 02       		.uleb128 0x2
 2671 1041 76       		.byte	0x76
 2672 1042 0C       		.sleb128 12
 2673 1043 00       		.byte	0
 2674 1044 00       		.byte	0
 2675 1045 16       		.uleb128 0x16
 2676 1046 07060000 		.4byte	0x607
 2677 104a 55100000 		.4byte	0x1055
 2678 104e 17       		.uleb128 0x17
 2679 104f 37000000 		.4byte	0x37
 2680 1053 10       		.byte	0x10
 2681 1054 00       		.byte	0
 2682 1055 05       		.uleb128 0x5
 2683 1056 45100000 		.4byte	0x1045
 2684 105a 37       		.uleb128 0x37
 2685 105b 37010000 		.4byte	.LASF192
 2686 105f 01       		.byte	0x1
 2687 1060 6B       		.byte	0x6b
 2688 1061 00000000 		.4byte	.LFB295
 2689 1065 20000000 		.4byte	.LFE295-.LFB295
 2690 1069 01       		.uleb128 0x1
 2691 106a 9C       		.byte	0x9c
 2692 106b 83100000 		.4byte	0x1083
 2693 106f 2C       		.uleb128 0x2c
 2694 1070 14000000 		.4byte	.LVL0
 2695 1074 A4100000 		.4byte	0x10a4
 2696 1078 2B       		.uleb128 0x2b
 2697 1079 01       		.uleb128 0x1
 2698 107a 50       		.byte	0x50
 2699 107b 05       		.uleb128 0x5
 2700 107c 03       		.byte	0x3
 2701 107d 0C000000 		.4byte	.LANCHOR0+12
 2702 1081 00       		.byte	0
 2703 1082 00       		.byte	0
 2704 1083 39       		.uleb128 0x39
 2705 1084 2D040000 		.4byte	.LASF193
 2706 1088 2D040000 		.4byte	.LASF193
 2707 108c 11       		.byte	0x11
 2708 108d 67       		.byte	0x67
 2709 108e 39       		.uleb128 0x39
 2710 108f 42010000 		.4byte	.LASF194
 2711 1093 42010000 		.4byte	.LASF194
 2712 1097 11       		.byte	0x11
 2713 1098 6B       		.byte	0x6b
 2714 1099 39       		.uleb128 0x39
 2715 109a CF030000 		.4byte	.LASF195
 2716 109e CF030000 		.4byte	.LASF195
 2717 10a2 18       		.byte	0x18
 2718 10a3 63       		.byte	0x63
 2719 10a4 39       		.uleb128 0x39
 2720 10a5 EB060000 		.4byte	.LASF196
ARM GAS  C:\Users\RAKIBU~1\AppData\Local\Temp\cc5wOhHj.s 			page 49


 2721 10a9 EB060000 		.4byte	.LASF196
 2722 10ad 11       		.byte	0x11
 2723 10ae 66       		.byte	0x66
 2724 10af 00       		.byte	0
 2725              		.section	.debug_abbrev,"",%progbits
 2726              	.Ldebug_abbrev0:
 2727 0000 01       		.uleb128 0x1
 2728 0001 11       		.uleb128 0x11
 2729 0002 01       		.byte	0x1
 2730 0003 25       		.uleb128 0x25
 2731 0004 0E       		.uleb128 0xe
 2732 0005 13       		.uleb128 0x13
 2733 0006 0B       		.uleb128 0xb
 2734 0007 03       		.uleb128 0x3
 2735 0008 0E       		.uleb128 0xe
 2736 0009 1B       		.uleb128 0x1b
 2737 000a 0E       		.uleb128 0xe
 2738 000b 11       		.uleb128 0x11
 2739 000c 01       		.uleb128 0x1
 2740 000d 12       		.uleb128 0x12
 2741 000e 06       		.uleb128 0x6
 2742 000f 10       		.uleb128 0x10
 2743 0010 17       		.uleb128 0x17
 2744 0011 00       		.byte	0
 2745 0012 00       		.byte	0
 2746 0013 02       		.uleb128 0x2
 2747 0014 24       		.uleb128 0x24
 2748 0015 00       		.byte	0
 2749 0016 0B       		.uleb128 0xb
 2750 0017 0B       		.uleb128 0xb
 2751 0018 3E       		.uleb128 0x3e
 2752 0019 0B       		.uleb128 0xb
 2753 001a 03       		.uleb128 0x3
 2754 001b 08       		.uleb128 0x8
 2755 001c 00       		.byte	0
 2756 001d 00       		.byte	0
 2757 001e 03       		.uleb128 0x3
 2758 001f 16       		.uleb128 0x16
 2759 0020 00       		.byte	0
 2760 0021 03       		.uleb128 0x3
 2761 0022 0E       		.uleb128 0xe
 2762 0023 3A       		.uleb128 0x3a
 2763 0024 0B       		.uleb128 0xb
 2764 0025 3B       		.uleb128 0x3b
 2765 0026 0B       		.uleb128 0xb
 2766 0027 49       		.uleb128 0x49
 2767 0028 13       		.uleb128 0x13
 2768 0029 00       		.byte	0
 2769 002a 00       		.byte	0
 2770 002b 04       		.uleb128 0x4
 2771 002c 24       		.uleb128 0x24
 2772 002d 00       		.byte	0
 2773 002e 0B       		.uleb128 0xb
 2774 002f 0B       		.uleb128 0xb
 2775 0030 3E       		.uleb128 0x3e
 2776 0031 0B       		.uleb128 0xb
 2777 0032 03       		.uleb128 0x3
ARM GAS  C:\Users\RAKIBU~1\AppData\Local\Temp\cc5wOhHj.s 			page 50


 2778 0033 0E       		.uleb128 0xe
 2779 0034 00       		.byte	0
 2780 0035 00       		.byte	0
 2781 0036 05       		.uleb128 0x5
 2782 0037 26       		.uleb128 0x26
 2783 0038 00       		.byte	0
 2784 0039 49       		.uleb128 0x49
 2785 003a 13       		.uleb128 0x13
 2786 003b 00       		.byte	0
 2787 003c 00       		.byte	0
 2788 003d 06       		.uleb128 0x6
 2789 003e 35       		.uleb128 0x35
 2790 003f 00       		.byte	0
 2791 0040 49       		.uleb128 0x49
 2792 0041 13       		.uleb128 0x13
 2793 0042 00       		.byte	0
 2794 0043 00       		.byte	0
 2795 0044 07       		.uleb128 0x7
 2796 0045 13       		.uleb128 0x13
 2797 0046 01       		.byte	0x1
 2798 0047 03       		.uleb128 0x3
 2799 0048 0E       		.uleb128 0xe
 2800 0049 0B       		.uleb128 0xb
 2801 004a 0B       		.uleb128 0xb
 2802 004b 3A       		.uleb128 0x3a
 2803 004c 0B       		.uleb128 0xb
 2804 004d 3B       		.uleb128 0x3b
 2805 004e 0B       		.uleb128 0xb
 2806 004f 01       		.uleb128 0x1
 2807 0050 13       		.uleb128 0x13
 2808 0051 00       		.byte	0
 2809 0052 00       		.byte	0
 2810 0053 08       		.uleb128 0x8
 2811 0054 0D       		.uleb128 0xd
 2812 0055 00       		.byte	0
 2813 0056 03       		.uleb128 0x3
 2814 0057 0E       		.uleb128 0xe
 2815 0058 3A       		.uleb128 0x3a
 2816 0059 0B       		.uleb128 0xb
 2817 005a 3B       		.uleb128 0x3b
 2818 005b 0B       		.uleb128 0xb
 2819 005c 49       		.uleb128 0x49
 2820 005d 13       		.uleb128 0x13
 2821 005e 38       		.uleb128 0x38
 2822 005f 0B       		.uleb128 0xb
 2823 0060 00       		.byte	0
 2824 0061 00       		.byte	0
 2825 0062 09       		.uleb128 0x9
 2826 0063 0D       		.uleb128 0xd
 2827 0064 00       		.byte	0
 2828 0065 03       		.uleb128 0x3
 2829 0066 08       		.uleb128 0x8
 2830 0067 3A       		.uleb128 0x3a
 2831 0068 0B       		.uleb128 0xb
 2832 0069 3B       		.uleb128 0x3b
 2833 006a 0B       		.uleb128 0xb
 2834 006b 49       		.uleb128 0x49
ARM GAS  C:\Users\RAKIBU~1\AppData\Local\Temp\cc5wOhHj.s 			page 51


 2835 006c 13       		.uleb128 0x13
 2836 006d 38       		.uleb128 0x38
 2837 006e 0B       		.uleb128 0xb
 2838 006f 00       		.byte	0
 2839 0070 00       		.byte	0
 2840 0071 0A       		.uleb128 0xa
 2841 0072 0D       		.uleb128 0xd
 2842 0073 00       		.byte	0
 2843 0074 03       		.uleb128 0x3
 2844 0075 08       		.uleb128 0x8
 2845 0076 3A       		.uleb128 0x3a
 2846 0077 0B       		.uleb128 0xb
 2847 0078 3B       		.uleb128 0x3b
 2848 0079 05       		.uleb128 0x5
 2849 007a 49       		.uleb128 0x49
 2850 007b 13       		.uleb128 0x13
 2851 007c 38       		.uleb128 0x38
 2852 007d 0B       		.uleb128 0xb
 2853 007e 00       		.byte	0
 2854 007f 00       		.byte	0
 2855 0080 0B       		.uleb128 0xb
 2856 0081 0D       		.uleb128 0xd
 2857 0082 00       		.byte	0
 2858 0083 03       		.uleb128 0x3
 2859 0084 0E       		.uleb128 0xe
 2860 0085 3A       		.uleb128 0x3a
 2861 0086 0B       		.uleb128 0xb
 2862 0087 3B       		.uleb128 0x3b
 2863 0088 05       		.uleb128 0x5
 2864 0089 49       		.uleb128 0x49
 2865 008a 13       		.uleb128 0x13
 2866 008b 38       		.uleb128 0x38
 2867 008c 0B       		.uleb128 0xb
 2868 008d 00       		.byte	0
 2869 008e 00       		.byte	0
 2870 008f 0C       		.uleb128 0xc
 2871 0090 0F       		.uleb128 0xf
 2872 0091 00       		.byte	0
 2873 0092 0B       		.uleb128 0xb
 2874 0093 0B       		.uleb128 0xb
 2875 0094 49       		.uleb128 0x49
 2876 0095 13       		.uleb128 0x13
 2877 0096 00       		.byte	0
 2878 0097 00       		.byte	0
 2879 0098 0D       		.uleb128 0xd
 2880 0099 13       		.uleb128 0x13
 2881 009a 01       		.byte	0x1
 2882 009b 03       		.uleb128 0x3
 2883 009c 0E       		.uleb128 0xe
 2884 009d 0B       		.uleb128 0xb
 2885 009e 0B       		.uleb128 0xb
 2886 009f 3A       		.uleb128 0x3a
 2887 00a0 0B       		.uleb128 0xb
 2888 00a1 3B       		.uleb128 0x3b
 2889 00a2 05       		.uleb128 0x5
 2890 00a3 01       		.uleb128 0x1
 2891 00a4 13       		.uleb128 0x13
ARM GAS  C:\Users\RAKIBU~1\AppData\Local\Temp\cc5wOhHj.s 			page 52


 2892 00a5 00       		.byte	0
 2893 00a6 00       		.byte	0
 2894 00a7 0E       		.uleb128 0xe
 2895 00a8 15       		.uleb128 0x15
 2896 00a9 01       		.byte	0x1
 2897 00aa 27       		.uleb128 0x27
 2898 00ab 19       		.uleb128 0x19
 2899 00ac 01       		.uleb128 0x1
 2900 00ad 13       		.uleb128 0x13
 2901 00ae 00       		.byte	0
 2902 00af 00       		.byte	0
 2903 00b0 0F       		.uleb128 0xf
 2904 00b1 05       		.uleb128 0x5
 2905 00b2 00       		.byte	0
 2906 00b3 49       		.uleb128 0x49
 2907 00b4 13       		.uleb128 0x13
 2908 00b5 00       		.byte	0
 2909 00b6 00       		.byte	0
 2910 00b7 10       		.uleb128 0x10
 2911 00b8 0F       		.uleb128 0xf
 2912 00b9 00       		.byte	0
 2913 00ba 0B       		.uleb128 0xb
 2914 00bb 0B       		.uleb128 0xb
 2915 00bc 00       		.byte	0
 2916 00bd 00       		.byte	0
 2917 00be 11       		.uleb128 0x11
 2918 00bf 13       		.uleb128 0x13
 2919 00c0 01       		.byte	0x1
 2920 00c1 03       		.uleb128 0x3
 2921 00c2 0E       		.uleb128 0xe
 2922 00c3 0B       		.uleb128 0xb
 2923 00c4 05       		.uleb128 0x5
 2924 00c5 3A       		.uleb128 0x3a
 2925 00c6 0B       		.uleb128 0xb
 2926 00c7 3B       		.uleb128 0x3b
 2927 00c8 05       		.uleb128 0x5
 2928 00c9 01       		.uleb128 0x1
 2929 00ca 13       		.uleb128 0x13
 2930 00cb 00       		.byte	0
 2931 00cc 00       		.byte	0
 2932 00cd 12       		.uleb128 0x12
 2933 00ce 0D       		.uleb128 0xd
 2934 00cf 00       		.byte	0
 2935 00d0 03       		.uleb128 0x3
 2936 00d1 0E       		.uleb128 0xe
 2937 00d2 3A       		.uleb128 0x3a
 2938 00d3 0B       		.uleb128 0xb
 2939 00d4 3B       		.uleb128 0x3b
 2940 00d5 05       		.uleb128 0x5
 2941 00d6 49       		.uleb128 0x49
 2942 00d7 13       		.uleb128 0x13
 2943 00d8 38       		.uleb128 0x38
 2944 00d9 05       		.uleb128 0x5
 2945 00da 00       		.byte	0
 2946 00db 00       		.byte	0
 2947 00dc 13       		.uleb128 0x13
 2948 00dd 0D       		.uleb128 0xd
ARM GAS  C:\Users\RAKIBU~1\AppData\Local\Temp\cc5wOhHj.s 			page 53


 2949 00de 00       		.byte	0
 2950 00df 03       		.uleb128 0x3
 2951 00e0 08       		.uleb128 0x8
 2952 00e1 3A       		.uleb128 0x3a
 2953 00e2 0B       		.uleb128 0xb
 2954 00e3 3B       		.uleb128 0x3b
 2955 00e4 05       		.uleb128 0x5
 2956 00e5 49       		.uleb128 0x49
 2957 00e6 13       		.uleb128 0x13
 2958 00e7 38       		.uleb128 0x38
 2959 00e8 05       		.uleb128 0x5
 2960 00e9 00       		.byte	0
 2961 00ea 00       		.byte	0
 2962 00eb 14       		.uleb128 0x14
 2963 00ec 34       		.uleb128 0x34
 2964 00ed 00       		.byte	0
 2965 00ee 03       		.uleb128 0x3
 2966 00ef 0E       		.uleb128 0xe
 2967 00f0 3A       		.uleb128 0x3a
 2968 00f1 0B       		.uleb128 0xb
 2969 00f2 3B       		.uleb128 0x3b
 2970 00f3 05       		.uleb128 0x5
 2971 00f4 49       		.uleb128 0x49
 2972 00f5 13       		.uleb128 0x13
 2973 00f6 3F       		.uleb128 0x3f
 2974 00f7 19       		.uleb128 0x19
 2975 00f8 3C       		.uleb128 0x3c
 2976 00f9 19       		.uleb128 0x19
 2977 00fa 00       		.byte	0
 2978 00fb 00       		.byte	0
 2979 00fc 15       		.uleb128 0x15
 2980 00fd 34       		.uleb128 0x34
 2981 00fe 00       		.byte	0
 2982 00ff 03       		.uleb128 0x3
 2983 0100 0E       		.uleb128 0xe
 2984 0101 3A       		.uleb128 0x3a
 2985 0102 0B       		.uleb128 0xb
 2986 0103 3B       		.uleb128 0x3b
 2987 0104 0B       		.uleb128 0xb
 2988 0105 49       		.uleb128 0x49
 2989 0106 13       		.uleb128 0x13
 2990 0107 3F       		.uleb128 0x3f
 2991 0108 19       		.uleb128 0x19
 2992 0109 3C       		.uleb128 0x3c
 2993 010a 19       		.uleb128 0x19
 2994 010b 00       		.byte	0
 2995 010c 00       		.byte	0
 2996 010d 16       		.uleb128 0x16
 2997 010e 01       		.uleb128 0x1
 2998 010f 01       		.byte	0x1
 2999 0110 49       		.uleb128 0x49
 3000 0111 13       		.uleb128 0x13
 3001 0112 01       		.uleb128 0x1
 3002 0113 13       		.uleb128 0x13
 3003 0114 00       		.byte	0
 3004 0115 00       		.byte	0
 3005 0116 17       		.uleb128 0x17
ARM GAS  C:\Users\RAKIBU~1\AppData\Local\Temp\cc5wOhHj.s 			page 54


 3006 0117 21       		.uleb128 0x21
 3007 0118 00       		.byte	0
 3008 0119 49       		.uleb128 0x49
 3009 011a 13       		.uleb128 0x13
 3010 011b 2F       		.uleb128 0x2f
 3011 011c 0B       		.uleb128 0xb
 3012 011d 00       		.byte	0
 3013 011e 00       		.byte	0
 3014 011f 18       		.uleb128 0x18
 3015 0120 13       		.uleb128 0x13
 3016 0121 01       		.byte	0x1
 3017 0122 0B       		.uleb128 0xb
 3018 0123 0B       		.uleb128 0xb
 3019 0124 3A       		.uleb128 0x3a
 3020 0125 0B       		.uleb128 0xb
 3021 0126 3B       		.uleb128 0x3b
 3022 0127 0B       		.uleb128 0xb
 3023 0128 01       		.uleb128 0x1
 3024 0129 13       		.uleb128 0x13
 3025 012a 00       		.byte	0
 3026 012b 00       		.byte	0
 3027 012c 19       		.uleb128 0x19
 3028 012d 17       		.uleb128 0x17
 3029 012e 01       		.byte	0x1
 3030 012f 0B       		.uleb128 0xb
 3031 0130 0B       		.uleb128 0xb
 3032 0131 3A       		.uleb128 0x3a
 3033 0132 0B       		.uleb128 0xb
 3034 0133 3B       		.uleb128 0x3b
 3035 0134 0B       		.uleb128 0xb
 3036 0135 01       		.uleb128 0x1
 3037 0136 13       		.uleb128 0x13
 3038 0137 00       		.byte	0
 3039 0138 00       		.byte	0
 3040 0139 1A       		.uleb128 0x1a
 3041 013a 0D       		.uleb128 0xd
 3042 013b 00       		.byte	0
 3043 013c 03       		.uleb128 0x3
 3044 013d 08       		.uleb128 0x8
 3045 013e 3A       		.uleb128 0x3a
 3046 013f 0B       		.uleb128 0xb
 3047 0140 3B       		.uleb128 0x3b
 3048 0141 0B       		.uleb128 0xb
 3049 0142 49       		.uleb128 0x49
 3050 0143 13       		.uleb128 0x13
 3051 0144 00       		.byte	0
 3052 0145 00       		.byte	0
 3053 0146 1B       		.uleb128 0x1b
 3054 0147 0D       		.uleb128 0xd
 3055 0148 00       		.byte	0
 3056 0149 03       		.uleb128 0x3
 3057 014a 0E       		.uleb128 0xe
 3058 014b 3A       		.uleb128 0x3a
 3059 014c 0B       		.uleb128 0xb
 3060 014d 3B       		.uleb128 0x3b
 3061 014e 0B       		.uleb128 0xb
 3062 014f 49       		.uleb128 0x49
ARM GAS  C:\Users\RAKIBU~1\AppData\Local\Temp\cc5wOhHj.s 			page 55


 3063 0150 13       		.uleb128 0x13
 3064 0151 00       		.byte	0
 3065 0152 00       		.byte	0
 3066 0153 1C       		.uleb128 0x1c
 3067 0154 0D       		.uleb128 0xd
 3068 0155 00       		.byte	0
 3069 0156 03       		.uleb128 0x3
 3070 0157 0E       		.uleb128 0xe
 3071 0158 3A       		.uleb128 0x3a
 3072 0159 0B       		.uleb128 0xb
 3073 015a 3B       		.uleb128 0x3b
 3074 015b 0B       		.uleb128 0xb
 3075 015c 49       		.uleb128 0x49
 3076 015d 13       		.uleb128 0x13
 3077 015e 0B       		.uleb128 0xb
 3078 015f 0B       		.uleb128 0xb
 3079 0160 0D       		.uleb128 0xd
 3080 0161 0B       		.uleb128 0xb
 3081 0162 0C       		.uleb128 0xc
 3082 0163 0B       		.uleb128 0xb
 3083 0164 38       		.uleb128 0x38
 3084 0165 0B       		.uleb128 0xb
 3085 0166 00       		.byte	0
 3086 0167 00       		.byte	0
 3087 0168 1D       		.uleb128 0x1d
 3088 0169 13       		.uleb128 0x13
 3089 016a 01       		.byte	0x1
 3090 016b 0B       		.uleb128 0xb
 3091 016c 05       		.uleb128 0x5
 3092 016d 3A       		.uleb128 0x3a
 3093 016e 0B       		.uleb128 0xb
 3094 016f 3B       		.uleb128 0x3b
 3095 0170 0B       		.uleb128 0xb
 3096 0171 01       		.uleb128 0x1
 3097 0172 13       		.uleb128 0x13
 3098 0173 00       		.byte	0
 3099 0174 00       		.byte	0
 3100 0175 1E       		.uleb128 0x1e
 3101 0176 0D       		.uleb128 0xd
 3102 0177 00       		.byte	0
 3103 0178 03       		.uleb128 0x3
 3104 0179 0E       		.uleb128 0xe
 3105 017a 3A       		.uleb128 0x3a
 3106 017b 0B       		.uleb128 0xb
 3107 017c 3B       		.uleb128 0x3b
 3108 017d 05       		.uleb128 0x5
 3109 017e 49       		.uleb128 0x49
 3110 017f 13       		.uleb128 0x13
 3111 0180 00       		.byte	0
 3112 0181 00       		.byte	0
 3113 0182 1F       		.uleb128 0x1f
 3114 0183 34       		.uleb128 0x34
 3115 0184 00       		.byte	0
 3116 0185 03       		.uleb128 0x3
 3117 0186 08       		.uleb128 0x8
 3118 0187 3A       		.uleb128 0x3a
 3119 0188 0B       		.uleb128 0xb
ARM GAS  C:\Users\RAKIBU~1\AppData\Local\Temp\cc5wOhHj.s 			page 56


 3120 0189 3B       		.uleb128 0x3b
 3121 018a 05       		.uleb128 0x5
 3122 018b 49       		.uleb128 0x49
 3123 018c 13       		.uleb128 0x13
 3124 018d 3F       		.uleb128 0x3f
 3125 018e 19       		.uleb128 0x19
 3126 018f 3C       		.uleb128 0x3c
 3127 0190 19       		.uleb128 0x19
 3128 0191 00       		.byte	0
 3129 0192 00       		.byte	0
 3130 0193 20       		.uleb128 0x20
 3131 0194 21       		.uleb128 0x21
 3132 0195 00       		.byte	0
 3133 0196 00       		.byte	0
 3134 0197 00       		.byte	0
 3135 0198 21       		.uleb128 0x21
 3136 0199 15       		.uleb128 0x15
 3137 019a 01       		.byte	0x1
 3138 019b 27       		.uleb128 0x27
 3139 019c 19       		.uleb128 0x19
 3140 019d 49       		.uleb128 0x49
 3141 019e 13       		.uleb128 0x13
 3142 019f 01       		.uleb128 0x1
 3143 01a0 13       		.uleb128 0x13
 3144 01a1 00       		.byte	0
 3145 01a2 00       		.byte	0
 3146 01a3 22       		.uleb128 0x22
 3147 01a4 17       		.uleb128 0x17
 3148 01a5 01       		.byte	0x1
 3149 01a6 03       		.uleb128 0x3
 3150 01a7 0E       		.uleb128 0xe
 3151 01a8 0B       		.uleb128 0xb
 3152 01a9 0B       		.uleb128 0xb
 3153 01aa 3A       		.uleb128 0x3a
 3154 01ab 0B       		.uleb128 0xb
 3155 01ac 3B       		.uleb128 0x3b
 3156 01ad 0B       		.uleb128 0xb
 3157 01ae 01       		.uleb128 0x1
 3158 01af 13       		.uleb128 0x13
 3159 01b0 00       		.byte	0
 3160 01b1 00       		.byte	0
 3161 01b2 23       		.uleb128 0x23
 3162 01b3 16       		.uleb128 0x16
 3163 01b4 00       		.byte	0
 3164 01b5 03       		.uleb128 0x3
 3165 01b6 0E       		.uleb128 0xe
 3166 01b7 3A       		.uleb128 0x3a
 3167 01b8 0B       		.uleb128 0xb
 3168 01b9 3B       		.uleb128 0x3b
 3169 01ba 05       		.uleb128 0x5
 3170 01bb 49       		.uleb128 0x49
 3171 01bc 13       		.uleb128 0x13
 3172 01bd 00       		.byte	0
 3173 01be 00       		.byte	0
 3174 01bf 24       		.uleb128 0x24
 3175 01c0 34       		.uleb128 0x34
 3176 01c1 00       		.byte	0
ARM GAS  C:\Users\RAKIBU~1\AppData\Local\Temp\cc5wOhHj.s 			page 57


 3177 01c2 03       		.uleb128 0x3
 3178 01c3 0E       		.uleb128 0xe
 3179 01c4 3A       		.uleb128 0x3a
 3180 01c5 0B       		.uleb128 0xb
 3181 01c6 3B       		.uleb128 0x3b
 3182 01c7 0B       		.uleb128 0xb
 3183 01c8 49       		.uleb128 0x49
 3184 01c9 13       		.uleb128 0x13
 3185 01ca 02       		.uleb128 0x2
 3186 01cb 18       		.uleb128 0x18
 3187 01cc 00       		.byte	0
 3188 01cd 00       		.byte	0
 3189 01ce 25       		.uleb128 0x25
 3190 01cf 2E       		.uleb128 0x2e
 3191 01d0 01       		.byte	0x1
 3192 01d1 3F       		.uleb128 0x3f
 3193 01d2 19       		.uleb128 0x19
 3194 01d3 03       		.uleb128 0x3
 3195 01d4 0E       		.uleb128 0xe
 3196 01d5 3A       		.uleb128 0x3a
 3197 01d6 0B       		.uleb128 0xb
 3198 01d7 3B       		.uleb128 0x3b
 3199 01d8 05       		.uleb128 0x5
 3200 01d9 27       		.uleb128 0x27
 3201 01da 19       		.uleb128 0x19
 3202 01db 49       		.uleb128 0x49
 3203 01dc 13       		.uleb128 0x13
 3204 01dd 11       		.uleb128 0x11
 3205 01de 01       		.uleb128 0x1
 3206 01df 12       		.uleb128 0x12
 3207 01e0 06       		.uleb128 0x6
 3208 01e1 40       		.uleb128 0x40
 3209 01e2 18       		.uleb128 0x18
 3210 01e3 9742     		.uleb128 0x2117
 3211 01e5 19       		.uleb128 0x19
 3212 01e6 01       		.uleb128 0x1
 3213 01e7 13       		.uleb128 0x13
 3214 01e8 00       		.byte	0
 3215 01e9 00       		.byte	0
 3216 01ea 26       		.uleb128 0x26
 3217 01eb 05       		.uleb128 0x5
 3218 01ec 00       		.byte	0
 3219 01ed 03       		.uleb128 0x3
 3220 01ee 0E       		.uleb128 0xe
 3221 01ef 3A       		.uleb128 0x3a
 3222 01f0 0B       		.uleb128 0xb
 3223 01f1 3B       		.uleb128 0x3b
 3224 01f2 05       		.uleb128 0x5
 3225 01f3 49       		.uleb128 0x49
 3226 01f4 13       		.uleb128 0x13
 3227 01f5 02       		.uleb128 0x2
 3228 01f6 17       		.uleb128 0x17
 3229 01f7 00       		.byte	0
 3230 01f8 00       		.byte	0
 3231 01f9 27       		.uleb128 0x27
 3232 01fa 34       		.uleb128 0x34
 3233 01fb 00       		.byte	0
ARM GAS  C:\Users\RAKIBU~1\AppData\Local\Temp\cc5wOhHj.s 			page 58


 3234 01fc 03       		.uleb128 0x3
 3235 01fd 08       		.uleb128 0x8
 3236 01fe 3A       		.uleb128 0x3a
 3237 01ff 0B       		.uleb128 0xb
 3238 0200 3B       		.uleb128 0x3b
 3239 0201 05       		.uleb128 0x5
 3240 0202 49       		.uleb128 0x49
 3241 0203 13       		.uleb128 0x13
 3242 0204 02       		.uleb128 0x2
 3243 0205 17       		.uleb128 0x17
 3244 0206 00       		.byte	0
 3245 0207 00       		.byte	0
 3246 0208 28       		.uleb128 0x28
 3247 0209 34       		.uleb128 0x34
 3248 020a 00       		.byte	0
 3249 020b 03       		.uleb128 0x3
 3250 020c 0E       		.uleb128 0xe
 3251 020d 3A       		.uleb128 0x3a
 3252 020e 0B       		.uleb128 0xb
 3253 020f 3B       		.uleb128 0x3b
 3254 0210 05       		.uleb128 0x5
 3255 0211 49       		.uleb128 0x49
 3256 0212 13       		.uleb128 0x13
 3257 0213 02       		.uleb128 0x2
 3258 0214 17       		.uleb128 0x17
 3259 0215 00       		.byte	0
 3260 0216 00       		.byte	0
 3261 0217 29       		.uleb128 0x29
 3262 0218 0B       		.uleb128 0xb
 3263 0219 01       		.byte	0x1
 3264 021a 11       		.uleb128 0x11
 3265 021b 01       		.uleb128 0x1
 3266 021c 12       		.uleb128 0x12
 3267 021d 06       		.uleb128 0x6
 3268 021e 01       		.uleb128 0x1
 3269 021f 13       		.uleb128 0x13
 3270 0220 00       		.byte	0
 3271 0221 00       		.byte	0
 3272 0222 2A       		.uleb128 0x2a
 3273 0223 898201   		.uleb128 0x4109
 3274 0226 01       		.byte	0x1
 3275 0227 11       		.uleb128 0x11
 3276 0228 01       		.uleb128 0x1
 3277 0229 31       		.uleb128 0x31
 3278 022a 13       		.uleb128 0x13
 3279 022b 01       		.uleb128 0x1
 3280 022c 13       		.uleb128 0x13
 3281 022d 00       		.byte	0
 3282 022e 00       		.byte	0
 3283 022f 2B       		.uleb128 0x2b
 3284 0230 8A8201   		.uleb128 0x410a
 3285 0233 00       		.byte	0
 3286 0234 02       		.uleb128 0x2
 3287 0235 18       		.uleb128 0x18
 3288 0236 9142     		.uleb128 0x2111
 3289 0238 18       		.uleb128 0x18
 3290 0239 00       		.byte	0
ARM GAS  C:\Users\RAKIBU~1\AppData\Local\Temp\cc5wOhHj.s 			page 59


 3291 023a 00       		.byte	0
 3292 023b 2C       		.uleb128 0x2c
 3293 023c 898201   		.uleb128 0x4109
 3294 023f 01       		.byte	0x1
 3295 0240 11       		.uleb128 0x11
 3296 0241 01       		.uleb128 0x1
 3297 0242 31       		.uleb128 0x31
 3298 0243 13       		.uleb128 0x13
 3299 0244 00       		.byte	0
 3300 0245 00       		.byte	0
 3301 0246 2D       		.uleb128 0x2d
 3302 0247 2E       		.uleb128 0x2e
 3303 0248 01       		.byte	0x1
 3304 0249 3F       		.uleb128 0x3f
 3305 024a 19       		.uleb128 0x19
 3306 024b 03       		.uleb128 0x3
 3307 024c 0E       		.uleb128 0xe
 3308 024d 3A       		.uleb128 0x3a
 3309 024e 0B       		.uleb128 0xb
 3310 024f 3B       		.uleb128 0x3b
 3311 0250 05       		.uleb128 0x5
 3312 0251 27       		.uleb128 0x27
 3313 0252 19       		.uleb128 0x19
 3314 0253 11       		.uleb128 0x11
 3315 0254 01       		.uleb128 0x1
 3316 0255 12       		.uleb128 0x12
 3317 0256 06       		.uleb128 0x6
 3318 0257 40       		.uleb128 0x40
 3319 0258 18       		.uleb128 0x18
 3320 0259 9742     		.uleb128 0x2117
 3321 025b 19       		.uleb128 0x19
 3322 025c 01       		.uleb128 0x1
 3323 025d 13       		.uleb128 0x13
 3324 025e 00       		.byte	0
 3325 025f 00       		.byte	0
 3326 0260 2E       		.uleb128 0x2e
 3327 0261 05       		.uleb128 0x5
 3328 0262 00       		.byte	0
 3329 0263 03       		.uleb128 0x3
 3330 0264 08       		.uleb128 0x8
 3331 0265 3A       		.uleb128 0x3a
 3332 0266 0B       		.uleb128 0xb
 3333 0267 3B       		.uleb128 0x3b
 3334 0268 05       		.uleb128 0x5
 3335 0269 49       		.uleb128 0x49
 3336 026a 13       		.uleb128 0x13
 3337 026b 02       		.uleb128 0x2
 3338 026c 17       		.uleb128 0x17
 3339 026d 00       		.byte	0
 3340 026e 00       		.byte	0
 3341 026f 2F       		.uleb128 0x2f
 3342 0270 34       		.uleb128 0x34
 3343 0271 00       		.byte	0
 3344 0272 03       		.uleb128 0x3
 3345 0273 08       		.uleb128 0x8
 3346 0274 3A       		.uleb128 0x3a
 3347 0275 0B       		.uleb128 0xb
ARM GAS  C:\Users\RAKIBU~1\AppData\Local\Temp\cc5wOhHj.s 			page 60


 3348 0276 3B       		.uleb128 0x3b
 3349 0277 05       		.uleb128 0x5
 3350 0278 49       		.uleb128 0x49
 3351 0279 13       		.uleb128 0x13
 3352 027a 02       		.uleb128 0x2
 3353 027b 18       		.uleb128 0x18
 3354 027c 00       		.byte	0
 3355 027d 00       		.byte	0
 3356 027e 30       		.uleb128 0x30
 3357 027f 34       		.uleb128 0x34
 3358 0280 00       		.byte	0
 3359 0281 03       		.uleb128 0x3
 3360 0282 0E       		.uleb128 0xe
 3361 0283 49       		.uleb128 0x49
 3362 0284 13       		.uleb128 0x13
 3363 0285 34       		.uleb128 0x34
 3364 0286 19       		.uleb128 0x19
 3365 0287 02       		.uleb128 0x2
 3366 0288 18       		.uleb128 0x18
 3367 0289 00       		.byte	0
 3368 028a 00       		.byte	0
 3369 028b 31       		.uleb128 0x31
 3370 028c 2E       		.uleb128 0x2e
 3371 028d 01       		.byte	0x1
 3372 028e 3F       		.uleb128 0x3f
 3373 028f 19       		.uleb128 0x19
 3374 0290 03       		.uleb128 0x3
 3375 0291 0E       		.uleb128 0xe
 3376 0292 3A       		.uleb128 0x3a
 3377 0293 0B       		.uleb128 0xb
 3378 0294 3B       		.uleb128 0x3b
 3379 0295 0B       		.uleb128 0xb
 3380 0296 27       		.uleb128 0x27
 3381 0297 19       		.uleb128 0x19
 3382 0298 49       		.uleb128 0x49
 3383 0299 13       		.uleb128 0x13
 3384 029a 11       		.uleb128 0x11
 3385 029b 01       		.uleb128 0x1
 3386 029c 12       		.uleb128 0x12
 3387 029d 06       		.uleb128 0x6
 3388 029e 40       		.uleb128 0x40
 3389 029f 18       		.uleb128 0x18
 3390 02a0 9742     		.uleb128 0x2117
 3391 02a2 19       		.uleb128 0x19
 3392 02a3 01       		.uleb128 0x1
 3393 02a4 13       		.uleb128 0x13
 3394 02a5 00       		.byte	0
 3395 02a6 00       		.byte	0
 3396 02a7 32       		.uleb128 0x32
 3397 02a8 05       		.uleb128 0x5
 3398 02a9 00       		.byte	0
 3399 02aa 03       		.uleb128 0x3
 3400 02ab 0E       		.uleb128 0xe
 3401 02ac 3A       		.uleb128 0x3a
 3402 02ad 0B       		.uleb128 0xb
 3403 02ae 3B       		.uleb128 0x3b
 3404 02af 0B       		.uleb128 0xb
ARM GAS  C:\Users\RAKIBU~1\AppData\Local\Temp\cc5wOhHj.s 			page 61


 3405 02b0 49       		.uleb128 0x49
 3406 02b1 13       		.uleb128 0x13
 3407 02b2 02       		.uleb128 0x2
 3408 02b3 17       		.uleb128 0x17
 3409 02b4 00       		.byte	0
 3410 02b5 00       		.byte	0
 3411 02b6 33       		.uleb128 0x33
 3412 02b7 34       		.uleb128 0x34
 3413 02b8 00       		.byte	0
 3414 02b9 03       		.uleb128 0x3
 3415 02ba 08       		.uleb128 0x8
 3416 02bb 3A       		.uleb128 0x3a
 3417 02bc 0B       		.uleb128 0xb
 3418 02bd 3B       		.uleb128 0x3b
 3419 02be 0B       		.uleb128 0xb
 3420 02bf 49       		.uleb128 0x49
 3421 02c0 13       		.uleb128 0x13
 3422 02c1 02       		.uleb128 0x2
 3423 02c2 17       		.uleb128 0x17
 3424 02c3 00       		.byte	0
 3425 02c4 00       		.byte	0
 3426 02c5 34       		.uleb128 0x34
 3427 02c6 34       		.uleb128 0x34
 3428 02c7 00       		.byte	0
 3429 02c8 03       		.uleb128 0x3
 3430 02c9 0E       		.uleb128 0xe
 3431 02ca 3A       		.uleb128 0x3a
 3432 02cb 0B       		.uleb128 0xb
 3433 02cc 3B       		.uleb128 0x3b
 3434 02cd 0B       		.uleb128 0xb
 3435 02ce 49       		.uleb128 0x49
 3436 02cf 13       		.uleb128 0x13
 3437 02d0 02       		.uleb128 0x2
 3438 02d1 17       		.uleb128 0x17
 3439 02d2 00       		.byte	0
 3440 02d3 00       		.byte	0
 3441 02d4 35       		.uleb128 0x35
 3442 02d5 0B       		.uleb128 0xb
 3443 02d6 01       		.byte	0x1
 3444 02d7 11       		.uleb128 0x11
 3445 02d8 01       		.uleb128 0x1
 3446 02d9 12       		.uleb128 0x12
 3447 02da 06       		.uleb128 0x6
 3448 02db 00       		.byte	0
 3449 02dc 00       		.byte	0
 3450 02dd 36       		.uleb128 0x36
 3451 02de 898201   		.uleb128 0x4109
 3452 02e1 01       		.byte	0x1
 3453 02e2 11       		.uleb128 0x11
 3454 02e3 01       		.uleb128 0x1
 3455 02e4 00       		.byte	0
 3456 02e5 00       		.byte	0
 3457 02e6 37       		.uleb128 0x37
 3458 02e7 2E       		.uleb128 0x2e
 3459 02e8 01       		.byte	0x1
 3460 02e9 3F       		.uleb128 0x3f
 3461 02ea 19       		.uleb128 0x19
ARM GAS  C:\Users\RAKIBU~1\AppData\Local\Temp\cc5wOhHj.s 			page 62


 3462 02eb 03       		.uleb128 0x3
 3463 02ec 0E       		.uleb128 0xe
 3464 02ed 3A       		.uleb128 0x3a
 3465 02ee 0B       		.uleb128 0xb
 3466 02ef 3B       		.uleb128 0x3b
 3467 02f0 0B       		.uleb128 0xb
 3468 02f1 27       		.uleb128 0x27
 3469 02f2 19       		.uleb128 0x19
 3470 02f3 11       		.uleb128 0x11
 3471 02f4 01       		.uleb128 0x1
 3472 02f5 12       		.uleb128 0x12
 3473 02f6 06       		.uleb128 0x6
 3474 02f7 40       		.uleb128 0x40
 3475 02f8 18       		.uleb128 0x18
 3476 02f9 9742     		.uleb128 0x2117
 3477 02fb 19       		.uleb128 0x19
 3478 02fc 01       		.uleb128 0x1
 3479 02fd 13       		.uleb128 0x13
 3480 02fe 00       		.byte	0
 3481 02ff 00       		.byte	0
 3482 0300 38       		.uleb128 0x38
 3483 0301 05       		.uleb128 0x5
 3484 0302 00       		.byte	0
 3485 0303 03       		.uleb128 0x3
 3486 0304 08       		.uleb128 0x8
 3487 0305 3A       		.uleb128 0x3a
 3488 0306 0B       		.uleb128 0xb
 3489 0307 3B       		.uleb128 0x3b
 3490 0308 0B       		.uleb128 0xb
 3491 0309 49       		.uleb128 0x49
 3492 030a 13       		.uleb128 0x13
 3493 030b 02       		.uleb128 0x2
 3494 030c 17       		.uleb128 0x17
 3495 030d 00       		.byte	0
 3496 030e 00       		.byte	0
 3497 030f 39       		.uleb128 0x39
 3498 0310 2E       		.uleb128 0x2e
 3499 0311 00       		.byte	0
 3500 0312 3F       		.uleb128 0x3f
 3501 0313 19       		.uleb128 0x19
 3502 0314 3C       		.uleb128 0x3c
 3503 0315 19       		.uleb128 0x19
 3504 0316 6E       		.uleb128 0x6e
 3505 0317 0E       		.uleb128 0xe
 3506 0318 03       		.uleb128 0x3
 3507 0319 0E       		.uleb128 0xe
 3508 031a 3A       		.uleb128 0x3a
 3509 031b 0B       		.uleb128 0xb
 3510 031c 3B       		.uleb128 0x3b
 3511 031d 0B       		.uleb128 0xb
 3512 031e 00       		.byte	0
 3513 031f 00       		.byte	0
 3514 0320 00       		.byte	0
 3515              		.section	.debug_loc,"",%progbits
 3516              	.Ldebug_loc0:
 3517              	.LLST17:
 3518 0000 40020000 		.4byte	.LVL59-.Ltext0
ARM GAS  C:\Users\RAKIBU~1\AppData\Local\Temp\cc5wOhHj.s 			page 63


 3519 0004 4A020000 		.4byte	.LVL60-.Ltext0
 3520 0008 0100     		.2byte	0x1
 3521 000a 50       		.byte	0x50
 3522 000b 4A020000 		.4byte	.LVL60-.Ltext0
 3523 000f 5C020000 		.4byte	.LVL63-.Ltext0
 3524 0013 0100     		.2byte	0x1
 3525 0015 54       		.byte	0x54
 3526 0016 5C020000 		.4byte	.LVL63-.Ltext0
 3527 001a 6E020000 		.4byte	.LVL69-.Ltext0
 3528 001e 0300     		.2byte	0x3
 3529 0020 75       		.byte	0x75
 3530 0021 74       		.sleb128 -12
 3531 0022 9F       		.byte	0x9f
 3532 0023 6E020000 		.4byte	.LVL69-.Ltext0
 3533 0027 72020000 		.4byte	.LVL70-.Ltext0
 3534 002b 0100     		.2byte	0x1
 3535 002d 50       		.byte	0x50
 3536 002e 72020000 		.4byte	.LVL70-.Ltext0
 3537 0032 88020000 		.4byte	.LVL74-.Ltext0
 3538 0036 0300     		.2byte	0x3
 3539 0038 75       		.byte	0x75
 3540 0039 74       		.sleb128 -12
 3541 003a 9F       		.byte	0x9f
 3542 003b 00000000 		.4byte	0
 3543 003f 00000000 		.4byte	0
 3544              	.LLST18:
 3545 0043 40020000 		.4byte	.LVL59-.Ltext0
 3546 0047 53020000 		.4byte	.LVL61-1-.Ltext0
 3547 004b 0100     		.2byte	0x1
 3548 004d 51       		.byte	0x51
 3549 004e 53020000 		.4byte	.LVL61-1-.Ltext0
 3550 0052 6E020000 		.4byte	.LVL69-.Ltext0
 3551 0056 0100     		.2byte	0x1
 3552 0058 57       		.byte	0x57
 3553 0059 6E020000 		.4byte	.LVL69-.Ltext0
 3554 005d 72020000 		.4byte	.LVL70-.Ltext0
 3555 0061 0100     		.2byte	0x1
 3556 0063 51       		.byte	0x51
 3557 0064 72020000 		.4byte	.LVL70-.Ltext0
 3558 0068 88020000 		.4byte	.LVL74-.Ltext0
 3559 006c 0100     		.2byte	0x1
 3560 006e 57       		.byte	0x57
 3561 006f 88020000 		.4byte	.LVL74-.Ltext0
 3562 0073 8C020000 		.4byte	.LFE299-.Ltext0
 3563 0077 0400     		.2byte	0x4
 3564 0079 F3       		.byte	0xf3
 3565 007a 01       		.uleb128 0x1
 3566 007b 51       		.byte	0x51
 3567 007c 9F       		.byte	0x9f
 3568 007d 00000000 		.4byte	0
 3569 0081 00000000 		.4byte	0
 3570              	.LLST19:
 3571 0085 40020000 		.4byte	.LVL59-.Ltext0
 3572 0089 53020000 		.4byte	.LVL61-1-.Ltext0
 3573 008d 0100     		.2byte	0x1
 3574 008f 52       		.byte	0x52
 3575 0090 53020000 		.4byte	.LVL61-1-.Ltext0
ARM GAS  C:\Users\RAKIBU~1\AppData\Local\Temp\cc5wOhHj.s 			page 64


 3576 0094 6E020000 		.4byte	.LVL69-.Ltext0
 3577 0098 0100     		.2byte	0x1
 3578 009a 56       		.byte	0x56
 3579 009b 6E020000 		.4byte	.LVL69-.Ltext0
 3580 009f 72020000 		.4byte	.LVL70-.Ltext0
 3581 00a3 0100     		.2byte	0x1
 3582 00a5 52       		.byte	0x52
 3583 00a6 72020000 		.4byte	.LVL70-.Ltext0
 3584 00aa 88020000 		.4byte	.LVL74-.Ltext0
 3585 00ae 0100     		.2byte	0x1
 3586 00b0 56       		.byte	0x56
 3587 00b1 88020000 		.4byte	.LVL74-.Ltext0
 3588 00b5 8C020000 		.4byte	.LFE299-.Ltext0
 3589 00b9 0400     		.2byte	0x4
 3590 00bb F3       		.byte	0xf3
 3591 00bc 01       		.uleb128 0x1
 3592 00bd 52       		.byte	0x52
 3593 00be 9F       		.byte	0x9f
 3594 00bf 00000000 		.4byte	0
 3595 00c3 00000000 		.4byte	0
 3596              	.LLST20:
 3597 00c7 56020000 		.4byte	.LVL62-.Ltext0
 3598 00cb 5E020000 		.4byte	.LVL64-.Ltext0
 3599 00cf 0100     		.2byte	0x1
 3600 00d1 50       		.byte	0x50
 3601 00d2 00000000 		.4byte	0
 3602 00d6 00000000 		.4byte	0
 3603              	.LLST21:
 3604 00da 54020000 		.4byte	.LVL61-.Ltext0
 3605 00de 5C020000 		.4byte	.LVL63-.Ltext0
 3606 00e2 0200     		.2byte	0x2
 3607 00e4 30       		.byte	0x30
 3608 00e5 9F       		.byte	0x9f
 3609 00e6 5C020000 		.4byte	.LVL63-.Ltext0
 3610 00ea 6E020000 		.4byte	.LVL69-.Ltext0
 3611 00ee 0100     		.2byte	0x1
 3612 00f0 54       		.byte	0x54
 3613 00f1 72020000 		.4byte	.LVL70-.Ltext0
 3614 00f5 88020000 		.4byte	.LVL74-.Ltext0
 3615 00f9 0100     		.2byte	0x1
 3616 00fb 54       		.byte	0x54
 3617 00fc 88020000 		.4byte	.LVL74-.Ltext0
 3618 0100 8C020000 		.4byte	.LFE299-.Ltext0
 3619 0104 0100     		.2byte	0x1
 3620 0106 50       		.byte	0x50
 3621 0107 00000000 		.4byte	0
 3622 010b 00000000 		.4byte	0
 3623              	.LLST22:
 3624 010f 54020000 		.4byte	.LVL61-.Ltext0
 3625 0113 5C020000 		.4byte	.LVL63-.Ltext0
 3626 0117 0200     		.2byte	0x2
 3627 0119 30       		.byte	0x30
 3628 011a 9F       		.byte	0x9f
 3629 011b 5C020000 		.4byte	.LVL63-.Ltext0
 3630 011f 6E020000 		.4byte	.LVL69-.Ltext0
 3631 0123 0100     		.2byte	0x1
 3632 0125 52       		.byte	0x52
ARM GAS  C:\Users\RAKIBU~1\AppData\Local\Temp\cc5wOhHj.s 			page 65


 3633 0126 72020000 		.4byte	.LVL70-.Ltext0
 3634 012a 76020000 		.4byte	.LVL71-.Ltext0
 3635 012e 0100     		.2byte	0x1
 3636 0130 52       		.byte	0x52
 3637 0131 00000000 		.4byte	0
 3638 0135 00000000 		.4byte	0
 3639              	.LLST23:
 3640 0139 54020000 		.4byte	.LVL61-.Ltext0
 3641 013d 5C020000 		.4byte	.LVL63-.Ltext0
 3642 0141 0200     		.2byte	0x2
 3643 0143 30       		.byte	0x30
 3644 0144 9F       		.byte	0x9f
 3645 0145 5C020000 		.4byte	.LVL63-.Ltext0
 3646 0149 6C020000 		.4byte	.LVL68-.Ltext0
 3647 014d 0100     		.2byte	0x1
 3648 014f 51       		.byte	0x51
 3649 0150 72020000 		.4byte	.LVL70-.Ltext0
 3650 0154 7C020000 		.4byte	.LVL72-.Ltext0
 3651 0158 0100     		.2byte	0x1
 3652 015a 51       		.byte	0x51
 3653 015b 00000000 		.4byte	0
 3654 015f 00000000 		.4byte	0
 3655              	.LLST24:
 3656 0163 62020000 		.4byte	.LVL65-.Ltext0
 3657 0167 6E020000 		.4byte	.LVL69-.Ltext0
 3658 016b 0100     		.2byte	0x1
 3659 016d 53       		.byte	0x53
 3660 016e 00000000 		.4byte	0
 3661 0172 00000000 		.4byte	0
 3662              	.LLST14:
 3663 0176 80010000 		.4byte	.LVL47-.Ltext0
 3664 017a 90010000 		.4byte	.LVL48-.Ltext0
 3665 017e 0100     		.2byte	0x1
 3666 0180 50       		.byte	0x50
 3667 0181 90010000 		.4byte	.LVL48-.Ltext0
 3668 0185 38020000 		.4byte	.LFE298-.Ltext0
 3669 0189 0100     		.2byte	0x1
 3670 018b 57       		.byte	0x57
 3671 018c 00000000 		.4byte	0
 3672 0190 00000000 		.4byte	0
 3673              	.LLST15:
 3674 0194 9E010000 		.4byte	.LVL52-.Ltext0
 3675 0198 B8010000 		.4byte	.LVL54-.Ltext0
 3676 019c 0100     		.2byte	0x1
 3677 019e 56       		.byte	0x56
 3678 019f B8010000 		.4byte	.LVL54-.Ltext0
 3679 01a3 38020000 		.4byte	.LFE298-.Ltext0
 3680 01a7 0100     		.2byte	0x1
 3681 01a9 54       		.byte	0x54
 3682 01aa 00000000 		.4byte	0
 3683 01ae 00000000 		.4byte	0
 3684              	.LLST16:
 3685 01b2 9C010000 		.4byte	.LVL51-.Ltext0
 3686 01b6 B3010000 		.4byte	.LVL53-1-.Ltext0
 3687 01ba 0100     		.2byte	0x1
 3688 01bc 52       		.byte	0x52
 3689 01bd B3010000 		.4byte	.LVL53-1-.Ltext0
ARM GAS  C:\Users\RAKIBU~1\AppData\Local\Temp\cc5wOhHj.s 			page 66


 3690 01c1 38020000 		.4byte	.LFE298-.Ltext0
 3691 01c5 0300     		.2byte	0x3
 3692 01c7 78       		.byte	0x78
 3693 01c8 74       		.sleb128 -12
 3694 01c9 9F       		.byte	0x9f
 3695 01ca 00000000 		.4byte	0
 3696 01ce 00000000 		.4byte	0
 3697              	.LLST4:
 3698 01d2 60000000 		.4byte	.LVL11-.Ltext0
 3699 01d6 76000000 		.4byte	.LVL12-.Ltext0
 3700 01da 0100     		.2byte	0x1
 3701 01dc 50       		.byte	0x50
 3702 01dd 76000000 		.4byte	.LVL12-.Ltext0
 3703 01e1 9A000000 		.4byte	.LVL20-.Ltext0
 3704 01e5 0100     		.2byte	0x1
 3705 01e7 56       		.byte	0x56
 3706 01e8 9A000000 		.4byte	.LVL20-.Ltext0
 3707 01ec 9C000000 		.4byte	.LVL21-.Ltext0
 3708 01f0 0400     		.2byte	0x4
 3709 01f2 F3       		.byte	0xf3
 3710 01f3 01       		.uleb128 0x1
 3711 01f4 50       		.byte	0x50
 3712 01f5 9F       		.byte	0x9f
 3713 01f6 9C000000 		.4byte	.LVL21-.Ltext0
 3714 01fa 78010000 		.4byte	.LFE297-.Ltext0
 3715 01fe 0100     		.2byte	0x1
 3716 0200 56       		.byte	0x56
 3717 0201 00000000 		.4byte	0
 3718 0205 00000000 		.4byte	0
 3719              	.LLST5:
 3720 0209 60000000 		.4byte	.LVL11-.Ltext0
 3721 020d 79000000 		.4byte	.LVL13-1-.Ltext0
 3722 0211 0100     		.2byte	0x1
 3723 0213 51       		.byte	0x51
 3724 0214 79000000 		.4byte	.LVL13-1-.Ltext0
 3725 0218 78010000 		.4byte	.LFE297-.Ltext0
 3726 021c 0100     		.2byte	0x1
 3727 021e 58       		.byte	0x58
 3728 021f 00000000 		.4byte	0
 3729 0223 00000000 		.4byte	0
 3730              	.LLST6:
 3731 0227 60000000 		.4byte	.LVL11-.Ltext0
 3732 022b 79000000 		.4byte	.LVL13-1-.Ltext0
 3733 022f 0100     		.2byte	0x1
 3734 0231 52       		.byte	0x52
 3735 0232 79000000 		.4byte	.LVL13-1-.Ltext0
 3736 0236 78010000 		.4byte	.LFE297-.Ltext0
 3737 023a 0100     		.2byte	0x1
 3738 023c 54       		.byte	0x54
 3739 023d 00000000 		.4byte	0
 3740 0241 00000000 		.4byte	0
 3741              	.LLST7:
 3742 0245 96000000 		.4byte	.LVL18-.Ltext0
 3743 0249 98000000 		.4byte	.LVL19-.Ltext0
 3744 024d 0100     		.2byte	0x1
 3745 024f 5C       		.byte	0x5c
 3746 0250 9C000000 		.4byte	.LVL21-.Ltext0
ARM GAS  C:\Users\RAKIBU~1\AppData\Local\Temp\cc5wOhHj.s 			page 67


 3747 0254 F9000000 		.4byte	.LVL31-1-.Ltext0
 3748 0258 0100     		.2byte	0x1
 3749 025a 5C       		.byte	0x5c
 3750 025b FC000000 		.4byte	.LVL32-.Ltext0
 3751 025f 3E010000 		.4byte	.LVL39-.Ltext0
 3752 0263 0100     		.2byte	0x1
 3753 0265 5C       		.byte	0x5c
 3754 0266 40010000 		.4byte	.LVL40-.Ltext0
 3755 026a 45010000 		.4byte	.LVL41-1-.Ltext0
 3756 026e 0100     		.2byte	0x1
 3757 0270 5C       		.byte	0x5c
 3758 0271 00000000 		.4byte	0
 3759 0275 00000000 		.4byte	0
 3760              	.LLST8:
 3761 0279 9C000000 		.4byte	.LVL21-.Ltext0
 3762 027d EC000000 		.4byte	.LVL29-.Ltext0
 3763 0281 0100     		.2byte	0x1
 3764 0283 51       		.byte	0x51
 3765 0284 EC000000 		.4byte	.LVL29-.Ltext0
 3766 0288 F4000000 		.4byte	.LVL30-.Ltext0
 3767 028c 0100     		.2byte	0x1
 3768 028e 59       		.byte	0x59
 3769 028f F4000000 		.4byte	.LVL30-.Ltext0
 3770 0293 FC000000 		.4byte	.LVL32-.Ltext0
 3771 0297 0300     		.2byte	0x3
 3772 0299 79       		.byte	0x79
 3773 029a 78       		.sleb128 -8
 3774 029b 9F       		.byte	0x9f
 3775 029c FC000000 		.4byte	.LVL32-.Ltext0
 3776 02a0 08010000 		.4byte	.LVL36-.Ltext0
 3777 02a4 0100     		.2byte	0x1
 3778 02a6 51       		.byte	0x51
 3779 02a7 0E010000 		.4byte	.LVL37-.Ltext0
 3780 02ab 40010000 		.4byte	.LVL40-.Ltext0
 3781 02af 0100     		.2byte	0x1
 3782 02b1 51       		.byte	0x51
 3783 02b2 56010000 		.4byte	.LVL43-.Ltext0
 3784 02b6 5E010000 		.4byte	.LVL44-.Ltext0
 3785 02ba 0300     		.2byte	0x3
 3786 02bc 70       		.byte	0x70
 3787 02bd 78       		.sleb128 -8
 3788 02be 9F       		.byte	0x9f
 3789 02bf 00000000 		.4byte	0
 3790 02c3 00000000 		.4byte	0
 3791              	.LLST9:
 3792 02c7 9C000000 		.4byte	.LVL21-.Ltext0
 3793 02cb A4000000 		.4byte	.LVL23-.Ltext0
 3794 02cf 0100     		.2byte	0x1
 3795 02d1 53       		.byte	0x53
 3796 02d2 A4000000 		.4byte	.LVL23-.Ltext0
 3797 02d6 C4000000 		.4byte	.LVL25-.Ltext0
 3798 02da 0100     		.2byte	0x1
 3799 02dc 59       		.byte	0x59
 3800 02dd C4000000 		.4byte	.LVL25-.Ltext0
 3801 02e1 D0000000 		.4byte	.LVL28-.Ltext0
 3802 02e5 0100     		.2byte	0x1
 3803 02e7 53       		.byte	0x53
ARM GAS  C:\Users\RAKIBU~1\AppData\Local\Temp\cc5wOhHj.s 			page 68


 3804 02e8 D0000000 		.4byte	.LVL28-.Ltext0
 3805 02ec EC000000 		.4byte	.LVL29-.Ltext0
 3806 02f0 0100     		.2byte	0x1
 3807 02f2 59       		.byte	0x59
 3808 02f3 EC000000 		.4byte	.LVL29-.Ltext0
 3809 02f7 F9000000 		.4byte	.LVL31-1-.Ltext0
 3810 02fb 0E00     		.2byte	0xe
 3811 02fd 7E       		.byte	0x7e
 3812 02fe 00       		.sleb128 0
 3813 02ff 74       		.byte	0x74
 3814 0300 00       		.sleb128 0
 3815 0301 22       		.byte	0x22
 3816 0302 31       		.byte	0x31
 3817 0303 1C       		.byte	0x1c
 3818 0304 74       		.byte	0x74
 3819 0305 00       		.sleb128 0
 3820 0306 1F       		.byte	0x1f
 3821 0307 1A       		.byte	0x1a
 3822 0308 38       		.byte	0x38
 3823 0309 1C       		.byte	0x1c
 3824 030a 9F       		.byte	0x9f
 3825 030b FC000000 		.4byte	.LVL32-.Ltext0
 3826 030f FE000000 		.4byte	.LVL33-.Ltext0
 3827 0313 0100     		.2byte	0x1
 3828 0315 53       		.byte	0x53
 3829 0316 FE000000 		.4byte	.LVL33-.Ltext0
 3830 031a 04010000 		.4byte	.LVL34-.Ltext0
 3831 031e 0100     		.2byte	0x1
 3832 0320 59       		.byte	0x59
 3833 0321 04010000 		.4byte	.LVL34-.Ltext0
 3834 0325 06010000 		.4byte	.LVL35-.Ltext0
 3835 0329 0E00     		.2byte	0xe
 3836 032b 7E       		.byte	0x7e
 3837 032c 00       		.sleb128 0
 3838 032d 74       		.byte	0x74
 3839 032e 00       		.sleb128 0
 3840 032f 22       		.byte	0x22
 3841 0330 31       		.byte	0x31
 3842 0331 1C       		.byte	0x1c
 3843 0332 74       		.byte	0x74
 3844 0333 00       		.sleb128 0
 3845 0334 1F       		.byte	0x1f
 3846 0335 1A       		.byte	0x1a
 3847 0336 38       		.byte	0x38
 3848 0337 1C       		.byte	0x1c
 3849 0338 9F       		.byte	0x9f
 3850 0339 06010000 		.4byte	.LVL35-.Ltext0
 3851 033d 08010000 		.4byte	.LVL36-.Ltext0
 3852 0341 0100     		.2byte	0x1
 3853 0343 53       		.byte	0x53
 3854 0344 20010000 		.4byte	.LVL38-.Ltext0
 3855 0348 40010000 		.4byte	.LVL40-.Ltext0
 3856 034c 0100     		.2byte	0x1
 3857 034e 53       		.byte	0x53
 3858 034f 52010000 		.4byte	.LVL42-.Ltext0
 3859 0353 5E010000 		.4byte	.LVL44-.Ltext0
 3860 0357 0100     		.2byte	0x1
ARM GAS  C:\Users\RAKIBU~1\AppData\Local\Temp\cc5wOhHj.s 			page 69


 3861 0359 50       		.byte	0x50
 3862 035a 6A010000 		.4byte	.LVL46-.Ltext0
 3863 035e 78010000 		.4byte	.LFE297-.Ltext0
 3864 0362 0100     		.2byte	0x1
 3865 0364 50       		.byte	0x50
 3866 0365 00000000 		.4byte	0
 3867 0369 00000000 		.4byte	0
 3868              	.LLST10:
 3869 036d 88000000 		.4byte	.LVL16-.Ltext0
 3870 0371 98000000 		.4byte	.LVL19-.Ltext0
 3871 0375 0100     		.2byte	0x1
 3872 0377 55       		.byte	0x55
 3873 0378 9C000000 		.4byte	.LVL21-.Ltext0
 3874 037c CA000000 		.4byte	.LVL26-.Ltext0
 3875 0380 0100     		.2byte	0x1
 3876 0382 55       		.byte	0x55
 3877 0383 CA000000 		.4byte	.LVL26-.Ltext0
 3878 0387 EC000000 		.4byte	.LVL29-.Ltext0
 3879 038b 0300     		.2byte	0x3
 3880 038d 75       		.byte	0x75
 3881 038e 7F       		.sleb128 -1
 3882 038f 9F       		.byte	0x9f
 3883 0390 EC000000 		.4byte	.LVL29-.Ltext0
 3884 0394 FC000000 		.4byte	.LVL32-.Ltext0
 3885 0398 0500     		.2byte	0x5
 3886 039a 78       		.byte	0x78
 3887 039b 07       		.sleb128 7
 3888 039c 33       		.byte	0x33
 3889 039d 25       		.byte	0x25
 3890 039e 9F       		.byte	0x9f
 3891 039f FC000000 		.4byte	.LVL32-.Ltext0
 3892 03a3 5E010000 		.4byte	.LVL44-.Ltext0
 3893 03a7 0100     		.2byte	0x1
 3894 03a9 55       		.byte	0x55
 3895 03aa 5E010000 		.4byte	.LVL44-.Ltext0
 3896 03ae 64010000 		.4byte	.LVL45-.Ltext0
 3897 03b2 0500     		.2byte	0x5
 3898 03b4 78       		.byte	0x78
 3899 03b5 07       		.sleb128 7
 3900 03b6 33       		.byte	0x33
 3901 03b7 25       		.byte	0x25
 3902 03b8 9F       		.byte	0x9f
 3903 03b9 64010000 		.4byte	.LVL45-.Ltext0
 3904 03bd 78010000 		.4byte	.LFE297-.Ltext0
 3905 03c1 0100     		.2byte	0x1
 3906 03c3 55       		.byte	0x55
 3907 03c4 00000000 		.4byte	0
 3908 03c8 00000000 		.4byte	0
 3909              	.LLST11:
 3910 03cc A0000000 		.4byte	.LVL22-.Ltext0
 3911 03d0 B2000000 		.4byte	.LVL24-.Ltext0
 3912 03d4 0100     		.2byte	0x1
 3913 03d6 52       		.byte	0x52
 3914 03d7 B2000000 		.4byte	.LVL24-.Ltext0
 3915 03db C4000000 		.4byte	.LVL25-.Ltext0
 3916 03df 0100     		.2byte	0x1
 3917 03e1 5A       		.byte	0x5a
ARM GAS  C:\Users\RAKIBU~1\AppData\Local\Temp\cc5wOhHj.s 			page 70


 3918 03e2 00000000 		.4byte	0
 3919 03e6 00000000 		.4byte	0
 3920              	.LLST12:
 3921 03ea B2000000 		.4byte	.LVL24-.Ltext0
 3922 03ee C4000000 		.4byte	.LVL25-.Ltext0
 3923 03f2 0100     		.2byte	0x1
 3924 03f4 52       		.byte	0x52
 3925 03f5 00000000 		.4byte	0
 3926 03f9 00000000 		.4byte	0
 3927              	.LLST13:
 3928 03fd CE000000 		.4byte	.LVL27-.Ltext0
 3929 0401 EC000000 		.4byte	.LVL29-.Ltext0
 3930 0405 0100     		.2byte	0x1
 3931 0407 52       		.byte	0x52
 3932 0408 00000000 		.4byte	0
 3933 040c 00000000 		.4byte	0
 3934              	.LLST0:
 3935 0410 20000000 		.4byte	.LVL1-.Ltext0
 3936 0414 34000000 		.4byte	.LVL3-.Ltext0
 3937 0418 0100     		.2byte	0x1
 3938 041a 50       		.byte	0x50
 3939 041b 34000000 		.4byte	.LVL3-.Ltext0
 3940 041f 56000000 		.4byte	.LVL10-.Ltext0
 3941 0423 0100     		.2byte	0x1
 3942 0425 56       		.byte	0x56
 3943 0426 56000000 		.4byte	.LVL10-.Ltext0
 3944 042a 5C000000 		.4byte	.LFE296-.Ltext0
 3945 042e 0400     		.2byte	0x4
 3946 0430 F3       		.byte	0xf3
 3947 0431 01       		.uleb128 0x1
 3948 0432 50       		.byte	0x50
 3949 0433 9F       		.byte	0x9f
 3950 0434 00000000 		.4byte	0
 3951 0438 00000000 		.4byte	0
 3952              	.LLST1:
 3953 043c 20000000 		.4byte	.LVL1-.Ltext0
 3954 0440 37000000 		.4byte	.LVL4-1-.Ltext0
 3955 0444 0100     		.2byte	0x1
 3956 0446 51       		.byte	0x51
 3957 0447 37000000 		.4byte	.LVL4-1-.Ltext0
 3958 044b 3A000000 		.4byte	.LVL5-.Ltext0
 3959 044f 0100     		.2byte	0x1
 3960 0451 57       		.byte	0x57
 3961 0452 3A000000 		.4byte	.LVL5-.Ltext0
 3962 0456 5C000000 		.4byte	.LFE296-.Ltext0
 3963 045a 0400     		.2byte	0x4
 3964 045c F3       		.byte	0xf3
 3965 045d 01       		.uleb128 0x1
 3966 045e 51       		.byte	0x51
 3967 045f 9F       		.byte	0x9f
 3968 0460 00000000 		.4byte	0
 3969 0464 00000000 		.4byte	0
 3970              	.LLST2:
 3971 0468 20000000 		.4byte	.LVL1-.Ltext0
 3972 046c 37000000 		.4byte	.LVL4-1-.Ltext0
 3973 0470 0100     		.2byte	0x1
 3974 0472 52       		.byte	0x52
ARM GAS  C:\Users\RAKIBU~1\AppData\Local\Temp\cc5wOhHj.s 			page 71


 3975 0473 37000000 		.4byte	.LVL4-1-.Ltext0
 3976 0477 48000000 		.4byte	.LVL7-.Ltext0
 3977 047b 0100     		.2byte	0x1
 3978 047d 54       		.byte	0x54
 3979 047e 48000000 		.4byte	.LVL7-.Ltext0
 3980 0482 4A000000 		.4byte	.LVL8-.Ltext0
 3981 0486 0300     		.2byte	0x3
 3982 0488 74       		.byte	0x74
 3983 0489 08       		.sleb128 8
 3984 048a 9F       		.byte	0x9f
 3985 048b 4A000000 		.4byte	.LVL8-.Ltext0
 3986 048f 56000000 		.4byte	.LVL10-.Ltext0
 3987 0493 0700     		.2byte	0x7
 3988 0495 F3       		.byte	0xf3
 3989 0496 01       		.uleb128 0x1
 3990 0497 52       		.byte	0x52
 3991 0498 77       		.byte	0x77
 3992 0499 00       		.sleb128 0
 3993 049a 1C       		.byte	0x1c
 3994 049b 9F       		.byte	0x9f
 3995 049c 56000000 		.4byte	.LVL10-.Ltext0
 3996 04a0 5C000000 		.4byte	.LFE296-.Ltext0
 3997 04a4 1100     		.2byte	0x11
 3998 04a6 F3       		.byte	0xf3
 3999 04a7 01       		.uleb128 0x1
 4000 04a8 52       		.byte	0x52
 4001 04a9 F3       		.byte	0xf3
 4002 04aa 01       		.uleb128 0x1
 4003 04ab 51       		.byte	0x51
 4004 04ac 23       		.byte	0x23
 4005 04ad 07       		.uleb128 0x7
 4006 04ae 09       		.byte	0x9
 4007 04af F8       		.byte	0xf8
 4008 04b0 1A       		.byte	0x1a
 4009 04b1 1C       		.byte	0x1c
 4010 04b2 F3       		.byte	0xf3
 4011 04b3 01       		.uleb128 0x1
 4012 04b4 51       		.byte	0x51
 4013 04b5 22       		.byte	0x22
 4014 04b6 9F       		.byte	0x9f
 4015 04b7 00000000 		.4byte	0
 4016 04bb 00000000 		.4byte	0
 4017              	.LLST3:
 4018 04bf 2C000000 		.4byte	.LVL2-.Ltext0
 4019 04c3 56000000 		.4byte	.LVL10-.Ltext0
 4020 04c7 0100     		.2byte	0x1
 4021 04c9 55       		.byte	0x55
 4022 04ca 56000000 		.4byte	.LVL10-.Ltext0
 4023 04ce 5C000000 		.4byte	.LFE296-.Ltext0
 4024 04d2 0900     		.2byte	0x9
 4025 04d4 F3       		.byte	0xf3
 4026 04d5 01       		.uleb128 0x1
 4027 04d6 51       		.byte	0x51
 4028 04d7 23       		.byte	0x23
 4029 04d8 07       		.uleb128 0x7
 4030 04d9 09       		.byte	0x9
 4031 04da F8       		.byte	0xf8
ARM GAS  C:\Users\RAKIBU~1\AppData\Local\Temp\cc5wOhHj.s 			page 72


 4032 04db 1A       		.byte	0x1a
 4033 04dc 9F       		.byte	0x9f
 4034 04dd 00000000 		.4byte	0
 4035 04e1 00000000 		.4byte	0
 4036              		.section	.debug_aranges,"",%progbits
 4037 0000 1C000000 		.4byte	0x1c
 4038 0004 0200     		.2byte	0x2
 4039 0006 00000000 		.4byte	.Ldebug_info0
 4040 000a 04       		.byte	0x4
 4041 000b 00       		.byte	0
 4042 000c 0000     		.2byte	0
 4043 000e 0000     		.2byte	0
 4044 0010 00000000 		.4byte	.Ltext0
 4045 0014 8C020000 		.4byte	.Letext0-.Ltext0
 4046 0018 00000000 		.4byte	0
 4047 001c 00000000 		.4byte	0
 4048              		.section	.debug_line,"",%progbits
 4049              	.Ldebug_line0:
 4050 0000 DC040000 		.section	.debug_str,"MS",%progbits,1
 4050      0200E903 
 4050      00000201 
 4050      FB0E0D00 
 4050      01010101 
 4051              	.LASF181:
 4052 0000 746F7461 		.ascii	"totalp\000"
 4052      6C7000
 4053              	.LASF56:
 4054 0007 72656164 		.ascii	"ready_list_t\000"
 4054      795F6C69 
 4054      73745F74 
 4054      00
 4055              	.LASF4:
 4056 0014 73697A65 		.ascii	"size_t\000"
 4056      5F7400
 4057              	.LASF52:
 4058 001b 6E657874 		.ascii	"next\000"
 4058      00
 4059              	.LASF62:
 4060 0020 64656C74 		.ascii	"delta\000"
 4060      6100
 4061              	.LASF114:
 4062 0026 7264796D 		.ascii	"rdymsg\000"
 4062      736700
 4063              	.LASF20:
 4064 002d 75696E74 		.ascii	"uint64_t\000"
 4064      36345F74 
 4064      00
 4065              	.LASF78:
 4066 0036 6B65726E 		.ascii	"kernel_stats\000"
 4066      656C5F73 
 4066      74617473 
 4066      00
 4067              	.LASF5:
 4068 0043 5F5F7569 		.ascii	"__uint8_t\000"
 4068      6E74385F 
 4068      7400
 4069              	.LASF55:
ARM GAS  C:\Users\RAKIBU~1\AppData\Local\Temp\cc5wOhHj.s 			page 73


 4070 004d 70726576 		.ascii	"prev\000"
 4070      00
 4071              	.LASF88:
 4072 0052 706F7274 		.ascii	"port_intctx\000"
 4072      5F696E74 
 4072      63747800 
 4073              	.LASF159:
 4074 005e 70616765 		.ascii	"pages\000"
 4074      7300
 4075              	.LASF67:
 4076 0064 73797374 		.ascii	"system_debug_t\000"
 4076      656D5F64 
 4076      65627567 
 4076      5F7400
 4077              	.LASF182:
 4078 0073 6C617267 		.ascii	"largestp\000"
 4078      65737470 
 4078      00
 4079              	.LASF154:
 4080 007c 70726F76 		.ascii	"provider\000"
 4080      69646572 
 4080      00
 4081              	.LASF94:
 4082 0085 74797065 		.ascii	"type\000"
 4082      00
 4083              	.LASF173:
 4084 008a 73656D5F 		.ascii	"sem_list\000"
 4084      6C697374 
 4084      00
 4085              	.LASF105:
 4086 0093 776F7273 		.ascii	"worst\000"
 4086      7400
 4087              	.LASF108:
 4088 0099 74696D65 		.ascii	"time_measurement_t\000"
 4088      5F6D6561 
 4088      73757265 
 4088      6D656E74 
 4088      5F7400
 4089              	.LASF15:
 4090 00ac 6C6F6E67 		.ascii	"long long unsigned int\000"
 4090      206C6F6E 
 4090      6720756E 
 4090      7369676E 
 4090      65642069 
 4091              	.LASF101:
 4092 00c3 63685F74 		.ascii	"ch_trace_buffer_t\000"
 4092      72616365 
 4092      5F627566 
 4092      6665725F 
 4092      7400
 4093              	.LASF115:
 4094 00d5 65786974 		.ascii	"exitcode\000"
 4094      636F6465 
 4094      00
 4095              	.LASF77:
 4096 00de 6D61696E 		.ascii	"mainthread\000"
 4096      74687265 
ARM GAS  C:\Users\RAKIBU~1\AppData\Local\Temp\cc5wOhHj.s 			page 74


 4096      616400
 4097              	.LASF117:
 4098 00e9 73656E74 		.ascii	"sentmsg\000"
 4098      6D736700 
 4099              	.LASF64:
 4100 00f1 76697274 		.ascii	"virtual_timers_list_t\000"
 4100      75616C5F 
 4100      74696D65 
 4100      72735F6C 
 4100      6973745F 
 4101              	.LASF81:
 4102 0107 49544D5F 		.ascii	"ITM_RxBuffer\000"
 4102      52784275 
 4102      66666572 
 4102      00
 4103              	.LASF180:
 4104 0114 68656170 		.ascii	"heapp\000"
 4104      7000
 4105              	.LASF166:
 4106 011a 64796E5F 		.ascii	"dyn_element_t\000"
 4106      656C656D 
 4106      656E745F 
 4106      7400
 4107              	.LASF163:
 4108 0128 616C6967 		.ascii	"align\000"
 4108      6E00
 4109              	.LASF22:
 4110 012e 72747469 		.ascii	"rttime_t\000"
 4110      6D655F74 
 4110      00
 4111              	.LASF192:
 4112 0137 5F686561 		.ascii	"_heap_init\000"
 4112      705F696E 
 4112      697400
 4113              	.LASF194:
 4114 0142 63684D74 		.ascii	"chMtxUnlock\000"
 4114      78556E6C 
 4114      6F636B00 
 4115              	.LASF3:
 4116 014e 7369676E 		.ascii	"signed char\000"
 4116      65642063 
 4116      68617200 
 4117              	.LASF165:
 4118 015a 63685F64 		.ascii	"ch_dyn_element\000"
 4118      796E5F65 
 4118      6C656D65 
 4118      6E7400
 4119              	.LASF99:
 4120 0169 73697A65 		.ascii	"size\000"
 4120      00
 4121              	.LASF75:
 4122 016e 726C6973 		.ascii	"rlist\000"
 4122      7400
 4123              	.LASF190:
 4124 0174 63684865 		.ascii	"chHeapFree\000"
 4124      61704672 
 4124      656500
ARM GAS  C:\Users\RAKIBU~1\AppData\Local\Temp\cc5wOhHj.s 			page 75


 4125              	.LASF76:
 4126 017f 76746C69 		.ascii	"vtlist\000"
 4126      737400
 4127              	.LASF38:
 4128 0186 73746174 		.ascii	"state\000"
 4128      6500
 4129              	.LASF11:
 4130 018c 6C6F6E67 		.ascii	"long int\000"
 4130      20696E74 
 4130      00
 4131              	.LASF98:
 4132 0195 73757370 		.ascii	"suspended\000"
 4132      656E6465 
 4132      6400
 4133              	.LASF24:
 4134 019f 74737461 		.ascii	"tstate_t\000"
 4134      74655F74 
 4134      00
 4135              	.LASF97:
 4136 01a8 63685F74 		.ascii	"ch_trace_event_t\000"
 4136      72616365 
 4136      5F657665 
 4136      6E745F74 
 4136      00
 4137              	.LASF63:
 4138 01b9 66756E63 		.ascii	"func\000"
 4138      00
 4139              	.LASF47:
 4140 01be 73746174 		.ascii	"stats\000"
 4140      7300
 4141              	.LASF189:
 4142 01c4 62706167 		.ascii	"bpages\000"
 4142      657300
 4143              	.LASF1:
 4144 01cb 6C6F6E67 		.ascii	"long long int\000"
 4144      206C6F6E 
 4144      6720696E 
 4144      7400
 4145              	.LASF147:
 4146 01d9 6D656D67 		.ascii	"memgetfunc2_t\000"
 4146      65746675 
 4146      6E63325F 
 4146      7400
 4147              	.LASF142:
 4148 01e7 63686465 		.ascii	"chdebug_t\000"
 4148      6275675F 
 4148      7400
 4149              	.LASF140:
 4150 01f1 6F66665F 		.ascii	"off_preempt\000"
 4150      70726565 
 4150      6D707400 
 4151              	.LASF100:
 4152 01fd 62756666 		.ascii	"buffer\000"
 4152      657200
 4153              	.LASF156:
 4154 0204 68656170 		.ascii	"heap_header_t\000"
 4154      5F686561 
ARM GAS  C:\Users\RAKIBU~1\AppData\Local\Temp\cc5wOhHj.s 			page 76


 4154      6465725F 
 4154      7400
 4155              	.LASF12:
 4156 0212 5F5F7569 		.ascii	"__uint32_t\000"
 4156      6E743332 
 4156      5F7400
 4157              	.LASF85:
 4158 021d 72656761 		.ascii	"regarm_t\000"
 4158      726D5F74 
 4158      00
 4159              	.LASF175:
 4160 0226 6D62785F 		.ascii	"mbx_list\000"
 4160      6C697374 
 4160      00
 4161              	.LASF68:
 4162 022f 63685F73 		.ascii	"ch_system_debug\000"
 4162      79737465 
 4162      6D5F6465 
 4162      62756700 
 4163              	.LASF41:
 4164 023f 77616974 		.ascii	"waiting\000"
 4164      696E6700 
 4165              	.LASF84:
 4166 0247 41504250 		.ascii	"APBPrescTable\000"
 4166      72657363 
 4166      5461626C 
 4166      6500
 4167              	.LASF126:
 4168 0255 7A65726F 		.ascii	"zero\000"
 4168      00
 4169              	.LASF144:
 4170 025a 6D757465 		.ascii	"mutex_t\000"
 4170      785F7400 
 4171              	.LASF71:
 4172 0262 6C6F636B 		.ascii	"lock_cnt\000"
 4172      5F636E74 
 4172      00
 4173              	.LASF80:
 4174 026b 73797369 		.ascii	"sysinterval_t\000"
 4174      6E746572 
 4174      76616C5F 
 4174      7400
 4175              	.LASF29:
 4176 0279 636E745F 		.ascii	"cnt_t\000"
 4176      7400
 4177              	.LASF42:
 4178 027f 6D736771 		.ascii	"msgqueue\000"
 4178      75657565 
 4178      00
 4179              	.LASF0:
 4180 0288 756E7369 		.ascii	"unsigned int\000"
 4180      676E6564 
 4180      20696E74 
 4180      00
 4181              	.LASF17:
 4182 0295 75696E74 		.ascii	"uint16_t\000"
 4182      31365F74 
ARM GAS  C:\Users\RAKIBU~1\AppData\Local\Temp\cc5wOhHj.s 			page 77


 4182      00
 4183              	.LASF82:
 4184 029e 53797374 		.ascii	"SystemCoreClock\000"
 4184      656D436F 
 4184      7265436C 
 4184      6F636B00 
 4185              	.LASF118:
 4186 02ae 77747365 		.ascii	"wtsemp\000"
 4186      6D7000
 4187              	.LASF116:
 4188 02b5 77747472 		.ascii	"wttrp\000"
 4188      7000
 4189              	.LASF143:
 4190 02bb 63685F64 		.ascii	"ch_debug\000"
 4190      65627567 
 4190      00
 4191              	.LASF106:
 4192 02c4 6C617374 		.ascii	"last\000"
 4192      00
 4193              	.LASF164:
 4194 02c9 6D656D6F 		.ascii	"memory_pool_t\000"
 4194      72795F70 
 4194      6F6F6C5F 
 4194      7400
 4195              	.LASF109:
 4196 02d7 6E5F6972 		.ascii	"n_irq\000"
 4196      7100
 4197              	.LASF32:
 4198 02dd 71756575 		.ascii	"queue\000"
 4198      6500
 4199              	.LASF46:
 4200 02e3 6D706F6F 		.ascii	"mpool\000"
 4200      6C00
 4201              	.LASF185:
 4202 02e9 6C706167 		.ascii	"lpages\000"
 4202      657300
 4203              	.LASF139:
 4204 02f0 6F66665F 		.ascii	"off_refs\000"
 4204      72656673 
 4204      00
 4205              	.LASF113:
 4206 02f9 6B65726E 		.ascii	"kernel_stats_t\000"
 4206      656C5F73 
 4206      74617473 
 4206      5F7400
 4207              	.LASF36:
 4208 0308 6E616D65 		.ascii	"name\000"
 4208      00
 4209              	.LASF50:
 4210 030d 63685F74 		.ascii	"ch_thread\000"
 4210      68726561 
 4210      6400
 4211              	.LASF27:
 4212 0317 6D73675F 		.ascii	"msg_t\000"
 4212      7400
 4213              	.LASF30:
 4214 031d 75636E74 		.ascii	"ucnt_t\000"
ARM GAS  C:\Users\RAKIBU~1\AppData\Local\Temp\cc5wOhHj.s 			page 78


 4214      5F7400
 4215              	.LASF43:
 4216 0324 6570656E 		.ascii	"epending\000"
 4216      64696E67 
 4216      00
 4217              	.LASF168:
 4218 032d 64796E5F 		.ascii	"dyn_list_t\000"
 4218      6C697374 
 4218      5F7400
 4219              	.LASF152:
 4220 0338 6D656D6F 		.ascii	"memory_heap_t\000"
 4220      72795F68 
 4220      6561705F 
 4220      7400
 4221              	.LASF132:
 4222 0346 6F66665F 		.ascii	"off_ctx\000"
 4222      63747800 
 4223              	.LASF23:
 4224 034e 746D6F64 		.ascii	"tmode_t\000"
 4224      655F7400 
 4225              	.LASF112:
 4226 0356 6D5F6372 		.ascii	"m_crit_isr\000"
 4226      69745F69 
 4226      737200
 4227              	.LASF57:
 4228 0361 63685F72 		.ascii	"ch_ready_list\000"
 4228      65616479 
 4228      5F6C6973 
 4228      7400
 4229              	.LASF28:
 4230 036f 6576656E 		.ascii	"eventmask_t\000"
 4230      746D6173 
 4230      6B5F7400 
 4231              	.LASF83:
 4232 037b 41484250 		.ascii	"AHBPrescTable\000"
 4232      72657363 
 4232      5461626C 
 4232      6500
 4233              	.LASF149:
 4234 0389 656E646D 		.ascii	"endmem\000"
 4234      656D00
 4235              	.LASF10:
 4236 0390 5F5F696E 		.ascii	"__int32_t\000"
 4236      7433325F 
 4236      7400
 4237              	.LASF86:
 4238 039a 73746B61 		.ascii	"stkalign_t\000"
 4238      6C69676E 
 4238      5F7400
 4239              	.LASF191:
 4240 03a5 63684865 		.ascii	"chHeapObjectInit\000"
 4240      61704F62 
 4240      6A656374 
 4240      496E6974 
 4240      00
 4241              	.LASF95:
 4242 03b6 72747374 		.ascii	"rtstamp\000"
ARM GAS  C:\Users\RAKIBU~1\AppData\Local\Temp\cc5wOhHj.s 			page 79


 4242      616D7000 
 4243              	.LASF45:
 4244 03be 7265616C 		.ascii	"realprio\000"
 4244      7072696F 
 4244      00
 4245              	.LASF127:
 4246 03c7 76657273 		.ascii	"version\000"
 4246      696F6E00 
 4247              	.LASF195:
 4248 03cf 63685379 		.ascii	"chSysHalt\000"
 4248      7348616C 
 4248      7400
 4249              	.LASF21:
 4250 03d9 7274636E 		.ascii	"rtcnt_t\000"
 4250      745F7400 
 4251              	.LASF48:
 4252 03e1 74687265 		.ascii	"thread_reference_t\000"
 4252      61645F72 
 4252      65666572 
 4252      656E6365 
 4252      5F7400
 4253              	.LASF65:
 4254 03f4 63685F76 		.ascii	"ch_virtual_timers_list\000"
 4254      69727475 
 4254      616C5F74 
 4254      696D6572 
 4254      735F6C69 
 4255              	.LASF2:
 4256 040b 6C6F6E67 		.ascii	"long double\000"
 4256      20646F75 
 4256      626C6500 
 4257              	.LASF167:
 4258 0417 63685F64 		.ascii	"ch_dyn_list\000"
 4258      796E5F6C 
 4258      69737400 
 4259              	.LASF133:
 4260 0423 6F66665F 		.ascii	"off_newer\000"
 4260      6E657765 
 4260      7200
 4261              	.LASF193:
 4262 042d 63684D74 		.ascii	"chMtxLock\000"
 4262      784C6F63 
 4262      6B00
 4263              	.LASF87:
 4264 0437 706F7274 		.ascii	"port_context\000"
 4264      5F636F6E 
 4264      74657874 
 4264      00
 4265              	.LASF103:
 4266 0444 746D5F63 		.ascii	"tm_calibration_t\000"
 4266      616C6962 
 4266      72617469 
 4266      6F6E5F74 
 4266      00
 4267              	.LASF197:
 4268 0455 474E5520 		.ascii	"GNU C11 7.2.1 20170904 (release) [ARM/embedded-7-br"
 4268      43313120 
ARM GAS  C:\Users\RAKIBU~1\AppData\Local\Temp\cc5wOhHj.s 			page 80


 4268      372E322E 
 4268      31203230 
 4268      31373039 
 4269 0488 616E6368 		.ascii	"anch revision 255204] -mcpu=cortex-m4 -mthumb -ggdb"
 4269      20726576 
 4269      6973696F 
 4269      6E203235 
 4269      35323034 
 4270 04bb 202D4F67 		.ascii	" -Og -fomit-frame-pointer -falign-functions=16\000"
 4270      202D666F 
 4270      6D69742D 
 4270      6672616D 
 4270      652D706F 
 4271              	.LASF96:
 4272 04ea 74696D65 		.ascii	"time\000"
 4272      00
 4273              	.LASF33:
 4274 04ef 7072696F 		.ascii	"prio\000"
 4274      00
 4275              	.LASF174:
 4276 04f4 73656D5F 		.ascii	"sem_pool\000"
 4276      706F6F6C 
 4276      00
 4277              	.LASF58:
 4278 04fd 63757272 		.ascii	"current\000"
 4278      656E7400 
 4279              	.LASF14:
 4280 0505 5F5F7569 		.ascii	"__uint64_t\000"
 4280      6E743634 
 4280      5F7400
 4281              	.LASF150:
 4282 0510 6D656D63 		.ascii	"memcore_t\000"
 4282      6F72655F 
 4282      7400
 4283              	.LASF107:
 4284 051a 63756D75 		.ascii	"cumulative\000"
 4284      6C617469 
 4284      766500
 4285              	.LASF158:
 4286 0525 75736564 		.ascii	"used\000"
 4286      00
 4287              	.LASF25:
 4288 052a 74726566 		.ascii	"trefs_t\000"
 4288      735F7400 
 4289              	.LASF130:
 4290 0532 74687265 		.ascii	"threadsize\000"
 4290      61647369 
 4290      7A6500
 4291              	.LASF40:
 4292 053d 72656673 		.ascii	"refs\000"
 4292      00
 4293              	.LASF60:
 4294 0542 76697274 		.ascii	"virtual_timer_t\000"
 4294      75616C5F 
 4294      74696D65 
 4294      725F7400 
 4295              	.LASF93:
ARM GAS  C:\Users\RAKIBU~1\AppData\Local\Temp\cc5wOhHj.s 			page 81


 4296 0552 75736572 		.ascii	"user\000"
 4296      00
 4297              	.LASF26:
 4298 0557 74707269 		.ascii	"tprio_t\000"
 4298      6F5F7400 
 4299              	.LASF172:
 4300 055f 6275665F 		.ascii	"buf_list\000"
 4300      6C697374 
 4300      00
 4301              	.LASF110:
 4302 0568 6E5F6374 		.ascii	"n_ctxswc\000"
 4302      78737763 
 4302      00
 4303              	.LASF145:
 4304 0571 5F426F6F 		.ascii	"_Bool\000"
 4304      6C00
 4305              	.LASF18:
 4306 0577 696E7433 		.ascii	"int32_t\000"
 4306      325F7400 
 4307              	.LASF6:
 4308 057f 756E7369 		.ascii	"unsigned char\000"
 4308      676E6564 
 4308      20636861 
 4308      7200
 4309              	.LASF131:
 4310 058d 6F66665F 		.ascii	"off_prio\000"
 4310      7072696F 
 4310      00
 4311              	.LASF136:
 4312 0596 6F66665F 		.ascii	"off_stklimit\000"
 4312      73746B6C 
 4312      696D6974 
 4312      00
 4313              	.LASF7:
 4314 05a3 73686F72 		.ascii	"short int\000"
 4314      7420696E 
 4314      7400
 4315              	.LASF66:
 4316 05ad 6C617374 		.ascii	"lasttime\000"
 4316      74696D65 
 4316      00
 4317              	.LASF92:
 4318 05b6 68616C74 		.ascii	"halt\000"
 4318      00
 4319              	.LASF200:
 4320 05bb 68656170 		.ascii	"heap_header\000"
 4320      5F686561 
 4320      64657200 
 4321              	.LASF120:
 4322 05c7 65776D61 		.ascii	"ewmask\000"
 4322      736B00
 4323              	.LASF74:
 4324 05ce 63685F73 		.ascii	"ch_system\000"
 4324      79737465 
 4324      6D00
 4325              	.LASF188:
 4326 05d8 5F5F6675 		.ascii	"__func__\000"
ARM GAS  C:\Users\RAKIBU~1\AppData\Local\Temp\cc5wOhHj.s 			page 82


 4326      6E635F5F 
 4326      00
 4327              	.LASF179:
 4328 05e1 63685F66 		.ascii	"ch_factory\000"
 4328      6163746F 
 4328      727900
 4329              	.LASF171:
 4330 05ec 6F626A5F 		.ascii	"obj_pool\000"
 4330      706F6F6C 
 4330      00
 4331              	.LASF91:
 4332 05f5 72656173 		.ascii	"reason\000"
 4332      6F6E00
 4333              	.LASF61:
 4334 05fc 63685F76 		.ascii	"ch_virtual_timer\000"
 4334      69727475 
 4334      616C5F74 
 4334      696D6572 
 4334      00
 4335              	.LASF121:
 4336 060d 63685F73 		.ascii	"ch_semaphore\000"
 4336      656D6170 
 4336      686F7265 
 4336      00
 4337              	.LASF141:
 4338 061a 6F66665F 		.ascii	"off_time\000"
 4338      74696D65 
 4338      00
 4339              	.LASF124:
 4340 0623 63685F69 		.ascii	"ch_idle_thread_wa\000"
 4340      646C655F 
 4340      74687265 
 4340      61645F77 
 4340      6100
 4341              	.LASF129:
 4342 0635 74696D65 		.ascii	"timesize\000"
 4342      73697A65 
 4342      00
 4343              	.LASF184:
 4344 063e 74706167 		.ascii	"tpages\000"
 4344      657300
 4345              	.LASF177:
 4346 0645 70697065 		.ascii	"pipe_list\000"
 4346      5F6C6973 
 4346      7400
 4347              	.LASF19:
 4348 064f 75696E74 		.ascii	"uint32_t\000"
 4348      33325F74 
 4348      00
 4349              	.LASF119:
 4350 0658 77746D74 		.ascii	"wtmtxp\000"
 4350      787000
 4351              	.LASF51:
 4352 065f 63685F74 		.ascii	"ch_threads_list\000"
 4352      68726561 
 4352      64735F6C 
 4352      69737400 
ARM GAS  C:\Users\RAKIBU~1\AppData\Local\Temp\cc5wOhHj.s 			page 83


 4353              	.LASF123:
 4354 066f 6F776E65 		.ascii	"owner\000"
 4354      7200
 4355              	.LASF160:
 4356 0675 68656170 		.ascii	"heap\000"
 4356      00
 4357              	.LASF13:
 4358 067a 6C6F6E67 		.ascii	"long unsigned int\000"
 4358      20756E73 
 4358      69676E65 
 4358      6420696E 
 4358      7400
 4359              	.LASF37:
 4360 068c 77616261 		.ascii	"wabase\000"
 4360      736500
 4361              	.LASF183:
 4362 0693 64656661 		.ascii	"default_heap\000"
 4362      756C745F 
 4362      68656170 
 4362      00
 4363              	.LASF90:
 4364 06a0 63686172 		.ascii	"char\000"
 4364      00
 4365              	.LASF35:
 4366 06a5 6F6C6465 		.ascii	"older\000"
 4366      7200
 4367              	.LASF170:
 4368 06ab 6F626A5F 		.ascii	"obj_list\000"
 4368      6C697374 
 4368      00
 4369              	.LASF8:
 4370 06b4 5F5F7569 		.ascii	"__uint16_t\000"
 4370      6E743136 
 4370      5F7400
 4371              	.LASF31:
 4372 06bf 74687265 		.ascii	"thread_t\000"
 4372      61645F74 
 4372      00
 4373              	.LASF104:
 4374 06c8 62657374 		.ascii	"best\000"
 4374      00
 4375              	.LASF151:
 4376 06cd 63685F6D 		.ascii	"ch_memcore\000"
 4376      656D636F 
 4376      726500
 4377              	.LASF79:
 4378 06d8 73797374 		.ascii	"systime_t\000"
 4378      696D655F 
 4378      7400
 4379              	.LASF59:
 4380 06e2 76746675 		.ascii	"vtfunc_t\000"
 4380      6E635F74 
 4380      00
 4381              	.LASF196:
 4382 06eb 63684D74 		.ascii	"chMtxObjectInit\000"
 4382      784F626A 
 4382      65637449 
ARM GAS  C:\Users\RAKIBU~1\AppData\Local\Temp\cc5wOhHj.s 			page 84


 4382      6E697400 
 4383              	.LASF69:
 4384 06fb 70616E69 		.ascii	"panic_msg\000"
 4384      635F6D73 
 4384      6700
 4385              	.LASF102:
 4386 0705 6F666673 		.ascii	"offset\000"
 4386      657400
 4387              	.LASF187:
 4388 070c 63684865 		.ascii	"chHeapAllocAligned\000"
 4388      6170416C 
 4388      6C6F6341 
 4388      6C69676E 
 4388      656400
 4389              	.LASF122:
 4390 071f 63685F6D 		.ascii	"ch_mutex\000"
 4390      75746578 
 4390      00
 4391              	.LASF134:
 4392 0728 6F66665F 		.ascii	"off_older\000"
 4392      6F6C6465 
 4392      7200
 4393              	.LASF9:
 4394 0732 73686F72 		.ascii	"short unsigned int\000"
 4394      7420756E 
 4394      7369676E 
 4394      65642069 
 4394      6E7400
 4395              	.LASF157:
 4396 0745 66726565 		.ascii	"free\000"
 4396      00
 4397              	.LASF73:
 4398 074a 63685F73 		.ascii	"ch_system_t\000"
 4398      79737465 
 4398      6D5F7400 
 4399              	.LASF125:
 4400 0756 6964656E 		.ascii	"identifier\000"
 4400      74696669 
 4400      657200
 4401              	.LASF146:
 4402 0761 6D656D67 		.ascii	"memgetfunc_t\000"
 4402      65746675 
 4402      6E635F74 
 4402      00
 4403              	.LASF34:
 4404 076e 6E657765 		.ascii	"newer\000"
 4404      7200
 4405              	.LASF162:
 4406 0774 6F626A65 		.ascii	"object_size\000"
 4406      63745F73 
 4406      697A6500 
 4407              	.LASF186:
 4408 0780 63684865 		.ascii	"chHeapStatus\000"
 4408      61705374 
 4408      61747573 
 4408      00
 4409              	.LASF128:
ARM GAS  C:\Users\RAKIBU~1\AppData\Local\Temp\cc5wOhHj.s 			page 85


 4410 078d 70747273 		.ascii	"ptrsize\000"
 4410      697A6500 
 4411              	.LASF169:
 4412 0795 63685F6F 		.ascii	"ch_objects_factory\000"
 4412      626A6563 
 4412      74735F66 
 4412      6163746F 
 4412      727900
 4413              	.LASF53:
 4414 07a8 74687265 		.ascii	"threads_queue_t\000"
 4414      6164735F 
 4414      71756575 
 4414      655F7400 
 4415              	.LASF161:
 4416 07b8 706F6F6C 		.ascii	"pool_header\000"
 4416      5F686561 
 4416      64657200 
 4417              	.LASF70:
 4418 07c4 6973725F 		.ascii	"isr_cnt\000"
 4418      636E7400 
 4419              	.LASF198:
 4420 07cc 2E2E2F2E 		.ascii	"../../../ChibiOSRepo/chibios191/os/oslib/src/chmemh"
 4420      2E2F2E2E 
 4420      2F436869 
 4420      62694F53 
 4420      5265706F 
 4421 07ff 65617073 		.ascii	"eaps.c\000"
 4421      2E6300
 4422              	.LASF135:
 4423 0806 6F66665F 		.ascii	"off_name\000"
 4423      6E616D65 
 4423      00
 4424              	.LASF16:
 4425 080f 75696E74 		.ascii	"uint8_t\000"
 4425      385F7400 
 4426              	.LASF199:
 4427 0817 433A5C55 		.ascii	"C:\\Users\\RakibulChowdhury\\OneDrive - DIAS Geophy"
 4427      73657273 
 4427      5C52616B 
 4427      6962756C 
 4427      43686F77 
 4428 0847 73696361 		.ascii	"sical\\Dias32FirmwareDevelopment\\FirmwareRepo\\Dia"
 4428      6C5C4469 
 4428      61733332 
 4428      4669726D 
 4428      77617265 
 4429 0877 73333257 		.ascii	"s32Workspace\\DIAS-Gen2-testing\000"
 4429      6F726B73 
 4429      70616365 
 4429      5C444941 
 4429      532D4765 
 4430              	.LASF39:
 4431 0896 666C6167 		.ascii	"flags\000"
 4431      7300
 4432              	.LASF176:
 4433 089c 6669666F 		.ascii	"fifo_list\000"
 4433      5F6C6973 
ARM GAS  C:\Users\RAKIBU~1\AppData\Local\Temp\cc5wOhHj.s 			page 86


 4433      7400
 4434              	.LASF89:
 4435 08a6 77746F62 		.ascii	"wtobjp\000"
 4435      6A7000
 4436              	.LASF49:
 4437 08ad 74687265 		.ascii	"threads_list_t\000"
 4437      6164735F 
 4437      6C697374 
 4437      5F7400
 4438              	.LASF137:
 4439 08bc 6F66665F 		.ascii	"off_state\000"
 4439      73746174 
 4439      6500
 4440              	.LASF72:
 4441 08c6 74726163 		.ascii	"trace_buffer\000"
 4441      655F6275 
 4441      66666572 
 4441      00
 4442              	.LASF178:
 4443 08d3 6F626A65 		.ascii	"objects_factory_t\000"
 4443      6374735F 
 4443      66616374 
 4443      6F72795F 
 4443      7400
 4444              	.LASF138:
 4445 08e5 6F66665F 		.ascii	"off_flags\000"
 4445      666C6167 
 4445      7300
 4446              	.LASF44:
 4447 08ef 6D74786C 		.ascii	"mtxlist\000"
 4447      69737400 
 4448              	.LASF111:
 4449 08f7 6D5F6372 		.ascii	"m_crit_thd\000"
 4449      69745F74 
 4449      686400
 4450              	.LASF155:
 4451 0902 68656164 		.ascii	"header\000"
 4451      657200
 4452              	.LASF148:
 4453 0909 6E657874 		.ascii	"nextmem\000"
 4453      6D656D00 
 4454              	.LASF54:
 4455 0911 63685F74 		.ascii	"ch_threads_queue\000"
 4455      68726561 
 4455      64735F71 
 4455      75657565 
 4455      00
 4456              	.LASF153:
 4457 0922 6D656D6F 		.ascii	"memory_heap\000"
 4457      72795F68 
 4457      65617000 
 4458              		.ident	"GCC: (GNU Tools for Arm Embedded Processors 7-2017-q4-major) 7.2.1 20170904 (release) [ARM
ARM GAS  C:\Users\RAKIBU~1\AppData\Local\Temp\cc5wOhHj.s 			page 87


DEFINED SYMBOLS
                            *ABS*:00000000 chmemheaps.c
C:\Users\RAKIBU~1\AppData\Local\Temp\cc5wOhHj.s:15     .text:00000000 $t
C:\Users\RAKIBU~1\AppData\Local\Temp\cc5wOhHj.s:23     .text:00000000 _heap_init
C:\Users\RAKIBU~1\AppData\Local\Temp\cc5wOhHj.s:52     .text:00000018 $d
C:\Users\RAKIBU~1\AppData\Local\Temp\cc5wOhHj.s:57     .text:00000020 $t
C:\Users\RAKIBU~1\AppData\Local\Temp\cc5wOhHj.s:65     .text:00000020 chHeapObjectInit
C:\Users\RAKIBU~1\AppData\Local\Temp\cc5wOhHj.s:128    .text:00000058 $d
C:\Users\RAKIBU~1\AppData\Local\Temp\cc5wOhHj.s:132    .text:0000005c $t
C:\Users\RAKIBU~1\AppData\Local\Temp\cc5wOhHj.s:140    .text:00000060 chHeapAllocAligned
C:\Users\RAKIBU~1\AppData\Local\Temp\cc5wOhHj.s:363    .text:00000170 $d
C:\Users\RAKIBU~1\AppData\Local\Temp\cc5wOhHj.s:368    .text:00000178 $t
C:\Users\RAKIBU~1\AppData\Local\Temp\cc5wOhHj.s:376    .text:00000180 chHeapFree
C:\Users\RAKIBU~1\AppData\Local\Temp\cc5wOhHj.s:513    .text:00000234 $d
C:\Users\RAKIBU~1\AppData\Local\Temp\cc5wOhHj.s:517    .text:00000238 $t
C:\Users\RAKIBU~1\AppData\Local\Temp\cc5wOhHj.s:525    .text:00000240 chHeapStatus
C:\Users\RAKIBU~1\AppData\Local\Temp\cc5wOhHj.s:617    .text:00000288 $d
C:\Users\RAKIBU~1\AppData\Local\Temp\cc5wOhHj.s:622    .rodata:00000000 $d
C:\Users\RAKIBU~1\AppData\Local\Temp\cc5wOhHj.s:626    .rodata:00000000 __func__.7113
C:\Users\RAKIBU~1\AppData\Local\Temp\cc5wOhHj.s:631    .rodata:00000014 __func__.7123
C:\Users\RAKIBU~1\AppData\Local\Temp\cc5wOhHj.s:636    .rodata:00000028 __func__.7136
C:\Users\RAKIBU~1\AppData\Local\Temp\cc5wOhHj.s:639    .bss:00000000 $d
C:\Users\RAKIBU~1\AppData\Local\Temp\cc5wOhHj.s:643    .bss:00000000 default_heap

UNDEFINED SYMBOLS
chMtxObjectInit
chCoreAllocAlignedWithOffset
chSysHalt
chMtxLock
chMtxUnlock
