ARM GAS  C:\Users\RAKIBU~1\AppData\Local\Temp\ccHskV3j.s 			page 1


   1              		.cpu cortex-m4
   2              		.eabi_attribute 20, 1
   3              		.eabi_attribute 21, 1
   4              		.eabi_attribute 23, 3
   5              		.eabi_attribute 24, 1
   6              		.eabi_attribute 25, 1
   7              		.eabi_attribute 26, 1
   8              		.eabi_attribute 30, 1
   9              		.eabi_attribute 34, 1
  10              		.eabi_attribute 18, 4
  11              		.file	"chmemcore.c"
  12              		.text
  13              	.Ltext0:
  14              		.cfi_sections	.debug_frame
  15              		.align	1
  16              		.p2align 4,,15
  17              		.global	_core_init
  18              		.syntax unified
  19              		.thumb
  20              		.thumb_func
  21              		.fpu softvfp
  22              		.type	_core_init, %function
  23              	_core_init:
  24              	.LFB295:
  25              		.file 1 "../../../ChibiOSRepo/chibios191/os/oslib/src/chmemcore.c"
  26              		.loc 1 81 0
  27              		.cfi_startproc
  28              		@ args = 0, pretend = 0, frame = 0
  29              		@ frame_needed = 0, uses_anonymous_args = 0
  30              		@ link register save eliminated.
  31              		.loc 1 87 0
  32 0000 024B     		ldr	r3, .L2
  33 0002 034A     		ldr	r2, .L2+4
  34 0004 1A60     		str	r2, [r3]
  35              		.loc 1 88 0
  36 0006 034A     		ldr	r2, .L2+8
  37 0008 5A60     		str	r2, [r3, #4]
  38              		.loc 1 96 0
  39 000a 7047     		bx	lr
  40              	.L3:
  41              		.align	2
  42              	.L2:
  43 000c 00000000 		.word	ch_memcore
  44 0010 00000000 		.word	__heap_base__
  45 0014 00000000 		.word	__heap_end__
  46              		.cfi_endproc
  47              	.LFE295:
  48              		.size	_core_init, .-_core_init
  49              		.align	1
  50 0018 AFF30080 		.p2align 4,,15
  50      AFF30080 
  51              		.global	chCoreAllocAlignedWithOffsetI
  52              		.syntax unified
  53              		.thumb
  54              		.thumb_func
  55              		.fpu softvfp
  56              		.type	chCoreAllocAlignedWithOffsetI, %function
ARM GAS  C:\Users\RAKIBU~1\AppData\Local\Temp\ccHskV3j.s 			page 2


  57              	chCoreAllocAlignedWithOffsetI:
  58              	.LFB296:
  59              		.loc 1 114 0
  60              		.cfi_startproc
  61              		@ args = 0, pretend = 0, frame = 0
  62              		@ frame_needed = 0, uses_anonymous_args = 0
  63              	.LVL0:
  64 0020 70B5     		push	{r4, r5, r6, lr}
  65              		.cfi_def_cfa_offset 16
  66              		.cfi_offset 4, -16
  67              		.cfi_offset 5, -12
  68              		.cfi_offset 6, -8
  69              		.cfi_offset 14, -4
  70 0022 0446     		mov	r4, r0
  71 0024 0E46     		mov	r6, r1
  72 0026 1546     		mov	r5, r2
  73              		.loc 1 117 0
  74 0028 FFF7FEFF 		bl	chDbgCheckClassI
  75              	.LVL1:
  76              		.loc 1 118 0
  77 002c 16B1     		cbz	r6, .L5
  78              		.loc 1 118 0 is_stmt 0 discriminator 3
  79 002e 731E     		subs	r3, r6, #1
  80 0030 3342     		tst	r3, r6
  81 0032 02D0     		beq	.L6
  82              	.L5:
  83              		.loc 1 118 0 discriminator 4
  84 0034 0C48     		ldr	r0, .L11
  85 0036 FFF7FEFF 		bl	chSysHalt
  86              	.LVL2:
  87              	.L6:
  88              		.loc 1 120 0 is_stmt 1
  89 003a 3319     		adds	r3, r6, r4
  90 003c 013B     		subs	r3, r3, #1
  91 003e 7242     		negs	r2, r6
  92 0040 1340     		ands	r3, r3, r2
  93              	.LVL3:
  94              		.loc 1 121 0
  95 0042 0A49     		ldr	r1, .L11+4
  96 0044 0C68     		ldr	r4, [r1]
  97 0046 6019     		adds	r0, r4, r5
  98 0048 3044     		add	r0, r0, r6
  99 004a 0138     		subs	r0, r0, #1
 100 004c 1040     		ands	r0, r0, r2
 101              	.LVL4:
 102              		.loc 1 122 0
 103 004e 0344     		add	r3, r3, r0
 104              	.LVL5:
 105              		.loc 1 125 0
 106 0050 4A68     		ldr	r2, [r1, #4]
 107              	.LVL6:
 108 0052 9A42     		cmp	r2, r3
 109 0054 03D3     		bcc	.L8
 110              		.loc 1 125 0 is_stmt 0 discriminator 1
 111 0056 9C42     		cmp	r4, r3
 112 0058 03D8     		bhi	.L9
 113              		.loc 1 129 0 is_stmt 1
ARM GAS  C:\Users\RAKIBU~1\AppData\Local\Temp\ccHskV3j.s 			page 3


 114 005a 0B60     		str	r3, [r1]
 115              	.LVL7:
 116              	.L4:
 117              		.loc 1 132 0
 118 005c 70BD     		pop	{r4, r5, r6, pc}
 119              	.LVL8:
 120              	.L8:
 121              		.loc 1 126 0
 122 005e 0020     		movs	r0, #0
 123              	.LVL9:
 124 0060 FCE7     		b	.L4
 125              	.LVL10:
 126              	.L9:
 127 0062 0020     		movs	r0, #0
 128              	.LVL11:
 129 0064 FAE7     		b	.L4
 130              	.L12:
 131 0066 00BF     		.align	2
 132              	.L11:
 133 0068 00000000 		.word	.LANCHOR0
 134 006c 00000000 		.word	ch_memcore
 135              		.cfi_endproc
 136              	.LFE296:
 137              		.size	chCoreAllocAlignedWithOffsetI, .-chCoreAllocAlignedWithOffsetI
 138              		.align	1
 139              		.p2align 4,,15
 140              		.global	chCoreAllocAlignedWithOffset
 141              		.syntax unified
 142              		.thumb
 143              		.thumb_func
 144              		.fpu softvfp
 145              		.type	chCoreAllocAlignedWithOffset, %function
 146              	chCoreAllocAlignedWithOffset:
 147              	.LFB297:
 148              		.loc 1 150 0
 149              		.cfi_startproc
 150              		@ args = 0, pretend = 0, frame = 0
 151              		@ frame_needed = 0, uses_anonymous_args = 0
 152              	.LVL12:
 153 0070 70B5     		push	{r4, r5, r6, lr}
 154              		.cfi_def_cfa_offset 16
 155              		.cfi_offset 4, -16
 156              		.cfi_offset 5, -12
 157              		.cfi_offset 6, -8
 158              		.cfi_offset 14, -4
 159 0072 0446     		mov	r4, r0
 160 0074 0D46     		mov	r5, r1
 161 0076 1646     		mov	r6, r2
 162              	.LVL13:
 163              	.LBB29:
 164              	.LBB30:
 165              	.LBB31:
 166              	.LBB32:
 167              	.LBB33:
 168              		.file 2 "../../../ChibiOSRepo/chibios191/os/common/ext/ARM/CMSIS/Core/Include/cmsis_gcc.h"
 169              		.loc 2 493 0
 170 0078 2023     		movs	r3, #32
ARM GAS  C:\Users\RAKIBU~1\AppData\Local\Temp\ccHskV3j.s 			page 4


 171              		.syntax unified
 172              	@ 493 "../../../ChibiOSRepo/chibios191/os/common/ext/ARM/CMSIS/Core/Include/cmsis_gcc.h" 1
 173 007a 83F31188 		MSR basepri, r3
 174              	@ 0 "" 2
 175              	.LVL14:
 176              		.thumb
 177              		.syntax unified
 178              	.LBE33:
 179              	.LBE32:
 180              	.LBE31:
 181              		.file 3 "../../../ChibiOSRepo/chibios191/os/rt/include/chsys.h"
 182              		.loc 3 356 0
 183 007e FFF7FEFF 		bl	_stats_start_measure_crit_thd
 184              	.LVL15:
 185              		.loc 3 357 0
 186 0082 FFF7FEFF 		bl	_dbg_check_lock
 187              	.LVL16:
 188              	.LBE30:
 189              	.LBE29:
 190              		.loc 1 154 0
 191 0086 3246     		mov	r2, r6
 192 0088 2946     		mov	r1, r5
 193 008a 2046     		mov	r0, r4
 194 008c FFF7FEFF 		bl	chCoreAllocAlignedWithOffsetI
 195              	.LVL17:
 196 0090 0446     		mov	r4, r0
 197              	.LVL18:
 198              	.LBB34:
 199              	.LBB35:
 200              		.loc 3 367 0
 201 0092 FFF7FEFF 		bl	_dbg_check_unlock
 202              	.LVL19:
 203              		.loc 3 368 0
 204 0096 FFF7FEFF 		bl	_stats_stop_measure_crit_thd
 205              	.LVL20:
 206              		.loc 3 374 0
 207 009a 094B     		ldr	r3, .L17
 208 009c 1A68     		ldr	r2, [r3]
 209 009e 9A42     		cmp	r2, r3
 210 00a0 04D0     		beq	.L14
 211 00a2 9B69     		ldr	r3, [r3, #24]
 212 00a4 9968     		ldr	r1, [r3, #8]
 213 00a6 9368     		ldr	r3, [r2, #8]
 214 00a8 9942     		cmp	r1, r3
 215 00aa 04D3     		bcc	.L16
 216              	.L14:
 217              	.LVL21:
 218              	.LBB36:
 219              	.LBB37:
 220              	.LBB38:
 221              		.loc 2 493 0
 222 00ac 0023     		movs	r3, #0
 223              		.syntax unified
 224              	@ 493 "../../../ChibiOSRepo/chibios191/os/common/ext/ARM/CMSIS/Core/Include/cmsis_gcc.h" 1
 225 00ae 83F31188 		MSR basepri, r3
 226              	@ 0 "" 2
 227              	.LVL22:
ARM GAS  C:\Users\RAKIBU~1\AppData\Local\Temp\ccHskV3j.s 			page 5


 228              		.thumb
 229              		.syntax unified
 230              	.LBE38:
 231              	.LBE37:
 232              	.LBE36:
 233              	.LBE35:
 234              	.LBE34:
 235              		.loc 1 158 0
 236 00b2 2046     		mov	r0, r4
 237 00b4 70BD     		pop	{r4, r5, r6, pc}
 238              	.LVL23:
 239              	.L16:
 240              	.LBB40:
 241              	.LBB39:
 242              		.loc 3 374 0
 243 00b6 0348     		ldr	r0, .L17+4
 244 00b8 FFF7FEFF 		bl	chSysHalt
 245              	.LVL24:
 246 00bc F6E7     		b	.L14
 247              	.L18:
 248 00be 00BF     		.align	2
 249              	.L17:
 250 00c0 00000000 		.word	ch
 251 00c4 20000000 		.word	.LANCHOR0+32
 252              	.LBE39:
 253              	.LBE40:
 254              		.cfi_endproc
 255              	.LFE297:
 256              		.size	chCoreAllocAlignedWithOffset, .-chCoreAllocAlignedWithOffset
 257              		.align	1
 258 00c8 AFF30080 		.p2align 4,,15
 258      AFF30080 
 259              		.global	chCoreGetStatusX
 260              		.syntax unified
 261              		.thumb
 262              		.thumb_func
 263              		.fpu softvfp
 264              		.type	chCoreGetStatusX, %function
 265              	chCoreGetStatusX:
 266              	.LFB298:
 267              		.loc 1 167 0
 268              		.cfi_startproc
 269              		@ args = 0, pretend = 0, frame = 0
 270              		@ frame_needed = 0, uses_anonymous_args = 0
 271              		@ link register save eliminated.
 272              		.loc 1 170 0
 273 00d0 024B     		ldr	r3, .L20
 274 00d2 5868     		ldr	r0, [r3, #4]
 275 00d4 1B68     		ldr	r3, [r3]
 276              		.loc 1 172 0
 277 00d6 C01A     		subs	r0, r0, r3
 278 00d8 7047     		bx	lr
 279              	.L21:
 280 00da 00BF     		.align	2
 281              	.L20:
 282 00dc 00000000 		.word	ch_memcore
 283              		.cfi_endproc
ARM GAS  C:\Users\RAKIBU~1\AppData\Local\Temp\ccHskV3j.s 			page 6


 284              	.LFE298:
 285              		.size	chCoreGetStatusX, .-chCoreGetStatusX
 286              		.comm	ch_memcore,8,4
 287              		.section	.rodata
 288              		.align	2
 289              		.set	.LANCHOR0,. + 0
 290              		.type	__func__.7118, %object
 291              		.size	__func__.7118, 30
 292              	__func__.7118:
 293 0000 6368436F 		.ascii	"chCoreAllocAlignedWithOffsetI\000"
 293      7265416C 
 293      6C6F6341 
 293      6C69676E 
 293      65645769 
 294 001e 0000     		.space	2
 295              		.type	__func__.6118, %object
 296              		.size	__func__.6118, 12
 297              	__func__.6118:
 298 0020 63685379 		.ascii	"chSysUnlock\000"
 298      73556E6C 
 298      6F636B00 
 299              		.text
 300              	.Letext0:
 301              		.file 4 "c:\\chibistudio\\tools\\gnu tools arm embedded\\7.0 2017q4\\lib\\gcc\\arm-none-eabi\\7.2.
 302              		.file 5 "c:\\chibistudio\\tools\\gnu tools arm embedded\\7.0 2017q4\\arm-none-eabi\\include\\machi
 303              		.file 6 "c:\\chibistudio\\tools\\gnu tools arm embedded\\7.0 2017q4\\arm-none-eabi\\include\\sys\\
 304              		.file 7 "../../../ChibiOSRepo/chibios191/os/common/ports/ARMCMx/compilers/GCC/chtypes.h"
 305              		.file 8 "../../../ChibiOSRepo/chibios191/os/rt/include/chsystypes.h"
 306              		.file 9 "../../../ChibiOSRepo/chibios191/os/rt/include/chschd.h"
 307              		.file 10 "../../../ChibiOSRepo/chibios191/os/rt/include/chtime.h"
 308              		.file 11 "../../../ChibiOSRepo/chibios191/os/common/ext/ARM/CMSIS/Core/Include/core_cm4.h"
 309              		.file 12 "../../../ChibiOSRepo/chibios191/os/common/ext/ST/STM32F4xx/system_stm32f4xx.h"
 310              		.file 13 "../../../ChibiOSRepo/chibios191/os/common/ports/ARMCMx/chcore.h"
 311              		.file 14 "../../../ChibiOSRepo/chibios191/os/common/ports/ARMCMx/chcore_v7m.h"
 312              		.file 15 "../../../ChibiOSRepo/chibios191/os/rt/include/chtrace.h"
 313              		.file 16 "../../../ChibiOSRepo/chibios191/os/rt/include/chtm.h"
 314              		.file 17 "../../../ChibiOSRepo/chibios191/os/rt/include/chstats.h"
 315              		.file 18 "../../../ChibiOSRepo/chibios191/os/rt/include/chsem.h"
 316              		.file 19 "../../../ChibiOSRepo/chibios191/os/rt/include/chmtx.h"
 317              		.file 20 "../../../ChibiOSRepo/chibios191/os/rt/include/chregistry.h"
 318              		.file 21 "../../../ChibiOSRepo/chibios191/os/oslib/include/chmemcore.h"
 319              		.file 22 "../../../ChibiOSRepo/chibios191/os/oslib/include/chmempools.h"
 320              		.file 23 "../../../ChibiOSRepo/chibios191/os/oslib/include/chfactory.h"
 321              		.file 24 "../../../ChibiOSRepo/chibios191/os/rt/include/chdebug.h"
 322              		.file 25 "../../../ChibiOSRepo/chibios191/os/rt/include/ch.h"
 323              		.section	.debug_info,"",%progbits
 324              	.Ldebug_info0:
 325 0000 A80E0000 		.4byte	0xea8
 326 0004 0400     		.2byte	0x4
 327 0006 00000000 		.4byte	.Ldebug_abbrev0
 328 000a 04       		.byte	0x4
 329 000b 01       		.uleb128 0x1
 330 000c C1040000 		.4byte	.LASF187
 331 0010 0C       		.byte	0xc
 332 0011 6D030000 		.4byte	.LASF188
 333 0015 33080000 		.4byte	.LASF189
 334 0019 00000000 		.4byte	.Ltext0
ARM GAS  C:\Users\RAKIBU~1\AppData\Local\Temp\ccHskV3j.s 			page 7


 335 001d E0000000 		.4byte	.Letext0-.Ltext0
 336 0021 00000000 		.4byte	.Ldebug_line0
 337 0025 02       		.uleb128 0x2
 338 0026 04       		.byte	0x4
 339 0027 05       		.byte	0x5
 340 0028 696E7400 		.ascii	"int\000"
 341 002c 03       		.uleb128 0x3
 342 002d 0D000000 		.4byte	.LASF4
 343 0031 04       		.byte	0x4
 344 0032 D8       		.byte	0xd8
 345 0033 37000000 		.4byte	0x37
 346 0037 04       		.uleb128 0x4
 347 0038 04       		.byte	0x4
 348 0039 07       		.byte	0x7
 349 003a BB020000 		.4byte	.LASF0
 350 003e 04       		.uleb128 0x4
 351 003f 08       		.byte	0x8
 352 0040 05       		.byte	0x5
 353 0041 5E010000 		.4byte	.LASF1
 354 0045 04       		.uleb128 0x4
 355 0046 08       		.byte	0x8
 356 0047 04       		.byte	0x4
 357 0048 83040000 		.4byte	.LASF2
 358 004c 04       		.uleb128 0x4
 359 004d 01       		.byte	0x1
 360 004e 06       		.byte	0x6
 361 004f 6C010000 		.4byte	.LASF3
 362 0053 03       		.uleb128 0x3
 363 0054 3C000000 		.4byte	.LASF5
 364 0058 05       		.byte	0x5
 365 0059 2B       		.byte	0x2b
 366 005a 5E000000 		.4byte	0x5e
 367 005e 04       		.uleb128 0x4
 368 005f 01       		.byte	0x1
 369 0060 08       		.byte	0x8
 370 0061 04060000 		.4byte	.LASF6
 371 0065 04       		.uleb128 0x4
 372 0066 02       		.byte	0x2
 373 0067 05       		.byte	0x5
 374 0068 26060000 		.4byte	.LASF7
 375 006c 03       		.uleb128 0x3
 376 006d 41070000 		.4byte	.LASF8
 377 0071 05       		.byte	0x5
 378 0072 39       		.byte	0x39
 379 0073 77000000 		.4byte	0x77
 380 0077 04       		.uleb128 0x4
 381 0078 02       		.byte	0x2
 382 0079 07       		.byte	0x7
 383 007a AA070000 		.4byte	.LASF9
 384 007e 03       		.uleb128 0x3
 385 007f F0030000 		.4byte	.LASF10
 386 0083 05       		.byte	0x5
 387 0084 4D       		.byte	0x4d
 388 0085 89000000 		.4byte	0x89
 389 0089 04       		.uleb128 0x4
 390 008a 04       		.byte	0x4
 391 008b 05       		.byte	0x5
ARM GAS  C:\Users\RAKIBU~1\AppData\Local\Temp\ccHskV3j.s 			page 8


 392 008c C4010000 		.4byte	.LASF11
 393 0090 03       		.uleb128 0x3
 394 0091 45020000 		.4byte	.LASF12
 395 0095 05       		.byte	0x5
 396 0096 4F       		.byte	0x4f
 397 0097 9B000000 		.4byte	0x9b
 398 009b 04       		.uleb128 0x4
 399 009c 04       		.byte	0x4
 400 009d 07       		.byte	0x7
 401 009e 14070000 		.4byte	.LASF13
 402 00a2 03       		.uleb128 0x3
 403 00a3 8F050000 		.4byte	.LASF14
 404 00a7 05       		.byte	0x5
 405 00a8 69       		.byte	0x69
 406 00a9 AD000000 		.4byte	0xad
 407 00ad 04       		.uleb128 0x4
 408 00ae 08       		.byte	0x8
 409 00af 07       		.byte	0x7
 410 00b0 BE000000 		.4byte	.LASF15
 411 00b4 03       		.uleb128 0x3
 412 00b5 1E080000 		.4byte	.LASF16
 413 00b9 06       		.byte	0x6
 414 00ba 18       		.byte	0x18
 415 00bb 53000000 		.4byte	0x53
 416 00bf 05       		.uleb128 0x5
 417 00c0 B4000000 		.4byte	0xb4
 418 00c4 03       		.uleb128 0x3
 419 00c5 1F020000 		.4byte	.LASF17
 420 00c9 06       		.byte	0x6
 421 00ca 24       		.byte	0x24
 422 00cb 6C000000 		.4byte	0x6c
 423 00cf 03       		.uleb128 0x3
 424 00d0 FC050000 		.4byte	.LASF18
 425 00d4 06       		.byte	0x6
 426 00d5 2C       		.byte	0x2c
 427 00d6 7E000000 		.4byte	0x7e
 428 00da 06       		.uleb128 0x6
 429 00db CF000000 		.4byte	0xcf
 430 00df 03       		.uleb128 0x3
 431 00e0 EE060000 		.4byte	.LASF19
 432 00e4 06       		.byte	0x6
 433 00e5 30       		.byte	0x30
 434 00e6 90000000 		.4byte	0x90
 435 00ea 03       		.uleb128 0x3
 436 00eb 26000000 		.4byte	.LASF20
 437 00ef 06       		.byte	0x6
 438 00f0 3C       		.byte	0x3c
 439 00f1 A2000000 		.4byte	0xa2
 440 00f5 03       		.uleb128 0x3
 441 00f6 41040000 		.4byte	.LASF21
 442 00fa 07       		.byte	0x7
 443 00fb 27       		.byte	0x27
 444 00fc DF000000 		.4byte	0xdf
 445 0100 03       		.uleb128 0x3
 446 0101 55010000 		.4byte	.LASF22
 447 0105 07       		.byte	0x7
 448 0106 28       		.byte	0x28
ARM GAS  C:\Users\RAKIBU~1\AppData\Local\Temp\ccHskV3j.s 			page 9


 449 0107 EA000000 		.4byte	0xea
 450 010b 03       		.uleb128 0x3
 451 010c AE030000 		.4byte	.LASF23
 452 0110 07       		.byte	0x7
 453 0111 2A       		.byte	0x2a
 454 0112 B4000000 		.4byte	0xb4
 455 0116 03       		.uleb128 0x3
 456 0117 D7010000 		.4byte	.LASF24
 457 011b 07       		.byte	0x7
 458 011c 2B       		.byte	0x2b
 459 011d B4000000 		.4byte	0xb4
 460 0121 03       		.uleb128 0x3
 461 0122 AF050000 		.4byte	.LASF25
 462 0126 07       		.byte	0x7
 463 0127 2C       		.byte	0x2c
 464 0128 B4000000 		.4byte	0xb4
 465 012c 03       		.uleb128 0x3
 466 012d DC050000 		.4byte	.LASF26
 467 0131 07       		.byte	0x7
 468 0132 2E       		.byte	0x2e
 469 0133 DF000000 		.4byte	0xdf
 470 0137 03       		.uleb128 0x3
 471 0138 3A030000 		.4byte	.LASF27
 472 013c 07       		.byte	0x7
 473 013d 2F       		.byte	0x2f
 474 013e CF000000 		.4byte	0xcf
 475 0142 03       		.uleb128 0x3
 476 0143 CF030000 		.4byte	.LASF28
 477 0147 07       		.byte	0x7
 478 0148 31       		.byte	0x31
 479 0149 DF000000 		.4byte	0xdf
 480 014d 03       		.uleb128 0x3
 481 014e AC020000 		.4byte	.LASF29
 482 0152 07       		.byte	0x7
 483 0153 33       		.byte	0x33
 484 0154 CF000000 		.4byte	0xcf
 485 0158 03       		.uleb128 0x3
 486 0159 40030000 		.4byte	.LASF30
 487 015d 07       		.byte	0x7
 488 015e 34       		.byte	0x34
 489 015f DF000000 		.4byte	0xdf
 490 0163 03       		.uleb128 0x3
 491 0164 4C070000 		.4byte	.LASF31
 492 0168 08       		.byte	0x8
 493 0169 34       		.byte	0x34
 494 016a 6E010000 		.4byte	0x16e
 495 016e 07       		.uleb128 0x7
 496 016f 30030000 		.4byte	.LASF50
 497 0173 60       		.byte	0x60
 498 0174 09       		.byte	0x9
 499 0175 8E       		.byte	0x8e
 500 0176 59020000 		.4byte	0x259
 501 017a 08       		.uleb128 0x8
 502 017b 07030000 		.4byte	.LASF32
 503 017f 09       		.byte	0x9
 504 0180 8F       		.byte	0x8f
 505 0181 8E020000 		.4byte	0x28e
ARM GAS  C:\Users\RAKIBU~1\AppData\Local\Temp\ccHskV3j.s 			page 10


 506 0185 00       		.byte	0
 507 0186 08       		.uleb128 0x8
 508 0187 5B050000 		.4byte	.LASF33
 509 018b 09       		.byte	0x9
 510 018c 90       		.byte	0x90
 511 018d 2C010000 		.4byte	0x12c
 512 0191 08       		.byte	0x8
 513 0192 09       		.uleb128 0x9
 514 0193 63747800 		.ascii	"ctx\000"
 515 0197 09       		.byte	0x9
 516 0198 91       		.byte	0x91
 517 0199 25050000 		.4byte	0x525
 518 019d 0C       		.byte	0xc
 519 019e 08       		.uleb128 0x8
 520 019f 05040000 		.4byte	.LASF34
 521 01a3 09       		.byte	0x9
 522 01a4 93       		.byte	0x93
 523 01a5 64020000 		.4byte	0x264
 524 01a9 10       		.byte	0x10
 525 01aa 08       		.uleb128 0x8
 526 01ab 32070000 		.4byte	.LASF35
 527 01af 09       		.byte	0x9
 528 01b0 94       		.byte	0x94
 529 01b1 64020000 		.4byte	0x264
 530 01b5 14       		.byte	0x14
 531 01b6 08       		.uleb128 0x8
 532 01b7 2B030000 		.4byte	.LASF36
 533 01bb 09       		.byte	0x9
 534 01bc 9B       		.byte	0x9b
 535 01bd F5050000 		.4byte	0x5f5
 536 01c1 18       		.byte	0x18
 537 01c2 08       		.uleb128 0x8
 538 01c3 26070000 		.4byte	.LASF37
 539 01c7 09       		.byte	0x9
 540 01c8 A4       		.byte	0xa4
 541 01c9 A4080000 		.4byte	0x8a4
 542 01cd 1C       		.byte	0x1c
 543 01ce 08       		.uleb128 0x8
 544 01cf BE010000 		.4byte	.LASF38
 545 01d3 09       		.byte	0x9
 546 01d4 A9       		.byte	0xa9
 547 01d5 16010000 		.4byte	0x116
 548 01d9 20       		.byte	0x20
 549 01da 08       		.uleb128 0x8
 550 01db B2080000 		.4byte	.LASF39
 551 01df 09       		.byte	0x9
 552 01e0 AD       		.byte	0xad
 553 01e1 0B010000 		.4byte	0x10b
 554 01e5 21       		.byte	0x21
 555 01e6 08       		.uleb128 0x8
 556 01e7 C2050000 		.4byte	.LASF40
 557 01eb 09       		.byte	0x9
 558 01ec B2       		.byte	0xb2
 559 01ed 21010000 		.4byte	0x121
 560 01f1 22       		.byte	0x22
 561 01f2 0A       		.uleb128 0xa
 562 01f3 7500     		.ascii	"u\000"
ARM GAS  C:\Users\RAKIBU~1\AppData\Local\Temp\ccHskV3j.s 			page 11


 563 01f5 09       		.byte	0x9
 564 01f6 0301     		.2byte	0x103
 565 01f8 DA070000 		.4byte	0x7da
 566 01fc 24       		.byte	0x24
 567 01fd 0B       		.uleb128 0xb
 568 01fe 72020000 		.4byte	.LASF41
 569 0202 09       		.byte	0x9
 570 0203 0801     		.2byte	0x108
 571 0205 6A020000 		.4byte	0x26a
 572 0209 28       		.byte	0x28
 573 020a 0B       		.uleb128 0xb
 574 020b B2020000 		.4byte	.LASF42
 575 020f 09       		.byte	0x9
 576 0210 0E01     		.2byte	0x10e
 577 0212 8E020000 		.4byte	0x28e
 578 0216 2C       		.byte	0x2c
 579 0217 0B       		.uleb128 0xb
 580 0218 47030000 		.4byte	.LASF43
 581 021c 09       		.byte	0x9
 582 021d 1401     		.2byte	0x114
 583 021f 42010000 		.4byte	0x142
 584 0223 34       		.byte	0x34
 585 0224 0B       		.uleb128 0xb
 586 0225 29090000 		.4byte	.LASF44
 587 0229 09       		.byte	0x9
 588 022a 1B01     		.2byte	0x11b
 589 022c 9E080000 		.4byte	0x89e
 590 0230 38       		.byte	0x38
 591 0231 0B       		.uleb128 0xb
 592 0232 13040000 		.4byte	.LASF45
 593 0236 09       		.byte	0x9
 594 0237 1F01     		.2byte	0x11f
 595 0239 2C010000 		.4byte	0x12c
 596 023d 3C       		.byte	0x3c
 597 023e 0B       		.uleb128 0xb
 598 023f 0D030000 		.4byte	.LASF46
 599 0243 09       		.byte	0x9
 600 0244 2601     		.2byte	0x126
 601 0246 41030000 		.4byte	0x341
 602 024a 40       		.byte	0x40
 603 024b 0B       		.uleb128 0xb
 604 024c 0E020000 		.4byte	.LASF47
 605 0250 09       		.byte	0x9
 606 0251 2C01     		.2byte	0x12c
 607 0253 8B070000 		.4byte	0x78b
 608 0257 48       		.byte	0x48
 609 0258 00       		.byte	0
 610 0259 03       		.uleb128 0x3
 611 025a 49040000 		.4byte	.LASF48
 612 025e 08       		.byte	0x8
 613 025f 39       		.byte	0x39
 614 0260 64020000 		.4byte	0x264
 615 0264 0C       		.uleb128 0xc
 616 0265 04       		.byte	0x4
 617 0266 63010000 		.4byte	0x163
 618 026a 03       		.uleb128 0x3
 619 026b DB080000 		.4byte	.LASF49
ARM GAS  C:\Users\RAKIBU~1\AppData\Local\Temp\ccHskV3j.s 			page 12


 620 026f 08       		.byte	0x8
 621 0270 3E       		.byte	0x3e
 622 0271 75020000 		.4byte	0x275
 623 0275 07       		.uleb128 0x7
 624 0276 FE060000 		.4byte	.LASF51
 625 027a 04       		.byte	0x4
 626 027b 09       		.byte	0x9
 627 027c 7C       		.byte	0x7c
 628 027d 8E020000 		.4byte	0x28e
 629 0281 08       		.uleb128 0x8
 630 0282 14000000 		.4byte	.LASF52
 631 0286 09       		.byte	0x9
 632 0287 7D       		.byte	0x7d
 633 0288 64020000 		.4byte	0x264
 634 028c 00       		.byte	0
 635 028d 00       		.byte	0
 636 028e 03       		.uleb128 0x3
 637 028f F1070000 		.4byte	.LASF53
 638 0293 08       		.byte	0x8
 639 0294 45       		.byte	0x45
 640 0295 99020000 		.4byte	0x299
 641 0299 07       		.uleb128 0x7
 642 029a 57000000 		.4byte	.LASF54
 643 029e 08       		.byte	0x8
 644 029f 09       		.byte	0x9
 645 02a0 83       		.byte	0x83
 646 02a1 BE020000 		.4byte	0x2be
 647 02a5 08       		.uleb128 0x8
 648 02a6 14000000 		.4byte	.LASF52
 649 02aa 09       		.byte	0x9
 650 02ab 84       		.byte	0x84
 651 02ac 64020000 		.4byte	0x264
 652 02b0 00       		.byte	0
 653 02b1 08       		.uleb128 0x8
 654 02b2 46000000 		.4byte	.LASF55
 655 02b6 09       		.byte	0x9
 656 02b7 85       		.byte	0x85
 657 02b8 64020000 		.4byte	0x264
 658 02bc 04       		.byte	0x4
 659 02bd 00       		.byte	0
 660 02be 03       		.uleb128 0x3
 661 02bf 00000000 		.4byte	.LASF56
 662 02c3 08       		.byte	0x8
 663 02c4 4C       		.byte	0x4c
 664 02c5 C9020000 		.4byte	0x2c9
 665 02c9 0D       		.uleb128 0xd
 666 02ca C1030000 		.4byte	.LASF57
 667 02ce 1C       		.byte	0x1c
 668 02cf 09       		.byte	0x9
 669 02d0 5E01     		.2byte	0x15e
 670 02d2 25030000 		.4byte	0x325
 671 02d6 0B       		.uleb128 0xb
 672 02d7 07030000 		.4byte	.LASF32
 673 02db 09       		.byte	0x9
 674 02dc 5F01     		.2byte	0x15f
 675 02de 8E020000 		.4byte	0x28e
 676 02e2 00       		.byte	0
ARM GAS  C:\Users\RAKIBU~1\AppData\Local\Temp\ccHskV3j.s 			page 13


 677 02e3 0B       		.uleb128 0xb
 678 02e4 5B050000 		.4byte	.LASF33
 679 02e8 09       		.byte	0x9
 680 02e9 6001     		.2byte	0x160
 681 02eb 2C010000 		.4byte	0x12c
 682 02ef 08       		.byte	0x8
 683 02f0 0A       		.uleb128 0xa
 684 02f1 63747800 		.ascii	"ctx\000"
 685 02f5 09       		.byte	0x9
 686 02f6 6201     		.2byte	0x162
 687 02f8 25050000 		.4byte	0x525
 688 02fc 0C       		.byte	0xc
 689 02fd 0B       		.uleb128 0xb
 690 02fe 05040000 		.4byte	.LASF34
 691 0302 09       		.byte	0x9
 692 0303 6501     		.2byte	0x165
 693 0305 64020000 		.4byte	0x264
 694 0309 10       		.byte	0x10
 695 030a 0B       		.uleb128 0xb
 696 030b 32070000 		.4byte	.LASF35
 697 030f 09       		.byte	0x9
 698 0310 6601     		.2byte	0x166
 699 0312 64020000 		.4byte	0x264
 700 0316 14       		.byte	0x14
 701 0317 0B       		.uleb128 0xb
 702 0318 69050000 		.4byte	.LASF58
 703 031c 09       		.byte	0x9
 704 031d 6901     		.2byte	0x169
 705 031f 64020000 		.4byte	0x264
 706 0323 18       		.byte	0x18
 707 0324 00       		.byte	0
 708 0325 03       		.uleb128 0x3
 709 0326 6F070000 		.4byte	.LASF59
 710 032a 08       		.byte	0x8
 711 032b 51       		.byte	0x51
 712 032c 30030000 		.4byte	0x330
 713 0330 0C       		.uleb128 0xc
 714 0331 04       		.byte	0x4
 715 0332 36030000 		.4byte	0x336
 716 0336 0E       		.uleb128 0xe
 717 0337 41030000 		.4byte	0x341
 718 033b 0F       		.uleb128 0xf
 719 033c 41030000 		.4byte	0x341
 720 0340 00       		.byte	0
 721 0341 10       		.uleb128 0x10
 722 0342 04       		.byte	0x4
 723 0343 03       		.uleb128 0x3
 724 0344 C7050000 		.4byte	.LASF60
 725 0348 08       		.byte	0x8
 726 0349 56       		.byte	0x56
 727 034a 4E030000 		.4byte	0x34e
 728 034e 0D       		.uleb128 0xd
 729 034f A2060000 		.4byte	.LASF61
 730 0353 18       		.byte	0x18
 731 0354 09       		.byte	0x9
 732 0355 3901     		.2byte	0x139
 733 0357 9D030000 		.4byte	0x39d
ARM GAS  C:\Users\RAKIBU~1\AppData\Local\Temp\ccHskV3j.s 			page 14


 734 035b 0B       		.uleb128 0xb
 735 035c 14000000 		.4byte	.LASF52
 736 0360 09       		.byte	0x9
 737 0361 3A01     		.2byte	0x13a
 738 0363 AA080000 		.4byte	0x8aa
 739 0367 00       		.byte	0
 740 0368 0B       		.uleb128 0xb
 741 0369 46000000 		.4byte	.LASF55
 742 036d 09       		.byte	0x9
 743 036e 3B01     		.2byte	0x13b
 744 0370 AA080000 		.4byte	0x8aa
 745 0374 04       		.byte	0x4
 746 0375 0B       		.uleb128 0xb
 747 0376 19000000 		.4byte	.LASF62
 748 037a 09       		.byte	0x9
 749 037b 3C01     		.2byte	0x13c
 750 037d AD040000 		.4byte	0x4ad
 751 0381 08       		.byte	0x8
 752 0382 0B       		.uleb128 0xb
 753 0383 3C010000 		.4byte	.LASF63
 754 0387 09       		.byte	0x9
 755 0388 3D01     		.2byte	0x13d
 756 038a 25030000 		.4byte	0x325
 757 038e 10       		.byte	0x10
 758 038f 0A       		.uleb128 0xa
 759 0390 70617200 		.ascii	"par\000"
 760 0394 09       		.byte	0x9
 761 0395 3F01     		.2byte	0x13f
 762 0397 41030000 		.4byte	0x341
 763 039b 14       		.byte	0x14
 764 039c 00       		.byte	0
 765 039d 03       		.uleb128 0x3
 766 039e 19010000 		.4byte	.LASF64
 767 03a2 08       		.byte	0x8
 768 03a3 5B       		.byte	0x5b
 769 03a4 A8030000 		.4byte	0x3a8
 770 03a8 0D       		.uleb128 0xd
 771 03a9 6C040000 		.4byte	.LASF65
 772 03ad 18       		.byte	0x18
 773 03ae 09       		.byte	0x9
 774 03af 4901     		.2byte	0x149
 775 03b1 EA030000 		.4byte	0x3ea
 776 03b5 0B       		.uleb128 0xb
 777 03b6 14000000 		.4byte	.LASF52
 778 03ba 09       		.byte	0x9
 779 03bb 4A01     		.2byte	0x14a
 780 03bd AA080000 		.4byte	0x8aa
 781 03c1 00       		.byte	0
 782 03c2 0B       		.uleb128 0xb
 783 03c3 46000000 		.4byte	.LASF55
 784 03c7 09       		.byte	0x9
 785 03c8 4C01     		.2byte	0x14c
 786 03ca AA080000 		.4byte	0x8aa
 787 03ce 04       		.byte	0x4
 788 03cf 0B       		.uleb128 0xb
 789 03d0 19000000 		.4byte	.LASF62
 790 03d4 09       		.byte	0x9
ARM GAS  C:\Users\RAKIBU~1\AppData\Local\Temp\ccHskV3j.s 			page 15


 791 03d5 4E01     		.2byte	0x14e
 792 03d7 AD040000 		.4byte	0x4ad
 793 03db 08       		.byte	0x8
 794 03dc 0B       		.uleb128 0xb
 795 03dd 3E060000 		.4byte	.LASF66
 796 03e1 09       		.byte	0x9
 797 03e2 5601     		.2byte	0x156
 798 03e4 A2040000 		.4byte	0x4a2
 799 03e8 10       		.byte	0x10
 800 03e9 00       		.byte	0
 801 03ea 03       		.uleb128 0x3
 802 03eb 68000000 		.4byte	.LASF67
 803 03ef 08       		.byte	0x8
 804 03f0 60       		.byte	0x60
 805 03f1 F5030000 		.4byte	0x3f5
 806 03f5 11       		.uleb128 0x11
 807 03f6 62020000 		.4byte	.LASF68
 808 03fa 1408     		.2byte	0x814
 809 03fc 09       		.byte	0x9
 810 03fd 7001     		.2byte	0x170
 811 03ff 38040000 		.4byte	0x438
 812 0403 0B       		.uleb128 0xb
 813 0404 86070000 		.4byte	.LASF69
 814 0408 09       		.byte	0x9
 815 0409 7801     		.2byte	0x178
 816 040b FB050000 		.4byte	0x5fb
 817 040f 00       		.byte	0
 818 0410 0B       		.uleb128 0xb
 819 0411 0D080000 		.4byte	.LASF70
 820 0415 09       		.byte	0x9
 821 0416 7D01     		.2byte	0x17d
 822 0418 4D010000 		.4byte	0x14d
 823 041c 04       		.byte	0x4
 824 041d 0B       		.uleb128 0xb
 825 041e 95020000 		.4byte	.LASF71
 826 0422 09       		.byte	0x9
 827 0423 8101     		.2byte	0x181
 828 0425 4D010000 		.4byte	0x14d
 829 0429 08       		.byte	0x8
 830 042a 0B       		.uleb128 0xb
 831 042b F4080000 		.4byte	.LASF72
 832 042f 09       		.byte	0x9
 833 0430 8701     		.2byte	0x187
 834 0432 1D070000 		.4byte	0x71d
 835 0436 0C       		.byte	0xc
 836 0437 00       		.byte	0
 837 0438 03       		.uleb128 0x3
 838 0439 61030000 		.4byte	.LASF73
 839 043d 08       		.byte	0x8
 840 043e 65       		.byte	0x65
 841 043f 43040000 		.4byte	0x443
 842 0443 11       		.uleb128 0x11
 843 0444 60060000 		.4byte	.LASF74
 844 0448 F008     		.2byte	0x8f0
 845 044a 09       		.byte	0x9
 846 044b 9001     		.2byte	0x190
 847 044d A2040000 		.4byte	0x4a2
ARM GAS  C:\Users\RAKIBU~1\AppData\Local\Temp\ccHskV3j.s 			page 16


 848 0451 0B       		.uleb128 0xb
 849 0452 8C010000 		.4byte	.LASF75
 850 0456 09       		.byte	0x9
 851 0457 9401     		.2byte	0x194
 852 0459 BE020000 		.4byte	0x2be
 853 045d 00       		.byte	0
 854 045e 0B       		.uleb128 0xb
 855 045f 9A010000 		.4byte	.LASF76
 856 0463 09       		.byte	0x9
 857 0464 9801     		.2byte	0x198
 858 0466 9D030000 		.4byte	0x39d
 859 046a 20       		.byte	0x20
 860 046b 0A       		.uleb128 0xa
 861 046c 64626700 		.ascii	"dbg\000"
 862 0470 09       		.byte	0x9
 863 0471 9C01     		.2byte	0x19c
 864 0473 EA030000 		.4byte	0x3ea
 865 0477 38       		.byte	0x38
 866 0478 12       		.uleb128 0x12
 867 0479 F0000000 		.4byte	.LASF77
 868 047d 09       		.byte	0x9
 869 047e A001     		.2byte	0x1a0
 870 0480 63010000 		.4byte	0x163
 871 0484 5008     		.2byte	0x850
 872 0486 13       		.uleb128 0x13
 873 0487 746D00   		.ascii	"tm\000"
 874 048a 09       		.byte	0x9
 875 048b A501     		.2byte	0x1a5
 876 048d 3D070000 		.4byte	0x73d
 877 0491 B008     		.2byte	0x8b0
 878 0493 12       		.uleb128 0x12
 879 0494 2F000000 		.4byte	.LASF78
 880 0498 09       		.byte	0x9
 881 0499 AB01     		.2byte	0x1ab
 882 049b CF070000 		.4byte	0x7cf
 883 049f B808     		.2byte	0x8b8
 884 04a1 00       		.byte	0
 885 04a2 03       		.uleb128 0x3
 886 04a3 65070000 		.4byte	.LASF79
 887 04a7 0A       		.byte	0xa
 888 04a8 6D       		.byte	0x6d
 889 04a9 DF000000 		.4byte	0xdf
 890 04ad 03       		.uleb128 0x3
 891 04ae 9E020000 		.4byte	.LASF80
 892 04b2 0A       		.byte	0xa
 893 04b3 77       		.byte	0x77
 894 04b4 EA000000 		.4byte	0xea
 895 04b8 14       		.uleb128 0x14
 896 04b9 2F010000 		.4byte	.LASF81
 897 04bd 0B       		.byte	0xb
 898 04be 0408     		.2byte	0x804
 899 04c0 DA000000 		.4byte	0xda
 900 04c4 15       		.uleb128 0x15
 901 04c5 C8020000 		.4byte	.LASF82
 902 04c9 0C       		.byte	0xc
 903 04ca 4C       		.byte	0x4c
 904 04cb DF000000 		.4byte	0xdf
ARM GAS  C:\Users\RAKIBU~1\AppData\Local\Temp\ccHskV3j.s 			page 17


 905 04cf 16       		.uleb128 0x16
 906 04d0 BF000000 		.4byte	0xbf
 907 04d4 DF040000 		.4byte	0x4df
 908 04d8 17       		.uleb128 0x17
 909 04d9 37000000 		.4byte	0x37
 910 04dd 0F       		.byte	0xf
 911 04de 00       		.byte	0
 912 04df 05       		.uleb128 0x5
 913 04e0 CF040000 		.4byte	0x4cf
 914 04e4 15       		.uleb128 0x15
 915 04e5 DB030000 		.4byte	.LASF83
 916 04e9 0C       		.byte	0xc
 917 04ea 4E       		.byte	0x4e
 918 04eb DF040000 		.4byte	0x4df
 919 04ef 16       		.uleb128 0x16
 920 04f0 BF000000 		.4byte	0xbf
 921 04f4 FF040000 		.4byte	0x4ff
 922 04f8 17       		.uleb128 0x17
 923 04f9 37000000 		.4byte	0x37
 924 04fd 07       		.byte	0x7
 925 04fe 00       		.byte	0
 926 04ff 05       		.uleb128 0x5
 927 0500 EF040000 		.4byte	0x4ef
 928 0504 15       		.uleb128 0x15
 929 0505 7A020000 		.4byte	.LASF84
 930 0509 0C       		.byte	0xc
 931 050a 4F       		.byte	0x4f
 932 050b FF040000 		.4byte	0x4ff
 933 050f 03       		.uleb128 0x3
 934 0510 50020000 		.4byte	.LASF85
 935 0514 0D       		.byte	0xd
 936 0515 65       		.byte	0x65
 937 0516 41030000 		.4byte	0x341
 938 051a 03       		.uleb128 0x3
 939 051b FA030000 		.4byte	.LASF86
 940 051f 0D       		.byte	0xd
 941 0520 6D       		.byte	0x6d
 942 0521 EA000000 		.4byte	0xea
 943 0525 07       		.uleb128 0x7
 944 0526 98000000 		.4byte	.LASF87
 945 052a 04       		.byte	0x4
 946 052b 0D       		.byte	0xd
 947 052c 89       		.byte	0x89
 948 052d 3D050000 		.4byte	0x53d
 949 0531 09       		.uleb128 0x9
 950 0532 737000   		.ascii	"sp\000"
 951 0535 0D       		.byte	0xd
 952 0536 8A       		.byte	0x8a
 953 0537 B9050000 		.4byte	0x5b9
 954 053b 00       		.byte	0
 955 053c 00       		.byte	0
 956 053d 0D       		.uleb128 0xd
 957 053e 4B000000 		.4byte	.LASF88
 958 0542 24       		.byte	0x24
 959 0543 0E       		.byte	0xe
 960 0544 6001     		.2byte	0x160
 961 0546 B9050000 		.4byte	0x5b9
ARM GAS  C:\Users\RAKIBU~1\AppData\Local\Temp\ccHskV3j.s 			page 18


 962 054a 0A       		.uleb128 0xa
 963 054b 723400   		.ascii	"r4\000"
 964 054e 0E       		.byte	0xe
 965 054f 7301     		.2byte	0x173
 966 0551 0F050000 		.4byte	0x50f
 967 0555 00       		.byte	0
 968 0556 0A       		.uleb128 0xa
 969 0557 723500   		.ascii	"r5\000"
 970 055a 0E       		.byte	0xe
 971 055b 7401     		.2byte	0x174
 972 055d 0F050000 		.4byte	0x50f
 973 0561 04       		.byte	0x4
 974 0562 0A       		.uleb128 0xa
 975 0563 723600   		.ascii	"r6\000"
 976 0566 0E       		.byte	0xe
 977 0567 7501     		.2byte	0x175
 978 0569 0F050000 		.4byte	0x50f
 979 056d 08       		.byte	0x8
 980 056e 0A       		.uleb128 0xa
 981 056f 723700   		.ascii	"r7\000"
 982 0572 0E       		.byte	0xe
 983 0573 7601     		.2byte	0x176
 984 0575 0F050000 		.4byte	0x50f
 985 0579 0C       		.byte	0xc
 986 057a 0A       		.uleb128 0xa
 987 057b 723800   		.ascii	"r8\000"
 988 057e 0E       		.byte	0xe
 989 057f 7701     		.2byte	0x177
 990 0581 0F050000 		.4byte	0x50f
 991 0585 10       		.byte	0x10
 992 0586 0A       		.uleb128 0xa
 993 0587 723900   		.ascii	"r9\000"
 994 058a 0E       		.byte	0xe
 995 058b 7801     		.2byte	0x178
 996 058d 0F050000 		.4byte	0x50f
 997 0591 14       		.byte	0x14
 998 0592 0A       		.uleb128 0xa
 999 0593 72313000 		.ascii	"r10\000"
 1000 0597 0E       		.byte	0xe
 1001 0598 7901     		.2byte	0x179
 1002 059a 0F050000 		.4byte	0x50f
 1003 059e 18       		.byte	0x18
 1004 059f 0A       		.uleb128 0xa
 1005 05a0 72313100 		.ascii	"r11\000"
 1006 05a4 0E       		.byte	0xe
 1007 05a5 7A01     		.2byte	0x17a
 1008 05a7 0F050000 		.4byte	0x50f
 1009 05ab 1C       		.byte	0x1c
 1010 05ac 0A       		.uleb128 0xa
 1011 05ad 6C7200   		.ascii	"lr\000"
 1012 05b0 0E       		.byte	0xe
 1013 05b1 7B01     		.2byte	0x17b
 1014 05b3 0F050000 		.4byte	0x50f
 1015 05b7 20       		.byte	0x20
 1016 05b8 00       		.byte	0
 1017 05b9 0C       		.uleb128 0xc
 1018 05ba 04       		.byte	0x4
ARM GAS  C:\Users\RAKIBU~1\AppData\Local\Temp\ccHskV3j.s 			page 19


 1019 05bb 3D050000 		.4byte	0x53d
 1020 05bf 18       		.uleb128 0x18
 1021 05c0 08       		.byte	0x8
 1022 05c1 0F       		.byte	0xf
 1023 05c2 7F       		.byte	0x7f
 1024 05c3 E0050000 		.4byte	0x5e0
 1025 05c7 09       		.uleb128 0x9
 1026 05c8 6E747000 		.ascii	"ntp\000"
 1027 05cc 0F       		.byte	0xf
 1028 05cd 83       		.byte	0x83
 1029 05ce 64020000 		.4byte	0x264
 1030 05d2 00       		.byte	0
 1031 05d3 08       		.uleb128 0x8
 1032 05d4 D4080000 		.4byte	.LASF89
 1033 05d8 0F       		.byte	0xf
 1034 05d9 87       		.byte	0x87
 1035 05da 41030000 		.4byte	0x341
 1036 05de 04       		.byte	0x4
 1037 05df 00       		.byte	0
 1038 05e0 18       		.uleb128 0x18
 1039 05e1 04       		.byte	0x4
 1040 05e2 0F       		.byte	0xf
 1041 05e3 8C       		.byte	0x8c
 1042 05e4 F5050000 		.4byte	0x5f5
 1043 05e8 08       		.uleb128 0x8
 1044 05e9 2B030000 		.4byte	.LASF36
 1045 05ed 0F       		.byte	0xf
 1046 05ee 90       		.byte	0x90
 1047 05ef F5050000 		.4byte	0x5f5
 1048 05f3 00       		.byte	0
 1049 05f4 00       		.byte	0
 1050 05f5 0C       		.uleb128 0xc
 1051 05f6 04       		.byte	0x4
 1052 05f7 07060000 		.4byte	0x607
 1053 05fb 06       		.uleb128 0x6
 1054 05fc F5050000 		.4byte	0x5f5
 1055 0600 04       		.uleb128 0x4
 1056 0601 01       		.byte	0x1
 1057 0602 08       		.byte	0x8
 1058 0603 2D070000 		.4byte	.LASF90
 1059 0607 05       		.uleb128 0x5
 1060 0608 00060000 		.4byte	0x600
 1061 060c 18       		.uleb128 0x18
 1062 060d 04       		.byte	0x4
 1063 060e 0F       		.byte	0xf
 1064 060f 95       		.byte	0x95
 1065 0610 21060000 		.4byte	0x621
 1066 0614 08       		.uleb128 0x8
 1067 0615 91060000 		.4byte	.LASF91
 1068 0619 0F       		.byte	0xf
 1069 061a 99       		.byte	0x99
 1070 061b F5050000 		.4byte	0x5f5
 1071 061f 00       		.byte	0
 1072 0620 00       		.byte	0
 1073 0621 18       		.uleb128 0x18
 1074 0622 08       		.byte	0x8
 1075 0623 0F       		.byte	0xf
ARM GAS  C:\Users\RAKIBU~1\AppData\Local\Temp\ccHskV3j.s 			page 20


 1076 0624 9E       		.byte	0x9e
 1077 0625 42060000 		.4byte	0x642
 1078 0629 09       		.uleb128 0x9
 1079 062a 75703100 		.ascii	"up1\000"
 1080 062e 0F       		.byte	0xf
 1081 062f A2       		.byte	0xa2
 1082 0630 41030000 		.4byte	0x341
 1083 0634 00       		.byte	0
 1084 0635 09       		.uleb128 0x9
 1085 0636 75703200 		.ascii	"up2\000"
 1086 063a 0F       		.byte	0xf
 1087 063b A6       		.byte	0xa6
 1088 063c 41030000 		.4byte	0x341
 1089 0640 04       		.byte	0x4
 1090 0641 00       		.byte	0
 1091 0642 19       		.uleb128 0x19
 1092 0643 08       		.byte	0x8
 1093 0644 0F       		.byte	0xf
 1094 0645 7B       		.byte	0x7b
 1095 0646 76060000 		.4byte	0x676
 1096 064a 1A       		.uleb128 0x1a
 1097 064b 737700   		.ascii	"sw\000"
 1098 064e 0F       		.byte	0xf
 1099 064f 88       		.byte	0x88
 1100 0650 BF050000 		.4byte	0x5bf
 1101 0654 1A       		.uleb128 0x1a
 1102 0655 69737200 		.ascii	"isr\000"
 1103 0659 0F       		.byte	0xf
 1104 065a 91       		.byte	0x91
 1105 065b E0050000 		.4byte	0x5e0
 1106 065f 1B       		.uleb128 0x1b
 1107 0660 47060000 		.4byte	.LASF92
 1108 0664 0F       		.byte	0xf
 1109 0665 9A       		.byte	0x9a
 1110 0666 0C060000 		.4byte	0x60c
 1111 066a 1B       		.uleb128 0x1b
 1112 066b D7050000 		.4byte	.LASF93
 1113 066f 0F       		.byte	0xf
 1114 0670 A7       		.byte	0xa7
 1115 0671 21060000 		.4byte	0x621
 1116 0675 00       		.byte	0
 1117 0676 18       		.uleb128 0x18
 1118 0677 10       		.byte	0x10
 1119 0678 0F       		.byte	0xf
 1120 0679 68       		.byte	0x68
 1121 067a C2060000 		.4byte	0x6c2
 1122 067e 1C       		.uleb128 0x1c
 1123 067f 80000000 		.4byte	.LASF94
 1124 0683 0F       		.byte	0xf
 1125 0684 6C       		.byte	0x6c
 1126 0685 DF000000 		.4byte	0xdf
 1127 0689 04       		.byte	0x4
 1128 068a 03       		.byte	0x3
 1129 068b 1D       		.byte	0x1d
 1130 068c 00       		.byte	0
 1131 068d 1C       		.uleb128 0x1c
 1132 068e BE010000 		.4byte	.LASF38
ARM GAS  C:\Users\RAKIBU~1\AppData\Local\Temp\ccHskV3j.s 			page 21


 1133 0692 0F       		.byte	0xf
 1134 0693 70       		.byte	0x70
 1135 0694 DF000000 		.4byte	0xdf
 1136 0698 04       		.byte	0x4
 1137 0699 05       		.byte	0x5
 1138 069a 18       		.byte	0x18
 1139 069b 00       		.byte	0
 1140 069c 1C       		.uleb128 0x1c
 1141 069d 0B040000 		.4byte	.LASF95
 1142 06a1 0F       		.byte	0xf
 1143 06a2 76       		.byte	0x76
 1144 06a3 DF000000 		.4byte	0xdf
 1145 06a7 04       		.byte	0x4
 1146 06a8 18       		.byte	0x18
 1147 06a9 00       		.byte	0
 1148 06aa 00       		.byte	0
 1149 06ab 08       		.uleb128 0x8
 1150 06ac 56050000 		.4byte	.LASF96
 1151 06b0 0F       		.byte	0xf
 1152 06b1 7A       		.byte	0x7a
 1153 06b2 A2040000 		.4byte	0x4a2
 1154 06b6 04       		.byte	0x4
 1155 06b7 09       		.uleb128 0x9
 1156 06b8 7500     		.ascii	"u\000"
 1157 06ba 0F       		.byte	0xf
 1158 06bb A8       		.byte	0xa8
 1159 06bc 42060000 		.4byte	0x642
 1160 06c0 08       		.byte	0x8
 1161 06c1 00       		.byte	0
 1162 06c2 03       		.uleb128 0x3
 1163 06c3 E0010000 		.4byte	.LASF97
 1164 06c7 0F       		.byte	0xf
 1165 06c8 A9       		.byte	0xa9
 1166 06c9 76060000 		.4byte	0x676
 1167 06cd 1D       		.uleb128 0x1d
 1168 06ce 0808     		.2byte	0x808
 1169 06d0 0F       		.byte	0xf
 1170 06d1 AF       		.byte	0xaf
 1171 06d2 07070000 		.4byte	0x707
 1172 06d6 08       		.uleb128 0x8
 1173 06d7 CD010000 		.4byte	.LASF98
 1174 06db 0F       		.byte	0xf
 1175 06dc B3       		.byte	0xb3
 1176 06dd C4000000 		.4byte	0xc4
 1177 06e1 00       		.byte	0
 1178 06e2 08       		.uleb128 0x8
 1179 06e3 87010000 		.4byte	.LASF99
 1180 06e7 0F       		.byte	0xf
 1181 06e8 B7       		.byte	0xb7
 1182 06e9 C4000000 		.4byte	0xc4
 1183 06ed 02       		.byte	0x2
 1184 06ee 09       		.uleb128 0x9
 1185 06ef 70747200 		.ascii	"ptr\000"
 1186 06f3 0F       		.byte	0xf
 1187 06f4 BB       		.byte	0xbb
 1188 06f5 07070000 		.4byte	0x707
 1189 06f9 04       		.byte	0x4
ARM GAS  C:\Users\RAKIBU~1\AppData\Local\Temp\ccHskV3j.s 			page 22


 1190 06fa 08       		.uleb128 0x8
 1191 06fb 3E020000 		.4byte	.LASF100
 1192 06ff 0F       		.byte	0xf
 1193 0700 BF       		.byte	0xbf
 1194 0701 0D070000 		.4byte	0x70d
 1195 0705 08       		.byte	0x8
 1196 0706 00       		.byte	0
 1197 0707 0C       		.uleb128 0xc
 1198 0708 04       		.byte	0x4
 1199 0709 C2060000 		.4byte	0x6c2
 1200 070d 16       		.uleb128 0x16
 1201 070e C2060000 		.4byte	0x6c2
 1202 0712 1D070000 		.4byte	0x71d
 1203 0716 17       		.uleb128 0x17
 1204 0717 37000000 		.4byte	0x37
 1205 071b 7F       		.byte	0x7f
 1206 071c 00       		.byte	0
 1207 071d 03       		.uleb128 0x3
 1208 071e D5000000 		.4byte	.LASF101
 1209 0722 0F       		.byte	0xf
 1210 0723 C0       		.byte	0xc0
 1211 0724 CD060000 		.4byte	0x6cd
 1212 0728 18       		.uleb128 0x18
 1213 0729 04       		.byte	0x4
 1214 072a 10       		.byte	0x10
 1215 072b 38       		.byte	0x38
 1216 072c 3D070000 		.4byte	0x73d
 1217 0730 08       		.uleb128 0x8
 1218 0731 90070000 		.4byte	.LASF102
 1219 0735 10       		.byte	0x10
 1220 0736 3C       		.byte	0x3c
 1221 0737 F5000000 		.4byte	0xf5
 1222 073b 00       		.byte	0
 1223 073c 00       		.byte	0
 1224 073d 03       		.uleb128 0x3
 1225 073e B0040000 		.4byte	.LASF103
 1226 0742 10       		.byte	0x10
 1227 0743 3D       		.byte	0x3d
 1228 0744 28070000 		.4byte	0x728
 1229 0748 18       		.uleb128 0x18
 1230 0749 18       		.byte	0x18
 1231 074a 10       		.byte	0x10
 1232 074b 48       		.byte	0x48
 1233 074c 8B070000 		.4byte	0x78b
 1234 0750 08       		.uleb128 0x8
 1235 0751 55070000 		.4byte	.LASF104
 1236 0755 10       		.byte	0x10
 1237 0756 49       		.byte	0x49
 1238 0757 F5000000 		.4byte	0xf5
 1239 075b 00       		.byte	0
 1240 075c 08       		.uleb128 0x8
 1241 075d A5000000 		.4byte	.LASF105
 1242 0761 10       		.byte	0x10
 1243 0762 4A       		.byte	0x4a
 1244 0763 F5000000 		.4byte	0xf5
 1245 0767 04       		.byte	0x4
 1246 0768 08       		.uleb128 0x8
ARM GAS  C:\Users\RAKIBU~1\AppData\Local\Temp\ccHskV3j.s 			page 23


 1247 0769 EE020000 		.4byte	.LASF106
 1248 076d 10       		.byte	0x10
 1249 076e 4B       		.byte	0x4b
 1250 076f F5000000 		.4byte	0xf5
 1251 0773 08       		.byte	0x8
 1252 0774 09       		.uleb128 0x9
 1253 0775 6E00     		.ascii	"n\000"
 1254 0777 10       		.byte	0x10
 1255 0778 4C       		.byte	0x4c
 1256 0779 58010000 		.4byte	0x158
 1257 077d 0C       		.byte	0xc
 1258 077e 08       		.uleb128 0x8
 1259 077f A4050000 		.4byte	.LASF107
 1260 0783 10       		.byte	0x10
 1261 0784 4D       		.byte	0x4d
 1262 0785 00010000 		.4byte	0x100
 1263 0789 10       		.byte	0x10
 1264 078a 00       		.byte	0
 1265 078b 03       		.uleb128 0x3
 1266 078c AB000000 		.4byte	.LASF108
 1267 0790 10       		.byte	0x10
 1268 0791 4E       		.byte	0x4e
 1269 0792 48070000 		.4byte	0x748
 1270 0796 18       		.uleb128 0x18
 1271 0797 38       		.byte	0x38
 1272 0798 11       		.byte	0x11
 1273 0799 38       		.byte	0x38
 1274 079a CF070000 		.4byte	0x7cf
 1275 079e 08       		.uleb128 0x8
 1276 079f 01030000 		.4byte	.LASF109
 1277 07a3 11       		.byte	0x11
 1278 07a4 39       		.byte	0x39
 1279 07a5 58010000 		.4byte	0x158
 1280 07a9 00       		.byte	0
 1281 07aa 08       		.uleb128 0x8
 1282 07ab ED050000 		.4byte	.LASF110
 1283 07af 11       		.byte	0x11
 1284 07b0 3A       		.byte	0x3a
 1285 07b1 58010000 		.4byte	0x158
 1286 07b5 04       		.byte	0x4
 1287 07b6 08       		.uleb128 0x8
 1288 07b7 39090000 		.4byte	.LASF111
 1289 07bb 11       		.byte	0x11
 1290 07bc 3B       		.byte	0x3b
 1291 07bd 8B070000 		.4byte	0x78b
 1292 07c1 08       		.byte	0x8
 1293 07c2 08       		.uleb128 0x8
 1294 07c3 B6030000 		.4byte	.LASF112
 1295 07c7 11       		.byte	0x11
 1296 07c8 3D       		.byte	0x3d
 1297 07c9 8B070000 		.4byte	0x78b
 1298 07cd 20       		.byte	0x20
 1299 07ce 00       		.byte	0
 1300 07cf 03       		.uleb128 0x3
 1301 07d0 1C030000 		.4byte	.LASF113
 1302 07d4 11       		.byte	0x11
 1303 07d5 3F       		.byte	0x3f
ARM GAS  C:\Users\RAKIBU~1\AppData\Local\Temp\ccHskV3j.s 			page 24


 1304 07d6 96070000 		.4byte	0x796
 1305 07da 19       		.uleb128 0x19
 1306 07db 04       		.byte	0x4
 1307 07dc 09       		.byte	0x9
 1308 07dd C6       		.byte	0xc6
 1309 07de 3C080000 		.4byte	0x83c
 1310 07e2 1B       		.uleb128 0x1b
 1311 07e3 1F000000 		.4byte	.LASF114
 1312 07e7 09       		.byte	0x9
 1313 07e8 CD       		.byte	0xcd
 1314 07e9 37010000 		.4byte	0x137
 1315 07ed 1B       		.uleb128 0x1b
 1316 07ee E7000000 		.4byte	.LASF115
 1317 07f2 09       		.byte	0x9
 1318 07f3 D4       		.byte	0xd4
 1319 07f4 37010000 		.4byte	0x137
 1320 07f8 1B       		.uleb128 0x1b
 1321 07f9 D4080000 		.4byte	.LASF89
 1322 07fd 09       		.byte	0x9
 1323 07fe DB       		.byte	0xdb
 1324 07ff 41030000 		.4byte	0x341
 1325 0803 1B       		.uleb128 0x1b
 1326 0804 DF020000 		.4byte	.LASF116
 1327 0808 09       		.byte	0x9
 1328 0809 E2       		.byte	0xe2
 1329 080a 3C080000 		.4byte	0x83c
 1330 080e 1B       		.uleb128 0x1b
 1331 080f 31090000 		.4byte	.LASF117
 1332 0813 09       		.byte	0x9
 1333 0814 E7       		.byte	0xe7
 1334 0815 37010000 		.4byte	0x137
 1335 0819 1B       		.uleb128 0x1b
 1336 081a D8020000 		.4byte	.LASF118
 1337 081e 09       		.byte	0x9
 1338 081f F0       		.byte	0xf0
 1339 0820 67080000 		.4byte	0x867
 1340 0824 1B       		.uleb128 0x1b
 1341 0825 F7060000 		.4byte	.LASF119
 1342 0829 09       		.byte	0x9
 1343 082a F9       		.byte	0xf9
 1344 082b 9E080000 		.4byte	0x89e
 1345 082f 1E       		.uleb128 0x1e
 1346 0830 59060000 		.4byte	.LASF120
 1347 0834 09       		.byte	0x9
 1348 0835 0101     		.2byte	0x101
 1349 0837 42010000 		.4byte	0x142
 1350 083b 00       		.byte	0
 1351 083c 0C       		.uleb128 0xc
 1352 083d 04       		.byte	0x4
 1353 083e 59020000 		.4byte	0x259
 1354 0842 07       		.uleb128 0x7
 1355 0843 B3060000 		.4byte	.LASF121
 1356 0847 0C       		.byte	0xc
 1357 0848 12       		.byte	0x12
 1358 0849 34       		.byte	0x34
 1359 084a 67080000 		.4byte	0x867
 1360 084e 08       		.uleb128 0x8
ARM GAS  C:\Users\RAKIBU~1\AppData\Local\Temp\ccHskV3j.s 			page 25


 1361 084f 07030000 		.4byte	.LASF32
 1362 0853 12       		.byte	0x12
 1363 0854 35       		.byte	0x35
 1364 0855 8E020000 		.4byte	0x28e
 1365 0859 00       		.byte	0
 1366 085a 09       		.uleb128 0x9
 1367 085b 636E7400 		.ascii	"cnt\000"
 1368 085f 12       		.byte	0x12
 1369 0860 37       		.byte	0x37
 1370 0861 4D010000 		.4byte	0x14d
 1371 0865 08       		.byte	0x8
 1372 0866 00       		.byte	0
 1373 0867 0C       		.uleb128 0xc
 1374 0868 04       		.byte	0x4
 1375 0869 42080000 		.4byte	0x842
 1376 086d 07       		.uleb128 0x7
 1377 086e 97070000 		.4byte	.LASF122
 1378 0872 10       		.byte	0x10
 1379 0873 13       		.byte	0x13
 1380 0874 39       		.byte	0x39
 1381 0875 9E080000 		.4byte	0x89e
 1382 0879 08       		.uleb128 0x8
 1383 087a 07030000 		.4byte	.LASF32
 1384 087e 13       		.byte	0x13
 1385 087f 3A       		.byte	0x3a
 1386 0880 8E020000 		.4byte	0x28e
 1387 0884 00       		.byte	0
 1388 0885 08       		.uleb128 0x8
 1389 0886 0E070000 		.4byte	.LASF123
 1390 088a 13       		.byte	0x13
 1391 088b 3C       		.byte	0x3c
 1392 088c 64020000 		.4byte	0x264
 1393 0890 08       		.byte	0x8
 1394 0891 08       		.uleb128 0x8
 1395 0892 14000000 		.4byte	.LASF52
 1396 0896 13       		.byte	0x13
 1397 0897 3E       		.byte	0x3e
 1398 0898 E9090000 		.4byte	0x9e9
 1399 089c 0C       		.byte	0xc
 1400 089d 00       		.byte	0
 1401 089e 0C       		.uleb128 0xc
 1402 089f 04       		.byte	0x4
 1403 08a0 6D080000 		.4byte	0x86d
 1404 08a4 0C       		.uleb128 0xc
 1405 08a5 04       		.byte	0x4
 1406 08a6 1A050000 		.4byte	0x51a
 1407 08aa 0C       		.uleb128 0xc
 1408 08ab 04       		.byte	0x4
 1409 08ac 43030000 		.4byte	0x343
 1410 08b0 1F       		.uleb128 0x1f
 1411 08b1 636800   		.ascii	"ch\000"
 1412 08b4 09       		.byte	0x9
 1413 08b5 C701     		.2byte	0x1c7
 1414 08b7 38040000 		.4byte	0x438
 1415 08bb 16       		.uleb128 0x16
 1416 08bc 1A050000 		.4byte	0x51a
 1417 08c0 C6080000 		.4byte	0x8c6
ARM GAS  C:\Users\RAKIBU~1\AppData\Local\Temp\ccHskV3j.s 			page 26


 1418 08c4 20       		.uleb128 0x20
 1419 08c5 00       		.byte	0
 1420 08c6 14       		.uleb128 0x14
 1421 08c7 C9060000 		.4byte	.LASF124
 1422 08cb 03       		.byte	0x3
 1423 08cc 1701     		.2byte	0x117
 1424 08ce BB080000 		.4byte	0x8bb
 1425 08d2 18       		.uleb128 0x18
 1426 08d3 16       		.byte	0x16
 1427 08d4 14       		.byte	0x14
 1428 08d5 34       		.byte	0x34
 1429 08d6 B3090000 		.4byte	0x9b3
 1430 08da 08       		.uleb128 0x8
 1431 08db 14020000 		.4byte	.LASF125
 1432 08df 14       		.byte	0x14
 1433 08e0 35       		.byte	0x35
 1434 08e1 B3090000 		.4byte	0x9b3
 1435 08e5 00       		.byte	0
 1436 08e6 08       		.uleb128 0x8
 1437 08e7 88020000 		.4byte	.LASF126
 1438 08eb 14       		.byte	0x14
 1439 08ec 36       		.byte	0x36
 1440 08ed B4000000 		.4byte	0xb4
 1441 08f1 04       		.byte	0x4
 1442 08f2 08       		.uleb128 0x8
 1443 08f3 87010000 		.4byte	.LASF99
 1444 08f7 14       		.byte	0x14
 1445 08f8 37       		.byte	0x37
 1446 08f9 B4000000 		.4byte	0xb4
 1447 08fd 05       		.byte	0x5
 1448 08fe 08       		.uleb128 0x8
 1449 08ff 1C040000 		.4byte	.LASF127
 1450 0903 14       		.byte	0x14
 1451 0904 38       		.byte	0x38
 1452 0905 C4000000 		.4byte	0xc4
 1453 0909 06       		.byte	0x6
 1454 090a 08       		.uleb128 0x8
 1455 090b D6070000 		.4byte	.LASF128
 1456 090f 14       		.byte	0x14
 1457 0910 39       		.byte	0x39
 1458 0911 B4000000 		.4byte	0xb4
 1459 0915 08       		.byte	0x8
 1460 0916 08       		.uleb128 0x8
 1461 0917 DB060000 		.4byte	.LASF129
 1462 091b 14       		.byte	0x14
 1463 091c 3A       		.byte	0x3a
 1464 091d B4000000 		.4byte	0xb4
 1465 0921 09       		.byte	0x9
 1466 0922 08       		.uleb128 0x8
 1467 0923 B7050000 		.4byte	.LASF130
 1468 0927 14       		.byte	0x14
 1469 0928 3B       		.byte	0x3b
 1470 0929 B4000000 		.4byte	0xb4
 1471 092d 0A       		.byte	0xa
 1472 092e 08       		.uleb128 0x8
 1473 092f 12060000 		.4byte	.LASF131
 1474 0933 14       		.byte	0x14
ARM GAS  C:\Users\RAKIBU~1\AppData\Local\Temp\ccHskV3j.s 			page 27


 1475 0934 3C       		.byte	0x3c
 1476 0935 B4000000 		.4byte	0xb4
 1477 0939 0B       		.byte	0xb
 1478 093a 08       		.uleb128 0x8
 1479 093b A6030000 		.4byte	.LASF132
 1480 093f 14       		.byte	0x14
 1481 0940 3D       		.byte	0x3d
 1482 0941 B4000000 		.4byte	0xb4
 1483 0945 0C       		.byte	0xc
 1484 0946 08       		.uleb128 0x8
 1485 0947 9B040000 		.4byte	.LASF133
 1486 094b 14       		.byte	0x14
 1487 094c 3E       		.byte	0x3e
 1488 094d B4000000 		.4byte	0xb4
 1489 0951 0D       		.byte	0xd
 1490 0952 08       		.uleb128 0x8
 1491 0953 A0070000 		.4byte	.LASF134
 1492 0957 14       		.byte	0x14
 1493 0958 3F       		.byte	0x3f
 1494 0959 B4000000 		.4byte	0xb4
 1495 095d 0E       		.byte	0xe
 1496 095e 08       		.uleb128 0x8
 1497 095f 15080000 		.4byte	.LASF135
 1498 0963 14       		.byte	0x14
 1499 0964 40       		.byte	0x40
 1500 0965 B4000000 		.4byte	0xb4
 1501 0969 0F       		.byte	0xf
 1502 096a 08       		.uleb128 0x8
 1503 096b 26080000 		.4byte	.LASF136
 1504 096f 14       		.byte	0x14
 1505 0970 41       		.byte	0x41
 1506 0971 B4000000 		.4byte	0xb4
 1507 0975 10       		.byte	0x10
 1508 0976 08       		.uleb128 0x8
 1509 0977 EA080000 		.4byte	.LASF137
 1510 097b 14       		.byte	0x14
 1511 097c 42       		.byte	0x42
 1512 097d B4000000 		.4byte	0xb4
 1513 0981 11       		.byte	0x11
 1514 0982 08       		.uleb128 0x8
 1515 0983 1F090000 		.4byte	.LASF138
 1516 0987 14       		.byte	0x14
 1517 0988 43       		.byte	0x43
 1518 0989 B4000000 		.4byte	0xb4
 1519 098d 12       		.byte	0x12
 1520 098e 08       		.uleb128 0x8
 1521 098f 13030000 		.4byte	.LASF139
 1522 0993 14       		.byte	0x14
 1523 0994 44       		.byte	0x44
 1524 0995 B4000000 		.4byte	0xb4
 1525 0999 13       		.byte	0x13
 1526 099a 08       		.uleb128 0x8
 1527 099b 32020000 		.4byte	.LASF140
 1528 099f 14       		.byte	0x14
 1529 09a0 45       		.byte	0x45
 1530 09a1 B4000000 		.4byte	0xb4
 1531 09a5 14       		.byte	0x14
ARM GAS  C:\Users\RAKIBU~1\AppData\Local\Temp\ccHskV3j.s 			page 28


 1532 09a6 08       		.uleb128 0x8
 1533 09a7 C0060000 		.4byte	.LASF141
 1534 09ab 14       		.byte	0x14
 1535 09ac 46       		.byte	0x46
 1536 09ad B4000000 		.4byte	0xb4
 1537 09b1 15       		.byte	0x15
 1538 09b2 00       		.byte	0
 1539 09b3 16       		.uleb128 0x16
 1540 09b4 00060000 		.4byte	0x600
 1541 09b8 C3090000 		.4byte	0x9c3
 1542 09bc 17       		.uleb128 0x17
 1543 09bd 37000000 		.4byte	0x37
 1544 09c1 03       		.byte	0x3
 1545 09c2 00       		.byte	0
 1546 09c3 03       		.uleb128 0x3
 1547 09c4 28020000 		.4byte	.LASF142
 1548 09c8 14       		.byte	0x14
 1549 09c9 47       		.byte	0x47
 1550 09ca D2080000 		.4byte	0x8d2
 1551 09ce 05       		.uleb128 0x5
 1552 09cf C3090000 		.4byte	0x9c3
 1553 09d3 15       		.uleb128 0x15
 1554 09d4 E5020000 		.4byte	.LASF143
 1555 09d8 14       		.byte	0x14
 1556 09d9 6C       		.byte	0x6c
 1557 09da CE090000 		.4byte	0x9ce
 1558 09de 03       		.uleb128 0x3
 1559 09df 8D020000 		.4byte	.LASF144
 1560 09e3 13       		.byte	0x13
 1561 09e4 34       		.byte	0x34
 1562 09e5 6D080000 		.4byte	0x86d
 1563 09e9 0C       		.uleb128 0xc
 1564 09ea 04       		.byte	0x4
 1565 09eb DE090000 		.4byte	0x9de
 1566 09ef 04       		.uleb128 0x4
 1567 09f0 01       		.byte	0x1
 1568 09f1 02       		.byte	0x2
 1569 09f2 F6050000 		.4byte	.LASF145
 1570 09f6 03       		.uleb128 0x3
 1571 09f7 BD070000 		.4byte	.LASF146
 1572 09fb 15       		.byte	0x15
 1573 09fc 47       		.byte	0x47
 1574 09fd 010A0000 		.4byte	0xa01
 1575 0a01 0C       		.uleb128 0xc
 1576 0a02 04       		.byte	0x4
 1577 0a03 070A0000 		.4byte	0xa07
 1578 0a07 21       		.uleb128 0x21
 1579 0a08 41030000 		.4byte	0x341
 1580 0a0c 1B0A0000 		.4byte	0xa1b
 1581 0a10 0F       		.uleb128 0xf
 1582 0a11 2C000000 		.4byte	0x2c
 1583 0a15 0F       		.uleb128 0xf
 1584 0a16 37000000 		.4byte	0x37
 1585 0a1a 00       		.byte	0
 1586 0a1b 18       		.uleb128 0x18
 1587 0a1c 08       		.byte	0x8
 1588 0a1d 15       		.byte	0x15
ARM GAS  C:\Users\RAKIBU~1\AppData\Local\Temp\ccHskV3j.s 			page 29


 1589 0a1e 51       		.byte	0x51
 1590 0a1f 3C0A0000 		.4byte	0xa3c
 1591 0a23 08       		.uleb128 0x8
 1592 0a24 44090000 		.4byte	.LASF147
 1593 0a28 15       		.byte	0x15
 1594 0a29 55       		.byte	0x55
 1595 0a2a 3C0A0000 		.4byte	0xa3c
 1596 0a2e 00       		.byte	0
 1597 0a2f 08       		.uleb128 0x8
 1598 0a30 E9030000 		.4byte	.LASF148
 1599 0a34 15       		.byte	0x15
 1600 0a35 59       		.byte	0x59
 1601 0a36 3C0A0000 		.4byte	0xa3c
 1602 0a3a 04       		.byte	0x4
 1603 0a3b 00       		.byte	0
 1604 0a3c 0C       		.uleb128 0xc
 1605 0a3d 04       		.byte	0x4
 1606 0a3e B4000000 		.4byte	0xb4
 1607 0a42 03       		.uleb128 0x3
 1608 0a43 9A050000 		.4byte	.LASF149
 1609 0a47 15       		.byte	0x15
 1610 0a48 5A       		.byte	0x5a
 1611 0a49 1B0A0000 		.4byte	0xa1b
 1612 0a4d 15       		.uleb128 0x15
 1613 0a4e 5A070000 		.4byte	.LASF150
 1614 0a52 15       		.byte	0x15
 1615 0a53 65       		.byte	0x65
 1616 0a54 420A0000 		.4byte	0xa42
 1617 0a58 07       		.uleb128 0x7
 1618 0a59 01080000 		.4byte	.LASF151
 1619 0a5d 04       		.byte	0x4
 1620 0a5e 16       		.byte	0x16
 1621 0a5f 38       		.byte	0x38
 1622 0a60 710A0000 		.4byte	0xa71
 1623 0a64 08       		.uleb128 0x8
 1624 0a65 14000000 		.4byte	.LASF52
 1625 0a69 16       		.byte	0x16
 1626 0a6a 39       		.byte	0x39
 1627 0a6b 710A0000 		.4byte	0xa71
 1628 0a6f 00       		.byte	0
 1629 0a70 00       		.byte	0
 1630 0a71 0C       		.uleb128 0xc
 1631 0a72 04       		.byte	0x4
 1632 0a73 580A0000 		.4byte	0xa58
 1633 0a77 18       		.uleb128 0x18
 1634 0a78 10       		.byte	0x10
 1635 0a79 16       		.byte	0x16
 1636 0a7a 40       		.byte	0x40
 1637 0a7b B00A0000 		.4byte	0xab0
 1638 0a7f 08       		.uleb128 0x8
 1639 0a80 14000000 		.4byte	.LASF52
 1640 0a84 16       		.byte	0x16
 1641 0a85 41       		.byte	0x41
 1642 0a86 710A0000 		.4byte	0xa71
 1643 0a8a 00       		.byte	0
 1644 0a8b 08       		.uleb128 0x8
 1645 0a8c CA070000 		.4byte	.LASF152
ARM GAS  C:\Users\RAKIBU~1\AppData\Local\Temp\ccHskV3j.s 			page 30


 1646 0a90 16       		.byte	0x16
 1647 0a91 42       		.byte	0x42
 1648 0a92 2C000000 		.4byte	0x2c
 1649 0a96 04       		.byte	0x4
 1650 0a97 08       		.uleb128 0x8
 1651 0a98 4F010000 		.4byte	.LASF153
 1652 0a9c 16       		.byte	0x16
 1653 0a9d 44       		.byte	0x44
 1654 0a9e 37000000 		.4byte	0x37
 1655 0aa2 08       		.byte	0x8
 1656 0aa3 08       		.uleb128 0x8
 1657 0aa4 77000000 		.4byte	.LASF154
 1658 0aa8 16       		.byte	0x16
 1659 0aa9 45       		.byte	0x45
 1660 0aaa F6090000 		.4byte	0x9f6
 1661 0aae 0C       		.byte	0xc
 1662 0aaf 00       		.byte	0
 1663 0ab0 03       		.uleb128 0x3
 1664 0ab1 F3020000 		.4byte	.LASF155
 1665 0ab5 16       		.byte	0x16
 1666 0ab6 47       		.byte	0x47
 1667 0ab7 770A0000 		.4byte	0xa77
 1668 0abb 07       		.uleb128 0x7
 1669 0abc 78010000 		.4byte	.LASF156
 1670 0ac0 10       		.byte	0x10
 1671 0ac1 17       		.byte	0x17
 1672 0ac2 A9       		.byte	0xa9
 1673 0ac3 EC0A0000 		.4byte	0xaec
 1674 0ac7 08       		.uleb128 0x8
 1675 0ac8 14000000 		.4byte	.LASF52
 1676 0acc 17       		.byte	0x17
 1677 0acd AD       		.byte	0xad
 1678 0ace EC0A0000 		.4byte	0xaec
 1679 0ad2 00       		.byte	0
 1680 0ad3 08       		.uleb128 0x8
 1681 0ad4 C2050000 		.4byte	.LASF40
 1682 0ad8 17       		.byte	0x17
 1683 0ad9 B1       		.byte	0xb1
 1684 0ada 58010000 		.4byte	0x158
 1685 0ade 04       		.byte	0x4
 1686 0adf 08       		.uleb128 0x8
 1687 0ae0 2B030000 		.4byte	.LASF36
 1688 0ae4 17       		.byte	0x17
 1689 0ae5 B3       		.byte	0xb3
 1690 0ae6 F20A0000 		.4byte	0xaf2
 1691 0aea 08       		.byte	0x8
 1692 0aeb 00       		.byte	0
 1693 0aec 0C       		.uleb128 0xc
 1694 0aed 04       		.byte	0x4
 1695 0aee BB0A0000 		.4byte	0xabb
 1696 0af2 16       		.uleb128 0x16
 1697 0af3 00060000 		.4byte	0x600
 1698 0af7 020B0000 		.4byte	0xb02
 1699 0afb 17       		.uleb128 0x17
 1700 0afc 37000000 		.4byte	0x37
 1701 0b00 07       		.byte	0x7
 1702 0b01 00       		.byte	0
ARM GAS  C:\Users\RAKIBU~1\AppData\Local\Temp\ccHskV3j.s 			page 31


 1703 0b02 03       		.uleb128 0x3
 1704 0b03 41010000 		.4byte	.LASF157
 1705 0b07 17       		.byte	0x17
 1706 0b08 B7       		.byte	0xb7
 1707 0b09 BB0A0000 		.4byte	0xabb
 1708 0b0d 07       		.uleb128 0x7
 1709 0b0e 8F040000 		.4byte	.LASF158
 1710 0b12 04       		.byte	0x4
 1711 0b13 17       		.byte	0x17
 1712 0b14 BC       		.byte	0xbc
 1713 0b15 260B0000 		.4byte	0xb26
 1714 0b19 08       		.uleb128 0x8
 1715 0b1a 14000000 		.4byte	.LASF52
 1716 0b1e 17       		.byte	0x17
 1717 0b1f BD       		.byte	0xbd
 1718 0b20 260B0000 		.4byte	0xb26
 1719 0b24 00       		.byte	0
 1720 0b25 00       		.byte	0
 1721 0b26 0C       		.uleb128 0xc
 1722 0b27 04       		.byte	0x4
 1723 0b28 020B0000 		.4byte	0xb02
 1724 0b2c 03       		.uleb128 0x3
 1725 0b2d A5040000 		.4byte	.LASF159
 1726 0b31 17       		.byte	0x17
 1727 0b32 BE       		.byte	0xbe
 1728 0b33 0D0B0000 		.4byte	0xb0d
 1729 0b37 0D       		.uleb128 0xd
 1730 0b38 DE070000 		.4byte	.LASF160
 1731 0b3c 48       		.byte	0x48
 1732 0b3d 17       		.byte	0x17
 1733 0b3e 3E01     		.2byte	0x13e
 1734 0b40 BA0B0000 		.4byte	0xbba
 1735 0b44 0A       		.uleb128 0xa
 1736 0b45 6D747800 		.ascii	"mtx\000"
 1737 0b49 17       		.byte	0x17
 1738 0b4a 4301     		.2byte	0x143
 1739 0b4c DE090000 		.4byte	0x9de
 1740 0b50 00       		.byte	0
 1741 0b51 0B       		.uleb128 0xb
 1742 0b52 38070000 		.4byte	.LASF161
 1743 0b56 17       		.byte	0x17
 1744 0b57 4A01     		.2byte	0x14a
 1745 0b59 2C0B0000 		.4byte	0xb2c
 1746 0b5d 10       		.byte	0x10
 1747 0b5e 0B       		.uleb128 0xb
 1748 0b5f 88060000 		.4byte	.LASF162
 1749 0b63 17       		.byte	0x17
 1750 0b64 4E01     		.2byte	0x14e
 1751 0b66 B00A0000 		.4byte	0xab0
 1752 0b6a 14       		.byte	0x14
 1753 0b6b 0B       		.uleb128 0xb
 1754 0b6c E4050000 		.4byte	.LASF163
 1755 0b70 17       		.byte	0x17
 1756 0b71 5301     		.2byte	0x153
 1757 0b73 2C0B0000 		.4byte	0xb2c
 1758 0b77 24       		.byte	0x24
 1759 0b78 0B       		.uleb128 0xb
ARM GAS  C:\Users\RAKIBU~1\AppData\Local\Temp\ccHskV3j.s 			page 32


 1760 0b79 85000000 		.4byte	.LASF164
 1761 0b7d 17       		.byte	0x17
 1762 0b7e 5901     		.2byte	0x159
 1763 0b80 2C0B0000 		.4byte	0xb2c
 1764 0b84 28       		.byte	0x28
 1765 0b85 0B       		.uleb128 0xb
 1766 0b86 60050000 		.4byte	.LASF165
 1767 0b8a 17       		.byte	0x17
 1768 0b8b 5D01     		.2byte	0x15d
 1769 0b8d B00A0000 		.4byte	0xab0
 1770 0b91 2C       		.byte	0x2c
 1771 0b92 0B       		.uleb128 0xb
 1772 0b93 59020000 		.4byte	.LASF166
 1773 0b97 17       		.byte	0x17
 1774 0b98 6301     		.2byte	0x163
 1775 0b9a 2C0B0000 		.4byte	0xb2c
 1776 0b9e 3C       		.byte	0x3c
 1777 0b9f 0B       		.uleb128 0xb
 1778 0ba0 B8080000 		.4byte	.LASF167
 1779 0ba4 17       		.byte	0x17
 1780 0ba5 6901     		.2byte	0x169
 1781 0ba7 2C0B0000 		.4byte	0xb2c
 1782 0bab 40       		.byte	0x40
 1783 0bac 0B       		.uleb128 0xb
 1784 0bad E4060000 		.4byte	.LASF168
 1785 0bb1 17       		.byte	0x17
 1786 0bb2 6F01     		.2byte	0x16f
 1787 0bb4 2C0B0000 		.4byte	0xb2c
 1788 0bb8 44       		.byte	0x44
 1789 0bb9 00       		.byte	0
 1790 0bba 22       		.uleb128 0x22
 1791 0bbb 0D090000 		.4byte	.LASF169
 1792 0bbf 17       		.byte	0x17
 1793 0bc0 7101     		.2byte	0x171
 1794 0bc2 370B0000 		.4byte	0xb37
 1795 0bc6 14       		.uleb128 0x14
 1796 0bc7 73060000 		.4byte	.LASF170
 1797 0bcb 17       		.byte	0x17
 1798 0bcc 7C01     		.2byte	0x17c
 1799 0bce BA0B0000 		.4byte	0xbba
 1800 0bd2 23       		.uleb128 0x23
 1801 0bd3 4D0A0000 		.4byte	0xa4d
 1802 0bd7 01       		.byte	0x1
 1803 0bd8 3A       		.byte	0x3a
 1804 0bd9 05       		.uleb128 0x5
 1805 0bda 03       		.byte	0x3
 1806 0bdb 00000000 		.4byte	ch_memcore
 1807 0bdf 24       		.uleb128 0x24
 1808 0be0 AD010000 		.4byte	.LASF190
 1809 0be4 01       		.byte	0x1
 1810 0be5 A7       		.byte	0xa7
 1811 0be6 2C000000 		.4byte	0x2c
 1812 0bea D0000000 		.4byte	.LFB298
 1813 0bee 10000000 		.4byte	.LFE298-.LFB298
 1814 0bf2 01       		.uleb128 0x1
 1815 0bf3 9C       		.byte	0x9c
 1816 0bf4 25       		.uleb128 0x25
ARM GAS  C:\Users\RAKIBU~1\AppData\Local\Temp\ccHskV3j.s 			page 33


 1817 0bf5 F1010000 		.4byte	.LASF171
 1818 0bf9 01       		.byte	0x1
 1819 0bfa 94       		.byte	0x94
 1820 0bfb 41030000 		.4byte	0x341
 1821 0bff 70000000 		.4byte	.LFB297
 1822 0c03 58000000 		.4byte	.LFE297-.LFB297
 1823 0c07 01       		.uleb128 0x1
 1824 0c08 9C       		.byte	0x9c
 1825 0c09 2C0D0000 		.4byte	0xd2c
 1826 0c0d 26       		.uleb128 0x26
 1827 0c0e 87010000 		.4byte	.LASF99
 1828 0c12 01       		.byte	0x1
 1829 0c13 94       		.byte	0x94
 1830 0c14 2C000000 		.4byte	0x2c
 1831 0c18 00000000 		.4byte	.LLST4
 1832 0c1c 26       		.uleb128 0x26
 1833 0c1d 4F010000 		.4byte	.LASF153
 1834 0c21 01       		.byte	0x1
 1835 0c22 95       		.byte	0x95
 1836 0c23 37000000 		.4byte	0x37
 1837 0c27 2C000000 		.4byte	.LLST5
 1838 0c2b 26       		.uleb128 0x26
 1839 0c2c 90070000 		.4byte	.LASF102
 1840 0c30 01       		.byte	0x1
 1841 0c31 96       		.byte	0x96
 1842 0c32 2C000000 		.4byte	0x2c
 1843 0c36 4A000000 		.4byte	.LLST6
 1844 0c3a 27       		.uleb128 0x27
 1845 0c3b 7000     		.ascii	"p\000"
 1846 0c3d 01       		.byte	0x1
 1847 0c3e 97       		.byte	0x97
 1848 0c3f 41030000 		.4byte	0x341
 1849 0c43 68000000 		.4byte	.LLST7
 1850 0c47 28       		.uleb128 0x28
 1851 0c48 340E0000 		.4byte	0xe34
 1852 0c4c 78000000 		.4byte	.LBB29
 1853 0c50 0E000000 		.4byte	.LBE29-.LBB29
 1854 0c54 01       		.byte	0x1
 1855 0c55 99       		.byte	0x99
 1856 0c56 9C0C0000 		.4byte	0xc9c
 1857 0c5a 29       		.uleb128 0x29
 1858 0c5b 460E0000 		.4byte	0xe46
 1859 0c5f 78000000 		.4byte	.LBB31
 1860 0c63 06000000 		.4byte	.LBE31-.LBB31
 1861 0c67 03       		.byte	0x3
 1862 0c68 6301     		.2byte	0x163
 1863 0c6a 890C0000 		.4byte	0xc89
 1864 0c6e 2A       		.uleb128 0x2a
 1865 0c6f 4F0E0000 		.4byte	0xe4f
 1866 0c73 78000000 		.4byte	.LBB32
 1867 0c77 06000000 		.4byte	.LBE32-.LBB32
 1868 0c7b 0E       		.byte	0xe
 1869 0c7c 6502     		.2byte	0x265
 1870 0c7e 2B       		.uleb128 0x2b
 1871 0c7f 5C0E0000 		.4byte	0xe5c
 1872 0c83 86000000 		.4byte	.LLST8
 1873 0c87 00       		.byte	0
ARM GAS  C:\Users\RAKIBU~1\AppData\Local\Temp\ccHskV3j.s 			page 34


 1874 0c88 00       		.byte	0
 1875 0c89 2C       		.uleb128 0x2c
 1876 0c8a 82000000 		.4byte	.LVL15
 1877 0c8e 690E0000 		.4byte	0xe69
 1878 0c92 2C       		.uleb128 0x2c
 1879 0c93 86000000 		.4byte	.LVL16
 1880 0c97 740E0000 		.4byte	0xe74
 1881 0c9b 00       		.byte	0
 1882 0c9c 2D       		.uleb128 0x2d
 1883 0c9d 040E0000 		.4byte	0xe04
 1884 0ca1 92000000 		.4byte	.LBB34
 1885 0ca5 00000000 		.4byte	.Ldebug_ranges0+0
 1886 0ca9 01       		.byte	0x1
 1887 0caa 9B       		.byte	0x9b
 1888 0cab 0F0D0000 		.4byte	0xd0f
 1889 0caf 2E       		.uleb128 0x2e
 1890 0cb0 00000000 		.4byte	.Ldebug_ranges0+0
 1891 0cb4 2F       		.uleb128 0x2f
 1892 0cb5 110E0000 		.4byte	0xe11
 1893 0cb9 29       		.uleb128 0x29
 1894 0cba 3D0E0000 		.4byte	0xe3d
 1895 0cbe AC000000 		.4byte	.LBB36
 1896 0cc2 06000000 		.4byte	.LBE36-.LBB36
 1897 0cc6 03       		.byte	0x3
 1898 0cc7 7A01     		.2byte	0x17a
 1899 0cc9 E80C0000 		.4byte	0xce8
 1900 0ccd 2A       		.uleb128 0x2a
 1901 0cce 4F0E0000 		.4byte	0xe4f
 1902 0cd2 AC000000 		.4byte	.LBB37
 1903 0cd6 06000000 		.4byte	.LBE37-.LBB37
 1904 0cda 0E       		.byte	0xe
 1905 0cdb 7802     		.2byte	0x278
 1906 0cdd 2B       		.uleb128 0x2b
 1907 0cde 5C0E0000 		.4byte	0xe5c
 1908 0ce2 9B000000 		.4byte	.LLST9
 1909 0ce6 00       		.byte	0
 1910 0ce7 00       		.byte	0
 1911 0ce8 2C       		.uleb128 0x2c
 1912 0ce9 96000000 		.4byte	.LVL19
 1913 0ced 7F0E0000 		.4byte	0xe7f
 1914 0cf1 2C       		.uleb128 0x2c
 1915 0cf2 9A000000 		.4byte	.LVL20
 1916 0cf6 8A0E0000 		.4byte	0xe8a
 1917 0cfa 30       		.uleb128 0x30
 1918 0cfb BC000000 		.4byte	.LVL24
 1919 0cff 950E0000 		.4byte	0xe95
 1920 0d03 31       		.uleb128 0x31
 1921 0d04 01       		.uleb128 0x1
 1922 0d05 50       		.byte	0x50
 1923 0d06 05       		.uleb128 0x5
 1924 0d07 03       		.byte	0x3
 1925 0d08 20000000 		.4byte	.LANCHOR0+32
 1926 0d0c 00       		.byte	0
 1927 0d0d 00       		.byte	0
 1928 0d0e 00       		.byte	0
 1929 0d0f 30       		.uleb128 0x30
 1930 0d10 90000000 		.4byte	.LVL17
ARM GAS  C:\Users\RAKIBU~1\AppData\Local\Temp\ccHskV3j.s 			page 35


 1931 0d14 2C0D0000 		.4byte	0xd2c
 1932 0d18 31       		.uleb128 0x31
 1933 0d19 01       		.uleb128 0x1
 1934 0d1a 50       		.byte	0x50
 1935 0d1b 02       		.uleb128 0x2
 1936 0d1c 74       		.byte	0x74
 1937 0d1d 00       		.sleb128 0
 1938 0d1e 31       		.uleb128 0x31
 1939 0d1f 01       		.uleb128 0x1
 1940 0d20 51       		.byte	0x51
 1941 0d21 02       		.uleb128 0x2
 1942 0d22 75       		.byte	0x75
 1943 0d23 00       		.sleb128 0
 1944 0d24 31       		.uleb128 0x31
 1945 0d25 01       		.uleb128 0x1
 1946 0d26 52       		.byte	0x52
 1947 0d27 02       		.uleb128 0x2
 1948 0d28 76       		.byte	0x76
 1949 0d29 00       		.sleb128 0
 1950 0d2a 00       		.byte	0
 1951 0d2b 00       		.byte	0
 1952 0d2c 25       		.uleb128 0x25
 1953 0d2d 71050000 		.4byte	.LASF172
 1954 0d31 01       		.byte	0x1
 1955 0d32 70       		.byte	0x70
 1956 0d33 41030000 		.4byte	0x341
 1957 0d37 20000000 		.4byte	.LFB296
 1958 0d3b 50000000 		.4byte	.LFE296-.LFB296
 1959 0d3f 01       		.uleb128 0x1
 1960 0d40 9C       		.byte	0x9c
 1961 0d41 B80D0000 		.4byte	0xdb8
 1962 0d45 26       		.uleb128 0x26
 1963 0d46 87010000 		.4byte	.LASF99
 1964 0d4a 01       		.byte	0x1
 1965 0d4b 70       		.byte	0x70
 1966 0d4c 2C000000 		.4byte	0x2c
 1967 0d50 AF000000 		.4byte	.LLST0
 1968 0d54 26       		.uleb128 0x26
 1969 0d55 4F010000 		.4byte	.LASF153
 1970 0d59 01       		.byte	0x1
 1971 0d5a 71       		.byte	0x71
 1972 0d5b 37000000 		.4byte	0x37
 1973 0d5f 05010000 		.4byte	.LLST1
 1974 0d63 26       		.uleb128 0x26
 1975 0d64 90070000 		.4byte	.LASF102
 1976 0d68 01       		.byte	0x1
 1977 0d69 72       		.byte	0x72
 1978 0d6a 2C000000 		.4byte	0x2c
 1979 0d6e 23010000 		.4byte	.LLST2
 1980 0d72 27       		.uleb128 0x27
 1981 0d73 7000     		.ascii	"p\000"
 1982 0d75 01       		.byte	0x1
 1983 0d76 73       		.byte	0x73
 1984 0d77 3C0A0000 		.4byte	0xa3c
 1985 0d7b 41010000 		.4byte	.LLST3
 1986 0d7f 32       		.uleb128 0x32
 1987 0d80 14000000 		.4byte	.LASF52
ARM GAS  C:\Users\RAKIBU~1\AppData\Local\Temp\ccHskV3j.s 			page 36


 1988 0d84 01       		.byte	0x1
 1989 0d85 73       		.byte	0x73
 1990 0d86 3C0A0000 		.4byte	0xa3c
 1991 0d8a 01       		.uleb128 0x1
 1992 0d8b 53       		.byte	0x53
 1993 0d8c 33       		.uleb128 0x33
 1994 0d8d 6A060000 		.4byte	.LASF175
 1995 0d91 C80D0000 		.4byte	0xdc8
 1996 0d95 05       		.uleb128 0x5
 1997 0d96 03       		.byte	0x3
 1998 0d97 00000000 		.4byte	__func__.7118
 1999 0d9b 2C       		.uleb128 0x2c
 2000 0d9c 2C000000 		.4byte	.LVL1
 2001 0da0 A00E0000 		.4byte	0xea0
 2002 0da4 30       		.uleb128 0x30
 2003 0da5 3A000000 		.4byte	.LVL2
 2004 0da9 950E0000 		.4byte	0xe95
 2005 0dad 31       		.uleb128 0x31
 2006 0dae 01       		.uleb128 0x1
 2007 0daf 50       		.byte	0x50
 2008 0db0 05       		.uleb128 0x5
 2009 0db1 03       		.byte	0x3
 2010 0db2 00000000 		.4byte	.LANCHOR0
 2011 0db6 00       		.byte	0
 2012 0db7 00       		.byte	0
 2013 0db8 16       		.uleb128 0x16
 2014 0db9 07060000 		.4byte	0x607
 2015 0dbd C80D0000 		.4byte	0xdc8
 2016 0dc1 17       		.uleb128 0x17
 2017 0dc2 37000000 		.4byte	0x37
 2018 0dc6 1D       		.byte	0x1d
 2019 0dc7 00       		.byte	0
 2020 0dc8 05       		.uleb128 0x5
 2021 0dc9 B80D0000 		.4byte	0xdb8
 2022 0dcd 34       		.uleb128 0x34
 2023 0dce 1B060000 		.4byte	.LASF191
 2024 0dd2 01       		.byte	0x1
 2025 0dd3 51       		.byte	0x51
 2026 0dd4 00000000 		.4byte	.LFB295
 2027 0dd8 18000000 		.4byte	.LFE295-.LFB295
 2028 0ddc 01       		.uleb128 0x1
 2029 0ddd 9C       		.byte	0x9c
 2030 0dde F90D0000 		.4byte	0xdf9
 2031 0de2 15       		.uleb128 0x15
 2032 0de3 30060000 		.4byte	.LASF173
 2033 0de7 01       		.byte	0x1
 2034 0de8 53       		.byte	0x53
 2035 0de9 F90D0000 		.4byte	0xdf9
 2036 0ded 15       		.uleb128 0x15
 2037 0dee 4C060000 		.4byte	.LASF174
 2038 0df2 01       		.byte	0x1
 2039 0df3 54       		.byte	0x54
 2040 0df4 F90D0000 		.4byte	0xdf9
 2041 0df8 00       		.byte	0
 2042 0df9 16       		.uleb128 0x16
 2043 0dfa B4000000 		.4byte	0xb4
 2044 0dfe 040E0000 		.4byte	0xe04
ARM GAS  C:\Users\RAKIBU~1\AppData\Local\Temp\ccHskV3j.s 			page 37


 2045 0e02 20       		.uleb128 0x20
 2046 0e03 00       		.byte	0
 2047 0e04 35       		.uleb128 0x35
 2048 0e05 01090000 		.4byte	.LASF179
 2049 0e09 03       		.byte	0x3
 2050 0e0a 6D01     		.2byte	0x16d
 2051 0e0c 03       		.byte	0x3
 2052 0e0d 1F0E0000 		.4byte	0xe1f
 2053 0e11 36       		.uleb128 0x36
 2054 0e12 6A060000 		.4byte	.LASF175
 2055 0e16 2F0E0000 		.4byte	0xe2f
 2056 0e1a 01090000 		.4byte	.LASF179
 2057 0e1e 00       		.byte	0
 2058 0e1f 16       		.uleb128 0x16
 2059 0e20 07060000 		.4byte	0x607
 2060 0e24 2F0E0000 		.4byte	0xe2f
 2061 0e28 17       		.uleb128 0x17
 2062 0e29 37000000 		.4byte	0x37
 2063 0e2d 0B       		.byte	0xb
 2064 0e2e 00       		.byte	0
 2065 0e2f 05       		.uleb128 0x5
 2066 0e30 1F0E0000 		.4byte	0xe1f
 2067 0e34 37       		.uleb128 0x37
 2068 0e35 7E060000 		.4byte	.LASF176
 2069 0e39 03       		.byte	0x3
 2070 0e3a 6101     		.2byte	0x161
 2071 0e3c 03       		.byte	0x3
 2072 0e3d 37       		.uleb128 0x37
 2073 0e3e A1010000 		.4byte	.LASF177
 2074 0e42 0E       		.byte	0xe
 2075 0e43 7502     		.2byte	0x275
 2076 0e45 03       		.byte	0x3
 2077 0e46 37       		.uleb128 0x37
 2078 0e47 8E000000 		.4byte	.LASF178
 2079 0e4b 0E       		.byte	0xe
 2080 0e4c 5D02     		.2byte	0x25d
 2081 0e4e 03       		.byte	0x3
 2082 0e4f 35       		.uleb128 0x35
 2083 0e50 78070000 		.4byte	.LASF180
 2084 0e54 02       		.byte	0x2
 2085 0e55 EB01     		.2byte	0x1eb
 2086 0e57 03       		.byte	0x3
 2087 0e58 690E0000 		.4byte	0xe69
 2088 0e5c 38       		.uleb128 0x38
 2089 0e5d 92010000 		.4byte	.LASF192
 2090 0e61 02       		.byte	0x2
 2091 0e62 EB01     		.2byte	0x1eb
 2092 0e64 DF000000 		.4byte	0xdf
 2093 0e68 00       		.byte	0
 2094 0e69 39       		.uleb128 0x39
 2095 0e6a FB000000 		.4byte	.LASF181
 2096 0e6e FB000000 		.4byte	.LASF181
 2097 0e72 11       		.byte	0x11
 2098 0e73 4F       		.byte	0x4f
 2099 0e74 39       		.uleb128 0x39
 2100 0e75 5C040000 		.4byte	.LASF182
 2101 0e79 5C040000 		.4byte	.LASF182
ARM GAS  C:\Users\RAKIBU~1\AppData\Local\Temp\ccHskV3j.s 			page 38


 2102 0e7d 18       		.byte	0x18
 2103 0e7e 96       		.byte	0x96
 2104 0e7f 39       		.uleb128 0x39
 2105 0e80 C2080000 		.4byte	.LASF183
 2106 0e84 C2080000 		.4byte	.LASF183
 2107 0e88 18       		.byte	0x18
 2108 0e89 97       		.byte	0x97
 2109 0e8a 39       		.uleb128 0x39
 2110 0e8b 24040000 		.4byte	.LASF184
 2111 0e8f 24040000 		.4byte	.LASF184
 2112 0e93 11       		.byte	0x11
 2113 0e94 50       		.byte	0x50
 2114 0e95 39       		.uleb128 0x39
 2115 0e96 98060000 		.4byte	.LASF185
 2116 0e9a 98060000 		.4byte	.LASF185
 2117 0e9e 19       		.byte	0x19
 2118 0e9f 63       		.byte	0x63
 2119 0ea0 39       		.uleb128 0x39
 2120 0ea1 50030000 		.4byte	.LASF186
 2121 0ea5 50030000 		.4byte	.LASF186
 2122 0ea9 18       		.byte	0x18
 2123 0eaa 9C       		.byte	0x9c
 2124 0eab 00       		.byte	0
 2125              		.section	.debug_abbrev,"",%progbits
 2126              	.Ldebug_abbrev0:
 2127 0000 01       		.uleb128 0x1
 2128 0001 11       		.uleb128 0x11
 2129 0002 01       		.byte	0x1
 2130 0003 25       		.uleb128 0x25
 2131 0004 0E       		.uleb128 0xe
 2132 0005 13       		.uleb128 0x13
 2133 0006 0B       		.uleb128 0xb
 2134 0007 03       		.uleb128 0x3
 2135 0008 0E       		.uleb128 0xe
 2136 0009 1B       		.uleb128 0x1b
 2137 000a 0E       		.uleb128 0xe
 2138 000b 11       		.uleb128 0x11
 2139 000c 01       		.uleb128 0x1
 2140 000d 12       		.uleb128 0x12
 2141 000e 06       		.uleb128 0x6
 2142 000f 10       		.uleb128 0x10
 2143 0010 17       		.uleb128 0x17
 2144 0011 00       		.byte	0
 2145 0012 00       		.byte	0
 2146 0013 02       		.uleb128 0x2
 2147 0014 24       		.uleb128 0x24
 2148 0015 00       		.byte	0
 2149 0016 0B       		.uleb128 0xb
 2150 0017 0B       		.uleb128 0xb
 2151 0018 3E       		.uleb128 0x3e
 2152 0019 0B       		.uleb128 0xb
 2153 001a 03       		.uleb128 0x3
 2154 001b 08       		.uleb128 0x8
 2155 001c 00       		.byte	0
 2156 001d 00       		.byte	0
 2157 001e 03       		.uleb128 0x3
 2158 001f 16       		.uleb128 0x16
ARM GAS  C:\Users\RAKIBU~1\AppData\Local\Temp\ccHskV3j.s 			page 39


 2159 0020 00       		.byte	0
 2160 0021 03       		.uleb128 0x3
 2161 0022 0E       		.uleb128 0xe
 2162 0023 3A       		.uleb128 0x3a
 2163 0024 0B       		.uleb128 0xb
 2164 0025 3B       		.uleb128 0x3b
 2165 0026 0B       		.uleb128 0xb
 2166 0027 49       		.uleb128 0x49
 2167 0028 13       		.uleb128 0x13
 2168 0029 00       		.byte	0
 2169 002a 00       		.byte	0
 2170 002b 04       		.uleb128 0x4
 2171 002c 24       		.uleb128 0x24
 2172 002d 00       		.byte	0
 2173 002e 0B       		.uleb128 0xb
 2174 002f 0B       		.uleb128 0xb
 2175 0030 3E       		.uleb128 0x3e
 2176 0031 0B       		.uleb128 0xb
 2177 0032 03       		.uleb128 0x3
 2178 0033 0E       		.uleb128 0xe
 2179 0034 00       		.byte	0
 2180 0035 00       		.byte	0
 2181 0036 05       		.uleb128 0x5
 2182 0037 26       		.uleb128 0x26
 2183 0038 00       		.byte	0
 2184 0039 49       		.uleb128 0x49
 2185 003a 13       		.uleb128 0x13
 2186 003b 00       		.byte	0
 2187 003c 00       		.byte	0
 2188 003d 06       		.uleb128 0x6
 2189 003e 35       		.uleb128 0x35
 2190 003f 00       		.byte	0
 2191 0040 49       		.uleb128 0x49
 2192 0041 13       		.uleb128 0x13
 2193 0042 00       		.byte	0
 2194 0043 00       		.byte	0
 2195 0044 07       		.uleb128 0x7
 2196 0045 13       		.uleb128 0x13
 2197 0046 01       		.byte	0x1
 2198 0047 03       		.uleb128 0x3
 2199 0048 0E       		.uleb128 0xe
 2200 0049 0B       		.uleb128 0xb
 2201 004a 0B       		.uleb128 0xb
 2202 004b 3A       		.uleb128 0x3a
 2203 004c 0B       		.uleb128 0xb
 2204 004d 3B       		.uleb128 0x3b
 2205 004e 0B       		.uleb128 0xb
 2206 004f 01       		.uleb128 0x1
 2207 0050 13       		.uleb128 0x13
 2208 0051 00       		.byte	0
 2209 0052 00       		.byte	0
 2210 0053 08       		.uleb128 0x8
 2211 0054 0D       		.uleb128 0xd
 2212 0055 00       		.byte	0
 2213 0056 03       		.uleb128 0x3
 2214 0057 0E       		.uleb128 0xe
 2215 0058 3A       		.uleb128 0x3a
ARM GAS  C:\Users\RAKIBU~1\AppData\Local\Temp\ccHskV3j.s 			page 40


 2216 0059 0B       		.uleb128 0xb
 2217 005a 3B       		.uleb128 0x3b
 2218 005b 0B       		.uleb128 0xb
 2219 005c 49       		.uleb128 0x49
 2220 005d 13       		.uleb128 0x13
 2221 005e 38       		.uleb128 0x38
 2222 005f 0B       		.uleb128 0xb
 2223 0060 00       		.byte	0
 2224 0061 00       		.byte	0
 2225 0062 09       		.uleb128 0x9
 2226 0063 0D       		.uleb128 0xd
 2227 0064 00       		.byte	0
 2228 0065 03       		.uleb128 0x3
 2229 0066 08       		.uleb128 0x8
 2230 0067 3A       		.uleb128 0x3a
 2231 0068 0B       		.uleb128 0xb
 2232 0069 3B       		.uleb128 0x3b
 2233 006a 0B       		.uleb128 0xb
 2234 006b 49       		.uleb128 0x49
 2235 006c 13       		.uleb128 0x13
 2236 006d 38       		.uleb128 0x38
 2237 006e 0B       		.uleb128 0xb
 2238 006f 00       		.byte	0
 2239 0070 00       		.byte	0
 2240 0071 0A       		.uleb128 0xa
 2241 0072 0D       		.uleb128 0xd
 2242 0073 00       		.byte	0
 2243 0074 03       		.uleb128 0x3
 2244 0075 08       		.uleb128 0x8
 2245 0076 3A       		.uleb128 0x3a
 2246 0077 0B       		.uleb128 0xb
 2247 0078 3B       		.uleb128 0x3b
 2248 0079 05       		.uleb128 0x5
 2249 007a 49       		.uleb128 0x49
 2250 007b 13       		.uleb128 0x13
 2251 007c 38       		.uleb128 0x38
 2252 007d 0B       		.uleb128 0xb
 2253 007e 00       		.byte	0
 2254 007f 00       		.byte	0
 2255 0080 0B       		.uleb128 0xb
 2256 0081 0D       		.uleb128 0xd
 2257 0082 00       		.byte	0
 2258 0083 03       		.uleb128 0x3
 2259 0084 0E       		.uleb128 0xe
 2260 0085 3A       		.uleb128 0x3a
 2261 0086 0B       		.uleb128 0xb
 2262 0087 3B       		.uleb128 0x3b
 2263 0088 05       		.uleb128 0x5
 2264 0089 49       		.uleb128 0x49
 2265 008a 13       		.uleb128 0x13
 2266 008b 38       		.uleb128 0x38
 2267 008c 0B       		.uleb128 0xb
 2268 008d 00       		.byte	0
 2269 008e 00       		.byte	0
 2270 008f 0C       		.uleb128 0xc
 2271 0090 0F       		.uleb128 0xf
 2272 0091 00       		.byte	0
ARM GAS  C:\Users\RAKIBU~1\AppData\Local\Temp\ccHskV3j.s 			page 41


 2273 0092 0B       		.uleb128 0xb
 2274 0093 0B       		.uleb128 0xb
 2275 0094 49       		.uleb128 0x49
 2276 0095 13       		.uleb128 0x13
 2277 0096 00       		.byte	0
 2278 0097 00       		.byte	0
 2279 0098 0D       		.uleb128 0xd
 2280 0099 13       		.uleb128 0x13
 2281 009a 01       		.byte	0x1
 2282 009b 03       		.uleb128 0x3
 2283 009c 0E       		.uleb128 0xe
 2284 009d 0B       		.uleb128 0xb
 2285 009e 0B       		.uleb128 0xb
 2286 009f 3A       		.uleb128 0x3a
 2287 00a0 0B       		.uleb128 0xb
 2288 00a1 3B       		.uleb128 0x3b
 2289 00a2 05       		.uleb128 0x5
 2290 00a3 01       		.uleb128 0x1
 2291 00a4 13       		.uleb128 0x13
 2292 00a5 00       		.byte	0
 2293 00a6 00       		.byte	0
 2294 00a7 0E       		.uleb128 0xe
 2295 00a8 15       		.uleb128 0x15
 2296 00a9 01       		.byte	0x1
 2297 00aa 27       		.uleb128 0x27
 2298 00ab 19       		.uleb128 0x19
 2299 00ac 01       		.uleb128 0x1
 2300 00ad 13       		.uleb128 0x13
 2301 00ae 00       		.byte	0
 2302 00af 00       		.byte	0
 2303 00b0 0F       		.uleb128 0xf
 2304 00b1 05       		.uleb128 0x5
 2305 00b2 00       		.byte	0
 2306 00b3 49       		.uleb128 0x49
 2307 00b4 13       		.uleb128 0x13
 2308 00b5 00       		.byte	0
 2309 00b6 00       		.byte	0
 2310 00b7 10       		.uleb128 0x10
 2311 00b8 0F       		.uleb128 0xf
 2312 00b9 00       		.byte	0
 2313 00ba 0B       		.uleb128 0xb
 2314 00bb 0B       		.uleb128 0xb
 2315 00bc 00       		.byte	0
 2316 00bd 00       		.byte	0
 2317 00be 11       		.uleb128 0x11
 2318 00bf 13       		.uleb128 0x13
 2319 00c0 01       		.byte	0x1
 2320 00c1 03       		.uleb128 0x3
 2321 00c2 0E       		.uleb128 0xe
 2322 00c3 0B       		.uleb128 0xb
 2323 00c4 05       		.uleb128 0x5
 2324 00c5 3A       		.uleb128 0x3a
 2325 00c6 0B       		.uleb128 0xb
 2326 00c7 3B       		.uleb128 0x3b
 2327 00c8 05       		.uleb128 0x5
 2328 00c9 01       		.uleb128 0x1
 2329 00ca 13       		.uleb128 0x13
ARM GAS  C:\Users\RAKIBU~1\AppData\Local\Temp\ccHskV3j.s 			page 42


 2330 00cb 00       		.byte	0
 2331 00cc 00       		.byte	0
 2332 00cd 12       		.uleb128 0x12
 2333 00ce 0D       		.uleb128 0xd
 2334 00cf 00       		.byte	0
 2335 00d0 03       		.uleb128 0x3
 2336 00d1 0E       		.uleb128 0xe
 2337 00d2 3A       		.uleb128 0x3a
 2338 00d3 0B       		.uleb128 0xb
 2339 00d4 3B       		.uleb128 0x3b
 2340 00d5 05       		.uleb128 0x5
 2341 00d6 49       		.uleb128 0x49
 2342 00d7 13       		.uleb128 0x13
 2343 00d8 38       		.uleb128 0x38
 2344 00d9 05       		.uleb128 0x5
 2345 00da 00       		.byte	0
 2346 00db 00       		.byte	0
 2347 00dc 13       		.uleb128 0x13
 2348 00dd 0D       		.uleb128 0xd
 2349 00de 00       		.byte	0
 2350 00df 03       		.uleb128 0x3
 2351 00e0 08       		.uleb128 0x8
 2352 00e1 3A       		.uleb128 0x3a
 2353 00e2 0B       		.uleb128 0xb
 2354 00e3 3B       		.uleb128 0x3b
 2355 00e4 05       		.uleb128 0x5
 2356 00e5 49       		.uleb128 0x49
 2357 00e6 13       		.uleb128 0x13
 2358 00e7 38       		.uleb128 0x38
 2359 00e8 05       		.uleb128 0x5
 2360 00e9 00       		.byte	0
 2361 00ea 00       		.byte	0
 2362 00eb 14       		.uleb128 0x14
 2363 00ec 34       		.uleb128 0x34
 2364 00ed 00       		.byte	0
 2365 00ee 03       		.uleb128 0x3
 2366 00ef 0E       		.uleb128 0xe
 2367 00f0 3A       		.uleb128 0x3a
 2368 00f1 0B       		.uleb128 0xb
 2369 00f2 3B       		.uleb128 0x3b
 2370 00f3 05       		.uleb128 0x5
 2371 00f4 49       		.uleb128 0x49
 2372 00f5 13       		.uleb128 0x13
 2373 00f6 3F       		.uleb128 0x3f
 2374 00f7 19       		.uleb128 0x19
 2375 00f8 3C       		.uleb128 0x3c
 2376 00f9 19       		.uleb128 0x19
 2377 00fa 00       		.byte	0
 2378 00fb 00       		.byte	0
 2379 00fc 15       		.uleb128 0x15
 2380 00fd 34       		.uleb128 0x34
 2381 00fe 00       		.byte	0
 2382 00ff 03       		.uleb128 0x3
 2383 0100 0E       		.uleb128 0xe
 2384 0101 3A       		.uleb128 0x3a
 2385 0102 0B       		.uleb128 0xb
 2386 0103 3B       		.uleb128 0x3b
ARM GAS  C:\Users\RAKIBU~1\AppData\Local\Temp\ccHskV3j.s 			page 43


 2387 0104 0B       		.uleb128 0xb
 2388 0105 49       		.uleb128 0x49
 2389 0106 13       		.uleb128 0x13
 2390 0107 3F       		.uleb128 0x3f
 2391 0108 19       		.uleb128 0x19
 2392 0109 3C       		.uleb128 0x3c
 2393 010a 19       		.uleb128 0x19
 2394 010b 00       		.byte	0
 2395 010c 00       		.byte	0
 2396 010d 16       		.uleb128 0x16
 2397 010e 01       		.uleb128 0x1
 2398 010f 01       		.byte	0x1
 2399 0110 49       		.uleb128 0x49
 2400 0111 13       		.uleb128 0x13
 2401 0112 01       		.uleb128 0x1
 2402 0113 13       		.uleb128 0x13
 2403 0114 00       		.byte	0
 2404 0115 00       		.byte	0
 2405 0116 17       		.uleb128 0x17
 2406 0117 21       		.uleb128 0x21
 2407 0118 00       		.byte	0
 2408 0119 49       		.uleb128 0x49
 2409 011a 13       		.uleb128 0x13
 2410 011b 2F       		.uleb128 0x2f
 2411 011c 0B       		.uleb128 0xb
 2412 011d 00       		.byte	0
 2413 011e 00       		.byte	0
 2414 011f 18       		.uleb128 0x18
 2415 0120 13       		.uleb128 0x13
 2416 0121 01       		.byte	0x1
 2417 0122 0B       		.uleb128 0xb
 2418 0123 0B       		.uleb128 0xb
 2419 0124 3A       		.uleb128 0x3a
 2420 0125 0B       		.uleb128 0xb
 2421 0126 3B       		.uleb128 0x3b
 2422 0127 0B       		.uleb128 0xb
 2423 0128 01       		.uleb128 0x1
 2424 0129 13       		.uleb128 0x13
 2425 012a 00       		.byte	0
 2426 012b 00       		.byte	0
 2427 012c 19       		.uleb128 0x19
 2428 012d 17       		.uleb128 0x17
 2429 012e 01       		.byte	0x1
 2430 012f 0B       		.uleb128 0xb
 2431 0130 0B       		.uleb128 0xb
 2432 0131 3A       		.uleb128 0x3a
 2433 0132 0B       		.uleb128 0xb
 2434 0133 3B       		.uleb128 0x3b
 2435 0134 0B       		.uleb128 0xb
 2436 0135 01       		.uleb128 0x1
 2437 0136 13       		.uleb128 0x13
 2438 0137 00       		.byte	0
 2439 0138 00       		.byte	0
 2440 0139 1A       		.uleb128 0x1a
 2441 013a 0D       		.uleb128 0xd
 2442 013b 00       		.byte	0
 2443 013c 03       		.uleb128 0x3
ARM GAS  C:\Users\RAKIBU~1\AppData\Local\Temp\ccHskV3j.s 			page 44


 2444 013d 08       		.uleb128 0x8
 2445 013e 3A       		.uleb128 0x3a
 2446 013f 0B       		.uleb128 0xb
 2447 0140 3B       		.uleb128 0x3b
 2448 0141 0B       		.uleb128 0xb
 2449 0142 49       		.uleb128 0x49
 2450 0143 13       		.uleb128 0x13
 2451 0144 00       		.byte	0
 2452 0145 00       		.byte	0
 2453 0146 1B       		.uleb128 0x1b
 2454 0147 0D       		.uleb128 0xd
 2455 0148 00       		.byte	0
 2456 0149 03       		.uleb128 0x3
 2457 014a 0E       		.uleb128 0xe
 2458 014b 3A       		.uleb128 0x3a
 2459 014c 0B       		.uleb128 0xb
 2460 014d 3B       		.uleb128 0x3b
 2461 014e 0B       		.uleb128 0xb
 2462 014f 49       		.uleb128 0x49
 2463 0150 13       		.uleb128 0x13
 2464 0151 00       		.byte	0
 2465 0152 00       		.byte	0
 2466 0153 1C       		.uleb128 0x1c
 2467 0154 0D       		.uleb128 0xd
 2468 0155 00       		.byte	0
 2469 0156 03       		.uleb128 0x3
 2470 0157 0E       		.uleb128 0xe
 2471 0158 3A       		.uleb128 0x3a
 2472 0159 0B       		.uleb128 0xb
 2473 015a 3B       		.uleb128 0x3b
 2474 015b 0B       		.uleb128 0xb
 2475 015c 49       		.uleb128 0x49
 2476 015d 13       		.uleb128 0x13
 2477 015e 0B       		.uleb128 0xb
 2478 015f 0B       		.uleb128 0xb
 2479 0160 0D       		.uleb128 0xd
 2480 0161 0B       		.uleb128 0xb
 2481 0162 0C       		.uleb128 0xc
 2482 0163 0B       		.uleb128 0xb
 2483 0164 38       		.uleb128 0x38
 2484 0165 0B       		.uleb128 0xb
 2485 0166 00       		.byte	0
 2486 0167 00       		.byte	0
 2487 0168 1D       		.uleb128 0x1d
 2488 0169 13       		.uleb128 0x13
 2489 016a 01       		.byte	0x1
 2490 016b 0B       		.uleb128 0xb
 2491 016c 05       		.uleb128 0x5
 2492 016d 3A       		.uleb128 0x3a
 2493 016e 0B       		.uleb128 0xb
 2494 016f 3B       		.uleb128 0x3b
 2495 0170 0B       		.uleb128 0xb
 2496 0171 01       		.uleb128 0x1
 2497 0172 13       		.uleb128 0x13
 2498 0173 00       		.byte	0
 2499 0174 00       		.byte	0
 2500 0175 1E       		.uleb128 0x1e
ARM GAS  C:\Users\RAKIBU~1\AppData\Local\Temp\ccHskV3j.s 			page 45


 2501 0176 0D       		.uleb128 0xd
 2502 0177 00       		.byte	0
 2503 0178 03       		.uleb128 0x3
 2504 0179 0E       		.uleb128 0xe
 2505 017a 3A       		.uleb128 0x3a
 2506 017b 0B       		.uleb128 0xb
 2507 017c 3B       		.uleb128 0x3b
 2508 017d 05       		.uleb128 0x5
 2509 017e 49       		.uleb128 0x49
 2510 017f 13       		.uleb128 0x13
 2511 0180 00       		.byte	0
 2512 0181 00       		.byte	0
 2513 0182 1F       		.uleb128 0x1f
 2514 0183 34       		.uleb128 0x34
 2515 0184 00       		.byte	0
 2516 0185 03       		.uleb128 0x3
 2517 0186 08       		.uleb128 0x8
 2518 0187 3A       		.uleb128 0x3a
 2519 0188 0B       		.uleb128 0xb
 2520 0189 3B       		.uleb128 0x3b
 2521 018a 05       		.uleb128 0x5
 2522 018b 49       		.uleb128 0x49
 2523 018c 13       		.uleb128 0x13
 2524 018d 3F       		.uleb128 0x3f
 2525 018e 19       		.uleb128 0x19
 2526 018f 3C       		.uleb128 0x3c
 2527 0190 19       		.uleb128 0x19
 2528 0191 00       		.byte	0
 2529 0192 00       		.byte	0
 2530 0193 20       		.uleb128 0x20
 2531 0194 21       		.uleb128 0x21
 2532 0195 00       		.byte	0
 2533 0196 00       		.byte	0
 2534 0197 00       		.byte	0
 2535 0198 21       		.uleb128 0x21
 2536 0199 15       		.uleb128 0x15
 2537 019a 01       		.byte	0x1
 2538 019b 27       		.uleb128 0x27
 2539 019c 19       		.uleb128 0x19
 2540 019d 49       		.uleb128 0x49
 2541 019e 13       		.uleb128 0x13
 2542 019f 01       		.uleb128 0x1
 2543 01a0 13       		.uleb128 0x13
 2544 01a1 00       		.byte	0
 2545 01a2 00       		.byte	0
 2546 01a3 22       		.uleb128 0x22
 2547 01a4 16       		.uleb128 0x16
 2548 01a5 00       		.byte	0
 2549 01a6 03       		.uleb128 0x3
 2550 01a7 0E       		.uleb128 0xe
 2551 01a8 3A       		.uleb128 0x3a
 2552 01a9 0B       		.uleb128 0xb
 2553 01aa 3B       		.uleb128 0x3b
 2554 01ab 05       		.uleb128 0x5
 2555 01ac 49       		.uleb128 0x49
 2556 01ad 13       		.uleb128 0x13
 2557 01ae 00       		.byte	0
ARM GAS  C:\Users\RAKIBU~1\AppData\Local\Temp\ccHskV3j.s 			page 46


 2558 01af 00       		.byte	0
 2559 01b0 23       		.uleb128 0x23
 2560 01b1 34       		.uleb128 0x34
 2561 01b2 00       		.byte	0
 2562 01b3 47       		.uleb128 0x47
 2563 01b4 13       		.uleb128 0x13
 2564 01b5 3A       		.uleb128 0x3a
 2565 01b6 0B       		.uleb128 0xb
 2566 01b7 3B       		.uleb128 0x3b
 2567 01b8 0B       		.uleb128 0xb
 2568 01b9 02       		.uleb128 0x2
 2569 01ba 18       		.uleb128 0x18
 2570 01bb 00       		.byte	0
 2571 01bc 00       		.byte	0
 2572 01bd 24       		.uleb128 0x24
 2573 01be 2E       		.uleb128 0x2e
 2574 01bf 00       		.byte	0
 2575 01c0 3F       		.uleb128 0x3f
 2576 01c1 19       		.uleb128 0x19
 2577 01c2 03       		.uleb128 0x3
 2578 01c3 0E       		.uleb128 0xe
 2579 01c4 3A       		.uleb128 0x3a
 2580 01c5 0B       		.uleb128 0xb
 2581 01c6 3B       		.uleb128 0x3b
 2582 01c7 0B       		.uleb128 0xb
 2583 01c8 27       		.uleb128 0x27
 2584 01c9 19       		.uleb128 0x19
 2585 01ca 49       		.uleb128 0x49
 2586 01cb 13       		.uleb128 0x13
 2587 01cc 11       		.uleb128 0x11
 2588 01cd 01       		.uleb128 0x1
 2589 01ce 12       		.uleb128 0x12
 2590 01cf 06       		.uleb128 0x6
 2591 01d0 40       		.uleb128 0x40
 2592 01d1 18       		.uleb128 0x18
 2593 01d2 9742     		.uleb128 0x2117
 2594 01d4 19       		.uleb128 0x19
 2595 01d5 00       		.byte	0
 2596 01d6 00       		.byte	0
 2597 01d7 25       		.uleb128 0x25
 2598 01d8 2E       		.uleb128 0x2e
 2599 01d9 01       		.byte	0x1
 2600 01da 3F       		.uleb128 0x3f
 2601 01db 19       		.uleb128 0x19
 2602 01dc 03       		.uleb128 0x3
 2603 01dd 0E       		.uleb128 0xe
 2604 01de 3A       		.uleb128 0x3a
 2605 01df 0B       		.uleb128 0xb
 2606 01e0 3B       		.uleb128 0x3b
 2607 01e1 0B       		.uleb128 0xb
 2608 01e2 27       		.uleb128 0x27
 2609 01e3 19       		.uleb128 0x19
 2610 01e4 49       		.uleb128 0x49
 2611 01e5 13       		.uleb128 0x13
 2612 01e6 11       		.uleb128 0x11
 2613 01e7 01       		.uleb128 0x1
 2614 01e8 12       		.uleb128 0x12
ARM GAS  C:\Users\RAKIBU~1\AppData\Local\Temp\ccHskV3j.s 			page 47


 2615 01e9 06       		.uleb128 0x6
 2616 01ea 40       		.uleb128 0x40
 2617 01eb 18       		.uleb128 0x18
 2618 01ec 9742     		.uleb128 0x2117
 2619 01ee 19       		.uleb128 0x19
 2620 01ef 01       		.uleb128 0x1
 2621 01f0 13       		.uleb128 0x13
 2622 01f1 00       		.byte	0
 2623 01f2 00       		.byte	0
 2624 01f3 26       		.uleb128 0x26
 2625 01f4 05       		.uleb128 0x5
 2626 01f5 00       		.byte	0
 2627 01f6 03       		.uleb128 0x3
 2628 01f7 0E       		.uleb128 0xe
 2629 01f8 3A       		.uleb128 0x3a
 2630 01f9 0B       		.uleb128 0xb
 2631 01fa 3B       		.uleb128 0x3b
 2632 01fb 0B       		.uleb128 0xb
 2633 01fc 49       		.uleb128 0x49
 2634 01fd 13       		.uleb128 0x13
 2635 01fe 02       		.uleb128 0x2
 2636 01ff 17       		.uleb128 0x17
 2637 0200 00       		.byte	0
 2638 0201 00       		.byte	0
 2639 0202 27       		.uleb128 0x27
 2640 0203 34       		.uleb128 0x34
 2641 0204 00       		.byte	0
 2642 0205 03       		.uleb128 0x3
 2643 0206 08       		.uleb128 0x8
 2644 0207 3A       		.uleb128 0x3a
 2645 0208 0B       		.uleb128 0xb
 2646 0209 3B       		.uleb128 0x3b
 2647 020a 0B       		.uleb128 0xb
 2648 020b 49       		.uleb128 0x49
 2649 020c 13       		.uleb128 0x13
 2650 020d 02       		.uleb128 0x2
 2651 020e 17       		.uleb128 0x17
 2652 020f 00       		.byte	0
 2653 0210 00       		.byte	0
 2654 0211 28       		.uleb128 0x28
 2655 0212 1D       		.uleb128 0x1d
 2656 0213 01       		.byte	0x1
 2657 0214 31       		.uleb128 0x31
 2658 0215 13       		.uleb128 0x13
 2659 0216 11       		.uleb128 0x11
 2660 0217 01       		.uleb128 0x1
 2661 0218 12       		.uleb128 0x12
 2662 0219 06       		.uleb128 0x6
 2663 021a 58       		.uleb128 0x58
 2664 021b 0B       		.uleb128 0xb
 2665 021c 59       		.uleb128 0x59
 2666 021d 0B       		.uleb128 0xb
 2667 021e 01       		.uleb128 0x1
 2668 021f 13       		.uleb128 0x13
 2669 0220 00       		.byte	0
 2670 0221 00       		.byte	0
 2671 0222 29       		.uleb128 0x29
ARM GAS  C:\Users\RAKIBU~1\AppData\Local\Temp\ccHskV3j.s 			page 48


 2672 0223 1D       		.uleb128 0x1d
 2673 0224 01       		.byte	0x1
 2674 0225 31       		.uleb128 0x31
 2675 0226 13       		.uleb128 0x13
 2676 0227 11       		.uleb128 0x11
 2677 0228 01       		.uleb128 0x1
 2678 0229 12       		.uleb128 0x12
 2679 022a 06       		.uleb128 0x6
 2680 022b 58       		.uleb128 0x58
 2681 022c 0B       		.uleb128 0xb
 2682 022d 59       		.uleb128 0x59
 2683 022e 05       		.uleb128 0x5
 2684 022f 01       		.uleb128 0x1
 2685 0230 13       		.uleb128 0x13
 2686 0231 00       		.byte	0
 2687 0232 00       		.byte	0
 2688 0233 2A       		.uleb128 0x2a
 2689 0234 1D       		.uleb128 0x1d
 2690 0235 01       		.byte	0x1
 2691 0236 31       		.uleb128 0x31
 2692 0237 13       		.uleb128 0x13
 2693 0238 11       		.uleb128 0x11
 2694 0239 01       		.uleb128 0x1
 2695 023a 12       		.uleb128 0x12
 2696 023b 06       		.uleb128 0x6
 2697 023c 58       		.uleb128 0x58
 2698 023d 0B       		.uleb128 0xb
 2699 023e 59       		.uleb128 0x59
 2700 023f 05       		.uleb128 0x5
 2701 0240 00       		.byte	0
 2702 0241 00       		.byte	0
 2703 0242 2B       		.uleb128 0x2b
 2704 0243 05       		.uleb128 0x5
 2705 0244 00       		.byte	0
 2706 0245 31       		.uleb128 0x31
 2707 0246 13       		.uleb128 0x13
 2708 0247 02       		.uleb128 0x2
 2709 0248 17       		.uleb128 0x17
 2710 0249 00       		.byte	0
 2711 024a 00       		.byte	0
 2712 024b 2C       		.uleb128 0x2c
 2713 024c 898201   		.uleb128 0x4109
 2714 024f 00       		.byte	0
 2715 0250 11       		.uleb128 0x11
 2716 0251 01       		.uleb128 0x1
 2717 0252 31       		.uleb128 0x31
 2718 0253 13       		.uleb128 0x13
 2719 0254 00       		.byte	0
 2720 0255 00       		.byte	0
 2721 0256 2D       		.uleb128 0x2d
 2722 0257 1D       		.uleb128 0x1d
 2723 0258 01       		.byte	0x1
 2724 0259 31       		.uleb128 0x31
 2725 025a 13       		.uleb128 0x13
 2726 025b 52       		.uleb128 0x52
 2727 025c 01       		.uleb128 0x1
 2728 025d 55       		.uleb128 0x55
ARM GAS  C:\Users\RAKIBU~1\AppData\Local\Temp\ccHskV3j.s 			page 49


 2729 025e 17       		.uleb128 0x17
 2730 025f 58       		.uleb128 0x58
 2731 0260 0B       		.uleb128 0xb
 2732 0261 59       		.uleb128 0x59
 2733 0262 0B       		.uleb128 0xb
 2734 0263 01       		.uleb128 0x1
 2735 0264 13       		.uleb128 0x13
 2736 0265 00       		.byte	0
 2737 0266 00       		.byte	0
 2738 0267 2E       		.uleb128 0x2e
 2739 0268 0B       		.uleb128 0xb
 2740 0269 01       		.byte	0x1
 2741 026a 55       		.uleb128 0x55
 2742 026b 17       		.uleb128 0x17
 2743 026c 00       		.byte	0
 2744 026d 00       		.byte	0
 2745 026e 2F       		.uleb128 0x2f
 2746 026f 34       		.uleb128 0x34
 2747 0270 00       		.byte	0
 2748 0271 31       		.uleb128 0x31
 2749 0272 13       		.uleb128 0x13
 2750 0273 00       		.byte	0
 2751 0274 00       		.byte	0
 2752 0275 30       		.uleb128 0x30
 2753 0276 898201   		.uleb128 0x4109
 2754 0279 01       		.byte	0x1
 2755 027a 11       		.uleb128 0x11
 2756 027b 01       		.uleb128 0x1
 2757 027c 31       		.uleb128 0x31
 2758 027d 13       		.uleb128 0x13
 2759 027e 00       		.byte	0
 2760 027f 00       		.byte	0
 2761 0280 31       		.uleb128 0x31
 2762 0281 8A8201   		.uleb128 0x410a
 2763 0284 00       		.byte	0
 2764 0285 02       		.uleb128 0x2
 2765 0286 18       		.uleb128 0x18
 2766 0287 9142     		.uleb128 0x2111
 2767 0289 18       		.uleb128 0x18
 2768 028a 00       		.byte	0
 2769 028b 00       		.byte	0
 2770 028c 32       		.uleb128 0x32
 2771 028d 34       		.uleb128 0x34
 2772 028e 00       		.byte	0
 2773 028f 03       		.uleb128 0x3
 2774 0290 0E       		.uleb128 0xe
 2775 0291 3A       		.uleb128 0x3a
 2776 0292 0B       		.uleb128 0xb
 2777 0293 3B       		.uleb128 0x3b
 2778 0294 0B       		.uleb128 0xb
 2779 0295 49       		.uleb128 0x49
 2780 0296 13       		.uleb128 0x13
 2781 0297 02       		.uleb128 0x2
 2782 0298 18       		.uleb128 0x18
 2783 0299 00       		.byte	0
 2784 029a 00       		.byte	0
 2785 029b 33       		.uleb128 0x33
ARM GAS  C:\Users\RAKIBU~1\AppData\Local\Temp\ccHskV3j.s 			page 50


 2786 029c 34       		.uleb128 0x34
 2787 029d 00       		.byte	0
 2788 029e 03       		.uleb128 0x3
 2789 029f 0E       		.uleb128 0xe
 2790 02a0 49       		.uleb128 0x49
 2791 02a1 13       		.uleb128 0x13
 2792 02a2 34       		.uleb128 0x34
 2793 02a3 19       		.uleb128 0x19
 2794 02a4 02       		.uleb128 0x2
 2795 02a5 18       		.uleb128 0x18
 2796 02a6 00       		.byte	0
 2797 02a7 00       		.byte	0
 2798 02a8 34       		.uleb128 0x34
 2799 02a9 2E       		.uleb128 0x2e
 2800 02aa 01       		.byte	0x1
 2801 02ab 3F       		.uleb128 0x3f
 2802 02ac 19       		.uleb128 0x19
 2803 02ad 03       		.uleb128 0x3
 2804 02ae 0E       		.uleb128 0xe
 2805 02af 3A       		.uleb128 0x3a
 2806 02b0 0B       		.uleb128 0xb
 2807 02b1 3B       		.uleb128 0x3b
 2808 02b2 0B       		.uleb128 0xb
 2809 02b3 27       		.uleb128 0x27
 2810 02b4 19       		.uleb128 0x19
 2811 02b5 11       		.uleb128 0x11
 2812 02b6 01       		.uleb128 0x1
 2813 02b7 12       		.uleb128 0x12
 2814 02b8 06       		.uleb128 0x6
 2815 02b9 40       		.uleb128 0x40
 2816 02ba 18       		.uleb128 0x18
 2817 02bb 9742     		.uleb128 0x2117
 2818 02bd 19       		.uleb128 0x19
 2819 02be 01       		.uleb128 0x1
 2820 02bf 13       		.uleb128 0x13
 2821 02c0 00       		.byte	0
 2822 02c1 00       		.byte	0
 2823 02c2 35       		.uleb128 0x35
 2824 02c3 2E       		.uleb128 0x2e
 2825 02c4 01       		.byte	0x1
 2826 02c5 03       		.uleb128 0x3
 2827 02c6 0E       		.uleb128 0xe
 2828 02c7 3A       		.uleb128 0x3a
 2829 02c8 0B       		.uleb128 0xb
 2830 02c9 3B       		.uleb128 0x3b
 2831 02ca 05       		.uleb128 0x5
 2832 02cb 27       		.uleb128 0x27
 2833 02cc 19       		.uleb128 0x19
 2834 02cd 20       		.uleb128 0x20
 2835 02ce 0B       		.uleb128 0xb
 2836 02cf 01       		.uleb128 0x1
 2837 02d0 13       		.uleb128 0x13
 2838 02d1 00       		.byte	0
 2839 02d2 00       		.byte	0
 2840 02d3 36       		.uleb128 0x36
 2841 02d4 34       		.uleb128 0x34
 2842 02d5 00       		.byte	0
ARM GAS  C:\Users\RAKIBU~1\AppData\Local\Temp\ccHskV3j.s 			page 51


 2843 02d6 03       		.uleb128 0x3
 2844 02d7 0E       		.uleb128 0xe
 2845 02d8 49       		.uleb128 0x49
 2846 02d9 13       		.uleb128 0x13
 2847 02da 34       		.uleb128 0x34
 2848 02db 19       		.uleb128 0x19
 2849 02dc 1C       		.uleb128 0x1c
 2850 02dd 0E       		.uleb128 0xe
 2851 02de 00       		.byte	0
 2852 02df 00       		.byte	0
 2853 02e0 37       		.uleb128 0x37
 2854 02e1 2E       		.uleb128 0x2e
 2855 02e2 00       		.byte	0
 2856 02e3 03       		.uleb128 0x3
 2857 02e4 0E       		.uleb128 0xe
 2858 02e5 3A       		.uleb128 0x3a
 2859 02e6 0B       		.uleb128 0xb
 2860 02e7 3B       		.uleb128 0x3b
 2861 02e8 05       		.uleb128 0x5
 2862 02e9 27       		.uleb128 0x27
 2863 02ea 19       		.uleb128 0x19
 2864 02eb 20       		.uleb128 0x20
 2865 02ec 0B       		.uleb128 0xb
 2866 02ed 00       		.byte	0
 2867 02ee 00       		.byte	0
 2868 02ef 38       		.uleb128 0x38
 2869 02f0 05       		.uleb128 0x5
 2870 02f1 00       		.byte	0
 2871 02f2 03       		.uleb128 0x3
 2872 02f3 0E       		.uleb128 0xe
 2873 02f4 3A       		.uleb128 0x3a
 2874 02f5 0B       		.uleb128 0xb
 2875 02f6 3B       		.uleb128 0x3b
 2876 02f7 05       		.uleb128 0x5
 2877 02f8 49       		.uleb128 0x49
 2878 02f9 13       		.uleb128 0x13
 2879 02fa 00       		.byte	0
 2880 02fb 00       		.byte	0
 2881 02fc 39       		.uleb128 0x39
 2882 02fd 2E       		.uleb128 0x2e
 2883 02fe 00       		.byte	0
 2884 02ff 3F       		.uleb128 0x3f
 2885 0300 19       		.uleb128 0x19
 2886 0301 3C       		.uleb128 0x3c
 2887 0302 19       		.uleb128 0x19
 2888 0303 6E       		.uleb128 0x6e
 2889 0304 0E       		.uleb128 0xe
 2890 0305 03       		.uleb128 0x3
 2891 0306 0E       		.uleb128 0xe
 2892 0307 3A       		.uleb128 0x3a
 2893 0308 0B       		.uleb128 0xb
 2894 0309 3B       		.uleb128 0x3b
 2895 030a 0B       		.uleb128 0xb
 2896 030b 00       		.byte	0
 2897 030c 00       		.byte	0
 2898 030d 00       		.byte	0
 2899              		.section	.debug_loc,"",%progbits
ARM GAS  C:\Users\RAKIBU~1\AppData\Local\Temp\ccHskV3j.s 			page 52


 2900              	.Ldebug_loc0:
 2901              	.LLST4:
 2902 0000 70000000 		.4byte	.LVL12-.Ltext0
 2903 0004 81000000 		.4byte	.LVL15-1-.Ltext0
 2904 0008 0100     		.2byte	0x1
 2905 000a 50       		.byte	0x50
 2906 000b 81000000 		.4byte	.LVL15-1-.Ltext0
 2907 000f 92000000 		.4byte	.LVL18-.Ltext0
 2908 0013 0100     		.2byte	0x1
 2909 0015 54       		.byte	0x54
 2910 0016 92000000 		.4byte	.LVL18-.Ltext0
 2911 001a C8000000 		.4byte	.LFE297-.Ltext0
 2912 001e 0400     		.2byte	0x4
 2913 0020 F3       		.byte	0xf3
 2914 0021 01       		.uleb128 0x1
 2915 0022 50       		.byte	0x50
 2916 0023 9F       		.byte	0x9f
 2917 0024 00000000 		.4byte	0
 2918 0028 00000000 		.4byte	0
 2919              	.LLST5:
 2920 002c 70000000 		.4byte	.LVL12-.Ltext0
 2921 0030 81000000 		.4byte	.LVL15-1-.Ltext0
 2922 0034 0100     		.2byte	0x1
 2923 0036 51       		.byte	0x51
 2924 0037 81000000 		.4byte	.LVL15-1-.Ltext0
 2925 003b C8000000 		.4byte	.LFE297-.Ltext0
 2926 003f 0100     		.2byte	0x1
 2927 0041 55       		.byte	0x55
 2928 0042 00000000 		.4byte	0
 2929 0046 00000000 		.4byte	0
 2930              	.LLST6:
 2931 004a 70000000 		.4byte	.LVL12-.Ltext0
 2932 004e 81000000 		.4byte	.LVL15-1-.Ltext0
 2933 0052 0100     		.2byte	0x1
 2934 0054 52       		.byte	0x52
 2935 0055 81000000 		.4byte	.LVL15-1-.Ltext0
 2936 0059 C8000000 		.4byte	.LFE297-.Ltext0
 2937 005d 0100     		.2byte	0x1
 2938 005f 56       		.byte	0x56
 2939 0060 00000000 		.4byte	0
 2940 0064 00000000 		.4byte	0
 2941              	.LLST7:
 2942 0068 92000000 		.4byte	.LVL18-.Ltext0
 2943 006c 95000000 		.4byte	.LVL19-1-.Ltext0
 2944 0070 0100     		.2byte	0x1
 2945 0072 50       		.byte	0x50
 2946 0073 95000000 		.4byte	.LVL19-1-.Ltext0
 2947 0077 C8000000 		.4byte	.LFE297-.Ltext0
 2948 007b 0100     		.2byte	0x1
 2949 007d 54       		.byte	0x54
 2950 007e 00000000 		.4byte	0
 2951 0082 00000000 		.4byte	0
 2952              	.LLST8:
 2953 0086 78000000 		.4byte	.LVL13-.Ltext0
 2954 008a 7E000000 		.4byte	.LVL14-.Ltext0
 2955 008e 0300     		.2byte	0x3
 2956 0090 08       		.byte	0x8
ARM GAS  C:\Users\RAKIBU~1\AppData\Local\Temp\ccHskV3j.s 			page 53


 2957 0091 20       		.byte	0x20
 2958 0092 9F       		.byte	0x9f
 2959 0093 00000000 		.4byte	0
 2960 0097 00000000 		.4byte	0
 2961              	.LLST9:
 2962 009b AC000000 		.4byte	.LVL21-.Ltext0
 2963 009f B2000000 		.4byte	.LVL22-.Ltext0
 2964 00a3 0200     		.2byte	0x2
 2965 00a5 30       		.byte	0x30
 2966 00a6 9F       		.byte	0x9f
 2967 00a7 00000000 		.4byte	0
 2968 00ab 00000000 		.4byte	0
 2969              	.LLST0:
 2970 00af 20000000 		.4byte	.LVL0-.Ltext0
 2971 00b3 2B000000 		.4byte	.LVL1-1-.Ltext0
 2972 00b7 0100     		.2byte	0x1
 2973 00b9 50       		.byte	0x50
 2974 00ba 2B000000 		.4byte	.LVL1-1-.Ltext0
 2975 00be 42000000 		.4byte	.LVL3-.Ltext0
 2976 00c2 0100     		.2byte	0x1
 2977 00c4 54       		.byte	0x54
 2978 00c5 42000000 		.4byte	.LVL3-.Ltext0
 2979 00c9 50000000 		.4byte	.LVL5-.Ltext0
 2980 00cd 0100     		.2byte	0x1
 2981 00cf 53       		.byte	0x53
 2982 00d0 50000000 		.4byte	.LVL5-.Ltext0
 2983 00d4 52000000 		.4byte	.LVL6-.Ltext0
 2984 00d8 0C00     		.2byte	0xc
 2985 00da 76       		.byte	0x76
 2986 00db 00       		.sleb128 0
 2987 00dc F3       		.byte	0xf3
 2988 00dd 01       		.uleb128 0x1
 2989 00de 50       		.byte	0x50
 2990 00df 22       		.byte	0x22
 2991 00e0 31       		.byte	0x31
 2992 00e1 1C       		.byte	0x1c
 2993 00e2 72       		.byte	0x72
 2994 00e3 00       		.sleb128 0
 2995 00e4 1A       		.byte	0x1a
 2996 00e5 9F       		.byte	0x9f
 2997 00e6 52000000 		.4byte	.LVL6-.Ltext0
 2998 00ea 70000000 		.4byte	.LFE296-.Ltext0
 2999 00ee 0D00     		.2byte	0xd
 3000 00f0 76       		.byte	0x76
 3001 00f1 00       		.sleb128 0
 3002 00f2 F3       		.byte	0xf3
 3003 00f3 01       		.uleb128 0x1
 3004 00f4 50       		.byte	0x50
 3005 00f5 22       		.byte	0x22
 3006 00f6 31       		.byte	0x31
 3007 00f7 1C       		.byte	0x1c
 3008 00f8 76       		.byte	0x76
 3009 00f9 00       		.sleb128 0
 3010 00fa 1F       		.byte	0x1f
 3011 00fb 1A       		.byte	0x1a
 3012 00fc 9F       		.byte	0x9f
 3013 00fd 00000000 		.4byte	0
ARM GAS  C:\Users\RAKIBU~1\AppData\Local\Temp\ccHskV3j.s 			page 54


 3014 0101 00000000 		.4byte	0
 3015              	.LLST1:
 3016 0105 20000000 		.4byte	.LVL0-.Ltext0
 3017 0109 2B000000 		.4byte	.LVL1-1-.Ltext0
 3018 010d 0100     		.2byte	0x1
 3019 010f 51       		.byte	0x51
 3020 0110 2B000000 		.4byte	.LVL1-1-.Ltext0
 3021 0114 70000000 		.4byte	.LFE296-.Ltext0
 3022 0118 0100     		.2byte	0x1
 3023 011a 56       		.byte	0x56
 3024 011b 00000000 		.4byte	0
 3025 011f 00000000 		.4byte	0
 3026              	.LLST2:
 3027 0123 20000000 		.4byte	.LVL0-.Ltext0
 3028 0127 2B000000 		.4byte	.LVL1-1-.Ltext0
 3029 012b 0100     		.2byte	0x1
 3030 012d 52       		.byte	0x52
 3031 012e 2B000000 		.4byte	.LVL1-1-.Ltext0
 3032 0132 70000000 		.4byte	.LFE296-.Ltext0
 3033 0136 0100     		.2byte	0x1
 3034 0138 55       		.byte	0x55
 3035 0139 00000000 		.4byte	0
 3036 013d 00000000 		.4byte	0
 3037              	.LLST3:
 3038 0141 4E000000 		.4byte	.LVL4-.Ltext0
 3039 0145 5C000000 		.4byte	.LVL7-.Ltext0
 3040 0149 0100     		.2byte	0x1
 3041 014b 50       		.byte	0x50
 3042 014c 5C000000 		.4byte	.LVL7-.Ltext0
 3043 0150 5E000000 		.4byte	.LVL8-.Ltext0
 3044 0154 0F00     		.2byte	0xf
 3045 0156 74       		.byte	0x74
 3046 0157 00       		.sleb128 0
 3047 0158 75       		.byte	0x75
 3048 0159 00       		.sleb128 0
 3049 015a 22       		.byte	0x22
 3050 015b 76       		.byte	0x76
 3051 015c 00       		.sleb128 0
 3052 015d 22       		.byte	0x22
 3053 015e 31       		.byte	0x31
 3054 015f 1C       		.byte	0x1c
 3055 0160 76       		.byte	0x76
 3056 0161 00       		.sleb128 0
 3057 0162 1F       		.byte	0x1f
 3058 0163 1A       		.byte	0x1a
 3059 0164 9F       		.byte	0x9f
 3060 0165 5E000000 		.4byte	.LVL8-.Ltext0
 3061 0169 60000000 		.4byte	.LVL9-.Ltext0
 3062 016d 0100     		.2byte	0x1
 3063 016f 50       		.byte	0x50
 3064 0170 60000000 		.4byte	.LVL9-.Ltext0
 3065 0174 62000000 		.4byte	.LVL10-.Ltext0
 3066 0178 0F00     		.2byte	0xf
 3067 017a 74       		.byte	0x74
 3068 017b 00       		.sleb128 0
 3069 017c 75       		.byte	0x75
 3070 017d 00       		.sleb128 0
ARM GAS  C:\Users\RAKIBU~1\AppData\Local\Temp\ccHskV3j.s 			page 55


 3071 017e 22       		.byte	0x22
 3072 017f 76       		.byte	0x76
 3073 0180 00       		.sleb128 0
 3074 0181 22       		.byte	0x22
 3075 0182 31       		.byte	0x31
 3076 0183 1C       		.byte	0x1c
 3077 0184 76       		.byte	0x76
 3078 0185 00       		.sleb128 0
 3079 0186 1F       		.byte	0x1f
 3080 0187 1A       		.byte	0x1a
 3081 0188 9F       		.byte	0x9f
 3082 0189 62000000 		.4byte	.LVL10-.Ltext0
 3083 018d 64000000 		.4byte	.LVL11-.Ltext0
 3084 0191 0100     		.2byte	0x1
 3085 0193 50       		.byte	0x50
 3086 0194 64000000 		.4byte	.LVL11-.Ltext0
 3087 0198 70000000 		.4byte	.LFE296-.Ltext0
 3088 019c 0F00     		.2byte	0xf
 3089 019e 74       		.byte	0x74
 3090 019f 00       		.sleb128 0
 3091 01a0 75       		.byte	0x75
 3092 01a1 00       		.sleb128 0
 3093 01a2 22       		.byte	0x22
 3094 01a3 76       		.byte	0x76
 3095 01a4 00       		.sleb128 0
 3096 01a5 22       		.byte	0x22
 3097 01a6 31       		.byte	0x31
 3098 01a7 1C       		.byte	0x1c
 3099 01a8 76       		.byte	0x76
 3100 01a9 00       		.sleb128 0
 3101 01aa 1F       		.byte	0x1f
 3102 01ab 1A       		.byte	0x1a
 3103 01ac 9F       		.byte	0x9f
 3104 01ad 00000000 		.4byte	0
 3105 01b1 00000000 		.4byte	0
 3106              		.section	.debug_aranges,"",%progbits
 3107 0000 1C000000 		.4byte	0x1c
 3108 0004 0200     		.2byte	0x2
 3109 0006 00000000 		.4byte	.Ldebug_info0
 3110 000a 04       		.byte	0x4
 3111 000b 00       		.byte	0
 3112 000c 0000     		.2byte	0
 3113 000e 0000     		.2byte	0
 3114 0010 00000000 		.4byte	.Ltext0
 3115 0014 E0000000 		.4byte	.Letext0-.Ltext0
 3116 0018 00000000 		.4byte	0
 3117 001c 00000000 		.4byte	0
 3118              		.section	.debug_ranges,"",%progbits
 3119              	.Ldebug_ranges0:
 3120 0000 92000000 		.4byte	.LBB34-.Ltext0
 3121 0004 B2000000 		.4byte	.LBE34-.Ltext0
 3122 0008 B6000000 		.4byte	.LBB40-.Ltext0
 3123 000c C8000000 		.4byte	.LBE40-.Ltext0
 3124 0010 00000000 		.4byte	0
 3125 0014 00000000 		.4byte	0
 3126              		.section	.debug_line,"",%progbits
 3127              	.Ldebug_line0:
ARM GAS  C:\Users\RAKIBU~1\AppData\Local\Temp\ccHskV3j.s 			page 56


 3128 0000 66040000 		.section	.debug_str,"MS",%progbits,1
 3128      0200F403 
 3128      00000201 
 3128      FB0E0D00 
 3128      01010101 
 3129              	.LASF56:
 3130 0000 72656164 		.ascii	"ready_list_t\000"
 3130      795F6C69 
 3130      73745F74 
 3130      00
 3131              	.LASF4:
 3132 000d 73697A65 		.ascii	"size_t\000"
 3132      5F7400
 3133              	.LASF52:
 3134 0014 6E657874 		.ascii	"next\000"
 3134      00
 3135              	.LASF62:
 3136 0019 64656C74 		.ascii	"delta\000"
 3136      6100
 3137              	.LASF114:
 3138 001f 7264796D 		.ascii	"rdymsg\000"
 3138      736700
 3139              	.LASF20:
 3140 0026 75696E74 		.ascii	"uint64_t\000"
 3140      36345F74 
 3140      00
 3141              	.LASF78:
 3142 002f 6B65726E 		.ascii	"kernel_stats\000"
 3142      656C5F73 
 3142      74617473 
 3142      00
 3143              	.LASF5:
 3144 003c 5F5F7569 		.ascii	"__uint8_t\000"
 3144      6E74385F 
 3144      7400
 3145              	.LASF55:
 3146 0046 70726576 		.ascii	"prev\000"
 3146      00
 3147              	.LASF88:
 3148 004b 706F7274 		.ascii	"port_intctx\000"
 3148      5F696E74 
 3148      63747800 
 3149              	.LASF54:
 3150 0057 63685F74 		.ascii	"ch_threads_queue\000"
 3150      68726561 
 3150      64735F71 
 3150      75657565 
 3150      00
 3151              	.LASF67:
 3152 0068 73797374 		.ascii	"system_debug_t\000"
 3152      656D5F64 
 3152      65627567 
 3152      5F7400
 3153              	.LASF154:
 3154 0077 70726F76 		.ascii	"provider\000"
 3154      69646572 
 3154      00
ARM GAS  C:\Users\RAKIBU~1\AppData\Local\Temp\ccHskV3j.s 			page 57


 3155              	.LASF94:
 3156 0080 74797065 		.ascii	"type\000"
 3156      00
 3157              	.LASF164:
 3158 0085 73656D5F 		.ascii	"sem_list\000"
 3158      6C697374 
 3158      00
 3159              	.LASF178:
 3160 008e 706F7274 		.ascii	"port_lock\000"
 3160      5F6C6F63 
 3160      6B00
 3161              	.LASF87:
 3162 0098 706F7274 		.ascii	"port_context\000"
 3162      5F636F6E 
 3162      74657874 
 3162      00
 3163              	.LASF105:
 3164 00a5 776F7273 		.ascii	"worst\000"
 3164      7400
 3165              	.LASF108:
 3166 00ab 74696D65 		.ascii	"time_measurement_t\000"
 3166      5F6D6561 
 3166      73757265 
 3166      6D656E74 
 3166      5F7400
 3167              	.LASF15:
 3168 00be 6C6F6E67 		.ascii	"long long unsigned int\000"
 3168      206C6F6E 
 3168      6720756E 
 3168      7369676E 
 3168      65642069 
 3169              	.LASF101:
 3170 00d5 63685F74 		.ascii	"ch_trace_buffer_t\000"
 3170      72616365 
 3170      5F627566 
 3170      6665725F 
 3170      7400
 3171              	.LASF115:
 3172 00e7 65786974 		.ascii	"exitcode\000"
 3172      636F6465 
 3172      00
 3173              	.LASF77:
 3174 00f0 6D61696E 		.ascii	"mainthread\000"
 3174      74687265 
 3174      616400
 3175              	.LASF181:
 3176 00fb 5F737461 		.ascii	"_stats_start_measure_crit_thd\000"
 3176      74735F73 
 3176      74617274 
 3176      5F6D6561 
 3176      73757265 
 3177              	.LASF64:
 3178 0119 76697274 		.ascii	"virtual_timers_list_t\000"
 3178      75616C5F 
 3178      74696D65 
 3178      72735F6C 
 3178      6973745F 
ARM GAS  C:\Users\RAKIBU~1\AppData\Local\Temp\ccHskV3j.s 			page 58


 3179              	.LASF81:
 3180 012f 49544D5F 		.ascii	"ITM_RxBuffer\000"
 3180      52784275 
 3180      66666572 
 3180      00
 3181              	.LASF63:
 3182 013c 66756E63 		.ascii	"func\000"
 3182      00
 3183              	.LASF157:
 3184 0141 64796E5F 		.ascii	"dyn_element_t\000"
 3184      656C656D 
 3184      656E745F 
 3184      7400
 3185              	.LASF153:
 3186 014f 616C6967 		.ascii	"align\000"
 3186      6E00
 3187              	.LASF22:
 3188 0155 72747469 		.ascii	"rttime_t\000"
 3188      6D655F74 
 3188      00
 3189              	.LASF1:
 3190 015e 6C6F6E67 		.ascii	"long long int\000"
 3190      206C6F6E 
 3190      6720696E 
 3190      7400
 3191              	.LASF3:
 3192 016c 7369676E 		.ascii	"signed char\000"
 3192      65642063 
 3192      68617200 
 3193              	.LASF156:
 3194 0178 63685F64 		.ascii	"ch_dyn_element\000"
 3194      796E5F65 
 3194      6C656D65 
 3194      6E7400
 3195              	.LASF99:
 3196 0187 73697A65 		.ascii	"size\000"
 3196      00
 3197              	.LASF75:
 3198 018c 726C6973 		.ascii	"rlist\000"
 3198      7400
 3199              	.LASF192:
 3200 0192 62617365 		.ascii	"basePri\000"
 3200      50726900 
 3201              	.LASF76:
 3202 019a 76746C69 		.ascii	"vtlist\000"
 3202      737400
 3203              	.LASF177:
 3204 01a1 706F7274 		.ascii	"port_unlock\000"
 3204      5F756E6C 
 3204      6F636B00 
 3205              	.LASF190:
 3206 01ad 6368436F 		.ascii	"chCoreGetStatusX\000"
 3206      72654765 
 3206      74537461 
 3206      74757358 
 3206      00
 3207              	.LASF38:
ARM GAS  C:\Users\RAKIBU~1\AppData\Local\Temp\ccHskV3j.s 			page 59


 3208 01be 73746174 		.ascii	"state\000"
 3208      6500
 3209              	.LASF11:
 3210 01c4 6C6F6E67 		.ascii	"long int\000"
 3210      20696E74 
 3210      00
 3211              	.LASF98:
 3212 01cd 73757370 		.ascii	"suspended\000"
 3212      656E6465 
 3212      6400
 3213              	.LASF24:
 3214 01d7 74737461 		.ascii	"tstate_t\000"
 3214      74655F74 
 3214      00
 3215              	.LASF97:
 3216 01e0 63685F74 		.ascii	"ch_trace_event_t\000"
 3216      72616365 
 3216      5F657665 
 3216      6E745F74 
 3216      00
 3217              	.LASF171:
 3218 01f1 6368436F 		.ascii	"chCoreAllocAlignedWithOffset\000"
 3218      7265416C 
 3218      6C6F6341 
 3218      6C69676E 
 3218      65645769 
 3219              	.LASF47:
 3220 020e 73746174 		.ascii	"stats\000"
 3220      7300
 3221              	.LASF125:
 3222 0214 6964656E 		.ascii	"identifier\000"
 3222      74696669 
 3222      657200
 3223              	.LASF17:
 3224 021f 75696E74 		.ascii	"uint16_t\000"
 3224      31365F74 
 3224      00
 3225              	.LASF142:
 3226 0228 63686465 		.ascii	"chdebug_t\000"
 3226      6275675F 
 3226      7400
 3227              	.LASF140:
 3228 0232 6F66665F 		.ascii	"off_preempt\000"
 3228      70726565 
 3228      6D707400 
 3229              	.LASF100:
 3230 023e 62756666 		.ascii	"buffer\000"
 3230      657200
 3231              	.LASF12:
 3232 0245 5F5F7569 		.ascii	"__uint32_t\000"
 3232      6E743332 
 3232      5F7400
 3233              	.LASF85:
 3234 0250 72656761 		.ascii	"regarm_t\000"
 3234      726D5F74 
 3234      00
 3235              	.LASF166:
ARM GAS  C:\Users\RAKIBU~1\AppData\Local\Temp\ccHskV3j.s 			page 60


 3236 0259 6D62785F 		.ascii	"mbx_list\000"
 3236      6C697374 
 3236      00
 3237              	.LASF68:
 3238 0262 63685F73 		.ascii	"ch_system_debug\000"
 3238      79737465 
 3238      6D5F6465 
 3238      62756700 
 3239              	.LASF41:
 3240 0272 77616974 		.ascii	"waiting\000"
 3240      696E6700 
 3241              	.LASF84:
 3242 027a 41504250 		.ascii	"APBPrescTable\000"
 3242      72657363 
 3242      5461626C 
 3242      6500
 3243              	.LASF126:
 3244 0288 7A65726F 		.ascii	"zero\000"
 3244      00
 3245              	.LASF144:
 3246 028d 6D757465 		.ascii	"mutex_t\000"
 3246      785F7400 
 3247              	.LASF71:
 3248 0295 6C6F636B 		.ascii	"lock_cnt\000"
 3248      5F636E74 
 3248      00
 3249              	.LASF80:
 3250 029e 73797369 		.ascii	"sysinterval_t\000"
 3250      6E746572 
 3250      76616C5F 
 3250      7400
 3251              	.LASF29:
 3252 02ac 636E745F 		.ascii	"cnt_t\000"
 3252      7400
 3253              	.LASF42:
 3254 02b2 6D736771 		.ascii	"msgqueue\000"
 3254      75657565 
 3254      00
 3255              	.LASF0:
 3256 02bb 756E7369 		.ascii	"unsigned int\000"
 3256      676E6564 
 3256      20696E74 
 3256      00
 3257              	.LASF82:
 3258 02c8 53797374 		.ascii	"SystemCoreClock\000"
 3258      656D436F 
 3258      7265436C 
 3258      6F636B00 
 3259              	.LASF118:
 3260 02d8 77747365 		.ascii	"wtsemp\000"
 3260      6D7000
 3261              	.LASF116:
 3262 02df 77747472 		.ascii	"wttrp\000"
 3262      7000
 3263              	.LASF143:
 3264 02e5 63685F64 		.ascii	"ch_debug\000"
 3264      65627567 
ARM GAS  C:\Users\RAKIBU~1\AppData\Local\Temp\ccHskV3j.s 			page 61


 3264      00
 3265              	.LASF106:
 3266 02ee 6C617374 		.ascii	"last\000"
 3266      00
 3267              	.LASF155:
 3268 02f3 6D656D6F 		.ascii	"memory_pool_t\000"
 3268      72795F70 
 3268      6F6F6C5F 
 3268      7400
 3269              	.LASF109:
 3270 0301 6E5F6972 		.ascii	"n_irq\000"
 3270      7100
 3271              	.LASF32:
 3272 0307 71756575 		.ascii	"queue\000"
 3272      6500
 3273              	.LASF46:
 3274 030d 6D706F6F 		.ascii	"mpool\000"
 3274      6C00
 3275              	.LASF139:
 3276 0313 6F66665F 		.ascii	"off_refs\000"
 3276      72656673 
 3276      00
 3277              	.LASF113:
 3278 031c 6B65726E 		.ascii	"kernel_stats_t\000"
 3278      656C5F73 
 3278      74617473 
 3278      5F7400
 3279              	.LASF36:
 3280 032b 6E616D65 		.ascii	"name\000"
 3280      00
 3281              	.LASF50:
 3282 0330 63685F74 		.ascii	"ch_thread\000"
 3282      68726561 
 3282      6400
 3283              	.LASF27:
 3284 033a 6D73675F 		.ascii	"msg_t\000"
 3284      7400
 3285              	.LASF30:
 3286 0340 75636E74 		.ascii	"ucnt_t\000"
 3286      5F7400
 3287              	.LASF43:
 3288 0347 6570656E 		.ascii	"epending\000"
 3288      64696E67 
 3288      00
 3289              	.LASF186:
 3290 0350 63684462 		.ascii	"chDbgCheckClassI\000"
 3290      67436865 
 3290      636B436C 
 3290      61737349 
 3290      00
 3291              	.LASF73:
 3292 0361 63685F73 		.ascii	"ch_system_t\000"
 3292      79737465 
 3292      6D5F7400 
 3293              	.LASF188:
 3294 036d 2E2E2F2E 		.ascii	"../../../ChibiOSRepo/chibios191/os/oslib/src/chmemc"
 3294      2E2F2E2E 
ARM GAS  C:\Users\RAKIBU~1\AppData\Local\Temp\ccHskV3j.s 			page 62


 3294      2F436869 
 3294      62694F53 
 3294      5265706F 
 3295 03a0 6F72652E 		.ascii	"ore.c\000"
 3295      6300
 3296              	.LASF132:
 3297 03a6 6F66665F 		.ascii	"off_ctx\000"
 3297      63747800 
 3298              	.LASF23:
 3299 03ae 746D6F64 		.ascii	"tmode_t\000"
 3299      655F7400 
 3300              	.LASF112:
 3301 03b6 6D5F6372 		.ascii	"m_crit_isr\000"
 3301      69745F69 
 3301      737200
 3302              	.LASF57:
 3303 03c1 63685F72 		.ascii	"ch_ready_list\000"
 3303      65616479 
 3303      5F6C6973 
 3303      7400
 3304              	.LASF28:
 3305 03cf 6576656E 		.ascii	"eventmask_t\000"
 3305      746D6173 
 3305      6B5F7400 
 3306              	.LASF83:
 3307 03db 41484250 		.ascii	"AHBPrescTable\000"
 3307      72657363 
 3307      5461626C 
 3307      6500
 3308              	.LASF148:
 3309 03e9 656E646D 		.ascii	"endmem\000"
 3309      656D00
 3310              	.LASF10:
 3311 03f0 5F5F696E 		.ascii	"__int32_t\000"
 3311      7433325F 
 3311      7400
 3312              	.LASF86:
 3313 03fa 73746B61 		.ascii	"stkalign_t\000"
 3313      6C69676E 
 3313      5F7400
 3314              	.LASF34:
 3315 0405 6E657765 		.ascii	"newer\000"
 3315      7200
 3316              	.LASF95:
 3317 040b 72747374 		.ascii	"rtstamp\000"
 3317      616D7000 
 3318              	.LASF45:
 3319 0413 7265616C 		.ascii	"realprio\000"
 3319      7072696F 
 3319      00
 3320              	.LASF127:
 3321 041c 76657273 		.ascii	"version\000"
 3321      696F6E00 
 3322              	.LASF184:
 3323 0424 5F737461 		.ascii	"_stats_stop_measure_crit_thd\000"
 3323      74735F73 
 3323      746F705F 
ARM GAS  C:\Users\RAKIBU~1\AppData\Local\Temp\ccHskV3j.s 			page 63


 3323      6D656173 
 3323      7572655F 
 3324              	.LASF21:
 3325 0441 7274636E 		.ascii	"rtcnt_t\000"
 3325      745F7400 
 3326              	.LASF48:
 3327 0449 74687265 		.ascii	"thread_reference_t\000"
 3327      61645F72 
 3327      65666572 
 3327      656E6365 
 3327      5F7400
 3328              	.LASF182:
 3329 045c 5F646267 		.ascii	"_dbg_check_lock\000"
 3329      5F636865 
 3329      636B5F6C 
 3329      6F636B00 
 3330              	.LASF65:
 3331 046c 63685F76 		.ascii	"ch_virtual_timers_list\000"
 3331      69727475 
 3331      616C5F74 
 3331      696D6572 
 3331      735F6C69 
 3332              	.LASF2:
 3333 0483 6C6F6E67 		.ascii	"long double\000"
 3333      20646F75 
 3333      626C6500 
 3334              	.LASF158:
 3335 048f 63685F64 		.ascii	"ch_dyn_list\000"
 3335      796E5F6C 
 3335      69737400 
 3336              	.LASF133:
 3337 049b 6F66665F 		.ascii	"off_newer\000"
 3337      6E657765 
 3337      7200
 3338              	.LASF159:
 3339 04a5 64796E5F 		.ascii	"dyn_list_t\000"
 3339      6C697374 
 3339      5F7400
 3340              	.LASF103:
 3341 04b0 746D5F63 		.ascii	"tm_calibration_t\000"
 3341      616C6962 
 3341      72617469 
 3341      6F6E5F74 
 3341      00
 3342              	.LASF187:
 3343 04c1 474E5520 		.ascii	"GNU C11 7.2.1 20170904 (release) [ARM/embedded-7-br"
 3343      43313120 
 3343      372E322E 
 3343      31203230 
 3343      31373039 
 3344 04f4 616E6368 		.ascii	"anch revision 255204] -mcpu=cortex-m4 -mthumb -ggdb"
 3344      20726576 
 3344      6973696F 
 3344      6E203235 
 3344      35323034 
 3345 0527 202D4F67 		.ascii	" -Og -fomit-frame-pointer -falign-functions=16\000"
 3345      202D666F 
ARM GAS  C:\Users\RAKIBU~1\AppData\Local\Temp\ccHskV3j.s 			page 64


 3345      6D69742D 
 3345      6672616D 
 3345      652D706F 
 3346              	.LASF96:
 3347 0556 74696D65 		.ascii	"time\000"
 3347      00
 3348              	.LASF33:
 3349 055b 7072696F 		.ascii	"prio\000"
 3349      00
 3350              	.LASF165:
 3351 0560 73656D5F 		.ascii	"sem_pool\000"
 3351      706F6F6C 
 3351      00
 3352              	.LASF58:
 3353 0569 63757272 		.ascii	"current\000"
 3353      656E7400 
 3354              	.LASF172:
 3355 0571 6368436F 		.ascii	"chCoreAllocAlignedWithOffsetI\000"
 3355      7265416C 
 3355      6C6F6341 
 3355      6C69676E 
 3355      65645769 
 3356              	.LASF14:
 3357 058f 5F5F7569 		.ascii	"__uint64_t\000"
 3357      6E743634 
 3357      5F7400
 3358              	.LASF149:
 3359 059a 6D656D63 		.ascii	"memcore_t\000"
 3359      6F72655F 
 3359      7400
 3360              	.LASF107:
 3361 05a4 63756D75 		.ascii	"cumulative\000"
 3361      6C617469 
 3361      766500
 3362              	.LASF25:
 3363 05af 74726566 		.ascii	"trefs_t\000"
 3363      735F7400 
 3364              	.LASF130:
 3365 05b7 74687265 		.ascii	"threadsize\000"
 3365      61647369 
 3365      7A6500
 3366              	.LASF40:
 3367 05c2 72656673 		.ascii	"refs\000"
 3367      00
 3368              	.LASF60:
 3369 05c7 76697274 		.ascii	"virtual_timer_t\000"
 3369      75616C5F 
 3369      74696D65 
 3369      725F7400 
 3370              	.LASF93:
 3371 05d7 75736572 		.ascii	"user\000"
 3371      00
 3372              	.LASF26:
 3373 05dc 74707269 		.ascii	"tprio_t\000"
 3373      6F5F7400 
 3374              	.LASF163:
 3375 05e4 6275665F 		.ascii	"buf_list\000"
ARM GAS  C:\Users\RAKIBU~1\AppData\Local\Temp\ccHskV3j.s 			page 65


 3375      6C697374 
 3375      00
 3376              	.LASF110:
 3377 05ed 6E5F6374 		.ascii	"n_ctxswc\000"
 3377      78737763 
 3377      00
 3378              	.LASF145:
 3379 05f6 5F426F6F 		.ascii	"_Bool\000"
 3379      6C00
 3380              	.LASF18:
 3381 05fc 696E7433 		.ascii	"int32_t\000"
 3381      325F7400 
 3382              	.LASF6:
 3383 0604 756E7369 		.ascii	"unsigned char\000"
 3383      676E6564 
 3383      20636861 
 3383      7200
 3384              	.LASF131:
 3385 0612 6F66665F 		.ascii	"off_prio\000"
 3385      7072696F 
 3385      00
 3386              	.LASF191:
 3387 061b 5F636F72 		.ascii	"_core_init\000"
 3387      655F696E 
 3387      697400
 3388              	.LASF7:
 3389 0626 73686F72 		.ascii	"short int\000"
 3389      7420696E 
 3389      7400
 3390              	.LASF173:
 3391 0630 5F5F6865 		.ascii	"__heap_base__\000"
 3391      61705F62 
 3391      6173655F 
 3391      5F00
 3392              	.LASF66:
 3393 063e 6C617374 		.ascii	"lasttime\000"
 3393      74696D65 
 3393      00
 3394              	.LASF92:
 3395 0647 68616C74 		.ascii	"halt\000"
 3395      00
 3396              	.LASF174:
 3397 064c 5F5F6865 		.ascii	"__heap_end__\000"
 3397      61705F65 
 3397      6E645F5F 
 3397      00
 3398              	.LASF120:
 3399 0659 65776D61 		.ascii	"ewmask\000"
 3399      736B00
 3400              	.LASF74:
 3401 0660 63685F73 		.ascii	"ch_system\000"
 3401      79737465 
 3401      6D00
 3402              	.LASF175:
 3403 066a 5F5F6675 		.ascii	"__func__\000"
 3403      6E635F5F 
 3403      00
ARM GAS  C:\Users\RAKIBU~1\AppData\Local\Temp\ccHskV3j.s 			page 66


 3404              	.LASF170:
 3405 0673 63685F66 		.ascii	"ch_factory\000"
 3405      6163746F 
 3405      727900
 3406              	.LASF176:
 3407 067e 63685379 		.ascii	"chSysLock\000"
 3407      734C6F63 
 3407      6B00
 3408              	.LASF162:
 3409 0688 6F626A5F 		.ascii	"obj_pool\000"
 3409      706F6F6C 
 3409      00
 3410              	.LASF91:
 3411 0691 72656173 		.ascii	"reason\000"
 3411      6F6E00
 3412              	.LASF185:
 3413 0698 63685379 		.ascii	"chSysHalt\000"
 3413      7348616C 
 3413      7400
 3414              	.LASF61:
 3415 06a2 63685F76 		.ascii	"ch_virtual_timer\000"
 3415      69727475 
 3415      616C5F74 
 3415      696D6572 
 3415      00
 3416              	.LASF121:
 3417 06b3 63685F73 		.ascii	"ch_semaphore\000"
 3417      656D6170 
 3417      686F7265 
 3417      00
 3418              	.LASF141:
 3419 06c0 6F66665F 		.ascii	"off_time\000"
 3419      74696D65 
 3419      00
 3420              	.LASF124:
 3421 06c9 63685F69 		.ascii	"ch_idle_thread_wa\000"
 3421      646C655F 
 3421      74687265 
 3421      61645F77 
 3421      6100
 3422              	.LASF129:
 3423 06db 74696D65 		.ascii	"timesize\000"
 3423      73697A65 
 3423      00
 3424              	.LASF168:
 3425 06e4 70697065 		.ascii	"pipe_list\000"
 3425      5F6C6973 
 3425      7400
 3426              	.LASF19:
 3427 06ee 75696E74 		.ascii	"uint32_t\000"
 3427      33325F74 
 3427      00
 3428              	.LASF119:
 3429 06f7 77746D74 		.ascii	"wtmtxp\000"
 3429      787000
 3430              	.LASF51:
 3431 06fe 63685F74 		.ascii	"ch_threads_list\000"
ARM GAS  C:\Users\RAKIBU~1\AppData\Local\Temp\ccHskV3j.s 			page 67


 3431      68726561 
 3431      64735F6C 
 3431      69737400 
 3432              	.LASF123:
 3433 070e 6F776E65 		.ascii	"owner\000"
 3433      7200
 3434              	.LASF13:
 3435 0714 6C6F6E67 		.ascii	"long unsigned int\000"
 3435      20756E73 
 3435      69676E65 
 3435      6420696E 
 3435      7400
 3436              	.LASF37:
 3437 0726 77616261 		.ascii	"wabase\000"
 3437      736500
 3438              	.LASF90:
 3439 072d 63686172 		.ascii	"char\000"
 3439      00
 3440              	.LASF35:
 3441 0732 6F6C6465 		.ascii	"older\000"
 3441      7200
 3442              	.LASF161:
 3443 0738 6F626A5F 		.ascii	"obj_list\000"
 3443      6C697374 
 3443      00
 3444              	.LASF8:
 3445 0741 5F5F7569 		.ascii	"__uint16_t\000"
 3445      6E743136 
 3445      5F7400
 3446              	.LASF31:
 3447 074c 74687265 		.ascii	"thread_t\000"
 3447      61645F74 
 3447      00
 3448              	.LASF104:
 3449 0755 62657374 		.ascii	"best\000"
 3449      00
 3450              	.LASF150:
 3451 075a 63685F6D 		.ascii	"ch_memcore\000"
 3451      656D636F 
 3451      726500
 3452              	.LASF79:
 3453 0765 73797374 		.ascii	"systime_t\000"
 3453      696D655F 
 3453      7400
 3454              	.LASF59:
 3455 076f 76746675 		.ascii	"vtfunc_t\000"
 3455      6E635F74 
 3455      00
 3456              	.LASF180:
 3457 0778 5F5F7365 		.ascii	"__set_BASEPRI\000"
 3457      745F4241 
 3457      53455052 
 3457      4900
 3458              	.LASF69:
 3459 0786 70616E69 		.ascii	"panic_msg\000"
 3459      635F6D73 
 3459      6700
ARM GAS  C:\Users\RAKIBU~1\AppData\Local\Temp\ccHskV3j.s 			page 68


 3460              	.LASF102:
 3461 0790 6F666673 		.ascii	"offset\000"
 3461      657400
 3462              	.LASF122:
 3463 0797 63685F6D 		.ascii	"ch_mutex\000"
 3463      75746578 
 3463      00
 3464              	.LASF134:
 3465 07a0 6F66665F 		.ascii	"off_older\000"
 3465      6F6C6465 
 3465      7200
 3466              	.LASF9:
 3467 07aa 73686F72 		.ascii	"short unsigned int\000"
 3467      7420756E 
 3467      7369676E 
 3467      65642069 
 3467      6E7400
 3468              	.LASF146:
 3469 07bd 6D656D67 		.ascii	"memgetfunc_t\000"
 3469      65746675 
 3469      6E635F74 
 3469      00
 3470              	.LASF152:
 3471 07ca 6F626A65 		.ascii	"object_size\000"
 3471      63745F73 
 3471      697A6500 
 3472              	.LASF128:
 3473 07d6 70747273 		.ascii	"ptrsize\000"
 3473      697A6500 
 3474              	.LASF160:
 3475 07de 63685F6F 		.ascii	"ch_objects_factory\000"
 3475      626A6563 
 3475      74735F66 
 3475      6163746F 
 3475      727900
 3476              	.LASF53:
 3477 07f1 74687265 		.ascii	"threads_queue_t\000"
 3477      6164735F 
 3477      71756575 
 3477      655F7400 
 3478              	.LASF151:
 3479 0801 706F6F6C 		.ascii	"pool_header\000"
 3479      5F686561 
 3479      64657200 
 3480              	.LASF70:
 3481 080d 6973725F 		.ascii	"isr_cnt\000"
 3481      636E7400 
 3482              	.LASF135:
 3483 0815 6F66665F 		.ascii	"off_name\000"
 3483      6E616D65 
 3483      00
 3484              	.LASF16:
 3485 081e 75696E74 		.ascii	"uint8_t\000"
 3485      385F7400 
 3486              	.LASF136:
 3487 0826 6F66665F 		.ascii	"off_stklimit\000"
 3487      73746B6C 
ARM GAS  C:\Users\RAKIBU~1\AppData\Local\Temp\ccHskV3j.s 			page 69


 3487      696D6974 
 3487      00
 3488              	.LASF189:
 3489 0833 433A5C55 		.ascii	"C:\\Users\\RakibulChowdhury\\OneDrive - DIAS Geophy"
 3489      73657273 
 3489      5C52616B 
 3489      6962756C 
 3489      43686F77 
 3490 0863 73696361 		.ascii	"sical\\Dias32FirmwareDevelopment\\FirmwareRepo\\Dia"
 3490      6C5C4469 
 3490      61733332 
 3490      4669726D 
 3490      77617265 
 3491 0893 73333257 		.ascii	"s32Workspace\\DIAS-Gen2-testing\000"
 3491      6F726B73 
 3491      70616365 
 3491      5C444941 
 3491      532D4765 
 3492              	.LASF39:
 3493 08b2 666C6167 		.ascii	"flags\000"
 3493      7300
 3494              	.LASF167:
 3495 08b8 6669666F 		.ascii	"fifo_list\000"
 3495      5F6C6973 
 3495      7400
 3496              	.LASF183:
 3497 08c2 5F646267 		.ascii	"_dbg_check_unlock\000"
 3497      5F636865 
 3497      636B5F75 
 3497      6E6C6F63 
 3497      6B00
 3498              	.LASF89:
 3499 08d4 77746F62 		.ascii	"wtobjp\000"
 3499      6A7000
 3500              	.LASF49:
 3501 08db 74687265 		.ascii	"threads_list_t\000"
 3501      6164735F 
 3501      6C697374 
 3501      5F7400
 3502              	.LASF137:
 3503 08ea 6F66665F 		.ascii	"off_state\000"
 3503      73746174 
 3503      6500
 3504              	.LASF72:
 3505 08f4 74726163 		.ascii	"trace_buffer\000"
 3505      655F6275 
 3505      66666572 
 3505      00
 3506              	.LASF179:
 3507 0901 63685379 		.ascii	"chSysUnlock\000"
 3507      73556E6C 
 3507      6F636B00 
 3508              	.LASF169:
 3509 090d 6F626A65 		.ascii	"objects_factory_t\000"
 3509      6374735F 
 3509      66616374 
 3509      6F72795F 
ARM GAS  C:\Users\RAKIBU~1\AppData\Local\Temp\ccHskV3j.s 			page 70


 3509      7400
 3510              	.LASF138:
 3511 091f 6F66665F 		.ascii	"off_flags\000"
 3511      666C6167 
 3511      7300
 3512              	.LASF44:
 3513 0929 6D74786C 		.ascii	"mtxlist\000"
 3513      69737400 
 3514              	.LASF117:
 3515 0931 73656E74 		.ascii	"sentmsg\000"
 3515      6D736700 
 3516              	.LASF111:
 3517 0939 6D5F6372 		.ascii	"m_crit_thd\000"
 3517      69745F74 
 3517      686400
 3518              	.LASF147:
 3519 0944 6E657874 		.ascii	"nextmem\000"
 3519      6D656D00 
 3520              		.ident	"GCC: (GNU Tools for Arm Embedded Processors 7-2017-q4-major) 7.2.1 20170904 (release) [ARM
ARM GAS  C:\Users\RAKIBU~1\AppData\Local\Temp\ccHskV3j.s 			page 71


DEFINED SYMBOLS
                            *ABS*:00000000 chmemcore.c
C:\Users\RAKIBU~1\AppData\Local\Temp\ccHskV3j.s:15     .text:00000000 $t
C:\Users\RAKIBU~1\AppData\Local\Temp\ccHskV3j.s:23     .text:00000000 _core_init
C:\Users\RAKIBU~1\AppData\Local\Temp\ccHskV3j.s:43     .text:0000000c $d
                            *COM*:00000008 ch_memcore
C:\Users\RAKIBU~1\AppData\Local\Temp\ccHskV3j.s:49     .text:00000018 $t
C:\Users\RAKIBU~1\AppData\Local\Temp\ccHskV3j.s:57     .text:00000020 chCoreAllocAlignedWithOffsetI
C:\Users\RAKIBU~1\AppData\Local\Temp\ccHskV3j.s:133    .text:00000068 $d
C:\Users\RAKIBU~1\AppData\Local\Temp\ccHskV3j.s:138    .text:00000070 $t
C:\Users\RAKIBU~1\AppData\Local\Temp\ccHskV3j.s:146    .text:00000070 chCoreAllocAlignedWithOffset
C:\Users\RAKIBU~1\AppData\Local\Temp\ccHskV3j.s:250    .text:000000c0 $d
C:\Users\RAKIBU~1\AppData\Local\Temp\ccHskV3j.s:257    .text:000000c8 $t
C:\Users\RAKIBU~1\AppData\Local\Temp\ccHskV3j.s:265    .text:000000d0 chCoreGetStatusX
C:\Users\RAKIBU~1\AppData\Local\Temp\ccHskV3j.s:282    .text:000000dc $d
C:\Users\RAKIBU~1\AppData\Local\Temp\ccHskV3j.s:288    .rodata:00000000 $d
C:\Users\RAKIBU~1\AppData\Local\Temp\ccHskV3j.s:292    .rodata:00000000 __func__.7118
C:\Users\RAKIBU~1\AppData\Local\Temp\ccHskV3j.s:297    .rodata:00000020 __func__.6118

UNDEFINED SYMBOLS
__heap_base__
__heap_end__
chDbgCheckClassI
chSysHalt
_stats_start_measure_crit_thd
_dbg_check_lock
_dbg_check_unlock
_stats_stop_measure_crit_thd
ch
