ARM GAS  C:\Users\RAKIBU~1\AppData\Local\Temp\cc5wOhHj.s 			page 1


   1              		.cpu cortex-m4
   2              		.eabi_attribute 20, 1
   3              		.eabi_attribute 21, 1
   4              		.eabi_attribute 23, 3
   5              		.eabi_attribute 24, 1
   6              		.eabi_attribute 25, 1
   7              		.eabi_attribute 26, 1
   8              		.eabi_attribute 30, 1
   9              		.eabi_attribute 34, 1
  10              		.eabi_attribute 18, 4
  11              		.file	"chmemheaps.c"
  12              		.text
  13              	.Ltext0:
  14              		.cfi_sections	.debug_frame
  15              		.align	1
  16              		.p2align 4,,15
  17              		.global	_heap_init
  18              		.syntax unified
  19              		.thumb
  20              		.thumb_func
  21              		.fpu softvfp
  22              		.type	_heap_init, %function
  23              	_heap_init:
  24              	.LFB295:
  25              		.file 1 "../../../ChibiOSRepo/chibios191/os/oslib/src/chmemheaps.c"
  26              		.loc 1 107 0
  27              		.cfi_startproc
  28              		@ args = 0, pretend = 0, frame = 0
  29              		@ frame_needed = 0, uses_anonymous_args = 0
  30 0000 08B5     		push	{r3, lr}
  31              		.cfi_def_cfa_offset 8
  32              		.cfi_offset 3, -8
  33              		.cfi_offset 14, -4
  34              		.loc 1 109 0
  35 0002 0548     		ldr	r0, .L3
  36 0004 054B     		ldr	r3, .L3+4
  37 0006 0360     		str	r3, [r0]
  38              		.loc 1 110 0
  39 0008 0023     		movs	r3, #0
  40 000a 4360     		str	r3, [r0, #4]
  41              		.loc 1 111 0
  42 000c 8360     		str	r3, [r0, #8]
  43              		.loc 1 113 0
  44 000e 0C30     		adds	r0, r0, #12
  45 0010 FFF7FEFF 		bl	chMtxObjectInit
  46              	.LVL0:
  47              		.loc 1 117 0
  48 0014 08BD     		pop	{r3, pc}
  49              	.L4:
  50 0016 00BF     		.align	2
  51              	.L3:
  52 0018 00000000 		.word	.LANCHOR0
  53 001c 00000000 		.word	chCoreAllocAlignedWithOffset
  54              		.cfi_endproc
  55              	.LFE295:
  56              		.size	_heap_init, .-_heap_init
  57              		.align	1
ARM GAS  C:\Users\RAKIBU~1\AppData\Local\Temp\cc5wOhHj.s 			page 2


  58              		.p2align 4,,15
  59              		.global	chHeapObjectInit
  60              		.syntax unified
  61              		.thumb
  62              		.thumb_func
  63              		.fpu softvfp
  64              		.type	chHeapObjectInit, %function
  65              	chHeapObjectInit:
  66              	.LFB296:
  67              		.loc 1 131 0
  68              		.cfi_startproc
  69              		@ args = 0, pretend = 0, frame = 0
  70              		@ frame_needed = 0, uses_anonymous_args = 0
  71              	.LVL1:
  72 0020 F8B5     		push	{r3, r4, r5, r6, r7, lr}
  73              		.cfi_def_cfa_offset 24
  74              		.cfi_offset 3, -24
  75              		.cfi_offset 4, -20
  76              		.cfi_offset 5, -16
  77              		.cfi_offset 6, -12
  78              		.cfi_offset 7, -8
  79              		.cfi_offset 14, -4
  80 0022 0F46     		mov	r7, r1
  81 0024 1446     		mov	r4, r2
  82              		.loc 1 132 0
  83 0026 CD1D     		adds	r5, r1, #7
  84 0028 25F00705 		bic	r5, r5, #7
  85              	.LVL2:
  86              		.loc 1 134 0
  87 002c 0646     		mov	r6, r0
  88 002e 00B1     		cbz	r0, .L6
  89              		.loc 1 134 0 is_stmt 0 discriminator 3
  90 0030 12B9     		cbnz	r2, .L7
  91              	.L6:
  92              		.loc 1 134 0 discriminator 4
  93 0032 0948     		ldr	r0, .L9
  94              	.LVL3:
  95 0034 FFF7FEFF 		bl	chSysHalt
  96              	.LVL4:
  97              	.L7:
  98              		.loc 1 139 0 is_stmt 1
  99 0038 EF1B     		subs	r7, r5, r7
 100              	.LVL5:
 101 003a E41B     		subs	r4, r4, r7
 102              	.LVL6:
 103              		.loc 1 143 0
 104 003c 0023     		movs	r3, #0
 105 003e 3360     		str	r3, [r6]
 106              		.loc 1 144 0
 107 0040 7560     		str	r5, [r6, #4]
 108              		.loc 1 145 0
 109 0042 B360     		str	r3, [r6, #8]
 110              		.loc 1 146 0
 111 0044 2B60     		str	r3, [r5]
 112              		.loc 1 147 0
 113 0046 083C     		subs	r4, r4, #8
 114              	.LVL7:
ARM GAS  C:\Users\RAKIBU~1\AppData\Local\Temp\cc5wOhHj.s 			page 3


 115 0048 E408     		lsrs	r4, r4, #3
 116              	.LVL8:
 117 004a 6C60     		str	r4, [r5, #4]
 118              		.loc 1 149 0
 119 004c 06F10C00 		add	r0, r6, #12
 120 0050 FFF7FEFF 		bl	chMtxObjectInit
 121              	.LVL9:
 122              		.loc 1 153 0
 123 0054 F8BD     		pop	{r3, r4, r5, r6, r7, pc}
 124              	.LVL10:
 125              	.L10:
 126 0056 00BF     		.align	2
 127              	.L9:
 128 0058 00000000 		.word	.LANCHOR1
 129              		.cfi_endproc
 130              	.LFE296:
 131              		.size	chHeapObjectInit, .-chHeapObjectInit
 132              		.align	1
 133 005c AFF30080 		.p2align 4,,15
 134              		.global	chHeapAllocAligned
 135              		.syntax unified
 136              		.thumb
 137              		.thumb_func
 138              		.fpu softvfp
 139              		.type	chHeapAllocAligned, %function
 140              	chHeapAllocAligned:
 141              	.LFB297:
 142              		.loc 1 172 0
 143              		.cfi_startproc
 144              		@ args = 0, pretend = 0, frame = 0
 145              		@ frame_needed = 0, uses_anonymous_args = 0
 146              	.LVL11:
 147 0060 2DE9F047 		push	{r4, r5, r6, r7, r8, r9, r10, lr}
 148              		.cfi_def_cfa_offset 32
 149              		.cfi_offset 4, -32
 150              		.cfi_offset 5, -28
 151              		.cfi_offset 6, -24
 152              		.cfi_offset 7, -20
 153              		.cfi_offset 8, -16
 154              		.cfi_offset 9, -12
 155              		.cfi_offset 10, -8
 156              		.cfi_offset 14, -4
 157 0064 0646     		mov	r6, r0
 158 0066 1446     		mov	r4, r2
 159              		.loc 1 176 0
 160 0068 8846     		mov	r8, r1
 161 006a 19B1     		cbz	r1, .L12
 162              		.loc 1 176 0 is_stmt 0 discriminator 3
 163 006c 12B1     		cbz	r2, .L12
 164              		.loc 1 176 0 discriminator 5
 165 006e 531E     		subs	r3, r2, #1
 166 0070 1342     		tst	r3, r2
 167 0072 02D0     		beq	.L13
 168              	.L12:
 169              		.loc 1 176 0 discriminator 6
 170 0074 3E48     		ldr	r0, .L33
 171              	.LVL12:
ARM GAS  C:\Users\RAKIBU~1\AppData\Local\Temp\cc5wOhHj.s 			page 4


 172 0076 FFF7FEFF 		bl	chSysHalt
 173              	.LVL13:
 174              	.L13:
 175              		.loc 1 179 0 is_stmt 1
 176 007a 6EB1     		cbz	r6, .L29
 177              	.LVL14:
 178              	.L14:
 179              		.loc 1 184 0
 180 007c 072C     		cmp	r4, #7
 181 007e 00D8     		bhi	.L15
 182              		.loc 1 185 0
 183 0080 0824     		movs	r4, #8
 184              	.LVL15:
 185              	.L15:
 186              		.loc 1 189 0
 187 0082 08F10705 		add	r5, r8, #7
 188 0086 ED08     		lsrs	r5, r5, #3
 189              	.LVL16:
 190              		.loc 1 192 0
 191 0088 06F10C07 		add	r7, r6, #12
 192 008c 3846     		mov	r0, r7
 193 008e FFF7FEFF 		bl	chMtxLock
 194              	.LVL17:
 195              		.loc 1 195 0
 196 0092 06F1040C 		add	ip, r6, #4
 197              	.LVL18:
 198              		.loc 1 196 0
 199 0096 37E0     		b	.L16
 200              	.LVL19:
 201              	.L29:
 202              		.loc 1 180 0
 203 0098 364E     		ldr	r6, .L33+4
 204              	.LVL20:
 205 009a EFE7     		b	.L14
 206              	.LVL21:
 207              	.L32:
 208              		.loc 1 208 0
 209 009c 9942     		cmp	r1, r3
 210 009e 11D2     		bcs	.L17
 211              	.LVL22:
 212              	.LBB2:
 213              		.loc 1 213 0
 214 00a0 A3EB0E03 		sub	r3, r3, lr
 215              	.LVL23:
 216 00a4 DB10     		asrs	r3, r3, #3
 217 00a6 4B60     		str	r3, [r1, #4]
 218              		.loc 1 214 0
 219 00a8 AA42     		cmp	r2, r5
 220 00aa 1FD9     		bls	.L18
 221              	.LBB3:
 222              		.loc 1 219 0
 223 00ac 681C     		adds	r0, r5, #1
 224 00ae 09EBC002 		add	r2, r9, r0, lsl #3
 225              	.LVL24:
 226              		.loc 1 220 0
 227 00b2 AAEB0503 		sub	r3, r10, r5
 228 00b6 013B     		subs	r3, r3, #1
ARM GAS  C:\Users\RAKIBU~1\AppData\Local\Temp\cc5wOhHj.s 			page 5


 229 00b8 5360     		str	r3, [r2, #4]
 230              		.loc 1 223 0
 231 00ba 0B68     		ldr	r3, [r1]
 232 00bc 49F83030 		str	r3, [r9, r0, lsl #3]
 233              		.loc 1 224 0
 234 00c0 0A60     		str	r2, [r1]
 235 00c2 13E0     		b	.L18
 236              	.LVL25:
 237              	.L17:
 238              	.LBE3:
 239              	.LBE2:
 240              		.loc 1 232 0
 241 00c4 A842     		cmp	r0, r5
 242 00c6 19D0     		beq	.L30
 243              	.LBB4:
 244              		.loc 1 240 0
 245 00c8 0135     		adds	r5, r5, #1
 246              	.LVL26:
 247 00ca 01EBC502 		add	r2, r1, r5, lsl #3
 248              	.LVL27:
 249              		.loc 1 241 0
 250 00ce 0B68     		ldr	r3, [r1]
 251              	.LVL28:
 252 00d0 41F83530 		str	r3, [r1, r5, lsl #3]
 253              		.loc 1 242 0
 254 00d4 4B68     		ldr	r3, [r1, #4]
 255 00d6 0133     		adds	r3, r3, #1
 256 00d8 01EBC303 		add	r3, r1, r3, lsl #3
 257 00dc 02F10800 		add	r0, r2, #8
 258 00e0 1B1A     		subs	r3, r3, r0
 259 00e2 DB10     		asrs	r3, r3, #3
 260 00e4 5360     		str	r3, [r2, #4]
 261              		.loc 1 243 0
 262 00e6 CCF80020 		str	r2, [ip]
 263              	.LBE4:
 264              		.loc 1 199 0
 265 00ea 8946     		mov	r9, r1
 266              	.LVL29:
 267              	.L18:
 268              		.loc 1 248 0
 269 00ec C9F80480 		str	r8, [r9, #4]
 270              		.loc 1 249 0
 271 00f0 49F8086B 		str	r6, [r9], #8
 272              	.LVL30:
 273              		.loc 1 252 0
 274 00f4 3846     		mov	r0, r7
 275 00f6 FFF7FEFF 		bl	chMtxUnlock
 276              	.LVL31:
 277              		.loc 1 255 0
 278 00fa 30E0     		b	.L11
 279              	.LVL32:
 280              	.L30:
 281              		.loc 1 234 0
 282 00fc 0B68     		ldr	r3, [r1]
 283              	.LVL33:
 284 00fe CCF80030 		str	r3, [ip]
 285              		.loc 1 199 0
ARM GAS  C:\Users\RAKIBU~1\AppData\Local\Temp\cc5wOhHj.s 			page 6


 286 0102 8946     		mov	r9, r1
 287              	.LVL34:
 288 0104 F2E7     		b	.L18
 289              	.LVL35:
 290              	.L24:
 291 0106 8C46     		mov	ip, r1
 292              	.LVL36:
 293              	.L16:
 294              		.loc 1 196 0
 295 0108 DCF80010 		ldr	r1, [ip]
 296 010c C1B1     		cbz	r1, .L31
 297              	.LVL37:
 298              		.loc 1 202 0
 299 010e 01F1080E 		add	lr, r1, #8
 300 0112 0EEB0403 		add	r3, lr, r4
 301 0116 013B     		subs	r3, r3, #1
 302 0118 6242     		negs	r2, r4
 303 011a 1340     		ands	r3, r3, r2
 304 011c 083B     		subs	r3, r3, #8
 305 011e 9946     		mov	r9, r3
 306              	.LVL38:
 307              		.loc 1 204 0
 308 0120 4868     		ldr	r0, [r1, #4]
 309 0122 421C     		adds	r2, r0, #1
 310 0124 01EBC202 		add	r2, r1, r2, lsl #3
 311 0128 9A42     		cmp	r2, r3
 312 012a ECD9     		bls	.L24
 313              		.loc 1 204 0 is_stmt 0 discriminator 1
 314 012c 03F1080A 		add	r10, r3, #8
 315 0130 A2EB0A02 		sub	r2, r2, r10
 316 0134 D210     		asrs	r2, r2, #3
 317 0136 9246     		mov	r10, r2
 318 0138 AA42     		cmp	r2, r5
 319 013a AFD2     		bcs	.L32
 320 013c 8C46     		mov	ip, r1
 321              	.LVL39:
 322 013e E3E7     		b	.L16
 323              	.LVL40:
 324              	.L31:
 325              		.loc 1 264 0 is_stmt 1
 326 0140 3846     		mov	r0, r7
 327 0142 FFF7FEFF 		bl	chMtxUnlock
 328              	.LVL41:
 329              		.loc 1 268 0
 330 0146 3368     		ldr	r3, [r6]
 331 0148 63B1     		cbz	r3, .L26
 332              		.loc 1 269 0
 333 014a 0822     		movs	r2, #8
 334 014c 2146     		mov	r1, r4
 335 014e E800     		lsls	r0, r5, #3
 336 0150 9847     		blx	r3
 337              	.LVL42:
 338              		.loc 1 272 0
 339 0152 8146     		mov	r9, r0
 340 0154 48B1     		cbz	r0, .L27
 341              	.LVL43:
 342              		.loc 1 274 0
ARM GAS  C:\Users\RAKIBU~1\AppData\Local\Temp\cc5wOhHj.s 			page 7


 343 0156 40F8086C 		str	r6, [r0, #-8]
 344              		.loc 1 275 0
 345 015a 40F8048C 		str	r8, [r0, #-4]
 346              	.LVL44:
 347              	.L11:
 348              		.loc 1 284 0
 349 015e 4846     		mov	r0, r9
 350 0160 BDE8F087 		pop	{r4, r5, r6, r7, r8, r9, r10, pc}
 351              	.LVL45:
 352              	.L26:
 353              		.loc 1 283 0
 354 0164 4FF00009 		mov	r9, #0
 355 0168 F9E7     		b	.L11
 356              	.LVL46:
 357              	.L27:
 358 016a 4FF00009 		mov	r9, #0
 359 016e F6E7     		b	.L11
 360              	.L34:
 361              		.align	2
 362              	.L33:
 363 0170 14000000 		.word	.LANCHOR1+20
 364 0174 00000000 		.word	.LANCHOR0
 365              		.cfi_endproc
 366              	.LFE297:
 367              		.size	chHeapAllocAligned, .-chHeapAllocAligned
 368              		.align	1
 369 0178 AFF30080 		.p2align 4,,15
 369      AFF30080 
 370              		.global	chHeapFree
 371              		.syntax unified
 372              		.thumb
 373              		.thumb_func
 374              		.fpu softvfp
 375              		.type	chHeapFree, %function
 376              	chHeapFree:
 377              	.LFB298:
 378              		.loc 1 293 0
 379              		.cfi_startproc
 380              		@ args = 0, pretend = 0, frame = 0
 381              		@ frame_needed = 0, uses_anonymous_args = 0
 382              	.LVL47:
 383 0180 2DE9F041 		push	{r4, r5, r6, r7, r8, lr}
 384              		.cfi_def_cfa_offset 24
 385              		.cfi_offset 4, -24
 386              		.cfi_offset 5, -20
 387              		.cfi_offset 6, -16
 388              		.cfi_offset 7, -12
 389              		.cfi_offset 8, -8
 390              		.cfi_offset 14, -4
 391              		.loc 1 297 0
 392 0184 0746     		mov	r7, r0
 393 0186 10B1     		cbz	r0, .L36
 394              		.loc 1 297 0 is_stmt 0 discriminator 3
 395 0188 10F0070F 		tst	r0, #7
 396 018c 02D0     		beq	.L37
 397              	.L36:
 398              		.loc 1 297 0 discriminator 4
ARM GAS  C:\Users\RAKIBU~1\AppData\Local\Temp\cc5wOhHj.s 			page 8


 399 018e 2948     		ldr	r0, .L48
 400              	.LVL48:
 401 0190 FFF7FEFF 		bl	chSysHalt
 402              	.LVL49:
 403              	.L37:
 404              		.loc 1 300 0 is_stmt 1
 405 0194 A7F10805 		sub	r5, r7, #8
 406              	.LVL50:
 407              		.loc 1 302 0
 408 0198 57F8082C 		ldr	r2, [r7, #-8]
 409              	.LVL51:
 410              		.loc 1 303 0
 411 019c 161D     		adds	r6, r2, #4
 412              	.LVL52:
 413              		.loc 1 306 0
 414 019e 57F8043C 		ldr	r3, [r7, #-4]
 415 01a2 0733     		adds	r3, r3, #7
 416              		.loc 1 307 0
 417 01a4 DB08     		lsrs	r3, r3, #3
 418              		.loc 1 306 0
 419 01a6 47F8043C 		str	r3, [r7, #-4]
 420              		.loc 1 310 0
 421 01aa 02F10C08 		add	r8, r2, #12
 422 01ae 4046     		mov	r0, r8
 423 01b0 FFF7FEFF 		bl	chMtxLock
 424              	.LVL53:
 425              		.loc 1 303 0
 426 01b4 3446     		mov	r4, r6
 427 01b6 08E0     		b	.L44
 428              	.LVL54:
 429              	.L38:
 430              		.loc 1 315 0
 431 01b8 B442     		cmp	r4, r6
 432 01ba 01D0     		beq	.L39
 433              		.loc 1 315 0 is_stmt 0 discriminator 2
 434 01bc AC42     		cmp	r4, r5
 435 01be 03D2     		bcs	.L40
 436              	.L39:
 437              		.loc 1 316 0 is_stmt 1 discriminator 3
 438 01c0 2368     		ldr	r3, [r4]
 439              		.loc 1 315 0 discriminator 3
 440 01c2 73B1     		cbz	r3, .L41
 441              		.loc 1 316 0
 442 01c4 AB42     		cmp	r3, r5
 443 01c6 0CD8     		bhi	.L41
 444              	.L40:
 445              		.loc 1 333 0
 446 01c8 2468     		ldr	r4, [r4]
 447              	.LVL55:
 448              	.L44:
 449              		.loc 1 313 0 discriminator 1
 450 01ca AC42     		cmp	r4, r5
 451 01cc F4D8     		bhi	.L38
 452              		.loc 1 313 0 is_stmt 0 discriminator 2
 453 01ce 6368     		ldr	r3, [r4, #4]
 454 01d0 0133     		adds	r3, r3, #1
 455 01d2 04EBC303 		add	r3, r4, r3, lsl #3
ARM GAS  C:\Users\RAKIBU~1\AppData\Local\Temp\cc5wOhHj.s 			page 9


 456 01d6 AB42     		cmp	r3, r5
 457 01d8 EED9     		bls	.L38
 458              		.loc 1 313 0 discriminator 3
 459 01da 1648     		ldr	r0, .L48
 460 01dc FFF7FEFF 		bl	chSysHalt
 461              	.LVL56:
 462 01e0 EAE7     		b	.L38
 463              	.L41:
 464              		.loc 1 318 0 is_stmt 1
 465 01e2 47F8083C 		str	r3, [r7, #-8]
 466              		.loc 1 319 0
 467 01e6 2560     		str	r5, [r4]
 468              		.loc 1 321 0
 469 01e8 57F8042C 		ldr	r2, [r7, #-4]
 470 01ec 531C     		adds	r3, r2, #1
 471 01ee 05EBC303 		add	r3, r5, r3, lsl #3
 472 01f2 57F8081C 		ldr	r1, [r7, #-8]
 473 01f6 8B42     		cmp	r3, r1
 474 01f8 0AD0     		beq	.L46
 475              	.L42:
 476              		.loc 1 326 0
 477 01fa 6268     		ldr	r2, [r4, #4]
 478 01fc 531C     		adds	r3, r2, #1
 479 01fe 04EBC303 		add	r3, r4, r3, lsl #3
 480 0202 AB42     		cmp	r3, r5
 481 0204 0DD0     		beq	.L47
 482              	.L43:
 483              		.loc 1 337 0
 484 0206 4046     		mov	r0, r8
 485 0208 FFF7FEFF 		bl	chMtxUnlock
 486              	.LVL57:
 487              		.loc 1 340 0
 488 020c BDE8F081 		pop	{r4, r5, r6, r7, r8, pc}
 489              	.LVL58:
 490              	.L46:
 491              		.loc 1 323 0
 492 0210 4B68     		ldr	r3, [r1, #4]
 493 0212 1A44     		add	r2, r2, r3
 494 0214 0132     		adds	r2, r2, #1
 495 0216 47F8042C 		str	r2, [r7, #-4]
 496              		.loc 1 324 0
 497 021a 0B68     		ldr	r3, [r1]
 498 021c 47F8083C 		str	r3, [r7, #-8]
 499 0220 EBE7     		b	.L42
 500              	.L47:
 501              		.loc 1 328 0
 502 0222 57F8043C 		ldr	r3, [r7, #-4]
 503 0226 1A44     		add	r2, r2, r3
 504 0228 0132     		adds	r2, r2, #1
 505 022a 6260     		str	r2, [r4, #4]
 506              		.loc 1 329 0
 507 022c 57F8083C 		ldr	r3, [r7, #-8]
 508 0230 2360     		str	r3, [r4]
 509 0232 E8E7     		b	.L43
 510              	.L49:
 511              		.align	2
 512              	.L48:
ARM GAS  C:\Users\RAKIBU~1\AppData\Local\Temp\cc5wOhHj.s 			page 10


 513 0234 28000000 		.word	.LANCHOR1+40
 514              		.cfi_endproc
 515              	.LFE298:
 516              		.size	chHeapFree, .-chHeapFree
 517              		.align	1
 518 0238 AFF30080 		.p2align 4,,15
 518      AFF30080 
 519              		.global	chHeapStatus
 520              		.syntax unified
 521              		.thumb
 522              		.thumb_func
 523              		.fpu softvfp
 524              		.type	chHeapStatus, %function
 525              	chHeapStatus:
 526              	.LFB299:
 527              		.loc 1 357 0
 528              		.cfi_startproc
 529              		@ args = 0, pretend = 0, frame = 0
 530              		@ frame_needed = 0, uses_anonymous_args = 0
 531              	.LVL59:
 532 0240 F8B5     		push	{r3, r4, r5, r6, r7, lr}
 533              		.cfi_def_cfa_offset 24
 534              		.cfi_offset 3, -24
 535              		.cfi_offset 4, -20
 536              		.cfi_offset 5, -16
 537              		.cfi_offset 6, -12
 538              		.cfi_offset 7, -8
 539              		.cfi_offset 14, -4
 540 0242 0F46     		mov	r7, r1
 541 0244 1646     		mov	r6, r2
 542              		.loc 1 361 0
 543 0246 0446     		mov	r4, r0
 544 0248 88B1     		cbz	r0, .L60
 545              	.L51:
 546              	.LVL60:
 547              		.loc 1 365 0
 548 024a 04F10C05 		add	r5, r4, #12
 549 024e 2846     		mov	r0, r5
 550 0250 FFF7FEFF 		bl	chMtxLock
 551              	.LVL61:
 552              		.loc 1 369 0
 553 0254 201D     		adds	r0, r4, #4
 554              	.LVL62:
 555              		.loc 1 367 0
 556 0256 0021     		movs	r1, #0
 557              		.loc 1 366 0
 558 0258 0A46     		mov	r2, r1
 559              		.loc 1 368 0
 560 025a 0C46     		mov	r4, r1
 561              	.LVL63:
 562              	.L52:
 563              		.loc 1 370 0
 564 025c 0068     		ldr	r0, [r0]
 565              	.LVL64:
 566 025e 40B1     		cbz	r0, .L61
 567              	.LBB5:
 568              		.loc 1 371 0
ARM GAS  C:\Users\RAKIBU~1\AppData\Local\Temp\cc5wOhHj.s 			page 11


 569 0260 4368     		ldr	r3, [r0, #4]
 570              	.LVL65:
 571              		.loc 1 374 0
 572 0262 0134     		adds	r4, r4, #1
 573              	.LVL66:
 574              		.loc 1 375 0
 575 0264 1A44     		add	r2, r2, r3
 576              	.LVL67:
 577              		.loc 1 376 0
 578 0266 9942     		cmp	r1, r3
 579 0268 F8D2     		bcs	.L52
 580              		.loc 1 377 0
 581 026a 1946     		mov	r1, r3
 582              	.LVL68:
 583 026c F6E7     		b	.L52
 584              	.LVL69:
 585              	.L60:
 586              	.LBE5:
 587              		.loc 1 362 0
 588 026e 064C     		ldr	r4, .L62
 589 0270 EBE7     		b	.L51
 590              	.LVL70:
 591              	.L61:
 592              		.loc 1 384 0
 593 0272 0FB1     		cbz	r7, .L55
 594              		.loc 1 385 0
 595 0274 D200     		lsls	r2, r2, #3
 596              	.LVL71:
 597 0276 3A60     		str	r2, [r7]
 598              	.L55:
 599              		.loc 1 389 0
 600 0278 0EB1     		cbz	r6, .L56
 601              		.loc 1 390 0
 602 027a C900     		lsls	r1, r1, #3
 603              	.LVL72:
 604 027c 3160     		str	r1, [r6]
 605              	.L56:
 606              		.loc 1 392 0
 607 027e 2846     		mov	r0, r5
 608 0280 FFF7FEFF 		bl	chMtxUnlock
 609              	.LVL73:
 610              		.loc 1 395 0
 611 0284 2046     		mov	r0, r4
 612 0286 F8BD     		pop	{r3, r4, r5, r6, r7, pc}
 613              	.LVL74:
 614              	.L63:
 615              		.align	2
 616              	.L62:
 617 0288 00000000 		.word	.LANCHOR0
 618              		.cfi_endproc
 619              	.LFE299:
 620              		.size	chHeapStatus, .-chHeapStatus
 621              		.section	.rodata
 622              		.align	2
 623              		.set	.LANCHOR1,. + 0
 624              		.type	__func__.7113, %object
 625              		.size	__func__.7113, 17
ARM GAS  C:\Users\RAKIBU~1\AppData\Local\Temp\cc5wOhHj.s 			page 12


 626              	__func__.7113:
 627 0000 63684865 		.ascii	"chHeapObjectInit\000"
 627      61704F62 
 627      6A656374 
 627      496E6974 
 627      00
 628 0011 000000   		.space	3
 629              		.type	__func__.7123, %object
 630              		.size	__func__.7123, 19
 631              	__func__.7123:
 632 0014 63684865 		.ascii	"chHeapAllocAligned\000"
 632      6170416C 
 632      6C6F6341 
 632      6C69676E 
 632      656400
 633 0027 00       		.space	1
 634              		.type	__func__.7136, %object
 635              		.size	__func__.7136, 11
 636              	__func__.7136:
 637 0028 63684865 		.ascii	"chHeapFree\000"
 637      61704672 
 637      656500
 638              		.bss
 639              		.align	2
 640              		.set	.LANCHOR0,. + 0
 641              		.type	default_heap, %object
 642              		.size	default_heap, 28
 643              	default_heap:
 644 0000 00000000 		.space	28
 644      00000000 
 644      00000000 
 644      00000000 
 644      00000000 
 645              		.text
 646              	.Letext0:
 647              		.file 2 "c:\\chibistudio\\tools\\gnu tools arm embedded\\7.0 2017q4\\lib\\gcc\\arm-none-eabi\\7.2.
 648              		.file 3 "c:\\chibistudio\\tools\\gnu tools arm embedded\\7.0 2017q4\\arm-none-eabi\\include\\machi
 649              		.file 4 "c:\\chibistudio\\tools\\gnu tools arm embedded\\7.0 2017q4\\arm-none-eabi\\include\\sys\\
 650              		.file 5 "../../../ChibiOSRepo/chibios191/os/common/ports/ARMCMx/compilers/GCC/chtypes.h"
 651              		.file 6 "../../../ChibiOSRepo/chibios191/os/rt/include/chsystypes.h"
 652              		.file 7 "../../../ChibiOSRepo/chibios191/os/rt/include/chschd.h"
 653              		.file 8 "../../../ChibiOSRepo/chibios191/os/rt/include/chtime.h"
 654              		.file 9 "../../../ChibiOSRepo/chibios191/os/common/ext/ARM/CMSIS/Core/Include/core_cm4.h"
 655              		.file 10 "../../../ChibiOSRepo/chibios191/os/common/ext/ST/STM32F4xx/system_stm32f4xx.h"
 656              		.file 11 "../../../ChibiOSRepo/chibios191/os/common/ports/ARMCMx/chcore.h"
 657              		.file 12 "../../../ChibiOSRepo/chibios191/os/common/ports/ARMCMx/chcore_v7m.h"
 658              		.file 13 "../../../ChibiOSRepo/chibios191/os/rt/include/chtrace.h"
 659              		.file 14 "../../../ChibiOSRepo/chibios191/os/rt/include/chtm.h"
 660              		.file 15 "../../../ChibiOSRepo/chibios191/os/rt/include/chstats.h"
 661              		.file 16 "../../../ChibiOSRepo/chibios191/os/rt/include/chsem.h"
 662              		.file 17 "../../../ChibiOSRepo/chibios191/os/rt/include/chmtx.h"
 663              		.file 18 "../../../ChibiOSRepo/chibios191/os/rt/include/chsys.h"
 664              		.file 19 "../../../ChibiOSRepo/chibios191/os/rt/include/chregistry.h"
 665              		.file 20 "../../../ChibiOSRepo/chibios191/os/oslib/include/chmemcore.h"
 666              		.file 21 "../../../ChibiOSRepo/chibios191/os/oslib/include/chmemheaps.h"
 667              		.file 22 "../../../ChibiOSRepo/chibios191/os/oslib/include/chmempools.h"
 668              		.file 23 "../../../ChibiOSRepo/chibios191/os/oslib/include/chfactory.h"
ARM GAS  C:\Users\RAKIBU~1\AppData\Local\Temp\cc5wOhHj.s 			page 13


 669              		.file 24 "../../../ChibiOSRepo/chibios191/os/rt/include/ch.h"