ARM GAS  C:\Users\RAKIBU~1\AppData\Local\Temp\ccHskV3j.s 			page 1


   1              		.cpu cortex-m4
   2              		.eabi_attribute 20, 1
   3              		.eabi_attribute 21, 1
   4              		.eabi_attribute 23, 3
   5              		.eabi_attribute 24, 1
   6              		.eabi_attribute 25, 1
   7              		.eabi_attribute 26, 1
   8              		.eabi_attribute 30, 1
   9              		.eabi_attribute 34, 1
  10              		.eabi_attribute 18, 4
  11              		.file	"chmemcore.c"
  12              		.text
  13              	.Ltext0:
  14              		.cfi_sections	.debug_frame
  15              		.align	1
  16              		.p2align 4,,15
  17              		.global	_core_init
  18              		.syntax unified
  19              		.thumb
  20              		.thumb_func
  21              		.fpu softvfp
  22              		.type	_core_init, %function
  23              	_core_init:
  24              	.LFB295:
  25              		.file 1 "../../../ChibiOSRepo/chibios191/os/oslib/src/chmemcore.c"
  26              		.loc 1 81 0
  27              		.cfi_startproc
  28              		@ args = 0, pretend = 0, frame = 0
  29              		@ frame_needed = 0, uses_anonymous_args = 0
  30              		@ link register save eliminated.
  31              		.loc 1 87 0
  32 0000 024B     		ldr	r3, .L2
  33 0002 034A     		ldr	r2, .L2+4
  34 0004 1A60     		str	r2, [r3]
  35              		.loc 1 88 0
  36 0006 034A     		ldr	r2, .L2+8
  37 0008 5A60     		str	r2, [r3, #4]
  38              		.loc 1 96 0
  39 000a 7047     		bx	lr
  40              	.L3:
  41              		.align	2
  42              	.L2:
  43 000c 00000000 		.word	ch_memcore
  44 0010 00000000 		.word	__heap_base__
  45 0014 00000000 		.word	__heap_end__
  46              		.cfi_endproc
  47              	.LFE295:
  48              		.size	_core_init, .-_core_init
  49              		.align	1
  50 0018 AFF30080 		.p2align 4,,15
  50      AFF30080 
  51              		.global	chCoreAllocAlignedWithOffsetI
  52              		.syntax unified
  53              		.thumb
  54              		.thumb_func
  55              		.fpu softvfp
  56              		.type	chCoreAllocAlignedWithOffsetI, %function
ARM GAS  C:\Users\RAKIBU~1\AppData\Local\Temp\ccHskV3j.s 			page 2


  57              	chCoreAllocAlignedWithOffsetI:
  58              	.LFB296:
  59              		.loc 1 114 0
  60              		.cfi_startproc
  61              		@ args = 0, pretend = 0, frame = 0
  62              		@ frame_needed = 0, uses_anonymous_args = 0
  63              	.LVL0:
  64 0020 70B5     		push	{r4, r5, r6, lr}
  65              		.cfi_def_cfa_offset 16
  66              		.cfi_offset 4, -16
  67              		.cfi_offset 5, -12
  68              		.cfi_offset 6, -8
  69              		.cfi_offset 14, -4
  70 0022 0446     		mov	r4, r0
  71 0024 0E46     		mov	r6, r1
  72 0026 1546     		mov	r5, r2
  73              		.loc 1 117 0
  74 0028 FFF7FEFF 		bl	chDbgCheckClassI
  75              	.LVL1:
  76              		.loc 1 118 0
  77 002c 16B1     		cbz	r6, .L5
  78              		.loc 1 118 0 is_stmt 0 discriminator 3
  79 002e 731E     		subs	r3, r6, #1
  80 0030 3342     		tst	r3, r6
  81 0032 02D0     		beq	.L6
  82              	.L5:
  83              		.loc 1 118 0 discriminator 4
  84 0034 0C48     		ldr	r0, .L11
  85 0036 FFF7FEFF 		bl	chSysHalt
  86              	.LVL2:
  87              	.L6:
  88              		.loc 1 120 0 is_stmt 1
  89 003a 3319     		adds	r3, r6, r4
  90 003c 013B     		subs	r3, r3, #1
  91 003e 7242     		negs	r2, r6
  92 0040 1340     		ands	r3, r3, r2
  93              	.LVL3:
  94              		.loc 1 121 0
  95 0042 0A49     		ldr	r1, .L11+4
  96 0044 0C68     		ldr	r4, [r1]
  97 0046 6019     		adds	r0, r4, r5
  98 0048 3044     		add	r0, r0, r6
  99 004a 0138     		subs	r0, r0, #1
 100 004c 1040     		ands	r0, r0, r2
 101              	.LVL4:
 102              		.loc 1 122 0
 103 004e 0344     		add	r3, r3, r0
 104              	.LVL5:
 105              		.loc 1 125 0
 106 0050 4A68     		ldr	r2, [r1, #4]
 107              	.LVL6:
 108 0052 9A42     		cmp	r2, r3
 109 0054 03D3     		bcc	.L8
 110              		.loc 1 125 0 is_stmt 0 discriminator 1
 111 0056 9C42     		cmp	r4, r3
 112 0058 03D8     		bhi	.L9
 113              		.loc 1 129 0 is_stmt 1
ARM GAS  C:\Users\RAKIBU~1\AppData\Local\Temp\ccHskV3j.s 			page 3


 114 005a 0B60     		str	r3, [r1]
 115              	.LVL7:
 116              	.L4:
 117              		.loc 1 132 0
 118 005c 70BD     		pop	{r4, r5, r6, pc}
 119              	.LVL8:
 120              	.L8:
 121              		.loc 1 126 0
 122 005e 0020     		movs	r0, #0
 123              	.LVL9:
 124 0060 FCE7     		b	.L4
 125              	.LVL10:
 126              	.L9:
 127 0062 0020     		movs	r0, #0
 128              	.LVL11:
 129 0064 FAE7     		b	.L4
 130              	.L12:
 131 0066 00BF     		.align	2
 132              	.L11:
 133 0068 00000000 		.word	.LANCHOR0
 134 006c 00000000 		.word	ch_memcore
 135              		.cfi_endproc
 136              	.LFE296:
 137              		.size	chCoreAllocAlignedWithOffsetI, .-chCoreAllocAlignedWithOffsetI
 138              		.align	1
 139              		.p2align 4,,15
 140              		.global	chCoreAllocAlignedWithOffset
 141              		.syntax unified
 142              		.thumb
 143              		.thumb_func
 144              		.fpu softvfp
 145              		.type	chCoreAllocAlignedWithOffset, %function
 146              	chCoreAllocAlignedWithOffset:
 147              	.LFB297:
 148              		.loc 1 150 0
 149              		.cfi_startproc
 150              		@ args = 0, pretend = 0, frame = 0
 151              		@ frame_needed = 0, uses_anonymous_args = 0
 152              	.LVL12:
 153 0070 70B5     		push	{r4, r5, r6, lr}
 154              		.cfi_def_cfa_offset 16
 155              		.cfi_offset 4, -16
 156              		.cfi_offset 5, -12
 157              		.cfi_offset 6, -8
 158              		.cfi_offset 14, -4
 159 0072 0446     		mov	r4, r0
 160 0074 0D46     		mov	r5, r1
 161 0076 1646     		mov	r6, r2
 162              	.LVL13:
 163              	.LBB29:
 164              	.LBB30:
 165              	.LBB31:
 166              	.LBB32:
 167              	.LBB33:
 168              		.file 2 "../../../ChibiOSRepo/chibios191/os/common/ext/ARM/CMSIS/Core/Include/cmsis_gcc.h"
 169              		.loc 2 493 0
 170 0078 2023     		movs	r3, #32
ARM GAS  C:\Users\RAKIBU~1\AppData\Local\Temp\ccHskV3j.s 			page 4


 171              		.syntax unified
 172              	@ 493 "../../../ChibiOSRepo/chibios191/os/common/ext/ARM/CMSIS/Core/Include/cmsis_gcc.h" 1
 173 007a 83F31188 		MSR basepri, r3
 174              	@ 0 "" 2
 175              	.LVL14:
 176              		.thumb
 177              		.syntax unified
 178              	.LBE33:
 179              	.LBE32:
 180              	.LBE31:
 181              		.file 3 "../../../ChibiOSRepo/chibios191/os/rt/include/chsys.h"
 182              		.loc 3 356 0
 183 007e FFF7FEFF 		bl	_stats_start_measure_crit_thd
 184              	.LVL15:
 185              		.loc 3 357 0
 186 0082 FFF7FEFF 		bl	_dbg_check_lock
 187              	.LVL16:
 188              	.LBE30:
 189              	.LBE29:
 190              		.loc 1 154 0
 191 0086 3246     		mov	r2, r6
 192 0088 2946     		mov	r1, r5
 193 008a 2046     		mov	r0, r4
 194 008c FFF7FEFF 		bl	chCoreAllocAlignedWithOffsetI
 195              	.LVL17:
 196 0090 0446     		mov	r4, r0
 197              	.LVL18:
 198              	.LBB34:
 199              	.LBB35:
 200              		.loc 3 367 0
 201 0092 FFF7FEFF 		bl	_dbg_check_unlock
 202              	.LVL19:
 203              		.loc 3 368 0
 204 0096 FFF7FEFF 		bl	_stats_stop_measure_crit_thd
 205              	.LVL20:
 206              		.loc 3 374 0
 207 009a 094B     		ldr	r3, .L17
 208 009c 1A68     		ldr	r2, [r3]
 209 009e 9A42     		cmp	r2, r3
 210 00a0 04D0     		beq	.L14
 211 00a2 9B69     		ldr	r3, [r3, #24]
 212 00a4 9968     		ldr	r1, [r3, #8]
 213 00a6 9368     		ldr	r3, [r2, #8]
 214 00a8 9942     		cmp	r1, r3
 215 00aa 04D3     		bcc	.L16
 216              	.L14:
 217              	.LVL21:
 218              	.LBB36:
 219              	.LBB37:
 220              	.LBB38:
 221              		.loc 2 493 0
 222 00ac 0023     		movs	r3, #0
 223              		.syntax unified
 224              	@ 493 "../../../ChibiOSRepo/chibios191/os/common/ext/ARM/CMSIS/Core/Include/cmsis_gcc.h" 1
 225 00ae 83F31188 		MSR basepri, r3
 226              	@ 0 "" 2
 227              	.LVL22:
ARM GAS  C:\Users\RAKIBU~1\AppData\Local\Temp\ccHskV3j.s 			page 5


 228              		.thumb
 229              		.syntax unified
 230              	.LBE38:
 231              	.LBE37:
 232              	.LBE36:
 233              	.LBE35:
 234              	.LBE34:
 235              		.loc 1 158 0
 236 00b2 2046     		mov	r0, r4
 237 00b4 70BD     		pop	{r4, r5, r6, pc}
 238              	.LVL23:
 239              	.L16:
 240              	.LBB40:
 241              	.LBB39:
 242              		.loc 3 374 0
 243 00b6 0348     		ldr	r0, .L17+4
 244 00b8 FFF7FEFF 		bl	chSysHalt
 245              	.LVL24:
 246 00bc F6E7     		b	.L14
 247              	.L18:
 248 00be 00BF     		.align	2
 249              	.L17:
 250 00c0 00000000 		.word	ch
 251 00c4 20000000 		.word	.LANCHOR0+32
 252              	.LBE39:
 253              	.LBE40:
 254              		.cfi_endproc
 255              	.LFE297:
 256              		.size	chCoreAllocAlignedWithOffset, .-chCoreAllocAlignedWithOffset
 257              		.align	1
 258 00c8 AFF30080 		.p2align 4,,15
 258      AFF30080 
 259              		.global	chCoreGetStatusX
 260              		.syntax unified
 261              		.thumb
 262              		.thumb_func
 263              		.fpu softvfp
 264              		.type	chCoreGetStatusX, %function
 265              	chCoreGetStatusX:
 266              	.LFB298:
 267              		.loc 1 167 0
 268              		.cfi_startproc
 269              		@ args = 0, pretend = 0, frame = 0
 270              		@ frame_needed = 0, uses_anonymous_args = 0
 271              		@ link register save eliminated.
 272              		.loc 1 170 0
 273 00d0 024B     		ldr	r3, .L20
 274 00d2 5868     		ldr	r0, [r3, #4]
 275 00d4 1B68     		ldr	r3, [r3]
 276              		.loc 1 172 0
 277 00d6 C01A     		subs	r0, r0, r3
 278 00d8 7047     		bx	lr
 279              	.L21:
 280 00da 00BF     		.align	2
 281              	.L20:
 282 00dc 00000000 		.word	ch_memcore
 283              		.cfi_endproc
ARM GAS  C:\Users\RAKIBU~1\AppData\Local\Temp\ccHskV3j.s 			page 6


 284              	.LFE298:
 285              		.size	chCoreGetStatusX, .-chCoreGetStatusX
 286              		.comm	ch_memcore,8,4
 287              		.section	.rodata
 288              		.align	2
 289              		.set	.LANCHOR0,. + 0
 290              		.type	__func__.7118, %object
 291              		.size	__func__.7118, 30
 292              	__func__.7118:
 293 0000 6368436F 		.ascii	"chCoreAllocAlignedWithOffsetI\000"
 293      7265416C 
 293      6C6F6341 
 293      6C69676E 
 293      65645769 
 294 001e 0000     		.space	2
 295              		.type	__func__.6118, %object
 296              		.size	__func__.6118, 12
 297              	__func__.6118:
 298 0020 63685379 		.ascii	"chSysUnlock\000"
 298      73556E6C 
 298      6F636B00 
 299              		.text
 300              	.Letext0:
 301              		.file 4 "c:\\chibistudio\\tools\\gnu tools arm embedded\\7.0 2017q4\\lib\\gcc\\arm-none-eabi\\7.2.
 302              		.file 5 "c:\\chibistudio\\tools\\gnu tools arm embedded\\7.0 2017q4\\arm-none-eabi\\include\\machi
 303              		.file 6 "c:\\chibistudio\\tools\\gnu tools arm embedded\\7.0 2017q4\\arm-none-eabi\\include\\sys\\
 304              		.file 7 "../../../ChibiOSRepo/chibios191/os/common/ports/ARMCMx/compilers/GCC/chtypes.h"
 305              		.file 8 "../../../ChibiOSRepo/chibios191/os/rt/include/chsystypes.h"
 306              		.file 9 "../../../ChibiOSRepo/chibios191/os/rt/include/chschd.h"
 307              		.file 10 "../../../ChibiOSRepo/chibios191/os/rt/include/chtime.h"
 308              		.file 11 "../../../ChibiOSRepo/chibios191/os/common/ext/ARM/CMSIS/Core/Include/core_cm4.h"
 309              		.file 12 "../../../ChibiOSRepo/chibios191/os/common/ext/ST/STM32F4xx/system_stm32f4xx.h"
 310              		.file 13 "../../../ChibiOSRepo/chibios191/os/common/ports/ARMCMx/chcore.h"
 311              		.file 14 "../../../ChibiOSRepo/chibios191/os/common/ports/ARMCMx/chcore_v7m.h"
 312              		.file 15 "../../../ChibiOSRepo/chibios191/os/rt/include/chtrace.h"
 313              		.file 16 "../../../ChibiOSRepo/chibios191/os/rt/include/chtm.h"
 314              		.file 17 "../../../ChibiOSRepo/chibios191/os/rt/include/chstats.h"
 315              		.file 18 "../../../ChibiOSRepo/chibios191/os/rt/include/chsem.h"
 316              		.file 19 "../../../ChibiOSRepo/chibios191/os/rt/include/chmtx.h"
 317              		.file 20 "../../../ChibiOSRepo/chibios191/os/rt/include/chregistry.h"
 318              		.file 21 "../../../ChibiOSRepo/chibios191/os/oslib/include/chmemcore.h"
 319              		.file 22 "../../../ChibiOSRepo/chibios191/os/oslib/include/chmempools.h"
 320              		.file 23 "../../../ChibiOSRepo/chibios191/os/oslib/include/chfactory.h"
 321              		.file 24 "../../../ChibiOSRepo/chibios191/os/rt/include/chdebug.h"
 322              		.file 25 "../../../ChibiOSRepo/chibios191/os/rt/include/ch.h"