ARM GAS  C:\Users\RAKIBU~1\AppData\Local\Temp\ccle7q2c.s 			page 1


   1              		.cpu cortex-m4
   2              		.eabi_attribute 20, 1
   3              		.eabi_attribute 21, 1
   4              		.eabi_attribute 23, 3
   5              		.eabi_attribute 24, 1
   6              		.eabi_attribute 25, 1
   7              		.eabi_attribute 26, 1
   8              		.eabi_attribute 30, 1
   9              		.eabi_attribute 34, 1
  10              		.eabi_attribute 18, 4
  11              		.file	"chmtx.c"
  12              		.text
  13              	.Ltext0:
  14              		.cfi_sections	.debug_frame
  15              		.align	1
  16              		.p2align 4,,15
  17              		.global	chMtxObjectInit
  18              		.syntax unified
  19              		.thumb
  20              		.thumb_func
  21              		.fpu softvfp
  22              		.type	chMtxObjectInit, %function
  23              	chMtxObjectInit:
  24              	.LFB295:
  25              		.file 1 "../../../ChibiOSRepo/chibios191/os/rt/src/chmtx.c"
  26              		.loc 1 103 0
  27              		.cfi_startproc
  28              		@ args = 0, pretend = 0, frame = 0
  29              		@ frame_needed = 0, uses_anonymous_args = 0
  30              	.LVL0:
  31 0000 10B5     		push	{r4, lr}
  32              		.cfi_def_cfa_offset 8
  33              		.cfi_offset 4, -8
  34              		.cfi_offset 14, -4
  35              		.loc 1 105 0
  36 0002 0446     		mov	r4, r0
  37 0004 20B1     		cbz	r0, .L4
  38              	.LVL1:
  39              	.L2:
  40              	.LBB81:
  41              	.LBB82:
  42              		.file 2 "../../../ChibiOSRepo/chibios191/os/rt/include/chschd.h"
  43              		.loc 2 539 0
  44 0006 2460     		str	r4, [r4]
  45              		.loc 2 540 0
  46 0008 6460     		str	r4, [r4, #4]
  47              	.LVL2:
  48              	.LBE82:
  49              	.LBE81:
  50              		.loc 1 108 0
  51 000a 0023     		movs	r3, #0
  52 000c A360     		str	r3, [r4, #8]
  53              		.loc 1 112 0
  54 000e 10BD     		pop	{r4, pc}
  55              	.LVL3:
  56              	.L4:
  57              		.loc 1 105 0 discriminator 2
ARM GAS  C:\Users\RAKIBU~1\AppData\Local\Temp\ccle7q2c.s 			page 2


  58 0010 0148     		ldr	r0, .L5
  59              	.LVL4:
  60 0012 FFF7FEFF 		bl	chSysHalt
  61              	.LVL5:
  62 0016 F6E7     		b	.L2
  63              	.L6:
  64              		.align	2
  65              	.L5:
  66 0018 00000000 		.word	.LANCHOR0
  67              		.cfi_endproc
  68              	.LFE295:
  69              		.size	chMtxObjectInit, .-chMtxObjectInit
  70              		.align	1
  71 001c AFF30080 		.p2align 4,,15
  72              		.global	chMtxLockS
  73              		.syntax unified
  74              		.thumb
  75              		.thumb_func
  76              		.fpu softvfp
  77              		.type	chMtxLockS, %function
  78              	chMtxLockS:
  79              	.LFB297:
  80              		.loc 1 139 0
  81              		.cfi_startproc
  82              		@ args = 0, pretend = 0, frame = 0
  83              		@ frame_needed = 0, uses_anonymous_args = 0
  84              	.LVL6:
  85 0020 70B5     		push	{r4, r5, r6, lr}
  86              		.cfi_def_cfa_offset 16
  87              		.cfi_offset 4, -16
  88              		.cfi_offset 5, -12
  89              		.cfi_offset 6, -8
  90              		.cfi_offset 14, -4
  91 0022 0546     		mov	r5, r0
  92              		.loc 1 140 0
  93 0024 3A4B     		ldr	r3, .L29
  94 0026 9C69     		ldr	r4, [r3, #24]
  95              	.LVL7:
  96              		.loc 1 142 0
  97 0028 FFF7FEFF 		bl	chDbgCheckClassS
  98              	.LVL8:
  99              		.loc 1 143 0
 100 002c 002D     		cmp	r5, #0
 101 002e 2ED0     		beq	.L26
 102              	.L8:
 103              		.loc 1 146 0
 104 0030 A868     		ldr	r0, [r5, #8]
 105 0032 0028     		cmp	r0, #0
 106 0034 67D0     		beq	.L27
 107              	.L9:
 108              	.LVL9:
 109              	.LBB83:
 110              		.loc 1 165 0
 111 0036 8268     		ldr	r2, [r0, #8]
 112 0038 A368     		ldr	r3, [r4, #8]
 113 003a 9A42     		cmp	r2, r3
 114 003c 08D2     		bcs	.L11
ARM GAS  C:\Users\RAKIBU~1\AppData\Local\Temp\ccle7q2c.s 			page 3


 115              		.loc 1 167 0
 116 003e 8360     		str	r3, [r0, #8]
 117              		.loc 1 170 0
 118 0040 90F82030 		ldrb	r3, [r0, #32]	@ zero_extendqisi2
 119 0044 062B     		cmp	r3, #6
 120 0046 26D0     		beq	.L12
 121 0048 072B     		cmp	r3, #7
 122 004a 3BD0     		beq	.L13
 123 004c 002B     		cmp	r3, #0
 124 004e 4ED0     		beq	.L28
 125              	.LVL10:
 126              	.L11:
 127              		.loc 1 212 0
 128 0050 2846     		mov	r0, r5
 129              	.LVL11:
 130              	.LBB84:
 131              	.LBB85:
 132              		.loc 2 588 0
 133 0052 2B46     		mov	r3, r5
 134              	.LVL12:
 135              	.L21:
 136              		.loc 2 590 0
 137 0054 1B68     		ldr	r3, [r3]
 138              	.LVL13:
 139              		.loc 2 591 0
 140 0056 9842     		cmp	r0, r3
 141 0058 03D0     		beq	.L20
 142 005a 9968     		ldr	r1, [r3, #8]
 143 005c A268     		ldr	r2, [r4, #8]
 144 005e 9142     		cmp	r1, r2
 145 0060 F8D2     		bcs	.L21
 146              	.L20:
 147              		.loc 2 592 0
 148 0062 2360     		str	r3, [r4]
 149              		.loc 2 593 0
 150 0064 5A68     		ldr	r2, [r3, #4]
 151 0066 6260     		str	r2, [r4, #4]
 152              		.loc 2 594 0
 153 0068 1460     		str	r4, [r2]
 154              		.loc 2 595 0
 155 006a 5C60     		str	r4, [r3, #4]
 156              	.LVL14:
 157              	.LBE85:
 158              	.LBE84:
 159              		.loc 1 213 0
 160 006c 6562     		str	r5, [r4, #36]
 161              		.loc 1 214 0
 162 006e 0620     		movs	r0, #6
 163              	.LVL15:
 164 0070 FFF7FEFF 		bl	chSchGoSleepS
 165              	.LVL16:
 166              		.loc 1 218 0
 167 0074 AB68     		ldr	r3, [r5, #8]
 168 0076 A342     		cmp	r3, r4
 169 0078 02D0     		beq	.L22
 170              		.loc 1 218 0 is_stmt 0 discriminator 2
 171 007a 2648     		ldr	r0, .L29+4
ARM GAS  C:\Users\RAKIBU~1\AppData\Local\Temp\ccle7q2c.s 			page 4


 172 007c FFF7FEFF 		bl	chSysHalt
 173              	.LVL17:
 174              	.L22:
 175              		.loc 1 219 0 is_stmt 1 discriminator 1
 176 0080 A36B     		ldr	r3, [r4, #56]
 177 0082 AB42     		cmp	r3, r5
 178 0084 02D0     		beq	.L7
 179              		.loc 1 219 0 is_stmt 0 discriminator 2
 180 0086 2348     		ldr	r0, .L29+4
 181 0088 FFF7FEFF 		bl	chSysHalt
 182              	.LVL18:
 183              	.L7:
 184              	.LBE83:
 185              		.loc 1 236 0 is_stmt 1
 186 008c 70BD     		pop	{r4, r5, r6, pc}
 187              	.LVL19:
 188              	.L26:
 189              		.loc 1 143 0 discriminator 2
 190 008e 2148     		ldr	r0, .L29+4
 191 0090 FFF7FEFF 		bl	chSysHalt
 192              	.LVL20:
 193 0094 CCE7     		b	.L8
 194              	.LVL21:
 195              	.L12:
 196              	.LBB96:
 197              	.LBB86:
 198              	.LBB87:
 199              		.loc 2 626 0
 200 0096 4368     		ldr	r3, [r0, #4]
 201 0098 0268     		ldr	r2, [r0]
 202 009a 1A60     		str	r2, [r3]
 203              		.loc 2 627 0
 204 009c 0368     		ldr	r3, [r0]
 205 009e 4268     		ldr	r2, [r0, #4]
 206 00a0 5A60     		str	r2, [r3, #4]
 207              	.LVL22:
 208              	.LBE87:
 209              	.LBE86:
 210              		.loc 1 173 0
 211 00a2 466A     		ldr	r6, [r0, #36]
 212              	.LVL23:
 213              	.LBB88:
 214              	.LBB89:
 215              		.loc 2 588 0
 216 00a4 3346     		mov	r3, r6
 217              	.L16:
 218              	.LVL24:
 219              		.loc 2 590 0
 220 00a6 1B68     		ldr	r3, [r3]
 221              	.LVL25:
 222              		.loc 2 591 0
 223 00a8 9E42     		cmp	r6, r3
 224 00aa 03D0     		beq	.L15
 225 00ac 9968     		ldr	r1, [r3, #8]
 226 00ae 8268     		ldr	r2, [r0, #8]
 227 00b0 9142     		cmp	r1, r2
 228 00b2 F8D2     		bcs	.L16
ARM GAS  C:\Users\RAKIBU~1\AppData\Local\Temp\ccle7q2c.s 			page 5


 229              	.L15:
 230              		.loc 2 592 0
 231 00b4 0360     		str	r3, [r0]
 232              		.loc 2 593 0
 233 00b6 5A68     		ldr	r2, [r3, #4]
 234 00b8 4260     		str	r2, [r0, #4]
 235              		.loc 2 594 0
 236 00ba 1060     		str	r0, [r2]
 237              		.loc 2 595 0
 238 00bc 5860     		str	r0, [r3, #4]
 239              	.LVL26:
 240              	.LBE89:
 241              	.LBE88:
 242              		.loc 1 174 0
 243 00be 436A     		ldr	r3, [r0, #36]
 244 00c0 9868     		ldr	r0, [r3, #8]
 245              	.LVL27:
 246              		.loc 1 176 0
 247 00c2 B8E7     		b	.L9
 248              	.L13:
 249              	.LVL28:
 250              	.LBB90:
 251              	.LBB91:
 252              		.loc 2 626 0
 253 00c4 4368     		ldr	r3, [r0, #4]
 254 00c6 0268     		ldr	r2, [r0]
 255 00c8 1A60     		str	r2, [r3]
 256              		.loc 2 627 0
 257 00ca 0368     		ldr	r3, [r0]
 258 00cc 4268     		ldr	r2, [r0, #4]
 259 00ce 5A60     		str	r2, [r3, #4]
 260              	.LVL29:
 261              	.LBE91:
 262              	.LBE90:
 263              		.loc 1 193 0
 264 00d0 466A     		ldr	r6, [r0, #36]
 265              	.LVL30:
 266              	.LBB92:
 267              	.LBB93:
 268              		.loc 2 588 0
 269 00d2 3346     		mov	r3, r6
 270              	.L18:
 271              	.LVL31:
 272              		.loc 2 590 0
 273 00d4 1B68     		ldr	r3, [r3]
 274              	.LVL32:
 275              		.loc 2 591 0
 276 00d6 9E42     		cmp	r6, r3
 277 00d8 03D0     		beq	.L17
 278 00da 9968     		ldr	r1, [r3, #8]
 279 00dc 8268     		ldr	r2, [r0, #8]
 280 00de 9142     		cmp	r1, r2
 281 00e0 F8D2     		bcs	.L18
 282              	.L17:
 283              		.loc 2 592 0
 284 00e2 0360     		str	r3, [r0]
 285              		.loc 2 593 0
ARM GAS  C:\Users\RAKIBU~1\AppData\Local\Temp\ccle7q2c.s 			page 6


 286 00e4 5A68     		ldr	r2, [r3, #4]
 287 00e6 4260     		str	r2, [r0, #4]
 288              		.loc 2 594 0
 289 00e8 1060     		str	r0, [r2]
 290              		.loc 2 595 0
 291 00ea 5860     		str	r0, [r3, #4]
 292 00ec B0E7     		b	.L11
 293              	.LVL33:
 294              	.L28:
 295              	.LBE93:
 296              	.LBE92:
 297              		.loc 1 199 0
 298 00ee 0123     		movs	r3, #1
 299 00f0 80F82030 		strb	r3, [r0, #32]
 300              	.LVL34:
 301              	.LBB94:
 302              	.LBB95:
 303              		.loc 2 626 0
 304 00f4 4368     		ldr	r3, [r0, #4]
 305 00f6 0268     		ldr	r2, [r0]
 306 00f8 1A60     		str	r2, [r3]
 307              		.loc 2 627 0
 308 00fa 0368     		ldr	r3, [r0]
 309 00fc 4268     		ldr	r2, [r0, #4]
 310 00fe 5A60     		str	r2, [r3, #4]
 311              	.LVL35:
 312              	.LBE95:
 313              	.LBE94:
 314              		.loc 1 202 0
 315 0100 FFF7FEFF 		bl	chSchReadyI
 316              	.LVL36:
 317              		.loc 1 203 0
 318 0104 A4E7     		b	.L11
 319              	.L27:
 320              	.LBE96:
 321              		.loc 1 232 0
 322 0106 AC60     		str	r4, [r5, #8]
 323              		.loc 1 233 0
 324 0108 A36B     		ldr	r3, [r4, #56]
 325 010a EB60     		str	r3, [r5, #12]
 326              		.loc 1 234 0
 327 010c A563     		str	r5, [r4, #56]
 328              		.loc 1 236 0
 329 010e BDE7     		b	.L7
 330              	.L30:
 331              		.align	2
 332              	.L29:
 333 0110 00000000 		.word	ch
 334 0114 10000000 		.word	.LANCHOR0+16
 335              		.cfi_endproc
 336              	.LFE297:
 337              		.size	chMtxLockS, .-chMtxLockS
 338              		.align	1
 339 0118 AFF30080 		.p2align 4,,15
 339      AFF30080 
 340              		.global	chMtxLock
 341              		.syntax unified
ARM GAS  C:\Users\RAKIBU~1\AppData\Local\Temp\ccle7q2c.s 			page 7


 342              		.thumb
 343              		.thumb_func
 344              		.fpu softvfp
 345              		.type	chMtxLock, %function
 346              	chMtxLock:
 347              	.LFB296:
 348              		.loc 1 123 0
 349              		.cfi_startproc
 350              		@ args = 0, pretend = 0, frame = 0
 351              		@ frame_needed = 0, uses_anonymous_args = 0
 352              	.LVL37:
 353 0120 10B5     		push	{r4, lr}
 354              		.cfi_def_cfa_offset 8
 355              		.cfi_offset 4, -8
 356              		.cfi_offset 14, -4
 357 0122 0446     		mov	r4, r0
 358              	.LVL38:
 359              	.LBB107:
 360              	.LBB108:
 361              	.LBB109:
 362              	.LBB110:
 363              	.LBB111:
 364              		.file 3 "../../../ChibiOSRepo/chibios191/os/common/ext/ARM/CMSIS/Core/Include/cmsis_gcc.h"
 365              		.loc 3 493 0
 366 0124 2023     		movs	r3, #32
 367              		.syntax unified
 368              	@ 493 "../../../ChibiOSRepo/chibios191/os/common/ext/ARM/CMSIS/Core/Include/cmsis_gcc.h" 1
 369 0126 83F31188 		MSR basepri, r3
 370              	@ 0 "" 2
 371              	.LVL39:
 372              		.thumb
 373              		.syntax unified
 374              	.LBE111:
 375              	.LBE110:
 376              	.LBE109:
 377              		.file 4 "../../../ChibiOSRepo/chibios191/os/rt/include/chsys.h"
 378              		.loc 4 356 0
 379 012a FFF7FEFF 		bl	_stats_start_measure_crit_thd
 380              	.LVL40:
 381              		.loc 4 357 0
 382 012e FFF7FEFF 		bl	_dbg_check_lock
 383              	.LVL41:
 384              	.LBE108:
 385              	.LBE107:
 386              		.loc 1 126 0
 387 0132 2046     		mov	r0, r4
 388 0134 FFF7FEFF 		bl	chMtxLockS
 389              	.LVL42:
 390              	.LBB112:
 391              	.LBB113:
 392              		.loc 4 367 0
 393 0138 FFF7FEFF 		bl	_dbg_check_unlock
 394              	.LVL43:
 395              		.loc 4 368 0
 396 013c FFF7FEFF 		bl	_stats_stop_measure_crit_thd
 397              	.LVL44:
 398              		.loc 4 374 0
ARM GAS  C:\Users\RAKIBU~1\AppData\Local\Temp\ccle7q2c.s 			page 8


 399 0140 084B     		ldr	r3, .L35
 400 0142 1A68     		ldr	r2, [r3]
 401 0144 9A42     		cmp	r2, r3
 402 0146 04D0     		beq	.L32
 403 0148 9B69     		ldr	r3, [r3, #24]
 404 014a 9968     		ldr	r1, [r3, #8]
 405 014c 9368     		ldr	r3, [r2, #8]
 406 014e 9942     		cmp	r1, r3
 407 0150 03D3     		bcc	.L34
 408              	.L32:
 409              	.LVL45:
 410              	.LBB114:
 411              	.LBB115:
 412              	.LBB116:
 413              		.loc 3 493 0
 414 0152 0023     		movs	r3, #0
 415              		.syntax unified
 416              	@ 493 "../../../ChibiOSRepo/chibios191/os/common/ext/ARM/CMSIS/Core/Include/cmsis_gcc.h" 1
 417 0154 83F31188 		MSR basepri, r3
 418              	@ 0 "" 2
 419              	.LVL46:
 420              		.thumb
 421              		.syntax unified
 422              	.LBE116:
 423              	.LBE115:
 424              	.LBE114:
 425              	.LBE113:
 426              	.LBE112:
 427              		.loc 1 128 0
 428 0158 10BD     		pop	{r4, pc}
 429              	.LVL47:
 430              	.L34:
 431              	.LBB118:
 432              	.LBB117:
 433              		.loc 4 374 0
 434 015a 0348     		ldr	r0, .L35+4
 435 015c FFF7FEFF 		bl	chSysHalt
 436              	.LVL48:
 437 0160 F7E7     		b	.L32
 438              	.L36:
 439 0162 00BF     		.align	2
 440              	.L35:
 441 0164 00000000 		.word	ch
 442 0168 1C000000 		.word	.LANCHOR0+28
 443              	.LBE117:
 444              	.LBE118:
 445              		.cfi_endproc
 446              	.LFE296:
 447              		.size	chMtxLock, .-chMtxLock
 448              		.align	1
 449 016c AFF30080 		.p2align 4,,15
 450              		.global	chMtxTryLockS
 451              		.syntax unified
 452              		.thumb
 453              		.thumb_func
 454              		.fpu softvfp
 455              		.type	chMtxTryLockS, %function
ARM GAS  C:\Users\RAKIBU~1\AppData\Local\Temp\ccle7q2c.s 			page 9


 456              	chMtxTryLockS:
 457              	.LFB299:
 458              		.loc 1 282 0
 459              		.cfi_startproc
 460              		@ args = 0, pretend = 0, frame = 0
 461              		@ frame_needed = 0, uses_anonymous_args = 0
 462              	.LVL49:
 463 0170 10B5     		push	{r4, lr}
 464              		.cfi_def_cfa_offset 8
 465              		.cfi_offset 4, -8
 466              		.cfi_offset 14, -4
 467 0172 0446     		mov	r4, r0
 468              		.loc 1 284 0
 469 0174 FFF7FEFF 		bl	chDbgCheckClassS
 470              	.LVL50:
 471              		.loc 1 285 0
 472 0178 1CB1     		cbz	r4, .L42
 473              	.L38:
 474              		.loc 1 287 0
 475 017a A368     		ldr	r3, [r4, #8]
 476 017c 2BB1     		cbz	r3, .L43
 477              		.loc 1 297 0
 478 017e 0020     		movs	r0, #0
 479              	.L39:
 480              		.loc 1 309 0
 481 0180 10BD     		pop	{r4, pc}
 482              	.LVL51:
 483              	.L42:
 484              		.loc 1 285 0 discriminator 2
 485 0182 0748     		ldr	r0, .L44
 486 0184 FFF7FEFF 		bl	chSysHalt
 487              	.LVL52:
 488 0188 F7E7     		b	.L38
 489              	.L43:
 490              		.loc 1 305 0
 491 018a 064B     		ldr	r3, .L44+4
 492 018c 9A69     		ldr	r2, [r3, #24]
 493 018e A260     		str	r2, [r4, #8]
 494              		.loc 1 306 0
 495 0190 9A69     		ldr	r2, [r3, #24]
 496 0192 926B     		ldr	r2, [r2, #56]
 497 0194 E260     		str	r2, [r4, #12]
 498              		.loc 1 307 0
 499 0196 9B69     		ldr	r3, [r3, #24]
 500 0198 9C63     		str	r4, [r3, #56]
 501              		.loc 1 308 0
 502 019a 0120     		movs	r0, #1
 503 019c F0E7     		b	.L39
 504              	.L45:
 505 019e 00BF     		.align	2
 506              	.L44:
 507 01a0 28000000 		.word	.LANCHOR0+40
 508 01a4 00000000 		.word	ch
 509              		.cfi_endproc
 510              	.LFE299:
 511              		.size	chMtxTryLockS, .-chMtxTryLockS
 512              		.align	1
ARM GAS  C:\Users\RAKIBU~1\AppData\Local\Temp\ccle7q2c.s 			page 10


 513 01a8 AFF30080 		.p2align 4,,15
 513      AFF30080 
 514              		.global	chMtxTryLock
 515              		.syntax unified
 516              		.thumb
 517              		.thumb_func
 518              		.fpu softvfp
 519              		.type	chMtxTryLock, %function
 520              	chMtxTryLock:
 521              	.LFB298:
 522              		.loc 1 255 0
 523              		.cfi_startproc
 524              		@ args = 0, pretend = 0, frame = 0
 525              		@ frame_needed = 0, uses_anonymous_args = 0
 526              	.LVL53:
 527 01b0 10B5     		push	{r4, lr}
 528              		.cfi_def_cfa_offset 8
 529              		.cfi_offset 4, -8
 530              		.cfi_offset 14, -4
 531 01b2 0446     		mov	r4, r0
 532              	.LVL54:
 533              	.LBB129:
 534              	.LBB130:
 535              	.LBB131:
 536              	.LBB132:
 537              	.LBB133:
 538              		.loc 3 493 0
 539 01b4 2023     		movs	r3, #32
 540              		.syntax unified
 541              	@ 493 "../../../ChibiOSRepo/chibios191/os/common/ext/ARM/CMSIS/Core/Include/cmsis_gcc.h" 1
 542 01b6 83F31188 		MSR basepri, r3
 543              	@ 0 "" 2
 544              	.LVL55:
 545              		.thumb
 546              		.syntax unified
 547              	.LBE133:
 548              	.LBE132:
 549              	.LBE131:
 550              		.loc 4 356 0
 551 01ba FFF7FEFF 		bl	_stats_start_measure_crit_thd
 552              	.LVL56:
 553              		.loc 4 357 0
 554 01be FFF7FEFF 		bl	_dbg_check_lock
 555              	.LVL57:
 556              	.LBE130:
 557              	.LBE129:
 558              		.loc 1 259 0
 559 01c2 2046     		mov	r0, r4
 560 01c4 FFF7FEFF 		bl	chMtxTryLockS
 561              	.LVL58:
 562 01c8 0446     		mov	r4, r0
 563              	.LVL59:
 564              	.LBB134:
 565              	.LBB135:
 566              		.loc 4 367 0
 567 01ca FFF7FEFF 		bl	_dbg_check_unlock
 568              	.LVL60:
ARM GAS  C:\Users\RAKIBU~1\AppData\Local\Temp\ccle7q2c.s 			page 11


 569              		.loc 4 368 0
 570 01ce FFF7FEFF 		bl	_stats_stop_measure_crit_thd
 571              	.LVL61:
 572              		.loc 4 374 0
 573 01d2 094B     		ldr	r3, .L50
 574 01d4 1A68     		ldr	r2, [r3]
 575 01d6 9A42     		cmp	r2, r3
 576 01d8 04D0     		beq	.L47
 577 01da 9B69     		ldr	r3, [r3, #24]
 578 01dc 9968     		ldr	r1, [r3, #8]
 579 01de 9368     		ldr	r3, [r2, #8]
 580 01e0 9942     		cmp	r1, r3
 581 01e2 04D3     		bcc	.L49
 582              	.L47:
 583              	.LVL62:
 584              	.LBB136:
 585              	.LBB137:
 586              	.LBB138:
 587              		.loc 3 493 0
 588 01e4 0023     		movs	r3, #0
 589              		.syntax unified
 590              	@ 493 "../../../ChibiOSRepo/chibios191/os/common/ext/ARM/CMSIS/Core/Include/cmsis_gcc.h" 1
 591 01e6 83F31188 		MSR basepri, r3
 592              	@ 0 "" 2
 593              	.LVL63:
 594              		.thumb
 595              		.syntax unified
 596              	.LBE138:
 597              	.LBE137:
 598              	.LBE136:
 599              	.LBE135:
 600              	.LBE134:
 601              		.loc 1 263 0
 602 01ea 2046     		mov	r0, r4
 603 01ec 10BD     		pop	{r4, pc}
 604              	.LVL64:
 605              	.L49:
 606              	.LBB140:
 607              	.LBB139:
 608              		.loc 4 374 0
 609 01ee 0348     		ldr	r0, .L50+4
 610 01f0 FFF7FEFF 		bl	chSysHalt
 611              	.LVL65:
 612 01f4 F6E7     		b	.L47
 613              	.L51:
 614 01f6 00BF     		.align	2
 615              	.L50:
 616 01f8 00000000 		.word	ch
 617 01fc 1C000000 		.word	.LANCHOR0+28
 618              	.LBE139:
 619              	.LBE140:
 620              		.cfi_endproc
 621              	.LFE298:
 622              		.size	chMtxTryLock, .-chMtxTryLock
 623              		.align	1
 624              		.p2align 4,,15
 625              		.global	chMtxUnlock
ARM GAS  C:\Users\RAKIBU~1\AppData\Local\Temp\ccle7q2c.s 			page 12


 626              		.syntax unified
 627              		.thumb
 628              		.thumb_func
 629              		.fpu softvfp
 630              		.type	chMtxUnlock, %function
 631              	chMtxUnlock:
 632              	.LFB300:
 633              		.loc 1 323 0
 634              		.cfi_startproc
 635              		@ args = 0, pretend = 0, frame = 0
 636              		@ frame_needed = 0, uses_anonymous_args = 0
 637              	.LVL66:
 638 0200 F8B5     		push	{r3, r4, r5, r6, r7, lr}
 639              		.cfi_def_cfa_offset 24
 640              		.cfi_offset 3, -24
 641              		.cfi_offset 4, -20
 642              		.cfi_offset 5, -16
 643              		.cfi_offset 6, -12
 644              		.cfi_offset 7, -8
 645              		.cfi_offset 14, -4
 646              		.loc 1 324 0
 647 0202 2E4B     		ldr	r3, .L69
 648 0204 9E69     		ldr	r6, [r3, #24]
 649              	.LVL67:
 650              		.loc 1 327 0
 651 0206 0546     		mov	r5, r0
 652 0208 F8B1     		cbz	r0, .L65
 653              	.LVL68:
 654              	.L53:
 655              	.LBB162:
 656              	.LBB163:
 657              	.LBB164:
 658              	.LBB165:
 659              	.LBB166:
 660              		.loc 3 493 0
 661 020a 2023     		movs	r3, #32
 662              		.syntax unified
 663              	@ 493 "../../../ChibiOSRepo/chibios191/os/common/ext/ARM/CMSIS/Core/Include/cmsis_gcc.h" 1
 664 020c 83F31188 		MSR basepri, r3
 665              	@ 0 "" 2
 666              	.LVL69:
 667              		.thumb
 668              		.syntax unified
 669              	.LBE166:
 670              	.LBE165:
 671              	.LBE164:
 672              		.loc 4 356 0
 673 0210 FFF7FEFF 		bl	_stats_start_measure_crit_thd
 674              	.LVL70:
 675              		.loc 4 357 0
 676 0214 FFF7FEFF 		bl	_dbg_check_lock
 677              	.LVL71:
 678              	.LBE163:
 679              	.LBE162:
 680              		.loc 1 331 0
 681 0218 B36B     		ldr	r3, [r6, #56]
 682 021a D3B1     		cbz	r3, .L66
ARM GAS  C:\Users\RAKIBU~1\AppData\Local\Temp\ccle7q2c.s 			page 13


 683              	.L54:
 684              		.loc 1 332 0 discriminator 1
 685 021c B36B     		ldr	r3, [r6, #56]
 686 021e 9B68     		ldr	r3, [r3, #8]
 687 0220 B342     		cmp	r3, r6
 688 0222 02D0     		beq	.L55
 689              		.loc 1 332 0 is_stmt 0 discriminator 2
 690 0224 2648     		ldr	r0, .L69+4
 691 0226 FFF7FEFF 		bl	chSysHalt
 692              	.LVL72:
 693              	.L55:
 694              		.loc 1 339 0 is_stmt 1 discriminator 1
 695 022a B36B     		ldr	r3, [r6, #56]
 696 022c AB42     		cmp	r3, r5
 697 022e 02D0     		beq	.L56
 698              		.loc 1 339 0 is_stmt 0 discriminator 2
 699 0230 2348     		ldr	r0, .L69+4
 700 0232 FFF7FEFF 		bl	chSysHalt
 701              	.LVL73:
 702              	.L56:
 703              		.loc 1 344 0 is_stmt 1
 704 0236 EB68     		ldr	r3, [r5, #12]
 705 0238 B363     		str	r3, [r6, #56]
 706              	.LVL74:
 707              	.LBB167:
 708              	.LBB168:
 709              		.file 5 "../../../ChibiOSRepo/chibios191/os/rt/include/chmtx.h"
 710              		.loc 5 130 0
 711 023a FFF7FEFF 		bl	chDbgCheckClassS
 712              	.LVL75:
 713              	.LBB169:
 714              	.LBB170:
 715              		.loc 2 566 0
 716 023e 2B68     		ldr	r3, [r5]
 717              	.LVL76:
 718              	.LBE170:
 719              	.LBE169:
 720              	.LBE168:
 721              	.LBE167:
 722              		.loc 1 347 0
 723 0240 9D42     		cmp	r5, r3
 724 0242 34D0     		beq	.L57
 725              	.LBB171:
 726              		.loc 1 352 0
 727 0244 F76B     		ldr	r7, [r6, #60]
 728              	.LVL77:
 729              		.loc 1 353 0
 730 0246 B46B     		ldr	r4, [r6, #56]
 731              	.LVL78:
 732              		.loc 1 354 0
 733 0248 08E0     		b	.L58
 734              	.LVL79:
 735              	.L65:
 736              	.LBE171:
 737              		.loc 1 327 0 discriminator 2
 738 024a 1D48     		ldr	r0, .L69+4
 739              	.LVL80:
ARM GAS  C:\Users\RAKIBU~1\AppData\Local\Temp\ccle7q2c.s 			page 14


 740 024c FFF7FEFF 		bl	chSysHalt
 741              	.LVL81:
 742 0250 DBE7     		b	.L53
 743              	.L66:
 744              		.loc 1 331 0 discriminator 2
 745 0252 1B48     		ldr	r0, .L69+4
 746 0254 FFF7FEFF 		bl	chSysHalt
 747              	.LVL82:
 748 0258 E0E7     		b	.L54
 749              	.LVL83:
 750              	.L59:
 751              	.LBB178:
 752              		.loc 1 362 0
 753 025a E468     		ldr	r4, [r4, #12]
 754              	.LVL84:
 755              	.L58:
 756              		.loc 1 354 0
 757 025c 4CB1     		cbz	r4, .L67
 758              	.LVL85:
 759              	.LBB172:
 760              	.LBB173:
 761              		.loc 5 130 0
 762 025e FFF7FEFF 		bl	chDbgCheckClassS
 763              	.LVL86:
 764              	.LBB174:
 765              	.LBB175:
 766              		.loc 2 566 0
 767 0262 2368     		ldr	r3, [r4]
 768              	.LVL87:
 769              	.LBE175:
 770              	.LBE174:
 771              	.LBE173:
 772              	.LBE172:
 773              		.loc 1 358 0
 774 0264 9C42     		cmp	r4, r3
 775 0266 F8D0     		beq	.L59
 776              		.loc 1 359 0 discriminator 1
 777 0268 9B68     		ldr	r3, [r3, #8]
 778              		.loc 1 358 0 discriminator 1
 779 026a BB42     		cmp	r3, r7
 780 026c F5D9     		bls	.L59
 781              		.loc 1 360 0
 782 026e 1F46     		mov	r7, r3
 783              	.LVL88:
 784 0270 F3E7     		b	.L59
 785              	.LVL89:
 786              	.L67:
 787              		.loc 1 367 0
 788 0272 B760     		str	r7, [r6, #8]
 789              	.LVL90:
 790              	.LBB176:
 791              	.LBB177:
 792              		.loc 2 607 0
 793 0274 2868     		ldr	r0, [r5]
 794              	.LVL91:
 795              		.loc 2 609 0
 796 0276 0368     		ldr	r3, [r0]
ARM GAS  C:\Users\RAKIBU~1\AppData\Local\Temp\ccle7q2c.s 			page 15


 797 0278 2B60     		str	r3, [r5]
 798              		.loc 2 610 0
 799 027a 5D60     		str	r5, [r3, #4]
 800              	.LVL92:
 801              	.LBE177:
 802              	.LBE176:
 803              		.loc 1 375 0
 804 027c A860     		str	r0, [r5, #8]
 805              		.loc 1 376 0
 806 027e 836B     		ldr	r3, [r0, #56]
 807 0280 EB60     		str	r3, [r5, #12]
 808              		.loc 1 377 0
 809 0282 8563     		str	r5, [r0, #56]
 810              		.loc 1 383 0
 811 0284 FFF7FEFF 		bl	chSchReadyI
 812              	.LVL93:
 813              		.loc 1 384 0
 814 0288 FFF7FEFF 		bl	chSchRescheduleS
 815              	.LVL94:
 816              	.L61:
 817              	.LBE178:
 818              	.LBB179:
 819              	.LBB180:
 820              		.loc 4 367 0
 821 028c FFF7FEFF 		bl	_dbg_check_unlock
 822              	.LVL95:
 823              		.loc 4 368 0
 824 0290 FFF7FEFF 		bl	_stats_stop_measure_crit_thd
 825              	.LVL96:
 826              		.loc 4 374 0
 827 0294 094B     		ldr	r3, .L69
 828 0296 1A68     		ldr	r2, [r3]
 829 0298 9A42     		cmp	r2, r3
 830 029a 04D0     		beq	.L62
 831 029c 9B69     		ldr	r3, [r3, #24]
 832 029e 9968     		ldr	r1, [r3, #8]
 833 02a0 9368     		ldr	r3, [r2, #8]
 834 02a2 9942     		cmp	r1, r3
 835 02a4 06D3     		bcc	.L68
 836              	.L62:
 837              	.LVL97:
 838              	.LBB181:
 839              	.LBB182:
 840              	.LBB183:
 841              		.loc 3 493 0
 842 02a6 0023     		movs	r3, #0
 843              		.syntax unified
 844              	@ 493 "../../../ChibiOSRepo/chibios191/os/common/ext/ARM/CMSIS/Core/Include/cmsis_gcc.h" 1
 845 02a8 83F31188 		MSR basepri, r3
 846              	@ 0 "" 2
 847              	.LVL98:
 848              		.thumb
 849              		.syntax unified
 850              	.LBE183:
 851              	.LBE182:
 852              	.LBE181:
 853              	.LBE180:
ARM GAS  C:\Users\RAKIBU~1\AppData\Local\Temp\ccle7q2c.s 			page 16


 854              	.LBE179:
 855              		.loc 1 394 0
 856 02ac F8BD     		pop	{r3, r4, r5, r6, r7, pc}
 857              	.LVL99:
 858              	.L57:
 859              		.loc 1 387 0
 860 02ae 0023     		movs	r3, #0
 861 02b0 AB60     		str	r3, [r5, #8]
 862 02b2 EBE7     		b	.L61
 863              	.L68:
 864              	.LBB185:
 865              	.LBB184:
 866              		.loc 4 374 0
 867 02b4 0348     		ldr	r0, .L69+8
 868 02b6 FFF7FEFF 		bl	chSysHalt
 869              	.LVL100:
 870 02ba F4E7     		b	.L62
 871              	.L70:
 872              		.align	2
 873              	.L69:
 874 02bc 00000000 		.word	ch
 875 02c0 38000000 		.word	.LANCHOR0+56
 876 02c4 1C000000 		.word	.LANCHOR0+28
 877              	.LBE184:
 878              	.LBE185:
 879              		.cfi_endproc
 880              	.LFE300:
 881              		.size	chMtxUnlock, .-chMtxUnlock
 882              		.align	1
 883 02c8 AFF30080 		.p2align 4,,15
 883      AFF30080 
 884              		.global	chMtxUnlockS
 885              		.syntax unified
 886              		.thumb
 887              		.thumb_func
 888              		.fpu softvfp
 889              		.type	chMtxUnlockS, %function
 890              	chMtxUnlockS:
 891              	.LFB301:
 892              		.loc 1 410 0
 893              		.cfi_startproc
 894              		@ args = 0, pretend = 0, frame = 0
 895              		@ frame_needed = 0, uses_anonymous_args = 0
 896              	.LVL101:
 897 02d0 F8B5     		push	{r3, r4, r5, r6, r7, lr}
 898              		.cfi_def_cfa_offset 24
 899              		.cfi_offset 3, -24
 900              		.cfi_offset 4, -20
 901              		.cfi_offset 5, -16
 902              		.cfi_offset 6, -12
 903              		.cfi_offset 7, -8
 904              		.cfi_offset 14, -4
 905 02d2 0546     		mov	r5, r0
 906              		.loc 1 411 0
 907 02d4 204B     		ldr	r3, .L86
 908 02d6 9E69     		ldr	r6, [r3, #24]
 909              	.LVL102:
ARM GAS  C:\Users\RAKIBU~1\AppData\Local\Temp\ccle7q2c.s 			page 17


 910              		.loc 1 414 0
 911 02d8 FFF7FEFF 		bl	chDbgCheckClassS
 912              	.LVL103:
 913              		.loc 1 415 0
 914 02dc C5B1     		cbz	r5, .L83
 915              	.L72:
 916              		.loc 1 417 0 discriminator 1
 917 02de B36B     		ldr	r3, [r6, #56]
 918 02e0 D3B1     		cbz	r3, .L84
 919              	.L73:
 920              		.loc 1 418 0 discriminator 1
 921 02e2 B36B     		ldr	r3, [r6, #56]
 922 02e4 9B68     		ldr	r3, [r3, #8]
 923 02e6 B342     		cmp	r3, r6
 924 02e8 02D0     		beq	.L74
 925              		.loc 1 418 0 is_stmt 0 discriminator 2
 926 02ea 1C48     		ldr	r0, .L86+4
 927 02ec FFF7FEFF 		bl	chSysHalt
 928              	.LVL104:
 929              	.L74:
 930              		.loc 1 425 0 is_stmt 1 discriminator 1
 931 02f0 B36B     		ldr	r3, [r6, #56]
 932 02f2 AB42     		cmp	r3, r5
 933 02f4 02D0     		beq	.L75
 934              		.loc 1 425 0 is_stmt 0 discriminator 2
 935 02f6 1948     		ldr	r0, .L86+4
 936 02f8 FFF7FEFF 		bl	chSysHalt
 937              	.LVL105:
 938              	.L75:
 939              		.loc 1 430 0 is_stmt 1
 940 02fc EB68     		ldr	r3, [r5, #12]
 941 02fe B363     		str	r3, [r6, #56]
 942              	.LVL106:
 943              	.LBB186:
 944              	.LBB187:
 945              		.loc 5 130 0
 946 0300 FFF7FEFF 		bl	chDbgCheckClassS
 947              	.LVL107:
 948              	.LBB188:
 949              	.LBB189:
 950              		.loc 2 566 0
 951 0304 2B68     		ldr	r3, [r5]
 952              	.LVL108:
 953              	.LBE189:
 954              	.LBE188:
 955              	.LBE187:
 956              	.LBE186:
 957              		.loc 1 433 0
 958 0306 9D42     		cmp	r5, r3
 959 0308 22D0     		beq	.L76
 960              	.LBB190:
 961              		.loc 1 438 0
 962 030a F76B     		ldr	r7, [r6, #60]
 963              	.LVL109:
 964              		.loc 1 439 0
 965 030c B46B     		ldr	r4, [r6, #56]
 966              	.LVL110:
ARM GAS  C:\Users\RAKIBU~1\AppData\Local\Temp\ccle7q2c.s 			page 18


 967              		.loc 1 440 0
 968 030e 08E0     		b	.L77
 969              	.LVL111:
 970              	.L83:
 971              	.LBE190:
 972              		.loc 1 415 0 discriminator 2
 973 0310 1248     		ldr	r0, .L86+4
 974 0312 FFF7FEFF 		bl	chSysHalt
 975              	.LVL112:
 976 0316 E2E7     		b	.L72
 977              	.L84:
 978              		.loc 1 417 0 discriminator 2
 979 0318 1048     		ldr	r0, .L86+4
 980 031a FFF7FEFF 		bl	chSysHalt
 981              	.LVL113:
 982 031e E0E7     		b	.L73
 983              	.LVL114:
 984              	.L78:
 985              	.LBB197:
 986              		.loc 1 448 0
 987 0320 E468     		ldr	r4, [r4, #12]
 988              	.LVL115:
 989              	.L77:
 990              		.loc 1 440 0
 991 0322 4CB1     		cbz	r4, .L85
 992              	.LVL116:
 993              	.LBB191:
 994              	.LBB192:
 995              		.loc 5 130 0
 996 0324 FFF7FEFF 		bl	chDbgCheckClassS
 997              	.LVL117:
 998              	.LBB193:
 999              	.LBB194:
 1000              		.loc 2 566 0
 1001 0328 2368     		ldr	r3, [r4]
 1002              	.LVL118:
 1003              	.LBE194:
 1004              	.LBE193:
 1005              	.LBE192:
 1006              	.LBE191:
 1007              		.loc 1 444 0
 1008 032a 9C42     		cmp	r4, r3
 1009 032c F8D0     		beq	.L78
 1010              		.loc 1 445 0 discriminator 1
 1011 032e 9B68     		ldr	r3, [r3, #8]
 1012              		.loc 1 444 0 discriminator 1
 1013 0330 BB42     		cmp	r3, r7
 1014 0332 F5D9     		bls	.L78
 1015              		.loc 1 446 0
 1016 0334 1F46     		mov	r7, r3
 1017              	.LVL119:
 1018 0336 F3E7     		b	.L78
 1019              	.LVL120:
 1020              	.L85:
 1021              		.loc 1 453 0
 1022 0338 B760     		str	r7, [r6, #8]
 1023              	.LVL121:
ARM GAS  C:\Users\RAKIBU~1\AppData\Local\Temp\ccle7q2c.s 			page 19


 1024              	.LBB195:
 1025              	.LBB196:
 1026              		.loc 2 607 0
 1027 033a 2868     		ldr	r0, [r5]
 1028              	.LVL122:
 1029              		.loc 2 609 0
 1030 033c 0368     		ldr	r3, [r0]
 1031 033e 2B60     		str	r3, [r5]
 1032              		.loc 2 610 0
 1033 0340 5D60     		str	r5, [r3, #4]
 1034              	.LVL123:
 1035              	.LBE196:
 1036              	.LBE195:
 1037              		.loc 1 461 0
 1038 0342 A860     		str	r0, [r5, #8]
 1039              		.loc 1 462 0
 1040 0344 836B     		ldr	r3, [r0, #56]
 1041 0346 EB60     		str	r3, [r5, #12]
 1042              		.loc 1 463 0
 1043 0348 8563     		str	r5, [r0, #56]
 1044              		.loc 1 464 0
 1045 034a FFF7FEFF 		bl	chSchReadyI
 1046              	.LVL124:
 1047              	.L71:
 1048              	.LBE197:
 1049              		.loc 1 472 0
 1050 034e F8BD     		pop	{r3, r4, r5, r6, r7, pc}
 1051              	.LVL125:
 1052              	.L76:
 1053              		.loc 1 467 0
 1054 0350 0023     		movs	r3, #0
 1055 0352 AB60     		str	r3, [r5, #8]
 1056              		.loc 1 472 0
 1057 0354 FBE7     		b	.L71
 1058              	.L87:
 1059 0356 00BF     		.align	2
 1060              	.L86:
 1061 0358 00000000 		.word	ch
 1062 035c 44000000 		.word	.LANCHOR0+68
 1063              		.cfi_endproc
 1064              	.LFE301:
 1065              		.size	chMtxUnlockS, .-chMtxUnlockS
 1066              		.align	1
 1067              		.p2align 4,,15
 1068              		.global	chMtxUnlockAllS
 1069              		.syntax unified
 1070              		.thumb
 1071              		.thumb_func
 1072              		.fpu softvfp
 1073              		.type	chMtxUnlockAllS, %function
 1074              	chMtxUnlockAllS:
 1075              	.LFB302:
 1076              		.loc 1 487 0
 1077              		.cfi_startproc
 1078              		@ args = 0, pretend = 0, frame = 0
 1079              		@ frame_needed = 0, uses_anonymous_args = 0
 1080 0360 38B5     		push	{r3, r4, r5, lr}
ARM GAS  C:\Users\RAKIBU~1\AppData\Local\Temp\ccle7q2c.s 			page 20


 1081              		.cfi_def_cfa_offset 16
 1082              		.cfi_offset 3, -16
 1083              		.cfi_offset 4, -12
 1084              		.cfi_offset 5, -8
 1085              		.cfi_offset 14, -4
 1086              		.loc 1 488 0
 1087 0362 104B     		ldr	r3, .L95
 1088 0364 9D69     		ldr	r5, [r3, #24]
 1089              	.LVL126:
 1090              		.loc 1 490 0
 1091 0366 AB6B     		ldr	r3, [r5, #56]
 1092 0368 23B9     		cbnz	r3, .L92
 1093 036a 19E0     		b	.L88
 1094              	.LVL127:
 1095              	.L90:
 1096              	.LBB198:
 1097              		.loc 1 509 0
 1098 036c 0023     		movs	r3, #0
 1099 036e A360     		str	r3, [r4, #8]
 1100              	.L91:
 1101              	.LBE198:
 1102              		.loc 1 511 0
 1103 0370 AB6B     		ldr	r3, [r5, #56]
 1104 0372 8BB1     		cbz	r3, .L94
 1105              	.LVL128:
 1106              	.L92:
 1107              	.LBB206:
 1108              		.loc 1 492 0
 1109 0374 AC6B     		ldr	r4, [r5, #56]
 1110              	.LVL129:
 1111              		.loc 1 493 0
 1112 0376 E368     		ldr	r3, [r4, #12]
 1113 0378 AB63     		str	r3, [r5, #56]
 1114              	.LVL130:
 1115              	.LBB199:
 1116              	.LBB200:
 1117              		.loc 5 130 0
 1118 037a FFF7FEFF 		bl	chDbgCheckClassS
 1119              	.LVL131:
 1120              	.LBB201:
 1121              	.LBB202:
 1122              		.loc 2 566 0
 1123 037e 2068     		ldr	r0, [r4]
 1124              	.LVL132:
 1125              	.LBE202:
 1126              	.LBE201:
 1127              	.LBE200:
 1128              	.LBE199:
 1129              		.loc 1 494 0
 1130 0380 8442     		cmp	r4, r0
 1131 0382 F3D0     		beq	.L90
 1132              	.LVL133:
 1133              	.LBB203:
 1134              	.LBB204:
 1135              	.LBB205:
 1136              		.loc 2 609 0
 1137 0384 0368     		ldr	r3, [r0]
ARM GAS  C:\Users\RAKIBU~1\AppData\Local\Temp\ccle7q2c.s 			page 21


 1138 0386 2360     		str	r3, [r4]
 1139              		.loc 2 610 0
 1140 0388 5C60     		str	r4, [r3, #4]
 1141              	.LVL134:
 1142              	.LBE205:
 1143              	.LBE204:
 1144              		.loc 1 500 0
 1145 038a A060     		str	r0, [r4, #8]
 1146              		.loc 1 501 0
 1147 038c 836B     		ldr	r3, [r0, #56]
 1148 038e E360     		str	r3, [r4, #12]
 1149              		.loc 1 502 0
 1150 0390 8463     		str	r4, [r0, #56]
 1151              		.loc 1 503 0
 1152 0392 FFF7FEFF 		bl	chSchReadyI
 1153              	.LVL135:
 1154              	.LBE203:
 1155 0396 EBE7     		b	.L91
 1156              	.L94:
 1157              	.LBE206:
 1158              		.loc 1 512 0
 1159 0398 EB6B     		ldr	r3, [r5, #60]
 1160 039a AB60     		str	r3, [r5, #8]
 1161              		.loc 1 513 0
 1162 039c FFF7FEFF 		bl	chSchRescheduleS
 1163              	.LVL136:
 1164              	.L88:
 1165              		.loc 1 515 0
 1166 03a0 38BD     		pop	{r3, r4, r5, pc}
 1167              	.LVL137:
 1168              	.L96:
 1169 03a2 00BF     		.align	2
 1170              	.L95:
 1171 03a4 00000000 		.word	ch
 1172              		.cfi_endproc
 1173              	.LFE302:
 1174              		.size	chMtxUnlockAllS, .-chMtxUnlockAllS
 1175              		.align	1
 1176 03a8 AFF30080 		.p2align 4,,15
 1176      AFF30080 
 1177              		.global	chMtxUnlockAll
 1178              		.syntax unified
 1179              		.thumb
 1180              		.thumb_func
 1181              		.fpu softvfp
 1182              		.type	chMtxUnlockAll, %function
 1183              	chMtxUnlockAll:
 1184              	.LFB303:
 1185              		.loc 1 528 0
 1186              		.cfi_startproc
 1187              		@ args = 0, pretend = 0, frame = 0
 1188              		@ frame_needed = 0, uses_anonymous_args = 0
 1189 03b0 08B5     		push	{r3, lr}
 1190              		.cfi_def_cfa_offset 8
 1191              		.cfi_offset 3, -8
 1192              		.cfi_offset 14, -4
 1193              	.LVL138:
ARM GAS  C:\Users\RAKIBU~1\AppData\Local\Temp\ccle7q2c.s 			page 22


 1194              	.LBB217:
 1195              	.LBB218:
 1196              	.LBB219:
 1197              	.LBB220:
 1198              	.LBB221:
 1199              		.loc 3 493 0
 1200 03b2 2023     		movs	r3, #32
 1201              		.syntax unified
 1202              	@ 493 "../../../ChibiOSRepo/chibios191/os/common/ext/ARM/CMSIS/Core/Include/cmsis_gcc.h" 1
 1203 03b4 83F31188 		MSR basepri, r3
 1204              	@ 0 "" 2
 1205              	.LVL139:
 1206              		.thumb
 1207              		.syntax unified
 1208              	.LBE221:
 1209              	.LBE220:
 1210              	.LBE219:
 1211              		.loc 4 356 0
 1212 03b8 FFF7FEFF 		bl	_stats_start_measure_crit_thd
 1213              	.LVL140:
 1214              		.loc 4 357 0
 1215 03bc FFF7FEFF 		bl	_dbg_check_lock
 1216              	.LVL141:
 1217              	.LBE218:
 1218              	.LBE217:
 1219              		.loc 1 531 0
 1220 03c0 FFF7FEFF 		bl	chMtxUnlockAllS
 1221              	.LVL142:
 1222              	.LBB222:
 1223              	.LBB223:
 1224              		.loc 4 367 0
 1225 03c4 FFF7FEFF 		bl	_dbg_check_unlock
 1226              	.LVL143:
 1227              		.loc 4 368 0
 1228 03c8 FFF7FEFF 		bl	_stats_stop_measure_crit_thd
 1229              	.LVL144:
 1230              		.loc 4 374 0
 1231 03cc 084B     		ldr	r3, .L101
 1232 03ce 1A68     		ldr	r2, [r3]
 1233 03d0 9A42     		cmp	r2, r3
 1234 03d2 04D0     		beq	.L98
 1235 03d4 9B69     		ldr	r3, [r3, #24]
 1236 03d6 9968     		ldr	r1, [r3, #8]
 1237 03d8 9368     		ldr	r3, [r2, #8]
 1238 03da 9942     		cmp	r1, r3
 1239 03dc 03D3     		bcc	.L100
 1240              	.L98:
 1241              	.LVL145:
 1242              	.LBB224:
 1243              	.LBB225:
 1244              	.LBB226:
 1245              		.loc 3 493 0
 1246 03de 0023     		movs	r3, #0
 1247              		.syntax unified
 1248              	@ 493 "../../../ChibiOSRepo/chibios191/os/common/ext/ARM/CMSIS/Core/Include/cmsis_gcc.h" 1
 1249 03e0 83F31188 		MSR basepri, r3
 1250              	@ 0 "" 2
ARM GAS  C:\Users\RAKIBU~1\AppData\Local\Temp\ccle7q2c.s 			page 23


 1251              	.LVL146:
 1252              		.thumb
 1253              		.syntax unified
 1254              	.LBE226:
 1255              	.LBE225:
 1256              	.LBE224:
 1257              	.LBE223:
 1258              	.LBE222:
 1259              		.loc 1 533 0
 1260 03e4 08BD     		pop	{r3, pc}
 1261              	.L100:
 1262              	.LBB228:
 1263              	.LBB227:
 1264              		.loc 4 374 0
 1265 03e6 0348     		ldr	r0, .L101+4
 1266 03e8 FFF7FEFF 		bl	chSysHalt
 1267              	.LVL147:
 1268 03ec F7E7     		b	.L98
 1269              	.L102:
 1270 03ee 00BF     		.align	2
 1271              	.L101:
 1272 03f0 00000000 		.word	ch
 1273 03f4 1C000000 		.word	.LANCHOR0+28
 1274              	.LBE227:
 1275              	.LBE228:
 1276              		.cfi_endproc
 1277              	.LFE303:
 1278              		.size	chMtxUnlockAll, .-chMtxUnlockAll
 1279              		.section	.rodata
 1280              		.align	2
 1281              		.set	.LANCHOR0,. + 0
 1282              		.type	__func__.7106, %object
 1283              		.size	__func__.7106, 16
 1284              	__func__.7106:
 1285 0000 63684D74 		.ascii	"chMtxObjectInit\000"
 1285      784F626A 
 1285      65637449 
 1285      6E697400 
 1286              		.type	__func__.7114, %object
 1287              		.size	__func__.7114, 11
 1288              	__func__.7114:
 1289 0010 63684D74 		.ascii	"chMtxLockS\000"
 1289      784C6F63 
 1289      6B5300
 1290 001b 00       		.space	1
 1291              		.type	__func__.6118, %object
 1292              		.size	__func__.6118, 12
 1293              	__func__.6118:
 1294 001c 63685379 		.ascii	"chSysUnlock\000"
 1294      73556E6C 
 1294      6F636B00 
 1295              		.type	__func__.7131, %object
 1296              		.size	__func__.7131, 14
 1297              	__func__.7131:
 1298 0028 63684D74 		.ascii	"chMtxTryLockS\000"
 1298      78547279 
 1298      4C6F636B 
ARM GAS  C:\Users\RAKIBU~1\AppData\Local\Temp\ccle7q2c.s 			page 24


 1298      5300
 1299 0036 0000     		.space	2
 1300              		.type	__func__.7137, %object
 1301              		.size	__func__.7137, 12
 1302              	__func__.7137:
 1303 0038 63684D74 		.ascii	"chMtxUnlock\000"
 1303      78556E6C 
 1303      6F636B00 
 1304              		.type	__func__.7148, %object
 1305              		.size	__func__.7148, 13
 1306              	__func__.7148:
 1307 0044 63684D74 		.ascii	"chMtxUnlockS\000"
 1307      78556E6C 
 1307      6F636B53 
 1307      00
 1308              		.text
 1309              	.Letext0:
 1310              		.file 6 "c:\\chibistudio\\tools\\gnu tools arm embedded\\7.0 2017q4\\lib\\gcc\\arm-none-eabi\\7.2.
 1311              		.file 7 "c:\\chibistudio\\tools\\gnu tools arm embedded\\7.0 2017q4\\arm-none-eabi\\include\\machi
 1312              		.file 8 "c:\\chibistudio\\tools\\gnu tools arm embedded\\7.0 2017q4\\arm-none-eabi\\include\\sys\\
 1313              		.file 9 "../../../ChibiOSRepo/chibios191/os/common/ports/ARMCMx/compilers/GCC/chtypes.h"
 1314              		.file 10 "../../../ChibiOSRepo/chibios191/os/rt/include/chsystypes.h"
 1315              		.file 11 "../../../ChibiOSRepo/chibios191/os/rt/include/chtime.h"
 1316              		.file 12 "../../../ChibiOSRepo/chibios191/os/common/ext/ARM/CMSIS/Core/Include/core_cm4.h"
 1317              		.file 13 "../../../ChibiOSRepo/chibios191/os/common/ext/ST/STM32F4xx/system_stm32f4xx.h"
 1318              		.file 14 "../../../ChibiOSRepo/chibios191/os/common/ports/ARMCMx/chcore.h"
 1319              		.file 15 "../../../ChibiOSRepo/chibios191/os/common/ports/ARMCMx/chcore_v7m.h"
 1320              		.file 16 "../../../ChibiOSRepo/chibios191/os/rt/include/chtrace.h"
 1321              		.file 17 "../../../ChibiOSRepo/chibios191/os/rt/include/chtm.h"
 1322              		.file 18 "../../../ChibiOSRepo/chibios191/os/rt/include/chstats.h"
 1323              		.file 19 "../../../ChibiOSRepo/chibios191/os/rt/include/chsem.h"
 1324              		.file 20 "../../../ChibiOSRepo/chibios191/os/rt/include/chregistry.h"
 1325              		.file 21 "../../../ChibiOSRepo/chibios191/os/oslib/include/chmemcore.h"
 1326              		.file 22 "../../../ChibiOSRepo/chibios191/os/oslib/include/chmempools.h"
 1327              		.file 23 "../../../ChibiOSRepo/chibios191/os/oslib/include/chfactory.h"
 1328              		.file 24 "../../../ChibiOSRepo/chibios191/os/rt/include/chdebug.h"
 1329              		.file 25 "../../../ChibiOSRepo/chibios191/os/rt/include/ch.h"