ARM GAS  C:\Users\RAKIBU~1\AppData\Local\Temp\cctIxCPg.s 			page 1


   1              		.cpu cortex-m4
   2              		.eabi_attribute 20, 1
   3              		.eabi_attribute 21, 1
   4              		.eabi_attribute 23, 3
   5              		.eabi_attribute 24, 1
   6              		.eabi_attribute 25, 1
   7              		.eabi_attribute 26, 1
   8              		.eabi_attribute 30, 1
   9              		.eabi_attribute 34, 1
  10              		.eabi_attribute 18, 4
  11              		.file	"chpipes.c"
  12              		.text
  13              	.Ltext0:
  14              		.cfi_sections	.debug_frame
  15              		.align	1
  16              		.p2align 4,,15
  17              		.syntax unified
  18              		.thumb
  19              		.thumb_func
  20              		.fpu softvfp
  21              		.type	pipe_write, %function
  22              	pipe_write:
  23              	.LFB295:
  24              		.file 1 "../../../ChibiOSRepo/chibios191/os/oslib/src/chpipes.c"
  25              		.loc 1 105 0
  26              		.cfi_startproc
  27              		@ args = 0, pretend = 0, frame = 0
  28              		@ frame_needed = 0, uses_anonymous_args = 0
  29              	.LVL0:
  30 0000 2DE9F843 		push	{r3, r4, r5, r6, r7, r8, r9, lr}
  31              		.cfi_def_cfa_offset 32
  32              		.cfi_offset 3, -32
  33              		.cfi_offset 4, -28
  34              		.cfi_offset 5, -24
  35              		.cfi_offset 6, -20
  36              		.cfi_offset 7, -16
  37              		.cfi_offset 8, -12
  38              		.cfi_offset 9, -8
  39              		.cfi_offset 14, -4
  40 0004 0546     		mov	r5, r0
  41 0006 8846     		mov	r8, r1
  42 0008 9146     		mov	r9, r2
  43              		.loc 1 108 0
  44 000a 00F12007 		add	r7, r0, #32
  45 000e 3846     		mov	r0, r7
  46              	.LVL1:
  47 0010 FFF7FEFF 		bl	chMtxLock
  48              	.LVL2:
  49              	.LBB53:
  50              	.LBB54:
  51              	.LBB55:
  52              	.LBB56:
  53              		.file 2 "../../../ChibiOSRepo/chibios191/os/oslib/include/chpipes.h"
  54              		.loc 2 162 0
  55 0014 6E68     		ldr	r6, [r5, #4]
  56 0016 2C68     		ldr	r4, [r5]
  57 0018 341B     		subs	r4, r6, r4
ARM GAS  C:\Users\RAKIBU~1\AppData\Local\Temp\cctIxCPg.s 			page 2


  58              	.LVL3:
  59              	.LBE56:
  60              	.LBE55:
  61              	.LBB57:
  62              	.LBB58:
  63              		.loc 2 176 0
  64 001a 2B69     		ldr	r3, [r5, #16]
  65              	.LVL4:
  66              	.LBE58:
  67              	.LBE57:
  68              		.loc 2 189 0
  69 001c E41A     		subs	r4, r4, r3
  70              	.LVL5:
  71              	.LBE54:
  72              	.LBE53:
  73              		.loc 1 111 0
  74 001e A145     		cmp	r9, r4
  75 0020 00D8     		bhi	.L2
  76 0022 4C46     		mov	r4, r9
  77              	.L2:
  78              	.LVL6:
  79              		.loc 1 114 0
  80 0024 2344     		add	r3, r3, r4
  81 0026 2B61     		str	r3, [r5, #16]
  82              		.loc 1 118 0
  83 0028 A868     		ldr	r0, [r5, #8]
  84 002a 361A     		subs	r6, r6, r0
  85              	.LVL7:
  86              		.loc 1 121 0
  87 002c B442     		cmp	r4, r6
  88 002e 0DD3     		bcc	.L7
  89              		.loc 1 125 0
  90 0030 B442     		cmp	r4, r6
  91 0032 13D8     		bhi	.L8
  92              		.loc 1 133 0
  93 0034 2246     		mov	r2, r4
  94 0036 4146     		mov	r1, r8
  95 0038 FFF7FEFF 		bl	memcpy
  96              	.LVL8:
  97              		.loc 1 134 0
  98 003c 2B68     		ldr	r3, [r5]
  99 003e AB60     		str	r3, [r5, #8]
 100              	.LVL9:
 101              	.L4:
 102              		.loc 1 137 0
 103 0040 3846     		mov	r0, r7
 104 0042 FFF7FEFF 		bl	chMtxUnlock
 105              	.LVL10:
 106              		.loc 1 140 0
 107 0046 2046     		mov	r0, r4
 108 0048 BDE8F883 		pop	{r3, r4, r5, r6, r7, r8, r9, pc}
 109              	.LVL11:
 110              	.L7:
 111              		.loc 1 122 0
 112 004c 2246     		mov	r2, r4
 113 004e 4146     		mov	r1, r8
 114 0050 FFF7FEFF 		bl	memcpy
ARM GAS  C:\Users\RAKIBU~1\AppData\Local\Temp\cctIxCPg.s 			page 3


 115              	.LVL12:
 116              		.loc 1 123 0
 117 0054 AB68     		ldr	r3, [r5, #8]
 118 0056 2344     		add	r3, r3, r4
 119 0058 AB60     		str	r3, [r5, #8]
 120 005a F1E7     		b	.L4
 121              	.L8:
 122              		.loc 1 126 0
 123 005c 3246     		mov	r2, r6
 124 005e 4146     		mov	r1, r8
 125 0060 FFF7FEFF 		bl	memcpy
 126              	.LVL13:
 127              		.loc 1 128 0
 128 0064 A4EB0609 		sub	r9, r4, r6
 129              	.LVL14:
 130              		.loc 1 129 0
 131 0068 4A46     		mov	r2, r9
 132 006a 08EB0601 		add	r1, r8, r6
 133              	.LVL15:
 134 006e 2868     		ldr	r0, [r5]
 135 0070 FFF7FEFF 		bl	memcpy
 136              	.LVL16:
 137              		.loc 1 130 0
 138 0074 2A68     		ldr	r2, [r5]
 139 0076 4A44     		add	r2, r2, r9
 140 0078 AA60     		str	r2, [r5, #8]
 141 007a E1E7     		b	.L4
 142              		.cfi_endproc
 143              	.LFE295:
 144              		.size	pipe_write, .-pipe_write
 145              		.align	1
 146 007c AFF30080 		.p2align 4,,15
 147              		.syntax unified
 148              		.thumb
 149              		.thumb_func
 150              		.fpu softvfp
 151              		.type	pipe_read, %function
 152              	pipe_read:
 153              	.LFB296:
 154              		.loc 1 156 0
 155              		.cfi_startproc
 156              		@ args = 0, pretend = 0, frame = 0
 157              		@ frame_needed = 0, uses_anonymous_args = 0
 158              	.LVL17:
 159 0080 2DE9F843 		push	{r3, r4, r5, r6, r7, r8, r9, lr}
 160              		.cfi_def_cfa_offset 32
 161              		.cfi_offset 3, -32
 162              		.cfi_offset 4, -28
 163              		.cfi_offset 5, -24
 164              		.cfi_offset 6, -20
 165              		.cfi_offset 7, -16
 166              		.cfi_offset 8, -12
 167              		.cfi_offset 9, -8
 168              		.cfi_offset 14, -4
 169 0084 0546     		mov	r5, r0
 170 0086 8846     		mov	r8, r1
 171 0088 1446     		mov	r4, r2
ARM GAS  C:\Users\RAKIBU~1\AppData\Local\Temp\cctIxCPg.s 			page 4


 172              		.loc 1 159 0
 173 008a 00F12007 		add	r7, r0, #32
 174 008e 3846     		mov	r0, r7
 175              	.LVL18:
 176 0090 FFF7FEFF 		bl	chMtxLock
 177              	.LVL19:
 178              	.LBB59:
 179              	.LBB60:
 180              		.loc 2 176 0
 181 0094 2B69     		ldr	r3, [r5, #16]
 182              	.LVL20:
 183              	.LBE60:
 184              	.LBE59:
 185              		.loc 1 162 0
 186 0096 9C42     		cmp	r4, r3
 187 0098 00D9     		bls	.L10
 188              		.loc 1 163 0
 189 009a 1C46     		mov	r4, r3
 190              	.LVL21:
 191              	.L10:
 192              		.loc 1 165 0
 193 009c 1B1B     		subs	r3, r3, r4
 194 009e 2B61     		str	r3, [r5, #16]
 195              		.loc 1 169 0
 196 00a0 6E68     		ldr	r6, [r5, #4]
 197 00a2 E968     		ldr	r1, [r5, #12]
 198 00a4 761A     		subs	r6, r6, r1
 199              	.LVL22:
 200              		.loc 1 172 0
 201 00a6 B442     		cmp	r4, r6
 202 00a8 0DD3     		bcc	.L16
 203              		.loc 1 176 0
 204 00aa B442     		cmp	r4, r6
 205 00ac 13D8     		bhi	.L17
 206              		.loc 1 184 0
 207 00ae 2246     		mov	r2, r4
 208 00b0 4046     		mov	r0, r8
 209 00b2 FFF7FEFF 		bl	memcpy
 210              	.LVL23:
 211              		.loc 1 185 0
 212 00b6 2B68     		ldr	r3, [r5]
 213 00b8 EB60     		str	r3, [r5, #12]
 214              	.LVL24:
 215              	.L12:
 216              		.loc 1 188 0
 217 00ba 3846     		mov	r0, r7
 218 00bc FFF7FEFF 		bl	chMtxUnlock
 219              	.LVL25:
 220              		.loc 1 191 0
 221 00c0 2046     		mov	r0, r4
 222 00c2 BDE8F883 		pop	{r3, r4, r5, r6, r7, r8, r9, pc}
 223              	.LVL26:
 224              	.L16:
 225              		.loc 1 173 0
 226 00c6 2246     		mov	r2, r4
 227 00c8 4046     		mov	r0, r8
 228 00ca FFF7FEFF 		bl	memcpy
ARM GAS  C:\Users\RAKIBU~1\AppData\Local\Temp\cctIxCPg.s 			page 5


 229              	.LVL27:
 230              		.loc 1 174 0
 231 00ce EB68     		ldr	r3, [r5, #12]
 232 00d0 2344     		add	r3, r3, r4
 233 00d2 EB60     		str	r3, [r5, #12]
 234 00d4 F1E7     		b	.L12
 235              	.L17:
 236              		.loc 1 177 0
 237 00d6 3246     		mov	r2, r6
 238 00d8 4046     		mov	r0, r8
 239 00da FFF7FEFF 		bl	memcpy
 240              	.LVL28:
 241              		.loc 1 179 0
 242 00de A4EB0609 		sub	r9, r4, r6
 243              	.LVL29:
 244              		.loc 1 180 0
 245 00e2 4A46     		mov	r2, r9
 246 00e4 2968     		ldr	r1, [r5]
 247 00e6 08EB0600 		add	r0, r8, r6
 248              	.LVL30:
 249 00ea FFF7FEFF 		bl	memcpy
 250              	.LVL31:
 251              		.loc 1 181 0
 252 00ee 2A68     		ldr	r2, [r5]
 253 00f0 4A44     		add	r2, r2, r9
 254 00f2 EA60     		str	r2, [r5, #12]
 255 00f4 E1E7     		b	.L12
 256              		.cfi_endproc
 257              	.LFE296:
 258              		.size	pipe_read, .-pipe_read
 259              		.align	1
 260 00f6 00BFAFF3 		.p2align 4,,15
 260      0080AFF3 
 260      0080
 261              		.global	chPipeObjectInit
 262              		.syntax unified
 263              		.thumb
 264              		.thumb_func
 265              		.fpu softvfp
 266              		.type	chPipeObjectInit, %function
 267              	chPipeObjectInit:
 268              	.LFB297:
 269              		.loc 1 207 0
 270              		.cfi_startproc
 271              		@ args = 0, pretend = 0, frame = 0
 272              		@ frame_needed = 0, uses_anonymous_args = 0
 273              	.LVL32:
 274 0100 70B5     		push	{r4, r5, r6, lr}
 275              		.cfi_def_cfa_offset 16
 276              		.cfi_offset 4, -16
 277              		.cfi_offset 5, -12
 278              		.cfi_offset 6, -8
 279              		.cfi_offset 14, -4
 280 0102 0D46     		mov	r5, r1
 281 0104 1646     		mov	r6, r2
 282              		.loc 1 209 0
 283 0106 0446     		mov	r4, r0
ARM GAS  C:\Users\RAKIBU~1\AppData\Local\Temp\cctIxCPg.s 			page 6


 284 0108 08B1     		cbz	r0, .L19
 285              		.loc 1 209 0 is_stmt 0 discriminator 3
 286 010a 01B1     		cbz	r1, .L19
 287              		.loc 1 209 0 discriminator 5
 288 010c 12B9     		cbnz	r2, .L20
 289              	.L19:
 290              		.loc 1 209 0 discriminator 6
 291 010e 0D48     		ldr	r0, .L22
 292              	.LVL33:
 293 0110 FFF7FEFF 		bl	chSysHalt
 294              	.LVL34:
 295              	.L20:
 296              		.loc 1 211 0 is_stmt 1
 297 0114 2560     		str	r5, [r4]
 298              		.loc 1 212 0
 299 0116 E560     		str	r5, [r4, #12]
 300              		.loc 1 213 0
 301 0118 A560     		str	r5, [r4, #8]
 302              		.loc 1 214 0
 303 011a 3544     		add	r5, r5, r6
 304              	.LVL35:
 305 011c 6560     		str	r5, [r4, #4]
 306              		.loc 1 215 0
 307 011e 0023     		movs	r3, #0
 308 0120 2361     		str	r3, [r4, #16]
 309              		.loc 1 216 0
 310 0122 2375     		strb	r3, [r4, #20]
 311              		.loc 1 217 0
 312 0124 A361     		str	r3, [r4, #24]
 313              		.loc 1 218 0
 314 0126 E361     		str	r3, [r4, #28]
 315              		.loc 1 219 0
 316 0128 04F12000 		add	r0, r4, #32
 317 012c FFF7FEFF 		bl	chMtxObjectInit
 318              	.LVL36:
 319              		.loc 1 220 0
 320 0130 04F13000 		add	r0, r4, #48
 321 0134 FFF7FEFF 		bl	chMtxObjectInit
 322              	.LVL37:
 323              		.loc 1 221 0
 324 0138 04F14000 		add	r0, r4, #64
 325 013c FFF7FEFF 		bl	chMtxObjectInit
 326              	.LVL38:
 327              		.loc 1 222 0
 328 0140 70BD     		pop	{r4, r5, r6, pc}
 329              	.LVL39:
 330              	.L23:
 331 0142 00BF     		.align	2
 332              	.L22:
 333 0144 00000000 		.word	.LANCHOR0
 334              		.cfi_endproc
 335              	.LFE297:
 336              		.size	chPipeObjectInit, .-chPipeObjectInit
 337              		.align	1
 338 0148 AFF30080 		.p2align 4,,15
 338      AFF30080 
 339              		.global	chPipeReset
ARM GAS  C:\Users\RAKIBU~1\AppData\Local\Temp\cctIxCPg.s 			page 7


 340              		.syntax unified
 341              		.thumb
 342              		.thumb_func
 343              		.fpu softvfp
 344              		.type	chPipeReset, %function
 345              	chPipeReset:
 346              	.LFB298:
 347              		.loc 1 236 0
 348              		.cfi_startproc
 349              		@ args = 0, pretend = 0, frame = 0
 350              		@ frame_needed = 0, uses_anonymous_args = 0
 351              	.LVL40:
 352 0150 38B5     		push	{r3, r4, r5, lr}
 353              		.cfi_def_cfa_offset 16
 354              		.cfi_offset 3, -16
 355              		.cfi_offset 4, -12
 356              		.cfi_offset 5, -8
 357              		.cfi_offset 14, -4
 358              		.loc 1 238 0
 359 0152 0446     		mov	r4, r0
 360 0154 A0B3     		cbz	r0, .L28
 361              	.LVL41:
 362              	.L25:
 363              		.loc 1 240 0
 364 0156 04F12005 		add	r5, r4, #32
 365 015a 2846     		mov	r0, r5
 366 015c FFF7FEFF 		bl	chMtxLock
 367              	.LVL42:
 368              		.loc 1 242 0
 369 0160 2368     		ldr	r3, [r4]
 370 0162 A360     		str	r3, [r4, #8]
 371              		.loc 1 243 0
 372 0164 E360     		str	r3, [r4, #12]
 373              		.loc 1 244 0
 374 0166 0023     		movs	r3, #0
 375 0168 2361     		str	r3, [r4, #16]
 376              		.loc 1 245 0
 377 016a 0123     		movs	r3, #1
 378 016c 2375     		strb	r3, [r4, #20]
 379              	.LVL43:
 380              	.LBB71:
 381              	.LBB72:
 382              	.LBB73:
 383              	.LBB74:
 384              	.LBB75:
 385              		.file 3 "../../../ChibiOSRepo/chibios191/os/common/ext/ARM/CMSIS/Core/Include/cmsis_gcc.h"
 386              		.loc 3 493 0
 387 016e 2023     		movs	r3, #32
 388              		.syntax unified
 389              	@ 493 "../../../ChibiOSRepo/chibios191/os/common/ext/ARM/CMSIS/Core/Include/cmsis_gcc.h" 1
 390 0170 83F31188 		MSR basepri, r3
 391              	@ 0 "" 2
 392              	.LVL44:
 393              		.thumb
 394              		.syntax unified
 395              	.LBE75:
 396              	.LBE74:
ARM GAS  C:\Users\RAKIBU~1\AppData\Local\Temp\cctIxCPg.s 			page 8


 397              	.LBE73:
 398              		.file 4 "../../../ChibiOSRepo/chibios191/os/rt/include/chsys.h"
 399              		.loc 4 356 0
 400 0174 FFF7FEFF 		bl	_stats_start_measure_crit_thd
 401              	.LVL45:
 402              		.loc 4 357 0
 403 0178 FFF7FEFF 		bl	_dbg_check_lock
 404              	.LVL46:
 405              	.LBE72:
 406              	.LBE71:
 407              		.loc 1 248 0
 408 017c 6FF00101 		mvn	r1, #1
 409 0180 04F11800 		add	r0, r4, #24
 410 0184 FFF7FEFF 		bl	chThdResumeI
 411              	.LVL47:
 412              		.loc 1 249 0
 413 0188 6FF00101 		mvn	r1, #1
 414 018c 04F11C00 		add	r0, r4, #28
 415 0190 FFF7FEFF 		bl	chThdResumeI
 416              	.LVL48:
 417              		.loc 1 250 0
 418 0194 FFF7FEFF 		bl	chSchRescheduleS
 419              	.LVL49:
 420              	.LBB76:
 421              	.LBB77:
 422              		.loc 4 367 0
 423 0198 FFF7FEFF 		bl	_dbg_check_unlock
 424              	.LVL50:
 425              		.loc 4 368 0
 426 019c FFF7FEFF 		bl	_stats_stop_measure_crit_thd
 427              	.LVL51:
 428              		.loc 4 374 0
 429 01a0 0B4B     		ldr	r3, .L30
 430 01a2 1A68     		ldr	r2, [r3]
 431 01a4 9A42     		cmp	r2, r3
 432 01a6 04D0     		beq	.L26
 433 01a8 9B69     		ldr	r3, [r3, #24]
 434 01aa 9968     		ldr	r1, [r3, #8]
 435 01ac 9368     		ldr	r3, [r2, #8]
 436 01ae 9942     		cmp	r1, r3
 437 01b0 0AD3     		bcc	.L29
 438              	.L26:
 439              	.LVL52:
 440              	.LBB78:
 441              	.LBB79:
 442              	.LBB80:
 443              		.loc 3 493 0
 444 01b2 0023     		movs	r3, #0
 445              		.syntax unified
 446              	@ 493 "../../../ChibiOSRepo/chibios191/os/common/ext/ARM/CMSIS/Core/Include/cmsis_gcc.h" 1
 447 01b4 83F31188 		MSR basepri, r3
 448              	@ 0 "" 2
 449              	.LVL53:
 450              		.thumb
 451              		.syntax unified
 452              	.LBE80:
 453              	.LBE79:
ARM GAS  C:\Users\RAKIBU~1\AppData\Local\Temp\cctIxCPg.s 			page 9


 454              	.LBE78:
 455              	.LBE77:
 456              	.LBE76:
 457              		.loc 1 253 0
 458 01b8 2846     		mov	r0, r5
 459 01ba FFF7FEFF 		bl	chMtxUnlock
 460              	.LVL54:
 461              		.loc 1 254 0
 462 01be 38BD     		pop	{r3, r4, r5, pc}
 463              	.LVL55:
 464              	.L28:
 465              		.loc 1 238 0 discriminator 2
 466 01c0 0448     		ldr	r0, .L30+4
 467              	.LVL56:
 468 01c2 FFF7FEFF 		bl	chSysHalt
 469              	.LVL57:
 470 01c6 C6E7     		b	.L25
 471              	.L29:
 472              	.LBB82:
 473              	.LBB81:
 474              		.loc 4 374 0
 475 01c8 0348     		ldr	r0, .L30+8
 476 01ca FFF7FEFF 		bl	chSysHalt
 477              	.LVL58:
 478 01ce F0E7     		b	.L26
 479              	.L31:
 480              		.align	2
 481              	.L30:
 482 01d0 00000000 		.word	ch
 483 01d4 14000000 		.word	.LANCHOR0+20
 484 01d8 20000000 		.word	.LANCHOR0+32
 485              	.LBE81:
 486              	.LBE82:
 487              		.cfi_endproc
 488              	.LFE298:
 489              		.size	chPipeReset, .-chPipeReset
 490              		.align	1
 491 01dc AFF30080 		.p2align 4,,15
 492              		.global	chPipeWriteTimeout
 493              		.syntax unified
 494              		.thumb
 495              		.thumb_func
 496              		.fpu softvfp
 497              		.type	chPipeWriteTimeout, %function
 498              	chPipeWriteTimeout:
 499              	.LFB299:
 500              		.loc 1 279 0
 501              		.cfi_startproc
 502              		@ args = 8, pretend = 0, frame = 0
 503              		@ frame_needed = 0, uses_anonymous_args = 0
 504              	.LVL59:
 505 01e0 2DE9F843 		push	{r3, r4, r5, r6, r7, r8, r9, lr}
 506              		.cfi_def_cfa_offset 32
 507              		.cfi_offset 3, -32
 508              		.cfi_offset 4, -28
 509              		.cfi_offset 5, -24
 510              		.cfi_offset 6, -20
ARM GAS  C:\Users\RAKIBU~1\AppData\Local\Temp\cctIxCPg.s 			page 10


 511              		.cfi_offset 7, -16
 512              		.cfi_offset 8, -12
 513              		.cfi_offset 9, -8
 514              		.cfi_offset 14, -4
 515 01e4 0546     		mov	r5, r0
 516 01e6 0E46     		mov	r6, r1
 517              	.LVL60:
 518              		.loc 1 282 0
 519 01e8 1746     		mov	r7, r2
 520 01ea 22B1     		cbz	r2, .L43
 521              	.LVL61:
 522              	.L33:
 523              		.loc 1 285 0
 524 01ec 2B7D     		ldrb	r3, [r5, #20]	@ zero_extendqisi2
 525 01ee 33B1     		cbz	r3, .L44
 526              		.loc 1 286 0
 527 01f0 0020     		movs	r0, #0
 528              	.LVL62:
 529              	.L32:
 530              		.loc 1 319 0
 531 01f2 BDE8F883 		pop	{r3, r4, r5, r6, r7, r8, r9, pc}
 532              	.LVL63:
 533              	.L43:
 534              		.loc 1 282 0 discriminator 2
 535 01f6 2248     		ldr	r0, .L46
 536              	.LVL64:
 537 01f8 FFF7FEFF 		bl	chSysHalt
 538              	.LVL65:
 539 01fc F6E7     		b	.L33
 540              	.L44:
 541              		.loc 1 289 0
 542 01fe 05F13008 		add	r8, r5, #48
 543 0202 4046     		mov	r0, r8
 544 0204 FFF7FEFF 		bl	chMtxLock
 545              	.LVL66:
 546              		.loc 1 291 0
 547 0208 3C46     		mov	r4, r7
 548 020a 0AE0     		b	.L35
 549              	.LVL67:
 550              	.L45:
 551              	.LBB95:
 552              	.LBB96:
 553              	.LBB97:
 554              	.LBB98:
 555              		.loc 4 374 0
 556 020c 1D48     		ldr	r0, .L46+4
 557 020e FFF7FEFF 		bl	chSysHalt
 558              	.LVL68:
 559 0212 29E0     		b	.L37
 560              	.LVL69:
 561              	.L36:
 562              	.LBE98:
 563              	.LBE97:
 564              	.LBE96:
 565              		.loc 1 308 0
 566 0214 241A     		subs	r4, r4, r0
 567              	.LVL70:
ARM GAS  C:\Users\RAKIBU~1\AppData\Local\Temp\cctIxCPg.s 			page 11


 568              		.loc 1 309 0
 569 0216 0644     		add	r6, r6, r0
 570              	.LVL71:
 571              		.loc 1 312 0
 572 0218 0021     		movs	r1, #0
 573 021a 05F11C00 		add	r0, r5, #28
 574              	.LVL72:
 575 021e FFF7FEFF 		bl	chThdResume
 576              	.LVL73:
 577              	.L35:
 578              	.LBE95:
 579              		.loc 1 291 0
 580 0222 3CB3     		cbz	r4, .L38
 581              	.LBB110:
 582              		.loc 1 294 0
 583 0224 2246     		mov	r2, r4
 584 0226 3146     		mov	r1, r6
 585 0228 2846     		mov	r0, r5
 586 022a FFF7E9FE 		bl	pipe_write
 587              	.LVL74:
 588              		.loc 1 295 0
 589 022e 0028     		cmp	r0, #0
 590 0230 F0D1     		bne	.L36
 591              	.LVL75:
 592              	.LBB109:
 593              	.LBB103:
 594              	.LBB104:
 595              	.LBB105:
 596              	.LBB106:
 597              	.LBB107:
 598              		.loc 3 493 0
 599 0232 2023     		movs	r3, #32
 600              		.syntax unified
 601              	@ 493 "../../../ChibiOSRepo/chibios191/os/common/ext/ARM/CMSIS/Core/Include/cmsis_gcc.h" 1
 602 0234 83F31188 		MSR basepri, r3
 603              	@ 0 "" 2
 604              	.LVL76:
 605              		.thumb
 606              		.syntax unified
 607              	.LBE107:
 608              	.LBE106:
 609              	.LBE105:
 610              		.loc 4 356 0
 611 0238 FFF7FEFF 		bl	_stats_start_measure_crit_thd
 612              	.LVL77:
 613              		.loc 4 357 0
 614 023c FFF7FEFF 		bl	_dbg_check_lock
 615              	.LVL78:
 616              	.LBE104:
 617              	.LBE103:
 618              		.loc 1 299 0
 619 0240 DDE90823 		ldrd	r2, [sp, #32]
 620 0244 05F11800 		add	r0, r5, #24
 621 0248 FFF7FEFF 		bl	chThdSuspendTimeoutS
 622              	.LVL79:
 623 024c 8146     		mov	r9, r0
 624              	.LVL80:
ARM GAS  C:\Users\RAKIBU~1\AppData\Local\Temp\cctIxCPg.s 			page 12


 625              	.LBB108:
 626              	.LBB102:
 627              		.loc 4 367 0
 628 024e FFF7FEFF 		bl	_dbg_check_unlock
 629              	.LVL81:
 630              		.loc 4 368 0
 631 0252 FFF7FEFF 		bl	_stats_stop_measure_crit_thd
 632              	.LVL82:
 633              		.loc 4 374 0
 634 0256 0C4B     		ldr	r3, .L46+8
 635 0258 1A68     		ldr	r2, [r3]
 636 025a 9A42     		cmp	r2, r3
 637 025c 04D0     		beq	.L37
 638 025e 9B69     		ldr	r3, [r3, #24]
 639 0260 9968     		ldr	r1, [r3, #8]
 640 0262 9368     		ldr	r3, [r2, #8]
 641 0264 9942     		cmp	r1, r3
 642 0266 D1D3     		bcc	.L45
 643              	.L37:
 644              	.LVL83:
 645              	.LBB99:
 646              	.LBB100:
 647              	.LBB101:
 648              		.loc 3 493 0
 649 0268 0023     		movs	r3, #0
 650              		.syntax unified
 651              	@ 493 "../../../ChibiOSRepo/chibios191/os/common/ext/ARM/CMSIS/Core/Include/cmsis_gcc.h" 1
 652 026a 83F31188 		MSR basepri, r3
 653              	@ 0 "" 2
 654              	.LVL84:
 655              		.thumb
 656              		.syntax unified
 657              	.LBE101:
 658              	.LBE100:
 659              	.LBE99:
 660              	.LBE102:
 661              	.LBE108:
 662              		.loc 1 303 0
 663 026e B9F1000F 		cmp	r9, #0
 664 0272 D6D0     		beq	.L35
 665              	.LVL85:
 666              	.L38:
 667              	.LBE109:
 668              	.LBE110:
 669              		.loc 1 316 0
 670 0274 4046     		mov	r0, r8
 671 0276 FFF7FEFF 		bl	chMtxUnlock
 672              	.LVL86:
 673              		.loc 1 318 0
 674 027a 381B     		subs	r0, r7, r4
 675 027c B9E7     		b	.L32
 676              	.L47:
 677 027e 00BF     		.align	2
 678              	.L46:
 679 0280 2C000000 		.word	.LANCHOR0+44
 680 0284 20000000 		.word	.LANCHOR0+32
 681 0288 00000000 		.word	ch
ARM GAS  C:\Users\RAKIBU~1\AppData\Local\Temp\cctIxCPg.s 			page 13


 682              		.cfi_endproc
 683              	.LFE299:
 684              		.size	chPipeWriteTimeout, .-chPipeWriteTimeout
 685              		.align	1
 686 028c AFF30080 		.p2align 4,,15
 687              		.global	chPipeReadTimeout
 688              		.syntax unified
 689              		.thumb
 690              		.thumb_func
 691              		.fpu softvfp
 692              		.type	chPipeReadTimeout, %function
 693              	chPipeReadTimeout:
 694              	.LFB300:
 695              		.loc 1 344 0
 696              		.cfi_startproc
 697              		@ args = 8, pretend = 0, frame = 0
 698              		@ frame_needed = 0, uses_anonymous_args = 0
 699              	.LVL87:
 700 0290 2DE9F843 		push	{r3, r4, r5, r6, r7, r8, r9, lr}
 701              		.cfi_def_cfa_offset 32
 702              		.cfi_offset 3, -32
 703              		.cfi_offset 4, -28
 704              		.cfi_offset 5, -24
 705              		.cfi_offset 6, -20
 706              		.cfi_offset 7, -16
 707              		.cfi_offset 8, -12
 708              		.cfi_offset 9, -8
 709              		.cfi_offset 14, -4
 710 0294 0546     		mov	r5, r0
 711 0296 0E46     		mov	r6, r1
 712              	.LVL88:
 713              		.loc 1 347 0
 714 0298 1746     		mov	r7, r2
 715 029a 22B1     		cbz	r2, .L59
 716              	.LVL89:
 717              	.L49:
 718              		.loc 1 350 0
 719 029c 2B7D     		ldrb	r3, [r5, #20]	@ zero_extendqisi2
 720 029e 33B1     		cbz	r3, .L60
 721              		.loc 1 351 0
 722 02a0 0020     		movs	r0, #0
 723              	.LVL90:
 724              	.L48:
 725              		.loc 1 384 0
 726 02a2 BDE8F883 		pop	{r3, r4, r5, r6, r7, r8, r9, pc}
 727              	.LVL91:
 728              	.L59:
 729              		.loc 1 347 0 discriminator 2
 730 02a6 2248     		ldr	r0, .L62
 731              	.LVL92:
 732 02a8 FFF7FEFF 		bl	chSysHalt
 733              	.LVL93:
 734 02ac F6E7     		b	.L49
 735              	.L60:
 736              		.loc 1 354 0
 737 02ae 05F14008 		add	r8, r5, #64
 738 02b2 4046     		mov	r0, r8
ARM GAS  C:\Users\RAKIBU~1\AppData\Local\Temp\cctIxCPg.s 			page 14


 739 02b4 FFF7FEFF 		bl	chMtxLock
 740              	.LVL94:
 741              		.loc 1 356 0
 742 02b8 3C46     		mov	r4, r7
 743 02ba 0AE0     		b	.L51
 744              	.LVL95:
 745              	.L61:
 746              	.LBB123:
 747              	.LBB124:
 748              	.LBB125:
 749              	.LBB126:
 750              		.loc 4 374 0
 751 02bc 1D48     		ldr	r0, .L62+4
 752 02be FFF7FEFF 		bl	chSysHalt
 753              	.LVL96:
 754 02c2 29E0     		b	.L53
 755              	.LVL97:
 756              	.L52:
 757              	.LBE126:
 758              	.LBE125:
 759              	.LBE124:
 760              		.loc 1 373 0
 761 02c4 241A     		subs	r4, r4, r0
 762              	.LVL98:
 763              		.loc 1 374 0
 764 02c6 0644     		add	r6, r6, r0
 765              	.LVL99:
 766              		.loc 1 377 0
 767 02c8 0021     		movs	r1, #0
 768 02ca 05F11800 		add	r0, r5, #24
 769              	.LVL100:
 770 02ce FFF7FEFF 		bl	chThdResume
 771              	.LVL101:
 772              	.L51:
 773              	.LBE123:
 774              		.loc 1 356 0
 775 02d2 3CB3     		cbz	r4, .L54
 776              	.LBB138:
 777              		.loc 1 359 0
 778 02d4 2246     		mov	r2, r4
 779 02d6 3146     		mov	r1, r6
 780 02d8 2846     		mov	r0, r5
 781 02da FFF7D1FE 		bl	pipe_read
 782              	.LVL102:
 783              		.loc 1 360 0
 784 02de 0028     		cmp	r0, #0
 785 02e0 F0D1     		bne	.L52
 786              	.LVL103:
 787              	.LBB137:
 788              	.LBB131:
 789              	.LBB132:
 790              	.LBB133:
 791              	.LBB134:
 792              	.LBB135:
 793              		.loc 3 493 0
 794 02e2 2023     		movs	r3, #32
 795              		.syntax unified
ARM GAS  C:\Users\RAKIBU~1\AppData\Local\Temp\cctIxCPg.s 			page 15


 796              	@ 493 "../../../ChibiOSRepo/chibios191/os/common/ext/ARM/CMSIS/Core/Include/cmsis_gcc.h" 1
 797 02e4 83F31188 		MSR basepri, r3
 798              	@ 0 "" 2
 799              	.LVL104:
 800              		.thumb
 801              		.syntax unified
 802              	.LBE135:
 803              	.LBE134:
 804              	.LBE133:
 805              		.loc 4 356 0
 806 02e8 FFF7FEFF 		bl	_stats_start_measure_crit_thd
 807              	.LVL105:
 808              		.loc 4 357 0
 809 02ec FFF7FEFF 		bl	_dbg_check_lock
 810              	.LVL106:
 811              	.LBE132:
 812              	.LBE131:
 813              		.loc 1 364 0
 814 02f0 DDE90823 		ldrd	r2, [sp, #32]
 815 02f4 05F11C00 		add	r0, r5, #28
 816 02f8 FFF7FEFF 		bl	chThdSuspendTimeoutS
 817              	.LVL107:
 818 02fc 8146     		mov	r9, r0
 819              	.LVL108:
 820              	.LBB136:
 821              	.LBB130:
 822              		.loc 4 367 0
 823 02fe FFF7FEFF 		bl	_dbg_check_unlock
 824              	.LVL109:
 825              		.loc 4 368 0
 826 0302 FFF7FEFF 		bl	_stats_stop_measure_crit_thd
 827              	.LVL110:
 828              		.loc 4 374 0
 829 0306 0C4B     		ldr	r3, .L62+8
 830 0308 1A68     		ldr	r2, [r3]
 831 030a 9A42     		cmp	r2, r3
 832 030c 04D0     		beq	.L53
 833 030e 9B69     		ldr	r3, [r3, #24]
 834 0310 9968     		ldr	r1, [r3, #8]
 835 0312 9368     		ldr	r3, [r2, #8]
 836 0314 9942     		cmp	r1, r3
 837 0316 D1D3     		bcc	.L61
 838              	.L53:
 839              	.LVL111:
 840              	.LBB127:
 841              	.LBB128:
 842              	.LBB129:
 843              		.loc 3 493 0
 844 0318 0023     		movs	r3, #0
 845              		.syntax unified
 846              	@ 493 "../../../ChibiOSRepo/chibios191/os/common/ext/ARM/CMSIS/Core/Include/cmsis_gcc.h" 1
 847 031a 83F31188 		MSR basepri, r3
 848              	@ 0 "" 2
 849              	.LVL112:
 850              		.thumb
 851              		.syntax unified
 852              	.LBE129:
ARM GAS  C:\Users\RAKIBU~1\AppData\Local\Temp\cctIxCPg.s 			page 16


 853              	.LBE128:
 854              	.LBE127:
 855              	.LBE130:
 856              	.LBE136:
 857              		.loc 1 368 0
 858 031e B9F1000F 		cmp	r9, #0
 859 0322 D6D0     		beq	.L51
 860              	.LVL113:
 861              	.L54:
 862              	.LBE137:
 863              	.LBE138:
 864              		.loc 1 381 0
 865 0324 4046     		mov	r0, r8
 866 0326 FFF7FEFF 		bl	chMtxUnlock
 867              	.LVL114:
 868              		.loc 1 383 0
 869 032a 381B     		subs	r0, r7, r4
 870 032c B9E7     		b	.L48
 871              	.L63:
 872 032e 00BF     		.align	2
 873              	.L62:
 874 0330 40000000 		.word	.LANCHOR0+64
 875 0334 20000000 		.word	.LANCHOR0+32
 876 0338 00000000 		.word	ch
 877              		.cfi_endproc
 878              	.LFE300:
 879              		.size	chPipeReadTimeout, .-chPipeReadTimeout
 880              		.section	.rodata
 881              		.align	2
 882              		.set	.LANCHOR0,. + 0
 883              		.type	__func__.7523, %object
 884              		.size	__func__.7523, 17
 885              	__func__.7523:
 886 0000 63685069 		.ascii	"chPipeObjectInit\000"
 886      70654F62 
 886      6A656374 
 886      496E6974 
 886      00
 887 0011 000000   		.space	3
 888              		.type	__func__.7527, %object
 889              		.size	__func__.7527, 12
 890              	__func__.7527:
 891 0014 63685069 		.ascii	"chPipeReset\000"
 891      70655265 
 891      73657400 
 892              		.type	__func__.6519, %object
 893              		.size	__func__.6519, 12
 894              	__func__.6519:
 895 0020 63685379 		.ascii	"chSysUnlock\000"
 895      73556E6C 
 895      6F636B00 
 896              		.type	__func__.7535, %object
 897              		.size	__func__.7535, 19
 898              	__func__.7535:
 899 002c 63685069 		.ascii	"chPipeWriteTimeout\000"
 899      70655772 
 899      69746554 
ARM GAS  C:\Users\RAKIBU~1\AppData\Local\Temp\cctIxCPg.s 			page 17


 899      696D656F 
 899      757400
 900 003f 00       		.space	1
 901              		.type	__func__.7548, %object
 902              		.size	__func__.7548, 18
 903              	__func__.7548:
 904 0040 63685069 		.ascii	"chPipeReadTimeout\000"
 904      70655265 
 904      61645469 
 904      6D656F75 
 904      7400
 905              		.text
 906              	.Letext0:
 907              		.file 5 "c:\\chibistudio\\tools\\gnu tools arm embedded\\7.0 2017q4\\lib\\gcc\\arm-none-eabi\\7.2.
 908              		.file 6 "c:\\chibistudio\\tools\\gnu tools arm embedded\\7.0 2017q4\\arm-none-eabi\\include\\machi
 909              		.file 7 "c:\\chibistudio\\tools\\gnu tools arm embedded\\7.0 2017q4\\arm-none-eabi\\include\\sys\\
 910              		.file 8 "c:\\chibistudio\\tools\\gnu tools arm embedded\\7.0 2017q4\\arm-none-eabi\\include\\sys\\
 911              		.file 9 "c:\\chibistudio\\tools\\gnu tools arm embedded\\7.0 2017q4\\arm-none-eabi\\include\\sys\\
 912              		.file 10 "c:\\chibistudio\\tools\\gnu tools arm embedded\\7.0 2017q4\\arm-none-eabi\\include\\sys\
 913              		.file 11 "../../../ChibiOSRepo/chibios191/os/common/ports/ARMCMx/compilers/GCC/chtypes.h"
 914              		.file 12 "../../../ChibiOSRepo/chibios191/os/rt/include/chsystypes.h"
 915              		.file 13 "../../../ChibiOSRepo/chibios191/os/rt/include/chschd.h"
 916              		.file 14 "../../../ChibiOSRepo/chibios191/os/rt/include/chtime.h"
 917              		.file 15 "../../../ChibiOSRepo/chibios191/os/common/ext/ARM/CMSIS/Core/Include/core_cm4.h"
 918              		.file 16 "../../../ChibiOSRepo/chibios191/os/common/ext/ST/STM32F4xx/system_stm32f4xx.h"
 919              		.file 17 "../../../ChibiOSRepo/chibios191/os/common/ports/ARMCMx/chcore.h"
 920              		.file 18 "../../../ChibiOSRepo/chibios191/os/common/ports/ARMCMx/chcore_v7m.h"
 921              		.file 19 "../../../ChibiOSRepo/chibios191/os/rt/include/chtrace.h"
 922              		.file 20 "../../../ChibiOSRepo/chibios191/os/rt/include/chtm.h"
 923              		.file 21 "../../../ChibiOSRepo/chibios191/os/rt/include/chstats.h"
 924              		.file 22 "../../../ChibiOSRepo/chibios191/os/rt/include/chsem.h"
 925              		.file 23 "../../../ChibiOSRepo/chibios191/os/rt/include/chmtx.h"
 926              		.file 24 "../../../ChibiOSRepo/chibios191/os/rt/include/chregistry.h"
 927              		.file 25 "../../../ChibiOSRepo/chibios191/os/oslib/include/chmemcore.h"
 928              		.file 26 "../../../ChibiOSRepo/chibios191/os/oslib/include/chmempools.h"
 929              		.file 27 "../../../ChibiOSRepo/chibios191/os/oslib/include/chfactory.h"
 930              		.file 28 "../../../ChibiOSRepo/chibios191/os/rt/include/ch.h"
 931              		.file 29 "../../../ChibiOSRepo/chibios191/os/rt/include/chdebug.h"
 932              		.file 30 "../../../ChibiOSRepo/chibios191/os/rt/include/chthreads.h"
 933              		.file 31 "<built-in>"