ARM GAS  C:\Users\RAKIBU~1\AppData\Local\Temp\ccsdkKfd.s 			page 1


   1              		.cpu cortex-m4
   2              		.eabi_attribute 20, 1
   3              		.eabi_attribute 21, 1
   4              		.eabi_attribute 23, 3
   5              		.eabi_attribute 24, 1
   6              		.eabi_attribute 25, 1
   7              		.eabi_attribute 26, 1
   8              		.eabi_attribute 30, 1
   9              		.eabi_attribute 34, 1
  10              		.eabi_attribute 18, 4
  11              		.file	"chprintf.c"
  12              		.text
  13              	.Ltext0:
  14              		.cfi_sections	.debug_frame
  15              		.align	1
  16              		.p2align 4,,15
  17              		.syntax unified
  18              		.thumb
  19              		.thumb_func
  20              		.fpu softvfp
  21              		.type	long_to_string_with_divisor, %function
  22              	long_to_string_with_divisor:
  23              	.LFB328:
  24              		.file 1 "../../../ChibiOSRepo/chibios191/os/hal/lib/streams/chprintf.c"
  25              		.loc 1 43 0
  26              		.cfi_startproc
  27              		@ args = 0, pretend = 0, frame = 0
  28              		@ frame_needed = 0, uses_anonymous_args = 0
  29              		@ link register save eliminated.
  30              	.LVL0:
  31 0000 F0B4     		push	{r4, r5, r6, r7}
  32              		.cfi_def_cfa_offset 16
  33              		.cfi_offset 4, -16
  34              		.cfi_offset 5, -12
  35              		.cfi_offset 6, -8
  36              		.cfi_offset 7, -4
  37              	.LVL1:
  38              		.loc 1 49 0
  39 0002 1E46     		mov	r6, r3
  40 0004 03B9     		cbnz	r3, .L2
  41              		.loc 1 50 0
  42 0006 0E46     		mov	r6, r1
  43              	.L2:
  44              	.LVL2:
  45              		.loc 1 55 0
  46 0008 00F10B05 		add	r5, r0, #11
  47              	.LVL3:
  48 000c 2B46     		mov	r3, r5
  49              	.LVL4:
  50 000e 06E0     		b	.L4
  51              	.LVL5:
  52              	.L3:
  53              		.loc 1 61 0
  54 0010 03F8014D 		strb	r4, [r3, #-1]!
  55              	.LVL6:
  56              		.loc 1 62 0
  57 0014 B7FBF2F1 		udiv	r1, r7, r2
ARM GAS  C:\Users\RAKIBU~1\AppData\Local\Temp\ccsdkKfd.s 			page 2


  58              	.LVL7:
  59              		.loc 1 63 0
  60 0018 B6FBF2F6 		udiv	r6, r6, r2
  61              	.LVL8:
  62 001c 5EB1     		cbz	r6, .L7
  63              	.LVL9:
  64              	.L4:
  65              		.loc 1 57 0
  66 001e 0F46     		mov	r7, r1
  67 0020 B1FBF2F4 		udiv	r4, r1, r2
  68 0024 02FB1411 		mls	r1, r2, r4, r1
  69              	.LVL10:
  70              		.loc 1 58 0
  71 0028 01F13004 		add	r4, r1, #48
  72              	.LVL11:
  73              		.loc 1 59 0
  74 002c 392C     		cmp	r4, #57
  75 002e EFDD     		ble	.L3
  76              		.loc 1 60 0
  77 0030 01F13704 		add	r4, r1, #55
  78              	.LVL12:
  79 0034 ECE7     		b	.L3
  80              	.LVL13:
  81              	.L7:
  82              		.loc 1 65 0
  83 0036 EA1A     		subs	r2, r5, r3
  84              	.LVL14:
  85              	.L5:
  86              		.loc 1 67 0 discriminator 1
  87 0038 411C     		adds	r1, r0, #1
  88              	.LVL15:
  89 003a 1C78     		ldrb	r4, [r3]	@ zero_extendqisi2
  90 003c 0470     		strb	r4, [r0]
  91              	.LVL16:
  92 003e 0846     		mov	r0, r1
  93 0040 0133     		adds	r3, r3, #1
  94              	.LVL17:
  95              		.loc 1 68 0 discriminator 1
  96 0042 013A     		subs	r2, r2, #1
  97              	.LVL18:
  98 0044 F8D1     		bne	.L5
  99              		.loc 1 71 0
 100 0046 F0BC     		pop	{r4, r5, r6, r7}
 101              		.cfi_restore 7
 102              		.cfi_restore 6
 103              		.cfi_restore 5
 104              		.cfi_restore 4
 105              		.cfi_def_cfa_offset 0
 106              	.LVL19:
 107 0048 7047     		bx	lr
 108              		.cfi_endproc
 109              	.LFE328:
 110              		.size	long_to_string_with_divisor, .-long_to_string_with_divisor
 111              		.align	1
 112 004a 00BFAFF3 		.p2align 4,,15
 112      0080
 113              		.syntax unified
ARM GAS  C:\Users\RAKIBU~1\AppData\Local\Temp\ccsdkKfd.s 			page 3


 114              		.thumb
 115              		.thumb_func
 116              		.fpu softvfp
 117              		.type	ch_ltoa, %function
 118              	ch_ltoa:
 119              	.LFB329:
 120              		.loc 1 73 0
 121              		.cfi_startproc
 122              		@ args = 0, pretend = 0, frame = 0
 123              		@ frame_needed = 0, uses_anonymous_args = 0
 124              	.LVL20:
 125 0050 08B5     		push	{r3, lr}
 126              		.cfi_def_cfa_offset 8
 127              		.cfi_offset 3, -8
 128              		.cfi_offset 14, -4
 129              		.loc 1 75 0
 130 0052 0023     		movs	r3, #0
 131 0054 FFF7D4FF 		bl	long_to_string_with_divisor
 132              	.LVL21:
 133              		.loc 1 76 0
 134 0058 08BD     		pop	{r3, pc}
 135              		.cfi_endproc
 136              	.LFE329:
 137              		.size	ch_ltoa, .-ch_ltoa
 138              		.align	1
 139 005a 00BFAFF3 		.p2align 4,,15
 139      0080
 140              		.global	chvprintf
 141              		.syntax unified
 142              		.thumb
 143              		.thumb_func
 144              		.fpu softvfp
 145              		.type	chvprintf, %function
 146              	chvprintf:
 147              	.LFB330:
 148              		.loc 1 124 0
 149              		.cfi_startproc
 150              		@ args = 0, pretend = 0, frame = 24
 151              		@ frame_needed = 0, uses_anonymous_args = 0
 152              	.LVL22:
 153 0060 2DE9F04F 		push	{r4, r5, r6, r7, r8, r9, r10, fp, lr}
 154              		.cfi_def_cfa_offset 36
 155              		.cfi_offset 4, -36
 156              		.cfi_offset 5, -32
 157              		.cfi_offset 6, -28
 158              		.cfi_offset 7, -24
 159              		.cfi_offset 8, -20
 160              		.cfi_offset 9, -16
 161              		.cfi_offset 10, -12
 162              		.cfi_offset 11, -8
 163              		.cfi_offset 14, -4
 164 0064 87B0     		sub	sp, sp, #28
 165              		.cfi_def_cfa_offset 64
 166 0066 0746     		mov	r7, r0
 167 0068 0D46     		mov	r5, r1
 168 006a 0192     		str	r2, [sp, #4]
 169              	.LVL23:
ARM GAS  C:\Users\RAKIBU~1\AppData\Local\Temp\ccsdkKfd.s 			page 4


 170              		.loc 1 127 0
 171 006c 0026     		movs	r6, #0
 172              	.LVL24:
 173              	.L11:
 174              		.loc 1 138 0
 175 006e 05F1010A 		add	r10, r5, #1
 176              	.LVL25:
 177 0072 2978     		ldrb	r1, [r5]	@ zero_extendqisi2
 178              	.LVL26:
 179              		.loc 1 139 0
 180 0074 0029     		cmp	r1, #0
 181 0076 00F02381 		beq	.L65
 182              		.loc 1 141 0
 183 007a 2529     		cmp	r1, #37
 184 007c 06D0     		beq	.L13
 185              		.loc 1 142 0
 186 007e 3B68     		ldr	r3, [r7]
 187 0080 DB68     		ldr	r3, [r3, #12]
 188 0082 3846     		mov	r0, r7
 189 0084 9847     		blx	r3
 190              	.LVL27:
 191              		.loc 1 143 0
 192 0086 0136     		adds	r6, r6, #1
 193              	.LVL28:
 194              		.loc 1 138 0
 195 0088 5546     		mov	r5, r10
 196              		.loc 1 144 0
 197 008a F0E7     		b	.L11
 198              	.LVL29:
 199              	.L13:
 200              		.loc 1 149 0
 201 008c 6B78     		ldrb	r3, [r5, #1]	@ zero_extendqisi2
 202 008e 2D2B     		cmp	r3, #45
 203 0090 09D0     		beq	.L67
 204              		.loc 1 148 0
 205 0092 4FF00009 		mov	r9, #0
 206              	.LVL30:
 207              	.L15:
 208              		.loc 1 154 0
 209 0096 9AF80030 		ldrb	r3, [r10]	@ zero_extendqisi2
 210 009a 302B     		cmp	r3, #48
 211 009c 08D0     		beq	.L68
 212              		.loc 1 153 0
 213 009e 4FF02008 		mov	r8, #32
 214              	.LVL31:
 215              	.L16:
 216              		.loc 1 158 0
 217 00a2 0024     		movs	r4, #0
 218 00a4 0EE0     		b	.L19
 219              	.LVL32:
 220              	.L67:
 221              		.loc 1 150 0
 222 00a6 05F1020A 		add	r10, r5, #2
 223              	.LVL33:
 224              		.loc 1 151 0
 225 00aa 4FF00109 		mov	r9, #1
 226 00ae F2E7     		b	.L15
ARM GAS  C:\Users\RAKIBU~1\AppData\Local\Temp\ccsdkKfd.s 			page 5


 227              	.LVL34:
 228              	.L68:
 229              		.loc 1 155 0
 230 00b0 0AF1010A 		add	r10, r10, #1
 231              	.LVL35:
 232              		.loc 1 156 0
 233 00b4 4FF03008 		mov	r8, #48
 234 00b8 F3E7     		b	.L16
 235              	.LVL36:
 236              	.L17:
 237              		.loc 1 167 0
 238 00ba 04EB8404 		add	r4, r4, r4, lsl #2
 239              	.LVL37:
 240 00be 6200     		lsls	r2, r4, #1
 241 00c0 D418     		adds	r4, r2, r3
 242              	.LVL38:
 243              		.loc 1 160 0
 244 00c2 AA46     		mov	r10, r5
 245              	.LVL39:
 246              	.L19:
 247 00c4 0AF10105 		add	r5, r10, #1
 248              	.LVL40:
 249 00c8 9AF80020 		ldrb	r2, [r10]	@ zero_extendqisi2
 250              	.LVL41:
 251              		.loc 1 161 0
 252 00cc A2F13003 		sub	r3, r2, #48
 253 00d0 DBB2     		uxtb	r3, r3
 254 00d2 092B     		cmp	r3, #9
 255 00d4 F1D9     		bls	.L17
 256              		.loc 1 163 0
 257 00d6 2A2A     		cmp	r2, #42
 258 00d8 04D1     		bne	.L18
 259              		.loc 1 164 0
 260 00da 019B     		ldr	r3, [sp, #4]
 261 00dc 1A1D     		adds	r2, r3, #4
 262              	.LVL42:
 263 00de 0192     		str	r2, [sp, #4]
 264              	.LVL43:
 265 00e0 1B78     		ldrb	r3, [r3]	@ zero_extendqisi2
 266              	.LVL44:
 267 00e2 EAE7     		b	.L17
 268              	.LVL45:
 269              	.L18:
 270              		.loc 1 170 0
 271 00e4 2E2A     		cmp	r2, #46
 272 00e6 2DD0     		beq	.L69
 273              		.loc 1 169 0
 274 00e8 0023     		movs	r3, #0
 275              	.LVL46:
 276              	.L20:
 277              		.loc 1 184 0
 278 00ea 6C2A     		cmp	r2, #108
 279 00ec 41D0     		beq	.L23
 280              		.loc 1 184 0 is_stmt 0 discriminator 1
 281 00ee 4C2A     		cmp	r2, #76
 282 00f0 3FD0     		beq	.L23
 283              		.loc 1 190 0 is_stmt 1
ARM GAS  C:\Users\RAKIBU~1\AppData\Local\Temp\ccsdkKfd.s 			page 6


 284 00f2 A2F14101 		sub	r1, r2, #65
 285 00f6 C9B2     		uxtb	r1, r1
 286 00f8 1929     		cmp	r1, #25
 287 00fa 8CBF     		ite	hi
 288 00fc 0021     		movhi	r1, #0
 289 00fe 0121     		movls	r1, #1
 290              	.LVL47:
 291              	.L25:
 292              		.loc 1 193 0
 293 0100 A2F14400 		sub	r0, r2, #68
 294 0104 3428     		cmp	r0, #52
 295 0106 00F2AA80 		bhi	.L26
 296 010a DFE800F0 		tbb	[pc, r0]
 297              	.L28:
 298 010e 63       		.byte	(.L27-.L28)/2
 299 010f A8       		.byte	(.L26-.L28)/2
 300 0110 A8       		.byte	(.L26-.L28)/2
 301 0111 A8       		.byte	(.L26-.L28)/2
 302 0112 A8       		.byte	(.L26-.L28)/2
 303 0113 63       		.byte	(.L27-.L28)/2
 304 0114 A8       		.byte	(.L26-.L28)/2
 305 0115 A8       		.byte	(.L26-.L28)/2
 306 0116 A8       		.byte	(.L26-.L28)/2
 307 0117 A8       		.byte	(.L26-.L28)/2
 308 0118 A8       		.byte	(.L26-.L28)/2
 309 0119 7D       		.byte	(.L29-.L28)/2
 310 011a A8       		.byte	(.L26-.L28)/2
 311 011b A8       		.byte	(.L26-.L28)/2
 312 011c A8       		.byte	(.L26-.L28)/2
 313 011d A8       		.byte	(.L26-.L28)/2
 314 011e A8       		.byte	(.L26-.L28)/2
 315 011f 7F       		.byte	(.L59-.L28)/2
 316 0120 A8       		.byte	(.L26-.L28)/2
 317 0121 A8       		.byte	(.L26-.L28)/2
 318 0122 3A       		.byte	(.L31-.L28)/2
 319 0123 A8       		.byte	(.L26-.L28)/2
 320 0124 A8       		.byte	(.L26-.L28)/2
 321 0125 A8       		.byte	(.L26-.L28)/2
 322 0126 A8       		.byte	(.L26-.L28)/2
 323 0127 A8       		.byte	(.L26-.L28)/2
 324 0128 A8       		.byte	(.L26-.L28)/2
 325 0129 A8       		.byte	(.L26-.L28)/2
 326 012a A8       		.byte	(.L26-.L28)/2
 327 012b A8       		.byte	(.L26-.L28)/2
 328 012c A8       		.byte	(.L26-.L28)/2
 329 012d 3C       		.byte	(.L32-.L28)/2
 330 012e 63       		.byte	(.L27-.L28)/2
 331 012f A8       		.byte	(.L26-.L28)/2
 332 0130 A8       		.byte	(.L26-.L28)/2
 333 0131 A8       		.byte	(.L26-.L28)/2
 334 0132 A8       		.byte	(.L26-.L28)/2
 335 0133 63       		.byte	(.L27-.L28)/2
 336 0134 A8       		.byte	(.L26-.L28)/2
 337 0135 A8       		.byte	(.L26-.L28)/2
 338 0136 A8       		.byte	(.L26-.L28)/2
 339 0137 A8       		.byte	(.L26-.L28)/2
 340 0138 A8       		.byte	(.L26-.L28)/2
ARM GAS  C:\Users\RAKIBU~1\AppData\Local\Temp\ccsdkKfd.s 			page 7


 341 0139 7D       		.byte	(.L29-.L28)/2
 342 013a A8       		.byte	(.L26-.L28)/2
 343 013b A8       		.byte	(.L26-.L28)/2
 344 013c A8       		.byte	(.L26-.L28)/2
 345 013d 49       		.byte	(.L33-.L28)/2
 346 013e A8       		.byte	(.L26-.L28)/2
 347 013f 7F       		.byte	(.L59-.L28)/2
 348 0140 A8       		.byte	(.L26-.L28)/2
 349 0141 A8       		.byte	(.L26-.L28)/2
 350 0142 3A       		.byte	(.L31-.L28)/2
 351              	.LVL48:
 352 0143 00       		.p2align 1
 353              	.L69:
 354              		.loc 1 169 0
 355 0144 0023     		movs	r3, #0
 356 0146 04E0     		b	.L22
 357              	.LVL49:
 358              	.L21:
 359              		.loc 1 179 0
 360 0148 03EB8303 		add	r3, r3, r3, lsl #2
 361              	.LVL50:
 362 014c 5A00     		lsls	r2, r3, #1
 363              	.LVL51:
 364              		.loc 1 180 0
 365 014e 8B18     		adds	r3, r1, r2
 366              	.LVL52:
 367              		.loc 1 172 0
 368 0150 0546     		mov	r5, r0
 369              	.LVL53:
 370              	.L22:
 371 0152 681C     		adds	r0, r5, #1
 372              	.LVL54:
 373 0154 2A78     		ldrb	r2, [r5]	@ zero_extendqisi2
 374              	.LVL55:
 375              		.loc 1 173 0
 376 0156 A2F13001 		sub	r1, r2, #48
 377 015a C9B2     		uxtb	r1, r1
 378 015c 0929     		cmp	r1, #9
 379 015e F3D9     		bls	.L21
 380              		.loc 1 175 0
 381 0160 2A2A     		cmp	r2, #42
 382 0162 04D1     		bne	.L57
 383              		.loc 1 176 0
 384 0164 019A     		ldr	r2, [sp, #4]
 385              	.LVL56:
 386 0166 111D     		adds	r1, r2, #4
 387 0168 0191     		str	r1, [sp, #4]
 388              	.LVL57:
 389 016a 1178     		ldrb	r1, [r2]	@ zero_extendqisi2
 390              	.LVL58:
 391 016c ECE7     		b	.L21
 392              	.LVL59:
 393              	.L57:
 394              		.loc 1 172 0
 395 016e 0546     		mov	r5, r0
 396 0170 BBE7     		b	.L20
 397              	.LVL60:
ARM GAS  C:\Users\RAKIBU~1\AppData\Local\Temp\ccsdkKfd.s 			page 8


 398              	.L23:
 399              		.loc 1 186 0
 400 0172 2978     		ldrb	r1, [r5]	@ zero_extendqisi2
 401 0174 19B1     		cbz	r1, .L58
 402              		.loc 1 187 0
 403 0176 0135     		adds	r5, r5, #1
 404              	.LVL61:
 405 0178 0A46     		mov	r2, r1
 406              		.loc 1 185 0
 407 017a 0121     		movs	r1, #1
 408              	.LVL62:
 409 017c C0E7     		b	.L25
 410              	.L58:
 411 017e 0121     		movs	r1, #1
 412 0180 BEE7     		b	.L25
 413              	.LVL63:
 414              	.L31:
 415              		.loc 1 233 0
 416 0182 1022     		movs	r2, #16
 417              	.LVL64:
 418 0184 43E0     		b	.L30
 419              	.LVL65:
 420              	.L32:
 421              		.loc 1 196 0
 422 0186 019B     		ldr	r3, [sp, #4]
 423              	.LVL66:
 424 0188 1A1D     		adds	r2, r3, #4
 425              	.LVL67:
 426 018a 0192     		str	r2, [sp, #4]
 427 018c 1B68     		ldr	r3, [r3]
 428              	.LVL68:
 429 018e 0DF1180A 		add	r10, sp, #24
 430 0192 0AF80C3D 		strb	r3, [r10, #-12]!
 431              		.loc 1 195 0
 432 0196 4FF02008 		mov	r8, #32
 433              		.loc 1 196 0
 434 019a 0DF10D00 		add	r0, sp, #13
 435              	.LVL69:
 436              		.loc 1 197 0
 437 019e 40E0     		b	.L34
 438              	.LVL70:
 439              	.L33:
 440              		.loc 1 200 0
 441 01a0 019A     		ldr	r2, [sp, #4]
 442              	.LVL71:
 443 01a2 111D     		adds	r1, r2, #4
 444              	.LVL72:
 445 01a4 0191     		str	r1, [sp, #4]
 446 01a6 D2F800A0 		ldr	r10, [r2]
 447              	.LVL73:
 448 01aa BAF1000F 		cmp	r10, #0
 449 01ae 02D0     		beq	.L70
 450              	.L35:
 451              	.LVL74:
 452              		.loc 1 202 0
 453 01b0 6BB1     		cbz	r3, .L61
 454              	.LVL75:
ARM GAS  C:\Users\RAKIBU~1\AppData\Local\Temp\ccsdkKfd.s 			page 9


 455              	.L36:
 456              		.loc 1 203 0 discriminator 1
 457 01b2 5046     		mov	r0, r10
 458 01b4 03E0     		b	.L38
 459              	.LVL76:
 460              	.L70:
 461              		.loc 1 201 0
 462 01b6 DFF810A1 		ldr	r10, .L75
 463 01ba F9E7     		b	.L35
 464              	.LVL77:
 465              	.L39:
 466              		.loc 1 204 0 discriminator 4
 467 01bc 0130     		adds	r0, r0, #1
 468              	.LVL78:
 469              	.L38:
 470              		.loc 1 204 0 is_stmt 0 discriminator 1
 471 01be 0278     		ldrb	r2, [r0]	@ zero_extendqisi2
 472 01c0 002A     		cmp	r2, #0
 473 01c2 53D0     		beq	.L62
 474              	.LVL79:
 475              		.loc 1 204 0 discriminator 3
 476 01c4 013B     		subs	r3, r3, #1
 477              	.LVL80:
 478 01c6 F9D5     		bpl	.L39
 479              		.loc 1 199 0 is_stmt 1
 480 01c8 4FF02008 		mov	r8, #32
 481 01cc 29E0     		b	.L34
 482              	.LVL81:
 483              	.L61:
 484              		.loc 1 203 0
 485 01ce 47F6FF73 		movw	r3, #32767
 486              	.LVL82:
 487 01d2 EEE7     		b	.L36
 488              	.LVL83:
 489              	.L27:
 490              		.loc 1 211 0
 491 01d4 61B1     		cbz	r1, .L40
 492              		.loc 1 212 0
 493 01d6 019B     		ldr	r3, [sp, #4]
 494              	.LVL84:
 495 01d8 1A1D     		adds	r2, r3, #4
 496              	.LVL85:
 497 01da 0192     		str	r2, [sp, #4]
 498 01dc 1968     		ldr	r1, [r3]
 499              	.LVL86:
 500              	.L41:
 501              		.loc 1 215 0
 502 01de 0029     		cmp	r1, #0
 503 01e0 0BDB     		blt	.L71
 504              		.loc 1 146 0
 505 01e2 03A8     		add	r0, sp, #12
 506              	.LVL87:
 507              	.L42:
 508              		.loc 1 219 0
 509 01e4 0A22     		movs	r2, #10
 510 01e6 FFF733FF 		bl	ch_ltoa
 511              	.LVL88:
ARM GAS  C:\Users\RAKIBU~1\AppData\Local\Temp\ccsdkKfd.s 			page 10


 512              		.loc 1 147 0
 513 01ea 0DF10C0A 		add	r10, sp, #12
 514              	.LVL89:
 515              		.loc 1 220 0
 516 01ee 18E0     		b	.L34
 517              	.LVL90:
 518              	.L40:
 519              		.loc 1 214 0
 520 01f0 019B     		ldr	r3, [sp, #4]
 521              	.LVL91:
 522 01f2 1A1D     		adds	r2, r3, #4
 523              	.LVL92:
 524 01f4 0192     		str	r2, [sp, #4]
 525 01f6 1968     		ldr	r1, [r3]
 526              	.LVL93:
 527 01f8 F1E7     		b	.L41
 528              	.LVL94:
 529              	.L71:
 530              		.loc 1 216 0
 531 01fa 2D23     		movs	r3, #45
 532 01fc 8DF80C30 		strb	r3, [sp, #12]
 533              		.loc 1 217 0
 534 0200 4942     		negs	r1, r1
 535              	.LVL95:
 536              		.loc 1 216 0
 537 0202 0DF10D00 		add	r0, sp, #13
 538              	.LVL96:
 539 0206 EDE7     		b	.L42
 540              	.LVL97:
 541              	.L29:
 542              		.loc 1 241 0
 543 0208 0822     		movs	r2, #8
 544 020a 00E0     		b	.L30
 545              	.LVL98:
 546              	.L59:
 547              		.loc 1 237 0
 548 020c 0A22     		movs	r2, #10
 549              	.LVL99:
 550              	.L30:
 551              		.loc 1 243 0
 552 020e 09B3     		cbz	r1, .L43
 553              		.loc 1 244 0
 554 0210 019B     		ldr	r3, [sp, #4]
 555              	.LVL100:
 556 0212 191D     		adds	r1, r3, #4
 557              	.LVL101:
 558 0214 0191     		str	r1, [sp, #4]
 559 0216 1968     		ldr	r1, [r3]
 560              	.LVL102:
 561              	.L44:
 562              		.loc 1 247 0
 563 0218 03A8     		add	r0, sp, #12
 564              	.LVL103:
 565 021a FFF719FF 		bl	ch_ltoa
 566              	.LVL104:
 567              		.loc 1 147 0
 568 021e 0DF10C0A 		add	r10, sp, #12
ARM GAS  C:\Users\RAKIBU~1\AppData\Local\Temp\ccsdkKfd.s 			page 11


 569              	.LVL105:
 570              	.L34:
 571              		.loc 1 253 0
 572 0222 A0EB0A0B 		sub	fp, r0, r10
 573              	.LVL106:
 574              		.loc 1 254 0
 575 0226 B4EB0B04 		subs	r4, r4, fp
 576              	.LVL107:
 577 022a 22D4     		bmi	.L72
 578              	.LVL108:
 579              	.L45:
 580              		.loc 1 256 0
 581 022c B9F1000F 		cmp	r9, #0
 582 0230 00D1     		bne	.L46
 583              		.loc 1 257 0
 584 0232 6442     		negs	r4, r4
 585              	.LVL109:
 586              	.L46:
 587              		.loc 1 258 0
 588 0234 002C     		cmp	r4, #0
 589 0236 1EDB     		blt	.L73
 590              	.LVL110:
 591              	.L50:
 592              		.loc 1 269 0
 593 0238 BBF1010B 		subs	fp, fp, #1
 594              	.LVL111:
 595 023c 35D4     		bmi	.L52
 596              		.loc 1 270 0
 597 023e 3B68     		ldr	r3, [r7]
 598 0240 DB68     		ldr	r3, [r3, #12]
 599 0242 0AF10109 		add	r9, r10, #1
 600              	.LVL112:
 601 0246 9AF80010 		ldrb	r1, [r10]	@ zero_extendqisi2
 602 024a 3846     		mov	r0, r7
 603 024c 9847     		blx	r3
 604              	.LVL113:
 605              		.loc 1 271 0
 606 024e 0136     		adds	r6, r6, #1
 607              	.LVL114:
 608              		.loc 1 270 0
 609 0250 CA46     		mov	r10, r9
 610 0252 F1E7     		b	.L50
 611              	.LVL115:
 612              	.L43:
 613              		.loc 1 246 0
 614 0254 019B     		ldr	r3, [sp, #4]
 615              	.LVL116:
 616 0256 191D     		adds	r1, r3, #4
 617              	.LVL117:
 618 0258 0191     		str	r1, [sp, #4]
 619 025a 1968     		ldr	r1, [r3]
 620              	.LVL118:
 621 025c DCE7     		b	.L44
 622              	.LVL119:
 623              	.L26:
 624              		.loc 1 250 0
 625 025e 0DF1180A 		add	r10, sp, #24
ARM GAS  C:\Users\RAKIBU~1\AppData\Local\Temp\ccsdkKfd.s 			page 12


 626 0262 0AF80C2D 		strb	r2, [r10, #-12]!
 627 0266 0DF10D00 		add	r0, sp, #13
 628              	.LVL120:
 629              		.loc 1 251 0
 630 026a DAE7     		b	.L34
 631              	.LVL121:
 632              	.L62:
 633              		.loc 1 199 0
 634 026c 4FF02008 		mov	r8, #32
 635 0270 D7E7     		b	.L34
 636              	.LVL122:
 637              	.L72:
 638              		.loc 1 255 0
 639 0272 0024     		movs	r4, #0
 640              	.LVL123:
 641 0274 DAE7     		b	.L45
 642              	.LVL124:
 643              	.L73:
 644              		.loc 1 259 0
 645 0276 9AF80010 		ldrb	r1, [r10]	@ zero_extendqisi2
 646 027a 2D29     		cmp	r1, #45
 647 027c 08D0     		beq	.L74
 648              	.LVL125:
 649              	.L49:
 650              		.loc 1 265 0 discriminator 1
 651 027e 3B68     		ldr	r3, [r7]
 652 0280 DB68     		ldr	r3, [r3, #12]
 653 0282 4146     		mov	r1, r8
 654 0284 3846     		mov	r0, r7
 655 0286 9847     		blx	r3
 656              	.LVL126:
 657              		.loc 1 266 0 discriminator 1
 658 0288 0136     		adds	r6, r6, #1
 659              	.LVL127:
 660              		.loc 1 267 0 discriminator 1
 661 028a 0134     		adds	r4, r4, #1
 662              	.LVL128:
 663 028c F7D1     		bne	.L49
 664 028e D3E7     		b	.L50
 665              	.LVL129:
 666              	.L74:
 667              		.loc 1 259 0 discriminator 1
 668 0290 B8F1300F 		cmp	r8, #48
 669 0294 F3D1     		bne	.L49
 670              		.loc 1 260 0
 671 0296 3B68     		ldr	r3, [r7]
 672 0298 DB68     		ldr	r3, [r3, #12]
 673 029a 0AF1010A 		add	r10, r10, #1
 674              	.LVL130:
 675 029e 3846     		mov	r0, r7
 676              	.LVL131:
 677 02a0 9847     		blx	r3
 678              	.LVL132:
 679              		.loc 1 261 0
 680 02a2 0136     		adds	r6, r6, #1
 681              	.LVL133:
 682              		.loc 1 262 0
ARM GAS  C:\Users\RAKIBU~1\AppData\Local\Temp\ccsdkKfd.s 			page 13


 683 02a4 0BF1FF3B 		add	fp, fp, #-1
 684              	.LVL134:
 685 02a8 E9E7     		b	.L49
 686              	.LVL135:
 687              	.L52:
 688              		.loc 1 274 0
 689 02aa 002C     		cmp	r4, #0
 690 02ac 3FF4DFAE 		beq	.L11
 691              		.loc 1 275 0
 692 02b0 3B68     		ldr	r3, [r7]
 693 02b2 DB68     		ldr	r3, [r3, #12]
 694 02b4 4146     		mov	r1, r8
 695 02b6 3846     		mov	r0, r7
 696 02b8 9847     		blx	r3
 697              	.LVL136:
 698              		.loc 1 276 0
 699 02ba 0136     		adds	r6, r6, #1
 700              	.LVL137:
 701              		.loc 1 277 0
 702 02bc 013C     		subs	r4, r4, #1
 703              	.LVL138:
 704 02be F4E7     		b	.L52
 705              	.LVL139:
 706              	.L65:
 707              		.loc 1 280 0
 708 02c0 3046     		mov	r0, r6
 709 02c2 07B0     		add	sp, sp, #28
 710              		.cfi_def_cfa_offset 36
 711              		@ sp needed
 712 02c4 BDE8F08F 		pop	{r4, r5, r6, r7, r8, r9, r10, fp, pc}
 713              	.LVL140:
 714              	.L76:
 715              		.align	2
 716              	.L75:
 717 02c8 00000000 		.word	.LC0
 718              		.cfi_endproc
 719              	.LFE330:
 720              		.size	chvprintf, .-chvprintf
 721              		.align	1
 722 02cc AFF30080 		.p2align 4,,15
 723              		.global	chprintf
 724              		.syntax unified
 725              		.thumb
 726              		.thumb_func
 727              		.fpu softvfp
 728              		.type	chprintf, %function
 729              	chprintf:
 730              	.LFB331:
 731              		.loc 1 307 0
 732              		.cfi_startproc
 733              		@ args = 4, pretend = 12, frame = 8
 734              		@ frame_needed = 0, uses_anonymous_args = 1
 735              	.LVL141:
 736 02d0 0EB4     		push	{r1, r2, r3}
 737              		.cfi_def_cfa_offset 12
 738              		.cfi_offset 1, -12
 739              		.cfi_offset 2, -8
ARM GAS  C:\Users\RAKIBU~1\AppData\Local\Temp\ccsdkKfd.s 			page 14


 740              		.cfi_offset 3, -4
 741 02d2 00B5     		push	{lr}
 742              		.cfi_def_cfa_offset 16
 743              		.cfi_offset 14, -16
 744 02d4 82B0     		sub	sp, sp, #8
 745              		.cfi_def_cfa_offset 24
 746 02d6 03AA     		add	r2, sp, #12
 747 02d8 52F8041B 		ldr	r1, [r2], #4
 748              		.loc 1 311 0
 749 02dc 0192     		str	r2, [sp, #4]
 750              		.loc 1 312 0
 751 02de FFF7FEFF 		bl	chvprintf
 752              	.LVL142:
 753              		.loc 1 316 0
 754 02e2 02B0     		add	sp, sp, #8
 755              		.cfi_def_cfa_offset 16
 756              		@ sp needed
 757 02e4 5DF804EB 		ldr	lr, [sp], #4
 758              		.cfi_restore 14
 759              		.cfi_def_cfa_offset 12
 760 02e8 03B0     		add	sp, sp, #12
 761              		.cfi_restore 3
 762              		.cfi_restore 2
 763              		.cfi_restore 1
 764              		.cfi_def_cfa_offset 0
 765 02ea 7047     		bx	lr
 766              		.cfi_endproc
 767              	.LFE331:
 768              		.size	chprintf, .-chprintf
 769              		.align	1
 770 02ec AFF30080 		.p2align 4,,15
 771              		.global	myPrintf
 772              		.syntax unified
 773              		.thumb
 774              		.thumb_func
 775              		.fpu softvfp
 776              		.type	myPrintf, %function
 777              	myPrintf:
 778              	.LFB332:
 779              		.loc 1 321 0
 780              		.cfi_startproc
 781              		@ args = 4, pretend = 16, frame = 8
 782              		@ frame_needed = 0, uses_anonymous_args = 1
 783              	.LVL143:
 784 02f0 0FB4     		push	{r0, r1, r2, r3}
 785              		.cfi_def_cfa_offset 16
 786              		.cfi_offset 0, -16
 787              		.cfi_offset 1, -12
 788              		.cfi_offset 2, -8
 789              		.cfi_offset 3, -4
 790 02f2 00B5     		push	{lr}
 791              		.cfi_def_cfa_offset 20
 792              		.cfi_offset 14, -20
 793 02f4 83B0     		sub	sp, sp, #12
 794              		.cfi_def_cfa_offset 32
 795 02f6 04AA     		add	r2, sp, #16
 796 02f8 52F8041B 		ldr	r1, [r2], #4
ARM GAS  C:\Users\RAKIBU~1\AppData\Local\Temp\ccsdkKfd.s 			page 15


 797              		.loc 1 325 0
 798 02fc 0192     		str	r2, [sp, #4]
 799              		.loc 1 326 0
 800 02fe 044B     		ldr	r3, .L81
 801 0300 1868     		ldr	r0, [r3]
 802 0302 FFF7FEFF 		bl	chvprintf
 803              	.LVL144:
 804              		.loc 1 330 0
 805 0306 03B0     		add	sp, sp, #12
 806              		.cfi_def_cfa_offset 20
 807              		@ sp needed
 808 0308 5DF804EB 		ldr	lr, [sp], #4
 809              		.cfi_restore 14
 810              		.cfi_def_cfa_offset 16
 811 030c 04B0     		add	sp, sp, #16
 812              		.cfi_restore 3
 813              		.cfi_restore 2
 814              		.cfi_restore 1
 815              		.cfi_restore 0
 816              		.cfi_def_cfa_offset 0
 817 030e 7047     		bx	lr
 818              	.L82:
 819              		.align	2
 820              	.L81:
 821 0310 00000000 		.word	.LANCHOR0
 822              		.cfi_endproc
 823              	.LFE332:
 824              		.size	myPrintf, .-myPrintf
 825              		.align	1
 826 0314 AFF30080 		.p2align 4,,15
 826      AFF30080 
 826      AFF30080 
 827              		.global	chvsnprintf
 828              		.syntax unified
 829              		.thumb
 830              		.thumb_func
 831              		.fpu softvfp
 832              		.type	chvsnprintf, %function
 833              	chvsnprintf:
 834              	.LFB334:
 835              		.loc 1 400 0
 836              		.cfi_startproc
 837              		@ args = 0, pretend = 0, frame = 24
 838              		@ frame_needed = 0, uses_anonymous_args = 0
 839              	.LVL145:
 840 0320 F0B5     		push	{r4, r5, r6, r7, lr}
 841              		.cfi_def_cfa_offset 20
 842              		.cfi_offset 4, -20
 843              		.cfi_offset 5, -16
 844              		.cfi_offset 6, -12
 845              		.cfi_offset 7, -8
 846              		.cfi_offset 14, -4
 847 0322 87B0     		sub	sp, sp, #28
 848              		.cfi_def_cfa_offset 48
 849 0324 0546     		mov	r5, r0
 850 0326 1646     		mov	r6, r2
 851 0328 1F46     		mov	r7, r3
ARM GAS  C:\Users\RAKIBU~1\AppData\Local\Temp\ccsdkKfd.s 			page 16


 852              		.loc 1 406 0
 853 032a 0C46     		mov	r4, r1
 854 032c 89B1     		cbz	r1, .L86
 855              		.loc 1 407 0
 856 032e 4A1E     		subs	r2, r1, #1
 857              	.LVL146:
 858              	.L84:
 859              		.loc 1 413 0
 860 0330 0023     		movs	r3, #0
 861              	.LVL147:
 862 0332 2946     		mov	r1, r5
 863              	.LVL148:
 864 0334 01A8     		add	r0, sp, #4
 865              	.LVL149:
 866 0336 FFF7FEFF 		bl	msObjectInit
 867              	.LVL150:
 868              		.loc 1 417 0
 869 033a 3A46     		mov	r2, r7
 870 033c 3146     		mov	r1, r6
 871 033e 01A8     		add	r0, sp, #4
 872              	.LVL151:
 873 0340 FFF7FEFF 		bl	chvprintf
 874              	.LVL152:
 875              		.loc 1 420 0
 876 0344 049B     		ldr	r3, [sp, #16]
 877 0346 A342     		cmp	r3, r4
 878 0348 01D2     		bcs	.L83
 879              		.loc 1 421 0
 880 034a 0022     		movs	r2, #0
 881 034c EA54     		strb	r2, [r5, r3]
 882              	.L83:
 883              		.loc 1 426 0
 884 034e 07B0     		add	sp, sp, #28
 885              		.cfi_remember_state
 886              		.cfi_def_cfa_offset 20
 887              		@ sp needed
 888 0350 F0BD     		pop	{r4, r5, r6, r7, pc}
 889              	.LVL153:
 890              	.L86:
 891              		.cfi_restore_state
 892              		.loc 1 409 0
 893 0352 0A46     		mov	r2, r1
 894              	.LVL154:
 895 0354 ECE7     		b	.L84
 896              		.cfi_endproc
 897              	.LFE334:
 898              		.size	chvsnprintf, .-chvsnprintf
 899              		.align	1
 900 0356 00BFAFF3 		.p2align 4,,15
 900      0080AFF3 
 900      0080
 901              		.global	chsnprintf
 902              		.syntax unified
 903              		.thumb
 904              		.thumb_func
 905              		.fpu softvfp
 906              		.type	chsnprintf, %function
ARM GAS  C:\Users\RAKIBU~1\AppData\Local\Temp\ccsdkKfd.s 			page 17


 907              	chsnprintf:
 908              	.LFB333:
 909              		.loc 1 359 0
 910              		.cfi_startproc
 911              		@ args = 4, pretend = 8, frame = 8
 912              		@ frame_needed = 0, uses_anonymous_args = 1
 913              	.LVL155:
 914 0360 0CB4     		push	{r2, r3}
 915              		.cfi_def_cfa_offset 8
 916              		.cfi_offset 2, -8
 917              		.cfi_offset 3, -4
 918 0362 00B5     		push	{lr}
 919              		.cfi_def_cfa_offset 12
 920              		.cfi_offset 14, -12
 921 0364 83B0     		sub	sp, sp, #12
 922              		.cfi_def_cfa_offset 24
 923 0366 04AB     		add	r3, sp, #16
 924 0368 53F8042B 		ldr	r2, [r3], #4
 925              		.loc 1 364 0
 926 036c 0193     		str	r3, [sp, #4]
 927              		.loc 1 365 0
 928 036e FFF7FEFF 		bl	chvsnprintf
 929              	.LVL156:
 930              		.loc 1 370 0
 931 0372 03B0     		add	sp, sp, #12
 932              		.cfi_def_cfa_offset 12
 933              		@ sp needed
 934 0374 5DF804EB 		ldr	lr, [sp], #4
 935              		.cfi_restore 14
 936              		.cfi_def_cfa_offset 8
 937 0378 02B0     		add	sp, sp, #8
 938              		.cfi_restore 3
 939              		.cfi_restore 2
 940              		.cfi_def_cfa_offset 0
 941 037a 7047     		bx	lr
 942              		.cfi_endproc
 943              	.LFE333:
 944              		.size	chsnprintf, .-chsnprintf
 945              		.global	myChp
 946              		.data
 947              		.align	2
 948              		.set	.LANCHOR0,. + 0
 949              		.type	myChp, %object
 950              		.size	myChp, 4
 951              	myChp:
 952 0000 00000000 		.word	SD6
 953              		.section	.rodata.str1.4,"aMS",%progbits,1
 954              		.align	2
 955              	.LC0:
 956 0000 286E756C 		.ascii	"(null)\000"
 956      6C2900
 957              		.text
 958              	.Letext0:
 959              		.file 2 "c:\\chibistudio\\tools\\gnu tools arm embedded\\7.0 2017q4\\lib\\gcc\\arm-none-eabi\\7.2.
 960              		.file 3 "c:\\chibistudio\\tools\\gnu tools arm embedded\\7.0 2017q4\\arm-none-eabi\\include\\machi
 961              		.file 4 "c:\\chibistudio\\tools\\gnu tools arm embedded\\7.0 2017q4\\arm-none-eabi\\include\\sys\\
 962              		.file 5 "c:\\chibistudio\\tools\\gnu tools arm embedded\\7.0 2017q4\\arm-none-eabi\\include\\stdin
ARM GAS  C:\Users\RAKIBU~1\AppData\Local\Temp\ccsdkKfd.s 			page 18


 963              		.file 6 "../../../ChibiOSRepo/chibios191/os/common/ports/ARMCMx/compilers/GCC/chtypes.h"
 964              		.file 7 "../../../ChibiOSRepo/chibios191/os/rt/include/chsystypes.h"
 965              		.file 8 "../../../ChibiOSRepo/chibios191/os/rt/include/chschd.h"
 966              		.file 9 "../../../ChibiOSRepo/chibios191/os/rt/include/chtime.h"
 967              		.file 10 "../../../ChibiOSRepo/chibios191/os/common/ext/ARM/CMSIS/Core/Include/core_cm4.h"
 968              		.file 11 "../../../ChibiOSRepo/chibios191/os/common/ext/ST/STM32F4xx/system_stm32f4xx.h"
 969              		.file 12 "../../../ChibiOSRepo/chibios191/os/common/ext/ST/STM32F4xx/stm32f407xx.h"
 970              		.file 13 "../../../ChibiOSRepo/chibios191/os/common/ports/ARMCMx/chcore.h"
 971              		.file 14 "../../../ChibiOSRepo/chibios191/os/common/ports/ARMCMx/chcore_v7m.h"
 972              		.file 15 "../../../ChibiOSRepo/chibios191/os/hal/ports/STM32/LLD/TIMv1/stm32_tim.h"
 973              		.file 16 "../../../ChibiOSRepo/chibios191/os/rt/include/chtrace.h"
 974              		.file 17 "../../../ChibiOSRepo/chibios191/os/rt/include/chtm.h"
 975              		.file 18 "../../../ChibiOSRepo/chibios191/os/rt/include/chstats.h"
 976              		.file 19 "../../../ChibiOSRepo/chibios191/os/rt/include/chsem.h"
 977              		.file 20 "../../../ChibiOSRepo/chibios191/os/rt/include/chmtx.h"
 978              		.file 21 "../../../ChibiOSRepo/chibios191/os/rt/include/chsys.h"
 979              		.file 22 "../../../ChibiOSRepo/chibios191/os/rt/include/chregistry.h"
 980              		.file 23 "../../../ChibiOSRepo/chibios191/os/rt/include/chevents.h"
 981              		.file 24 "../../../ChibiOSRepo/chibios191/os/oslib/include/chmemcore.h"
 982              		.file 25 "../../../ChibiOSRepo/chibios191/os/oslib/include/chmempools.h"
 983              		.file 26 "../../../ChibiOSRepo/chibios191/os/oslib/include/chfactory.h"
 984              		.file 27 "../../../ChibiOSRepo/chibios191/os/hal/ports/STM32/LLD/DMAv2/stm32_dma.h"
 985              		.file 28 "../../../ChibiOSRepo/chibios191/os/hal/include/hal_streams.h"
 986              		.file 29 "../../../ChibiOSRepo/chibios191/os/hal/include/hal_ioblock.h"
 987              		.file 30 "../../../ChibiOSRepo/chibios191/os/hal/include/hal_persistent.h"
 988              		.file 31 "../../../ChibiOSRepo/chibios191/os/hal/include/hal_queues.h"
 989              		.file 32 "../../../ChibiOSRepo/chibios191/os/hal/include/hal_pal.h"
 990              		.file 33 "../../../ChibiOSRepo/chibios191/os/hal/ports/STM32/LLD/GPIOv2/stm32_gpio.h"
 991              		.file 34 "../../../ChibiOSRepo/chibios191/os/hal/ports/STM32/LLD/GPIOv2/hal_pal_lld.h"
 992              		.file 35 "../../../ChibiOSRepo/chibios191/os/hal/include/hal_gpt.h"
 993              		.file 36 "../../../ChibiOSRepo/chibios191/os/hal/ports/STM32/LLD/TIMv1/hal_gpt_lld.h"
 994              		.file 37 "../../../ChibiOSRepo/chibios191/os/hal/include/hal_i2c.h"
 995              		.file 38 "../../../ChibiOSRepo/chibios191/os/hal/ports/STM32/LLD/I2Cv1/hal_i2c_lld.h"
 996              		.file 39 "c:\\chibistudio\\tools\\gnu tools arm embedded\\7.0 2017q4\\arm-none-eabi\\include\\sys\
 997              		.file 40 "c:\\chibistudio\\tools\\gnu tools arm embedded\\7.0 2017q4\\arm-none-eabi\\include\\sys\
 998              		.file 41 "<built-in>"
 999              		.file 42 "c:\\chibistudio\\tools\\gnu tools arm embedded\\7.0 2017q4\\arm-none-eabi\\include\\sys\
 1000              		.file 43 "c:\\chibistudio\\tools\\gnu tools arm embedded\\7.0 2017q4\\arm-none-eabi\\include\\time
 1001              		.file 44 "../../../ChibiOSRepo/chibios191/os/hal/include/hal_rtc.h"
 1002              		.file 45 "../../../ChibiOSRepo/chibios191/os/hal/ports/STM32/LLD/RTCv2/hal_rtc_lld.h"
 1003              		.file 46 "../../../ChibiOSRepo/chibios191/os/hal/include/hal_serial.h"
 1004              		.file 47 "../../../ChibiOSRepo/chibios191/os/hal/ports/STM32/LLD/USARTv1/hal_serial_lld.h"
 1005              		.file 48 "../../../ChibiOSRepo/chibios191/os/hal/include/hal_sdc.h"
 1006              		.file 49 "../../../ChibiOSRepo/chibios191/os/hal/ports/STM32/LLD/SDIOv1/hal_sdc_lld.h"
 1007              		.file 50 "../../../ChibiOSRepo/chibios191/os/hal/include/hal_spi.h"
 1008              		.file 51 "../../../ChibiOSRepo/chibios191/os/hal/ports/STM32/LLD/SPIv1/hal_spi_lld.h"
 1009              		.file 52 "c:\\chibistudio\\tools\\gnu tools arm embedded\\7.0 2017q4\\lib\\gcc\\arm-none-eabi\\7.2
 1010              		.file 53 "../../../ChibiOSRepo/chibios191/os/hal/lib/streams/memstreams.h"