ARM GAS  C:\Users\RAKIBU~1\AppData\Local\Temp\ccL5M507.s 			page 1


   1              		.cpu cortex-m4
   2              		.eabi_attribute 20, 1
   3              		.eabi_attribute 21, 1
   4              		.eabi_attribute 23, 3
   5              		.eabi_attribute 24, 1
   6              		.eabi_attribute 25, 1
   7              		.eabi_attribute 26, 1
   8              		.eabi_attribute 30, 1
   9              		.eabi_attribute 34, 1
  10              		.eabi_attribute 18, 4
  11              		.file	"chregistry.c"
  12              		.text
  13              	.Ltext0:
  14              		.cfi_sections	.debug_frame
  15              		.align	1
  16              		.p2align 4,,15
  17              		.global	chRegFirstThread
  18              		.syntax unified
  19              		.thumb
  20              		.thumb_func
  21              		.fpu softvfp
  22              		.type	chRegFirstThread, %function
  23              	chRegFirstThread:
  24              	.LFB295:
  25              		.file 1 "../../../ChibiOSRepo/chibios191/os/rt/src/chregistry.c"
  26              		.loc 1 134 0
  27              		.cfi_startproc
  28              		@ args = 0, pretend = 0, frame = 0
  29              		@ frame_needed = 0, uses_anonymous_args = 0
  30 0000 38B5     		push	{r3, r4, r5, lr}
  31              		.cfi_def_cfa_offset 16
  32              		.cfi_offset 3, -16
  33              		.cfi_offset 4, -12
  34              		.cfi_offset 5, -8
  35              		.cfi_offset 14, -4
  36              	.LVL0:
  37              	.LBB38:
  38              	.LBB39:
  39              	.LBB40:
  40              	.LBB41:
  41              	.LBB42:
  42              		.file 2 "../../../ChibiOSRepo/chibios191/os/common/ext/ARM/CMSIS/Core/Include/cmsis_gcc.h"
  43              		.loc 2 493 0
  44 0002 2023     		movs	r3, #32
  45              		.syntax unified
  46              	@ 493 "../../../ChibiOSRepo/chibios191/os/common/ext/ARM/CMSIS/Core/Include/cmsis_gcc.h" 1
  47 0004 83F31188 		MSR basepri, r3
  48              	@ 0 "" 2
  49              	.LVL1:
  50              		.thumb
  51              		.syntax unified
  52              	.LBE42:
  53              	.LBE41:
  54              	.LBE40:
  55              		.file 3 "../../../ChibiOSRepo/chibios191/os/rt/include/chsys.h"
  56              		.loc 3 356 0
  57 0008 FFF7FEFF 		bl	_stats_start_measure_crit_thd
ARM GAS  C:\Users\RAKIBU~1\AppData\Local\Temp\ccL5M507.s 			page 2


  58              	.LVL2:
  59              		.loc 3 357 0
  60 000c FFF7FEFF 		bl	_dbg_check_lock
  61              	.LVL3:
  62              	.LBE39:
  63              	.LBE38:
  64              		.loc 1 138 0
  65 0010 0D4D     		ldr	r5, .L5
  66 0012 2C69     		ldr	r4, [r5, #16]
  67              	.LVL4:
  68              		.loc 1 140 0
  69 0014 94F82230 		ldrb	r3, [r4, #34]	@ zero_extendqisi2
  70 0018 0133     		adds	r3, r3, #1
  71 001a 84F82230 		strb	r3, [r4, #34]
  72              	.LBB43:
  73              	.LBB44:
  74              		.loc 3 367 0
  75 001e FFF7FEFF 		bl	_dbg_check_unlock
  76              	.LVL5:
  77              		.loc 3 368 0
  78 0022 FFF7FEFF 		bl	_stats_stop_measure_crit_thd
  79              	.LVL6:
  80              		.loc 3 374 0
  81 0026 2B68     		ldr	r3, [r5]
  82 0028 AB42     		cmp	r3, r5
  83 002a 04D0     		beq	.L2
  84 002c AA69     		ldr	r2, [r5, #24]
  85 002e 9268     		ldr	r2, [r2, #8]
  86 0030 9B68     		ldr	r3, [r3, #8]
  87 0032 9A42     		cmp	r2, r3
  88 0034 04D3     		bcc	.L4
  89              	.L2:
  90              	.LVL7:
  91              	.LBB45:
  92              	.LBB46:
  93              	.LBB47:
  94              		.loc 2 493 0
  95 0036 0023     		movs	r3, #0
  96              		.syntax unified
  97              	@ 493 "../../../ChibiOSRepo/chibios191/os/common/ext/ARM/CMSIS/Core/Include/cmsis_gcc.h" 1
  98 0038 83F31188 		MSR basepri, r3
  99              	@ 0 "" 2
 100              	.LVL8:
 101              		.thumb
 102              		.syntax unified
 103              	.LBE47:
 104              	.LBE46:
 105              	.LBE45:
 106              	.LBE44:
 107              	.LBE43:
 108              		.loc 1 145 0
 109 003c 2046     		mov	r0, r4
 110 003e 38BD     		pop	{r3, r4, r5, pc}
 111              	.LVL9:
 112              	.L4:
 113              	.LBB49:
 114              	.LBB48:
ARM GAS  C:\Users\RAKIBU~1\AppData\Local\Temp\ccL5M507.s 			page 3


 115              		.loc 3 374 0
 116 0040 0248     		ldr	r0, .L5+4
 117 0042 FFF7FEFF 		bl	chSysHalt
 118              	.LVL10:
 119 0046 F6E7     		b	.L2
 120              	.L6:
 121              		.align	2
 122              	.L5:
 123 0048 00000000 		.word	ch
 124 004c 00000000 		.word	.LANCHOR0
 125              	.LBE48:
 126              	.LBE49:
 127              		.cfi_endproc
 128              	.LFE295:
 129              		.size	chRegFirstThread, .-chRegFirstThread
 130              		.align	1
 131              		.p2align 4,,15
 132              		.global	chRegNextThread
 133              		.syntax unified
 134              		.thumb
 135              		.thumb_func
 136              		.fpu softvfp
 137              		.type	chRegNextThread, %function
 138              	chRegNextThread:
 139              	.LFB296:
 140              		.loc 1 158 0
 141              		.cfi_startproc
 142              		@ args = 0, pretend = 0, frame = 0
 143              		@ frame_needed = 0, uses_anonymous_args = 0
 144              	.LVL11:
 145 0050 38B5     		push	{r3, r4, r5, lr}
 146              		.cfi_def_cfa_offset 16
 147              		.cfi_offset 3, -16
 148              		.cfi_offset 4, -12
 149              		.cfi_offset 5, -8
 150              		.cfi_offset 14, -4
 151 0052 0546     		mov	r5, r0
 152              	.LVL12:
 153              	.LBB60:
 154              	.LBB61:
 155              	.LBB62:
 156              	.LBB63:
 157              	.LBB64:
 158              		.loc 2 493 0
 159 0054 2023     		movs	r3, #32
 160              		.syntax unified
 161              	@ 493 "../../../ChibiOSRepo/chibios191/os/common/ext/ARM/CMSIS/Core/Include/cmsis_gcc.h" 1
 162 0056 83F31188 		MSR basepri, r3
 163              	@ 0 "" 2
 164              	.LVL13:
 165              		.thumb
 166              		.syntax unified
 167              	.LBE64:
 168              	.LBE63:
 169              	.LBE62:
 170              		.loc 3 356 0
 171 005a FFF7FEFF 		bl	_stats_start_measure_crit_thd
ARM GAS  C:\Users\RAKIBU~1\AppData\Local\Temp\ccL5M507.s 			page 4


 172              	.LVL14:
 173              		.loc 3 357 0
 174 005e FFF7FEFF 		bl	_dbg_check_lock
 175              	.LVL15:
 176              	.LBE61:
 177              	.LBE60:
 178              		.loc 1 162 0
 179 0062 2C69     		ldr	r4, [r5, #16]
 180              	.LVL16:
 181              		.loc 1 164 0
 182 0064 154B     		ldr	r3, .L15
 183 0066 9C42     		cmp	r4, r3
 184 0068 21D0     		beq	.L11
 185              		.loc 1 170 0 discriminator 1
 186 006a 94F82230 		ldrb	r3, [r4, #34]	@ zero_extendqisi2
 187 006e FF2B     		cmp	r3, #255
 188 0070 19D0     		beq	.L13
 189              	.L9:
 190              		.loc 1 171 0
 191 0072 94F82230 		ldrb	r3, [r4, #34]	@ zero_extendqisi2
 192 0076 0133     		adds	r3, r3, #1
 193 0078 84F82230 		strb	r3, [r4, #34]
 194              	.LVL17:
 195              	.L8:
 196              	.LBB65:
 197              	.LBB66:
 198              		.loc 3 367 0
 199 007c FFF7FEFF 		bl	_dbg_check_unlock
 200              	.LVL18:
 201              		.loc 3 368 0
 202 0080 FFF7FEFF 		bl	_stats_stop_measure_crit_thd
 203              	.LVL19:
 204              		.loc 3 374 0
 205 0084 0D4B     		ldr	r3, .L15
 206 0086 1A68     		ldr	r2, [r3]
 207 0088 9A42     		cmp	r2, r3
 208 008a 04D0     		beq	.L10
 209 008c 9B69     		ldr	r3, [r3, #24]
 210 008e 9968     		ldr	r1, [r3, #8]
 211 0090 9368     		ldr	r3, [r2, #8]
 212 0092 9942     		cmp	r1, r3
 213 0094 0DD3     		bcc	.L14
 214              	.L10:
 215              	.LVL20:
 216              	.LBB67:
 217              	.LBB68:
 218              	.LBB69:
 219              		.loc 2 493 0
 220 0096 0023     		movs	r3, #0
 221              		.syntax unified
 222              	@ 493 "../../../ChibiOSRepo/chibios191/os/common/ext/ARM/CMSIS/Core/Include/cmsis_gcc.h" 1
 223 0098 83F31188 		MSR basepri, r3
 224              	@ 0 "" 2
 225              	.LVL21:
 226              		.thumb
 227              		.syntax unified
 228              	.LBE69:
ARM GAS  C:\Users\RAKIBU~1\AppData\Local\Temp\ccL5M507.s 			page 5


 229              	.LBE68:
 230              	.LBE67:
 231              	.LBE66:
 232              	.LBE65:
 233              		.loc 1 176 0
 234 009c 2846     		mov	r0, r5
 235 009e FFF7FEFF 		bl	chThdRelease
 236              	.LVL22:
 237              		.loc 1 180 0
 238 00a2 2046     		mov	r0, r4
 239 00a4 38BD     		pop	{r3, r4, r5, pc}
 240              	.LVL23:
 241              	.L13:
 242              		.loc 1 170 0 discriminator 2
 243 00a6 0648     		ldr	r0, .L15+4
 244 00a8 FFF7FEFF 		bl	chSysHalt
 245              	.LVL24:
 246 00ac E1E7     		b	.L9
 247              	.L11:
 248              		.loc 1 166 0
 249 00ae 0024     		movs	r4, #0
 250              	.LVL25:
 251 00b0 E4E7     		b	.L8
 252              	.LVL26:
 253              	.L14:
 254              	.LBB71:
 255              	.LBB70:
 256              		.loc 3 374 0
 257 00b2 0448     		ldr	r0, .L15+8
 258 00b4 FFF7FEFF 		bl	chSysHalt
 259              	.LVL27:
 260 00b8 EDE7     		b	.L10
 261              	.L16:
 262 00ba 00BF     		.align	2
 263              	.L15:
 264 00bc 00000000 		.word	ch
 265 00c0 0C000000 		.word	.LANCHOR0+12
 266 00c4 00000000 		.word	.LANCHOR0
 267              	.LBE70:
 268              	.LBE71:
 269              		.cfi_endproc
 270              	.LFE296:
 271              		.size	chRegNextThread, .-chRegNextThread
 272              		.align	1
 273 00c8 AFF30080 		.p2align 4,,15
 273      AFF30080 
 274              		.global	chRegFindThreadByName
 275              		.syntax unified
 276              		.thumb
 277              		.thumb_func
 278              		.fpu softvfp
 279              		.type	chRegFindThreadByName, %function
 280              	chRegFindThreadByName:
 281              	.LFB297:
 282              		.loc 1 194 0
 283              		.cfi_startproc
 284              		@ args = 0, pretend = 0, frame = 0
ARM GAS  C:\Users\RAKIBU~1\AppData\Local\Temp\ccL5M507.s 			page 6


 285              		@ frame_needed = 0, uses_anonymous_args = 0
 286              	.LVL28:
 287 00d0 38B5     		push	{r3, r4, r5, lr}
 288              		.cfi_def_cfa_offset 16
 289              		.cfi_offset 3, -16
 290              		.cfi_offset 4, -12
 291              		.cfi_offset 5, -8
 292              		.cfi_offset 14, -4
 293 00d2 0546     		mov	r5, r0
 294              		.loc 1 198 0
 295 00d4 FFF7FEFF 		bl	chRegFirstThread
 296              	.LVL29:
 297 00d8 0446     		mov	r4, r0
 298              	.LVL30:
 299              	.L19:
 300              		.loc 1 200 0
 301 00da 2946     		mov	r1, r5
 302 00dc A069     		ldr	r0, [r4, #24]
 303              	.LVL31:
 304 00de FFF7FEFF 		bl	strcmp
 305              	.LVL32:
 306 00e2 28B1     		cbz	r0, .L17
 307              		.loc 1 203 0
 308 00e4 2046     		mov	r0, r4
 309 00e6 FFF7FEFF 		bl	chRegNextThread
 310              	.LVL33:
 311              		.loc 1 204 0
 312 00ea 0446     		mov	r4, r0
 313 00ec 0028     		cmp	r0, #0
 314 00ee F4D1     		bne	.L19
 315              	.LVL34:
 316              	.L17:
 317              		.loc 1 207 0
 318 00f0 2046     		mov	r0, r4
 319 00f2 38BD     		pop	{r3, r4, r5, pc}
 320              		.cfi_endproc
 321              	.LFE297:
 322              		.size	chRegFindThreadByName, .-chRegFindThreadByName
 323              		.align	1
 324 00f4 AFF30080 		.p2align 4,,15
 324      AFF30080 
 324      AFF30080 
 325              		.global	chRegFindThreadByPointer
 326              		.syntax unified
 327              		.thumb
 328              		.thumb_func
 329              		.fpu softvfp
 330              		.type	chRegFindThreadByPointer, %function
 331              	chRegFindThreadByPointer:
 332              	.LFB298:
 333              		.loc 1 221 0
 334              		.cfi_startproc
 335              		@ args = 0, pretend = 0, frame = 0
 336              		@ frame_needed = 0, uses_anonymous_args = 0
 337              	.LVL35:
 338 0100 10B5     		push	{r4, lr}
 339              		.cfi_def_cfa_offset 8
ARM GAS  C:\Users\RAKIBU~1\AppData\Local\Temp\ccL5M507.s 			page 7


 340              		.cfi_offset 4, -8
 341              		.cfi_offset 14, -4
 342 0102 0446     		mov	r4, r0
 343              		.loc 1 225 0
 344 0104 FFF7FEFF 		bl	chRegFirstThread
 345              	.LVL36:
 346 0108 0346     		mov	r3, r0
 347              	.LVL37:
 348              	.L23:
 349              		.loc 1 227 0
 350 010a A342     		cmp	r3, r4
 351 010c 05D0     		beq	.L21
 352              		.loc 1 230 0
 353 010e 1846     		mov	r0, r3
 354 0110 FFF7FEFF 		bl	chRegNextThread
 355              	.LVL38:
 356              		.loc 1 231 0
 357 0114 0346     		mov	r3, r0
 358 0116 0028     		cmp	r0, #0
 359 0118 F7D1     		bne	.L23
 360              	.L21:
 361              		.loc 1 234 0
 362 011a 1846     		mov	r0, r3
 363              	.LVL39:
 364 011c 10BD     		pop	{r4, pc}
 365              		.cfi_endproc
 366              	.LFE298:
 367              		.size	chRegFindThreadByPointer, .-chRegFindThreadByPointer
 368              		.align	1
 369 011e 00BF     		.p2align 4,,15
 370              		.global	chRegFindThreadByWorkingArea
 371              		.syntax unified
 372              		.thumb
 373              		.thumb_func
 374              		.fpu softvfp
 375              		.type	chRegFindThreadByWorkingArea, %function
 376              	chRegFindThreadByWorkingArea:
 377              	.LFB299:
 378              		.loc 1 250 0
 379              		.cfi_startproc
 380              		@ args = 0, pretend = 0, frame = 0
 381              		@ frame_needed = 0, uses_anonymous_args = 0
 382              	.LVL40:
 383 0120 10B5     		push	{r4, lr}
 384              		.cfi_def_cfa_offset 8
 385              		.cfi_offset 4, -8
 386              		.cfi_offset 14, -4
 387 0122 0446     		mov	r4, r0
 388              		.loc 1 254 0
 389 0124 FFF7FEFF 		bl	chRegFirstThread
 390              	.LVL41:
 391 0128 0346     		mov	r3, r0
 392              	.LVL42:
 393              	.L27:
 394              	.LBB72:
 395              	.LBB73:
 396              		.file 4 "../../../ChibiOSRepo/chibios191/os/rt/include/chthreads.h"
ARM GAS  C:\Users\RAKIBU~1\AppData\Local\Temp\ccL5M507.s 			page 8


 397              		.loc 4 319 0
 398 012a DA69     		ldr	r2, [r3, #28]
 399              	.LVL43:
 400              	.LBE73:
 401              	.LBE72:
 402              		.loc 1 256 0
 403 012c A242     		cmp	r2, r4
 404 012e 05D0     		beq	.L25
 405              		.loc 1 259 0
 406 0130 1846     		mov	r0, r3
 407 0132 FFF7FEFF 		bl	chRegNextThread
 408              	.LVL44:
 409              		.loc 1 260 0
 410 0136 0346     		mov	r3, r0
 411 0138 0028     		cmp	r0, #0
 412 013a F6D1     		bne	.L27
 413              	.L25:
 414              		.loc 1 263 0
 415 013c 1846     		mov	r0, r3
 416              	.LVL45:
 417 013e 10BD     		pop	{r4, pc}
 418              		.cfi_endproc
 419              	.LFE299:
 420              		.size	chRegFindThreadByWorkingArea, .-chRegFindThreadByWorkingArea
 421              		.global	ch_debug
 422              		.section	.rodata
 423              		.align	2
 424              		.set	.LANCHOR0,. + 0
 425              		.type	__func__.6519, %object
 426              		.size	__func__.6519, 12
 427              	__func__.6519:
 428 0000 63685379 		.ascii	"chSysUnlock\000"
 428      73556E6C 
 428      6F636B00 
 429              		.type	__func__.7513, %object
 430              		.size	__func__.7513, 16
 431              	__func__.7513:
 432 000c 63685265 		.ascii	"chRegNextThread\000"
 432      674E6578 
 432      74546872 
 432      65616400 
 433              		.type	ch_debug, %object
 434              		.size	ch_debug, 22
 435              	ch_debug:
 436 001c 6D       		.byte	109
 437 001d 61       		.byte	97
 438 001e 69       		.byte	105
 439 001f 6E       		.byte	110
 440 0020 00       		.byte	0
 441 0021 16       		.byte	22
 442 0022 0430     		.short	12292
 443 0024 04       		.byte	4
 444 0025 04       		.byte	4
 445 0026 60       		.byte	96
 446 0027 08       		.byte	8
 447 0028 0C       		.byte	12
 448 0029 10       		.byte	16
ARM GAS  C:\Users\RAKIBU~1\AppData\Local\Temp\ccL5M507.s 			page 9


 449 002a 14       		.byte	20
 450 002b 18       		.byte	24
 451 002c 1C       		.byte	28
 452 002d 20       		.byte	32
 453 002e 21       		.byte	33
 454 002f 22       		.byte	34
 455 0030 00       		.byte	0
 456 0031 00       		.byte	0
 457              		.text
 458              	.Letext0:
 459              		.file 5 "c:\\chibistudio\\tools\\gnu tools arm embedded\\7.0 2017q4\\lib\\gcc\\arm-none-eabi\\7.2.
 460              		.file 6 "c:\\chibistudio\\tools\\gnu tools arm embedded\\7.0 2017q4\\arm-none-eabi\\include\\machi
 461              		.file 7 "c:\\chibistudio\\tools\\gnu tools arm embedded\\7.0 2017q4\\arm-none-eabi\\include\\sys\\
 462              		.file 8 "c:\\chibistudio\\tools\\gnu tools arm embedded\\7.0 2017q4\\arm-none-eabi\\include\\sys\\
 463              		.file 9 "c:\\chibistudio\\tools\\gnu tools arm embedded\\7.0 2017q4\\arm-none-eabi\\include\\sys\\
 464              		.file 10 "c:\\chibistudio\\tools\\gnu tools arm embedded\\7.0 2017q4\\arm-none-eabi\\include\\sys\
 465              		.file 11 "../../../ChibiOSRepo/chibios191/os/common/ports/ARMCMx/compilers/GCC/chtypes.h"
 466              		.file 12 "../../../ChibiOSRepo/chibios191/os/rt/include/chsystypes.h"
 467              		.file 13 "../../../ChibiOSRepo/chibios191/os/rt/include/chschd.h"
 468              		.file 14 "../../../ChibiOSRepo/chibios191/os/rt/include/chtime.h"
 469              		.file 15 "../../../ChibiOSRepo/chibios191/os/common/ext/ARM/CMSIS/Core/Include/core_cm4.h"
 470              		.file 16 "../../../ChibiOSRepo/chibios191/os/common/ext/ST/STM32F4xx/system_stm32f4xx.h"
 471              		.file 17 "../../../ChibiOSRepo/chibios191/os/common/ports/ARMCMx/chcore.h"
 472              		.file 18 "../../../ChibiOSRepo/chibios191/os/common/ports/ARMCMx/chcore_v7m.h"
 473              		.file 19 "../../../ChibiOSRepo/chibios191/os/rt/include/chtrace.h"
 474              		.file 20 "../../../ChibiOSRepo/chibios191/os/rt/include/chtm.h"
 475              		.file 21 "../../../ChibiOSRepo/chibios191/os/rt/include/chstats.h"
 476              		.file 22 "../../../ChibiOSRepo/chibios191/os/rt/include/chsem.h"
 477              		.file 23 "../../../ChibiOSRepo/chibios191/os/rt/include/chmtx.h"
 478              		.file 24 "../../../ChibiOSRepo/chibios191/os/rt/include/chregistry.h"
 479              		.file 25 "../../../ChibiOSRepo/chibios191/os/oslib/include/chmemcore.h"
 480              		.file 26 "../../../ChibiOSRepo/chibios191/os/oslib/include/chmempools.h"
 481              		.file 27 "../../../ChibiOSRepo/chibios191/os/oslib/include/chfactory.h"
 482              		.file 28 "c:\\chibistudio\\tools\\gnu tools arm embedded\\7.0 2017q4\\arm-none-eabi\\include\\stri
 483              		.file 29 "../../../ChibiOSRepo/chibios191/os/rt/include/chdebug.h"
 484              		.file 30 "../../../ChibiOSRepo/chibios191/os/rt/include/ch.h"