ARM GAS  C:\Users\RAKIBU~1\AppData\Local\Temp\ccL5M507.s 			page 1


   1              		.cpu cortex-m4
   2              		.eabi_attribute 20, 1
   3              		.eabi_attribute 21, 1
   4              		.eabi_attribute 23, 3
   5              		.eabi_attribute 24, 1
   6              		.eabi_attribute 25, 1
   7              		.eabi_attribute 26, 1
   8              		.eabi_attribute 30, 1
   9              		.eabi_attribute 34, 1
  10              		.eabi_attribute 18, 4
  11              		.file	"chregistry.c"
  12              		.text
  13              	.Ltext0:
  14              		.cfi_sections	.debug_frame
  15              		.align	1
  16              		.p2align 4,,15
  17              		.global	chRegFirstThread
  18              		.syntax unified
  19              		.thumb
  20              		.thumb_func
  21              		.fpu softvfp
  22              		.type	chRegFirstThread, %function
  23              	chRegFirstThread:
  24              	.LFB295:
  25              		.file 1 "../../../ChibiOSRepo/chibios191/os/rt/src/chregistry.c"
  26              		.loc 1 134 0
  27              		.cfi_startproc
  28              		@ args = 0, pretend = 0, frame = 0
  29              		@ frame_needed = 0, uses_anonymous_args = 0
  30 0000 38B5     		push	{r3, r4, r5, lr}
  31              		.cfi_def_cfa_offset 16
  32              		.cfi_offset 3, -16
  33              		.cfi_offset 4, -12
  34              		.cfi_offset 5, -8
  35              		.cfi_offset 14, -4
  36              	.LVL0:
  37              	.LBB38:
  38              	.LBB39:
  39              	.LBB40:
  40              	.LBB41:
  41              	.LBB42:
  42              		.file 2 "../../../ChibiOSRepo/chibios191/os/common/ext/ARM/CMSIS/Core/Include/cmsis_gcc.h"
  43              		.loc 2 493 0
  44 0002 2023     		movs	r3, #32
  45              		.syntax unified
  46              	@ 493 "../../../ChibiOSRepo/chibios191/os/common/ext/ARM/CMSIS/Core/Include/cmsis_gcc.h" 1
  47 0004 83F31188 		MSR basepri, r3
  48              	@ 0 "" 2
  49              	.LVL1:
  50              		.thumb
  51              		.syntax unified
  52              	.LBE42:
  53              	.LBE41:
  54              	.LBE40:
  55              		.file 3 "../../../ChibiOSRepo/chibios191/os/rt/include/chsys.h"
  56              		.loc 3 356 0
  57 0008 FFF7FEFF 		bl	_stats_start_measure_crit_thd
ARM GAS  C:\Users\RAKIBU~1\AppData\Local\Temp\ccL5M507.s 			page 2


  58              	.LVL2:
  59              		.loc 3 357 0
  60 000c FFF7FEFF 		bl	_dbg_check_lock
  61              	.LVL3:
  62              	.LBE39:
  63              	.LBE38:
  64              		.loc 1 138 0
  65 0010 0D4D     		ldr	r5, .L5
  66 0012 2C69     		ldr	r4, [r5, #16]
  67              	.LVL4:
  68              		.loc 1 140 0
  69 0014 94F82230 		ldrb	r3, [r4, #34]	@ zero_extendqisi2
  70 0018 0133     		adds	r3, r3, #1
  71 001a 84F82230 		strb	r3, [r4, #34]
  72              	.LBB43:
  73              	.LBB44:
  74              		.loc 3 367 0
  75 001e FFF7FEFF 		bl	_dbg_check_unlock
  76              	.LVL5:
  77              		.loc 3 368 0
  78 0022 FFF7FEFF 		bl	_stats_stop_measure_crit_thd
  79              	.LVL6:
  80              		.loc 3 374 0
  81 0026 2B68     		ldr	r3, [r5]
  82 0028 AB42     		cmp	r3, r5
  83 002a 04D0     		beq	.L2
  84 002c AA69     		ldr	r2, [r5, #24]
  85 002e 9268     		ldr	r2, [r2, #8]
  86 0030 9B68     		ldr	r3, [r3, #8]
  87 0032 9A42     		cmp	r2, r3
  88 0034 04D3     		bcc	.L4
  89              	.L2:
  90              	.LVL7:
  91              	.LBB45:
  92              	.LBB46:
  93              	.LBB47:
  94              		.loc 2 493 0
  95 0036 0023     		movs	r3, #0
  96              		.syntax unified
  97              	@ 493 "../../../ChibiOSRepo/chibios191/os/common/ext/ARM/CMSIS/Core/Include/cmsis_gcc.h" 1
  98 0038 83F31188 		MSR basepri, r3
  99              	@ 0 "" 2
 100              	.LVL8:
 101              		.thumb
 102              		.syntax unified
 103              	.LBE47:
 104              	.LBE46:
 105              	.LBE45:
 106              	.LBE44:
 107              	.LBE43:
 108              		.loc 1 145 0
 109 003c 2046     		mov	r0, r4
 110 003e 38BD     		pop	{r3, r4, r5, pc}
 111              	.LVL9:
 112              	.L4:
 113              	.LBB49:
 114              	.LBB48:
ARM GAS  C:\Users\RAKIBU~1\AppData\Local\Temp\ccL5M507.s 			page 3


 115              		.loc 3 374 0
 116 0040 0248     		ldr	r0, .L5+4
 117 0042 FFF7FEFF 		bl	chSysHalt
 118              	.LVL10:
 119 0046 F6E7     		b	.L2
 120              	.L6:
 121              		.align	2
 122              	.L5:
 123 0048 00000000 		.word	ch
 124 004c 00000000 		.word	.LANCHOR0
 125              	.LBE48:
 126              	.LBE49:
 127              		.cfi_endproc
 128              	.LFE295:
 129              		.size	chRegFirstThread, .-chRegFirstThread
 130              		.align	1
 131              		.p2align 4,,15
 132              		.global	chRegNextThread
 133              		.syntax unified
 134              		.thumb
 135              		.thumb_func
 136              		.fpu softvfp
 137              		.type	chRegNextThread, %function
 138              	chRegNextThread:
 139              	.LFB296:
 140              		.loc 1 158 0
 141              		.cfi_startproc
 142              		@ args = 0, pretend = 0, frame = 0
 143              		@ frame_needed = 0, uses_anonymous_args = 0
 144              	.LVL11:
 145 0050 38B5     		push	{r3, r4, r5, lr}
 146              		.cfi_def_cfa_offset 16
 147              		.cfi_offset 3, -16
 148              		.cfi_offset 4, -12
 149              		.cfi_offset 5, -8
 150              		.cfi_offset 14, -4
 151 0052 0546     		mov	r5, r0
 152              	.LVL12:
 153              	.LBB60:
 154              	.LBB61:
 155              	.LBB62:
 156              	.LBB63:
 157              	.LBB64:
 158              		.loc 2 493 0
 159 0054 2023     		movs	r3, #32
 160              		.syntax unified
 161              	@ 493 "../../../ChibiOSRepo/chibios191/os/common/ext/ARM/CMSIS/Core/Include/cmsis_gcc.h" 1
 162 0056 83F31188 		MSR basepri, r3
 163              	@ 0 "" 2
 164              	.LVL13:
 165              		.thumb
 166              		.syntax unified
 167              	.LBE64:
 168              	.LBE63:
 169              	.LBE62:
 170              		.loc 3 356 0
 171 005a FFF7FEFF 		bl	_stats_start_measure_crit_thd
ARM GAS  C:\Users\RAKIBU~1\AppData\Local\Temp\ccL5M507.s 			page 4


 172              	.LVL14:
 173              		.loc 3 357 0
 174 005e FFF7FEFF 		bl	_dbg_check_lock
 175              	.LVL15:
 176              	.LBE61:
 177              	.LBE60:
 178              		.loc 1 162 0
 179 0062 2C69     		ldr	r4, [r5, #16]
 180              	.LVL16:
 181              		.loc 1 164 0
 182 0064 154B     		ldr	r3, .L15
 183 0066 9C42     		cmp	r4, r3
 184 0068 21D0     		beq	.L11
 185              		.loc 1 170 0 discriminator 1
 186 006a 94F82230 		ldrb	r3, [r4, #34]	@ zero_extendqisi2
 187 006e FF2B     		cmp	r3, #255
 188 0070 19D0     		beq	.L13
 189              	.L9:
 190              		.loc 1 171 0
 191 0072 94F82230 		ldrb	r3, [r4, #34]	@ zero_extendqisi2
 192 0076 0133     		adds	r3, r3, #1
 193 0078 84F82230 		strb	r3, [r4, #34]
 194              	.LVL17:
 195              	.L8:
 196              	.LBB65:
 197              	.LBB66:
 198              		.loc 3 367 0
 199 007c FFF7FEFF 		bl	_dbg_check_unlock
 200              	.LVL18:
 201              		.loc 3 368 0
 202 0080 FFF7FEFF 		bl	_stats_stop_measure_crit_thd
 203              	.LVL19:
 204              		.loc 3 374 0
 205 0084 0D4B     		ldr	r3, .L15
 206 0086 1A68     		ldr	r2, [r3]
 207 0088 9A42     		cmp	r2, r3
 208 008a 04D0     		beq	.L10
 209 008c 9B69     		ldr	r3, [r3, #24]
 210 008e 9968     		ldr	r1, [r3, #8]
 211 0090 9368     		ldr	r3, [r2, #8]
 212 0092 9942     		cmp	r1, r3
 213 0094 0DD3     		bcc	.L14
 214              	.L10:
 215              	.LVL20:
 216              	.LBB67:
 217              	.LBB68:
 218              	.LBB69:
 219              		.loc 2 493 0
 220 0096 0023     		movs	r3, #0
 221              		.syntax unified
 222              	@ 493 "../../../ChibiOSRepo/chibios191/os/common/ext/ARM/CMSIS/Core/Include/cmsis_gcc.h" 1
 223 0098 83F31188 		MSR basepri, r3
 224              	@ 0 "" 2
 225              	.LVL21:
 226              		.thumb
 227              		.syntax unified
 228              	.LBE69:
ARM GAS  C:\Users\RAKIBU~1\AppData\Local\Temp\ccL5M507.s 			page 5


 229              	.LBE68:
 230              	.LBE67:
 231              	.LBE66:
 232              	.LBE65:
 233              		.loc 1 176 0
 234 009c 2846     		mov	r0, r5
 235 009e FFF7FEFF 		bl	chThdRelease
 236              	.LVL22:
 237              		.loc 1 180 0
 238 00a2 2046     		mov	r0, r4
 239 00a4 38BD     		pop	{r3, r4, r5, pc}
 240              	.LVL23:
 241              	.L13:
 242              		.loc 1 170 0 discriminator 2
 243 00a6 0648     		ldr	r0, .L15+4
 244 00a8 FFF7FEFF 		bl	chSysHalt
 245              	.LVL24:
 246 00ac E1E7     		b	.L9
 247              	.L11:
 248              		.loc 1 166 0
 249 00ae 0024     		movs	r4, #0
 250              	.LVL25:
 251 00b0 E4E7     		b	.L8
 252              	.LVL26:
 253              	.L14:
 254              	.LBB71:
 255              	.LBB70:
 256              		.loc 3 374 0
 257 00b2 0448     		ldr	r0, .L15+8
 258 00b4 FFF7FEFF 		bl	chSysHalt
 259              	.LVL27:
 260 00b8 EDE7     		b	.L10
 261              	.L16:
 262 00ba 00BF     		.align	2
 263              	.L15:
 264 00bc 00000000 		.word	ch
 265 00c0 0C000000 		.word	.LANCHOR0+12
 266 00c4 00000000 		.word	.LANCHOR0
 267              	.LBE70:
 268              	.LBE71:
 269              		.cfi_endproc
 270              	.LFE296:
 271              		.size	chRegNextThread, .-chRegNextThread
 272              		.align	1
 273 00c8 AFF30080 		.p2align 4,,15
 273      AFF30080 
 274              		.global	chRegFindThreadByName
 275              		.syntax unified
 276              		.thumb
 277              		.thumb_func
 278              		.fpu softvfp
 279              		.type	chRegFindThreadByName, %function
 280              	chRegFindThreadByName:
 281              	.LFB297:
 282              		.loc 1 194 0
 283              		.cfi_startproc
 284              		@ args = 0, pretend = 0, frame = 0
ARM GAS  C:\Users\RAKIBU~1\AppData\Local\Temp\ccL5M507.s 			page 6


 285              		@ frame_needed = 0, uses_anonymous_args = 0
 286              	.LVL28:
 287 00d0 38B5     		push	{r3, r4, r5, lr}
 288              		.cfi_def_cfa_offset 16
 289              		.cfi_offset 3, -16
 290              		.cfi_offset 4, -12
 291              		.cfi_offset 5, -8
 292              		.cfi_offset 14, -4
 293 00d2 0546     		mov	r5, r0
 294              		.loc 1 198 0
 295 00d4 FFF7FEFF 		bl	chRegFirstThread
 296              	.LVL29:
 297 00d8 0446     		mov	r4, r0
 298              	.LVL30:
 299              	.L19:
 300              		.loc 1 200 0
 301 00da 2946     		mov	r1, r5
 302 00dc A069     		ldr	r0, [r4, #24]
 303              	.LVL31:
 304 00de FFF7FEFF 		bl	strcmp
 305              	.LVL32:
 306 00e2 28B1     		cbz	r0, .L17
 307              		.loc 1 203 0
 308 00e4 2046     		mov	r0, r4
 309 00e6 FFF7FEFF 		bl	chRegNextThread
 310              	.LVL33:
 311              		.loc 1 204 0
 312 00ea 0446     		mov	r4, r0
 313 00ec 0028     		cmp	r0, #0
 314 00ee F4D1     		bne	.L19
 315              	.LVL34:
 316              	.L17:
 317              		.loc 1 207 0
 318 00f0 2046     		mov	r0, r4
 319 00f2 38BD     		pop	{r3, r4, r5, pc}
 320              		.cfi_endproc
 321              	.LFE297:
 322              		.size	chRegFindThreadByName, .-chRegFindThreadByName
 323              		.align	1
 324 00f4 AFF30080 		.p2align 4,,15
 324      AFF30080 
 324      AFF30080 
 325              		.global	chRegFindThreadByPointer
 326              		.syntax unified
 327              		.thumb
 328              		.thumb_func
 329              		.fpu softvfp
 330              		.type	chRegFindThreadByPointer, %function
 331              	chRegFindThreadByPointer:
 332              	.LFB298:
 333              		.loc 1 221 0
 334              		.cfi_startproc
 335              		@ args = 0, pretend = 0, frame = 0
 336              		@ frame_needed = 0, uses_anonymous_args = 0
 337              	.LVL35:
 338 0100 10B5     		push	{r4, lr}
 339              		.cfi_def_cfa_offset 8
ARM GAS  C:\Users\RAKIBU~1\AppData\Local\Temp\ccL5M507.s 			page 7


 340              		.cfi_offset 4, -8
 341              		.cfi_offset 14, -4
 342 0102 0446     		mov	r4, r0
 343              		.loc 1 225 0
 344 0104 FFF7FEFF 		bl	chRegFirstThread
 345              	.LVL36:
 346 0108 0346     		mov	r3, r0
 347              	.LVL37:
 348              	.L23:
 349              		.loc 1 227 0
 350 010a A342     		cmp	r3, r4
 351 010c 05D0     		beq	.L21
 352              		.loc 1 230 0
 353 010e 1846     		mov	r0, r3
 354 0110 FFF7FEFF 		bl	chRegNextThread
 355              	.LVL38:
 356              		.loc 1 231 0
 357 0114 0346     		mov	r3, r0
 358 0116 0028     		cmp	r0, #0
 359 0118 F7D1     		bne	.L23
 360              	.L21:
 361              		.loc 1 234 0
 362 011a 1846     		mov	r0, r3
 363              	.LVL39:
 364 011c 10BD     		pop	{r4, pc}
 365              		.cfi_endproc
 366              	.LFE298:
 367              		.size	chRegFindThreadByPointer, .-chRegFindThreadByPointer
 368              		.align	1
 369 011e 00BF     		.p2align 4,,15
 370              		.global	chRegFindThreadByWorkingArea
 371              		.syntax unified
 372              		.thumb
 373              		.thumb_func
 374              		.fpu softvfp
 375              		.type	chRegFindThreadByWorkingArea, %function
 376              	chRegFindThreadByWorkingArea:
 377              	.LFB299:
 378              		.loc 1 250 0
 379              		.cfi_startproc
 380              		@ args = 0, pretend = 0, frame = 0
 381              		@ frame_needed = 0, uses_anonymous_args = 0
 382              	.LVL40:
 383 0120 10B5     		push	{r4, lr}
 384              		.cfi_def_cfa_offset 8
 385              		.cfi_offset 4, -8
 386              		.cfi_offset 14, -4
 387 0122 0446     		mov	r4, r0
 388              		.loc 1 254 0
 389 0124 FFF7FEFF 		bl	chRegFirstThread
 390              	.LVL41:
 391 0128 0346     		mov	r3, r0
 392              	.LVL42:
 393              	.L27:
 394              	.LBB72:
 395              	.LBB73:
 396              		.file 4 "../../../ChibiOSRepo/chibios191/os/rt/include/chthreads.h"
ARM GAS  C:\Users\RAKIBU~1\AppData\Local\Temp\ccL5M507.s 			page 8


 397              		.loc 4 319 0
 398 012a DA69     		ldr	r2, [r3, #28]
 399              	.LVL43:
 400              	.LBE73:
 401              	.LBE72:
 402              		.loc 1 256 0
 403 012c A242     		cmp	r2, r4
 404 012e 05D0     		beq	.L25
 405              		.loc 1 259 0
 406 0130 1846     		mov	r0, r3
 407 0132 FFF7FEFF 		bl	chRegNextThread
 408              	.LVL44:
 409              		.loc 1 260 0
 410 0136 0346     		mov	r3, r0
 411 0138 0028     		cmp	r0, #0
 412 013a F6D1     		bne	.L27
 413              	.L25:
 414              		.loc 1 263 0
 415 013c 1846     		mov	r0, r3
 416              	.LVL45:
 417 013e 10BD     		pop	{r4, pc}
 418              		.cfi_endproc
 419              	.LFE299:
 420              		.size	chRegFindThreadByWorkingArea, .-chRegFindThreadByWorkingArea
 421              		.global	ch_debug
 422              		.section	.rodata
 423              		.align	2
 424              		.set	.LANCHOR0,. + 0
 425              		.type	__func__.6519, %object
 426              		.size	__func__.6519, 12
 427              	__func__.6519:
 428 0000 63685379 		.ascii	"chSysUnlock\000"
 428      73556E6C 
 428      6F636B00 
 429              		.type	__func__.7513, %object
 430              		.size	__func__.7513, 16
 431              	__func__.7513:
 432 000c 63685265 		.ascii	"chRegNextThread\000"
 432      674E6578 
 432      74546872 
 432      65616400 
 433              		.type	ch_debug, %object
 434              		.size	ch_debug, 22
 435              	ch_debug:
 436 001c 6D       		.byte	109
 437 001d 61       		.byte	97
 438 001e 69       		.byte	105
 439 001f 6E       		.byte	110
 440 0020 00       		.byte	0
 441 0021 16       		.byte	22
 442 0022 0430     		.short	12292
 443 0024 04       		.byte	4
 444 0025 04       		.byte	4
 445 0026 60       		.byte	96
 446 0027 08       		.byte	8
 447 0028 0C       		.byte	12
 448 0029 10       		.byte	16
ARM GAS  C:\Users\RAKIBU~1\AppData\Local\Temp\ccL5M507.s 			page 9


 449 002a 14       		.byte	20
 450 002b 18       		.byte	24
 451 002c 1C       		.byte	28
 452 002d 20       		.byte	32
 453 002e 21       		.byte	33
 454 002f 22       		.byte	34
 455 0030 00       		.byte	0
 456 0031 00       		.byte	0
 457              		.text
 458              	.Letext0:
 459              		.file 5 "c:\\chibistudio\\tools\\gnu tools arm embedded\\7.0 2017q4\\lib\\gcc\\arm-none-eabi\\7.2.
 460              		.file 6 "c:\\chibistudio\\tools\\gnu tools arm embedded\\7.0 2017q4\\arm-none-eabi\\include\\machi
 461              		.file 7 "c:\\chibistudio\\tools\\gnu tools arm embedded\\7.0 2017q4\\arm-none-eabi\\include\\sys\\
 462              		.file 8 "c:\\chibistudio\\tools\\gnu tools arm embedded\\7.0 2017q4\\arm-none-eabi\\include\\sys\\
 463              		.file 9 "c:\\chibistudio\\tools\\gnu tools arm embedded\\7.0 2017q4\\arm-none-eabi\\include\\sys\\
 464              		.file 10 "c:\\chibistudio\\tools\\gnu tools arm embedded\\7.0 2017q4\\arm-none-eabi\\include\\sys\
 465              		.file 11 "../../../ChibiOSRepo/chibios191/os/common/ports/ARMCMx/compilers/GCC/chtypes.h"
 466              		.file 12 "../../../ChibiOSRepo/chibios191/os/rt/include/chsystypes.h"
 467              		.file 13 "../../../ChibiOSRepo/chibios191/os/rt/include/chschd.h"
 468              		.file 14 "../../../ChibiOSRepo/chibios191/os/rt/include/chtime.h"
 469              		.file 15 "../../../ChibiOSRepo/chibios191/os/common/ext/ARM/CMSIS/Core/Include/core_cm4.h"
 470              		.file 16 "../../../ChibiOSRepo/chibios191/os/common/ext/ST/STM32F4xx/system_stm32f4xx.h"
 471              		.file 17 "../../../ChibiOSRepo/chibios191/os/common/ports/ARMCMx/chcore.h"
 472              		.file 18 "../../../ChibiOSRepo/chibios191/os/common/ports/ARMCMx/chcore_v7m.h"
 473              		.file 19 "../../../ChibiOSRepo/chibios191/os/rt/include/chtrace.h"
 474              		.file 20 "../../../ChibiOSRepo/chibios191/os/rt/include/chtm.h"
 475              		.file 21 "../../../ChibiOSRepo/chibios191/os/rt/include/chstats.h"
 476              		.file 22 "../../../ChibiOSRepo/chibios191/os/rt/include/chsem.h"
 477              		.file 23 "../../../ChibiOSRepo/chibios191/os/rt/include/chmtx.h"
 478              		.file 24 "../../../ChibiOSRepo/chibios191/os/rt/include/chregistry.h"
 479              		.file 25 "../../../ChibiOSRepo/chibios191/os/oslib/include/chmemcore.h"
 480              		.file 26 "../../../ChibiOSRepo/chibios191/os/oslib/include/chmempools.h"
 481              		.file 27 "../../../ChibiOSRepo/chibios191/os/oslib/include/chfactory.h"
 482              		.file 28 "c:\\chibistudio\\tools\\gnu tools arm embedded\\7.0 2017q4\\arm-none-eabi\\include\\stri
 483              		.file 29 "../../../ChibiOSRepo/chibios191/os/rt/include/chdebug.h"
 484              		.file 30 "../../../ChibiOSRepo/chibios191/os/rt/include/ch.h"
 485              		.section	.debug_info,"",%progbits
 486              	.Ldebug_info0:
 487 0000 0D180000 		.4byte	0x180d
 488 0004 0400     		.2byte	0x4
 489 0006 00000000 		.4byte	.Ldebug_abbrev0
 490 000a 04       		.byte	0x4
 491 000b 01       		.uleb128 0x1
 492 000c D5040000 		.4byte	.LASF302
 493 0010 0C       		.byte	0xc
 494 0011 1F030000 		.4byte	.LASF303
 495 0015 C2090000 		.4byte	.LASF304
 496 0019 00000000 		.4byte	.Ltext0
 497 001d 40010000 		.4byte	.Letext0-.Ltext0
 498 0021 00000000 		.4byte	.Ldebug_line0
 499 0025 02       		.uleb128 0x2
 500 0026 04       		.byte	0x4
 501 0027 05       		.byte	0x5
 502 0028 696E7400 		.ascii	"int\000"
 503 002c 03       		.uleb128 0x3
 504 002d 08000000 		.4byte	.LASF4
 505 0031 05       		.byte	0x5
ARM GAS  C:\Users\RAKIBU~1\AppData\Local\Temp\ccL5M507.s 			page 10


 506 0032 D8       		.byte	0xd8
 507 0033 37000000 		.4byte	0x37
 508 0037 04       		.uleb128 0x4
 509 0038 04       		.byte	0x4
 510 0039 07       		.byte	0x7
 511 003a 91070000 		.4byte	.LASF0
 512 003e 04       		.uleb128 0x4
 513 003f 08       		.byte	0x8
 514 0040 05       		.byte	0x5
 515 0041 F7060000 		.4byte	.LASF1
 516 0045 04       		.uleb128 0x4
 517 0046 08       		.byte	0x8
 518 0047 04       		.byte	0x4
 519 0048 6A080000 		.4byte	.LASF2
 520 004c 04       		.uleb128 0x4
 521 004d 01       		.byte	0x1
 522 004e 06       		.byte	0x6
 523 004f B1020000 		.4byte	.LASF3
 524 0053 03       		.uleb128 0x3
 525 0054 BB010000 		.4byte	.LASF5
 526 0058 06       		.byte	0x6
 527 0059 2B       		.byte	0x2b
 528 005a 5E000000 		.4byte	0x5e
 529 005e 04       		.uleb128 0x4
 530 005f 01       		.byte	0x1
 531 0060 08       		.byte	0x8
 532 0061 08030000 		.4byte	.LASF6
 533 0065 04       		.uleb128 0x4
 534 0066 02       		.byte	0x2
 535 0067 05       		.byte	0x5
 536 0068 2F0B0000 		.4byte	.LASF7
 537 006c 03       		.uleb128 0x3
 538 006d E0030000 		.4byte	.LASF8
 539 0071 06       		.byte	0x6
 540 0072 39       		.byte	0x39
 541 0073 77000000 		.4byte	0x77
 542 0077 04       		.uleb128 0x4
 543 0078 02       		.byte	0x2
 544 0079 07       		.byte	0x7
 545 007a 710C0000 		.4byte	.LASF9
 546 007e 03       		.uleb128 0x3
 547 007f D40C0000 		.4byte	.LASF10
 548 0083 06       		.byte	0x6
 549 0084 4D       		.byte	0x4d
 550 0085 89000000 		.4byte	0x89
 551 0089 04       		.uleb128 0x4
 552 008a 04       		.byte	0x4
 553 008b 05       		.byte	0x5
 554 008c E7010000 		.4byte	.LASF11
 555 0090 03       		.uleb128 0x3
 556 0091 D9060000 		.4byte	.LASF12
 557 0095 06       		.byte	0x6
 558 0096 4F       		.byte	0x4f
 559 0097 9B000000 		.4byte	0x9b
 560 009b 04       		.uleb128 0x4
 561 009c 04       		.byte	0x4
 562 009d 07       		.byte	0x7
ARM GAS  C:\Users\RAKIBU~1\AppData\Local\Temp\ccL5M507.s 			page 11


 563 009e 9B050000 		.4byte	.LASF13
 564 00a2 03       		.uleb128 0x3
 565 00a3 75050000 		.4byte	.LASF14
 566 00a7 06       		.byte	0x6
 567 00a8 69       		.byte	0x69
 568 00a9 AD000000 		.4byte	0xad
 569 00ad 04       		.uleb128 0x4
 570 00ae 08       		.byte	0x8
 571 00af 07       		.byte	0x7
 572 00b0 2E090000 		.4byte	.LASF15
 573 00b4 03       		.uleb128 0x3
 574 00b5 F20B0000 		.4byte	.LASF16
 575 00b9 07       		.byte	0x7
 576 00ba 22       		.byte	0x22
 577 00bb BF000000 		.4byte	0xbf
 578 00bf 05       		.uleb128 0x5
 579 00c0 04       		.byte	0x4
 580 00c1 C5000000 		.4byte	0xc5
 581 00c5 06       		.uleb128 0x6
 582 00c6 98040000 		.4byte	.LASF123
 583 00ca 03       		.uleb128 0x3
 584 00cb 5E0C0000 		.4byte	.LASF17
 585 00cf 08       		.byte	0x8
 586 00d0 2C       		.byte	0x2c
 587 00d1 89000000 		.4byte	0x89
 588 00d5 03       		.uleb128 0x3
 589 00d6 C3080000 		.4byte	.LASF18
 590 00da 08       		.byte	0x8
 591 00db 72       		.byte	0x72
 592 00dc 89000000 		.4byte	0x89
 593 00e0 07       		.uleb128 0x7
 594 00e1 BB0A0000 		.4byte	.LASF19
 595 00e5 05       		.byte	0x5
 596 00e6 6501     		.2byte	0x165
 597 00e8 37000000 		.4byte	0x37
 598 00ec 08       		.uleb128 0x8
 599 00ed 04       		.byte	0x4
 600 00ee 08       		.byte	0x8
 601 00ef A6       		.byte	0xa6
 602 00f0 0B010000 		.4byte	0x10b
 603 00f4 09       		.uleb128 0x9
 604 00f5 AC010000 		.4byte	.LASF20
 605 00f9 08       		.byte	0x8
 606 00fa A8       		.byte	0xa8
 607 00fb E0000000 		.4byte	0xe0
 608 00ff 09       		.uleb128 0x9
 609 0100 CB080000 		.4byte	.LASF21
 610 0104 08       		.byte	0x8
 611 0105 A9       		.byte	0xa9
 612 0106 0B010000 		.4byte	0x10b
 613 010a 00       		.byte	0
 614 010b 0A       		.uleb128 0xa
 615 010c 5E000000 		.4byte	0x5e
 616 0110 1B010000 		.4byte	0x11b
 617 0114 0B       		.uleb128 0xb
 618 0115 37000000 		.4byte	0x37
 619 0119 03       		.byte	0x3
ARM GAS  C:\Users\RAKIBU~1\AppData\Local\Temp\ccL5M507.s 			page 12


 620 011a 00       		.byte	0
 621 011b 0C       		.uleb128 0xc
 622 011c 08       		.byte	0x8
 623 011d 08       		.byte	0x8
 624 011e A3       		.byte	0xa3
 625 011f 3C010000 		.4byte	0x13c
 626 0123 0D       		.uleb128 0xd
 627 0124 42080000 		.4byte	.LASF22
 628 0128 08       		.byte	0x8
 629 0129 A5       		.byte	0xa5
 630 012a 25000000 		.4byte	0x25
 631 012e 00       		.byte	0
 632 012f 0D       		.uleb128 0xd
 633 0130 2A000000 		.4byte	.LASF23
 634 0134 08       		.byte	0x8
 635 0135 AA       		.byte	0xaa
 636 0136 EC000000 		.4byte	0xec
 637 013a 04       		.byte	0x4
 638 013b 00       		.byte	0
 639 013c 03       		.uleb128 0x3
 640 013d A40A0000 		.4byte	.LASF24
 641 0141 08       		.byte	0x8
 642 0142 AB       		.byte	0xab
 643 0143 1B010000 		.4byte	0x11b
 644 0147 03       		.uleb128 0x3
 645 0148 740A0000 		.4byte	.LASF25
 646 014c 08       		.byte	0x8
 647 014d AF       		.byte	0xaf
 648 014e B4000000 		.4byte	0xb4
 649 0152 0E       		.uleb128 0xe
 650 0153 04       		.byte	0x4
 651 0154 05       		.uleb128 0x5
 652 0155 04       		.byte	0x4
 653 0156 5A010000 		.4byte	0x15a
 654 015a 04       		.uleb128 0x4
 655 015b 01       		.byte	0x1
 656 015c 08       		.byte	0x8
 657 015d C6030000 		.4byte	.LASF26
 658 0161 0F       		.uleb128 0xf
 659 0162 5A010000 		.4byte	0x15a
 660 0166 03       		.uleb128 0x3
 661 0167 3F0C0000 		.4byte	.LASF27
 662 016b 09       		.byte	0x9
 663 016c 16       		.byte	0x16
 664 016d 9B000000 		.4byte	0x9b
 665 0171 10       		.uleb128 0x10
 666 0172 95060000 		.4byte	.LASF32
 667 0176 18       		.byte	0x18
 668 0177 09       		.byte	0x9
 669 0178 2F       		.byte	0x2f
 670 0179 C4010000 		.4byte	0x1c4
 671 017d 0D       		.uleb128 0xd
 672 017e D00A0000 		.4byte	.LASF28
 673 0182 09       		.byte	0x9
 674 0183 31       		.byte	0x31
 675 0184 C4010000 		.4byte	0x1c4
 676 0188 00       		.byte	0
ARM GAS  C:\Users\RAKIBU~1\AppData\Local\Temp\ccL5M507.s 			page 13


 677 0189 11       		.uleb128 0x11
 678 018a 5F6B00   		.ascii	"_k\000"
 679 018d 09       		.byte	0x9
 680 018e 32       		.byte	0x32
 681 018f 25000000 		.4byte	0x25
 682 0193 04       		.byte	0x4
 683 0194 0D       		.uleb128 0xd
 684 0195 AD060000 		.4byte	.LASF29
 685 0199 09       		.byte	0x9
 686 019a 32       		.byte	0x32
 687 019b 25000000 		.4byte	0x25
 688 019f 08       		.byte	0x8
 689 01a0 0D       		.uleb128 0xd
 690 01a1 76070000 		.4byte	.LASF30
 691 01a5 09       		.byte	0x9
 692 01a6 32       		.byte	0x32
 693 01a7 25000000 		.4byte	0x25
 694 01ab 0C       		.byte	0xc
 695 01ac 0D       		.uleb128 0xd
 696 01ad 85040000 		.4byte	.LASF31
 697 01b1 09       		.byte	0x9
 698 01b2 32       		.byte	0x32
 699 01b3 25000000 		.4byte	0x25
 700 01b7 10       		.byte	0x10
 701 01b8 11       		.uleb128 0x11
 702 01b9 5F7800   		.ascii	"_x\000"
 703 01bc 09       		.byte	0x9
 704 01bd 33       		.byte	0x33
 705 01be CA010000 		.4byte	0x1ca
 706 01c2 14       		.byte	0x14
 707 01c3 00       		.byte	0
 708 01c4 05       		.uleb128 0x5
 709 01c5 04       		.byte	0x4
 710 01c6 71010000 		.4byte	0x171
 711 01ca 0A       		.uleb128 0xa
 712 01cb 66010000 		.4byte	0x166
 713 01cf DA010000 		.4byte	0x1da
 714 01d3 0B       		.uleb128 0xb
 715 01d4 37000000 		.4byte	0x37
 716 01d8 00       		.byte	0
 717 01d9 00       		.byte	0
 718 01da 10       		.uleb128 0x10
 719 01db DD000000 		.4byte	.LASF33
 720 01df 24       		.byte	0x24
 721 01e0 09       		.byte	0x9
 722 01e1 37       		.byte	0x37
 723 01e2 53020000 		.4byte	0x253
 724 01e6 0D       		.uleb128 0xd
 725 01e7 F9000000 		.4byte	.LASF34
 726 01eb 09       		.byte	0x9
 727 01ec 39       		.byte	0x39
 728 01ed 25000000 		.4byte	0x25
 729 01f1 00       		.byte	0
 730 01f2 0D       		.uleb128 0xd
 731 01f3 0B0D0000 		.4byte	.LASF35
 732 01f7 09       		.byte	0x9
 733 01f8 3A       		.byte	0x3a
ARM GAS  C:\Users\RAKIBU~1\AppData\Local\Temp\ccL5M507.s 			page 14


 734 01f9 25000000 		.4byte	0x25
 735 01fd 04       		.byte	0x4
 736 01fe 0D       		.uleb128 0xd
 737 01ff 840C0000 		.4byte	.LASF36
 738 0203 09       		.byte	0x9
 739 0204 3B       		.byte	0x3b
 740 0205 25000000 		.4byte	0x25
 741 0209 08       		.byte	0x8
 742 020a 0D       		.uleb128 0xd
 743 020b C3070000 		.4byte	.LASF37
 744 020f 09       		.byte	0x9
 745 0210 3C       		.byte	0x3c
 746 0211 25000000 		.4byte	0x25
 747 0215 0C       		.byte	0xc
 748 0216 0D       		.uleb128 0xd
 749 0217 57020000 		.4byte	.LASF38
 750 021b 09       		.byte	0x9
 751 021c 3D       		.byte	0x3d
 752 021d 25000000 		.4byte	0x25
 753 0221 10       		.byte	0x10
 754 0222 0D       		.uleb128 0xd
 755 0223 930B0000 		.4byte	.LASF39
 756 0227 09       		.byte	0x9
 757 0228 3E       		.byte	0x3e
 758 0229 25000000 		.4byte	0x25
 759 022d 14       		.byte	0x14
 760 022e 0D       		.uleb128 0xd
 761 022f 57080000 		.4byte	.LASF40
 762 0233 09       		.byte	0x9
 763 0234 3F       		.byte	0x3f
 764 0235 25000000 		.4byte	0x25
 765 0239 18       		.byte	0x18
 766 023a 0D       		.uleb128 0xd
 767 023b 76080000 		.4byte	.LASF41
 768 023f 09       		.byte	0x9
 769 0240 40       		.byte	0x40
 770 0241 25000000 		.4byte	0x25
 771 0245 1C       		.byte	0x1c
 772 0246 0D       		.uleb128 0xd
 773 0247 FB0C0000 		.4byte	.LASF42
 774 024b 09       		.byte	0x9
 775 024c 41       		.byte	0x41
 776 024d 25000000 		.4byte	0x25
 777 0251 20       		.byte	0x20
 778 0252 00       		.byte	0
 779 0253 12       		.uleb128 0x12
 780 0254 CB010000 		.4byte	.LASF43
 781 0258 0801     		.2byte	0x108
 782 025a 09       		.byte	0x9
 783 025b 4A       		.byte	0x4a
 784 025c 93020000 		.4byte	0x293
 785 0260 0D       		.uleb128 0xd
 786 0261 F30C0000 		.4byte	.LASF44
 787 0265 09       		.byte	0x9
 788 0266 4B       		.byte	0x4b
 789 0267 93020000 		.4byte	0x293
 790 026b 00       		.byte	0
ARM GAS  C:\Users\RAKIBU~1\AppData\Local\Temp\ccL5M507.s 			page 15


 791 026c 0D       		.uleb128 0xd
 792 026d 57090000 		.4byte	.LASF45
 793 0271 09       		.byte	0x9
 794 0272 4C       		.byte	0x4c
 795 0273 93020000 		.4byte	0x293
 796 0277 80       		.byte	0x80
 797 0278 13       		.uleb128 0x13
 798 0279 6F0B0000 		.4byte	.LASF46
 799 027d 09       		.byte	0x9
 800 027e 4E       		.byte	0x4e
 801 027f 66010000 		.4byte	0x166
 802 0283 0001     		.2byte	0x100
 803 0285 13       		.uleb128 0x13
 804 0286 EA0B0000 		.4byte	.LASF47
 805 028a 09       		.byte	0x9
 806 028b 51       		.byte	0x51
 807 028c 66010000 		.4byte	0x166
 808 0290 0401     		.2byte	0x104
 809 0292 00       		.byte	0
 810 0293 0A       		.uleb128 0xa
 811 0294 52010000 		.4byte	0x152
 812 0298 A3020000 		.4byte	0x2a3
 813 029c 0B       		.uleb128 0xb
 814 029d 37000000 		.4byte	0x37
 815 02a1 1F       		.byte	0x1f
 816 02a2 00       		.byte	0
 817 02a3 12       		.uleb128 0x12
 818 02a4 3A080000 		.4byte	.LASF48
 819 02a8 9001     		.2byte	0x190
 820 02aa 09       		.byte	0x9
 821 02ab 5D       		.byte	0x5d
 822 02ac E1020000 		.4byte	0x2e1
 823 02b0 0D       		.uleb128 0xd
 824 02b1 D00A0000 		.4byte	.LASF28
 825 02b5 09       		.byte	0x9
 826 02b6 5E       		.byte	0x5e
 827 02b7 E1020000 		.4byte	0x2e1
 828 02bb 00       		.byte	0
 829 02bc 0D       		.uleb128 0xd
 830 02bd BE0B0000 		.4byte	.LASF49
 831 02c1 09       		.byte	0x9
 832 02c2 5F       		.byte	0x5f
 833 02c3 25000000 		.4byte	0x25
 834 02c7 04       		.byte	0x4
 835 02c8 0D       		.uleb128 0xd
 836 02c9 CB030000 		.4byte	.LASF50
 837 02cd 09       		.byte	0x9
 838 02ce 61       		.byte	0x61
 839 02cf E7020000 		.4byte	0x2e7
 840 02d3 08       		.byte	0x8
 841 02d4 0D       		.uleb128 0xd
 842 02d5 CB010000 		.4byte	.LASF43
 843 02d9 09       		.byte	0x9
 844 02da 62       		.byte	0x62
 845 02db 53020000 		.4byte	0x253
 846 02df 88       		.byte	0x88
 847 02e0 00       		.byte	0
ARM GAS  C:\Users\RAKIBU~1\AppData\Local\Temp\ccL5M507.s 			page 16


 848 02e1 05       		.uleb128 0x5
 849 02e2 04       		.byte	0x4
 850 02e3 A3020000 		.4byte	0x2a3
 851 02e7 0A       		.uleb128 0xa
 852 02e8 F7020000 		.4byte	0x2f7
 853 02ec F7020000 		.4byte	0x2f7
 854 02f0 0B       		.uleb128 0xb
 855 02f1 37000000 		.4byte	0x37
 856 02f5 1F       		.byte	0x1f
 857 02f6 00       		.byte	0
 858 02f7 05       		.uleb128 0x5
 859 02f8 04       		.byte	0x4
 860 02f9 FD020000 		.4byte	0x2fd
 861 02fd 14       		.uleb128 0x14
 862 02fe 10       		.uleb128 0x10
 863 02ff D50B0000 		.4byte	.LASF51
 864 0303 08       		.byte	0x8
 865 0304 09       		.byte	0x9
 866 0305 75       		.byte	0x75
 867 0306 23030000 		.4byte	0x323
 868 030a 0D       		.uleb128 0xd
 869 030b 99090000 		.4byte	.LASF52
 870 030f 09       		.byte	0x9
 871 0310 76       		.byte	0x76
 872 0311 23030000 		.4byte	0x323
 873 0315 00       		.byte	0
 874 0316 0D       		.uleb128 0xd
 875 0317 12020000 		.4byte	.LASF53
 876 031b 09       		.byte	0x9
 877 031c 77       		.byte	0x77
 878 031d 25000000 		.4byte	0x25
 879 0321 04       		.byte	0x4
 880 0322 00       		.byte	0
 881 0323 05       		.uleb128 0x5
 882 0324 04       		.byte	0x4
 883 0325 5E000000 		.4byte	0x5e
 884 0329 10       		.uleb128 0x10
 885 032a C2050000 		.4byte	.LASF54
 886 032e 68       		.byte	0x68
 887 032f 09       		.byte	0x9
 888 0330 B5       		.byte	0xb5
 889 0331 53040000 		.4byte	0x453
 890 0335 11       		.uleb128 0x11
 891 0336 5F7000   		.ascii	"_p\000"
 892 0339 09       		.byte	0x9
 893 033a B6       		.byte	0xb6
 894 033b 23030000 		.4byte	0x323
 895 033f 00       		.byte	0
 896 0340 11       		.uleb128 0x11
 897 0341 5F7200   		.ascii	"_r\000"
 898 0344 09       		.byte	0x9
 899 0345 B7       		.byte	0xb7
 900 0346 25000000 		.4byte	0x25
 901 034a 04       		.byte	0x4
 902 034b 11       		.uleb128 0x11
 903 034c 5F7700   		.ascii	"_w\000"
 904 034f 09       		.byte	0x9
ARM GAS  C:\Users\RAKIBU~1\AppData\Local\Temp\ccL5M507.s 			page 17


 905 0350 B8       		.byte	0xb8
 906 0351 25000000 		.4byte	0x25
 907 0355 08       		.byte	0x8
 908 0356 0D       		.uleb128 0xd
 909 0357 19080000 		.4byte	.LASF55
 910 035b 09       		.byte	0x9
 911 035c B9       		.byte	0xb9
 912 035d 65000000 		.4byte	0x65
 913 0361 0C       		.byte	0xc
 914 0362 0D       		.uleb128 0xd
 915 0363 C5010000 		.4byte	.LASF56
 916 0367 09       		.byte	0x9
 917 0368 BA       		.byte	0xba
 918 0369 65000000 		.4byte	0x65
 919 036d 0E       		.byte	0xe
 920 036e 11       		.uleb128 0x11
 921 036f 5F626600 		.ascii	"_bf\000"
 922 0373 09       		.byte	0x9
 923 0374 BB       		.byte	0xbb
 924 0375 FE020000 		.4byte	0x2fe
 925 0379 10       		.byte	0x10
 926 037a 0D       		.uleb128 0xd
 927 037b A90B0000 		.4byte	.LASF57
 928 037f 09       		.byte	0x9
 929 0380 BC       		.byte	0xbc
 930 0381 25000000 		.4byte	0x25
 931 0385 18       		.byte	0x18
 932 0386 0D       		.uleb128 0xd
 933 0387 64040000 		.4byte	.LASF58
 934 038b 09       		.byte	0x9
 935 038c C3       		.byte	0xc3
 936 038d 52010000 		.4byte	0x152
 937 0391 1C       		.byte	0x1c
 938 0392 0D       		.uleb128 0xd
 939 0393 63000000 		.4byte	.LASF59
 940 0397 09       		.byte	0x9
 941 0398 C5       		.byte	0xc5
 942 0399 AE050000 		.4byte	0x5ae
 943 039d 20       		.byte	0x20
 944 039e 0D       		.uleb128 0xd
 945 039f 88000000 		.4byte	.LASF60
 946 03a3 09       		.byte	0x9
 947 03a4 C7       		.byte	0xc7
 948 03a5 DD050000 		.4byte	0x5dd
 949 03a9 24       		.byte	0x24
 950 03aa 0D       		.uleb128 0xd
 951 03ab B5080000 		.4byte	.LASF61
 952 03af 09       		.byte	0x9
 953 03b0 CA       		.byte	0xca
 954 03b1 01060000 		.4byte	0x601
 955 03b5 28       		.byte	0x28
 956 03b6 0D       		.uleb128 0xd
 957 03b7 D0030000 		.4byte	.LASF62
 958 03bb 09       		.byte	0x9
 959 03bc CB       		.byte	0xcb
 960 03bd 1B060000 		.4byte	0x61b
 961 03c1 2C       		.byte	0x2c
ARM GAS  C:\Users\RAKIBU~1\AppData\Local\Temp\ccL5M507.s 			page 18


 962 03c2 11       		.uleb128 0x11
 963 03c3 5F756200 		.ascii	"_ub\000"
 964 03c7 09       		.byte	0x9
 965 03c8 CE       		.byte	0xce
 966 03c9 FE020000 		.4byte	0x2fe
 967 03cd 30       		.byte	0x30
 968 03ce 11       		.uleb128 0x11
 969 03cf 5F757000 		.ascii	"_up\000"
 970 03d3 09       		.byte	0x9
 971 03d4 CF       		.byte	0xcf
 972 03d5 23030000 		.4byte	0x323
 973 03d9 38       		.byte	0x38
 974 03da 11       		.uleb128 0x11
 975 03db 5F757200 		.ascii	"_ur\000"
 976 03df 09       		.byte	0x9
 977 03e0 D0       		.byte	0xd0
 978 03e1 25000000 		.4byte	0x25
 979 03e5 3C       		.byte	0x3c
 980 03e6 0D       		.uleb128 0xd
 981 03e7 E1070000 		.4byte	.LASF63
 982 03eb 09       		.byte	0x9
 983 03ec D3       		.byte	0xd3
 984 03ed 21060000 		.4byte	0x621
 985 03f1 40       		.byte	0x40
 986 03f2 0D       		.uleb128 0xd
 987 03f3 F3000000 		.4byte	.LASF64
 988 03f7 09       		.byte	0x9
 989 03f8 D4       		.byte	0xd4
 990 03f9 31060000 		.4byte	0x631
 991 03fd 43       		.byte	0x43
 992 03fe 11       		.uleb128 0x11
 993 03ff 5F6C6200 		.ascii	"_lb\000"
 994 0403 09       		.byte	0x9
 995 0404 D7       		.byte	0xd7
 996 0405 FE020000 		.4byte	0x2fe
 997 0409 44       		.byte	0x44
 998 040a 0D       		.uleb128 0xd
 999 040b 90090000 		.4byte	.LASF65
 1000 040f 09       		.byte	0x9
 1001 0410 DA       		.byte	0xda
 1002 0411 25000000 		.4byte	0x25
 1003 0415 4C       		.byte	0x4c
 1004 0416 0D       		.uleb128 0xd
 1005 0417 B2040000 		.4byte	.LASF66
 1006 041b 09       		.byte	0x9
 1007 041c DB       		.byte	0xdb
 1008 041d CA000000 		.4byte	0xca
 1009 0421 50       		.byte	0x50
 1010 0422 0D       		.uleb128 0xd
 1011 0423 D60A0000 		.4byte	.LASF67
 1012 0427 09       		.byte	0x9
 1013 0428 DE       		.byte	0xde
 1014 0429 71040000 		.4byte	0x471
 1015 042d 54       		.byte	0x54
 1016 042e 0D       		.uleb128 0xd
 1017 042f 29010000 		.4byte	.LASF68
 1018 0433 09       		.byte	0x9
ARM GAS  C:\Users\RAKIBU~1\AppData\Local\Temp\ccL5M507.s 			page 19


 1019 0434 E2       		.byte	0xe2
 1020 0435 47010000 		.4byte	0x147
 1021 0439 58       		.byte	0x58
 1022 043a 0D       		.uleb128 0xd
 1023 043b FD070000 		.4byte	.LASF69
 1024 043f 09       		.byte	0x9
 1025 0440 E4       		.byte	0xe4
 1026 0441 3C010000 		.4byte	0x13c
 1027 0445 5C       		.byte	0x5c
 1028 0446 0D       		.uleb128 0xd
 1029 0447 D5050000 		.4byte	.LASF70
 1030 044b 09       		.byte	0x9
 1031 044c E5       		.byte	0xe5
 1032 044d 25000000 		.4byte	0x25
 1033 0451 64       		.byte	0x64
 1034 0452 00       		.byte	0
 1035 0453 15       		.uleb128 0x15
 1036 0454 25000000 		.4byte	0x25
 1037 0458 71040000 		.4byte	0x471
 1038 045c 16       		.uleb128 0x16
 1039 045d 71040000 		.4byte	0x471
 1040 0461 16       		.uleb128 0x16
 1041 0462 52010000 		.4byte	0x152
 1042 0466 16       		.uleb128 0x16
 1043 0467 54010000 		.4byte	0x154
 1044 046b 16       		.uleb128 0x16
 1045 046c 25000000 		.4byte	0x25
 1046 0470 00       		.byte	0
 1047 0471 05       		.uleb128 0x5
 1048 0472 04       		.byte	0x4
 1049 0473 7C040000 		.4byte	0x47c
 1050 0477 0F       		.uleb128 0xf
 1051 0478 71040000 		.4byte	0x471
 1052 047c 17       		.uleb128 0x17
 1053 047d 79030000 		.4byte	.LASF71
 1054 0481 2804     		.2byte	0x428
 1055 0483 09       		.byte	0x9
 1056 0484 3902     		.2byte	0x239
 1057 0486 AE050000 		.4byte	0x5ae
 1058 048a 18       		.uleb128 0x18
 1059 048b 2C060000 		.4byte	.LASF72
 1060 048f 09       		.byte	0x9
 1061 0490 3B02     		.2byte	0x23b
 1062 0492 25000000 		.4byte	0x25
 1063 0496 00       		.byte	0
 1064 0497 18       		.uleb128 0x18
 1065 0498 FB030000 		.4byte	.LASF73
 1066 049c 09       		.byte	0x9
 1067 049d 4002     		.2byte	0x240
 1068 049f 88060000 		.4byte	0x688
 1069 04a3 04       		.byte	0x4
 1070 04a4 18       		.uleb128 0x18
 1071 04a5 82090000 		.4byte	.LASF74
 1072 04a9 09       		.byte	0x9
 1073 04aa 4002     		.2byte	0x240
 1074 04ac 88060000 		.4byte	0x688
 1075 04b0 08       		.byte	0x8
ARM GAS  C:\Users\RAKIBU~1\AppData\Local\Temp\ccL5M507.s 			page 20


 1076 04b1 18       		.uleb128 0x18
 1077 04b2 E7070000 		.4byte	.LASF75
 1078 04b6 09       		.byte	0x9
 1079 04b7 4002     		.2byte	0x240
 1080 04b9 88060000 		.4byte	0x688
 1081 04bd 0C       		.byte	0xc
 1082 04be 18       		.uleb128 0x18
 1083 04bf B90B0000 		.4byte	.LASF76
 1084 04c3 09       		.byte	0x9
 1085 04c4 4202     		.2byte	0x242
 1086 04c6 25000000 		.4byte	0x25
 1087 04ca 10       		.byte	0x10
 1088 04cb 18       		.uleb128 0x18
 1089 04cc E4060000 		.4byte	.LASF77
 1090 04d0 09       		.byte	0x9
 1091 04d1 4302     		.2byte	0x243
 1092 04d3 6A080000 		.4byte	0x86a
 1093 04d7 14       		.byte	0x14
 1094 04d8 18       		.uleb128 0x18
 1095 04d9 60030000 		.4byte	.LASF78
 1096 04dd 09       		.byte	0x9
 1097 04de 4602     		.2byte	0x246
 1098 04e0 25000000 		.4byte	0x25
 1099 04e4 30       		.byte	0x30
 1100 04e5 18       		.uleb128 0x18
 1101 04e6 370C0000 		.4byte	.LASF79
 1102 04ea 09       		.byte	0x9
 1103 04eb 4702     		.2byte	0x247
 1104 04ed 7F080000 		.4byte	0x87f
 1105 04f1 34       		.byte	0x34
 1106 04f2 18       		.uleb128 0x18
 1107 04f3 CA050000 		.4byte	.LASF80
 1108 04f7 09       		.byte	0x9
 1109 04f8 4902     		.2byte	0x249
 1110 04fa 25000000 		.4byte	0x25
 1111 04fe 38       		.byte	0x38
 1112 04ff 18       		.uleb128 0x18
 1113 0500 BB060000 		.4byte	.LASF81
 1114 0504 09       		.byte	0x9
 1115 0505 4B02     		.2byte	0x24b
 1116 0507 90080000 		.4byte	0x890
 1117 050b 3C       		.byte	0x3c
 1118 050c 18       		.uleb128 0x18
 1119 050d 560C0000 		.4byte	.LASF82
 1120 0511 09       		.byte	0x9
 1121 0512 4E02     		.2byte	0x24e
 1122 0514 C4010000 		.4byte	0x1c4
 1123 0518 40       		.byte	0x40
 1124 0519 18       		.uleb128 0x18
 1125 051a 08020000 		.4byte	.LASF83
 1126 051e 09       		.byte	0x9
 1127 051f 4F02     		.2byte	0x24f
 1128 0521 25000000 		.4byte	0x25
 1129 0525 44       		.byte	0x44
 1130 0526 18       		.uleb128 0x18
 1131 0527 96050000 		.4byte	.LASF84
 1132 052b 09       		.byte	0x9
ARM GAS  C:\Users\RAKIBU~1\AppData\Local\Temp\ccL5M507.s 			page 21


 1133 052c 5002     		.2byte	0x250
 1134 052e C4010000 		.4byte	0x1c4
 1135 0532 48       		.byte	0x48
 1136 0533 18       		.uleb128 0x18
 1137 0534 4D070000 		.4byte	.LASF85
 1138 0538 09       		.byte	0x9
 1139 0539 5102     		.2byte	0x251
 1140 053b 96080000 		.4byte	0x896
 1141 053f 4C       		.byte	0x4c
 1142 0540 18       		.uleb128 0x18
 1143 0541 A4000000 		.4byte	.LASF86
 1144 0545 09       		.byte	0x9
 1145 0546 5402     		.2byte	0x254
 1146 0548 25000000 		.4byte	0x25
 1147 054c 50       		.byte	0x50
 1148 054d 18       		.uleb128 0x18
 1149 054e BA040000 		.4byte	.LASF87
 1150 0552 09       		.byte	0x9
 1151 0553 5502     		.2byte	0x255
 1152 0555 54010000 		.4byte	0x154
 1153 0559 54       		.byte	0x54
 1154 055a 18       		.uleb128 0x18
 1155 055b DC070000 		.4byte	.LASF88
 1156 055f 09       		.byte	0x9
 1157 0560 7802     		.2byte	0x278
 1158 0562 48080000 		.4byte	0x848
 1159 0566 58       		.byte	0x58
 1160 0567 19       		.uleb128 0x19
 1161 0568 3A080000 		.4byte	.LASF48
 1162 056c 09       		.byte	0x9
 1163 056d 7C02     		.2byte	0x27c
 1164 056f E1020000 		.4byte	0x2e1
 1165 0573 4801     		.2byte	0x148
 1166 0575 19       		.uleb128 0x19
 1167 0576 D0060000 		.4byte	.LASF89
 1168 057a 09       		.byte	0x9
 1169 057b 7D02     		.2byte	0x27d
 1170 057d A3020000 		.4byte	0x2a3
 1171 0581 4C01     		.2byte	0x14c
 1172 0583 19       		.uleb128 0x19
 1173 0584 9F040000 		.4byte	.LASF90
 1174 0588 09       		.byte	0x9
 1175 0589 8102     		.2byte	0x281
 1176 058b A7080000 		.4byte	0x8a7
 1177 058f DC02     		.2byte	0x2dc
 1178 0591 19       		.uleb128 0x19
 1179 0592 2D070000 		.4byte	.LASF91
 1180 0596 09       		.byte	0x9
 1181 0597 8602     		.2byte	0x286
 1182 0599 4D060000 		.4byte	0x64d
 1183 059d E002     		.2byte	0x2e0
 1184 059f 19       		.uleb128 0x19
 1185 05a0 48000000 		.4byte	.LASF92
 1186 05a4 09       		.byte	0x9
 1187 05a5 8802     		.2byte	0x288
 1188 05a7 B3080000 		.4byte	0x8b3
 1189 05ab EC02     		.2byte	0x2ec
ARM GAS  C:\Users\RAKIBU~1\AppData\Local\Temp\ccL5M507.s 			page 22


 1190 05ad 00       		.byte	0
 1191 05ae 05       		.uleb128 0x5
 1192 05af 04       		.byte	0x4
 1193 05b0 53040000 		.4byte	0x453
 1194 05b4 15       		.uleb128 0x15
 1195 05b5 25000000 		.4byte	0x25
 1196 05b9 D2050000 		.4byte	0x5d2
 1197 05bd 16       		.uleb128 0x16
 1198 05be 71040000 		.4byte	0x471
 1199 05c2 16       		.uleb128 0x16
 1200 05c3 52010000 		.4byte	0x152
 1201 05c7 16       		.uleb128 0x16
 1202 05c8 D2050000 		.4byte	0x5d2
 1203 05cc 16       		.uleb128 0x16
 1204 05cd 25000000 		.4byte	0x25
 1205 05d1 00       		.byte	0
 1206 05d2 05       		.uleb128 0x5
 1207 05d3 04       		.byte	0x4
 1208 05d4 61010000 		.4byte	0x161
 1209 05d8 1A       		.uleb128 0x1a
 1210 05d9 D2050000 		.4byte	0x5d2
 1211 05dd 05       		.uleb128 0x5
 1212 05de 04       		.byte	0x4
 1213 05df B4050000 		.4byte	0x5b4
 1214 05e3 15       		.uleb128 0x15
 1215 05e4 D5000000 		.4byte	0xd5
 1216 05e8 01060000 		.4byte	0x601
 1217 05ec 16       		.uleb128 0x16
 1218 05ed 71040000 		.4byte	0x471
 1219 05f1 16       		.uleb128 0x16
 1220 05f2 52010000 		.4byte	0x152
 1221 05f6 16       		.uleb128 0x16
 1222 05f7 D5000000 		.4byte	0xd5
 1223 05fb 16       		.uleb128 0x16
 1224 05fc 25000000 		.4byte	0x25
 1225 0600 00       		.byte	0
 1226 0601 05       		.uleb128 0x5
 1227 0602 04       		.byte	0x4
 1228 0603 E3050000 		.4byte	0x5e3
 1229 0607 15       		.uleb128 0x15
 1230 0608 25000000 		.4byte	0x25
 1231 060c 1B060000 		.4byte	0x61b
 1232 0610 16       		.uleb128 0x16
 1233 0611 71040000 		.4byte	0x471
 1234 0615 16       		.uleb128 0x16
 1235 0616 52010000 		.4byte	0x152
 1236 061a 00       		.byte	0
 1237 061b 05       		.uleb128 0x5
 1238 061c 04       		.byte	0x4
 1239 061d 07060000 		.4byte	0x607
 1240 0621 0A       		.uleb128 0xa
 1241 0622 5E000000 		.4byte	0x5e
 1242 0626 31060000 		.4byte	0x631
 1243 062a 0B       		.uleb128 0xb
 1244 062b 37000000 		.4byte	0x37
 1245 062f 02       		.byte	0x2
 1246 0630 00       		.byte	0
ARM GAS  C:\Users\RAKIBU~1\AppData\Local\Temp\ccL5M507.s 			page 23


 1247 0631 0A       		.uleb128 0xa
 1248 0632 5E000000 		.4byte	0x5e
 1249 0636 41060000 		.4byte	0x641
 1250 063a 0B       		.uleb128 0xb
 1251 063b 37000000 		.4byte	0x37
 1252 063f 00       		.byte	0
 1253 0640 00       		.byte	0
 1254 0641 07       		.uleb128 0x7
 1255 0642 850A0000 		.4byte	.LASF93
 1256 0646 09       		.byte	0x9
 1257 0647 1F01     		.2byte	0x11f
 1258 0649 29030000 		.4byte	0x329
 1259 064d 1B       		.uleb128 0x1b
 1260 064e 63070000 		.4byte	.LASF94
 1261 0652 0C       		.byte	0xc
 1262 0653 09       		.byte	0x9
 1263 0654 2301     		.2byte	0x123
 1264 0656 82060000 		.4byte	0x682
 1265 065a 18       		.uleb128 0x18
 1266 065b D00A0000 		.4byte	.LASF28
 1267 065f 09       		.byte	0x9
 1268 0660 2501     		.2byte	0x125
 1269 0662 82060000 		.4byte	0x682
 1270 0666 00       		.byte	0
 1271 0667 18       		.uleb128 0x18
 1272 0668 13070000 		.4byte	.LASF95
 1273 066c 09       		.byte	0x9
 1274 066d 2601     		.2byte	0x126
 1275 066f 25000000 		.4byte	0x25
 1276 0673 04       		.byte	0x4
 1277 0674 18       		.uleb128 0x18
 1278 0675 57070000 		.4byte	.LASF96
 1279 0679 09       		.byte	0x9
 1280 067a 2701     		.2byte	0x127
 1281 067c 88060000 		.4byte	0x688
 1282 0680 08       		.byte	0x8
 1283 0681 00       		.byte	0
 1284 0682 05       		.uleb128 0x5
 1285 0683 04       		.byte	0x4
 1286 0684 4D060000 		.4byte	0x64d
 1287 0688 05       		.uleb128 0x5
 1288 0689 04       		.byte	0x4
 1289 068a 41060000 		.4byte	0x641
 1290 068e 1B       		.uleb128 0x1b
 1291 068f 7A090000 		.4byte	.LASF97
 1292 0693 0E       		.byte	0xe
 1293 0694 09       		.byte	0x9
 1294 0695 3F01     		.2byte	0x13f
 1295 0697 C3060000 		.4byte	0x6c3
 1296 069b 18       		.uleb128 0x18
 1297 069c A6080000 		.4byte	.LASF98
 1298 06a0 09       		.byte	0x9
 1299 06a1 4001     		.2byte	0x140
 1300 06a3 C3060000 		.4byte	0x6c3
 1301 06a7 00       		.byte	0
 1302 06a8 18       		.uleb128 0x18
 1303 06a9 4B010000 		.4byte	.LASF99
ARM GAS  C:\Users\RAKIBU~1\AppData\Local\Temp\ccL5M507.s 			page 24


 1304 06ad 09       		.byte	0x9
 1305 06ae 4101     		.2byte	0x141
 1306 06b0 C3060000 		.4byte	0x6c3
 1307 06b4 06       		.byte	0x6
 1308 06b5 18       		.uleb128 0x18
 1309 06b6 6C0C0000 		.4byte	.LASF100
 1310 06ba 09       		.byte	0x9
 1311 06bb 4201     		.2byte	0x142
 1312 06bd 77000000 		.4byte	0x77
 1313 06c1 0C       		.byte	0xc
 1314 06c2 00       		.byte	0
 1315 06c3 0A       		.uleb128 0xa
 1316 06c4 77000000 		.4byte	0x77
 1317 06c8 D3060000 		.4byte	0x6d3
 1318 06cc 0B       		.uleb128 0xb
 1319 06cd 37000000 		.4byte	0x37
 1320 06d1 02       		.byte	0x2
 1321 06d2 00       		.byte	0
 1322 06d3 1C       		.uleb128 0x1c
 1323 06d4 D0       		.byte	0xd0
 1324 06d5 09       		.byte	0x9
 1325 06d6 5902     		.2byte	0x259
 1326 06d8 D4070000 		.4byte	0x7d4
 1327 06dc 18       		.uleb128 0x18
 1328 06dd 9A020000 		.4byte	.LASF101
 1329 06e1 09       		.byte	0x9
 1330 06e2 5B02     		.2byte	0x25b
 1331 06e4 37000000 		.4byte	0x37
 1332 06e8 00       		.byte	0
 1333 06e9 18       		.uleb128 0x18
 1334 06ea B5090000 		.4byte	.LASF102
 1335 06ee 09       		.byte	0x9
 1336 06ef 5C02     		.2byte	0x25c
 1337 06f1 54010000 		.4byte	0x154
 1338 06f5 04       		.byte	0x4
 1339 06f6 18       		.uleb128 0x18
 1340 06f7 97000000 		.4byte	.LASF103
 1341 06fb 09       		.byte	0x9
 1342 06fc 5D02     		.2byte	0x25d
 1343 06fe D4070000 		.4byte	0x7d4
 1344 0702 08       		.byte	0x8
 1345 0703 18       		.uleb128 0x18
 1346 0704 1D020000 		.4byte	.LASF104
 1347 0708 09       		.byte	0x9
 1348 0709 5E02     		.2byte	0x25e
 1349 070b DA010000 		.4byte	0x1da
 1350 070f 24       		.byte	0x24
 1351 0710 18       		.uleb128 0x18
 1352 0711 3E070000 		.4byte	.LASF105
 1353 0715 09       		.byte	0x9
 1354 0716 5F02     		.2byte	0x25f
 1355 0718 25000000 		.4byte	0x25
 1356 071c 48       		.byte	0x48
 1357 071d 18       		.uleb128 0x18
 1358 071e 0E080000 		.4byte	.LASF106
 1359 0722 09       		.byte	0x9
 1360 0723 6002     		.2byte	0x260
ARM GAS  C:\Users\RAKIBU~1\AppData\Local\Temp\ccL5M507.s 			page 25


 1361 0725 AD000000 		.4byte	0xad
 1362 0729 50       		.byte	0x50
 1363 072a 18       		.uleb128 0x18
 1364 072b AF0A0000 		.4byte	.LASF107
 1365 072f 09       		.byte	0x9
 1366 0730 6102     		.2byte	0x261
 1367 0732 8E060000 		.4byte	0x68e
 1368 0736 58       		.byte	0x58
 1369 0737 18       		.uleb128 0x18
 1370 0738 220B0000 		.4byte	.LASF108
 1371 073c 09       		.byte	0x9
 1372 073d 6202     		.2byte	0x262
 1373 073f 3C010000 		.4byte	0x13c
 1374 0743 68       		.byte	0x68
 1375 0744 18       		.uleb128 0x18
 1376 0745 0E090000 		.4byte	.LASF109
 1377 0749 09       		.byte	0x9
 1378 074a 6302     		.2byte	0x263
 1379 074c 3C010000 		.4byte	0x13c
 1380 0750 70       		.byte	0x70
 1381 0751 18       		.uleb128 0x18
 1382 0752 EF070000 		.4byte	.LASF110
 1383 0756 09       		.byte	0x9
 1384 0757 6402     		.2byte	0x264
 1385 0759 3C010000 		.4byte	0x13c
 1386 075d 78       		.byte	0x78
 1387 075e 18       		.uleb128 0x18
 1388 075f 02010000 		.4byte	.LASF111
 1389 0763 09       		.byte	0x9
 1390 0764 6502     		.2byte	0x265
 1391 0766 E4070000 		.4byte	0x7e4
 1392 076a 80       		.byte	0x80
 1393 076b 18       		.uleb128 0x18
 1394 076c 60060000 		.4byte	.LASF112
 1395 0770 09       		.byte	0x9
 1396 0771 6602     		.2byte	0x266
 1397 0773 F4070000 		.4byte	0x7f4
 1398 0777 88       		.byte	0x88
 1399 0778 18       		.uleb128 0x18
 1400 0779 2B0D0000 		.4byte	.LASF113
 1401 077d 09       		.byte	0x9
 1402 077e 6702     		.2byte	0x267
 1403 0780 25000000 		.4byte	0x25
 1404 0784 A0       		.byte	0xa0
 1405 0785 18       		.uleb128 0x18
 1406 0786 D9010000 		.4byte	.LASF114
 1407 078a 09       		.byte	0x9
 1408 078b 6802     		.2byte	0x268
 1409 078d 3C010000 		.4byte	0x13c
 1410 0791 A4       		.byte	0xa4
 1411 0792 18       		.uleb128 0x18
 1412 0793 510A0000 		.4byte	.LASF115
 1413 0797 09       		.byte	0x9
 1414 0798 6902     		.2byte	0x269
 1415 079a 3C010000 		.4byte	0x13c
 1416 079e AC       		.byte	0xac
 1417 079f 18       		.uleb128 0x18
ARM GAS  C:\Users\RAKIBU~1\AppData\Local\Temp\ccL5M507.s 			page 26


 1418 07a0 B90C0000 		.4byte	.LASF116
 1419 07a4 09       		.byte	0x9
 1420 07a5 6A02     		.2byte	0x26a
 1421 07a7 3C010000 		.4byte	0x13c
 1422 07ab B4       		.byte	0xb4
 1423 07ac 18       		.uleb128 0x18
 1424 07ad B4070000 		.4byte	.LASF117
 1425 07b1 09       		.byte	0x9
 1426 07b2 6B02     		.2byte	0x26b
 1427 07b4 3C010000 		.4byte	0x13c
 1428 07b8 BC       		.byte	0xbc
 1429 07b9 18       		.uleb128 0x18
 1430 07ba E2000000 		.4byte	.LASF118
 1431 07be 09       		.byte	0x9
 1432 07bf 6C02     		.2byte	0x26c
 1433 07c1 3C010000 		.4byte	0x13c
 1434 07c5 C4       		.byte	0xc4
 1435 07c6 18       		.uleb128 0x18
 1436 07c7 AB070000 		.4byte	.LASF119
 1437 07cb 09       		.byte	0x9
 1438 07cc 6D02     		.2byte	0x26d
 1439 07ce 25000000 		.4byte	0x25
 1440 07d2 CC       		.byte	0xcc
 1441 07d3 00       		.byte	0
 1442 07d4 0A       		.uleb128 0xa
 1443 07d5 5A010000 		.4byte	0x15a
 1444 07d9 E4070000 		.4byte	0x7e4
 1445 07dd 0B       		.uleb128 0xb
 1446 07de 37000000 		.4byte	0x37
 1447 07e2 19       		.byte	0x19
 1448 07e3 00       		.byte	0
 1449 07e4 0A       		.uleb128 0xa
 1450 07e5 5A010000 		.4byte	0x15a
 1451 07e9 F4070000 		.4byte	0x7f4
 1452 07ed 0B       		.uleb128 0xb
 1453 07ee 37000000 		.4byte	0x37
 1454 07f2 07       		.byte	0x7
 1455 07f3 00       		.byte	0
 1456 07f4 0A       		.uleb128 0xa
 1457 07f5 5A010000 		.4byte	0x15a
 1458 07f9 04080000 		.4byte	0x804
 1459 07fd 0B       		.uleb128 0xb
 1460 07fe 37000000 		.4byte	0x37
 1461 0802 17       		.byte	0x17
 1462 0803 00       		.byte	0
 1463 0804 1C       		.uleb128 0x1c
 1464 0805 F0       		.byte	0xf0
 1465 0806 09       		.byte	0x9
 1466 0807 7202     		.2byte	0x272
 1467 0809 28080000 		.4byte	0x828
 1468 080d 18       		.uleb128 0x18
 1469 080e 0A0C0000 		.4byte	.LASF120
 1470 0812 09       		.byte	0x9
 1471 0813 7502     		.2byte	0x275
 1472 0815 28080000 		.4byte	0x828
 1473 0819 00       		.byte	0
 1474 081a 18       		.uleb128 0x18
ARM GAS  C:\Users\RAKIBU~1\AppData\Local\Temp\ccL5M507.s 			page 27


 1475 081b 35070000 		.4byte	.LASF121
 1476 081f 09       		.byte	0x9
 1477 0820 7602     		.2byte	0x276
 1478 0822 38080000 		.4byte	0x838
 1479 0826 78       		.byte	0x78
 1480 0827 00       		.byte	0
 1481 0828 0A       		.uleb128 0xa
 1482 0829 23030000 		.4byte	0x323
 1483 082d 38080000 		.4byte	0x838
 1484 0831 0B       		.uleb128 0xb
 1485 0832 37000000 		.4byte	0x37
 1486 0836 1D       		.byte	0x1d
 1487 0837 00       		.byte	0
 1488 0838 0A       		.uleb128 0xa
 1489 0839 37000000 		.4byte	0x37
 1490 083d 48080000 		.4byte	0x848
 1491 0841 0B       		.uleb128 0xb
 1492 0842 37000000 		.4byte	0x37
 1493 0846 1D       		.byte	0x1d
 1494 0847 00       		.byte	0
 1495 0848 1D       		.uleb128 0x1d
 1496 0849 F0       		.byte	0xf0
 1497 084a 09       		.byte	0x9
 1498 084b 5702     		.2byte	0x257
 1499 084d 6A080000 		.4byte	0x86a
 1500 0851 1E       		.uleb128 0x1e
 1501 0852 79030000 		.4byte	.LASF71
 1502 0856 09       		.byte	0x9
 1503 0857 6E02     		.2byte	0x26e
 1504 0859 D3060000 		.4byte	0x6d3
 1505 085d 1E       		.uleb128 0x1e
 1506 085e D5000000 		.4byte	.LASF122
 1507 0862 09       		.byte	0x9
 1508 0863 7702     		.2byte	0x277
 1509 0865 04080000 		.4byte	0x804
 1510 0869 00       		.byte	0
 1511 086a 0A       		.uleb128 0xa
 1512 086b 5A010000 		.4byte	0x15a
 1513 086f 7A080000 		.4byte	0x87a
 1514 0873 0B       		.uleb128 0xb
 1515 0874 37000000 		.4byte	0x37
 1516 0878 18       		.byte	0x18
 1517 0879 00       		.byte	0
 1518 087a 06       		.uleb128 0x6
 1519 087b 1F000000 		.4byte	.LASF124
 1520 087f 05       		.uleb128 0x5
 1521 0880 04       		.byte	0x4
 1522 0881 7A080000 		.4byte	0x87a
 1523 0885 1F       		.uleb128 0x1f
 1524 0886 90080000 		.4byte	0x890
 1525 088a 16       		.uleb128 0x16
 1526 088b 71040000 		.4byte	0x471
 1527 088f 00       		.byte	0
 1528 0890 05       		.uleb128 0x5
 1529 0891 04       		.byte	0x4
 1530 0892 85080000 		.4byte	0x885
 1531 0896 05       		.uleb128 0x5
ARM GAS  C:\Users\RAKIBU~1\AppData\Local\Temp\ccL5M507.s 			page 28


 1532 0897 04       		.byte	0x4
 1533 0898 C4010000 		.4byte	0x1c4
 1534 089c 1F       		.uleb128 0x1f
 1535 089d A7080000 		.4byte	0x8a7
 1536 08a1 16       		.uleb128 0x16
 1537 08a2 25000000 		.4byte	0x25
 1538 08a6 00       		.byte	0
 1539 08a7 05       		.uleb128 0x5
 1540 08a8 04       		.byte	0x4
 1541 08a9 AD080000 		.4byte	0x8ad
 1542 08ad 05       		.uleb128 0x5
 1543 08ae 04       		.byte	0x4
 1544 08af 9C080000 		.4byte	0x89c
 1545 08b3 0A       		.uleb128 0xa
 1546 08b4 41060000 		.4byte	0x641
 1547 08b8 C3080000 		.4byte	0x8c3
 1548 08bc 0B       		.uleb128 0xb
 1549 08bd 37000000 		.4byte	0x37
 1550 08c1 02       		.byte	0x2
 1551 08c2 00       		.byte	0
 1552 08c3 20       		.uleb128 0x20
 1553 08c4 FC010000 		.4byte	.LASF125
 1554 08c8 09       		.byte	0x9
 1555 08c9 0703     		.2byte	0x307
 1556 08cb 71040000 		.4byte	0x471
 1557 08cf 20       		.uleb128 0x20
 1558 08d0 80030000 		.4byte	.LASF126
 1559 08d4 09       		.byte	0x9
 1560 08d5 0803     		.2byte	0x308
 1561 08d7 77040000 		.4byte	0x477
 1562 08db 03       		.uleb128 0x3
 1563 08dc C4020000 		.4byte	.LASF127
 1564 08e0 0A       		.byte	0xa
 1565 08e1 18       		.byte	0x18
 1566 08e2 53000000 		.4byte	0x53
 1567 08e6 0F       		.uleb128 0xf
 1568 08e7 DB080000 		.4byte	0x8db
 1569 08eb 03       		.uleb128 0x3
 1570 08ec 45090000 		.4byte	.LASF128
 1571 08f0 0A       		.byte	0xa
 1572 08f1 24       		.byte	0x24
 1573 08f2 6C000000 		.4byte	0x6c
 1574 08f6 03       		.uleb128 0x3
 1575 08f7 8F000000 		.4byte	.LASF129
 1576 08fb 0A       		.byte	0xa
 1577 08fc 2C       		.byte	0x2c
 1578 08fd 7E000000 		.4byte	0x7e
 1579 0901 1A       		.uleb128 0x1a
 1580 0902 F6080000 		.4byte	0x8f6
 1581 0906 03       		.uleb128 0x3
 1582 0907 4D0C0000 		.4byte	.LASF130
 1583 090b 0A       		.byte	0xa
 1584 090c 30       		.byte	0x30
 1585 090d 90000000 		.4byte	0x90
 1586 0911 03       		.uleb128 0x3
 1587 0912 390B0000 		.4byte	.LASF131
 1588 0916 0A       		.byte	0xa
ARM GAS  C:\Users\RAKIBU~1\AppData\Local\Temp\ccL5M507.s 			page 29


 1589 0917 3C       		.byte	0x3c
 1590 0918 A2000000 		.4byte	0xa2
 1591 091c 03       		.uleb128 0x3
 1592 091d 9E070000 		.4byte	.LASF132
 1593 0921 0B       		.byte	0xb
 1594 0922 27       		.byte	0x27
 1595 0923 06090000 		.4byte	0x906
 1596 0927 03       		.uleb128 0x3
 1597 0928 35020000 		.4byte	.LASF133
 1598 092c 0B       		.byte	0xb
 1599 092d 28       		.byte	0x28
 1600 092e 11090000 		.4byte	0x911
 1601 0932 03       		.uleb128 0x3
 1602 0933 E20A0000 		.4byte	.LASF134
 1603 0937 0B       		.byte	0xb
 1604 0938 2A       		.byte	0x2a
 1605 0939 DB080000 		.4byte	0x8db
 1606 093d 03       		.uleb128 0x3
 1607 093e 2C020000 		.4byte	.LASF135
 1608 0942 0B       		.byte	0xb
 1609 0943 2B       		.byte	0x2b
 1610 0944 DB080000 		.4byte	0x8db
 1611 0948 03       		.uleb128 0x3
 1612 0949 020C0000 		.4byte	.LASF136
 1613 094d 0B       		.byte	0xb
 1614 094e 2C       		.byte	0x2c
 1615 094f DB080000 		.4byte	0x8db
 1616 0953 03       		.uleb128 0x3
 1617 0954 69000000 		.4byte	.LASF137
 1618 0958 0B       		.byte	0xb
 1619 0959 2E       		.byte	0x2e
 1620 095a 06090000 		.4byte	0x906
 1621 095e 03       		.uleb128 0x3
 1622 095f 63090000 		.4byte	.LASF138
 1623 0963 0B       		.byte	0xb
 1624 0964 2F       		.byte	0x2f
 1625 0965 F6080000 		.4byte	0x8f6
 1626 0969 03       		.uleb128 0x3
 1627 096a DD020000 		.4byte	.LASF139
 1628 096e 0B       		.byte	0xb
 1629 096f 31       		.byte	0x31
 1630 0970 06090000 		.4byte	0x906
 1631 0974 03       		.uleb128 0x3
 1632 0975 40040000 		.4byte	.LASF140
 1633 0979 0B       		.byte	0xb
 1634 097a 33       		.byte	0x33
 1635 097b F6080000 		.4byte	0x8f6
 1636 097f 03       		.uleb128 0x3
 1637 0980 75060000 		.4byte	.LASF141
 1638 0984 0B       		.byte	0xb
 1639 0985 34       		.byte	0x34
 1640 0986 06090000 		.4byte	0x906
 1641 098a 03       		.uleb128 0x3
 1642 098b 61080000 		.4byte	.LASF142
 1643 098f 0C       		.byte	0xc
 1644 0990 34       		.byte	0x34
 1645 0991 95090000 		.4byte	0x995
ARM GAS  C:\Users\RAKIBU~1\AppData\Local\Temp\ccL5M507.s 			page 30


 1646 0995 10       		.uleb128 0x10
 1647 0996 FA050000 		.4byte	.LASF143
 1648 099a 60       		.byte	0x60
 1649 099b 0D       		.byte	0xd
 1650 099c 8E       		.byte	0x8e
 1651 099d 800A0000 		.4byte	0xa80
 1652 09a1 0D       		.uleb128 0xd
 1653 09a2 9F090000 		.4byte	.LASF144
 1654 09a6 0D       		.byte	0xd
 1655 09a7 8F       		.byte	0x8f
 1656 09a8 B50A0000 		.4byte	0xab5
 1657 09ac 00       		.byte	0
 1658 09ad 0D       		.uleb128 0xd
 1659 09ae 84010000 		.4byte	.LASF145
 1660 09b2 0D       		.byte	0xd
 1661 09b3 90       		.byte	0x90
 1662 09b4 53090000 		.4byte	0x953
 1663 09b8 08       		.byte	0x8
 1664 09b9 11       		.uleb128 0x11
 1665 09ba 63747800 		.ascii	"ctx\000"
 1666 09be 0D       		.byte	0xd
 1667 09bf 91       		.byte	0x91
 1668 09c0 4A0D0000 		.4byte	0xd4a
 1669 09c4 0C       		.byte	0xc
 1670 09c5 0D       		.uleb128 0xd
 1671 09c6 470C0000 		.4byte	.LASF146
 1672 09ca 0D       		.byte	0xd
 1673 09cb 93       		.byte	0x93
 1674 09cc 8B0A0000 		.4byte	0xa8b
 1675 09d0 10       		.byte	0x10
 1676 09d1 0D       		.uleb128 0xd
 1677 09d2 5A060000 		.4byte	.LASF147
 1678 09d6 0D       		.byte	0xd
 1679 09d7 94       		.byte	0x94
 1680 09d8 8B0A0000 		.4byte	0xa8b
 1681 09dc 14       		.byte	0x14
 1682 09dd 0D       		.uleb128 0xd
 1683 09de 050B0000 		.4byte	.LASF148
 1684 09e2 0D       		.byte	0xd
 1685 09e3 9B       		.byte	0x9b
 1686 09e4 D2050000 		.4byte	0x5d2
 1687 09e8 18       		.byte	0x18
 1688 09e9 0D       		.uleb128 0xd
 1689 09ea B40A0000 		.4byte	.LASF149
 1690 09ee 0D       		.byte	0xd
 1691 09ef A4       		.byte	0xa4
 1692 09f0 B2100000 		.4byte	0x10b2
 1693 09f4 1C       		.byte	0x1c
 1694 09f5 0D       		.uleb128 0xd
 1695 09f6 23010000 		.4byte	.LASF150
 1696 09fa 0D       		.byte	0xd
 1697 09fb A9       		.byte	0xa9
 1698 09fc 3D090000 		.4byte	0x93d
 1699 0a00 20       		.byte	0x20
 1700 0a01 0D       		.uleb128 0xd
 1701 0a02 0B040000 		.4byte	.LASF151
 1702 0a06 0D       		.byte	0xd
ARM GAS  C:\Users\RAKIBU~1\AppData\Local\Temp\ccL5M507.s 			page 31


 1703 0a07 AD       		.byte	0xad
 1704 0a08 32090000 		.4byte	0x932
 1705 0a0c 21       		.byte	0x21
 1706 0a0d 0D       		.uleb128 0xd
 1707 0a0e A6070000 		.4byte	.LASF152
 1708 0a12 0D       		.byte	0xd
 1709 0a13 B2       		.byte	0xb2
 1710 0a14 48090000 		.4byte	0x948
 1711 0a18 22       		.byte	0x22
 1712 0a19 21       		.uleb128 0x21
 1713 0a1a 7500     		.ascii	"u\000"
 1714 0a1c 0D       		.byte	0xd
 1715 0a1d 0301     		.2byte	0x103
 1716 0a1f E80F0000 		.4byte	0xfe8
 1717 0a23 24       		.byte	0x24
 1718 0a24 18       		.uleb128 0x18
 1719 0a25 C30B0000 		.4byte	.LASF153
 1720 0a29 0D       		.byte	0xd
 1721 0a2a 0801     		.2byte	0x108
 1722 0a2c 910A0000 		.4byte	0xa91
 1723 0a30 28       		.byte	0x28
 1724 0a31 18       		.uleb128 0x18
 1725 0a32 660B0000 		.4byte	.LASF154
 1726 0a36 0D       		.byte	0xd
 1727 0a37 0E01     		.2byte	0x10e
 1728 0a39 B50A0000 		.4byte	0xab5
 1729 0a3d 2C       		.byte	0x2c
 1730 0a3e 18       		.uleb128 0x18
 1731 0a3f A5090000 		.4byte	.LASF155
 1732 0a43 0D       		.byte	0xd
 1733 0a44 1401     		.2byte	0x114
 1734 0a46 69090000 		.4byte	0x969
 1735 0a4a 34       		.byte	0x34
 1736 0a4b 18       		.uleb128 0x18
 1737 0a4c EF060000 		.4byte	.LASF156
 1738 0a50 0D       		.byte	0xd
 1739 0a51 1B01     		.2byte	0x11b
 1740 0a53 AC100000 		.4byte	0x10ac
 1741 0a57 38       		.byte	0x38
 1742 0a58 18       		.uleb128 0x18
 1743 0a59 6C060000 		.4byte	.LASF157
 1744 0a5d 0D       		.byte	0xd
 1745 0a5e 1F01     		.2byte	0x11f
 1746 0a60 53090000 		.4byte	0x953
 1747 0a64 3C       		.byte	0x3c
 1748 0a65 18       		.uleb128 0x18
 1749 0a66 23040000 		.4byte	.LASF158
 1750 0a6a 0D       		.byte	0xd
 1751 0a6b 2601     		.2byte	0x126
 1752 0a6d 52010000 		.4byte	0x152
 1753 0a71 40       		.byte	0x40
 1754 0a72 18       		.uleb128 0x18
 1755 0a73 38010000 		.4byte	.LASF159
 1756 0a77 0D       		.byte	0xd
 1757 0a78 2C01     		.2byte	0x12c
 1758 0a7a 990F0000 		.4byte	0xf99
 1759 0a7e 48       		.byte	0x48
ARM GAS  C:\Users\RAKIBU~1\AppData\Local\Temp\ccL5M507.s 			page 32


 1760 0a7f 00       		.byte	0
 1761 0a80 03       		.uleb128 0x3
 1762 0a81 27080000 		.4byte	.LASF160
 1763 0a85 0C       		.byte	0xc
 1764 0a86 39       		.byte	0x39
 1765 0a87 8B0A0000 		.4byte	0xa8b
 1766 0a8b 05       		.uleb128 0x5
 1767 0a8c 04       		.byte	0x4
 1768 0a8d 8A090000 		.4byte	0x98a
 1769 0a91 03       		.uleb128 0x3
 1770 0a92 1E0C0000 		.4byte	.LASF161
 1771 0a96 0C       		.byte	0xc
 1772 0a97 3E       		.byte	0x3e
 1773 0a98 9C0A0000 		.4byte	0xa9c
 1774 0a9c 10       		.uleb128 0x10
 1775 0a9d 9D060000 		.4byte	.LASF162
 1776 0aa1 04       		.byte	0x4
 1777 0aa2 0D       		.byte	0xd
 1778 0aa3 7C       		.byte	0x7c
 1779 0aa4 B50A0000 		.4byte	0xab5
 1780 0aa8 0D       		.uleb128 0xd
 1781 0aa9 060D0000 		.4byte	.LASF163
 1782 0aad 0D       		.byte	0xd
 1783 0aae 7D       		.byte	0x7d
 1784 0aaf 8B0A0000 		.4byte	0xa8b
 1785 0ab3 00       		.byte	0
 1786 0ab4 00       		.byte	0
 1787 0ab5 03       		.uleb128 0x3
 1788 0ab6 3E020000 		.4byte	.LASF164
 1789 0aba 0C       		.byte	0xc
 1790 0abb 45       		.byte	0x45
 1791 0abc C00A0000 		.4byte	0xac0
 1792 0ac0 10       		.uleb128 0x10
 1793 0ac1 69090000 		.4byte	.LASF165
 1794 0ac5 08       		.byte	0x8
 1795 0ac6 0D       		.byte	0xd
 1796 0ac7 83       		.byte	0x83
 1797 0ac8 E50A0000 		.4byte	0xae5
 1798 0acc 0D       		.uleb128 0xd
 1799 0acd 060D0000 		.4byte	.LASF163
 1800 0ad1 0D       		.byte	0xd
 1801 0ad2 84       		.byte	0x84
 1802 0ad3 8B0A0000 		.4byte	0xa8b
 1803 0ad7 00       		.byte	0
 1804 0ad8 0D       		.uleb128 0xd
 1805 0ad9 CA0C0000 		.4byte	.LASF166
 1806 0add 0D       		.byte	0xd
 1807 0ade 85       		.byte	0x85
 1808 0adf 8B0A0000 		.4byte	0xa8b
 1809 0ae3 04       		.byte	0x4
 1810 0ae4 00       		.byte	0
 1811 0ae5 03       		.uleb128 0x3
 1812 0ae6 4D060000 		.4byte	.LASF167
 1813 0aea 0C       		.byte	0xc
 1814 0aeb 4C       		.byte	0x4c
 1815 0aec F00A0000 		.4byte	0xaf0
 1816 0af0 1B       		.uleb128 0x1b
ARM GAS  C:\Users\RAKIBU~1\AppData\Local\Temp\ccL5M507.s 			page 33


 1817 0af1 8A040000 		.4byte	.LASF168
 1818 0af5 1C       		.byte	0x1c
 1819 0af6 0D       		.byte	0xd
 1820 0af7 5E01     		.2byte	0x15e
 1821 0af9 4C0B0000 		.4byte	0xb4c
 1822 0afd 18       		.uleb128 0x18
 1823 0afe 9F090000 		.4byte	.LASF144
 1824 0b02 0D       		.byte	0xd
 1825 0b03 5F01     		.2byte	0x15f
 1826 0b05 B50A0000 		.4byte	0xab5
 1827 0b09 00       		.byte	0
 1828 0b0a 18       		.uleb128 0x18
 1829 0b0b 84010000 		.4byte	.LASF145
 1830 0b0f 0D       		.byte	0xd
 1831 0b10 6001     		.2byte	0x160
 1832 0b12 53090000 		.4byte	0x953
 1833 0b16 08       		.byte	0x8
 1834 0b17 21       		.uleb128 0x21
 1835 0b18 63747800 		.ascii	"ctx\000"
 1836 0b1c 0D       		.byte	0xd
 1837 0b1d 6201     		.2byte	0x162
 1838 0b1f 4A0D0000 		.4byte	0xd4a
 1839 0b23 0C       		.byte	0xc
 1840 0b24 18       		.uleb128 0x18
 1841 0b25 470C0000 		.4byte	.LASF146
 1842 0b29 0D       		.byte	0xd
 1843 0b2a 6501     		.2byte	0x165
 1844 0b2c 8B0A0000 		.4byte	0xa8b
 1845 0b30 10       		.byte	0x10
 1846 0b31 18       		.uleb128 0x18
 1847 0b32 5A060000 		.4byte	.LASF147
 1848 0b36 0D       		.byte	0xd
 1849 0b37 6601     		.2byte	0x166
 1850 0b39 8B0A0000 		.4byte	0xa8b
 1851 0b3d 14       		.byte	0x14
 1852 0b3e 18       		.uleb128 0x18
 1853 0b3f 06080000 		.4byte	.LASF169
 1854 0b43 0D       		.byte	0xd
 1855 0b44 6901     		.2byte	0x169
 1856 0b46 8B0A0000 		.4byte	0xa8b
 1857 0b4a 18       		.byte	0x18
 1858 0b4b 00       		.byte	0
 1859 0b4c 03       		.uleb128 0x3
 1860 0b4d AC000000 		.4byte	.LASF170
 1861 0b51 0C       		.byte	0xc
 1862 0b52 51       		.byte	0x51
 1863 0b53 570B0000 		.4byte	0xb57
 1864 0b57 05       		.uleb128 0x5
 1865 0b58 04       		.byte	0x4
 1866 0b59 5D0B0000 		.4byte	0xb5d
 1867 0b5d 1F       		.uleb128 0x1f
 1868 0b5e 680B0000 		.4byte	0xb68
 1869 0b62 16       		.uleb128 0x16
 1870 0b63 52010000 		.4byte	0x152
 1871 0b67 00       		.byte	0
 1872 0b68 03       		.uleb128 0x3
 1873 0b69 3D060000 		.4byte	.LASF171
ARM GAS  C:\Users\RAKIBU~1\AppData\Local\Temp\ccL5M507.s 			page 34


 1874 0b6d 0C       		.byte	0xc
 1875 0b6e 56       		.byte	0x56
 1876 0b6f 730B0000 		.4byte	0xb73
 1877 0b73 1B       		.uleb128 0x1b
 1878 0b74 FD080000 		.4byte	.LASF172
 1879 0b78 18       		.byte	0x18
 1880 0b79 0D       		.byte	0xd
 1881 0b7a 3901     		.2byte	0x139
 1882 0b7c C20B0000 		.4byte	0xbc2
 1883 0b80 18       		.uleb128 0x18
 1884 0b81 060D0000 		.4byte	.LASF163
 1885 0b85 0D       		.byte	0xd
 1886 0b86 3A01     		.2byte	0x13a
 1887 0b88 B8100000 		.4byte	0x10b8
 1888 0b8c 00       		.byte	0
 1889 0b8d 18       		.uleb128 0x18
 1890 0b8e CA0C0000 		.4byte	.LASF166
 1891 0b92 0D       		.byte	0xd
 1892 0b93 3B01     		.2byte	0x13b
 1893 0b95 B8100000 		.4byte	0x10b8
 1894 0b99 04       		.byte	0x4
 1895 0b9a 18       		.uleb128 0x18
 1896 0b9b 8A090000 		.4byte	.LASF173
 1897 0b9f 0D       		.byte	0xd
 1898 0ba0 3C01     		.2byte	0x13c
 1899 0ba2 D20C0000 		.4byte	0xcd2
 1900 0ba6 08       		.byte	0x8
 1901 0ba7 18       		.uleb128 0x18
 1902 0ba8 420B0000 		.4byte	.LASF174
 1903 0bac 0D       		.byte	0xd
 1904 0bad 3D01     		.2byte	0x13d
 1905 0baf 4C0B0000 		.4byte	0xb4c
 1906 0bb3 10       		.byte	0x10
 1907 0bb4 21       		.uleb128 0x21
 1908 0bb5 70617200 		.ascii	"par\000"
 1909 0bb9 0D       		.byte	0xd
 1910 0bba 3F01     		.2byte	0x13f
 1911 0bbc 52010000 		.4byte	0x152
 1912 0bc0 14       		.byte	0x14
 1913 0bc1 00       		.byte	0
 1914 0bc2 03       		.uleb128 0x3
 1915 0bc3 04060000 		.4byte	.LASF175
 1916 0bc7 0C       		.byte	0xc
 1917 0bc8 5B       		.byte	0x5b
 1918 0bc9 CD0B0000 		.4byte	0xbcd
 1919 0bcd 1B       		.uleb128 0x1b
 1920 0bce BE000000 		.4byte	.LASF176
 1921 0bd2 18       		.byte	0x18
 1922 0bd3 0D       		.byte	0xd
 1923 0bd4 4901     		.2byte	0x149
 1924 0bd6 0F0C0000 		.4byte	0xc0f
 1925 0bda 18       		.uleb128 0x18
 1926 0bdb 060D0000 		.4byte	.LASF163
 1927 0bdf 0D       		.byte	0xd
 1928 0be0 4A01     		.2byte	0x14a
 1929 0be2 B8100000 		.4byte	0x10b8
 1930 0be6 00       		.byte	0
ARM GAS  C:\Users\RAKIBU~1\AppData\Local\Temp\ccL5M507.s 			page 35


 1931 0be7 18       		.uleb128 0x18
 1932 0be8 CA0C0000 		.4byte	.LASF166
 1933 0bec 0D       		.byte	0xd
 1934 0bed 4C01     		.2byte	0x14c
 1935 0bef B8100000 		.4byte	0x10b8
 1936 0bf3 04       		.byte	0x4
 1937 0bf4 18       		.uleb128 0x18
 1938 0bf5 8A090000 		.4byte	.LASF173
 1939 0bf9 0D       		.byte	0xd
 1940 0bfa 4E01     		.2byte	0x14e
 1941 0bfc D20C0000 		.4byte	0xcd2
 1942 0c00 08       		.byte	0x8
 1943 0c01 18       		.uleb128 0x18
 1944 0c02 16030000 		.4byte	.LASF177
 1945 0c06 0D       		.byte	0xd
 1946 0c07 5601     		.2byte	0x156
 1947 0c09 C70C0000 		.4byte	0xcc7
 1948 0c0d 10       		.byte	0x10
 1949 0c0e 00       		.byte	0
 1950 0c0f 03       		.uleb128 0x3
 1951 0c10 93030000 		.4byte	.LASF178
 1952 0c14 0C       		.byte	0xc
 1953 0c15 60       		.byte	0x60
 1954 0c16 1A0C0000 		.4byte	0xc1a
 1955 0c1a 17       		.uleb128 0x17
 1956 0c1b 780B0000 		.4byte	.LASF179
 1957 0c1f 1408     		.2byte	0x814
 1958 0c21 0D       		.byte	0xd
 1959 0c22 7001     		.2byte	0x170
 1960 0c24 5D0C0000 		.4byte	0xc5d
 1961 0c28 18       		.uleb128 0x18
 1962 0c29 56030000 		.4byte	.LASF180
 1963 0c2d 0D       		.byte	0xd
 1964 0c2e 7801     		.2byte	0x178
 1965 0c30 D8050000 		.4byte	0x5d8
 1966 0c34 00       		.byte	0
 1967 0c35 18       		.uleb128 0x18
 1968 0c36 BB080000 		.4byte	.LASF181
 1969 0c3a 0D       		.byte	0xd
 1970 0c3b 7D01     		.2byte	0x17d
 1971 0c3d 74090000 		.4byte	0x974
 1972 0c41 04       		.byte	0x4
 1973 0c42 18       		.uleb128 0x18
 1974 0c43 2F010000 		.4byte	.LASF182
 1975 0c47 0D       		.byte	0xd
 1976 0c48 8101     		.2byte	0x181
 1977 0c4a 74090000 		.4byte	0x974
 1978 0c4e 08       		.byte	0x8
 1979 0c4f 18       		.uleb128 0x18
 1980 0c50 46040000 		.4byte	.LASF183
 1981 0c54 0D       		.byte	0xd
 1982 0c55 8701     		.2byte	0x187
 1983 0c57 2B0F0000 		.4byte	0xf2b
 1984 0c5b 0C       		.byte	0xc
 1985 0c5c 00       		.byte	0
 1986 0c5d 03       		.uleb128 0x3
 1987 0c5e 8E0C0000 		.4byte	.LASF184
ARM GAS  C:\Users\RAKIBU~1\AppData\Local\Temp\ccL5M507.s 			page 36


 1988 0c62 0C       		.byte	0xc
 1989 0c63 65       		.byte	0x65
 1990 0c64 680C0000 		.4byte	0xc68
 1991 0c68 17       		.uleb128 0x17
 1992 0c69 2D0C0000 		.4byte	.LASF185
 1993 0c6d F008     		.2byte	0x8f0
 1994 0c6f 0D       		.byte	0xd
 1995 0c70 9001     		.2byte	0x190
 1996 0c72 C70C0000 		.4byte	0xcc7
 1997 0c76 18       		.uleb128 0x18
 1998 0c77 DC0A0000 		.4byte	.LASF186
 1999 0c7b 0D       		.byte	0xd
 2000 0c7c 9401     		.2byte	0x194
 2001 0c7e E50A0000 		.4byte	0xae5
 2002 0c82 00       		.byte	0
 2003 0c83 18       		.uleb128 0x18
 2004 0c84 B20B0000 		.4byte	.LASF187
 2005 0c88 0D       		.byte	0xd
 2006 0c89 9801     		.2byte	0x198
 2007 0c8b C20B0000 		.4byte	0xbc2
 2008 0c8f 20       		.byte	0x20
 2009 0c90 21       		.uleb128 0x21
 2010 0c91 64626700 		.ascii	"dbg\000"
 2011 0c95 0D       		.byte	0xd
 2012 0c96 9C01     		.2byte	0x19c
 2013 0c98 0F0C0000 		.4byte	0xc0f
 2014 0c9c 38       		.byte	0x38
 2015 0c9d 19       		.uleb128 0x19
 2016 0c9e 690A0000 		.4byte	.LASF188
 2017 0ca2 0D       		.byte	0xd
 2018 0ca3 A001     		.2byte	0x1a0
 2019 0ca5 8A090000 		.4byte	0x98a
 2020 0ca9 5008     		.2byte	0x850
 2021 0cab 22       		.uleb128 0x22
 2022 0cac 746D00   		.ascii	"tm\000"
 2023 0caf 0D       		.byte	0xd
 2024 0cb0 A501     		.2byte	0x1a5
 2025 0cb2 4B0F0000 		.4byte	0xf4b
 2026 0cb6 B008     		.2byte	0x8b0
 2027 0cb8 19       		.uleb128 0x19
 2028 0cb9 1C090000 		.4byte	.LASF189
 2029 0cbd 0D       		.byte	0xd
 2030 0cbe AB01     		.2byte	0x1ab
 2031 0cc0 DD0F0000 		.4byte	0xfdd
 2032 0cc4 B808     		.2byte	0x8b8
 2033 0cc6 00       		.byte	0
 2034 0cc7 03       		.uleb128 0x3
 2035 0cc8 32000000 		.4byte	.LASF190
 2036 0ccc 0E       		.byte	0xe
 2037 0ccd 6D       		.byte	0x6d
 2038 0cce 06090000 		.4byte	0x906
 2039 0cd2 03       		.uleb128 0x3
 2040 0cd3 05070000 		.4byte	.LASF191
 2041 0cd7 0E       		.byte	0xe
 2042 0cd8 77       		.byte	0x77
 2043 0cd9 11090000 		.4byte	0x911
 2044 0cdd 20       		.uleb128 0x20
ARM GAS  C:\Users\RAKIBU~1\AppData\Local\Temp\ccL5M507.s 			page 37


 2045 0cde 69070000 		.4byte	.LASF192
 2046 0ce2 0F       		.byte	0xf
 2047 0ce3 0408     		.2byte	0x804
 2048 0ce5 01090000 		.4byte	0x901
 2049 0ce9 23       		.uleb128 0x23
 2050 0cea DD050000 		.4byte	.LASF193
 2051 0cee 10       		.byte	0x10
 2052 0cef 4C       		.byte	0x4c
 2053 0cf0 06090000 		.4byte	0x906
 2054 0cf4 0A       		.uleb128 0xa
 2055 0cf5 E6080000 		.4byte	0x8e6
 2056 0cf9 040D0000 		.4byte	0xd04
 2057 0cfd 0B       		.uleb128 0xb
 2058 0cfe 37000000 		.4byte	0x37
 2059 0d02 0F       		.byte	0xf
 2060 0d03 00       		.byte	0
 2061 0d04 0F       		.uleb128 0xf
 2062 0d05 F40C0000 		.4byte	0xcf4
 2063 0d09 23       		.uleb128 0x23
 2064 0d0a EF080000 		.4byte	.LASF194
 2065 0d0e 10       		.byte	0x10
 2066 0d0f 4E       		.byte	0x4e
 2067 0d10 040D0000 		.4byte	0xd04
 2068 0d14 0A       		.uleb128 0xa
 2069 0d15 E6080000 		.4byte	0x8e6
 2070 0d19 240D0000 		.4byte	0xd24
 2071 0d1d 0B       		.uleb128 0xb
 2072 0d1e 37000000 		.4byte	0x37
 2073 0d22 07       		.byte	0x7
 2074 0d23 00       		.byte	0
 2075 0d24 0F       		.uleb128 0xf
 2076 0d25 140D0000 		.4byte	0xd14
 2077 0d29 23       		.uleb128 0x23
 2078 0d2a 140B0000 		.4byte	.LASF195
 2079 0d2e 10       		.byte	0x10
 2080 0d2f 4F       		.byte	0x4f
 2081 0d30 240D0000 		.4byte	0xd24
 2082 0d34 03       		.uleb128 0x3
 2083 0d35 4E020000 		.4byte	.LASF196
 2084 0d39 11       		.byte	0x11
 2085 0d3a 65       		.byte	0x65
 2086 0d3b 52010000 		.4byte	0x152
 2087 0d3f 03       		.uleb128 0x3
 2088 0d40 11040000 		.4byte	.LASF197
 2089 0d44 11       		.byte	0x11
 2090 0d45 6D       		.byte	0x6d
 2091 0d46 11090000 		.4byte	0x911
 2092 0d4a 10       		.uleb128 0x10
 2093 0d4b 110C0000 		.4byte	.LASF198
 2094 0d4f 04       		.byte	0x4
 2095 0d50 11       		.byte	0x11
 2096 0d51 89       		.byte	0x89
 2097 0d52 620D0000 		.4byte	0xd62
 2098 0d56 11       		.uleb128 0x11
 2099 0d57 737000   		.ascii	"sp\000"
 2100 0d5a 11       		.byte	0x11
 2101 0d5b 8A       		.byte	0x8a
ARM GAS  C:\Users\RAKIBU~1\AppData\Local\Temp\ccL5M507.s 			page 38


 2102 0d5c DE0D0000 		.4byte	0xdde
 2103 0d60 00       		.byte	0
 2104 0d61 00       		.byte	0
 2105 0d62 1B       		.uleb128 0x1b
 2106 0d63 88080000 		.4byte	.LASF199
 2107 0d67 24       		.byte	0x24
 2108 0d68 12       		.byte	0x12
 2109 0d69 6001     		.2byte	0x160
 2110 0d6b DE0D0000 		.4byte	0xdde
 2111 0d6f 21       		.uleb128 0x21
 2112 0d70 723400   		.ascii	"r4\000"
 2113 0d73 12       		.byte	0x12
 2114 0d74 7301     		.2byte	0x173
 2115 0d76 340D0000 		.4byte	0xd34
 2116 0d7a 00       		.byte	0
 2117 0d7b 21       		.uleb128 0x21
 2118 0d7c 723500   		.ascii	"r5\000"
 2119 0d7f 12       		.byte	0x12
 2120 0d80 7401     		.2byte	0x174
 2121 0d82 340D0000 		.4byte	0xd34
 2122 0d86 04       		.byte	0x4
 2123 0d87 21       		.uleb128 0x21
 2124 0d88 723600   		.ascii	"r6\000"
 2125 0d8b 12       		.byte	0x12
 2126 0d8c 7501     		.2byte	0x175
 2127 0d8e 340D0000 		.4byte	0xd34
 2128 0d92 08       		.byte	0x8
 2129 0d93 21       		.uleb128 0x21
 2130 0d94 723700   		.ascii	"r7\000"
 2131 0d97 12       		.byte	0x12
 2132 0d98 7601     		.2byte	0x176
 2133 0d9a 340D0000 		.4byte	0xd34
 2134 0d9e 0C       		.byte	0xc
 2135 0d9f 21       		.uleb128 0x21
 2136 0da0 723800   		.ascii	"r8\000"
 2137 0da3 12       		.byte	0x12
 2138 0da4 7701     		.2byte	0x177
 2139 0da6 340D0000 		.4byte	0xd34
 2140 0daa 10       		.byte	0x10
 2141 0dab 21       		.uleb128 0x21
 2142 0dac 723900   		.ascii	"r9\000"
 2143 0daf 12       		.byte	0x12
 2144 0db0 7801     		.2byte	0x178
 2145 0db2 340D0000 		.4byte	0xd34
 2146 0db6 14       		.byte	0x14
 2147 0db7 21       		.uleb128 0x21
 2148 0db8 72313000 		.ascii	"r10\000"
 2149 0dbc 12       		.byte	0x12
 2150 0dbd 7901     		.2byte	0x179
 2151 0dbf 340D0000 		.4byte	0xd34
 2152 0dc3 18       		.byte	0x18
 2153 0dc4 21       		.uleb128 0x21
 2154 0dc5 72313100 		.ascii	"r11\000"
 2155 0dc9 12       		.byte	0x12
 2156 0dca 7A01     		.2byte	0x17a
 2157 0dcc 340D0000 		.4byte	0xd34
 2158 0dd0 1C       		.byte	0x1c
ARM GAS  C:\Users\RAKIBU~1\AppData\Local\Temp\ccL5M507.s 			page 39


 2159 0dd1 21       		.uleb128 0x21
 2160 0dd2 6C7200   		.ascii	"lr\000"
 2161 0dd5 12       		.byte	0x12
 2162 0dd6 7B01     		.2byte	0x17b
 2163 0dd8 340D0000 		.4byte	0xd34
 2164 0ddc 20       		.byte	0x20
 2165 0ddd 00       		.byte	0
 2166 0dde 05       		.uleb128 0x5
 2167 0ddf 04       		.byte	0x4
 2168 0de0 620D0000 		.4byte	0xd62
 2169 0de4 0C       		.uleb128 0xc
 2170 0de5 08       		.byte	0x8
 2171 0de6 13       		.byte	0x13
 2172 0de7 7F       		.byte	0x7f
 2173 0de8 050E0000 		.4byte	0xe05
 2174 0dec 11       		.uleb128 0x11
 2175 0ded 6E747000 		.ascii	"ntp\000"
 2176 0df1 13       		.byte	0x13
 2177 0df2 83       		.byte	0x83
 2178 0df3 8B0A0000 		.4byte	0xa8b
 2179 0df7 00       		.byte	0
 2180 0df8 0D       		.uleb128 0xd
 2181 0df9 EB030000 		.4byte	.LASF200
 2182 0dfd 13       		.byte	0x13
 2183 0dfe 87       		.byte	0x87
 2184 0dff 52010000 		.4byte	0x152
 2185 0e03 04       		.byte	0x4
 2186 0e04 00       		.byte	0
 2187 0e05 0C       		.uleb128 0xc
 2188 0e06 04       		.byte	0x4
 2189 0e07 13       		.byte	0x13
 2190 0e08 8C       		.byte	0x8c
 2191 0e09 1A0E0000 		.4byte	0xe1a
 2192 0e0d 0D       		.uleb128 0xd
 2193 0e0e 050B0000 		.4byte	.LASF148
 2194 0e12 13       		.byte	0x13
 2195 0e13 90       		.byte	0x90
 2196 0e14 D2050000 		.4byte	0x5d2
 2197 0e18 00       		.byte	0
 2198 0e19 00       		.byte	0
 2199 0e1a 0C       		.uleb128 0xc
 2200 0e1b 04       		.byte	0x4
 2201 0e1c 13       		.byte	0x13
 2202 0e1d 95       		.byte	0x95
 2203 0e1e 2F0E0000 		.4byte	0xe2f
 2204 0e22 0D       		.uleb128 0xd
 2205 0e23 AE090000 		.4byte	.LASF201
 2206 0e27 13       		.byte	0x13
 2207 0e28 99       		.byte	0x99
 2208 0e29 D2050000 		.4byte	0x5d2
 2209 0e2d 00       		.byte	0
 2210 0e2e 00       		.byte	0
 2211 0e2f 0C       		.uleb128 0xc
 2212 0e30 08       		.byte	0x8
 2213 0e31 13       		.byte	0x13
 2214 0e32 9E       		.byte	0x9e
 2215 0e33 500E0000 		.4byte	0xe50
ARM GAS  C:\Users\RAKIBU~1\AppData\Local\Temp\ccL5M507.s 			page 40


 2216 0e37 11       		.uleb128 0x11
 2217 0e38 75703100 		.ascii	"up1\000"
 2218 0e3c 13       		.byte	0x13
 2219 0e3d A2       		.byte	0xa2
 2220 0e3e 52010000 		.4byte	0x152
 2221 0e42 00       		.byte	0
 2222 0e43 11       		.uleb128 0x11
 2223 0e44 75703200 		.ascii	"up2\000"
 2224 0e48 13       		.byte	0x13
 2225 0e49 A6       		.byte	0xa6
 2226 0e4a 52010000 		.4byte	0x152
 2227 0e4e 04       		.byte	0x4
 2228 0e4f 00       		.byte	0
 2229 0e50 08       		.uleb128 0x8
 2230 0e51 08       		.byte	0x8
 2231 0e52 13       		.byte	0x13
 2232 0e53 7B       		.byte	0x7b
 2233 0e54 840E0000 		.4byte	0xe84
 2234 0e58 24       		.uleb128 0x24
 2235 0e59 737700   		.ascii	"sw\000"
 2236 0e5c 13       		.byte	0x13
 2237 0e5d 88       		.byte	0x88
 2238 0e5e E40D0000 		.4byte	0xde4
 2239 0e62 24       		.uleb128 0x24
 2240 0e63 69737200 		.ascii	"isr\000"
 2241 0e67 13       		.byte	0x13
 2242 0e68 91       		.byte	0x91
 2243 0e69 050E0000 		.4byte	0xe05
 2244 0e6d 09       		.uleb128 0x9
 2245 0e6e 8C0A0000 		.4byte	.LASF202
 2246 0e72 13       		.byte	0x13
 2247 0e73 9A       		.byte	0x9a
 2248 0e74 1A0E0000 		.4byte	0xe1a
 2249 0e78 09       		.uleb128 0x9
 2250 0e79 83000000 		.4byte	.LASF203
 2251 0e7d 13       		.byte	0x13
 2252 0e7e A7       		.byte	0xa7
 2253 0e7f 2F0E0000 		.4byte	0xe2f
 2254 0e83 00       		.byte	0
 2255 0e84 0C       		.uleb128 0xc
 2256 0e85 10       		.byte	0x10
 2257 0e86 13       		.byte	0x13
 2258 0e87 68       		.byte	0x68
 2259 0e88 D00E0000 		.4byte	0xed0
 2260 0e8c 25       		.uleb128 0x25
 2261 0e8d 3E010000 		.4byte	.LASF204
 2262 0e91 13       		.byte	0x13
 2263 0e92 6C       		.byte	0x6c
 2264 0e93 06090000 		.4byte	0x906
 2265 0e97 04       		.byte	0x4
 2266 0e98 03       		.byte	0x3
 2267 0e99 1D       		.byte	0x1d
 2268 0e9a 00       		.byte	0
 2269 0e9b 25       		.uleb128 0x25
 2270 0e9c 23010000 		.4byte	.LASF150
 2271 0ea0 13       		.byte	0x13
 2272 0ea1 70       		.byte	0x70
ARM GAS  C:\Users\RAKIBU~1\AppData\Local\Temp\ccL5M507.s 			page 41


 2273 0ea2 06090000 		.4byte	0x906
 2274 0ea6 04       		.byte	0x4
 2275 0ea7 05       		.byte	0x5
 2276 0ea8 18       		.byte	0x18
 2277 0ea9 00       		.byte	0
 2278 0eaa 25       		.uleb128 0x25
 2279 0eab 1B010000 		.4byte	.LASF205
 2280 0eaf 13       		.byte	0x13
 2281 0eb0 76       		.byte	0x76
 2282 0eb1 06090000 		.4byte	0x906
 2283 0eb5 04       		.byte	0x4
 2284 0eb6 18       		.byte	0x18
 2285 0eb7 00       		.byte	0
 2286 0eb8 00       		.byte	0
 2287 0eb9 0D       		.uleb128 0xd
 2288 0eba CF0C0000 		.4byte	.LASF206
 2289 0ebe 13       		.byte	0x13
 2290 0ebf 7A       		.byte	0x7a
 2291 0ec0 C70C0000 		.4byte	0xcc7
 2292 0ec4 04       		.byte	0x4
 2293 0ec5 11       		.uleb128 0x11
 2294 0ec6 7500     		.ascii	"u\000"
 2295 0ec8 13       		.byte	0x13
 2296 0ec9 A8       		.byte	0xa8
 2297 0eca 500E0000 		.4byte	0xe50
 2298 0ece 08       		.byte	0x8
 2299 0ecf 00       		.byte	0
 2300 0ed0 03       		.uleb128 0x3
 2301 0ed1 CC020000 		.4byte	.LASF207
 2302 0ed5 13       		.byte	0x13
 2303 0ed6 A9       		.byte	0xa9
 2304 0ed7 840E0000 		.4byte	0xe84
 2305 0edb 26       		.uleb128 0x26
 2306 0edc 0808     		.2byte	0x808
 2307 0ede 13       		.byte	0x13
 2308 0edf AF       		.byte	0xaf
 2309 0ee0 150F0000 		.4byte	0xf15
 2310 0ee4 0D       		.uleb128 0xd
 2311 0ee5 EA0A0000 		.4byte	.LASF208
 2312 0ee9 13       		.byte	0x13
 2313 0eea B3       		.byte	0xb3
 2314 0eeb EB080000 		.4byte	0x8eb
 2315 0eef 00       		.byte	0
 2316 0ef0 0D       		.uleb128 0xd
 2317 0ef1 29090000 		.4byte	.LASF209
 2318 0ef5 13       		.byte	0x13
 2319 0ef6 B7       		.byte	0xb7
 2320 0ef7 EB080000 		.4byte	0x8eb
 2321 0efb 02       		.byte	0x2
 2322 0efc 11       		.uleb128 0x11
 2323 0efd 70747200 		.ascii	"ptr\000"
 2324 0f01 13       		.byte	0x13
 2325 0f02 BB       		.byte	0xbb
 2326 0f03 150F0000 		.4byte	0xf15
 2327 0f07 04       		.byte	0x4
 2328 0f08 0D       		.uleb128 0xd
 2329 0f09 5D040000 		.4byte	.LASF210
ARM GAS  C:\Users\RAKIBU~1\AppData\Local\Temp\ccL5M507.s 			page 42


 2330 0f0d 13       		.byte	0x13
 2331 0f0e BF       		.byte	0xbf
 2332 0f0f 1B0F0000 		.4byte	0xf1b
 2333 0f13 08       		.byte	0x8
 2334 0f14 00       		.byte	0
 2335 0f15 05       		.uleb128 0x5
 2336 0f16 04       		.byte	0x4
 2337 0f17 D00E0000 		.4byte	0xed0
 2338 0f1b 0A       		.uleb128 0xa
 2339 0f1c D00E0000 		.4byte	0xed0
 2340 0f20 2B0F0000 		.4byte	0xf2b
 2341 0f24 0B       		.uleb128 0xb
 2342 0f25 37000000 		.4byte	0x37
 2343 0f29 7F       		.byte	0x7f
 2344 0f2a 00       		.byte	0
 2345 0f2b 03       		.uleb128 0x3
 2346 0f2c 6C040000 		.4byte	.LASF211
 2347 0f30 13       		.byte	0x13
 2348 0f31 C0       		.byte	0xc0
 2349 0f32 DB0E0000 		.4byte	0xedb
 2350 0f36 0C       		.uleb128 0xc
 2351 0f37 04       		.byte	0x4
 2352 0f38 14       		.byte	0x14
 2353 0f39 38       		.byte	0x38
 2354 0f3a 4B0F0000 		.4byte	0xf4b
 2355 0f3e 0D       		.uleb128 0xd
 2356 0f3f 20080000 		.4byte	.LASF212
 2357 0f43 14       		.byte	0x14
 2358 0f44 3C       		.byte	0x3c
 2359 0f45 1C090000 		.4byte	0x91c
 2360 0f49 00       		.byte	0
 2361 0f4a 00       		.byte	0
 2362 0f4b 03       		.uleb128 0x3
 2363 0f4c F40A0000 		.4byte	.LASF213
 2364 0f50 14       		.byte	0x14
 2365 0f51 3D       		.byte	0x3d
 2366 0f52 360F0000 		.4byte	0xf36
 2367 0f56 0C       		.uleb128 0xc
 2368 0f57 18       		.byte	0x18
 2369 0f58 14       		.byte	0x14
 2370 0f59 48       		.byte	0x48
 2371 0f5a 990F0000 		.4byte	0xf99
 2372 0f5e 0D       		.uleb128 0xd
 2373 0f5f 9F0A0000 		.4byte	.LASF214
 2374 0f63 14       		.byte	0x14
 2375 0f64 49       		.byte	0x49
 2376 0f65 1C090000 		.4byte	0x91c
 2377 0f69 00       		.byte	0
 2378 0f6a 0D       		.uleb128 0xd
 2379 0f6b 29040000 		.4byte	.LASF215
 2380 0f6f 14       		.byte	0x14
 2381 0f70 4A       		.byte	0x4a
 2382 0f71 1C090000 		.4byte	0x91c
 2383 0f75 04       		.byte	0x4
 2384 0f76 0D       		.uleb128 0xd
 2385 0f77 480D0000 		.4byte	.LASF216
 2386 0f7b 14       		.byte	0x14
ARM GAS  C:\Users\RAKIBU~1\AppData\Local\Temp\ccL5M507.s 			page 43


 2387 0f7c 4B       		.byte	0x4b
 2388 0f7d 1C090000 		.4byte	0x91c
 2389 0f81 08       		.byte	0x8
 2390 0f82 11       		.uleb128 0x11
 2391 0f83 6E00     		.ascii	"n\000"
 2392 0f85 14       		.byte	0x14
 2393 0f86 4C       		.byte	0x4c
 2394 0f87 7F090000 		.4byte	0x97f
 2395 0f8b 0C       		.byte	0xc
 2396 0f8c 0D       		.uleb128 0xd
 2397 0f8d C2040000 		.4byte	.LASF217
 2398 0f91 14       		.byte	0x14
 2399 0f92 4D       		.byte	0x4d
 2400 0f93 27090000 		.4byte	0x927
 2401 0f97 10       		.byte	0x10
 2402 0f98 00       		.byte	0
 2403 0f99 03       		.uleb128 0x3
 2404 0f9a 67010000 		.4byte	.LASF218
 2405 0f9e 14       		.byte	0x14
 2406 0f9f 4E       		.byte	0x4e
 2407 0fa0 560F0000 		.4byte	0xf56
 2408 0fa4 0C       		.uleb128 0xc
 2409 0fa5 38       		.byte	0x38
 2410 0fa6 15       		.byte	0x15
 2411 0fa7 38       		.byte	0x38
 2412 0fa8 DD0F0000 		.4byte	0xfdd
 2413 0fac 0D       		.uleb128 0xd
 2414 0fad B5060000 		.4byte	.LASF219
 2415 0fb1 15       		.byte	0x15
 2416 0fb2 39       		.byte	0x39
 2417 0fb3 7F090000 		.4byte	0x97f
 2418 0fb7 00       		.byte	0
 2419 0fb8 0D       		.uleb128 0xd
 2420 0fb9 F2030000 		.4byte	.LASF220
 2421 0fbd 15       		.byte	0x15
 2422 0fbe 3A       		.byte	0x3a
 2423 0fbf 7F090000 		.4byte	0x97f
 2424 0fc3 04       		.byte	0x4
 2425 0fc4 0D       		.uleb128 0xd
 2426 0fc5 6A050000 		.4byte	.LASF221
 2427 0fc9 15       		.byte	0x15
 2428 0fca 3B       		.byte	0x3b
 2429 0fcb 990F0000 		.4byte	0xf99
 2430 0fcf 08       		.byte	0x8
 2431 0fd0 0D       		.uleb128 0xd
 2432 0fd1 86070000 		.4byte	.LASF222
 2433 0fd5 15       		.byte	0x15
 2434 0fd6 3D       		.byte	0x3d
 2435 0fd7 990F0000 		.4byte	0xf99
 2436 0fdb 20       		.byte	0x20
 2437 0fdc 00       		.byte	0
 2438 0fdd 03       		.uleb128 0x3
 2439 0fde CD070000 		.4byte	.LASF223
 2440 0fe2 15       		.byte	0x15
 2441 0fe3 3F       		.byte	0x3f
 2442 0fe4 A40F0000 		.4byte	0xfa4
 2443 0fe8 08       		.uleb128 0x8
ARM GAS  C:\Users\RAKIBU~1\AppData\Local\Temp\ccL5M507.s 			page 44


 2444 0fe9 04       		.byte	0x4
 2445 0fea 0D       		.byte	0xd
 2446 0feb C6       		.byte	0xc6
 2447 0fec 4A100000 		.4byte	0x104a
 2448 0ff0 09       		.uleb128 0x9
 2449 0ff1 650C0000 		.4byte	.LASF224
 2450 0ff5 0D       		.byte	0xd
 2451 0ff6 CD       		.byte	0xcd
 2452 0ff7 5E090000 		.4byte	0x95e
 2453 0ffb 09       		.uleb128 0x9
 2454 0ffc B2010000 		.4byte	.LASF225
 2455 1000 0D       		.byte	0xd
 2456 1001 D4       		.byte	0xd4
 2457 1002 5E090000 		.4byte	0x95e
 2458 1006 09       		.uleb128 0x9
 2459 1007 EB030000 		.4byte	.LASF200
 2460 100b 0D       		.byte	0xd
 2461 100c DB       		.byte	0xdb
 2462 100d 52010000 		.4byte	0x152
 2463 1011 09       		.uleb128 0x9
 2464 1012 E9020000 		.4byte	.LASF226
 2465 1016 0D       		.byte	0xd
 2466 1017 E2       		.byte	0xe2
 2467 1018 4A100000 		.4byte	0x104a
 2468 101c 09       		.uleb128 0x9
 2469 101d 80080000 		.4byte	.LASF227
 2470 1021 0D       		.byte	0xd
 2471 1022 E7       		.byte	0xe7
 2472 1023 5E090000 		.4byte	0x95e
 2473 1027 09       		.uleb128 0x9
 2474 1028 410D0000 		.4byte	.LASF228
 2475 102c 0D       		.byte	0xd
 2476 102d F0       		.byte	0xf0
 2477 102e 75100000 		.4byte	0x1075
 2478 1032 09       		.uleb128 0x9
 2479 1033 7E040000 		.4byte	.LASF229
 2480 1037 0D       		.byte	0xd
 2481 1038 F9       		.byte	0xf9
 2482 1039 AC100000 		.4byte	0x10ac
 2483 103d 1E       		.uleb128 0x1e
 2484 103e BD020000 		.4byte	.LASF230
 2485 1042 0D       		.byte	0xd
 2486 1043 0101     		.2byte	0x101
 2487 1045 69090000 		.4byte	0x969
 2488 1049 00       		.byte	0
 2489 104a 05       		.uleb128 0x5
 2490 104b 04       		.byte	0x4
 2491 104c 800A0000 		.4byte	0xa80
 2492 1050 10       		.uleb128 0x10
 2493 1051 ED050000 		.4byte	.LASF231
 2494 1055 0C       		.byte	0xc
 2495 1056 16       		.byte	0x16
 2496 1057 34       		.byte	0x34
 2497 1058 75100000 		.4byte	0x1075
 2498 105c 0D       		.uleb128 0xd
 2499 105d 9F090000 		.4byte	.LASF144
 2500 1061 16       		.byte	0x16
ARM GAS  C:\Users\RAKIBU~1\AppData\Local\Temp\ccL5M507.s 			page 45


 2501 1062 35       		.byte	0x35
 2502 1063 B50A0000 		.4byte	0xab5
 2503 1067 00       		.byte	0
 2504 1068 11       		.uleb128 0x11
 2505 1069 636E7400 		.ascii	"cnt\000"
 2506 106d 16       		.byte	0x16
 2507 106e 37       		.byte	0x37
 2508 106f 74090000 		.4byte	0x974
 2509 1073 08       		.byte	0x8
 2510 1074 00       		.byte	0
 2511 1075 05       		.uleb128 0x5
 2512 1076 04       		.byte	0x4
 2513 1077 50100000 		.4byte	0x1050
 2514 107b 10       		.uleb128 0x10
 2515 107c 5D0B0000 		.4byte	.LASF232
 2516 1080 10       		.byte	0x10
 2517 1081 17       		.byte	0x17
 2518 1082 39       		.byte	0x39
 2519 1083 AC100000 		.4byte	0x10ac
 2520 1087 0D       		.uleb128 0xd
 2521 1088 9F090000 		.4byte	.LASF144
 2522 108c 17       		.byte	0x17
 2523 108d 3A       		.byte	0x3a
 2524 108e B50A0000 		.4byte	0xab5
 2525 1092 00       		.byte	0
 2526 1093 0D       		.uleb128 0xd
 2527 1094 5D000000 		.4byte	.LASF233
 2528 1098 17       		.byte	0x17
 2529 1099 3C       		.byte	0x3c
 2530 109a 8B0A0000 		.4byte	0xa8b
 2531 109e 08       		.byte	0x8
 2532 109f 0D       		.uleb128 0xd
 2533 10a0 060D0000 		.4byte	.LASF163
 2534 10a4 17       		.byte	0x17
 2535 10a5 3E       		.byte	0x3e
 2536 10a6 F7110000 		.4byte	0x11f7
 2537 10aa 0C       		.byte	0xc
 2538 10ab 00       		.byte	0
 2539 10ac 05       		.uleb128 0x5
 2540 10ad 04       		.byte	0x4
 2541 10ae 7B100000 		.4byte	0x107b
 2542 10b2 05       		.uleb128 0x5
 2543 10b3 04       		.byte	0x4
 2544 10b4 3F0D0000 		.4byte	0xd3f
 2545 10b8 05       		.uleb128 0x5
 2546 10b9 04       		.byte	0x4
 2547 10ba 680B0000 		.4byte	0xb68
 2548 10be 27       		.uleb128 0x27
 2549 10bf 636800   		.ascii	"ch\000"
 2550 10c2 0D       		.byte	0xd
 2551 10c3 C701     		.2byte	0x1c7
 2552 10c5 5D0C0000 		.4byte	0xc5d
 2553 10c9 0A       		.uleb128 0xa
 2554 10ca 3F0D0000 		.4byte	0xd3f
 2555 10ce D4100000 		.4byte	0x10d4
 2556 10d2 28       		.uleb128 0x28
 2557 10d3 00       		.byte	0
ARM GAS  C:\Users\RAKIBU~1\AppData\Local\Temp\ccL5M507.s 			page 46


 2558 10d4 20       		.uleb128 0x20
 2559 10d5 1A060000 		.4byte	.LASF234
 2560 10d9 03       		.byte	0x3
 2561 10da 1701     		.2byte	0x117
 2562 10dc C9100000 		.4byte	0x10c9
 2563 10e0 0C       		.uleb128 0xc
 2564 10e1 16       		.byte	0x16
 2565 10e2 18       		.byte	0x18
 2566 10e3 34       		.byte	0x34
 2567 10e4 C1110000 		.4byte	0x11c1
 2568 10e8 0D       		.uleb128 0xd
 2569 10e9 200D0000 		.4byte	.LASF235
 2570 10ed 18       		.byte	0x18
 2571 10ee 35       		.byte	0x35
 2572 10ef C1110000 		.4byte	0x11c1
 2573 10f3 00       		.byte	0
 2574 10f4 0D       		.uleb128 0xd
 2575 10f5 18020000 		.4byte	.LASF236
 2576 10f9 18       		.byte	0x18
 2577 10fa 36       		.byte	0x36
 2578 10fb DB080000 		.4byte	0x8db
 2579 10ff 04       		.byte	0x4
 2580 1100 0D       		.uleb128 0xd
 2581 1101 29090000 		.4byte	.LASF209
 2582 1105 18       		.byte	0x18
 2583 1106 37       		.byte	0x37
 2584 1107 DB080000 		.4byte	0x8db
 2585 110b 05       		.byte	0x5
 2586 110c 0D       		.uleb128 0xd
 2587 110d 7D0A0000 		.4byte	.LASF237
 2588 1111 18       		.byte	0x18
 2589 1112 38       		.byte	0x38
 2590 1113 EB080000 		.4byte	0x8eb
 2591 1117 06       		.byte	0x6
 2592 1118 0D       		.uleb128 0xd
 2593 1119 2F040000 		.4byte	.LASF238
 2594 111d 18       		.byte	0x18
 2595 111e 39       		.byte	0x39
 2596 111f DB080000 		.4byte	0x8db
 2597 1123 08       		.byte	0x8
 2598 1124 0D       		.uleb128 0xd
 2599 1125 380D0000 		.4byte	.LASF239
 2600 1129 18       		.byte	0x18
 2601 112a 3A       		.byte	0x3a
 2602 112b DB080000 		.4byte	0x8db
 2603 112f 09       		.byte	0x9
 2604 1130 0D       		.uleb128 0xd
 2605 1131 AD050000 		.4byte	.LASF240
 2606 1135 18       		.byte	0x18
 2607 1136 3B       		.byte	0x3b
 2608 1137 DB080000 		.4byte	0x8db
 2609 113b 0A       		.byte	0xa
 2610 113c 0D       		.uleb128 0xd
 2611 113d 0F000000 		.4byte	.LASF241
 2612 1141 18       		.byte	0x18
 2613 1142 3C       		.byte	0x3c
 2614 1143 DB080000 		.4byte	0x8db
ARM GAS  C:\Users\RAKIBU~1\AppData\Local\Temp\ccL5M507.s 			page 47


 2615 1147 0B       		.byte	0xb
 2616 1148 0D       		.uleb128 0xd
 2617 1149 00000000 		.4byte	.LASF242
 2618 114d 18       		.byte	0x18
 2619 114e 3D       		.byte	0x3d
 2620 114f DB080000 		.4byte	0x8db
 2621 1153 0C       		.byte	0xc
 2622 1154 0D       		.uleb128 0xd
 2623 1155 7C070000 		.4byte	.LASF243
 2624 1159 18       		.byte	0x18
 2625 115a 3E       		.byte	0x3e
 2626 115b DB080000 		.4byte	0x8db
 2627 115f 0D       		.byte	0xd
 2628 1160 0D       		.uleb128 0xd
 2629 1161 7A010000 		.4byte	.LASF244
 2630 1165 18       		.byte	0x18
 2631 1166 3F       		.byte	0x3f
 2632 1167 DB080000 		.4byte	0x8db
 2633 116b 0E       		.byte	0xe
 2634 116c 0D       		.uleb128 0xd
 2635 116d 4E090000 		.4byte	.LASF245
 2636 1171 18       		.byte	0x18
 2637 1172 40       		.byte	0x40
 2638 1173 DB080000 		.4byte	0x8db
 2639 1177 0F       		.byte	0xf
 2640 1178 0D       		.uleb128 0xd
 2641 1179 7C060000 		.4byte	.LASF246
 2642 117d 18       		.byte	0x18
 2643 117e 41       		.byte	0x41
 2644 117f DB080000 		.4byte	0x8db
 2645 1183 10       		.byte	0x10
 2646 1184 0D       		.uleb128 0xd
 2647 1185 80050000 		.4byte	.LASF247
 2648 1189 18       		.byte	0x18
 2649 118a 42       		.byte	0x42
 2650 118b DB080000 		.4byte	0x8db
 2651 118f 11       		.byte	0x11
 2652 1190 0D       		.uleb128 0xd
 2653 1191 E90C0000 		.4byte	.LASF248
 2654 1195 18       		.byte	0x18
 2655 1196 43       		.byte	0x43
 2656 1197 DB080000 		.4byte	0x8db
 2657 119b 12       		.byte	0x12
 2658 119c 0D       		.uleb128 0xd
 2659 119d 02040000 		.4byte	.LASF249
 2660 11a1 18       		.byte	0x18
 2661 11a2 44       		.byte	0x44
 2662 11a3 DB080000 		.4byte	0x8db
 2663 11a7 13       		.byte	0x13
 2664 11a8 0D       		.uleb128 0xd
 2665 11a9 3C000000 		.4byte	.LASF250
 2666 11ad 18       		.byte	0x18
 2667 11ae 45       		.byte	0x45
 2668 11af DB080000 		.4byte	0x8db
 2669 11b3 14       		.byte	0x14
 2670 11b4 0D       		.uleb128 0xd
 2671 11b5 37040000 		.4byte	.LASF251
ARM GAS  C:\Users\RAKIBU~1\AppData\Local\Temp\ccL5M507.s 			page 48


 2672 11b9 18       		.byte	0x18
 2673 11ba 46       		.byte	0x46
 2674 11bb DB080000 		.4byte	0x8db
 2675 11bf 15       		.byte	0x15
 2676 11c0 00       		.byte	0
 2677 11c1 0A       		.uleb128 0xa
 2678 11c2 5A010000 		.4byte	0x15a
 2679 11c6 D1110000 		.4byte	0x11d1
 2680 11ca 0B       		.uleb128 0xb
 2681 11cb 37000000 		.4byte	0x37
 2682 11cf 03       		.byte	0x3
 2683 11d0 00       		.byte	0
 2684 11d1 03       		.uleb128 0x3
 2685 11d2 9A0C0000 		.4byte	.LASF252
 2686 11d6 18       		.byte	0x18
 2687 11d7 47       		.byte	0x47
 2688 11d8 E0100000 		.4byte	0x10e0
 2689 11dc 0F       		.uleb128 0xf
 2690 11dd D1110000 		.4byte	0x11d1
 2691 11e1 23       		.uleb128 0x23
 2692 11e2 71000000 		.4byte	.LASF253
 2693 11e6 18       		.byte	0x18
 2694 11e7 6C       		.byte	0x6c
 2695 11e8 DC110000 		.4byte	0x11dc
 2696 11ec 03       		.uleb128 0x3
 2697 11ed FA0B0000 		.4byte	.LASF254
 2698 11f1 17       		.byte	0x17
 2699 11f2 34       		.byte	0x34
 2700 11f3 7B100000 		.4byte	0x107b
 2701 11f7 05       		.uleb128 0x5
 2702 11f8 04       		.byte	0x4
 2703 11f9 EC110000 		.4byte	0x11ec
 2704 11fd 04       		.uleb128 0x4
 2705 11fe 01       		.byte	0x1
 2706 11ff 02       		.byte	0x2
 2707 1200 C0030000 		.4byte	.LASF255
 2708 1204 03       		.uleb128 0x3
 2709 1205 4A080000 		.4byte	.LASF256
 2710 1209 19       		.byte	0x19
 2711 120a 47       		.byte	0x47
 2712 120b 0F120000 		.4byte	0x120f
 2713 120f 05       		.uleb128 0x5
 2714 1210 04       		.byte	0x4
 2715 1211 15120000 		.4byte	0x1215
 2716 1215 15       		.uleb128 0x15
 2717 1216 52010000 		.4byte	0x152
 2718 121a 29120000 		.4byte	0x1229
 2719 121e 16       		.uleb128 0x16
 2720 121f 2C000000 		.4byte	0x2c
 2721 1223 16       		.uleb128 0x16
 2722 1224 37000000 		.4byte	0x37
 2723 1228 00       		.byte	0
 2724 1229 0C       		.uleb128 0xc
 2725 122a 08       		.byte	0x8
 2726 122b 19       		.byte	0x19
 2727 122c 51       		.byte	0x51
 2728 122d 4A120000 		.4byte	0x124a
ARM GAS  C:\Users\RAKIBU~1\AppData\Local\Temp\ccL5M507.s 			page 49


 2729 1231 0D       		.uleb128 0xd
 2730 1232 CD040000 		.4byte	.LASF257
 2731 1236 19       		.byte	0x19
 2732 1237 55       		.byte	0x55
 2733 1238 4A120000 		.4byte	0x124a
 2734 123c 00       		.byte	0
 2735 123d 0D       		.uleb128 0xd
 2736 123e 18000000 		.4byte	.LASF258
 2737 1242 19       		.byte	0x19
 2738 1243 59       		.byte	0x59
 2739 1244 4A120000 		.4byte	0x124a
 2740 1248 04       		.byte	0x4
 2741 1249 00       		.byte	0
 2742 124a 05       		.uleb128 0x5
 2743 124b 04       		.byte	0x4
 2744 124c DB080000 		.4byte	0x8db
 2745 1250 03       		.uleb128 0x3
 2746 1251 A7020000 		.4byte	.LASF259
 2747 1255 19       		.byte	0x19
 2748 1256 5A       		.byte	0x5a
 2749 1257 29120000 		.4byte	0x1229
 2750 125b 23       		.uleb128 0x23
 2751 125c DE0C0000 		.4byte	.LASF260
 2752 1260 19       		.byte	0x19
 2753 1261 65       		.byte	0x65
 2754 1262 50120000 		.4byte	0x1250
 2755 1266 10       		.uleb128 0x10
 2756 1267 89060000 		.4byte	.LASF261
 2757 126b 04       		.byte	0x4
 2758 126c 1A       		.byte	0x1a
 2759 126d 38       		.byte	0x38
 2760 126e 7F120000 		.4byte	0x127f
 2761 1272 0D       		.uleb128 0xd
 2762 1273 060D0000 		.4byte	.LASF163
 2763 1277 1A       		.byte	0x1a
 2764 1278 39       		.byte	0x39
 2765 1279 7F120000 		.4byte	0x127f
 2766 127d 00       		.byte	0
 2767 127e 00       		.byte	0
 2768 127f 05       		.uleb128 0x5
 2769 1280 04       		.byte	0x4
 2770 1281 66120000 		.4byte	0x1266
 2771 1285 0C       		.uleb128 0xc
 2772 1286 10       		.byte	0x10
 2773 1287 1A       		.byte	0x1a
 2774 1288 40       		.byte	0x40
 2775 1289 BE120000 		.4byte	0x12be
 2776 128d 0D       		.uleb128 0xd
 2777 128e 060D0000 		.4byte	.LASF163
 2778 1292 1A       		.byte	0x1a
 2779 1293 41       		.byte	0x41
 2780 1294 7F120000 		.4byte	0x127f
 2781 1298 00       		.byte	0
 2782 1299 0D       		.uleb128 0xd
 2783 129a 9D0B0000 		.4byte	.LASF262
 2784 129e 1A       		.byte	0x1a
 2785 129f 42       		.byte	0x42
ARM GAS  C:\Users\RAKIBU~1\AppData\Local\Temp\ccL5M507.s 			page 50


 2786 12a0 2C000000 		.4byte	0x2c
 2787 12a4 04       		.byte	0x4
 2788 12a5 0D       		.uleb128 0xd
 2789 12a6 5D070000 		.4byte	.LASF263
 2790 12aa 1A       		.byte	0x1a
 2791 12ab 44       		.byte	0x44
 2792 12ac 37000000 		.4byte	0x37
 2793 12b0 08       		.byte	0x8
 2794 12b1 0D       		.uleb128 0xd
 2795 12b2 7A000000 		.4byte	.LASF264
 2796 12b6 1A       		.byte	0x1a
 2797 12b7 45       		.byte	0x45
 2798 12b8 04120000 		.4byte	0x1204
 2799 12bc 0C       		.byte	0xc
 2800 12bd 00       		.byte	0
 2801 12be 03       		.uleb128 0x3
 2802 12bf C20A0000 		.4byte	.LASF265
 2803 12c3 1A       		.byte	0x1a
 2804 12c4 47       		.byte	0x47
 2805 12c5 85120000 		.4byte	0x1285
 2806 12c9 10       		.uleb128 0x10
 2807 12ca 0C010000 		.4byte	.LASF266
 2808 12ce 10       		.byte	0x10
 2809 12cf 1B       		.byte	0x1b
 2810 12d0 A9       		.byte	0xa9
 2811 12d1 FA120000 		.4byte	0x12fa
 2812 12d5 0D       		.uleb128 0xd
 2813 12d6 060D0000 		.4byte	.LASF163
 2814 12da 1B       		.byte	0x1b
 2815 12db AD       		.byte	0xad
 2816 12dc FA120000 		.4byte	0x12fa
 2817 12e0 00       		.byte	0
 2818 12e1 0D       		.uleb128 0xd
 2819 12e2 A6070000 		.4byte	.LASF152
 2820 12e6 1B       		.byte	0x1b
 2821 12e7 B1       		.byte	0xb1
 2822 12e8 7F090000 		.4byte	0x97f
 2823 12ec 04       		.byte	0x4
 2824 12ed 0D       		.uleb128 0xd
 2825 12ee 050B0000 		.4byte	.LASF148
 2826 12f2 1B       		.byte	0x1b
 2827 12f3 B3       		.byte	0xb3
 2828 12f4 E4070000 		.4byte	0x7e4
 2829 12f8 08       		.byte	0x8
 2830 12f9 00       		.byte	0
 2831 12fa 05       		.uleb128 0x5
 2832 12fb 04       		.byte	0x4
 2833 12fc C9120000 		.4byte	0x12c9
 2834 1300 03       		.uleb128 0x3
 2835 1301 DC0B0000 		.4byte	.LASF267
 2836 1305 1B       		.byte	0x1b
 2837 1306 B7       		.byte	0xb7
 2838 1307 C9120000 		.4byte	0x12c9
 2839 130b 10       		.uleb128 0x10
 2840 130c 140D0000 		.4byte	.LASF268
 2841 1310 04       		.byte	0x4
 2842 1311 1B       		.byte	0x1b
ARM GAS  C:\Users\RAKIBU~1\AppData\Local\Temp\ccL5M507.s 			page 51


 2843 1312 BC       		.byte	0xbc
 2844 1313 24130000 		.4byte	0x1324
 2845 1317 0D       		.uleb128 0xd
 2846 1318 060D0000 		.4byte	.LASF163
 2847 131c 1B       		.byte	0x1b
 2848 131d BD       		.byte	0xbd
 2849 131e 24130000 		.4byte	0x1324
 2850 1322 00       		.byte	0
 2851 1323 00       		.byte	0
 2852 1324 05       		.uleb128 0x5
 2853 1325 04       		.byte	0x4
 2854 1326 00130000 		.4byte	0x1300
 2855 132a 03       		.uleb128 0x3
 2856 132b 880B0000 		.4byte	.LASF269
 2857 132f 1B       		.byte	0x1b
 2858 1330 BE       		.byte	0xbe
 2859 1331 0B130000 		.4byte	0x130b
 2860 1335 1B       		.uleb128 0x1b
 2861 1336 1A070000 		.4byte	.LASF270
 2862 133a 48       		.byte	0x48
 2863 133b 1B       		.byte	0x1b
 2864 133c 3E01     		.2byte	0x13e
 2865 133e B8130000 		.4byte	0x13b8
 2866 1342 21       		.uleb128 0x21
 2867 1343 6D747800 		.ascii	"mtx\000"
 2868 1347 1B       		.byte	0x1b
 2869 1348 4301     		.2byte	0x143
 2870 134a EC110000 		.4byte	0x11ec
 2871 134e 00       		.byte	0
 2872 134f 18       		.uleb128 0x18
 2873 1350 51010000 		.4byte	.LASF271
 2874 1354 1B       		.byte	0x1b
 2875 1355 4A01     		.2byte	0x14a
 2876 1357 2A130000 		.4byte	0x132a
 2877 135b 10       		.byte	0x10
 2878 135c 18       		.uleb128 0x18
 2879 135d 74020000 		.4byte	.LASF272
 2880 1361 1B       		.byte	0x1b
 2881 1362 4E01     		.2byte	0x14e
 2882 1364 BE120000 		.4byte	0x12be
 2883 1368 14       		.byte	0x14
 2884 1369 18       		.uleb128 0x18
 2885 136a AC080000 		.4byte	.LASF273
 2886 136e 1B       		.byte	0x1b
 2887 136f 5301     		.2byte	0x153
 2888 1371 2A130000 		.4byte	0x132a
 2889 1375 24       		.byte	0x24
 2890 1376 18       		.uleb128 0x18
 2891 1377 D7030000 		.4byte	.LASF274
 2892 137b 1B       		.byte	0x1b
 2893 137c 5901     		.2byte	0x159
 2894 137e 2A130000 		.4byte	0x132a
 2895 1382 28       		.byte	0x28
 2896 1383 18       		.uleb128 0x18
 2897 1384 A9040000 		.4byte	.LASF275
 2898 1388 1B       		.byte	0x1b
 2899 1389 5D01     		.2byte	0x15d
ARM GAS  C:\Users\RAKIBU~1\AppData\Local\Temp\ccL5M507.s 			page 52


 2900 138b BE120000 		.4byte	0x12be
 2901 138f 2C       		.byte	0x2c
 2902 1390 18       		.uleb128 0x18
 2903 1391 600A0000 		.4byte	.LASF276
 2904 1395 1B       		.byte	0x1b
 2905 1396 6301     		.2byte	0x163
 2906 1398 2A130000 		.4byte	0x132a
 2907 139c 3C       		.byte	0x3c
 2908 139d 18       		.uleb128 0x18
 2909 139e 33060000 		.4byte	.LASF277
 2910 13a2 1B       		.byte	0x1b
 2911 13a3 6901     		.2byte	0x169
 2912 13a5 2A130000 		.4byte	0x132a
 2913 13a9 40       		.byte	0x40
 2914 13aa 18       		.uleb128 0x18
 2915 13ab 53040000 		.4byte	.LASF278
 2916 13af 1B       		.byte	0x1b
 2917 13b0 6F01     		.2byte	0x16f
 2918 13b2 2A130000 		.4byte	0x132a
 2919 13b6 44       		.byte	0x44
 2920 13b7 00       		.byte	0
 2921 13b8 07       		.uleb128 0x7
 2922 13b9 94080000 		.4byte	.LASF279
 2923 13bd 1B       		.byte	0x1b
 2924 13be 7101     		.2byte	0x171
 2925 13c0 35130000 		.4byte	0x1335
 2926 13c4 20       		.uleb128 0x20
 2927 13c5 C5060000 		.4byte	.LASF280
 2928 13c9 1B       		.byte	0x1b
 2929 13ca 7C01     		.2byte	0x17c
 2930 13cc B8130000 		.4byte	0x13b8
 2931 13d0 29       		.uleb128 0x29
 2932 13d1 E1110000 		.4byte	0x11e1
 2933 13d5 01       		.byte	0x1
 2934 13d6 53       		.byte	0x53
 2935 13d7 05       		.uleb128 0x5
 2936 13d8 03       		.byte	0x3
 2937 13d9 00000000 		.4byte	ch_debug
 2938 13dd 2A       		.uleb128 0x2a
 2939 13de D2080000 		.4byte	.LASF281
 2940 13e2 01       		.byte	0x1
 2941 13e3 FA       		.byte	0xfa
 2942 13e4 8B0A0000 		.4byte	0xa8b
 2943 13e8 20010000 		.4byte	.LFB299
 2944 13ec 20000000 		.4byte	.LFE299-.LFB299
 2945 13f0 01       		.uleb128 0x1
 2946 13f1 9C       		.byte	0x9c
 2947 13f2 44140000 		.4byte	0x1444
 2948 13f6 2B       		.uleb128 0x2b
 2949 13f7 776100   		.ascii	"wa\000"
 2950 13fa 01       		.byte	0x1
 2951 13fb FA       		.byte	0xfa
 2952 13fc B2100000 		.4byte	0x10b2
 2953 1400 00000000 		.4byte	.LLST10
 2954 1404 2C       		.uleb128 0x2c
 2955 1405 63747000 		.ascii	"ctp\000"
 2956 1409 01       		.byte	0x1
ARM GAS  C:\Users\RAKIBU~1\AppData\Local\Temp\ccL5M507.s 			page 53


 2957 140a FB       		.byte	0xfb
 2958 140b 8B0A0000 		.4byte	0xa8b
 2959 140f 1E000000 		.4byte	.LLST11
 2960 1413 2D       		.uleb128 0x2d
 2961 1414 41170000 		.4byte	0x1741
 2962 1418 2A010000 		.4byte	.LBB72
 2963 141c 02000000 		.4byte	.LBE72-.LBB72
 2964 1420 01       		.byte	0x1
 2965 1421 0001     		.2byte	0x100
 2966 1423 31140000 		.4byte	0x1431
 2967 1427 2E       		.uleb128 0x2e
 2968 1428 52170000 		.4byte	0x1752
 2969 142c 47000000 		.4byte	.LLST12
 2970 1430 00       		.byte	0
 2971 1431 2F       		.uleb128 0x2f
 2972 1432 28010000 		.4byte	.LVL41
 2973 1436 3C160000 		.4byte	0x163c
 2974 143a 2F       		.uleb128 0x2f
 2975 143b 36010000 		.4byte	.LVL44
 2976 143f F2140000 		.4byte	0x14f2
 2977 1443 00       		.byte	0
 2978 1444 2A       		.uleb128 0x2a
 2979 1445 EF020000 		.4byte	.LASF282
 2980 1449 01       		.byte	0x1
 2981 144a DD       		.byte	0xdd
 2982 144b 8B0A0000 		.4byte	0xa8b
 2983 144f 00010000 		.4byte	.LFB298
 2984 1453 1E000000 		.4byte	.LFE298-.LFB298
 2985 1457 01       		.uleb128 0x1
 2986 1458 9C       		.byte	0x9c
 2987 1459 8D140000 		.4byte	0x148d
 2988 145d 2B       		.uleb128 0x2b
 2989 145e 747000   		.ascii	"tp\000"
 2990 1461 01       		.byte	0x1
 2991 1462 DD       		.byte	0xdd
 2992 1463 8B0A0000 		.4byte	0xa8b
 2993 1467 5A000000 		.4byte	.LLST8
 2994 146b 2C       		.uleb128 0x2c
 2995 146c 63747000 		.ascii	"ctp\000"
 2996 1470 01       		.byte	0x1
 2997 1471 DE       		.byte	0xde
 2998 1472 8B0A0000 		.4byte	0xa8b
 2999 1476 78000000 		.4byte	.LLST9
 3000 147a 2F       		.uleb128 0x2f
 3001 147b 08010000 		.4byte	.LVL36
 3002 147f 3C160000 		.4byte	0x163c
 3003 1483 2F       		.uleb128 0x2f
 3004 1484 14010000 		.4byte	.LVL38
 3005 1488 F2140000 		.4byte	0x14f2
 3006 148c 00       		.byte	0
 3007 148d 2A       		.uleb128 0x2a
 3008 148e 470B0000 		.4byte	.LASF283
 3009 1492 01       		.byte	0x1
 3010 1493 C2       		.byte	0xc2
 3011 1494 8B0A0000 		.4byte	0xa8b
 3012 1498 D0000000 		.4byte	.LFB297
 3013 149c 24000000 		.4byte	.LFE297-.LFB297
ARM GAS  C:\Users\RAKIBU~1\AppData\Local\Temp\ccL5M507.s 			page 54


 3014 14a0 01       		.uleb128 0x1
 3015 14a1 9C       		.byte	0x9c
 3016 14a2 F2140000 		.4byte	0x14f2
 3017 14a6 30       		.uleb128 0x30
 3018 14a7 050B0000 		.4byte	.LASF148
 3019 14ab 01       		.byte	0x1
 3020 14ac C2       		.byte	0xc2
 3021 14ad D2050000 		.4byte	0x5d2
 3022 14b1 A1000000 		.4byte	.LLST6
 3023 14b5 2C       		.uleb128 0x2c
 3024 14b6 63747000 		.ascii	"ctp\000"
 3025 14ba 01       		.byte	0x1
 3026 14bb C3       		.byte	0xc3
 3027 14bc 8B0A0000 		.4byte	0xa8b
 3028 14c0 BF000000 		.4byte	.LLST7
 3029 14c4 2F       		.uleb128 0x2f
 3030 14c5 D8000000 		.4byte	.LVL29
 3031 14c9 3C160000 		.4byte	0x163c
 3032 14cd 31       		.uleb128 0x31
 3033 14ce E2000000 		.4byte	.LVL32
 3034 14d2 C3170000 		.4byte	0x17c3
 3035 14d6 E1140000 		.4byte	0x14e1
 3036 14da 32       		.uleb128 0x32
 3037 14db 01       		.uleb128 0x1
 3038 14dc 51       		.byte	0x51
 3039 14dd 02       		.uleb128 0x2
 3040 14de 75       		.byte	0x75
 3041 14df 00       		.sleb128 0
 3042 14e0 00       		.byte	0
 3043 14e1 33       		.uleb128 0x33
 3044 14e2 EA000000 		.4byte	.LVL33
 3045 14e6 F2140000 		.4byte	0x14f2
 3046 14ea 32       		.uleb128 0x32
 3047 14eb 01       		.uleb128 0x1
 3048 14ec 50       		.byte	0x50
 3049 14ed 02       		.uleb128 0x2
 3050 14ee 74       		.byte	0x74
 3051 14ef 00       		.sleb128 0
 3052 14f0 00       		.byte	0
 3053 14f1 00       		.byte	0
 3054 14f2 2A       		.uleb128 0x2a
 3055 14f3 4D000000 		.4byte	.LASF284
 3056 14f7 01       		.byte	0x1
 3057 14f8 9E       		.byte	0x9e
 3058 14f9 8B0A0000 		.4byte	0xa8b
 3059 14fd 50000000 		.4byte	.LFB296
 3060 1501 78000000 		.4byte	.LFE296-.LFB296
 3061 1505 01       		.uleb128 0x1
 3062 1506 9C       		.byte	0x9c
 3063 1507 27160000 		.4byte	0x1627
 3064 150b 2B       		.uleb128 0x2b
 3065 150c 747000   		.ascii	"tp\000"
 3066 150f 01       		.byte	0x1
 3067 1510 9E       		.byte	0x9e
 3068 1511 8B0A0000 		.4byte	0xa8b
 3069 1515 F3000000 		.4byte	.LLST2
 3070 1519 2C       		.uleb128 0x2c
ARM GAS  C:\Users\RAKIBU~1\AppData\Local\Temp\ccL5M507.s 			page 55


 3071 151a 6E747000 		.ascii	"ntp\000"
 3072 151e 01       		.byte	0x1
 3073 151f 9F       		.byte	0x9f
 3074 1520 8B0A0000 		.4byte	0xa8b
 3075 1524 11010000 		.4byte	.LLST3
 3076 1528 34       		.uleb128 0x34
 3077 1529 B5000000 		.4byte	.LASF288
 3078 152d 37160000 		.4byte	0x1637
 3079 1531 05       		.uleb128 0x5
 3080 1532 03       		.byte	0x3
 3081 1533 0C000000 		.4byte	__func__.7513
 3082 1537 35       		.uleb128 0x35
 3083 1538 8E170000 		.4byte	0x178e
 3084 153c 54000000 		.4byte	.LBB60
 3085 1540 0E000000 		.4byte	.LBE60-.LBB60
 3086 1544 01       		.byte	0x1
 3087 1545 A1       		.byte	0xa1
 3088 1546 8C150000 		.4byte	0x158c
 3089 154a 2D       		.uleb128 0x2d
 3090 154b A0170000 		.4byte	0x17a0
 3091 154f 54000000 		.4byte	.LBB62
 3092 1553 06000000 		.4byte	.LBE62-.LBB62
 3093 1557 03       		.byte	0x3
 3094 1558 6301     		.2byte	0x163
 3095 155a 79150000 		.4byte	0x1579
 3096 155e 36       		.uleb128 0x36
 3097 155f A9170000 		.4byte	0x17a9
 3098 1563 54000000 		.4byte	.LBB63
 3099 1567 06000000 		.4byte	.LBE63-.LBB63
 3100 156b 12       		.byte	0x12
 3101 156c 6502     		.2byte	0x265
 3102 156e 2E       		.uleb128 0x2e
 3103 156f B6170000 		.4byte	0x17b6
 3104 1573 3B010000 		.4byte	.LLST4
 3105 1577 00       		.byte	0
 3106 1578 00       		.byte	0
 3107 1579 2F       		.uleb128 0x2f
 3108 157a 5E000000 		.4byte	.LVL14
 3109 157e CE170000 		.4byte	0x17ce
 3110 1582 2F       		.uleb128 0x2f
 3111 1583 62000000 		.4byte	.LVL15
 3112 1587 D9170000 		.4byte	0x17d9
 3113 158b 00       		.byte	0
 3114 158c 37       		.uleb128 0x37
 3115 158d 5E170000 		.4byte	0x175e
 3116 1591 7C000000 		.4byte	.LBB65
 3117 1595 18000000 		.4byte	.Ldebug_ranges0+0x18
 3118 1599 01       		.byte	0x1
 3119 159a AE       		.byte	0xae
 3120 159b FF150000 		.4byte	0x15ff
 3121 159f 38       		.uleb128 0x38
 3122 15a0 18000000 		.4byte	.Ldebug_ranges0+0x18
 3123 15a4 39       		.uleb128 0x39
 3124 15a5 6B170000 		.4byte	0x176b
 3125 15a9 2D       		.uleb128 0x2d
 3126 15aa 97170000 		.4byte	0x1797
 3127 15ae 96000000 		.4byte	.LBB67
ARM GAS  C:\Users\RAKIBU~1\AppData\Local\Temp\ccL5M507.s 			page 56


 3128 15b2 06000000 		.4byte	.LBE67-.LBB67
 3129 15b6 03       		.byte	0x3
 3130 15b7 7A01     		.2byte	0x17a
 3131 15b9 D8150000 		.4byte	0x15d8
 3132 15bd 36       		.uleb128 0x36
 3133 15be A9170000 		.4byte	0x17a9
 3134 15c2 96000000 		.4byte	.LBB68
 3135 15c6 06000000 		.4byte	.LBE68-.LBB68
 3136 15ca 12       		.byte	0x12
 3137 15cb 7802     		.2byte	0x278
 3138 15cd 2E       		.uleb128 0x2e
 3139 15ce B6170000 		.4byte	0x17b6
 3140 15d2 50010000 		.4byte	.LLST5
 3141 15d6 00       		.byte	0
 3142 15d7 00       		.byte	0
 3143 15d8 2F       		.uleb128 0x2f
 3144 15d9 80000000 		.4byte	.LVL18
 3145 15dd E4170000 		.4byte	0x17e4
 3146 15e1 2F       		.uleb128 0x2f
 3147 15e2 84000000 		.4byte	.LVL19
 3148 15e6 EF170000 		.4byte	0x17ef
 3149 15ea 33       		.uleb128 0x33
 3150 15eb B8000000 		.4byte	.LVL27
 3151 15ef FA170000 		.4byte	0x17fa
 3152 15f3 32       		.uleb128 0x32
 3153 15f4 01       		.uleb128 0x1
 3154 15f5 50       		.byte	0x50
 3155 15f6 05       		.uleb128 0x5
 3156 15f7 03       		.byte	0x3
 3157 15f8 00000000 		.4byte	.LANCHOR0
 3158 15fc 00       		.byte	0
 3159 15fd 00       		.byte	0
 3160 15fe 00       		.byte	0
 3161 15ff 31       		.uleb128 0x31
 3162 1600 A2000000 		.4byte	.LVL22
 3163 1604 05180000 		.4byte	0x1805
 3164 1608 13160000 		.4byte	0x1613
 3165 160c 32       		.uleb128 0x32
 3166 160d 01       		.uleb128 0x1
 3167 160e 50       		.byte	0x50
 3168 160f 02       		.uleb128 0x2
 3169 1610 75       		.byte	0x75
 3170 1611 00       		.sleb128 0
 3171 1612 00       		.byte	0
 3172 1613 33       		.uleb128 0x33
 3173 1614 AC000000 		.4byte	.LVL24
 3174 1618 FA170000 		.4byte	0x17fa
 3175 161c 32       		.uleb128 0x32
 3176 161d 01       		.uleb128 0x1
 3177 161e 50       		.byte	0x50
 3178 161f 05       		.uleb128 0x5
 3179 1620 03       		.byte	0x3
 3180 1621 0C000000 		.4byte	.LANCHOR0+12
 3181 1625 00       		.byte	0
 3182 1626 00       		.byte	0
 3183 1627 0A       		.uleb128 0xa
 3184 1628 61010000 		.4byte	0x161
ARM GAS  C:\Users\RAKIBU~1\AppData\Local\Temp\ccL5M507.s 			page 57


 3185 162c 37160000 		.4byte	0x1637
 3186 1630 0B       		.uleb128 0xb
 3187 1631 37000000 		.4byte	0x37
 3188 1635 0F       		.byte	0xf
 3189 1636 00       		.byte	0
 3190 1637 0F       		.uleb128 0xf
 3191 1638 27160000 		.4byte	0x1627
 3192 163c 2A       		.uleb128 0x2a
 3193 163d 9B010000 		.4byte	.LASF285
 3194 1641 01       		.byte	0x1
 3195 1642 86       		.byte	0x86
 3196 1643 8B0A0000 		.4byte	0xa8b
 3197 1647 00000000 		.4byte	.LFB295
 3198 164b 50000000 		.4byte	.LFE295-.LFB295
 3199 164f 01       		.uleb128 0x1
 3200 1650 9C       		.byte	0x9c
 3201 1651 26170000 		.4byte	0x1726
 3202 1655 3A       		.uleb128 0x3a
 3203 1656 747000   		.ascii	"tp\000"
 3204 1659 01       		.byte	0x1
 3205 165a 87       		.byte	0x87
 3206 165b 8B0A0000 		.4byte	0xa8b
 3207 165f 01       		.uleb128 0x1
 3208 1660 54       		.byte	0x54
 3209 1661 35       		.uleb128 0x35
 3210 1662 8E170000 		.4byte	0x178e
 3211 1666 02000000 		.4byte	.LBB38
 3212 166a 0E000000 		.4byte	.LBE38-.LBB38
 3213 166e 01       		.byte	0x1
 3214 166f 89       		.byte	0x89
 3215 1670 B6160000 		.4byte	0x16b6
 3216 1674 2D       		.uleb128 0x2d
 3217 1675 A0170000 		.4byte	0x17a0
 3218 1679 02000000 		.4byte	.LBB40
 3219 167d 06000000 		.4byte	.LBE40-.LBB40
 3220 1681 03       		.byte	0x3
 3221 1682 6301     		.2byte	0x163
 3222 1684 A3160000 		.4byte	0x16a3
 3223 1688 36       		.uleb128 0x36
 3224 1689 A9170000 		.4byte	0x17a9
 3225 168d 02000000 		.4byte	.LBB41
 3226 1691 06000000 		.4byte	.LBE41-.LBB41
 3227 1695 12       		.byte	0x12
 3228 1696 6502     		.2byte	0x265
 3229 1698 2E       		.uleb128 0x2e
 3230 1699 B6170000 		.4byte	0x17b6
 3231 169d 64010000 		.4byte	.LLST0
 3232 16a1 00       		.byte	0
 3233 16a2 00       		.byte	0
 3234 16a3 2F       		.uleb128 0x2f
 3235 16a4 0C000000 		.4byte	.LVL2
 3236 16a8 CE170000 		.4byte	0x17ce
 3237 16ac 2F       		.uleb128 0x2f
 3238 16ad 10000000 		.4byte	.LVL3
 3239 16b1 D9170000 		.4byte	0x17d9
 3240 16b5 00       		.byte	0
 3241 16b6 3B       		.uleb128 0x3b
ARM GAS  C:\Users\RAKIBU~1\AppData\Local\Temp\ccL5M507.s 			page 58


 3242 16b7 5E170000 		.4byte	0x175e
 3243 16bb 1E000000 		.4byte	.LBB43
 3244 16bf 00000000 		.4byte	.Ldebug_ranges0+0
 3245 16c3 01       		.byte	0x1
 3246 16c4 8E       		.byte	0x8e
 3247 16c5 38       		.uleb128 0x38
 3248 16c6 00000000 		.4byte	.Ldebug_ranges0+0
 3249 16ca 39       		.uleb128 0x39
 3250 16cb 6B170000 		.4byte	0x176b
 3251 16cf 2D       		.uleb128 0x2d
 3252 16d0 97170000 		.4byte	0x1797
 3253 16d4 36000000 		.4byte	.LBB45
 3254 16d8 06000000 		.4byte	.LBE45-.LBB45
 3255 16dc 03       		.byte	0x3
 3256 16dd 7A01     		.2byte	0x17a
 3257 16df FE160000 		.4byte	0x16fe
 3258 16e3 36       		.uleb128 0x36
 3259 16e4 A9170000 		.4byte	0x17a9
 3260 16e8 36000000 		.4byte	.LBB46
 3261 16ec 06000000 		.4byte	.LBE46-.LBB46
 3262 16f0 12       		.byte	0x12
 3263 16f1 7802     		.2byte	0x278
 3264 16f3 2E       		.uleb128 0x2e
 3265 16f4 B6170000 		.4byte	0x17b6
 3266 16f8 79010000 		.4byte	.LLST1
 3267 16fc 00       		.byte	0
 3268 16fd 00       		.byte	0
 3269 16fe 2F       		.uleb128 0x2f
 3270 16ff 22000000 		.4byte	.LVL5
 3271 1703 E4170000 		.4byte	0x17e4
 3272 1707 2F       		.uleb128 0x2f
 3273 1708 26000000 		.4byte	.LVL6
 3274 170c EF170000 		.4byte	0x17ef
 3275 1710 33       		.uleb128 0x33
 3276 1711 46000000 		.4byte	.LVL10
 3277 1715 FA170000 		.4byte	0x17fa
 3278 1719 32       		.uleb128 0x32
 3279 171a 01       		.uleb128 0x1
 3280 171b 50       		.byte	0x50
 3281 171c 05       		.uleb128 0x5
 3282 171d 03       		.byte	0x3
 3283 171e 00000000 		.4byte	.LANCHOR0
 3284 1722 00       		.byte	0
 3285 1723 00       		.byte	0
 3286 1724 00       		.byte	0
 3287 1725 00       		.byte	0
 3288 1726 3C       		.uleb128 0x3c
 3289 1727 60020000 		.4byte	.LASF286
 3290 172b 18       		.byte	0x18
 3291 172c 99       		.byte	0x99
 3292 172d D2050000 		.4byte	0x5d2
 3293 1731 03       		.byte	0x3
 3294 1732 41170000 		.4byte	0x1741
 3295 1736 3D       		.uleb128 0x3d
 3296 1737 747000   		.ascii	"tp\000"
 3297 173a 18       		.byte	0x18
 3298 173b 99       		.byte	0x99
ARM GAS  C:\Users\RAKIBU~1\AppData\Local\Temp\ccL5M507.s 			page 59


 3299 173c 8B0A0000 		.4byte	0xa8b
 3300 1740 00       		.byte	0
 3301 1741 3E       		.uleb128 0x3e
 3302 1742 A40C0000 		.4byte	.LASF287
 3303 1746 04       		.byte	0x4
 3304 1747 3D01     		.2byte	0x13d
 3305 1749 B2100000 		.4byte	0x10b2
 3306 174d 03       		.byte	0x3
 3307 174e 5E170000 		.4byte	0x175e
 3308 1752 3F       		.uleb128 0x3f
 3309 1753 747000   		.ascii	"tp\000"
 3310 1756 04       		.byte	0x4
 3311 1757 3D01     		.2byte	0x13d
 3312 1759 8B0A0000 		.4byte	0xa8b
 3313 175d 00       		.byte	0
 3314 175e 40       		.uleb128 0x40
 3315 175f 8A050000 		.4byte	.LASF292
 3316 1763 03       		.byte	0x3
 3317 1764 6D01     		.2byte	0x16d
 3318 1766 03       		.byte	0x3
 3319 1767 79170000 		.4byte	0x1779
 3320 176b 41       		.uleb128 0x41
 3321 176c B5000000 		.4byte	.LASF288
 3322 1770 89170000 		.4byte	0x1789
 3323 1774 8A050000 		.4byte	.LASF292
 3324 1778 00       		.byte	0
 3325 1779 0A       		.uleb128 0xa
 3326 177a 61010000 		.4byte	0x161
 3327 177e 89170000 		.4byte	0x1789
 3328 1782 0B       		.uleb128 0xb
 3329 1783 37000000 		.4byte	0x37
 3330 1787 0B       		.byte	0xb
 3331 1788 00       		.byte	0
 3332 1789 0F       		.uleb128 0xf
 3333 178a 79170000 		.4byte	0x1779
 3334 178e 42       		.uleb128 0x42
 3335 178f B8050000 		.4byte	.LASF289
 3336 1793 03       		.byte	0x3
 3337 1794 6101     		.2byte	0x161
 3338 1796 03       		.byte	0x3
 3339 1797 42       		.uleb128 0x42
 3340 1798 F0010000 		.4byte	.LASF290
 3341 179c 12       		.byte	0x12
 3342 179d 7502     		.2byte	0x275
 3343 179f 03       		.byte	0x3
 3344 17a0 42       		.uleb128 0x42
 3345 17a1 0A0B0000 		.4byte	.LASF291
 3346 17a5 12       		.byte	0x12
 3347 17a6 5D02     		.2byte	0x25d
 3348 17a8 03       		.byte	0x3
 3349 17a9 40       		.uleb128 0x40
 3350 17aa 910A0000 		.4byte	.LASF293
 3351 17ae 02       		.byte	0x2
 3352 17af EB01     		.2byte	0x1eb
 3353 17b1 03       		.byte	0x3
 3354 17b2 C3170000 		.4byte	0x17c3
 3355 17b6 43       		.uleb128 0x43
ARM GAS  C:\Users\RAKIBU~1\AppData\Local\Temp\ccL5M507.s 			page 60


 3356 17b7 43010000 		.4byte	.LASF294
 3357 17bb 02       		.byte	0x2
 3358 17bc EB01     		.2byte	0x1eb
 3359 17be 06090000 		.4byte	0x906
 3360 17c2 00       		.byte	0
 3361 17c3 44       		.uleb128 0x44
 3362 17c4 1C040000 		.4byte	.LASF295
 3363 17c8 1C040000 		.4byte	.LASF295
 3364 17cc 1C       		.byte	0x1c
 3365 17cd 24       		.byte	0x24
 3366 17ce 44       		.uleb128 0x44
 3367 17cf A2030000 		.4byte	.LASF296
 3368 17d3 A2030000 		.4byte	.LASF296
 3369 17d7 15       		.byte	0x15
 3370 17d8 4F       		.byte	0x4f
 3371 17d9 44       		.uleb128 0x44
 3372 17da 410A0000 		.4byte	.LASF297
 3373 17de 410A0000 		.4byte	.LASF297
 3374 17e2 1D       		.byte	0x1d
 3375 17e3 96       		.byte	0x96
 3376 17e4 44       		.uleb128 0x44
 3377 17e5 89010000 		.4byte	.LASF298
 3378 17e9 89010000 		.4byte	.LASF298
 3379 17ed 1D       		.byte	0x1d
 3380 17ee 97       		.byte	0x97
 3381 17ef 44       		.uleb128 0x44
 3382 17f0 7D020000 		.4byte	.LASF299
 3383 17f4 7D020000 		.4byte	.LASF299
 3384 17f8 15       		.byte	0x15
 3385 17f9 50       		.byte	0x50
 3386 17fa 44       		.uleb128 0x44
 3387 17fb CB0B0000 		.4byte	.LASF300
 3388 17ff CB0B0000 		.4byte	.LASF300
 3389 1803 1E       		.byte	0x1e
 3390 1804 63       		.byte	0x63
 3391 1805 44       		.uleb128 0x44
 3392 1806 5A010000 		.4byte	.LASF301
 3393 180a 5A010000 		.4byte	.LASF301
 3394 180e 04       		.byte	0x4
 3395 180f EC       		.byte	0xec
 3396 1810 00       		.byte	0
 3397              		.section	.debug_abbrev,"",%progbits
 3398              	.Ldebug_abbrev0:
 3399 0000 01       		.uleb128 0x1
 3400 0001 11       		.uleb128 0x11
 3401 0002 01       		.byte	0x1
 3402 0003 25       		.uleb128 0x25
 3403 0004 0E       		.uleb128 0xe
 3404 0005 13       		.uleb128 0x13
 3405 0006 0B       		.uleb128 0xb
 3406 0007 03       		.uleb128 0x3
 3407 0008 0E       		.uleb128 0xe
 3408 0009 1B       		.uleb128 0x1b
 3409 000a 0E       		.uleb128 0xe
 3410 000b 11       		.uleb128 0x11
 3411 000c 01       		.uleb128 0x1
 3412 000d 12       		.uleb128 0x12
ARM GAS  C:\Users\RAKIBU~1\AppData\Local\Temp\ccL5M507.s 			page 61


 3413 000e 06       		.uleb128 0x6
 3414 000f 10       		.uleb128 0x10
 3415 0010 17       		.uleb128 0x17
 3416 0011 00       		.byte	0
 3417 0012 00       		.byte	0
 3418 0013 02       		.uleb128 0x2
 3419 0014 24       		.uleb128 0x24
 3420 0015 00       		.byte	0
 3421 0016 0B       		.uleb128 0xb
 3422 0017 0B       		.uleb128 0xb
 3423 0018 3E       		.uleb128 0x3e
 3424 0019 0B       		.uleb128 0xb
 3425 001a 03       		.uleb128 0x3
 3426 001b 08       		.uleb128 0x8
 3427 001c 00       		.byte	0
 3428 001d 00       		.byte	0
 3429 001e 03       		.uleb128 0x3
 3430 001f 16       		.uleb128 0x16
 3431 0020 00       		.byte	0
 3432 0021 03       		.uleb128 0x3
 3433 0022 0E       		.uleb128 0xe
 3434 0023 3A       		.uleb128 0x3a
 3435 0024 0B       		.uleb128 0xb
 3436 0025 3B       		.uleb128 0x3b
 3437 0026 0B       		.uleb128 0xb
 3438 0027 49       		.uleb128 0x49
 3439 0028 13       		.uleb128 0x13
 3440 0029 00       		.byte	0
 3441 002a 00       		.byte	0
 3442 002b 04       		.uleb128 0x4
 3443 002c 24       		.uleb128 0x24
 3444 002d 00       		.byte	0
 3445 002e 0B       		.uleb128 0xb
 3446 002f 0B       		.uleb128 0xb
 3447 0030 3E       		.uleb128 0x3e
 3448 0031 0B       		.uleb128 0xb
 3449 0032 03       		.uleb128 0x3
 3450 0033 0E       		.uleb128 0xe
 3451 0034 00       		.byte	0
 3452 0035 00       		.byte	0
 3453 0036 05       		.uleb128 0x5
 3454 0037 0F       		.uleb128 0xf
 3455 0038 00       		.byte	0
 3456 0039 0B       		.uleb128 0xb
 3457 003a 0B       		.uleb128 0xb
 3458 003b 49       		.uleb128 0x49
 3459 003c 13       		.uleb128 0x13
 3460 003d 00       		.byte	0
 3461 003e 00       		.byte	0
 3462 003f 06       		.uleb128 0x6
 3463 0040 13       		.uleb128 0x13
 3464 0041 00       		.byte	0
 3465 0042 03       		.uleb128 0x3
 3466 0043 0E       		.uleb128 0xe
 3467 0044 3C       		.uleb128 0x3c
 3468 0045 19       		.uleb128 0x19
 3469 0046 00       		.byte	0
ARM GAS  C:\Users\RAKIBU~1\AppData\Local\Temp\ccL5M507.s 			page 62


 3470 0047 00       		.byte	0
 3471 0048 07       		.uleb128 0x7
 3472 0049 16       		.uleb128 0x16
 3473 004a 00       		.byte	0
 3474 004b 03       		.uleb128 0x3
 3475 004c 0E       		.uleb128 0xe
 3476 004d 3A       		.uleb128 0x3a
 3477 004e 0B       		.uleb128 0xb
 3478 004f 3B       		.uleb128 0x3b
 3479 0050 05       		.uleb128 0x5
 3480 0051 49       		.uleb128 0x49
 3481 0052 13       		.uleb128 0x13
 3482 0053 00       		.byte	0
 3483 0054 00       		.byte	0
 3484 0055 08       		.uleb128 0x8
 3485 0056 17       		.uleb128 0x17
 3486 0057 01       		.byte	0x1
 3487 0058 0B       		.uleb128 0xb
 3488 0059 0B       		.uleb128 0xb
 3489 005a 3A       		.uleb128 0x3a
 3490 005b 0B       		.uleb128 0xb
 3491 005c 3B       		.uleb128 0x3b
 3492 005d 0B       		.uleb128 0xb
 3493 005e 01       		.uleb128 0x1
 3494 005f 13       		.uleb128 0x13
 3495 0060 00       		.byte	0
 3496 0061 00       		.byte	0
 3497 0062 09       		.uleb128 0x9
 3498 0063 0D       		.uleb128 0xd
 3499 0064 00       		.byte	0
 3500 0065 03       		.uleb128 0x3
 3501 0066 0E       		.uleb128 0xe
 3502 0067 3A       		.uleb128 0x3a
 3503 0068 0B       		.uleb128 0xb
 3504 0069 3B       		.uleb128 0x3b
 3505 006a 0B       		.uleb128 0xb
 3506 006b 49       		.uleb128 0x49
 3507 006c 13       		.uleb128 0x13
 3508 006d 00       		.byte	0
 3509 006e 00       		.byte	0
 3510 006f 0A       		.uleb128 0xa
 3511 0070 01       		.uleb128 0x1
 3512 0071 01       		.byte	0x1
 3513 0072 49       		.uleb128 0x49
 3514 0073 13       		.uleb128 0x13
 3515 0074 01       		.uleb128 0x1
 3516 0075 13       		.uleb128 0x13
 3517 0076 00       		.byte	0
 3518 0077 00       		.byte	0
 3519 0078 0B       		.uleb128 0xb
 3520 0079 21       		.uleb128 0x21
 3521 007a 00       		.byte	0
 3522 007b 49       		.uleb128 0x49
 3523 007c 13       		.uleb128 0x13
 3524 007d 2F       		.uleb128 0x2f
 3525 007e 0B       		.uleb128 0xb
 3526 007f 00       		.byte	0
ARM GAS  C:\Users\RAKIBU~1\AppData\Local\Temp\ccL5M507.s 			page 63


 3527 0080 00       		.byte	0
 3528 0081 0C       		.uleb128 0xc
 3529 0082 13       		.uleb128 0x13
 3530 0083 01       		.byte	0x1
 3531 0084 0B       		.uleb128 0xb
 3532 0085 0B       		.uleb128 0xb
 3533 0086 3A       		.uleb128 0x3a
 3534 0087 0B       		.uleb128 0xb
 3535 0088 3B       		.uleb128 0x3b
 3536 0089 0B       		.uleb128 0xb
 3537 008a 01       		.uleb128 0x1
 3538 008b 13       		.uleb128 0x13
 3539 008c 00       		.byte	0
 3540 008d 00       		.byte	0
 3541 008e 0D       		.uleb128 0xd
 3542 008f 0D       		.uleb128 0xd
 3543 0090 00       		.byte	0
 3544 0091 03       		.uleb128 0x3
 3545 0092 0E       		.uleb128 0xe
 3546 0093 3A       		.uleb128 0x3a
 3547 0094 0B       		.uleb128 0xb
 3548 0095 3B       		.uleb128 0x3b
 3549 0096 0B       		.uleb128 0xb
 3550 0097 49       		.uleb128 0x49
 3551 0098 13       		.uleb128 0x13
 3552 0099 38       		.uleb128 0x38
 3553 009a 0B       		.uleb128 0xb
 3554 009b 00       		.byte	0
 3555 009c 00       		.byte	0
 3556 009d 0E       		.uleb128 0xe
 3557 009e 0F       		.uleb128 0xf
 3558 009f 00       		.byte	0
 3559 00a0 0B       		.uleb128 0xb
 3560 00a1 0B       		.uleb128 0xb
 3561 00a2 00       		.byte	0
 3562 00a3 00       		.byte	0
 3563 00a4 0F       		.uleb128 0xf
 3564 00a5 26       		.uleb128 0x26
 3565 00a6 00       		.byte	0
 3566 00a7 49       		.uleb128 0x49
 3567 00a8 13       		.uleb128 0x13
 3568 00a9 00       		.byte	0
 3569 00aa 00       		.byte	0
 3570 00ab 10       		.uleb128 0x10
 3571 00ac 13       		.uleb128 0x13
 3572 00ad 01       		.byte	0x1
 3573 00ae 03       		.uleb128 0x3
 3574 00af 0E       		.uleb128 0xe
 3575 00b0 0B       		.uleb128 0xb
 3576 00b1 0B       		.uleb128 0xb
 3577 00b2 3A       		.uleb128 0x3a
 3578 00b3 0B       		.uleb128 0xb
 3579 00b4 3B       		.uleb128 0x3b
 3580 00b5 0B       		.uleb128 0xb
 3581 00b6 01       		.uleb128 0x1
 3582 00b7 13       		.uleb128 0x13
 3583 00b8 00       		.byte	0
ARM GAS  C:\Users\RAKIBU~1\AppData\Local\Temp\ccL5M507.s 			page 64


 3584 00b9 00       		.byte	0
 3585 00ba 11       		.uleb128 0x11
 3586 00bb 0D       		.uleb128 0xd
 3587 00bc 00       		.byte	0
 3588 00bd 03       		.uleb128 0x3
 3589 00be 08       		.uleb128 0x8
 3590 00bf 3A       		.uleb128 0x3a
 3591 00c0 0B       		.uleb128 0xb
 3592 00c1 3B       		.uleb128 0x3b
 3593 00c2 0B       		.uleb128 0xb
 3594 00c3 49       		.uleb128 0x49
 3595 00c4 13       		.uleb128 0x13
 3596 00c5 38       		.uleb128 0x38
 3597 00c6 0B       		.uleb128 0xb
 3598 00c7 00       		.byte	0
 3599 00c8 00       		.byte	0
 3600 00c9 12       		.uleb128 0x12
 3601 00ca 13       		.uleb128 0x13
 3602 00cb 01       		.byte	0x1
 3603 00cc 03       		.uleb128 0x3
 3604 00cd 0E       		.uleb128 0xe
 3605 00ce 0B       		.uleb128 0xb
 3606 00cf 05       		.uleb128 0x5
 3607 00d0 3A       		.uleb128 0x3a
 3608 00d1 0B       		.uleb128 0xb
 3609 00d2 3B       		.uleb128 0x3b
 3610 00d3 0B       		.uleb128 0xb
 3611 00d4 01       		.uleb128 0x1
 3612 00d5 13       		.uleb128 0x13
 3613 00d6 00       		.byte	0
 3614 00d7 00       		.byte	0
 3615 00d8 13       		.uleb128 0x13
 3616 00d9 0D       		.uleb128 0xd
 3617 00da 00       		.byte	0
 3618 00db 03       		.uleb128 0x3
 3619 00dc 0E       		.uleb128 0xe
 3620 00dd 3A       		.uleb128 0x3a
 3621 00de 0B       		.uleb128 0xb
 3622 00df 3B       		.uleb128 0x3b
 3623 00e0 0B       		.uleb128 0xb
 3624 00e1 49       		.uleb128 0x49
 3625 00e2 13       		.uleb128 0x13
 3626 00e3 38       		.uleb128 0x38
 3627 00e4 05       		.uleb128 0x5
 3628 00e5 00       		.byte	0
 3629 00e6 00       		.byte	0
 3630 00e7 14       		.uleb128 0x14
 3631 00e8 15       		.uleb128 0x15
 3632 00e9 00       		.byte	0
 3633 00ea 27       		.uleb128 0x27
 3634 00eb 19       		.uleb128 0x19
 3635 00ec 00       		.byte	0
 3636 00ed 00       		.byte	0
 3637 00ee 15       		.uleb128 0x15
 3638 00ef 15       		.uleb128 0x15
 3639 00f0 01       		.byte	0x1
 3640 00f1 27       		.uleb128 0x27
ARM GAS  C:\Users\RAKIBU~1\AppData\Local\Temp\ccL5M507.s 			page 65


 3641 00f2 19       		.uleb128 0x19
 3642 00f3 49       		.uleb128 0x49
 3643 00f4 13       		.uleb128 0x13
 3644 00f5 01       		.uleb128 0x1
 3645 00f6 13       		.uleb128 0x13
 3646 00f7 00       		.byte	0
 3647 00f8 00       		.byte	0
 3648 00f9 16       		.uleb128 0x16
 3649 00fa 05       		.uleb128 0x5
 3650 00fb 00       		.byte	0
 3651 00fc 49       		.uleb128 0x49
 3652 00fd 13       		.uleb128 0x13
 3653 00fe 00       		.byte	0
 3654 00ff 00       		.byte	0
 3655 0100 17       		.uleb128 0x17
 3656 0101 13       		.uleb128 0x13
 3657 0102 01       		.byte	0x1
 3658 0103 03       		.uleb128 0x3
 3659 0104 0E       		.uleb128 0xe
 3660 0105 0B       		.uleb128 0xb
 3661 0106 05       		.uleb128 0x5
 3662 0107 3A       		.uleb128 0x3a
 3663 0108 0B       		.uleb128 0xb
 3664 0109 3B       		.uleb128 0x3b
 3665 010a 05       		.uleb128 0x5
 3666 010b 01       		.uleb128 0x1
 3667 010c 13       		.uleb128 0x13
 3668 010d 00       		.byte	0
 3669 010e 00       		.byte	0
 3670 010f 18       		.uleb128 0x18
 3671 0110 0D       		.uleb128 0xd
 3672 0111 00       		.byte	0
 3673 0112 03       		.uleb128 0x3
 3674 0113 0E       		.uleb128 0xe
 3675 0114 3A       		.uleb128 0x3a
 3676 0115 0B       		.uleb128 0xb
 3677 0116 3B       		.uleb128 0x3b
 3678 0117 05       		.uleb128 0x5
 3679 0118 49       		.uleb128 0x49
 3680 0119 13       		.uleb128 0x13
 3681 011a 38       		.uleb128 0x38
 3682 011b 0B       		.uleb128 0xb
 3683 011c 00       		.byte	0
 3684 011d 00       		.byte	0
 3685 011e 19       		.uleb128 0x19
 3686 011f 0D       		.uleb128 0xd
 3687 0120 00       		.byte	0
 3688 0121 03       		.uleb128 0x3
 3689 0122 0E       		.uleb128 0xe
 3690 0123 3A       		.uleb128 0x3a
 3691 0124 0B       		.uleb128 0xb
 3692 0125 3B       		.uleb128 0x3b
 3693 0126 05       		.uleb128 0x5
 3694 0127 49       		.uleb128 0x49
 3695 0128 13       		.uleb128 0x13
 3696 0129 38       		.uleb128 0x38
 3697 012a 05       		.uleb128 0x5
ARM GAS  C:\Users\RAKIBU~1\AppData\Local\Temp\ccL5M507.s 			page 66


 3698 012b 00       		.byte	0
 3699 012c 00       		.byte	0
 3700 012d 1A       		.uleb128 0x1a
 3701 012e 35       		.uleb128 0x35
 3702 012f 00       		.byte	0
 3703 0130 49       		.uleb128 0x49
 3704 0131 13       		.uleb128 0x13
 3705 0132 00       		.byte	0
 3706 0133 00       		.byte	0
 3707 0134 1B       		.uleb128 0x1b
 3708 0135 13       		.uleb128 0x13
 3709 0136 01       		.byte	0x1
 3710 0137 03       		.uleb128 0x3
 3711 0138 0E       		.uleb128 0xe
 3712 0139 0B       		.uleb128 0xb
 3713 013a 0B       		.uleb128 0xb
 3714 013b 3A       		.uleb128 0x3a
 3715 013c 0B       		.uleb128 0xb
 3716 013d 3B       		.uleb128 0x3b
 3717 013e 05       		.uleb128 0x5
 3718 013f 01       		.uleb128 0x1
 3719 0140 13       		.uleb128 0x13
 3720 0141 00       		.byte	0
 3721 0142 00       		.byte	0
 3722 0143 1C       		.uleb128 0x1c
 3723 0144 13       		.uleb128 0x13
 3724 0145 01       		.byte	0x1
 3725 0146 0B       		.uleb128 0xb
 3726 0147 0B       		.uleb128 0xb
 3727 0148 3A       		.uleb128 0x3a
 3728 0149 0B       		.uleb128 0xb
 3729 014a 3B       		.uleb128 0x3b
 3730 014b 05       		.uleb128 0x5
 3731 014c 01       		.uleb128 0x1
 3732 014d 13       		.uleb128 0x13
 3733 014e 00       		.byte	0
 3734 014f 00       		.byte	0
 3735 0150 1D       		.uleb128 0x1d
 3736 0151 17       		.uleb128 0x17
 3737 0152 01       		.byte	0x1
 3738 0153 0B       		.uleb128 0xb
 3739 0154 0B       		.uleb128 0xb
 3740 0155 3A       		.uleb128 0x3a
 3741 0156 0B       		.uleb128 0xb
 3742 0157 3B       		.uleb128 0x3b
 3743 0158 05       		.uleb128 0x5
 3744 0159 01       		.uleb128 0x1
 3745 015a 13       		.uleb128 0x13
 3746 015b 00       		.byte	0
 3747 015c 00       		.byte	0
 3748 015d 1E       		.uleb128 0x1e
 3749 015e 0D       		.uleb128 0xd
 3750 015f 00       		.byte	0
 3751 0160 03       		.uleb128 0x3
 3752 0161 0E       		.uleb128 0xe
 3753 0162 3A       		.uleb128 0x3a
 3754 0163 0B       		.uleb128 0xb
ARM GAS  C:\Users\RAKIBU~1\AppData\Local\Temp\ccL5M507.s 			page 67


 3755 0164 3B       		.uleb128 0x3b
 3756 0165 05       		.uleb128 0x5
 3757 0166 49       		.uleb128 0x49
 3758 0167 13       		.uleb128 0x13
 3759 0168 00       		.byte	0
 3760 0169 00       		.byte	0
 3761 016a 1F       		.uleb128 0x1f
 3762 016b 15       		.uleb128 0x15
 3763 016c 01       		.byte	0x1
 3764 016d 27       		.uleb128 0x27
 3765 016e 19       		.uleb128 0x19
 3766 016f 01       		.uleb128 0x1
 3767 0170 13       		.uleb128 0x13
 3768 0171 00       		.byte	0
 3769 0172 00       		.byte	0
 3770 0173 20       		.uleb128 0x20
 3771 0174 34       		.uleb128 0x34
 3772 0175 00       		.byte	0
 3773 0176 03       		.uleb128 0x3
 3774 0177 0E       		.uleb128 0xe
 3775 0178 3A       		.uleb128 0x3a
 3776 0179 0B       		.uleb128 0xb
 3777 017a 3B       		.uleb128 0x3b
 3778 017b 05       		.uleb128 0x5
 3779 017c 49       		.uleb128 0x49
 3780 017d 13       		.uleb128 0x13
 3781 017e 3F       		.uleb128 0x3f
 3782 017f 19       		.uleb128 0x19
 3783 0180 3C       		.uleb128 0x3c
 3784 0181 19       		.uleb128 0x19
 3785 0182 00       		.byte	0
 3786 0183 00       		.byte	0
 3787 0184 21       		.uleb128 0x21
 3788 0185 0D       		.uleb128 0xd
 3789 0186 00       		.byte	0
 3790 0187 03       		.uleb128 0x3
 3791 0188 08       		.uleb128 0x8
 3792 0189 3A       		.uleb128 0x3a
 3793 018a 0B       		.uleb128 0xb
 3794 018b 3B       		.uleb128 0x3b
 3795 018c 05       		.uleb128 0x5
 3796 018d 49       		.uleb128 0x49
 3797 018e 13       		.uleb128 0x13
 3798 018f 38       		.uleb128 0x38
 3799 0190 0B       		.uleb128 0xb
 3800 0191 00       		.byte	0
 3801 0192 00       		.byte	0
 3802 0193 22       		.uleb128 0x22
 3803 0194 0D       		.uleb128 0xd
 3804 0195 00       		.byte	0
 3805 0196 03       		.uleb128 0x3
 3806 0197 08       		.uleb128 0x8
 3807 0198 3A       		.uleb128 0x3a
 3808 0199 0B       		.uleb128 0xb
 3809 019a 3B       		.uleb128 0x3b
 3810 019b 05       		.uleb128 0x5
 3811 019c 49       		.uleb128 0x49
ARM GAS  C:\Users\RAKIBU~1\AppData\Local\Temp\ccL5M507.s 			page 68


 3812 019d 13       		.uleb128 0x13
 3813 019e 38       		.uleb128 0x38
 3814 019f 05       		.uleb128 0x5
 3815 01a0 00       		.byte	0
 3816 01a1 00       		.byte	0
 3817 01a2 23       		.uleb128 0x23
 3818 01a3 34       		.uleb128 0x34
 3819 01a4 00       		.byte	0
 3820 01a5 03       		.uleb128 0x3
 3821 01a6 0E       		.uleb128 0xe
 3822 01a7 3A       		.uleb128 0x3a
 3823 01a8 0B       		.uleb128 0xb
 3824 01a9 3B       		.uleb128 0x3b
 3825 01aa 0B       		.uleb128 0xb
 3826 01ab 49       		.uleb128 0x49
 3827 01ac 13       		.uleb128 0x13
 3828 01ad 3F       		.uleb128 0x3f
 3829 01ae 19       		.uleb128 0x19
 3830 01af 3C       		.uleb128 0x3c
 3831 01b0 19       		.uleb128 0x19
 3832 01b1 00       		.byte	0
 3833 01b2 00       		.byte	0
 3834 01b3 24       		.uleb128 0x24
 3835 01b4 0D       		.uleb128 0xd
 3836 01b5 00       		.byte	0
 3837 01b6 03       		.uleb128 0x3
 3838 01b7 08       		.uleb128 0x8
 3839 01b8 3A       		.uleb128 0x3a
 3840 01b9 0B       		.uleb128 0xb
 3841 01ba 3B       		.uleb128 0x3b
 3842 01bb 0B       		.uleb128 0xb
 3843 01bc 49       		.uleb128 0x49
 3844 01bd 13       		.uleb128 0x13
 3845 01be 00       		.byte	0
 3846 01bf 00       		.byte	0
 3847 01c0 25       		.uleb128 0x25
 3848 01c1 0D       		.uleb128 0xd
 3849 01c2 00       		.byte	0
 3850 01c3 03       		.uleb128 0x3
 3851 01c4 0E       		.uleb128 0xe
 3852 01c5 3A       		.uleb128 0x3a
 3853 01c6 0B       		.uleb128 0xb
 3854 01c7 3B       		.uleb128 0x3b
 3855 01c8 0B       		.uleb128 0xb
 3856 01c9 49       		.uleb128 0x49
 3857 01ca 13       		.uleb128 0x13
 3858 01cb 0B       		.uleb128 0xb
 3859 01cc 0B       		.uleb128 0xb
 3860 01cd 0D       		.uleb128 0xd
 3861 01ce 0B       		.uleb128 0xb
 3862 01cf 0C       		.uleb128 0xc
 3863 01d0 0B       		.uleb128 0xb
 3864 01d1 38       		.uleb128 0x38
 3865 01d2 0B       		.uleb128 0xb
 3866 01d3 00       		.byte	0
 3867 01d4 00       		.byte	0
 3868 01d5 26       		.uleb128 0x26
ARM GAS  C:\Users\RAKIBU~1\AppData\Local\Temp\ccL5M507.s 			page 69


 3869 01d6 13       		.uleb128 0x13
 3870 01d7 01       		.byte	0x1
 3871 01d8 0B       		.uleb128 0xb
 3872 01d9 05       		.uleb128 0x5
 3873 01da 3A       		.uleb128 0x3a
 3874 01db 0B       		.uleb128 0xb
 3875 01dc 3B       		.uleb128 0x3b
 3876 01dd 0B       		.uleb128 0xb
 3877 01de 01       		.uleb128 0x1
 3878 01df 13       		.uleb128 0x13
 3879 01e0 00       		.byte	0
 3880 01e1 00       		.byte	0
 3881 01e2 27       		.uleb128 0x27
 3882 01e3 34       		.uleb128 0x34
 3883 01e4 00       		.byte	0
 3884 01e5 03       		.uleb128 0x3
 3885 01e6 08       		.uleb128 0x8
 3886 01e7 3A       		.uleb128 0x3a
 3887 01e8 0B       		.uleb128 0xb
 3888 01e9 3B       		.uleb128 0x3b
 3889 01ea 05       		.uleb128 0x5
 3890 01eb 49       		.uleb128 0x49
 3891 01ec 13       		.uleb128 0x13
 3892 01ed 3F       		.uleb128 0x3f
 3893 01ee 19       		.uleb128 0x19
 3894 01ef 3C       		.uleb128 0x3c
 3895 01f0 19       		.uleb128 0x19
 3896 01f1 00       		.byte	0
 3897 01f2 00       		.byte	0
 3898 01f3 28       		.uleb128 0x28
 3899 01f4 21       		.uleb128 0x21
 3900 01f5 00       		.byte	0
 3901 01f6 00       		.byte	0
 3902 01f7 00       		.byte	0
 3903 01f8 29       		.uleb128 0x29
 3904 01f9 34       		.uleb128 0x34
 3905 01fa 00       		.byte	0
 3906 01fb 47       		.uleb128 0x47
 3907 01fc 13       		.uleb128 0x13
 3908 01fd 3A       		.uleb128 0x3a
 3909 01fe 0B       		.uleb128 0xb
 3910 01ff 3B       		.uleb128 0x3b
 3911 0200 0B       		.uleb128 0xb
 3912 0201 02       		.uleb128 0x2
 3913 0202 18       		.uleb128 0x18
 3914 0203 00       		.byte	0
 3915 0204 00       		.byte	0
 3916 0205 2A       		.uleb128 0x2a
 3917 0206 2E       		.uleb128 0x2e
 3918 0207 01       		.byte	0x1
 3919 0208 3F       		.uleb128 0x3f
 3920 0209 19       		.uleb128 0x19
 3921 020a 03       		.uleb128 0x3
 3922 020b 0E       		.uleb128 0xe
 3923 020c 3A       		.uleb128 0x3a
 3924 020d 0B       		.uleb128 0xb
 3925 020e 3B       		.uleb128 0x3b
ARM GAS  C:\Users\RAKIBU~1\AppData\Local\Temp\ccL5M507.s 			page 70


 3926 020f 0B       		.uleb128 0xb
 3927 0210 27       		.uleb128 0x27
 3928 0211 19       		.uleb128 0x19
 3929 0212 49       		.uleb128 0x49
 3930 0213 13       		.uleb128 0x13
 3931 0214 11       		.uleb128 0x11
 3932 0215 01       		.uleb128 0x1
 3933 0216 12       		.uleb128 0x12
 3934 0217 06       		.uleb128 0x6
 3935 0218 40       		.uleb128 0x40
 3936 0219 18       		.uleb128 0x18
 3937 021a 9742     		.uleb128 0x2117
 3938 021c 19       		.uleb128 0x19
 3939 021d 01       		.uleb128 0x1
 3940 021e 13       		.uleb128 0x13
 3941 021f 00       		.byte	0
 3942 0220 00       		.byte	0
 3943 0221 2B       		.uleb128 0x2b
 3944 0222 05       		.uleb128 0x5
 3945 0223 00       		.byte	0
 3946 0224 03       		.uleb128 0x3
 3947 0225 08       		.uleb128 0x8
 3948 0226 3A       		.uleb128 0x3a
 3949 0227 0B       		.uleb128 0xb
 3950 0228 3B       		.uleb128 0x3b
 3951 0229 0B       		.uleb128 0xb
 3952 022a 49       		.uleb128 0x49
 3953 022b 13       		.uleb128 0x13
 3954 022c 02       		.uleb128 0x2
 3955 022d 17       		.uleb128 0x17
 3956 022e 00       		.byte	0
 3957 022f 00       		.byte	0
 3958 0230 2C       		.uleb128 0x2c
 3959 0231 34       		.uleb128 0x34
 3960 0232 00       		.byte	0
 3961 0233 03       		.uleb128 0x3
 3962 0234 08       		.uleb128 0x8
 3963 0235 3A       		.uleb128 0x3a
 3964 0236 0B       		.uleb128 0xb
 3965 0237 3B       		.uleb128 0x3b
 3966 0238 0B       		.uleb128 0xb
 3967 0239 49       		.uleb128 0x49
 3968 023a 13       		.uleb128 0x13
 3969 023b 02       		.uleb128 0x2
 3970 023c 17       		.uleb128 0x17
 3971 023d 00       		.byte	0
 3972 023e 00       		.byte	0
 3973 023f 2D       		.uleb128 0x2d
 3974 0240 1D       		.uleb128 0x1d
 3975 0241 01       		.byte	0x1
 3976 0242 31       		.uleb128 0x31
 3977 0243 13       		.uleb128 0x13
 3978 0244 11       		.uleb128 0x11
 3979 0245 01       		.uleb128 0x1
 3980 0246 12       		.uleb128 0x12
 3981 0247 06       		.uleb128 0x6
 3982 0248 58       		.uleb128 0x58
ARM GAS  C:\Users\RAKIBU~1\AppData\Local\Temp\ccL5M507.s 			page 71


 3983 0249 0B       		.uleb128 0xb
 3984 024a 59       		.uleb128 0x59
 3985 024b 05       		.uleb128 0x5
 3986 024c 01       		.uleb128 0x1
 3987 024d 13       		.uleb128 0x13
 3988 024e 00       		.byte	0
 3989 024f 00       		.byte	0
 3990 0250 2E       		.uleb128 0x2e
 3991 0251 05       		.uleb128 0x5
 3992 0252 00       		.byte	0
 3993 0253 31       		.uleb128 0x31
 3994 0254 13       		.uleb128 0x13
 3995 0255 02       		.uleb128 0x2
 3996 0256 17       		.uleb128 0x17
 3997 0257 00       		.byte	0
 3998 0258 00       		.byte	0
 3999 0259 2F       		.uleb128 0x2f
 4000 025a 898201   		.uleb128 0x4109
 4001 025d 00       		.byte	0
 4002 025e 11       		.uleb128 0x11
 4003 025f 01       		.uleb128 0x1
 4004 0260 31       		.uleb128 0x31
 4005 0261 13       		.uleb128 0x13
 4006 0262 00       		.byte	0
 4007 0263 00       		.byte	0
 4008 0264 30       		.uleb128 0x30
 4009 0265 05       		.uleb128 0x5
 4010 0266 00       		.byte	0
 4011 0267 03       		.uleb128 0x3
 4012 0268 0E       		.uleb128 0xe
 4013 0269 3A       		.uleb128 0x3a
 4014 026a 0B       		.uleb128 0xb
 4015 026b 3B       		.uleb128 0x3b
 4016 026c 0B       		.uleb128 0xb
 4017 026d 49       		.uleb128 0x49
 4018 026e 13       		.uleb128 0x13
 4019 026f 02       		.uleb128 0x2
 4020 0270 17       		.uleb128 0x17
 4021 0271 00       		.byte	0
 4022 0272 00       		.byte	0
 4023 0273 31       		.uleb128 0x31
 4024 0274 898201   		.uleb128 0x4109
 4025 0277 01       		.byte	0x1
 4026 0278 11       		.uleb128 0x11
 4027 0279 01       		.uleb128 0x1
 4028 027a 31       		.uleb128 0x31
 4029 027b 13       		.uleb128 0x13
 4030 027c 01       		.uleb128 0x1
 4031 027d 13       		.uleb128 0x13
 4032 027e 00       		.byte	0
 4033 027f 00       		.byte	0
 4034 0280 32       		.uleb128 0x32
 4035 0281 8A8201   		.uleb128 0x410a
 4036 0284 00       		.byte	0
 4037 0285 02       		.uleb128 0x2
 4038 0286 18       		.uleb128 0x18
 4039 0287 9142     		.uleb128 0x2111
ARM GAS  C:\Users\RAKIBU~1\AppData\Local\Temp\ccL5M507.s 			page 72


 4040 0289 18       		.uleb128 0x18
 4041 028a 00       		.byte	0
 4042 028b 00       		.byte	0
 4043 028c 33       		.uleb128 0x33
 4044 028d 898201   		.uleb128 0x4109
 4045 0290 01       		.byte	0x1
 4046 0291 11       		.uleb128 0x11
 4047 0292 01       		.uleb128 0x1
 4048 0293 31       		.uleb128 0x31
 4049 0294 13       		.uleb128 0x13
 4050 0295 00       		.byte	0
 4051 0296 00       		.byte	0
 4052 0297 34       		.uleb128 0x34
 4053 0298 34       		.uleb128 0x34
 4054 0299 00       		.byte	0
 4055 029a 03       		.uleb128 0x3
 4056 029b 0E       		.uleb128 0xe
 4057 029c 49       		.uleb128 0x49
 4058 029d 13       		.uleb128 0x13
 4059 029e 34       		.uleb128 0x34
 4060 029f 19       		.uleb128 0x19
 4061 02a0 02       		.uleb128 0x2
 4062 02a1 18       		.uleb128 0x18
 4063 02a2 00       		.byte	0
 4064 02a3 00       		.byte	0
 4065 02a4 35       		.uleb128 0x35
 4066 02a5 1D       		.uleb128 0x1d
 4067 02a6 01       		.byte	0x1
 4068 02a7 31       		.uleb128 0x31
 4069 02a8 13       		.uleb128 0x13
 4070 02a9 11       		.uleb128 0x11
 4071 02aa 01       		.uleb128 0x1
 4072 02ab 12       		.uleb128 0x12
 4073 02ac 06       		.uleb128 0x6
 4074 02ad 58       		.uleb128 0x58
 4075 02ae 0B       		.uleb128 0xb
 4076 02af 59       		.uleb128 0x59
 4077 02b0 0B       		.uleb128 0xb
 4078 02b1 01       		.uleb128 0x1
 4079 02b2 13       		.uleb128 0x13
 4080 02b3 00       		.byte	0
 4081 02b4 00       		.byte	0
 4082 02b5 36       		.uleb128 0x36
 4083 02b6 1D       		.uleb128 0x1d
 4084 02b7 01       		.byte	0x1
 4085 02b8 31       		.uleb128 0x31
 4086 02b9 13       		.uleb128 0x13
 4087 02ba 11       		.uleb128 0x11
 4088 02bb 01       		.uleb128 0x1
 4089 02bc 12       		.uleb128 0x12
 4090 02bd 06       		.uleb128 0x6
 4091 02be 58       		.uleb128 0x58
 4092 02bf 0B       		.uleb128 0xb
 4093 02c0 59       		.uleb128 0x59
 4094 02c1 05       		.uleb128 0x5
 4095 02c2 00       		.byte	0
 4096 02c3 00       		.byte	0
ARM GAS  C:\Users\RAKIBU~1\AppData\Local\Temp\ccL5M507.s 			page 73


 4097 02c4 37       		.uleb128 0x37
 4098 02c5 1D       		.uleb128 0x1d
 4099 02c6 01       		.byte	0x1
 4100 02c7 31       		.uleb128 0x31
 4101 02c8 13       		.uleb128 0x13
 4102 02c9 52       		.uleb128 0x52
 4103 02ca 01       		.uleb128 0x1
 4104 02cb 55       		.uleb128 0x55
 4105 02cc 17       		.uleb128 0x17
 4106 02cd 58       		.uleb128 0x58
 4107 02ce 0B       		.uleb128 0xb
 4108 02cf 59       		.uleb128 0x59
 4109 02d0 0B       		.uleb128 0xb
 4110 02d1 01       		.uleb128 0x1
 4111 02d2 13       		.uleb128 0x13
 4112 02d3 00       		.byte	0
 4113 02d4 00       		.byte	0
 4114 02d5 38       		.uleb128 0x38
 4115 02d6 0B       		.uleb128 0xb
 4116 02d7 01       		.byte	0x1
 4117 02d8 55       		.uleb128 0x55
 4118 02d9 17       		.uleb128 0x17
 4119 02da 00       		.byte	0
 4120 02db 00       		.byte	0
 4121 02dc 39       		.uleb128 0x39
 4122 02dd 34       		.uleb128 0x34
 4123 02de 00       		.byte	0
 4124 02df 31       		.uleb128 0x31
 4125 02e0 13       		.uleb128 0x13
 4126 02e1 00       		.byte	0
 4127 02e2 00       		.byte	0
 4128 02e3 3A       		.uleb128 0x3a
 4129 02e4 34       		.uleb128 0x34
 4130 02e5 00       		.byte	0
 4131 02e6 03       		.uleb128 0x3
 4132 02e7 08       		.uleb128 0x8
 4133 02e8 3A       		.uleb128 0x3a
 4134 02e9 0B       		.uleb128 0xb
 4135 02ea 3B       		.uleb128 0x3b
 4136 02eb 0B       		.uleb128 0xb
 4137 02ec 49       		.uleb128 0x49
 4138 02ed 13       		.uleb128 0x13
 4139 02ee 02       		.uleb128 0x2
 4140 02ef 18       		.uleb128 0x18
 4141 02f0 00       		.byte	0
 4142 02f1 00       		.byte	0
 4143 02f2 3B       		.uleb128 0x3b
 4144 02f3 1D       		.uleb128 0x1d
 4145 02f4 01       		.byte	0x1
 4146 02f5 31       		.uleb128 0x31
 4147 02f6 13       		.uleb128 0x13
 4148 02f7 52       		.uleb128 0x52
 4149 02f8 01       		.uleb128 0x1
 4150 02f9 55       		.uleb128 0x55
 4151 02fa 17       		.uleb128 0x17
 4152 02fb 58       		.uleb128 0x58
 4153 02fc 0B       		.uleb128 0xb
ARM GAS  C:\Users\RAKIBU~1\AppData\Local\Temp\ccL5M507.s 			page 74


 4154 02fd 59       		.uleb128 0x59
 4155 02fe 0B       		.uleb128 0xb
 4156 02ff 00       		.byte	0
 4157 0300 00       		.byte	0
 4158 0301 3C       		.uleb128 0x3c
 4159 0302 2E       		.uleb128 0x2e
 4160 0303 01       		.byte	0x1
 4161 0304 03       		.uleb128 0x3
 4162 0305 0E       		.uleb128 0xe
 4163 0306 3A       		.uleb128 0x3a
 4164 0307 0B       		.uleb128 0xb
 4165 0308 3B       		.uleb128 0x3b
 4166 0309 0B       		.uleb128 0xb
 4167 030a 27       		.uleb128 0x27
 4168 030b 19       		.uleb128 0x19
 4169 030c 49       		.uleb128 0x49
 4170 030d 13       		.uleb128 0x13
 4171 030e 20       		.uleb128 0x20
 4172 030f 0B       		.uleb128 0xb
 4173 0310 01       		.uleb128 0x1
 4174 0311 13       		.uleb128 0x13
 4175 0312 00       		.byte	0
 4176 0313 00       		.byte	0
 4177 0314 3D       		.uleb128 0x3d
 4178 0315 05       		.uleb128 0x5
 4179 0316 00       		.byte	0
 4180 0317 03       		.uleb128 0x3
 4181 0318 08       		.uleb128 0x8
 4182 0319 3A       		.uleb128 0x3a
 4183 031a 0B       		.uleb128 0xb
 4184 031b 3B       		.uleb128 0x3b
 4185 031c 0B       		.uleb128 0xb
 4186 031d 49       		.uleb128 0x49
 4187 031e 13       		.uleb128 0x13
 4188 031f 00       		.byte	0
 4189 0320 00       		.byte	0
 4190 0321 3E       		.uleb128 0x3e
 4191 0322 2E       		.uleb128 0x2e
 4192 0323 01       		.byte	0x1
 4193 0324 03       		.uleb128 0x3
 4194 0325 0E       		.uleb128 0xe
 4195 0326 3A       		.uleb128 0x3a
 4196 0327 0B       		.uleb128 0xb
 4197 0328 3B       		.uleb128 0x3b
 4198 0329 05       		.uleb128 0x5
 4199 032a 27       		.uleb128 0x27
 4200 032b 19       		.uleb128 0x19
 4201 032c 49       		.uleb128 0x49
 4202 032d 13       		.uleb128 0x13
 4203 032e 20       		.uleb128 0x20
 4204 032f 0B       		.uleb128 0xb
 4205 0330 01       		.uleb128 0x1
 4206 0331 13       		.uleb128 0x13
 4207 0332 00       		.byte	0
 4208 0333 00       		.byte	0
 4209 0334 3F       		.uleb128 0x3f
 4210 0335 05       		.uleb128 0x5
ARM GAS  C:\Users\RAKIBU~1\AppData\Local\Temp\ccL5M507.s 			page 75


 4211 0336 00       		.byte	0
 4212 0337 03       		.uleb128 0x3
 4213 0338 08       		.uleb128 0x8
 4214 0339 3A       		.uleb128 0x3a
 4215 033a 0B       		.uleb128 0xb
 4216 033b 3B       		.uleb128 0x3b
 4217 033c 05       		.uleb128 0x5
 4218 033d 49       		.uleb128 0x49
 4219 033e 13       		.uleb128 0x13
 4220 033f 00       		.byte	0
 4221 0340 00       		.byte	0
 4222 0341 40       		.uleb128 0x40
 4223 0342 2E       		.uleb128 0x2e
 4224 0343 01       		.byte	0x1
 4225 0344 03       		.uleb128 0x3
 4226 0345 0E       		.uleb128 0xe
 4227 0346 3A       		.uleb128 0x3a
 4228 0347 0B       		.uleb128 0xb
 4229 0348 3B       		.uleb128 0x3b
 4230 0349 05       		.uleb128 0x5
 4231 034a 27       		.uleb128 0x27
 4232 034b 19       		.uleb128 0x19
 4233 034c 20       		.uleb128 0x20
 4234 034d 0B       		.uleb128 0xb
 4235 034e 01       		.uleb128 0x1
 4236 034f 13       		.uleb128 0x13
 4237 0350 00       		.byte	0
 4238 0351 00       		.byte	0
 4239 0352 41       		.uleb128 0x41
 4240 0353 34       		.uleb128 0x34
 4241 0354 00       		.byte	0
 4242 0355 03       		.uleb128 0x3
 4243 0356 0E       		.uleb128 0xe
 4244 0357 49       		.uleb128 0x49
 4245 0358 13       		.uleb128 0x13
 4246 0359 34       		.uleb128 0x34
 4247 035a 19       		.uleb128 0x19
 4248 035b 1C       		.uleb128 0x1c
 4249 035c 0E       		.uleb128 0xe
 4250 035d 00       		.byte	0
 4251 035e 00       		.byte	0
 4252 035f 42       		.uleb128 0x42
 4253 0360 2E       		.uleb128 0x2e
 4254 0361 00       		.byte	0
 4255 0362 03       		.uleb128 0x3
 4256 0363 0E       		.uleb128 0xe
 4257 0364 3A       		.uleb128 0x3a
 4258 0365 0B       		.uleb128 0xb
 4259 0366 3B       		.uleb128 0x3b
 4260 0367 05       		.uleb128 0x5
 4261 0368 27       		.uleb128 0x27
 4262 0369 19       		.uleb128 0x19
 4263 036a 20       		.uleb128 0x20
 4264 036b 0B       		.uleb128 0xb
 4265 036c 00       		.byte	0
 4266 036d 00       		.byte	0
 4267 036e 43       		.uleb128 0x43
ARM GAS  C:\Users\RAKIBU~1\AppData\Local\Temp\ccL5M507.s 			page 76


 4268 036f 05       		.uleb128 0x5
 4269 0370 00       		.byte	0
 4270 0371 03       		.uleb128 0x3
 4271 0372 0E       		.uleb128 0xe
 4272 0373 3A       		.uleb128 0x3a
 4273 0374 0B       		.uleb128 0xb
 4274 0375 3B       		.uleb128 0x3b
 4275 0376 05       		.uleb128 0x5
 4276 0377 49       		.uleb128 0x49
 4277 0378 13       		.uleb128 0x13
 4278 0379 00       		.byte	0
 4279 037a 00       		.byte	0
 4280 037b 44       		.uleb128 0x44
 4281 037c 2E       		.uleb128 0x2e
 4282 037d 00       		.byte	0
 4283 037e 3F       		.uleb128 0x3f
 4284 037f 19       		.uleb128 0x19
 4285 0380 3C       		.uleb128 0x3c
 4286 0381 19       		.uleb128 0x19
 4287 0382 6E       		.uleb128 0x6e
 4288 0383 0E       		.uleb128 0xe
 4289 0384 03       		.uleb128 0x3
 4290 0385 0E       		.uleb128 0xe
 4291 0386 3A       		.uleb128 0x3a
 4292 0387 0B       		.uleb128 0xb
 4293 0388 3B       		.uleb128 0x3b
 4294 0389 0B       		.uleb128 0xb
 4295 038a 00       		.byte	0
 4296 038b 00       		.byte	0
 4297 038c 00       		.byte	0
 4298              		.section	.debug_loc,"",%progbits
 4299              	.Ldebug_loc0:
 4300              	.LLST10:
 4301 0000 20010000 		.4byte	.LVL40-.Ltext0
 4302 0004 27010000 		.4byte	.LVL41-1-.Ltext0
 4303 0008 0100     		.2byte	0x1
 4304 000a 50       		.byte	0x50
 4305 000b 27010000 		.4byte	.LVL41-1-.Ltext0
 4306 000f 40010000 		.4byte	.LFE299-.Ltext0
 4307 0013 0100     		.2byte	0x1
 4308 0015 54       		.byte	0x54
 4309 0016 00000000 		.4byte	0
 4310 001a 00000000 		.4byte	0
 4311              	.LLST11:
 4312 001e 2A010000 		.4byte	.LVL42-.Ltext0
 4313 0022 35010000 		.4byte	.LVL44-1-.Ltext0
 4314 0026 0100     		.2byte	0x1
 4315 0028 50       		.byte	0x50
 4316 0029 36010000 		.4byte	.LVL44-.Ltext0
 4317 002d 3E010000 		.4byte	.LVL45-.Ltext0
 4318 0031 0100     		.2byte	0x1
 4319 0033 50       		.byte	0x50
 4320 0034 3E010000 		.4byte	.LVL45-.Ltext0
 4321 0038 40010000 		.4byte	.LFE299-.Ltext0
 4322 003c 0100     		.2byte	0x1
 4323 003e 53       		.byte	0x53
 4324 003f 00000000 		.4byte	0
ARM GAS  C:\Users\RAKIBU~1\AppData\Local\Temp\ccL5M507.s 			page 77


 4325 0043 00000000 		.4byte	0
 4326              	.LLST12:
 4327 0047 2A010000 		.4byte	.LVL42-.Ltext0
 4328 004b 2C010000 		.4byte	.LVL43-.Ltext0
 4329 004f 0100     		.2byte	0x1
 4330 0051 50       		.byte	0x50
 4331 0052 00000000 		.4byte	0
 4332 0056 00000000 		.4byte	0
 4333              	.LLST8:
 4334 005a 00010000 		.4byte	.LVL35-.Ltext0
 4335 005e 07010000 		.4byte	.LVL36-1-.Ltext0
 4336 0062 0100     		.2byte	0x1
 4337 0064 50       		.byte	0x50
 4338 0065 07010000 		.4byte	.LVL36-1-.Ltext0
 4339 0069 1E010000 		.4byte	.LFE298-.Ltext0
 4340 006d 0100     		.2byte	0x1
 4341 006f 54       		.byte	0x54
 4342 0070 00000000 		.4byte	0
 4343 0074 00000000 		.4byte	0
 4344              	.LLST9:
 4345 0078 0A010000 		.4byte	.LVL37-.Ltext0
 4346 007c 13010000 		.4byte	.LVL38-1-.Ltext0
 4347 0080 0100     		.2byte	0x1
 4348 0082 50       		.byte	0x50
 4349 0083 14010000 		.4byte	.LVL38-.Ltext0
 4350 0087 1C010000 		.4byte	.LVL39-.Ltext0
 4351 008b 0100     		.2byte	0x1
 4352 008d 50       		.byte	0x50
 4353 008e 1C010000 		.4byte	.LVL39-.Ltext0
 4354 0092 1E010000 		.4byte	.LFE298-.Ltext0
 4355 0096 0100     		.2byte	0x1
 4356 0098 53       		.byte	0x53
 4357 0099 00000000 		.4byte	0
 4358 009d 00000000 		.4byte	0
 4359              	.LLST6:
 4360 00a1 D0000000 		.4byte	.LVL28-.Ltext0
 4361 00a5 D7000000 		.4byte	.LVL29-1-.Ltext0
 4362 00a9 0100     		.2byte	0x1
 4363 00ab 50       		.byte	0x50
 4364 00ac D7000000 		.4byte	.LVL29-1-.Ltext0
 4365 00b0 F4000000 		.4byte	.LFE297-.Ltext0
 4366 00b4 0100     		.2byte	0x1
 4367 00b6 55       		.byte	0x55
 4368 00b7 00000000 		.4byte	0
 4369 00bb 00000000 		.4byte	0
 4370              	.LLST7:
 4371 00bf DA000000 		.4byte	.LVL30-.Ltext0
 4372 00c3 DE000000 		.4byte	.LVL31-.Ltext0
 4373 00c7 0100     		.2byte	0x1
 4374 00c9 50       		.byte	0x50
 4375 00ca DE000000 		.4byte	.LVL31-.Ltext0
 4376 00ce EA000000 		.4byte	.LVL33-.Ltext0
 4377 00d2 0100     		.2byte	0x1
 4378 00d4 54       		.byte	0x54
 4379 00d5 EA000000 		.4byte	.LVL33-.Ltext0
 4380 00d9 F0000000 		.4byte	.LVL34-.Ltext0
 4381 00dd 0100     		.2byte	0x1
ARM GAS  C:\Users\RAKIBU~1\AppData\Local\Temp\ccL5M507.s 			page 78


 4382 00df 50       		.byte	0x50
 4383 00e0 F0000000 		.4byte	.LVL34-.Ltext0
 4384 00e4 F4000000 		.4byte	.LFE297-.Ltext0
 4385 00e8 0100     		.2byte	0x1
 4386 00ea 54       		.byte	0x54
 4387 00eb 00000000 		.4byte	0
 4388 00ef 00000000 		.4byte	0
 4389              	.LLST2:
 4390 00f3 50000000 		.4byte	.LVL11-.Ltext0
 4391 00f7 5D000000 		.4byte	.LVL14-1-.Ltext0
 4392 00fb 0100     		.2byte	0x1
 4393 00fd 50       		.byte	0x50
 4394 00fe 5D000000 		.4byte	.LVL14-1-.Ltext0
 4395 0102 C8000000 		.4byte	.LFE296-.Ltext0
 4396 0106 0100     		.2byte	0x1
 4397 0108 55       		.byte	0x55
 4398 0109 00000000 		.4byte	0
 4399 010d 00000000 		.4byte	0
 4400              	.LLST3:
 4401 0111 64000000 		.4byte	.LVL16-.Ltext0
 4402 0115 B0000000 		.4byte	.LVL25-.Ltext0
 4403 0119 0100     		.2byte	0x1
 4404 011b 54       		.byte	0x54
 4405 011c B0000000 		.4byte	.LVL25-.Ltext0
 4406 0120 B2000000 		.4byte	.LVL26-.Ltext0
 4407 0124 0200     		.2byte	0x2
 4408 0126 75       		.byte	0x75
 4409 0127 10       		.sleb128 16
 4410 0128 B2000000 		.4byte	.LVL26-.Ltext0
 4411 012c C8000000 		.4byte	.LFE296-.Ltext0
 4412 0130 0100     		.2byte	0x1
 4413 0132 54       		.byte	0x54
 4414 0133 00000000 		.4byte	0
 4415 0137 00000000 		.4byte	0
 4416              	.LLST4:
 4417 013b 54000000 		.4byte	.LVL12-.Ltext0
 4418 013f 5A000000 		.4byte	.LVL13-.Ltext0
 4419 0143 0300     		.2byte	0x3
 4420 0145 08       		.byte	0x8
 4421 0146 20       		.byte	0x20
 4422 0147 9F       		.byte	0x9f
 4423 0148 00000000 		.4byte	0
 4424 014c 00000000 		.4byte	0
 4425              	.LLST5:
 4426 0150 96000000 		.4byte	.LVL20-.Ltext0
 4427 0154 9C000000 		.4byte	.LVL21-.Ltext0
 4428 0158 0200     		.2byte	0x2
 4429 015a 30       		.byte	0x30
 4430 015b 9F       		.byte	0x9f
 4431 015c 00000000 		.4byte	0
 4432 0160 00000000 		.4byte	0
 4433              	.LLST0:
 4434 0164 02000000 		.4byte	.LVL0-.Ltext0
 4435 0168 08000000 		.4byte	.LVL1-.Ltext0
 4436 016c 0300     		.2byte	0x3
 4437 016e 08       		.byte	0x8
 4438 016f 20       		.byte	0x20
ARM GAS  C:\Users\RAKIBU~1\AppData\Local\Temp\ccL5M507.s 			page 79


 4439 0170 9F       		.byte	0x9f
 4440 0171 00000000 		.4byte	0
 4441 0175 00000000 		.4byte	0
 4442              	.LLST1:
 4443 0179 36000000 		.4byte	.LVL7-.Ltext0
 4444 017d 3C000000 		.4byte	.LVL8-.Ltext0
 4445 0181 0200     		.2byte	0x2
 4446 0183 30       		.byte	0x30
 4447 0184 9F       		.byte	0x9f
 4448 0185 00000000 		.4byte	0
 4449 0189 00000000 		.4byte	0
 4450              		.section	.debug_aranges,"",%progbits
 4451 0000 1C000000 		.4byte	0x1c
 4452 0004 0200     		.2byte	0x2
 4453 0006 00000000 		.4byte	.Ldebug_info0
 4454 000a 04       		.byte	0x4
 4455 000b 00       		.byte	0
 4456 000c 0000     		.2byte	0
 4457 000e 0000     		.2byte	0
 4458 0010 00000000 		.4byte	.Ltext0
 4459 0014 40010000 		.4byte	.Letext0-.Ltext0
 4460 0018 00000000 		.4byte	0
 4461 001c 00000000 		.4byte	0
 4462              		.section	.debug_ranges,"",%progbits
 4463              	.Ldebug_ranges0:
 4464 0000 1E000000 		.4byte	.LBB43-.Ltext0
 4465 0004 3C000000 		.4byte	.LBE43-.Ltext0
 4466 0008 40000000 		.4byte	.LBB49-.Ltext0
 4467 000c 50000000 		.4byte	.LBE49-.Ltext0
 4468 0010 00000000 		.4byte	0
 4469 0014 00000000 		.4byte	0
 4470 0018 7C000000 		.4byte	.LBB65-.Ltext0
 4471 001c 9C000000 		.4byte	.LBE65-.Ltext0
 4472 0020 B2000000 		.4byte	.LBB71-.Ltext0
 4473 0024 C8000000 		.4byte	.LBE71-.Ltext0
 4474 0028 00000000 		.4byte	0
 4475 002c 00000000 		.4byte	0
 4476              		.section	.debug_line,"",%progbits
 4477              	.Ldebug_line0:
 4478 0000 27050000 		.section	.debug_str,"MS",%progbits,1
 4478      02007B04 
 4478      00000201 
 4478      FB0E0D00 
 4478      01010101 
 4479              	.LASF242:
 4480 0000 6F66665F 		.ascii	"off_ctx\000"
 4480      63747800 
 4481              	.LASF4:
 4482 0008 73697A65 		.ascii	"size_t\000"
 4482      5F7400
 4483              	.LASF241:
 4484 000f 6F66665F 		.ascii	"off_prio\000"
 4484      7072696F 
 4484      00
 4485              	.LASF258:
 4486 0018 656E646D 		.ascii	"endmem\000"
 4486      656D00
ARM GAS  C:\Users\RAKIBU~1\AppData\Local\Temp\ccL5M507.s 			page 80


 4487              	.LASF124:
 4488 001f 5F5F6C6F 		.ascii	"__locale_t\000"
 4488      63616C65 
 4488      5F7400
 4489              	.LASF23:
 4490 002a 5F5F7661 		.ascii	"__value\000"
 4490      6C756500 
 4491              	.LASF190:
 4492 0032 73797374 		.ascii	"systime_t\000"
 4492      696D655F 
 4492      7400
 4493              	.LASF250:
 4494 003c 6F66665F 		.ascii	"off_preempt\000"
 4494      70726565 
 4494      6D707400 
 4495              	.LASF92:
 4496 0048 5F5F7366 		.ascii	"__sf\000"
 4496      00
 4497              	.LASF284:
 4498 004d 63685265 		.ascii	"chRegNextThread\000"
 4498      674E6578 
 4498      74546872 
 4498      65616400 
 4499              	.LASF233:
 4500 005d 6F776E65 		.ascii	"owner\000"
 4500      7200
 4501              	.LASF59:
 4502 0063 5F726561 		.ascii	"_read\000"
 4502      6400
 4503              	.LASF137:
 4504 0069 74707269 		.ascii	"tprio_t\000"
 4504      6F5F7400 
 4505              	.LASF253:
 4506 0071 63685F64 		.ascii	"ch_debug\000"
 4506      65627567 
 4506      00
 4507              	.LASF264:
 4508 007a 70726F76 		.ascii	"provider\000"
 4508      69646572 
 4508      00
 4509              	.LASF203:
 4510 0083 75736572 		.ascii	"user\000"
 4510      00
 4511              	.LASF60:
 4512 0088 5F777269 		.ascii	"_write\000"
 4512      746500
 4513              	.LASF129:
 4514 008f 696E7433 		.ascii	"int32_t\000"
 4514      325F7400 
 4515              	.LASF103:
 4516 0097 5F617363 		.ascii	"_asctime_buf\000"
 4516      74696D65 
 4516      5F627566 
 4516      00
 4517              	.LASF86:
 4518 00a4 5F637674 		.ascii	"_cvtlen\000"
 4518      6C656E00 
ARM GAS  C:\Users\RAKIBU~1\AppData\Local\Temp\ccL5M507.s 			page 81


 4519              	.LASF170:
 4520 00ac 76746675 		.ascii	"vtfunc_t\000"
 4520      6E635F74 
 4520      00
 4521              	.LASF288:
 4522 00b5 5F5F6675 		.ascii	"__func__\000"
 4522      6E635F5F 
 4522      00
 4523              	.LASF176:
 4524 00be 63685F76 		.ascii	"ch_virtual_timers_list\000"
 4524      69727475 
 4524      616C5F74 
 4524      696D6572 
 4524      735F6C69 
 4525              	.LASF122:
 4526 00d5 5F756E75 		.ascii	"_unused\000"
 4526      73656400 
 4527              	.LASF33:
 4528 00dd 5F5F746D 		.ascii	"__tm\000"
 4528      00
 4529              	.LASF118:
 4530 00e2 5F776373 		.ascii	"_wcsrtombs_state\000"
 4530      72746F6D 
 4530      62735F73 
 4530      74617465 
 4530      00
 4531              	.LASF64:
 4532 00f3 5F6E6275 		.ascii	"_nbuf\000"
 4532      6600
 4533              	.LASF34:
 4534 00f9 5F5F746D 		.ascii	"__tm_sec\000"
 4534      5F736563 
 4534      00
 4535              	.LASF111:
 4536 0102 5F6C3634 		.ascii	"_l64a_buf\000"
 4536      615F6275 
 4536      6600
 4537              	.LASF266:
 4538 010c 63685F64 		.ascii	"ch_dyn_element\000"
 4538      796E5F65 
 4538      6C656D65 
 4538      6E7400
 4539              	.LASF205:
 4540 011b 72747374 		.ascii	"rtstamp\000"
 4540      616D7000 
 4541              	.LASF150:
 4542 0123 73746174 		.ascii	"state\000"
 4542      6500
 4543              	.LASF68:
 4544 0129 5F6C6F63 		.ascii	"_lock\000"
 4544      6B00
 4545              	.LASF182:
 4546 012f 6C6F636B 		.ascii	"lock_cnt\000"
 4546      5F636E74 
 4546      00
 4547              	.LASF159:
 4548 0138 73746174 		.ascii	"stats\000"
ARM GAS  C:\Users\RAKIBU~1\AppData\Local\Temp\ccL5M507.s 			page 82


 4548      7300
 4549              	.LASF204:
 4550 013e 74797065 		.ascii	"type\000"
 4550      00
 4551              	.LASF294:
 4552 0143 62617365 		.ascii	"basePri\000"
 4552      50726900 
 4553              	.LASF99:
 4554 014b 5F6D756C 		.ascii	"_mult\000"
 4554      7400
 4555              	.LASF271:
 4556 0151 6F626A5F 		.ascii	"obj_list\000"
 4556      6C697374 
 4556      00
 4557              	.LASF301:
 4558 015a 63685468 		.ascii	"chThdRelease\000"
 4558      6452656C 
 4558      65617365 
 4558      00
 4559              	.LASF218:
 4560 0167 74696D65 		.ascii	"time_measurement_t\000"
 4560      5F6D6561 
 4560      73757265 
 4560      6D656E74 
 4560      5F7400
 4561              	.LASF244:
 4562 017a 6F66665F 		.ascii	"off_older\000"
 4562      6F6C6465 
 4562      7200
 4563              	.LASF145:
 4564 0184 7072696F 		.ascii	"prio\000"
 4564      00
 4565              	.LASF298:
 4566 0189 5F646267 		.ascii	"_dbg_check_unlock\000"
 4566      5F636865 
 4566      636B5F75 
 4566      6E6C6F63 
 4566      6B00
 4567              	.LASF285:
 4568 019b 63685265 		.ascii	"chRegFirstThread\000"
 4568      67466972 
 4568      73745468 
 4568      72656164 
 4568      00
 4569              	.LASF20:
 4570 01ac 5F5F7763 		.ascii	"__wch\000"
 4570      6800
 4571              	.LASF225:
 4572 01b2 65786974 		.ascii	"exitcode\000"
 4572      636F6465 
 4572      00
 4573              	.LASF5:
 4574 01bb 5F5F7569 		.ascii	"__uint8_t\000"
 4574      6E74385F 
 4574      7400
 4575              	.LASF56:
 4576 01c5 5F66696C 		.ascii	"_file\000"
ARM GAS  C:\Users\RAKIBU~1\AppData\Local\Temp\ccL5M507.s 			page 83


 4576      6500
 4577              	.LASF43:
 4578 01cb 5F6F6E5F 		.ascii	"_on_exit_args\000"
 4578      65786974 
 4578      5F617267 
 4578      7300
 4579              	.LASF114:
 4580 01d9 5F6D6272 		.ascii	"_mbrlen_state\000"
 4580      6C656E5F 
 4580      73746174 
 4580      6500
 4581              	.LASF11:
 4582 01e7 6C6F6E67 		.ascii	"long int\000"
 4582      20696E74 
 4582      00
 4583              	.LASF290:
 4584 01f0 706F7274 		.ascii	"port_unlock\000"
 4584      5F756E6C 
 4584      6F636B00 
 4585              	.LASF125:
 4586 01fc 5F696D70 		.ascii	"_impure_ptr\000"
 4586      7572655F 
 4586      70747200 
 4587              	.LASF83:
 4588 0208 5F726573 		.ascii	"_result_k\000"
 4588      756C745F 
 4588      6B00
 4589              	.LASF53:
 4590 0212 5F73697A 		.ascii	"_size\000"
 4590      6500
 4591              	.LASF236:
 4592 0218 7A65726F 		.ascii	"zero\000"
 4592      00
 4593              	.LASF104:
 4594 021d 5F6C6F63 		.ascii	"_localtime_buf\000"
 4594      616C7469 
 4594      6D655F62 
 4594      756600
 4595              	.LASF135:
 4596 022c 74737461 		.ascii	"tstate_t\000"
 4596      74655F74 
 4596      00
 4597              	.LASF133:
 4598 0235 72747469 		.ascii	"rttime_t\000"
 4598      6D655F74 
 4598      00
 4599              	.LASF164:
 4600 023e 74687265 		.ascii	"threads_queue_t\000"
 4600      6164735F 
 4600      71756575 
 4600      655F7400 
 4601              	.LASF196:
 4602 024e 72656761 		.ascii	"regarm_t\000"
 4602      726D5F74 
 4602      00
 4603              	.LASF38:
 4604 0257 5F5F746D 		.ascii	"__tm_mon\000"
ARM GAS  C:\Users\RAKIBU~1\AppData\Local\Temp\ccL5M507.s 			page 84


 4604      5F6D6F6E 
 4604      00
 4605              	.LASF286:
 4606 0260 63685265 		.ascii	"chRegGetThreadNameX\000"
 4606      67476574 
 4606      54687265 
 4606      61644E61 
 4606      6D655800 
 4607              	.LASF272:
 4608 0274 6F626A5F 		.ascii	"obj_pool\000"
 4608      706F6F6C 
 4608      00
 4609              	.LASF299:
 4610 027d 5F737461 		.ascii	"_stats_stop_measure_crit_thd\000"
 4610      74735F73 
 4610      746F705F 
 4610      6D656173 
 4610      7572655F 
 4611              	.LASF101:
 4612 029a 5F756E75 		.ascii	"_unused_rand\000"
 4612      7365645F 
 4612      72616E64 
 4612      00
 4613              	.LASF259:
 4614 02a7 6D656D63 		.ascii	"memcore_t\000"
 4614      6F72655F 
 4614      7400
 4615              	.LASF3:
 4616 02b1 7369676E 		.ascii	"signed char\000"
 4616      65642063 
 4616      68617200 
 4617              	.LASF230:
 4618 02bd 65776D61 		.ascii	"ewmask\000"
 4618      736B00
 4619              	.LASF127:
 4620 02c4 75696E74 		.ascii	"uint8_t\000"
 4620      385F7400 
 4621              	.LASF207:
 4622 02cc 63685F74 		.ascii	"ch_trace_event_t\000"
 4622      72616365 
 4622      5F657665 
 4622      6E745F74 
 4622      00
 4623              	.LASF139:
 4624 02dd 6576656E 		.ascii	"eventmask_t\000"
 4624      746D6173 
 4624      6B5F7400 
 4625              	.LASF226:
 4626 02e9 77747472 		.ascii	"wttrp\000"
 4626      7000
 4627              	.LASF282:
 4628 02ef 63685265 		.ascii	"chRegFindThreadByPointer\000"
 4628      6746696E 
 4628      64546872 
 4628      65616442 
 4628      79506F69 
 4629              	.LASF6:
ARM GAS  C:\Users\RAKIBU~1\AppData\Local\Temp\ccL5M507.s 			page 85


 4630 0308 756E7369 		.ascii	"unsigned char\000"
 4630      676E6564 
 4630      20636861 
 4630      7200
 4631              	.LASF177:
 4632 0316 6C617374 		.ascii	"lasttime\000"
 4632      74696D65 
 4632      00
 4633              	.LASF303:
 4634 031f 2E2E2F2E 		.ascii	"../../../ChibiOSRepo/chibios191/os/rt/src/chregistr"
 4634      2E2F2E2E 
 4634      2F436869 
 4634      62694F53 
 4634      5265706F 
 4635 0352 792E6300 		.ascii	"y.c\000"
 4636              	.LASF180:
 4637 0356 70616E69 		.ascii	"panic_msg\000"
 4637      635F6D73 
 4637      6700
 4638              	.LASF78:
 4639 0360 5F756E73 		.ascii	"_unspecified_locale_info\000"
 4639      70656369 
 4639      66696564 
 4639      5F6C6F63 
 4639      616C655F 
 4640              	.LASF71:
 4641 0379 5F726565 		.ascii	"_reent\000"
 4641      6E7400
 4642              	.LASF126:
 4643 0380 5F676C6F 		.ascii	"_global_impure_ptr\000"
 4643      62616C5F 
 4643      696D7075 
 4643      72655F70 
 4643      747200
 4644              	.LASF178:
 4645 0393 73797374 		.ascii	"system_debug_t\000"
 4645      656D5F64 
 4645      65627567 
 4645      5F7400
 4646              	.LASF296:
 4647 03a2 5F737461 		.ascii	"_stats_start_measure_crit_thd\000"
 4647      74735F73 
 4647      74617274 
 4647      5F6D6561 
 4647      73757265 
 4648              	.LASF255:
 4649 03c0 5F426F6F 		.ascii	"_Bool\000"
 4649      6C00
 4650              	.LASF26:
 4651 03c6 63686172 		.ascii	"char\000"
 4651      00
 4652              	.LASF50:
 4653 03cb 5F666E73 		.ascii	"_fns\000"
 4653      00
 4654              	.LASF62:
 4655 03d0 5F636C6F 		.ascii	"_close\000"
 4655      736500
ARM GAS  C:\Users\RAKIBU~1\AppData\Local\Temp\ccL5M507.s 			page 86


 4656              	.LASF274:
 4657 03d7 73656D5F 		.ascii	"sem_list\000"
 4657      6C697374 
 4657      00
 4658              	.LASF8:
 4659 03e0 5F5F7569 		.ascii	"__uint16_t\000"
 4659      6E743136 
 4659      5F7400
 4660              	.LASF200:
 4661 03eb 77746F62 		.ascii	"wtobjp\000"
 4661      6A7000
 4662              	.LASF220:
 4663 03f2 6E5F6374 		.ascii	"n_ctxswc\000"
 4663      78737763 
 4663      00
 4664              	.LASF73:
 4665 03fb 5F737464 		.ascii	"_stdin\000"
 4665      696E00
 4666              	.LASF249:
 4667 0402 6F66665F 		.ascii	"off_refs\000"
 4667      72656673 
 4667      00
 4668              	.LASF151:
 4669 040b 666C6167 		.ascii	"flags\000"
 4669      7300
 4670              	.LASF197:
 4671 0411 73746B61 		.ascii	"stkalign_t\000"
 4671      6C69676E 
 4671      5F7400
 4672              	.LASF295:
 4673 041c 73747263 		.ascii	"strcmp\000"
 4673      6D7000
 4674              	.LASF158:
 4675 0423 6D706F6F 		.ascii	"mpool\000"
 4675      6C00
 4676              	.LASF215:
 4677 0429 776F7273 		.ascii	"worst\000"
 4677      7400
 4678              	.LASF238:
 4679 042f 70747273 		.ascii	"ptrsize\000"
 4679      697A6500 
 4680              	.LASF251:
 4681 0437 6F66665F 		.ascii	"off_time\000"
 4681      74696D65 
 4681      00
 4682              	.LASF140:
 4683 0440 636E745F 		.ascii	"cnt_t\000"
 4683      7400
 4684              	.LASF183:
 4685 0446 74726163 		.ascii	"trace_buffer\000"
 4685      655F6275 
 4685      66666572 
 4685      00
 4686              	.LASF278:
 4687 0453 70697065 		.ascii	"pipe_list\000"
 4687      5F6C6973 
 4687      7400
ARM GAS  C:\Users\RAKIBU~1\AppData\Local\Temp\ccL5M507.s 			page 87


 4688              	.LASF210:
 4689 045d 62756666 		.ascii	"buffer\000"
 4689      657200
 4690              	.LASF58:
 4691 0464 5F636F6F 		.ascii	"_cookie\000"
 4691      6B696500 
 4692              	.LASF211:
 4693 046c 63685F74 		.ascii	"ch_trace_buffer_t\000"
 4693      72616365 
 4693      5F627566 
 4693      6665725F 
 4693      7400
 4694              	.LASF229:
 4695 047e 77746D74 		.ascii	"wtmtxp\000"
 4695      787000
 4696              	.LASF31:
 4697 0485 5F776473 		.ascii	"_wds\000"
 4697      00
 4698              	.LASF168:
 4699 048a 63685F72 		.ascii	"ch_ready_list\000"
 4699      65616479 
 4699      5F6C6973 
 4699      7400
 4700              	.LASF123:
 4701 0498 5F5F6C6F 		.ascii	"__lock\000"
 4701      636B00
 4702              	.LASF90:
 4703 049f 5F736967 		.ascii	"_sig_func\000"
 4703      5F66756E 
 4703      6300
 4704              	.LASF275:
 4705 04a9 73656D5F 		.ascii	"sem_pool\000"
 4705      706F6F6C 
 4705      00
 4706              	.LASF66:
 4707 04b2 5F6F6666 		.ascii	"_offset\000"
 4707      73657400 
 4708              	.LASF87:
 4709 04ba 5F637674 		.ascii	"_cvtbuf\000"
 4709      62756600 
 4710              	.LASF217:
 4711 04c2 63756D75 		.ascii	"cumulative\000"
 4711      6C617469 
 4711      766500
 4712              	.LASF257:
 4713 04cd 6E657874 		.ascii	"nextmem\000"
 4713      6D656D00 
 4714              	.LASF302:
 4715 04d5 474E5520 		.ascii	"GNU C11 7.2.1 20170904 (release) [ARM/embedded-7-br"
 4715      43313120 
 4715      372E322E 
 4715      31203230 
 4715      31373039 
 4716 0508 616E6368 		.ascii	"anch revision 255204] -mcpu=cortex-m4 -mthumb -ggdb"
 4716      20726576 
 4716      6973696F 
 4716      6E203235 
ARM GAS  C:\Users\RAKIBU~1\AppData\Local\Temp\ccL5M507.s 			page 88


 4716      35323034 
 4717 053b 202D4F67 		.ascii	" -Og -fomit-frame-pointer -falign-functions=16\000"
 4717      202D666F 
 4717      6D69742D 
 4717      6672616D 
 4717      652D706F 
 4718              	.LASF221:
 4719 056a 6D5F6372 		.ascii	"m_crit_thd\000"
 4719      69745F74 
 4719      686400
 4720              	.LASF14:
 4721 0575 5F5F7569 		.ascii	"__uint64_t\000"
 4721      6E743634 
 4721      5F7400
 4722              	.LASF247:
 4723 0580 6F66665F 		.ascii	"off_state\000"
 4723      73746174 
 4723      6500
 4724              	.LASF292:
 4725 058a 63685379 		.ascii	"chSysUnlock\000"
 4725      73556E6C 
 4725      6F636B00 
 4726              	.LASF84:
 4727 0596 5F703573 		.ascii	"_p5s\000"
 4727      00
 4728              	.LASF13:
 4729 059b 6C6F6E67 		.ascii	"long unsigned int\000"
 4729      20756E73 
 4729      69676E65 
 4729      6420696E 
 4729      7400
 4730              	.LASF240:
 4731 05ad 74687265 		.ascii	"threadsize\000"
 4731      61647369 
 4731      7A6500
 4732              	.LASF289:
 4733 05b8 63685379 		.ascii	"chSysLock\000"
 4733      734C6F63 
 4733      6B00
 4734              	.LASF54:
 4735 05c2 5F5F7346 		.ascii	"__sFILE\000"
 4735      494C4500 
 4736              	.LASF80:
 4737 05ca 5F5F7364 		.ascii	"__sdidinit\000"
 4737      6964696E 
 4737      697400
 4738              	.LASF70:
 4739 05d5 5F666C61 		.ascii	"_flags2\000"
 4739      67733200 
 4740              	.LASF193:
 4741 05dd 53797374 		.ascii	"SystemCoreClock\000"
 4741      656D436F 
 4741      7265436C 
 4741      6F636B00 
 4742              	.LASF231:
 4743 05ed 63685F73 		.ascii	"ch_semaphore\000"
 4743      656D6170 
ARM GAS  C:\Users\RAKIBU~1\AppData\Local\Temp\ccL5M507.s 			page 89


 4743      686F7265 
 4743      00
 4744              	.LASF143:
 4745 05fa 63685F74 		.ascii	"ch_thread\000"
 4745      68726561 
 4745      6400
 4746              	.LASF175:
 4747 0604 76697274 		.ascii	"virtual_timers_list_t\000"
 4747      75616C5F 
 4747      74696D65 
 4747      72735F6C 
 4747      6973745F 
 4748              	.LASF234:
 4749 061a 63685F69 		.ascii	"ch_idle_thread_wa\000"
 4749      646C655F 
 4749      74687265 
 4749      61645F77 
 4749      6100
 4750              	.LASF72:
 4751 062c 5F657272 		.ascii	"_errno\000"
 4751      6E6F00
 4752              	.LASF277:
 4753 0633 6669666F 		.ascii	"fifo_list\000"
 4753      5F6C6973 
 4753      7400
 4754              	.LASF171:
 4755 063d 76697274 		.ascii	"virtual_timer_t\000"
 4755      75616C5F 
 4755      74696D65 
 4755      725F7400 
 4756              	.LASF167:
 4757 064d 72656164 		.ascii	"ready_list_t\000"
 4757      795F6C69 
 4757      73745F74 
 4757      00
 4758              	.LASF147:
 4759 065a 6F6C6465 		.ascii	"older\000"
 4759      7200
 4760              	.LASF112:
 4761 0660 5F736967 		.ascii	"_signal_buf\000"
 4761      6E616C5F 
 4761      62756600 
 4762              	.LASF157:
 4763 066c 7265616C 		.ascii	"realprio\000"
 4763      7072696F 
 4763      00
 4764              	.LASF141:
 4765 0675 75636E74 		.ascii	"ucnt_t\000"
 4765      5F7400
 4766              	.LASF246:
 4767 067c 6F66665F 		.ascii	"off_stklimit\000"
 4767      73746B6C 
 4767      696D6974 
 4767      00
 4768              	.LASF261:
 4769 0689 706F6F6C 		.ascii	"pool_header\000"
 4769      5F686561 
ARM GAS  C:\Users\RAKIBU~1\AppData\Local\Temp\ccL5M507.s 			page 90


 4769      64657200 
 4770              	.LASF32:
 4771 0695 5F426967 		.ascii	"_Bigint\000"
 4771      696E7400 
 4772              	.LASF162:
 4773 069d 63685F74 		.ascii	"ch_threads_list\000"
 4773      68726561 
 4773      64735F6C 
 4773      69737400 
 4774              	.LASF29:
 4775 06ad 5F6D6178 		.ascii	"_maxwds\000"
 4775      77647300 
 4776              	.LASF219:
 4777 06b5 6E5F6972 		.ascii	"n_irq\000"
 4777      7100
 4778              	.LASF81:
 4779 06bb 5F5F636C 		.ascii	"__cleanup\000"
 4779      65616E75 
 4779      7000
 4780              	.LASF280:
 4781 06c5 63685F66 		.ascii	"ch_factory\000"
 4781      6163746F 
 4781      727900
 4782              	.LASF89:
 4783 06d0 5F617465 		.ascii	"_atexit0\000"
 4783      78697430 
 4783      00
 4784              	.LASF12:
 4785 06d9 5F5F7569 		.ascii	"__uint32_t\000"
 4785      6E743332 
 4785      5F7400
 4786              	.LASF77:
 4787 06e4 5F656D65 		.ascii	"_emergency\000"
 4787      7267656E 
 4787      637900
 4788              	.LASF156:
 4789 06ef 6D74786C 		.ascii	"mtxlist\000"
 4789      69737400 
 4790              	.LASF1:
 4791 06f7 6C6F6E67 		.ascii	"long long int\000"
 4791      206C6F6E 
 4791      6720696E 
 4791      7400
 4792              	.LASF191:
 4793 0705 73797369 		.ascii	"sysinterval_t\000"
 4793      6E746572 
 4793      76616C5F 
 4793      7400
 4794              	.LASF95:
 4795 0713 5F6E696F 		.ascii	"_niobs\000"
 4795      627300
 4796              	.LASF270:
 4797 071a 63685F6F 		.ascii	"ch_objects_factory\000"
 4797      626A6563 
 4797      74735F66 
 4797      6163746F 
 4797      727900
ARM GAS  C:\Users\RAKIBU~1\AppData\Local\Temp\ccL5M507.s 			page 91


 4798              	.LASF91:
 4799 072d 5F5F7367 		.ascii	"__sglue\000"
 4799      6C756500 
 4800              	.LASF121:
 4801 0735 5F6E6D61 		.ascii	"_nmalloc\000"
 4801      6C6C6F63 
 4801      00
 4802              	.LASF105:
 4803 073e 5F67616D 		.ascii	"_gamma_signgam\000"
 4803      6D615F73 
 4803      69676E67 
 4803      616D00
 4804              	.LASF85:
 4805 074d 5F667265 		.ascii	"_freelist\000"
 4805      656C6973 
 4805      7400
 4806              	.LASF96:
 4807 0757 5F696F62 		.ascii	"_iobs\000"
 4807      7300
 4808              	.LASF263:
 4809 075d 616C6967 		.ascii	"align\000"
 4809      6E00
 4810              	.LASF94:
 4811 0763 5F676C75 		.ascii	"_glue\000"
 4811      6500
 4812              	.LASF192:
 4813 0769 49544D5F 		.ascii	"ITM_RxBuffer\000"
 4813      52784275 
 4813      66666572 
 4813      00
 4814              	.LASF30:
 4815 0776 5F736967 		.ascii	"_sign\000"
 4815      6E00
 4816              	.LASF243:
 4817 077c 6F66665F 		.ascii	"off_newer\000"
 4817      6E657765 
 4817      7200
 4818              	.LASF222:
 4819 0786 6D5F6372 		.ascii	"m_crit_isr\000"
 4819      69745F69 
 4819      737200
 4820              	.LASF0:
 4821 0791 756E7369 		.ascii	"unsigned int\000"
 4821      676E6564 
 4821      20696E74 
 4821      00
 4822              	.LASF132:
 4823 079e 7274636E 		.ascii	"rtcnt_t\000"
 4823      745F7400 
 4824              	.LASF152:
 4825 07a6 72656673 		.ascii	"refs\000"
 4825      00
 4826              	.LASF119:
 4827 07ab 5F685F65 		.ascii	"_h_errno\000"
 4827      72726E6F 
 4827      00
 4828              	.LASF117:
ARM GAS  C:\Users\RAKIBU~1\AppData\Local\Temp\ccL5M507.s 			page 92


 4829 07b4 5F776372 		.ascii	"_wcrtomb_state\000"
 4829      746F6D62 
 4829      5F737461 
 4829      746500
 4830              	.LASF37:
 4831 07c3 5F5F746D 		.ascii	"__tm_mday\000"
 4831      5F6D6461 
 4831      7900
 4832              	.LASF223:
 4833 07cd 6B65726E 		.ascii	"kernel_stats_t\000"
 4833      656C5F73 
 4833      74617473 
 4833      5F7400
 4834              	.LASF88:
 4835 07dc 5F6E6577 		.ascii	"_new\000"
 4835      00
 4836              	.LASF63:
 4837 07e1 5F756275 		.ascii	"_ubuf\000"
 4837      6600
 4838              	.LASF75:
 4839 07e7 5F737464 		.ascii	"_stderr\000"
 4839      65727200 
 4840              	.LASF110:
 4841 07ef 5F776374 		.ascii	"_wctomb_state\000"
 4841      6F6D625F 
 4841      73746174 
 4841      6500
 4842              	.LASF69:
 4843 07fd 5F6D6273 		.ascii	"_mbstate\000"
 4843      74617465 
 4843      00
 4844              	.LASF169:
 4845 0806 63757272 		.ascii	"current\000"
 4845      656E7400 
 4846              	.LASF106:
 4847 080e 5F72616E 		.ascii	"_rand_next\000"
 4847      645F6E65 
 4847      787400
 4848              	.LASF55:
 4849 0819 5F666C61 		.ascii	"_flags\000"
 4849      677300
 4850              	.LASF212:
 4851 0820 6F666673 		.ascii	"offset\000"
 4851      657400
 4852              	.LASF160:
 4853 0827 74687265 		.ascii	"thread_reference_t\000"
 4853      61645F72 
 4853      65666572 
 4853      656E6365 
 4853      5F7400
 4854              	.LASF48:
 4855 083a 5F617465 		.ascii	"_atexit\000"
 4855      78697400 
 4856              	.LASF22:
 4857 0842 5F5F636F 		.ascii	"__count\000"
 4857      756E7400 
 4858              	.LASF256:
ARM GAS  C:\Users\RAKIBU~1\AppData\Local\Temp\ccL5M507.s 			page 93


 4859 084a 6D656D67 		.ascii	"memgetfunc_t\000"
 4859      65746675 
 4859      6E635F74 
 4859      00
 4860              	.LASF40:
 4861 0857 5F5F746D 		.ascii	"__tm_wday\000"
 4861      5F776461 
 4861      7900
 4862              	.LASF142:
 4863 0861 74687265 		.ascii	"thread_t\000"
 4863      61645F74 
 4863      00
 4864              	.LASF2:
 4865 086a 6C6F6E67 		.ascii	"long double\000"
 4865      20646F75 
 4865      626C6500 
 4866              	.LASF41:
 4867 0876 5F5F746D 		.ascii	"__tm_yday\000"
 4867      5F796461 
 4867      7900
 4868              	.LASF227:
 4869 0880 73656E74 		.ascii	"sentmsg\000"
 4869      6D736700 
 4870              	.LASF199:
 4871 0888 706F7274 		.ascii	"port_intctx\000"
 4871      5F696E74 
 4871      63747800 
 4872              	.LASF279:
 4873 0894 6F626A65 		.ascii	"objects_factory_t\000"
 4873      6374735F 
 4873      66616374 
 4873      6F72795F 
 4873      7400
 4874              	.LASF98:
 4875 08a6 5F736565 		.ascii	"_seed\000"
 4875      6400
 4876              	.LASF273:
 4877 08ac 6275665F 		.ascii	"buf_list\000"
 4877      6C697374 
 4877      00
 4878              	.LASF61:
 4879 08b5 5F736565 		.ascii	"_seek\000"
 4879      6B00
 4880              	.LASF181:
 4881 08bb 6973725F 		.ascii	"isr_cnt\000"
 4881      636E7400 
 4882              	.LASF18:
 4883 08c3 5F66706F 		.ascii	"_fpos_t\000"
 4883      735F7400 
 4884              	.LASF21:
 4885 08cb 5F5F7763 		.ascii	"__wchb\000"
 4885      686200
 4886              	.LASF281:
 4887 08d2 63685265 		.ascii	"chRegFindThreadByWorkingArea\000"
 4887      6746696E 
 4887      64546872 
 4887      65616442 
ARM GAS  C:\Users\RAKIBU~1\AppData\Local\Temp\ccL5M507.s 			page 94


 4887      79576F72 
 4888              	.LASF194:
 4889 08ef 41484250 		.ascii	"AHBPrescTable\000"
 4889      72657363 
 4889      5461626C 
 4889      6500
 4890              	.LASF172:
 4891 08fd 63685F76 		.ascii	"ch_virtual_timer\000"
 4891      69727475 
 4891      616C5F74 
 4891      696D6572 
 4891      00
 4892              	.LASF109:
 4893 090e 5F6D6274 		.ascii	"_mbtowc_state\000"
 4893      6F77635F 
 4893      73746174 
 4893      6500
 4894              	.LASF189:
 4895 091c 6B65726E 		.ascii	"kernel_stats\000"
 4895      656C5F73 
 4895      74617473 
 4895      00
 4896              	.LASF209:
 4897 0929 73697A65 		.ascii	"size\000"
 4897      00
 4898              	.LASF15:
 4899 092e 6C6F6E67 		.ascii	"long long unsigned int\000"
 4899      206C6F6E 
 4899      6720756E 
 4899      7369676E 
 4899      65642069 
 4900              	.LASF128:
 4901 0945 75696E74 		.ascii	"uint16_t\000"
 4901      31365F74 
 4901      00
 4902              	.LASF245:
 4903 094e 6F66665F 		.ascii	"off_name\000"
 4903      6E616D65 
 4903      00
 4904              	.LASF45:
 4905 0957 5F64736F 		.ascii	"_dso_handle\000"
 4905      5F68616E 
 4905      646C6500 
 4906              	.LASF138:
 4907 0963 6D73675F 		.ascii	"msg_t\000"
 4907      7400
 4908              	.LASF165:
 4909 0969 63685F74 		.ascii	"ch_threads_queue\000"
 4909      68726561 
 4909      64735F71 
 4909      75657565 
 4909      00
 4910              	.LASF97:
 4911 097a 5F72616E 		.ascii	"_rand48\000"
 4911      64343800 
 4912              	.LASF74:
 4913 0982 5F737464 		.ascii	"_stdout\000"
ARM GAS  C:\Users\RAKIBU~1\AppData\Local\Temp\ccL5M507.s 			page 95


 4913      6F757400 
 4914              	.LASF173:
 4915 098a 64656C74 		.ascii	"delta\000"
 4915      6100
 4916              	.LASF65:
 4917 0990 5F626C6B 		.ascii	"_blksize\000"
 4917      73697A65 
 4917      00
 4918              	.LASF52:
 4919 0999 5F626173 		.ascii	"_base\000"
 4919      6500
 4920              	.LASF144:
 4921 099f 71756575 		.ascii	"queue\000"
 4921      6500
 4922              	.LASF155:
 4923 09a5 6570656E 		.ascii	"epending\000"
 4923      64696E67 
 4923      00
 4924              	.LASF201:
 4925 09ae 72656173 		.ascii	"reason\000"
 4925      6F6E00
 4926              	.LASF102:
 4927 09b5 5F737472 		.ascii	"_strtok_last\000"
 4927      746F6B5F 
 4927      6C617374 
 4927      00
 4928              	.LASF304:
 4929 09c2 433A5C55 		.ascii	"C:\\Users\\RakibulChowdhury\\OneDrive - DIAS Geophy"
 4929      73657273 
 4929      5C52616B 
 4929      6962756C 
 4929      43686F77 
 4930 09f2 73696361 		.ascii	"sical\\Dias32FirmwareDevelopment\\FirmwareRepo\\Dia"
 4930      6C5C4469 
 4930      61733332 
 4930      4669726D 
 4930      77617265 
 4931 0a22 73333257 		.ascii	"s32Workspace\\DIAS-Gen2-testing\000"
 4931      6F726B73 
 4931      70616365 
 4931      5C444941 
 4931      532D4765 
 4932              	.LASF297:
 4933 0a41 5F646267 		.ascii	"_dbg_check_lock\000"
 4933      5F636865 
 4933      636B5F6C 
 4933      6F636B00 
 4934              	.LASF115:
 4935 0a51 5F6D6272 		.ascii	"_mbrtowc_state\000"
 4935      746F7763 
 4935      5F737461 
 4935      746500
 4936              	.LASF276:
 4937 0a60 6D62785F 		.ascii	"mbx_list\000"
 4937      6C697374 
 4937      00
 4938              	.LASF188:
ARM GAS  C:\Users\RAKIBU~1\AppData\Local\Temp\ccL5M507.s 			page 96


 4939 0a69 6D61696E 		.ascii	"mainthread\000"
 4939      74687265 
 4939      616400
 4940              	.LASF25:
 4941 0a74 5F666C6F 		.ascii	"_flock_t\000"
 4941      636B5F74 
 4941      00
 4942              	.LASF237:
 4943 0a7d 76657273 		.ascii	"version\000"
 4943      696F6E00 
 4944              	.LASF93:
 4945 0a85 5F5F4649 		.ascii	"__FILE\000"
 4945      4C4500
 4946              	.LASF202:
 4947 0a8c 68616C74 		.ascii	"halt\000"
 4947      00
 4948              	.LASF293:
 4949 0a91 5F5F7365 		.ascii	"__set_BASEPRI\000"
 4949      745F4241 
 4949      53455052 
 4949      4900
 4950              	.LASF214:
 4951 0a9f 62657374 		.ascii	"best\000"
 4951      00
 4952              	.LASF24:
 4953 0aa4 5F6D6273 		.ascii	"_mbstate_t\000"
 4953      74617465 
 4953      5F7400
 4954              	.LASF107:
 4955 0aaf 5F723438 		.ascii	"_r48\000"
 4955      00
 4956              	.LASF149:
 4957 0ab4 77616261 		.ascii	"wabase\000"
 4957      736500
 4958              	.LASF19:
 4959 0abb 77696E74 		.ascii	"wint_t\000"
 4959      5F7400
 4960              	.LASF265:
 4961 0ac2 6D656D6F 		.ascii	"memory_pool_t\000"
 4961      72795F70 
 4961      6F6F6C5F 
 4961      7400
 4962              	.LASF28:
 4963 0ad0 5F6E6578 		.ascii	"_next\000"
 4963      7400
 4964              	.LASF67:
 4965 0ad6 5F646174 		.ascii	"_data\000"
 4965      6100
 4966              	.LASF186:
 4967 0adc 726C6973 		.ascii	"rlist\000"
 4967      7400
 4968              	.LASF134:
 4969 0ae2 746D6F64 		.ascii	"tmode_t\000"
 4969      655F7400 
 4970              	.LASF208:
 4971 0aea 73757370 		.ascii	"suspended\000"
 4971      656E6465 
ARM GAS  C:\Users\RAKIBU~1\AppData\Local\Temp\ccL5M507.s 			page 97


 4971      6400
 4972              	.LASF213:
 4973 0af4 746D5F63 		.ascii	"tm_calibration_t\000"
 4973      616C6962 
 4973      72617469 
 4973      6F6E5F74 
 4973      00
 4974              	.LASF148:
 4975 0b05 6E616D65 		.ascii	"name\000"
 4975      00
 4976              	.LASF291:
 4977 0b0a 706F7274 		.ascii	"port_lock\000"
 4977      5F6C6F63 
 4977      6B00
 4978              	.LASF195:
 4979 0b14 41504250 		.ascii	"APBPrescTable\000"
 4979      72657363 
 4979      5461626C 
 4979      6500
 4980              	.LASF108:
 4981 0b22 5F6D626C 		.ascii	"_mblen_state\000"
 4981      656E5F73 
 4981      74617465 
 4981      00
 4982              	.LASF7:
 4983 0b2f 73686F72 		.ascii	"short int\000"
 4983      7420696E 
 4983      7400
 4984              	.LASF131:
 4985 0b39 75696E74 		.ascii	"uint64_t\000"
 4985      36345F74 
 4985      00
 4986              	.LASF174:
 4987 0b42 66756E63 		.ascii	"func\000"
 4987      00
 4988              	.LASF283:
 4989 0b47 63685265 		.ascii	"chRegFindThreadByName\000"
 4989      6746696E 
 4989      64546872 
 4989      65616442 
 4989      794E616D 
 4990              	.LASF232:
 4991 0b5d 63685F6D 		.ascii	"ch_mutex\000"
 4991      75746578 
 4991      00
 4992              	.LASF154:
 4993 0b66 6D736771 		.ascii	"msgqueue\000"
 4993      75657565 
 4993      00
 4994              	.LASF46:
 4995 0b6f 5F666E74 		.ascii	"_fntypes\000"
 4995      79706573 
 4995      00
 4996              	.LASF179:
 4997 0b78 63685F73 		.ascii	"ch_system_debug\000"
 4997      79737465 
 4997      6D5F6465 
ARM GAS  C:\Users\RAKIBU~1\AppData\Local\Temp\ccL5M507.s 			page 98


 4997      62756700 
 4998              	.LASF269:
 4999 0b88 64796E5F 		.ascii	"dyn_list_t\000"
 4999      6C697374 
 4999      5F7400
 5000              	.LASF39:
 5001 0b93 5F5F746D 		.ascii	"__tm_year\000"
 5001      5F796561 
 5001      7200
 5002              	.LASF262:
 5003 0b9d 6F626A65 		.ascii	"object_size\000"
 5003      63745F73 
 5003      697A6500 
 5004              	.LASF57:
 5005 0ba9 5F6C6266 		.ascii	"_lbfsize\000"
 5005      73697A65 
 5005      00
 5006              	.LASF187:
 5007 0bb2 76746C69 		.ascii	"vtlist\000"
 5007      737400
 5008              	.LASF76:
 5009 0bb9 5F696E63 		.ascii	"_inc\000"
 5009      00
 5010              	.LASF49:
 5011 0bbe 5F696E64 		.ascii	"_ind\000"
 5011      00
 5012              	.LASF153:
 5013 0bc3 77616974 		.ascii	"waiting\000"
 5013      696E6700 
 5014              	.LASF300:
 5015 0bcb 63685379 		.ascii	"chSysHalt\000"
 5015      7348616C 
 5015      7400
 5016              	.LASF51:
 5017 0bd5 5F5F7362 		.ascii	"__sbuf\000"
 5017      756600
 5018              	.LASF267:
 5019 0bdc 64796E5F 		.ascii	"dyn_element_t\000"
 5019      656C656D 
 5019      656E745F 
 5019      7400
 5020              	.LASF47:
 5021 0bea 5F69735F 		.ascii	"_is_cxa\000"
 5021      63786100 
 5022              	.LASF16:
 5023 0bf2 5F4C4F43 		.ascii	"_LOCK_T\000"
 5023      4B5F5400 
 5024              	.LASF254:
 5025 0bfa 6D757465 		.ascii	"mutex_t\000"
 5025      785F7400 
 5026              	.LASF136:
 5027 0c02 74726566 		.ascii	"trefs_t\000"
 5027      735F7400 
 5028              	.LASF120:
 5029 0c0a 5F6E6578 		.ascii	"_nextf\000"
 5029      746600
 5030              	.LASF198:
ARM GAS  C:\Users\RAKIBU~1\AppData\Local\Temp\ccL5M507.s 			page 99


 5031 0c11 706F7274 		.ascii	"port_context\000"
 5031      5F636F6E 
 5031      74657874 
 5031      00
 5032              	.LASF161:
 5033 0c1e 74687265 		.ascii	"threads_list_t\000"
 5033      6164735F 
 5033      6C697374 
 5033      5F7400
 5034              	.LASF185:
 5035 0c2d 63685F73 		.ascii	"ch_system\000"
 5035      79737465 
 5035      6D00
 5036              	.LASF79:
 5037 0c37 5F6C6F63 		.ascii	"_locale\000"
 5037      616C6500 
 5038              	.LASF27:
 5039 0c3f 5F5F554C 		.ascii	"__ULong\000"
 5039      6F6E6700 
 5040              	.LASF146:
 5041 0c47 6E657765 		.ascii	"newer\000"
 5041      7200
 5042              	.LASF130:
 5043 0c4d 75696E74 		.ascii	"uint32_t\000"
 5043      33325F74 
 5043      00
 5044              	.LASF82:
 5045 0c56 5F726573 		.ascii	"_result\000"
 5045      756C7400 
 5046              	.LASF17:
 5047 0c5e 5F6F6666 		.ascii	"_off_t\000"
 5047      5F7400
 5048              	.LASF224:
 5049 0c65 7264796D 		.ascii	"rdymsg\000"
 5049      736700
 5050              	.LASF100:
 5051 0c6c 5F616464 		.ascii	"_add\000"
 5051      00
 5052              	.LASF9:
 5053 0c71 73686F72 		.ascii	"short unsigned int\000"
 5053      7420756E 
 5053      7369676E 
 5053      65642069 
 5053      6E7400
 5054              	.LASF36:
 5055 0c84 5F5F746D 		.ascii	"__tm_hour\000"
 5055      5F686F75 
 5055      7200
 5056              	.LASF184:
 5057 0c8e 63685F73 		.ascii	"ch_system_t\000"
 5057      79737465 
 5057      6D5F7400 
 5058              	.LASF252:
 5059 0c9a 63686465 		.ascii	"chdebug_t\000"
 5059      6275675F 
 5059      7400
 5060              	.LASF287:
ARM GAS  C:\Users\RAKIBU~1\AppData\Local\Temp\ccL5M507.s 			page 100


 5061 0ca4 63685468 		.ascii	"chThdGetWorkingAreaX\000"
 5061      64476574 
 5061      576F726B 
 5061      696E6741 
 5061      72656158 
 5062              	.LASF116:
 5063 0cb9 5F6D6273 		.ascii	"_mbsrtowcs_state\000"
 5063      72746F77 
 5063      63735F73 
 5063      74617465 
 5063      00
 5064              	.LASF166:
 5065 0cca 70726576 		.ascii	"prev\000"
 5065      00
 5066              	.LASF206:
 5067 0ccf 74696D65 		.ascii	"time\000"
 5067      00
 5068              	.LASF10:
 5069 0cd4 5F5F696E 		.ascii	"__int32_t\000"
 5069      7433325F 
 5069      7400
 5070              	.LASF260:
 5071 0cde 63685F6D 		.ascii	"ch_memcore\000"
 5071      656D636F 
 5071      726500
 5072              	.LASF248:
 5073 0ce9 6F66665F 		.ascii	"off_flags\000"
 5073      666C6167 
 5073      7300
 5074              	.LASF44:
 5075 0cf3 5F666E61 		.ascii	"_fnargs\000"
 5075      72677300 
 5076              	.LASF42:
 5077 0cfb 5F5F746D 		.ascii	"__tm_isdst\000"
 5077      5F697364 
 5077      737400
 5078              	.LASF163:
 5079 0d06 6E657874 		.ascii	"next\000"
 5079      00
 5080              	.LASF35:
 5081 0d0b 5F5F746D 		.ascii	"__tm_min\000"
 5081      5F6D696E 
 5081      00
 5082              	.LASF268:
 5083 0d14 63685F64 		.ascii	"ch_dyn_list\000"
 5083      796E5F6C 
 5083      69737400 
 5084              	.LASF235:
 5085 0d20 6964656E 		.ascii	"identifier\000"
 5085      74696669 
 5085      657200
 5086              	.LASF113:
 5087 0d2b 5F676574 		.ascii	"_getdate_err\000"
 5087      64617465 
 5087      5F657272 
 5087      00
 5088              	.LASF239:
ARM GAS  C:\Users\RAKIBU~1\AppData\Local\Temp\ccL5M507.s 			page 101


 5089 0d38 74696D65 		.ascii	"timesize\000"
 5089      73697A65 
 5089      00
 5090              	.LASF228:
 5091 0d41 77747365 		.ascii	"wtsemp\000"
 5091      6D7000
 5092              	.LASF216:
 5093 0d48 6C617374 		.ascii	"last\000"
 5093      00
 5094              		.ident	"GCC: (GNU Tools for Arm Embedded Processors 7-2017-q4-major) 7.2.1 20170904 (release) [ARM
ARM GAS  C:\Users\RAKIBU~1\AppData\Local\Temp\ccL5M507.s 			page 102


DEFINED SYMBOLS
                            *ABS*:00000000 chregistry.c
C:\Users\RAKIBU~1\AppData\Local\Temp\ccL5M507.s:15     .text:00000000 $t
C:\Users\RAKIBU~1\AppData\Local\Temp\ccL5M507.s:23     .text:00000000 chRegFirstThread
C:\Users\RAKIBU~1\AppData\Local\Temp\ccL5M507.s:123    .text:00000048 $d
C:\Users\RAKIBU~1\AppData\Local\Temp\ccL5M507.s:130    .text:00000050 $t
C:\Users\RAKIBU~1\AppData\Local\Temp\ccL5M507.s:138    .text:00000050 chRegNextThread
C:\Users\RAKIBU~1\AppData\Local\Temp\ccL5M507.s:264    .text:000000bc $d
C:\Users\RAKIBU~1\AppData\Local\Temp\ccL5M507.s:272    .text:000000c8 $t
C:\Users\RAKIBU~1\AppData\Local\Temp\ccL5M507.s:280    .text:000000d0 chRegFindThreadByName
C:\Users\RAKIBU~1\AppData\Local\Temp\ccL5M507.s:331    .text:00000100 chRegFindThreadByPointer
C:\Users\RAKIBU~1\AppData\Local\Temp\ccL5M507.s:376    .text:00000120 chRegFindThreadByWorkingArea
C:\Users\RAKIBU~1\AppData\Local\Temp\ccL5M507.s:435    .rodata:0000001c ch_debug
C:\Users\RAKIBU~1\AppData\Local\Temp\ccL5M507.s:423    .rodata:00000000 $d
C:\Users\RAKIBU~1\AppData\Local\Temp\ccL5M507.s:427    .rodata:00000000 __func__.6519
C:\Users\RAKIBU~1\AppData\Local\Temp\ccL5M507.s:431    .rodata:0000000c __func__.7513

UNDEFINED SYMBOLS
_stats_start_measure_crit_thd
_dbg_check_lock
_dbg_check_unlock
_stats_stop_measure_crit_thd
chSysHalt
ch
chThdRelease
strcmp
