ARM GAS  C:\Users\RAKIBU~1\AppData\Local\Temp\ccvA68NI.s 			page 1


   1              		.cpu cortex-m4
   2              		.eabi_attribute 20, 1
   3              		.eabi_attribute 21, 1
   4              		.eabi_attribute 23, 3
   5              		.eabi_attribute 24, 1
   6              		.eabi_attribute 25, 1
   7              		.eabi_attribute 26, 1
   8              		.eabi_attribute 30, 1
   9              		.eabi_attribute 34, 1
  10              		.eabi_attribute 18, 4
  11              		.file	"chschd.c"
  12              		.text
  13              	.Ltext0:
  14              		.cfi_sections	.debug_frame
  15              		.align	1
  16              		.p2align 4,,15
  17              		.global	_scheduler_init
  18              		.syntax unified
  19              		.thumb
  20              		.thumb_func
  21              		.fpu softvfp
  22              		.type	_scheduler_init, %function
  23              	_scheduler_init:
  24              	.LFB295:
  25              		.file 1 "../../../ChibiOSRepo/chibios191/os/rt/src/chschd.c"
  26              		.loc 1 65 0
  27              		.cfi_startproc
  28              		@ args = 0, pretend = 0, frame = 0
  29              		@ frame_needed = 0, uses_anonymous_args = 0
  30              		@ link register save eliminated.
  31              	.LVL0:
  32              	.LBB88:
  33              	.LBB89:
  34              		.file 2 "../../../ChibiOSRepo/chibios191/os/rt/include/chschd.h"
  35              		.loc 2 539 0
  36 0000 034B     		ldr	r3, .L2
  37 0002 1B60     		str	r3, [r3]
  38              		.loc 2 540 0
  39 0004 5B60     		str	r3, [r3, #4]
  40              	.LVL1:
  41              	.LBE89:
  42              	.LBE88:
  43              		.loc 1 68 0
  44 0006 0022     		movs	r2, #0
  45 0008 9A60     		str	r2, [r3, #8]
  46              		.loc 1 70 0
  47 000a 1B61     		str	r3, [r3, #16]
  48              		.loc 1 71 0
  49 000c 5B61     		str	r3, [r3, #20]
  50              		.loc 1 73 0
  51 000e 7047     		bx	lr
  52              	.L3:
  53              		.align	2
  54              	.L2:
  55 0010 00000000 		.word	ch
  56              		.cfi_endproc
  57              	.LFE295:
ARM GAS  C:\Users\RAKIBU~1\AppData\Local\Temp\ccvA68NI.s 			page 2


  58              		.size	_scheduler_init, .-_scheduler_init
  59              		.align	1
  60 0014 AFF30080 		.p2align 4,,15
  60      AFF30080 
  60      AFF30080 
  61              		.global	chSchReadyI
  62              		.syntax unified
  63              		.thumb
  64              		.thumb_func
  65              		.fpu softvfp
  66              		.type	chSchReadyI, %function
  67              	chSchReadyI:
  68              	.LFB296:
  69              		.loc 1 218 0
  70              		.cfi_startproc
  71              		@ args = 0, pretend = 0, frame = 0
  72              		@ frame_needed = 0, uses_anonymous_args = 0
  73              	.LVL2:
  74 0020 10B5     		push	{r4, lr}
  75              		.cfi_def_cfa_offset 8
  76              		.cfi_offset 4, -8
  77              		.cfi_offset 14, -4
  78 0022 0446     		mov	r4, r0
  79              		.loc 1 221 0
  80 0024 FFF7FEFF 		bl	chDbgCheckClassI
  81              	.LVL3:
  82              		.loc 1 222 0
  83 0028 BCB1     		cbz	r4, .L10
  84              	.L5:
  85              		.loc 1 223 0 discriminator 1
  86 002a 94F82030 		ldrb	r3, [r4, #32]	@ zero_extendqisi2
  87 002e 0BB1     		cbz	r3, .L6
  88              		.loc 1 223 0 is_stmt 0 discriminator 3
  89 0030 0F2B     		cmp	r3, #15
  90 0032 02D1     		bne	.L7
  91              	.L6:
  92              		.loc 1 223 0 discriminator 4
  93 0034 0B48     		ldr	r0, .L11
  94 0036 FFF7FEFF 		bl	chSysHalt
  95              	.LVL4:
  96              	.L7:
  97              		.loc 1 227 0 is_stmt 1
  98 003a 0023     		movs	r3, #0
  99 003c 84F82030 		strb	r3, [r4, #32]
 100              	.LVL5:
 101              		.loc 1 228 0
 102 0040 094B     		ldr	r3, .L11+4
 103              	.LVL6:
 104              	.L8:
 105              		.loc 1 230 0 discriminator 1
 106 0042 1B68     		ldr	r3, [r3]
 107              	.LVL7:
 108              		.loc 1 231 0 discriminator 1
 109 0044 9968     		ldr	r1, [r3, #8]
 110 0046 A268     		ldr	r2, [r4, #8]
 111 0048 9142     		cmp	r1, r2
 112 004a FAD2     		bcs	.L8
ARM GAS  C:\Users\RAKIBU~1\AppData\Local\Temp\ccvA68NI.s 			page 3


 113              		.loc 1 233 0
 114 004c 2360     		str	r3, [r4]
 115              		.loc 1 234 0
 116 004e 5A68     		ldr	r2, [r3, #4]
 117 0050 6260     		str	r2, [r4, #4]
 118              		.loc 1 235 0
 119 0052 1460     		str	r4, [r2]
 120              		.loc 1 236 0
 121 0054 5C60     		str	r4, [r3, #4]
 122              		.loc 1 239 0
 123 0056 2046     		mov	r0, r4
 124 0058 10BD     		pop	{r4, pc}
 125              	.LVL8:
 126              	.L10:
 127              		.loc 1 222 0 discriminator 2
 128 005a 0248     		ldr	r0, .L11
 129 005c FFF7FEFF 		bl	chSysHalt
 130              	.LVL9:
 131 0060 E3E7     		b	.L5
 132              	.L12:
 133 0062 00BF     		.align	2
 134              	.L11:
 135 0064 00000000 		.word	.LANCHOR0
 136 0068 00000000 		.word	ch
 137              		.cfi_endproc
 138              	.LFE296:
 139              		.size	chSchReadyI, .-chSchReadyI
 140              		.align	1
 141 006c AFF30080 		.p2align 4,,15
 142              		.syntax unified
 143              		.thumb
 144              		.thumb_func
 145              		.fpu softvfp
 146              		.type	wakeup, %function
 147              	wakeup:
 148              	.LFB299:
 149              		.loc 1 319 0
 150              		.cfi_startproc
 151              		@ args = 0, pretend = 0, frame = 0
 152              		@ frame_needed = 0, uses_anonymous_args = 0
 153              	.LVL10:
 154 0070 38B5     		push	{r3, r4, r5, lr}
 155              		.cfi_def_cfa_offset 16
 156              		.cfi_offset 3, -16
 157              		.cfi_offset 4, -12
 158              		.cfi_offset 5, -8
 159              		.cfi_offset 14, -4
 160 0072 0446     		mov	r4, r0
 161              	.LVL11:
 162              	.LBB90:
 163              	.LBB91:
 164              	.LBB92:
 165              	.LBB93:
 166              	.LBB94:
 167              	.LBB95:
 168              		.file 3 "../../../ChibiOSRepo/chibios191/os/common/ext/ARM/CMSIS/Core/Include/cmsis_gcc.h"
 169              		.loc 3 493 0
ARM GAS  C:\Users\RAKIBU~1\AppData\Local\Temp\ccvA68NI.s 			page 4


 170 0074 2023     		movs	r3, #32
 171              		.syntax unified
 172              	@ 493 "../../../ChibiOSRepo/chibios191/os/common/ext/ARM/CMSIS/Core/Include/cmsis_gcc.h" 1
 173 0076 83F31188 		MSR basepri, r3
 174              	@ 0 "" 2
 175              	.LVL12:
 176              		.thumb
 177              		.syntax unified
 178              	.LBE95:
 179              	.LBE94:
 180              	.LBE93:
 181              	.LBE92:
 182              		.file 4 "../../../ChibiOSRepo/chibios191/os/rt/include/chsys.h"
 183              		.loc 4 396 0
 184 007a FFF7FEFF 		bl	_stats_start_measure_crit_isr
 185              	.LVL13:
 186              		.loc 4 397 0
 187 007e FFF7FEFF 		bl	_dbg_check_lock_from_isr
 188              	.LVL14:
 189              	.LBE91:
 190              	.LBE90:
 191              		.loc 1 323 0
 192 0082 94F82030 		ldrb	r3, [r4, #32]	@ zero_extendqisi2
 193 0086 072B     		cmp	r3, #7
 194 0088 1DD8     		bhi	.L14
 195 008a DFE803F0 		tbb	[pc, r3]
 196              	.L16:
 197 008e 04       		.byte	(.L15-.L16)/2
 198 008f 1C       		.byte	(.L14-.L16)/2
 199 0090 1C       		.byte	(.L14-.L16)/2
 200 0091 0C       		.byte	(.L17-.L16)/2
 201 0092 16       		.byte	(.L18-.L16)/2
 202 0093 10       		.byte	(.L19-.L16)/2
 203 0094 1C       		.byte	(.L14-.L16)/2
 204 0095 16       		.byte	(.L18-.L16)/2
 205              		.p2align 1
 206              	.L15:
 207              	.LBB96:
 208              	.LBB97:
 209              		.loc 4 415 0
 210 0096 FFF7FEFF 		bl	_dbg_check_unlock_from_isr
 211              	.LVL15:
 212              		.loc 4 416 0
 213 009a FFF7FEFF 		bl	_stats_stop_measure_crit_isr
 214              	.LVL16:
 215              	.LBB98:
 216              	.LBB99:
 217              	.LBB100:
 218              	.LBB101:
 219              		.loc 3 493 0
 220 009e 0023     		movs	r3, #0
 221              		.syntax unified
 222              	@ 493 "../../../ChibiOSRepo/chibios191/os/common/ext/ARM/CMSIS/Core/Include/cmsis_gcc.h" 1
 223 00a0 83F31188 		MSR basepri, r3
 224              	@ 0 "" 2
 225              	.LVL17:
 226              		.thumb
ARM GAS  C:\Users\RAKIBU~1\AppData\Local\Temp\ccvA68NI.s 			page 5


 227              		.syntax unified
 228 00a4 1CE0     		b	.L13
 229              	.L17:
 230              	.LBE101:
 231              	.LBE100:
 232              	.LBE99:
 233              	.LBE98:
 234              	.LBE97:
 235              	.LBE96:
 236              		.loc 1 330 0
 237 00a6 636A     		ldr	r3, [r4, #36]
 238 00a8 0022     		movs	r2, #0
 239 00aa 1A60     		str	r2, [r3]
 240              		.loc 1 331 0
 241 00ac 0BE0     		b	.L14
 242              	.L19:
 243              		.loc 1 334 0
 244 00ae 656A     		ldr	r5, [r4, #36]
 245              	.LVL18:
 246              	.LBB102:
 247              	.LBB103:
 248              		.file 5 "../../../ChibiOSRepo/chibios191/os/rt/include/chsem.h"
 249              		.loc 5 136 0
 250 00b0 FFF7FEFF 		bl	chDbgCheckClassI
 251              	.LVL19:
 252              		.loc 5 138 0
 253 00b4 AB68     		ldr	r3, [r5, #8]
 254 00b6 0133     		adds	r3, r3, #1
 255 00b8 AB60     		str	r3, [r5, #8]
 256              	.LVL20:
 257              	.L18:
 258              	.LBE103:
 259              	.LBE102:
 260              	.LBB104:
 261              	.LBB105:
 262              		.loc 2 626 0
 263 00ba 6368     		ldr	r3, [r4, #4]
 264 00bc 2268     		ldr	r2, [r4]
 265 00be 1A60     		str	r2, [r3]
 266              		.loc 2 627 0
 267 00c0 2368     		ldr	r3, [r4]
 268 00c2 6268     		ldr	r2, [r4, #4]
 269 00c4 5A60     		str	r2, [r3, #4]
 270              	.LVL21:
 271              	.L14:
 272              	.LBE105:
 273              	.LBE104:
 274              		.loc 1 349 0
 275 00c6 4FF0FF33 		mov	r3, #-1
 276 00ca 6362     		str	r3, [r4, #36]
 277              		.loc 1 350 0
 278 00cc 2046     		mov	r0, r4
 279 00ce FFF7FEFF 		bl	chSchReadyI
 280              	.LVL22:
 281              	.LBB106:
 282              	.LBB107:
 283              		.loc 4 415 0
ARM GAS  C:\Users\RAKIBU~1\AppData\Local\Temp\ccvA68NI.s 			page 6


 284 00d2 FFF7FEFF 		bl	_dbg_check_unlock_from_isr
 285              	.LVL23:
 286              		.loc 4 416 0
 287 00d6 FFF7FEFF 		bl	_stats_stop_measure_crit_isr
 288              	.LVL24:
 289              	.LBB108:
 290              	.LBB109:
 291              	.LBB110:
 292              	.LBB111:
 293              		.loc 3 493 0
 294 00da 0023     		movs	r3, #0
 295              		.syntax unified
 296              	@ 493 "../../../ChibiOSRepo/chibios191/os/common/ext/ARM/CMSIS/Core/Include/cmsis_gcc.h" 1
 297 00dc 83F31188 		MSR basepri, r3
 298              	@ 0 "" 2
 299              	.LVL25:
 300              		.thumb
 301              		.syntax unified
 302              	.L13:
 303              	.LBE111:
 304              	.LBE110:
 305              	.LBE109:
 306              	.LBE108:
 307              	.LBE107:
 308              	.LBE106:
 309              		.loc 1 352 0
 310 00e0 38BD     		pop	{r3, r4, r5, pc}
 311              		.cfi_endproc
 312              	.LFE299:
 313              		.size	wakeup, .-wakeup
 314              		.align	1
 315 00e2 00BFAFF3 		.p2align 4,,15
 315      0080AFF3 
 315      0080AFF3 
 315      0080
 316              		.global	chSchReadyAheadI
 317              		.syntax unified
 318              		.thumb
 319              		.thumb_func
 320              		.fpu softvfp
 321              		.type	chSchReadyAheadI, %function
 322              	chSchReadyAheadI:
 323              	.LFB297:
 324              		.loc 1 257 0
 325              		.cfi_startproc
 326              		@ args = 0, pretend = 0, frame = 0
 327              		@ frame_needed = 0, uses_anonymous_args = 0
 328              	.LVL26:
 329 00f0 10B5     		push	{r4, lr}
 330              		.cfi_def_cfa_offset 8
 331              		.cfi_offset 4, -8
 332              		.cfi_offset 14, -4
 333 00f2 0446     		mov	r4, r0
 334              		.loc 1 260 0
 335 00f4 FFF7FEFF 		bl	chDbgCheckClassI
 336              	.LVL27:
 337              		.loc 1 261 0
ARM GAS  C:\Users\RAKIBU~1\AppData\Local\Temp\ccvA68NI.s 			page 7


 338 00f8 BCB1     		cbz	r4, .L28
 339              	.L23:
 340              		.loc 1 262 0 discriminator 1
 341 00fa 94F82030 		ldrb	r3, [r4, #32]	@ zero_extendqisi2
 342 00fe 0BB1     		cbz	r3, .L24
 343              		.loc 1 262 0 is_stmt 0 discriminator 3
 344 0100 0F2B     		cmp	r3, #15
 345 0102 02D1     		bne	.L25
 346              	.L24:
 347              		.loc 1 262 0 discriminator 4
 348 0104 0B48     		ldr	r0, .L29
 349 0106 FFF7FEFF 		bl	chSysHalt
 350              	.LVL28:
 351              	.L25:
 352              		.loc 1 266 0 is_stmt 1
 353 010a 0023     		movs	r3, #0
 354 010c 84F82030 		strb	r3, [r4, #32]
 355              	.LVL29:
 356              		.loc 1 267 0
 357 0110 094B     		ldr	r3, .L29+4
 358              	.LVL30:
 359              	.L26:
 360              		.loc 1 269 0 discriminator 1
 361 0112 1B68     		ldr	r3, [r3]
 362              	.LVL31:
 363              		.loc 1 270 0 discriminator 1
 364 0114 9968     		ldr	r1, [r3, #8]
 365 0116 A268     		ldr	r2, [r4, #8]
 366 0118 9142     		cmp	r1, r2
 367 011a FAD8     		bhi	.L26
 368              		.loc 1 272 0
 369 011c 2360     		str	r3, [r4]
 370              		.loc 1 273 0
 371 011e 5A68     		ldr	r2, [r3, #4]
 372 0120 6260     		str	r2, [r4, #4]
 373              		.loc 1 274 0
 374 0122 1460     		str	r4, [r2]
 375              		.loc 1 275 0
 376 0124 5C60     		str	r4, [r3, #4]
 377              		.loc 1 278 0
 378 0126 2046     		mov	r0, r4
 379 0128 10BD     		pop	{r4, pc}
 380              	.LVL32:
 381              	.L28:
 382              		.loc 1 261 0 discriminator 2
 383 012a 0248     		ldr	r0, .L29
 384 012c FFF7FEFF 		bl	chSysHalt
 385              	.LVL33:
 386 0130 E3E7     		b	.L23
 387              	.L30:
 388 0132 00BF     		.align	2
 389              	.L29:
 390 0134 0C000000 		.word	.LANCHOR0+12
 391 0138 00000000 		.word	ch
 392              		.cfi_endproc
 393              	.LFE297:
 394              		.size	chSchReadyAheadI, .-chSchReadyAheadI
ARM GAS  C:\Users\RAKIBU~1\AppData\Local\Temp\ccvA68NI.s 			page 8


 395              		.align	1
 396 013c AFF30080 		.p2align 4,,15
 397              		.global	chSchGoSleepS
 398              		.syntax unified
 399              		.thumb
 400              		.thumb_func
 401              		.fpu softvfp
 402              		.type	chSchGoSleepS, %function
 403              	chSchGoSleepS:
 404              	.LFB298:
 405              		.loc 1 289 0
 406              		.cfi_startproc
 407              		@ args = 0, pretend = 0, frame = 0
 408              		@ frame_needed = 0, uses_anonymous_args = 0
 409              	.LVL34:
 410 0140 70B5     		push	{r4, r5, r6, lr}
 411              		.cfi_def_cfa_offset 16
 412              		.cfi_offset 4, -16
 413              		.cfi_offset 5, -12
 414              		.cfi_offset 6, -8
 415              		.cfi_offset 14, -4
 416 0142 0646     		mov	r6, r0
 417              		.loc 1 290 0
 418 0144 124C     		ldr	r4, .L35
 419 0146 A569     		ldr	r5, [r4, #24]
 420              	.LVL35:
 421              		.loc 1 292 0
 422 0148 FFF7FEFF 		bl	chDbgCheckClassS
 423              	.LVL36:
 424              		.loc 1 295 0
 425 014c 85F82060 		strb	r6, [r5, #32]
 426              	.LVL37:
 427              	.LBB112:
 428              	.LBB113:
 429              		.loc 2 607 0
 430 0150 2068     		ldr	r0, [r4]
 431              	.LVL38:
 432              		.loc 2 609 0
 433 0152 0368     		ldr	r3, [r0]
 434 0154 2360     		str	r3, [r4]
 435              		.loc 2 610 0
 436 0156 5C60     		str	r4, [r3, #4]
 437              	.LVL39:
 438              	.LBE113:
 439              	.LBE112:
 440              		.loc 1 304 0
 441 0158 A061     		str	r0, [r4, #24]
 442              		.loc 1 305 0
 443 015a 0123     		movs	r3, #1
 444 015c 80F82030 		strb	r3, [r0, #32]
 445              		.loc 1 313 0
 446 0160 2946     		mov	r1, r5
 447 0162 FFF7FEFF 		bl	_trace_switch
 448              	.LVL40:
 449 0166 2946     		mov	r1, r5
 450 0168 A069     		ldr	r0, [r4, #24]
 451 016a FFF7FEFF 		bl	_stats_ctxswc
ARM GAS  C:\Users\RAKIBU~1\AppData\Local\Temp\ccvA68NI.s 			page 9


 452              	.LVL41:
 453              	.LBB114:
 454              	.LBB115:
 455              	.LBB116:
 456              		.loc 3 251 0
 457              		.syntax unified
 458              	@ 251 "../../../ChibiOSRepo/chibios191/os/common/ext/ARM/CMSIS/Core/Include/cmsis_gcc.h" 1
 459 016e EFF30983 		MRS r3, psp
 460              	@ 0 "" 2
 461              	.LVL42:
 462              		.thumb
 463              		.syntax unified
 464              	.LBE116:
 465              	.LBE115:
 466              		.loc 1 313 0
 467 0172 243B     		subs	r3, r3, #36
 468              	.LVL43:
 469 0174 EA69     		ldr	r2, [r5, #28]
 470 0176 9342     		cmp	r3, r2
 471 0178 05D3     		bcc	.L34
 472              	.LVL44:
 473              	.L32:
 474              		.loc 1 313 0 is_stmt 0 discriminator 3
 475 017a 2946     		mov	r1, r5
 476 017c 044B     		ldr	r3, .L35
 477 017e 9869     		ldr	r0, [r3, #24]
 478 0180 FFF7FEFF 		bl	_port_switch
 479              	.LVL45:
 480              	.LBE114:
 481              		.loc 1 314 0 is_stmt 1 discriminator 3
 482 0184 70BD     		pop	{r4, r5, r6, pc}
 483              	.LVL46:
 484              	.L34:
 485              	.LBB117:
 486              		.loc 1 313 0 discriminator 1
 487 0186 0348     		ldr	r0, .L35+4
 488 0188 FFF7FEFF 		bl	chSysHalt
 489              	.LVL47:
 490 018c F5E7     		b	.L32
 491              	.L36:
 492 018e 00BF     		.align	2
 493              	.L35:
 494 0190 00000000 		.word	ch
 495 0194 00000000 		.word	.LC0
 496              	.LBE117:
 497              		.cfi_endproc
 498              	.LFE298:
 499              		.size	chSchGoSleepS, .-chSchGoSleepS
 500              		.align	1
 501 0198 AFF30080 		.p2align 4,,15
 501      AFF30080 
 502              		.global	chSchGoSleepTimeoutS
 503              		.syntax unified
 504              		.thumb
 505              		.thumb_func
 506              		.fpu softvfp
 507              		.type	chSchGoSleepTimeoutS, %function
ARM GAS  C:\Users\RAKIBU~1\AppData\Local\Temp\ccvA68NI.s 			page 10


 508              	chSchGoSleepTimeoutS:
 509              	.LFB300:
 510              		.loc 1 375 0
 511              		.cfi_startproc
 512              		@ args = 0, pretend = 0, frame = 24
 513              		@ frame_needed = 0, uses_anonymous_args = 0
 514              	.LVL48:
 515 01a0 70B5     		push	{r4, r5, r6, lr}
 516              		.cfi_def_cfa_offset 16
 517              		.cfi_offset 4, -16
 518              		.cfi_offset 5, -12
 519              		.cfi_offset 6, -8
 520              		.cfi_offset 14, -4
 521 01a2 88B0     		sub	sp, sp, #32
 522              		.cfi_def_cfa_offset 48
 523 01a4 0646     		mov	r6, r0
 524 01a6 1446     		mov	r4, r2
 525 01a8 1D46     		mov	r5, r3
 526              		.loc 1 377 0
 527 01aa FFF7FEFF 		bl	chDbgCheckClassS
 528              	.LVL49:
 529              		.loc 1 379 0
 530 01ae B5F1FF3F 		cmp	r5, #-1
 531 01b2 08BF     		it	eq
 532 01b4 B4F1FF3F 		cmpeq	r4, #-1
 533 01b8 18D0     		beq	.L38
 534              	.LBB118:
 535              		.loc 1 382 0
 536 01ba 0E4B     		ldr	r3, .L42
 537 01bc 9B69     		ldr	r3, [r3, #24]
 538 01be 0193     		str	r3, [sp, #4]
 539 01c0 0D4B     		ldr	r3, .L42+4
 540 01c2 0093     		str	r3, [sp]
 541 01c4 2246     		mov	r2, r4
 542 01c6 2B46     		mov	r3, r5
 543 01c8 02A8     		add	r0, sp, #8
 544 01ca FFF7FEFF 		bl	chVTDoSetI
 545              	.LVL50:
 546              		.loc 1 383 0
 547 01ce 3046     		mov	r0, r6
 548 01d0 FFF7FEFF 		bl	chSchGoSleepS
 549              	.LVL51:
 550              	.LBB119:
 551              	.LBB120:
 552              		.file 6 "../../../ChibiOSRepo/chibios191/os/rt/include/chvt.h"
 553              		.loc 6 241 0
 554 01d4 FFF7FEFF 		bl	chDbgCheckClassI
 555              	.LVL52:
 556              		.loc 6 243 0
 557 01d8 069B     		ldr	r3, [sp, #24]
 558              	.LVL53:
 559              	.LBE120:
 560              	.LBE119:
 561              		.loc 1 384 0
 562 01da 13B1     		cbz	r3, .L40
 563              		.loc 1 385 0
 564 01dc 02A8     		add	r0, sp, #8
ARM GAS  C:\Users\RAKIBU~1\AppData\Local\Temp\ccvA68NI.s 			page 11


 565 01de FFF7FEFF 		bl	chVTDoResetI
 566              	.LVL54:
 567              	.L40:
 568              	.LBE118:
 569              		.loc 1 392 0
 570 01e2 044B     		ldr	r3, .L42
 571 01e4 9B69     		ldr	r3, [r3, #24]
 572              		.loc 1 393 0
 573 01e6 586A     		ldr	r0, [r3, #36]
 574 01e8 08B0     		add	sp, sp, #32
 575              		.cfi_remember_state
 576              		.cfi_def_cfa_offset 16
 577              		@ sp needed
 578 01ea 70BD     		pop	{r4, r5, r6, pc}
 579              	.L38:
 580              		.cfi_restore_state
 581              		.loc 1 389 0
 582 01ec 3046     		mov	r0, r6
 583 01ee FFF7FEFF 		bl	chSchGoSleepS
 584              	.LVL55:
 585 01f2 F6E7     		b	.L40
 586              	.L43:
 587              		.align	2
 588              	.L42:
 589 01f4 00000000 		.word	ch
 590 01f8 00000000 		.word	wakeup
 591              		.cfi_endproc
 592              	.LFE300:
 593              		.size	chSchGoSleepTimeoutS, .-chSchGoSleepTimeoutS
 594              		.align	1
 595 01fc AFF30080 		.p2align 4,,15
 596              		.global	chSchWakeupS
 597              		.syntax unified
 598              		.thumb
 599              		.thumb_func
 600              		.fpu softvfp
 601              		.type	chSchWakeupS, %function
 602              	chSchWakeupS:
 603              	.LFB301:
 604              		.loc 1 412 0
 605              		.cfi_startproc
 606              		@ args = 0, pretend = 0, frame = 0
 607              		@ frame_needed = 0, uses_anonymous_args = 0
 608              	.LVL56:
 609 0200 F8B5     		push	{r3, r4, r5, r6, r7, lr}
 610              		.cfi_def_cfa_offset 24
 611              		.cfi_offset 3, -24
 612              		.cfi_offset 4, -20
 613              		.cfi_offset 5, -16
 614              		.cfi_offset 6, -12
 615              		.cfi_offset 7, -8
 616              		.cfi_offset 14, -4
 617 0202 0446     		mov	r4, r0
 618 0204 0F46     		mov	r7, r1
 619              		.loc 1 413 0
 620 0206 1C4D     		ldr	r5, .L53
 621 0208 AE69     		ldr	r6, [r5, #24]
ARM GAS  C:\Users\RAKIBU~1\AppData\Local\Temp\ccvA68NI.s 			page 12


 622              	.LVL57:
 623              		.loc 1 415 0
 624 020a FFF7FEFF 		bl	chDbgCheckClassS
 625              	.LVL58:
 626              		.loc 1 417 0
 627 020e 2B68     		ldr	r3, [r5]
 628 0210 AB42     		cmp	r3, r5
 629 0212 04D0     		beq	.L45
 630              		.loc 1 417 0 is_stmt 0 discriminator 2
 631 0214 AA69     		ldr	r2, [r5, #24]
 632 0216 9268     		ldr	r2, [r2, #8]
 633 0218 9B68     		ldr	r3, [r3, #8]
 634 021a 9A42     		cmp	r2, r3
 635 021c 20D3     		bcc	.L50
 636              	.L45:
 637              		.loc 1 423 0 is_stmt 1
 638 021e 6762     		str	r7, [r4, #36]
 639              		.loc 1 429 0
 640 0220 A268     		ldr	r2, [r4, #8]
 641 0222 B368     		ldr	r3, [r6, #8]
 642 0224 9A42     		cmp	r2, r3
 643 0226 1FD9     		bls	.L51
 644              		.loc 1 433 0
 645 0228 3046     		mov	r0, r6
 646 022a FFF7FEFF 		bl	chSchReadyAheadI
 647              	.LVL59:
 648 022e 0546     		mov	r5, r0
 649              	.LVL60:
 650              		.loc 1 441 0
 651 0230 114B     		ldr	r3, .L53
 652 0232 9C61     		str	r4, [r3, #24]
 653              		.loc 1 442 0
 654 0234 0123     		movs	r3, #1
 655 0236 84F82030 		strb	r3, [r4, #32]
 656              		.loc 1 445 0
 657 023a 0146     		mov	r1, r0
 658 023c 2046     		mov	r0, r4
 659              	.LVL61:
 660 023e FFF7FEFF 		bl	_trace_switch
 661              	.LVL62:
 662 0242 2946     		mov	r1, r5
 663 0244 2046     		mov	r0, r4
 664 0246 FFF7FEFF 		bl	_stats_ctxswc
 665              	.LVL63:
 666              	.LBB121:
 667              	.LBB122:
 668              	.LBB123:
 669              		.loc 3 251 0
 670              		.syntax unified
 671              	@ 251 "../../../ChibiOSRepo/chibios191/os/common/ext/ARM/CMSIS/Core/Include/cmsis_gcc.h" 1
 672 024a EFF30983 		MRS r3, psp
 673              	@ 0 "" 2
 674              	.LVL64:
 675              		.thumb
 676              		.syntax unified
 677              	.LBE123:
 678              	.LBE122:
ARM GAS  C:\Users\RAKIBU~1\AppData\Local\Temp\ccvA68NI.s 			page 13


 679              		.loc 1 445 0
 680 024e 243B     		subs	r3, r3, #36
 681              	.LVL65:
 682 0250 EA69     		ldr	r2, [r5, #28]
 683 0252 9342     		cmp	r3, r2
 684 0254 0CD3     		bcc	.L52
 685              	.LVL66:
 686              	.L48:
 687              		.loc 1 445 0 is_stmt 0 discriminator 3
 688 0256 2946     		mov	r1, r5
 689 0258 2046     		mov	r0, r4
 690 025a FFF7FEFF 		bl	_port_switch
 691              	.LVL67:
 692              	.L44:
 693              	.LBE121:
 694              		.loc 1 447 0 is_stmt 1
 695 025e F8BD     		pop	{r3, r4, r5, r6, r7, pc}
 696              	.LVL68:
 697              	.L50:
 698              		.loc 1 417 0 discriminator 3
 699 0260 0648     		ldr	r0, .L53+4
 700 0262 FFF7FEFF 		bl	chSysHalt
 701              	.LVL69:
 702 0266 DAE7     		b	.L45
 703              	.L51:
 704              		.loc 1 430 0
 705 0268 2046     		mov	r0, r4
 706 026a FFF7FEFF 		bl	chSchReadyI
 707              	.LVL70:
 708 026e F6E7     		b	.L44
 709              	.LVL71:
 710              	.L52:
 711              	.LBB124:
 712              		.loc 1 445 0 discriminator 1
 713 0270 0348     		ldr	r0, .L53+8
 714 0272 FFF7FEFF 		bl	chSysHalt
 715              	.LVL72:
 716 0276 EEE7     		b	.L48
 717              	.L54:
 718              		.align	2
 719              	.L53:
 720 0278 00000000 		.word	ch
 721 027c 20000000 		.word	.LANCHOR0+32
 722 0280 00000000 		.word	.LC0
 723              	.LBE124:
 724              		.cfi_endproc
 725              	.LFE301:
 726              		.size	chSchWakeupS, .-chSchWakeupS
 727              		.align	1
 728 0284 AFF30080 		.p2align 4,,15
 728      AFF30080 
 728      AFF30080 
 729              		.global	chSchIsPreemptionRequired
 730              		.syntax unified
 731              		.thumb
 732              		.thumb_func
 733              		.fpu softvfp
ARM GAS  C:\Users\RAKIBU~1\AppData\Local\Temp\ccvA68NI.s 			page 14


 734              		.type	chSchIsPreemptionRequired, %function
 735              	chSchIsPreemptionRequired:
 736              	.LFB303:
 737              		.loc 1 479 0
 738              		.cfi_startproc
 739              		@ args = 0, pretend = 0, frame = 0
 740              		@ frame_needed = 0, uses_anonymous_args = 0
 741              		@ link register save eliminated.
 742              		.loc 1 480 0
 743 0290 044B     		ldr	r3, .L56
 744 0292 1A68     		ldr	r2, [r3]
 745 0294 9068     		ldr	r0, [r2, #8]
 746              	.LVL73:
 747              		.loc 1 481 0
 748 0296 9B69     		ldr	r3, [r3, #24]
 749 0298 9B68     		ldr	r3, [r3, #8]
 750              	.LVL74:
 751              		.loc 1 494 0
 752 029a 9842     		cmp	r0, r3
 753 029c 94BF     		ite	ls
 754 029e 0020     		movls	r0, #0
 755              	.LVL75:
 756 02a0 0120     		movhi	r0, #1
 757 02a2 7047     		bx	lr
 758              	.L57:
 759              		.align	2
 760              	.L56:
 761 02a4 00000000 		.word	ch
 762              		.cfi_endproc
 763              	.LFE303:
 764              		.size	chSchIsPreemptionRequired, .-chSchIsPreemptionRequired
 765              		.align	1
 766 02a8 AFF30080 		.p2align 4,,15
 766      AFF30080 
 767              		.global	chSchDoRescheduleBehind
 768              		.syntax unified
 769              		.thumb
 770              		.thumb_func
 771              		.fpu softvfp
 772              		.type	chSchDoRescheduleBehind, %function
 773              	chSchDoRescheduleBehind:
 774              	.LFB304:
 775              		.loc 1 507 0
 776              		.cfi_startproc
 777              		@ args = 0, pretend = 0, frame = 0
 778              		@ frame_needed = 0, uses_anonymous_args = 0
 779 02b0 38B5     		push	{r3, r4, r5, lr}
 780              		.cfi_def_cfa_offset 16
 781              		.cfi_offset 3, -16
 782              		.cfi_offset 4, -12
 783              		.cfi_offset 5, -8
 784              		.cfi_offset 14, -4
 785              		.loc 1 508 0
 786 02b2 124C     		ldr	r4, .L62
 787 02b4 A069     		ldr	r0, [r4, #24]
 788              	.LVL76:
 789              	.LBB125:
ARM GAS  C:\Users\RAKIBU~1\AppData\Local\Temp\ccvA68NI.s 			page 15


 790              	.LBB126:
 791              		.loc 2 607 0
 792 02b6 2368     		ldr	r3, [r4]
 793              	.LVL77:
 794              		.loc 2 609 0
 795 02b8 1A68     		ldr	r2, [r3]
 796 02ba 2260     		str	r2, [r4]
 797              		.loc 2 610 0
 798 02bc 5460     		str	r4, [r2, #4]
 799              	.LVL78:
 800              	.LBE126:
 801              	.LBE125:
 802              		.loc 1 511 0
 803 02be A361     		str	r3, [r4, #24]
 804              		.loc 1 512 0
 805 02c0 0122     		movs	r2, #1
 806 02c2 83F82020 		strb	r2, [r3, #32]
 807              		.loc 1 525 0
 808 02c6 FFF7FEFF 		bl	chSchReadyI
 809              	.LVL79:
 810 02ca 0546     		mov	r5, r0
 811              	.LVL80:
 812              		.loc 1 528 0
 813 02cc 0146     		mov	r1, r0
 814 02ce A069     		ldr	r0, [r4, #24]
 815              	.LVL81:
 816 02d0 FFF7FEFF 		bl	_trace_switch
 817              	.LVL82:
 818 02d4 2946     		mov	r1, r5
 819 02d6 A069     		ldr	r0, [r4, #24]
 820 02d8 FFF7FEFF 		bl	_stats_ctxswc
 821              	.LVL83:
 822              	.LBB127:
 823              	.LBB128:
 824              	.LBB129:
 825              		.loc 3 251 0
 826              		.syntax unified
 827              	@ 251 "../../../ChibiOSRepo/chibios191/os/common/ext/ARM/CMSIS/Core/Include/cmsis_gcc.h" 1
 828 02dc EFF30983 		MRS r3, psp
 829              	@ 0 "" 2
 830              	.LVL84:
 831              		.thumb
 832              		.syntax unified
 833              	.LBE129:
 834              	.LBE128:
 835              		.loc 1 528 0
 836 02e0 243B     		subs	r3, r3, #36
 837              	.LVL85:
 838 02e2 EA69     		ldr	r2, [r5, #28]
 839 02e4 9342     		cmp	r3, r2
 840 02e6 05D3     		bcc	.L61
 841              	.LVL86:
 842              	.L59:
 843              		.loc 1 528 0 is_stmt 0 discriminator 3
 844 02e8 2946     		mov	r1, r5
 845 02ea 044B     		ldr	r3, .L62
 846 02ec 9869     		ldr	r0, [r3, #24]
ARM GAS  C:\Users\RAKIBU~1\AppData\Local\Temp\ccvA68NI.s 			page 16


 847 02ee FFF7FEFF 		bl	_port_switch
 848              	.LVL87:
 849              	.LBE127:
 850              		.loc 1 529 0 is_stmt 1 discriminator 3
 851 02f2 38BD     		pop	{r3, r4, r5, pc}
 852              	.LVL88:
 853              	.L61:
 854              	.LBB130:
 855              		.loc 1 528 0 discriminator 1
 856 02f4 0248     		ldr	r0, .L62+4
 857 02f6 FFF7FEFF 		bl	chSysHalt
 858              	.LVL89:
 859 02fa F5E7     		b	.L59
 860              	.L63:
 861              		.align	2
 862              	.L62:
 863 02fc 00000000 		.word	ch
 864 0300 00000000 		.word	.LC0
 865              	.LBE130:
 866              		.cfi_endproc
 867              	.LFE304:
 868              		.size	chSchDoRescheduleBehind, .-chSchDoRescheduleBehind
 869              		.align	1
 870 0304 AFF30080 		.p2align 4,,15
 870      AFF30080 
 870      AFF30080 
 871              		.global	chSchDoRescheduleAhead
 872              		.syntax unified
 873              		.thumb
 874              		.thumb_func
 875              		.fpu softvfp
 876              		.type	chSchDoRescheduleAhead, %function
 877              	chSchDoRescheduleAhead:
 878              	.LFB305:
 879              		.loc 1 540 0
 880              		.cfi_startproc
 881              		@ args = 0, pretend = 0, frame = 0
 882              		@ frame_needed = 0, uses_anonymous_args = 0
 883 0310 38B5     		push	{r3, r4, r5, lr}
 884              		.cfi_def_cfa_offset 16
 885              		.cfi_offset 3, -16
 886              		.cfi_offset 4, -12
 887              		.cfi_offset 5, -8
 888              		.cfi_offset 14, -4
 889              		.loc 1 541 0
 890 0312 124C     		ldr	r4, .L68
 891 0314 A069     		ldr	r0, [r4, #24]
 892              	.LVL90:
 893              	.LBB131:
 894              	.LBB132:
 895              		.loc 2 607 0
 896 0316 2368     		ldr	r3, [r4]
 897              	.LVL91:
 898              		.loc 2 609 0
 899 0318 1A68     		ldr	r2, [r3]
 900 031a 2260     		str	r2, [r4]
 901              		.loc 2 610 0
ARM GAS  C:\Users\RAKIBU~1\AppData\Local\Temp\ccvA68NI.s 			page 17


 902 031c 5460     		str	r4, [r2, #4]
 903              	.LVL92:
 904              	.LBE132:
 905              	.LBE131:
 906              		.loc 1 544 0
 907 031e A361     		str	r3, [r4, #24]
 908              		.loc 1 545 0
 909 0320 0122     		movs	r2, #1
 910 0322 83F82020 		strb	r2, [r3, #32]
 911              		.loc 1 553 0
 912 0326 FFF7FEFF 		bl	chSchReadyAheadI
 913              	.LVL93:
 914 032a 0546     		mov	r5, r0
 915              	.LVL94:
 916              		.loc 1 556 0
 917 032c 0146     		mov	r1, r0
 918 032e A069     		ldr	r0, [r4, #24]
 919              	.LVL95:
 920 0330 FFF7FEFF 		bl	_trace_switch
 921              	.LVL96:
 922 0334 2946     		mov	r1, r5
 923 0336 A069     		ldr	r0, [r4, #24]
 924 0338 FFF7FEFF 		bl	_stats_ctxswc
 925              	.LVL97:
 926              	.LBB133:
 927              	.LBB134:
 928              	.LBB135:
 929              		.loc 3 251 0
 930              		.syntax unified
 931              	@ 251 "../../../ChibiOSRepo/chibios191/os/common/ext/ARM/CMSIS/Core/Include/cmsis_gcc.h" 1
 932 033c EFF30983 		MRS r3, psp
 933              	@ 0 "" 2
 934              	.LVL98:
 935              		.thumb
 936              		.syntax unified
 937              	.LBE135:
 938              	.LBE134:
 939              		.loc 1 556 0
 940 0340 243B     		subs	r3, r3, #36
 941              	.LVL99:
 942 0342 EA69     		ldr	r2, [r5, #28]
 943 0344 9342     		cmp	r3, r2
 944 0346 05D3     		bcc	.L67
 945              	.LVL100:
 946              	.L65:
 947              		.loc 1 556 0 is_stmt 0 discriminator 3
 948 0348 2946     		mov	r1, r5
 949 034a 044B     		ldr	r3, .L68
 950 034c 9869     		ldr	r0, [r3, #24]
 951 034e FFF7FEFF 		bl	_port_switch
 952              	.LVL101:
 953              	.LBE133:
 954              		.loc 1 557 0 is_stmt 1 discriminator 3
 955 0352 38BD     		pop	{r3, r4, r5, pc}
 956              	.LVL102:
 957              	.L67:
 958              	.LBB136:
ARM GAS  C:\Users\RAKIBU~1\AppData\Local\Temp\ccvA68NI.s 			page 18


 959              		.loc 1 556 0 discriminator 1
 960 0354 0248     		ldr	r0, .L68+4
 961 0356 FFF7FEFF 		bl	chSysHalt
 962              	.LVL103:
 963 035a F5E7     		b	.L65
 964              	.L69:
 965              		.align	2
 966              	.L68:
 967 035c 00000000 		.word	ch
 968 0360 00000000 		.word	.LC0
 969              	.LBE136:
 970              		.cfi_endproc
 971              	.LFE305:
 972              		.size	chSchDoRescheduleAhead, .-chSchDoRescheduleAhead
 973              		.align	1
 974 0364 AFF30080 		.p2align 4,,15
 974      AFF30080 
 974      AFF30080 
 975              		.global	chSchRescheduleS
 976              		.syntax unified
 977              		.thumb
 978              		.thumb_func
 979              		.fpu softvfp
 980              		.type	chSchRescheduleS, %function
 981              	chSchRescheduleS:
 982              	.LFB302:
 983              		.loc 1 456 0
 984              		.cfi_startproc
 985              		@ args = 0, pretend = 0, frame = 0
 986              		@ frame_needed = 0, uses_anonymous_args = 0
 987 0370 08B5     		push	{r3, lr}
 988              		.cfi_def_cfa_offset 8
 989              		.cfi_offset 3, -8
 990              		.cfi_offset 14, -4
 991              		.loc 1 458 0
 992 0372 FFF7FEFF 		bl	chDbgCheckClassS
 993              	.LVL104:
 994              	.LBB137:
 995              	.LBB138:
 996              		.loc 2 646 0
 997 0376 FFF7FEFF 		bl	chDbgCheckClassI
 998              	.LVL105:
 999              		.loc 2 648 0
 1000 037a 054B     		ldr	r3, .L74
 1001 037c 1A68     		ldr	r2, [r3]
 1002 037e 9268     		ldr	r2, [r2, #8]
 1003 0380 9B69     		ldr	r3, [r3, #24]
 1004 0382 9B68     		ldr	r3, [r3, #8]
 1005              	.LBE138:
 1006              	.LBE137:
 1007              		.loc 1 460 0
 1008 0384 9A42     		cmp	r2, r3
 1009 0386 00D8     		bhi	.L73
 1010              	.L70:
 1011              		.loc 1 463 0
 1012 0388 08BD     		pop	{r3, pc}
 1013              	.L73:
ARM GAS  C:\Users\RAKIBU~1\AppData\Local\Temp\ccvA68NI.s 			page 19


 1014              		.loc 1 461 0
 1015 038a FFF7FEFF 		bl	chSchDoRescheduleAhead
 1016              	.LVL106:
 1017              		.loc 1 463 0
 1018 038e FBE7     		b	.L70
 1019              	.L75:
 1020              		.align	2
 1021              	.L74:
 1022 0390 00000000 		.word	ch
 1023              		.cfi_endproc
 1024              	.LFE302:
 1025              		.size	chSchRescheduleS, .-chSchRescheduleS
 1026              		.align	1
 1027 0394 AFF30080 		.p2align 4,,15
 1027      AFF30080 
 1027      AFF30080 
 1028              		.global	chSchDoReschedule
 1029              		.syntax unified
 1030              		.thumb
 1031              		.thumb_func
 1032              		.fpu softvfp
 1033              		.type	chSchDoReschedule, %function
 1034              	chSchDoReschedule:
 1035              	.LFB306:
 1036              		.loc 1 570 0
 1037              		.cfi_startproc
 1038              		@ args = 0, pretend = 0, frame = 0
 1039              		@ frame_needed = 0, uses_anonymous_args = 0
 1040 03a0 38B5     		push	{r3, r4, r5, lr}
 1041              		.cfi_def_cfa_offset 16
 1042              		.cfi_offset 3, -16
 1043              		.cfi_offset 4, -12
 1044              		.cfi_offset 5, -8
 1045              		.cfi_offset 14, -4
 1046              		.loc 1 571 0
 1047 03a2 124C     		ldr	r4, .L80
 1048 03a4 A069     		ldr	r0, [r4, #24]
 1049              	.LVL107:
 1050              	.LBB139:
 1051              	.LBB140:
 1052              		.loc 2 607 0
 1053 03a6 2368     		ldr	r3, [r4]
 1054              	.LVL108:
 1055              		.loc 2 609 0
 1056 03a8 1A68     		ldr	r2, [r3]
 1057 03aa 2260     		str	r2, [r4]
 1058              		.loc 2 610 0
 1059 03ac 5460     		str	r4, [r2, #4]
 1060              	.LVL109:
 1061              	.LBE140:
 1062              	.LBE139:
 1063              		.loc 1 574 0
 1064 03ae A361     		str	r3, [r4, #24]
 1065              		.loc 1 575 0
 1066 03b0 0122     		movs	r2, #1
 1067 03b2 83F82020 		strb	r2, [r3, #32]
 1068              		.loc 1 602 0
ARM GAS  C:\Users\RAKIBU~1\AppData\Local\Temp\ccvA68NI.s 			page 20


 1069 03b6 FFF7FEFF 		bl	chSchReadyAheadI
 1070              	.LVL110:
 1071 03ba 0546     		mov	r5, r0
 1072              	.LVL111:
 1073              		.loc 1 606 0
 1074 03bc 0146     		mov	r1, r0
 1075 03be A069     		ldr	r0, [r4, #24]
 1076              	.LVL112:
 1077 03c0 FFF7FEFF 		bl	_trace_switch
 1078              	.LVL113:
 1079 03c4 2946     		mov	r1, r5
 1080 03c6 A069     		ldr	r0, [r4, #24]
 1081 03c8 FFF7FEFF 		bl	_stats_ctxswc
 1082              	.LVL114:
 1083              	.LBB141:
 1084              	.LBB142:
 1085              	.LBB143:
 1086              		.loc 3 251 0
 1087              		.syntax unified
 1088              	@ 251 "../../../ChibiOSRepo/chibios191/os/common/ext/ARM/CMSIS/Core/Include/cmsis_gcc.h" 1
 1089 03cc EFF30983 		MRS r3, psp
 1090              	@ 0 "" 2
 1091              	.LVL115:
 1092              		.thumb
 1093              		.syntax unified
 1094              	.LBE143:
 1095              	.LBE142:
 1096              		.loc 1 606 0
 1097 03d0 243B     		subs	r3, r3, #36
 1098              	.LVL116:
 1099 03d2 EA69     		ldr	r2, [r5, #28]
 1100 03d4 9342     		cmp	r3, r2
 1101 03d6 05D3     		bcc	.L79
 1102              	.LVL117:
 1103              	.L77:
 1104              		.loc 1 606 0 is_stmt 0 discriminator 3
 1105 03d8 2946     		mov	r1, r5
 1106 03da 044B     		ldr	r3, .L80
 1107 03dc 9869     		ldr	r0, [r3, #24]
 1108 03de FFF7FEFF 		bl	_port_switch
 1109              	.LVL118:
 1110              	.LBE141:
 1111              		.loc 1 607 0 is_stmt 1 discriminator 3
 1112 03e2 38BD     		pop	{r3, r4, r5, pc}
 1113              	.LVL119:
 1114              	.L79:
 1115              	.LBB144:
 1116              		.loc 1 606 0 discriminator 1
 1117 03e4 0248     		ldr	r0, .L80+4
 1118 03e6 FFF7FEFF 		bl	chSysHalt
 1119              	.LVL120:
 1120 03ea F5E7     		b	.L77
 1121              	.L81:
 1122              		.align	2
 1123              	.L80:
 1124 03ec 00000000 		.word	ch
 1125 03f0 00000000 		.word	.LC0
ARM GAS  C:\Users\RAKIBU~1\AppData\Local\Temp\ccvA68NI.s 			page 21


 1126              	.LBE144:
 1127              		.cfi_endproc
 1128              	.LFE306:
 1129              		.size	chSchDoReschedule, .-chSchDoReschedule
 1130              		.comm	ch,2288,8
 1131              		.section	.rodata
 1132              		.align	2
 1133              		.set	.LANCHOR0,. + 0
 1134              		.type	__func__.7111, %object
 1135              		.size	__func__.7111, 12
 1136              	__func__.7111:
 1137 0000 63685363 		.ascii	"chSchReadyI\000"
 1137      68526561 
 1137      64794900 
 1138              		.type	__func__.7118, %object
 1139              		.size	__func__.7118, 17
 1140              	__func__.7118:
 1141 000c 63685363 		.ascii	"chSchReadyAheadI\000"
 1141      68526561 
 1141      64794168 
 1141      65616449 
 1141      00
 1142 001d 000000   		.space	3
 1143              		.type	__func__.7147, %object
 1144              		.size	__func__.7147, 13
 1145              	__func__.7147:
 1146 0020 63685363 		.ascii	"chSchWakeupS\000"
 1146      6857616B 
 1146      65757053 
 1146      00
 1147              		.section	.rodata.str1.4,"aMS",%progbits,1
 1148              		.align	2
 1149              	.LC0:
 1150 0000 73746163 		.ascii	"stack overflow\000"
 1150      6B206F76 
 1150      6572666C 
 1150      6F7700
 1151              		.text
 1152              	.Letext0:
 1153              		.file 7 "c:\\chibistudio\\tools\\gnu tools arm embedded\\7.0 2017q4\\lib\\gcc\\arm-none-eabi\\7.2.
 1154              		.file 8 "c:\\chibistudio\\tools\\gnu tools arm embedded\\7.0 2017q4\\arm-none-eabi\\include\\machi
 1155              		.file 9 "c:\\chibistudio\\tools\\gnu tools arm embedded\\7.0 2017q4\\arm-none-eabi\\include\\sys\\
 1156              		.file 10 "../../../ChibiOSRepo/chibios191/os/common/ports/ARMCMx/compilers/GCC/chtypes.h"
 1157              		.file 11 "../../../ChibiOSRepo/chibios191/os/rt/include/chsystypes.h"
 1158              		.file 12 "../../../ChibiOSRepo/chibios191/os/rt/include/chtime.h"
 1159              		.file 13 "../../../ChibiOSRepo/chibios191/os/common/ext/ARM/CMSIS/Core/Include/core_cm4.h"
 1160              		.file 14 "../../../ChibiOSRepo/chibios191/os/common/ext/ST/STM32F4xx/system_stm32f4xx.h"
 1161              		.file 15 "../../../ChibiOSRepo/chibios191/os/common/ports/ARMCMx/chcore.h"
 1162              		.file 16 "../../../ChibiOSRepo/chibios191/os/common/ports/ARMCMx/chcore_v7m.h"
 1163              		.file 17 "../../../ChibiOSRepo/chibios191/os/rt/include/chtrace.h"
 1164              		.file 18 "../../../ChibiOSRepo/chibios191/os/rt/include/chtm.h"
 1165              		.file 19 "../../../ChibiOSRepo/chibios191/os/rt/include/chstats.h"
 1166              		.file 20 "../../../ChibiOSRepo/chibios191/os/rt/include/chmtx.h"
 1167              		.file 21 "../../../ChibiOSRepo/chibios191/os/rt/include/chregistry.h"
 1168              		.file 22 "../../../ChibiOSRepo/chibios191/os/oslib/include/chmemcore.h"
 1169              		.file 23 "../../../ChibiOSRepo/chibios191/os/oslib/include/chmempools.h"
 1170              		.file 24 "../../../ChibiOSRepo/chibios191/os/oslib/include/chfactory.h"
ARM GAS  C:\Users\RAKIBU~1\AppData\Local\Temp\ccvA68NI.s 			page 22


 1171              		.file 25 "../../../ChibiOSRepo/chibios191/os/rt/include/ch.h"
 1172              		.file 26 "../../../ChibiOSRepo/chibios191/os/rt/include/chdebug.h"