ARM GAS  C:\Users\RAKIBU~1\AppData\Local\Temp\ccsGZEMI.s 			page 1


   1              		.cpu cortex-m4
   2              		.eabi_attribute 20, 1
   3              		.eabi_attribute 21, 1
   4              		.eabi_attribute 23, 3
   5              		.eabi_attribute 24, 1
   6              		.eabi_attribute 25, 1
   7              		.eabi_attribute 26, 1
   8              		.eabi_attribute 30, 1
   9              		.eabi_attribute 34, 1
  10              		.eabi_attribute 18, 4
  11              		.file	"chthreads.c"
  12              		.text
  13              	.Ltext0:
  14              		.cfi_sections	.debug_frame
  15              		.align	1
  16              		.p2align 4,,15
  17              		.global	_thread_init
  18              		.syntax unified
  19              		.thumb
  20              		.thumb_func
  21              		.fpu softvfp
  22              		.type	_thread_init, %function
  23              	_thread_init:
  24              	.LFB295:
  25              		.file 1 "../../../ChibiOSRepo/chibios191/os/rt/src/chthreads.c"
  26              		.loc 1 88 0
  27              		.cfi_startproc
  28              		@ args = 0, pretend = 0, frame = 0
  29              		@ frame_needed = 0, uses_anonymous_args = 0
  30              	.LVL0:
  31 0000 10B5     		push	{r4, lr}
  32              		.cfi_def_cfa_offset 8
  33              		.cfi_offset 4, -8
  34              		.cfi_offset 14, -4
  35 0002 0446     		mov	r4, r0
  36              		.loc 1 90 0
  37 0004 8260     		str	r2, [r0, #8]
  38              		.loc 1 91 0
  39 0006 0223     		movs	r3, #2
  40 0008 80F82030 		strb	r3, [r0, #32]
  41              		.loc 1 92 0
  42 000c 0023     		movs	r3, #0
  43 000e 80F82130 		strb	r3, [r0, #33]
  44              		.loc 1 97 0
  45 0012 C263     		str	r2, [r0, #60]
  46              		.loc 1 98 0
  47 0014 8363     		str	r3, [r0, #56]
  48              		.loc 1 101 0
  49 0016 4363     		str	r3, [r0, #52]
  50              		.loc 1 107 0
  51 0018 0123     		movs	r3, #1
  52 001a 80F82230 		strb	r3, [r0, #34]
  53              		.loc 1 108 0
  54 001e 8161     		str	r1, [r0, #24]
  55              		.loc 1 109 0
  56 0020 084B     		ldr	r3, .L3
  57 0022 0361     		str	r3, [r0, #16]
ARM GAS  C:\Users\RAKIBU~1\AppData\Local\Temp\ccsGZEMI.s 			page 2


  58 0024 5A69     		ldr	r2, [r3, #20]
  59              	.LVL1:
  60 0026 4261     		str	r2, [r0, #20]
  61 0028 1061     		str	r0, [r2, #16]
  62              	.LVL2:
  63 002a 5861     		str	r0, [r3, #20]
  64              		.loc 1 114 0
  65 002c 00F12803 		add	r3, r0, #40
  66              	.LVL3:
  67              	.LBB143:
  68              	.LBB144:
  69              		.file 2 "../../../ChibiOSRepo/chibios191/os/rt/include/chschd.h"
  70              		.loc 2 501 0
  71 0030 8362     		str	r3, [r0, #40]
  72              	.LVL4:
  73              	.LBE144:
  74              	.LBE143:
  75              		.loc 1 117 0
  76 0032 00F12C03 		add	r3, r0, #44
  77              	.LVL5:
  78              	.LBB145:
  79              	.LBB146:
  80              		.loc 2 539 0
  81 0036 C362     		str	r3, [r0, #44]
  82              		.loc 2 540 0
  83 0038 0363     		str	r3, [r0, #48]
  84              	.LVL6:
  85              	.LBE146:
  86              	.LBE145:
  87              		.loc 1 120 0
  88 003a 4830     		adds	r0, r0, #72
  89              	.LVL7:
  90 003c FFF7FEFF 		bl	chTMObjectInit
  91              	.LVL8:
  92              		.loc 1 124 0
  93 0040 2046     		mov	r0, r4
  94 0042 10BD     		pop	{r4, pc}
  95              	.LVL9:
  96              	.L4:
  97              		.align	2
  98              	.L3:
  99 0044 00000000 		.word	ch
 100              		.cfi_endproc
 101              	.LFE295:
 102              		.size	_thread_init, .-_thread_init
 103              		.align	1
 104 0048 AFF30080 		.p2align 4,,15
 104      AFF30080 
 105              		.global	_thread_memfill
 106              		.syntax unified
 107              		.thumb
 108              		.thumb_func
 109              		.fpu softvfp
 110              		.type	_thread_memfill, %function
 111              	_thread_memfill:
 112              	.LFB296:
 113              		.loc 1 136 0
ARM GAS  C:\Users\RAKIBU~1\AppData\Local\Temp\ccsGZEMI.s 			page 3


 114              		.cfi_startproc
 115              		@ args = 0, pretend = 0, frame = 0
 116              		@ frame_needed = 0, uses_anonymous_args = 0
 117              		@ link register save eliminated.
 118              	.LVL10:
 119              		.loc 1 138 0
 120 0050 01E0     		b	.L6
 121              	.L7:
 122              	.LVL11:
 123              		.loc 1 139 0
 124 0052 0270     		strb	r2, [r0]
 125 0054 0130     		adds	r0, r0, #1
 126              	.LVL12:
 127              	.L6:
 128              		.loc 1 138 0
 129 0056 8842     		cmp	r0, r1
 130 0058 FBD3     		bcc	.L7
 131              		.loc 1 141 0
 132 005a 7047     		bx	lr
 133              		.cfi_endproc
 134              	.LFE296:
 135              		.size	_thread_memfill, .-_thread_memfill
 136              		.align	1
 137 005c AFF30080 		.p2align 4,,15
 138              		.global	chThdCreateSuspendedI
 139              		.syntax unified
 140              		.thumb
 141              		.thumb_func
 142              		.fpu softvfp
 143              		.type	chThdCreateSuspendedI, %function
 144              	chThdCreateSuspendedI:
 145              	.LFB297:
 146              		.loc 1 167 0
 147              		.cfi_startproc
 148              		@ args = 0, pretend = 0, frame = 0
 149              		@ frame_needed = 0, uses_anonymous_args = 0
 150              	.LVL13:
 151 0060 10B5     		push	{r4, lr}
 152              		.cfi_def_cfa_offset 8
 153              		.cfi_offset 4, -8
 154              		.cfi_offset 14, -4
 155 0062 0446     		mov	r4, r0
 156              		.loc 1 170 0
 157 0064 FFF7FEFF 		bl	chDbgCheckClassI
 158              	.LVL14:
 159              		.loc 1 171 0
 160 0068 74B3     		cbz	r4, .L15
 161              	.L9:
 162              		.loc 1 172 0 discriminator 1
 163 006a 6368     		ldr	r3, [r4, #4]
 164 006c 13F0070F 		tst	r3, #7
 165 0070 08D1     		bne	.L10
 166              		.loc 1 172 0 is_stmt 0 discriminator 3
 167 0072 A268     		ldr	r2, [r4, #8]
 168 0074 12F0070F 		tst	r2, #7
 169 0078 04D1     		bne	.L10
 170              		.loc 1 172 0 discriminator 5
ARM GAS  C:\Users\RAKIBU~1\AppData\Local\Temp\ccsGZEMI.s 			page 4


 171 007a 9342     		cmp	r3, r2
 172 007c 02D2     		bcs	.L10
 173              		.loc 1 172 0 discriminator 7
 174 007e D31A     		subs	r3, r2, r3
 175 0080 E72B     		cmp	r3, #231
 176 0082 02D8     		bhi	.L11
 177              	.L10:
 178              		.loc 1 172 0 discriminator 8
 179 0084 1248     		ldr	r0, .L16
 180 0086 FFF7FEFF 		bl	chSysHalt
 181              	.LVL15:
 182              	.L11:
 183              		.loc 1 176 0 is_stmt 1 discriminator 1
 184 008a E368     		ldr	r3, [r4, #12]
 185 008c FF2B     		cmp	r3, #255
 186 008e 01D8     		bhi	.L12
 187              		.loc 1 176 0 is_stmt 0 discriminator 3
 188 0090 2369     		ldr	r3, [r4, #16]
 189 0092 13B9     		cbnz	r3, .L13
 190              	.L12:
 191              		.loc 1 176 0 discriminator 4
 192 0094 0E48     		ldr	r0, .L16
 193 0096 FFF7FEFF 		bl	chSysHalt
 194              	.LVL16:
 195              	.L13:
 196              		.loc 1 181 0 is_stmt 1
 197 009a A068     		ldr	r0, [r4, #8]
 198              	.LVL17:
 199              		.loc 1 186 0
 200 009c 6368     		ldr	r3, [r4, #4]
 201 009e 40F8443C 		str	r3, [r0, #-68]
 202              		.loc 1 190 0
 203 00a2 A0F18403 		sub	r3, r0, #132
 204 00a6 40F8543C 		str	r3, [r0, #-84]
 205 00aa 2269     		ldr	r2, [r4, #16]
 206 00ac 40F8842C 		str	r2, [r0, #-132]
 207 00b0 6269     		ldr	r2, [r4, #20]
 208 00b2 40F8802C 		str	r2, [r0, #-128]
 209 00b6 074A     		ldr	r2, .L16+4
 210 00b8 40F8642C 		str	r2, [r0, #-100]
 211              		.loc 1 193 0
 212 00bc E268     		ldr	r2, [r4, #12]
 213 00be 2168     		ldr	r1, [r4]
 214 00c0 6038     		subs	r0, r0, #96
 215              	.LVL18:
 216 00c2 FFF7FEFF 		bl	_thread_init
 217              	.LVL19:
 218              		.loc 1 194 0
 219 00c6 10BD     		pop	{r4, pc}
 220              	.LVL20:
 221              	.L15:
 222              		.loc 1 171 0 discriminator 2
 223 00c8 0148     		ldr	r0, .L16
 224 00ca FFF7FEFF 		bl	chSysHalt
 225              	.LVL21:
 226 00ce CCE7     		b	.L9
 227              	.L17:
ARM GAS  C:\Users\RAKIBU~1\AppData\Local\Temp\ccsGZEMI.s 			page 5


 228              		.align	2
 229              	.L16:
 230 00d0 00000000 		.word	.LANCHOR0
 231 00d4 00000000 		.word	_port_thread_start
 232              		.cfi_endproc
 233              	.LFE297:
 234              		.size	chThdCreateSuspendedI, .-chThdCreateSuspendedI
 235              		.align	1
 236 00d8 AFF30080 		.p2align 4,,15
 236      AFF30080 
 237              		.global	chThdCreateSuspended
 238              		.syntax unified
 239              		.thumb
 240              		.thumb_func
 241              		.fpu softvfp
 242              		.type	chThdCreateSuspended, %function
 243              	chThdCreateSuspended:
 244              	.LFB298:
 245              		.loc 1 216 0
 246              		.cfi_startproc
 247              		@ args = 0, pretend = 0, frame = 0
 248              		@ frame_needed = 0, uses_anonymous_args = 0
 249              	.LVL22:
 250 00e0 10B5     		push	{r4, lr}
 251              		.cfi_def_cfa_offset 8
 252              		.cfi_offset 4, -8
 253              		.cfi_offset 14, -4
 254 00e2 0446     		mov	r4, r0
 255              		.loc 1 220 0
 256 00e4 4068     		ldr	r0, [r0, #4]
 257              	.LVL23:
 258 00e6 FFF7FEFF 		bl	chRegFindThreadByWorkingArea
 259              	.LVL24:
 260 00ea 10B1     		cbz	r0, .L19
 261              		.loc 1 220 0 is_stmt 0 discriminator 2
 262 00ec 1448     		ldr	r0, .L23
 263 00ee FFF7FEFF 		bl	chSysHalt
 264              	.LVL25:
 265              	.L19:
 266              		.loc 1 225 0 is_stmt 1
 267 00f2 5522     		movs	r2, #85
 268 00f4 A168     		ldr	r1, [r4, #8]
 269 00f6 6068     		ldr	r0, [r4, #4]
 270 00f8 FFF7FEFF 		bl	_thread_memfill
 271              	.LVL26:
 272              	.LBB157:
 273              	.LBB158:
 274              	.LBB159:
 275              	.LBB160:
 276              	.LBB161:
 277              		.file 3 "../../../ChibiOSRepo/chibios191/os/common/ext/ARM/CMSIS/Core/Include/cmsis_gcc.h"
 278              		.loc 3 493 0
 279 00fc 2023     		movs	r3, #32
 280              		.syntax unified
 281              	@ 493 "../../../ChibiOSRepo/chibios191/os/common/ext/ARM/CMSIS/Core/Include/cmsis_gcc.h" 1
 282 00fe 83F31188 		MSR basepri, r3
 283              	@ 0 "" 2
ARM GAS  C:\Users\RAKIBU~1\AppData\Local\Temp\ccsGZEMI.s 			page 6


 284              	.LVL27:
 285              		.thumb
 286              		.syntax unified
 287              	.LBE161:
 288              	.LBE160:
 289              	.LBE159:
 290              		.file 4 "../../../ChibiOSRepo/chibios191/os/rt/include/chsys.h"
 291              		.loc 4 356 0
 292 0102 FFF7FEFF 		bl	_stats_start_measure_crit_thd
 293              	.LVL28:
 294              		.loc 4 357 0
 295 0106 FFF7FEFF 		bl	_dbg_check_lock
 296              	.LVL29:
 297              	.LBE158:
 298              	.LBE157:
 299              		.loc 1 231 0
 300 010a 2046     		mov	r0, r4
 301 010c FFF7FEFF 		bl	chThdCreateSuspendedI
 302              	.LVL30:
 303 0110 0446     		mov	r4, r0
 304              	.LVL31:
 305              	.LBB162:
 306              	.LBB163:
 307              		.loc 4 367 0
 308 0112 FFF7FEFF 		bl	_dbg_check_unlock
 309              	.LVL32:
 310              		.loc 4 368 0
 311 0116 FFF7FEFF 		bl	_stats_stop_measure_crit_thd
 312              	.LVL33:
 313              		.loc 4 374 0
 314 011a 0A4B     		ldr	r3, .L23+4
 315 011c 1A68     		ldr	r2, [r3]
 316 011e 9A42     		cmp	r2, r3
 317 0120 04D0     		beq	.L20
 318 0122 9B69     		ldr	r3, [r3, #24]
 319 0124 9968     		ldr	r1, [r3, #8]
 320 0126 9368     		ldr	r3, [r2, #8]
 321 0128 9942     		cmp	r1, r3
 322 012a 04D3     		bcc	.L22
 323              	.L20:
 324              	.LVL34:
 325              	.LBB164:
 326              	.LBB165:
 327              	.LBB166:
 328              		.loc 3 493 0
 329 012c 0023     		movs	r3, #0
 330              		.syntax unified
 331              	@ 493 "../../../ChibiOSRepo/chibios191/os/common/ext/ARM/CMSIS/Core/Include/cmsis_gcc.h" 1
 332 012e 83F31188 		MSR basepri, r3
 333              	@ 0 "" 2
 334              	.LVL35:
 335              		.thumb
 336              		.syntax unified
 337              	.LBE166:
 338              	.LBE165:
 339              	.LBE164:
 340              	.LBE163:
ARM GAS  C:\Users\RAKIBU~1\AppData\Local\Temp\ccsGZEMI.s 			page 7


 341              	.LBE162:
 342              		.loc 1 235 0
 343 0132 2046     		mov	r0, r4
 344 0134 10BD     		pop	{r4, pc}
 345              	.LVL36:
 346              	.L22:
 347              	.LBB168:
 348              	.LBB167:
 349              		.loc 4 374 0
 350 0136 0448     		ldr	r0, .L23+8
 351 0138 FFF7FEFF 		bl	chSysHalt
 352              	.LVL37:
 353 013c F6E7     		b	.L20
 354              	.L24:
 355 013e 00BF     		.align	2
 356              	.L23:
 357 0140 18000000 		.word	.LANCHOR0+24
 358 0144 00000000 		.word	ch
 359 0148 30000000 		.word	.LANCHOR0+48
 360              	.LBE167:
 361              	.LBE168:
 362              		.cfi_endproc
 363              	.LFE298:
 364              		.size	chThdCreateSuspended, .-chThdCreateSuspended
 365              		.align	1
 366 014c AFF30080 		.p2align 4,,15
 367              		.global	chThdCreateI
 368              		.syntax unified
 369              		.thumb
 370              		.thumb_func
 371              		.fpu softvfp
 372              		.type	chThdCreateI, %function
 373              	chThdCreateI:
 374              	.LFB299:
 375              		.loc 1 259 0
 376              		.cfi_startproc
 377              		@ args = 0, pretend = 0, frame = 0
 378              		@ frame_needed = 0, uses_anonymous_args = 0
 379              	.LVL38:
 380 0150 08B5     		push	{r3, lr}
 381              		.cfi_def_cfa_offset 8
 382              		.cfi_offset 3, -8
 383              		.cfi_offset 14, -4
 384              		.loc 1 261 0
 385 0152 FFF7FEFF 		bl	chThdCreateSuspendedI
 386              	.LVL39:
 387 0156 FFF7FEFF 		bl	chSchReadyI
 388              	.LVL40:
 389              		.loc 1 262 0
 390 015a 08BD     		pop	{r3, pc}
 391              		.cfi_endproc
 392              	.LFE299:
 393              		.size	chThdCreateI, .-chThdCreateI
 394              		.align	1
 395 015c AFF30080 		.p2align 4,,15
 396              		.global	chThdCreate
 397              		.syntax unified
ARM GAS  C:\Users\RAKIBU~1\AppData\Local\Temp\ccsGZEMI.s 			page 8


 398              		.thumb
 399              		.thumb_func
 400              		.fpu softvfp
 401              		.type	chThdCreate, %function
 402              	chThdCreate:
 403              	.LFB300:
 404              		.loc 1 280 0
 405              		.cfi_startproc
 406              		@ args = 0, pretend = 0, frame = 0
 407              		@ frame_needed = 0, uses_anonymous_args = 0
 408              	.LVL41:
 409 0160 10B5     		push	{r4, lr}
 410              		.cfi_def_cfa_offset 8
 411              		.cfi_offset 4, -8
 412              		.cfi_offset 14, -4
 413 0162 0446     		mov	r4, r0
 414              		.loc 1 285 0
 415 0164 4068     		ldr	r0, [r0, #4]
 416              	.LVL42:
 417 0166 FFF7FEFF 		bl	chRegFindThreadByWorkingArea
 418              	.LVL43:
 419 016a 10B1     		cbz	r0, .L28
 420              		.loc 1 285 0 is_stmt 0 discriminator 2
 421 016c 1548     		ldr	r0, .L32
 422 016e FFF7FEFF 		bl	chSysHalt
 423              	.LVL44:
 424              	.L28:
 425              		.loc 1 290 0 is_stmt 1
 426 0172 5522     		movs	r2, #85
 427 0174 A168     		ldr	r1, [r4, #8]
 428 0176 6068     		ldr	r0, [r4, #4]
 429 0178 FFF7FEFF 		bl	_thread_memfill
 430              	.LVL45:
 431              	.LBB179:
 432              	.LBB180:
 433              	.LBB181:
 434              	.LBB182:
 435              	.LBB183:
 436              		.loc 3 493 0
 437 017c 2023     		movs	r3, #32
 438              		.syntax unified
 439              	@ 493 "../../../ChibiOSRepo/chibios191/os/common/ext/ARM/CMSIS/Core/Include/cmsis_gcc.h" 1
 440 017e 83F31188 		MSR basepri, r3
 441              	@ 0 "" 2
 442              	.LVL46:
 443              		.thumb
 444              		.syntax unified
 445              	.LBE183:
 446              	.LBE182:
 447              	.LBE181:
 448              		.loc 4 356 0
 449 0182 FFF7FEFF 		bl	_stats_start_measure_crit_thd
 450              	.LVL47:
 451              		.loc 4 357 0
 452 0186 FFF7FEFF 		bl	_dbg_check_lock
 453              	.LVL48:
 454              	.LBE180:
ARM GAS  C:\Users\RAKIBU~1\AppData\Local\Temp\ccsGZEMI.s 			page 9


 455              	.LBE179:
 456              		.loc 1 296 0
 457 018a 2046     		mov	r0, r4
 458 018c FFF7FEFF 		bl	chThdCreateSuspendedI
 459              	.LVL49:
 460 0190 0446     		mov	r4, r0
 461              	.LVL50:
 462              		.loc 1 297 0
 463 0192 0021     		movs	r1, #0
 464 0194 FFF7FEFF 		bl	chSchWakeupS
 465              	.LVL51:
 466              	.LBB184:
 467              	.LBB185:
 468              		.loc 4 367 0
 469 0198 FFF7FEFF 		bl	_dbg_check_unlock
 470              	.LVL52:
 471              		.loc 4 368 0
 472 019c FFF7FEFF 		bl	_stats_stop_measure_crit_thd
 473              	.LVL53:
 474              		.loc 4 374 0
 475 01a0 094B     		ldr	r3, .L32+4
 476 01a2 1A68     		ldr	r2, [r3]
 477 01a4 9A42     		cmp	r2, r3
 478 01a6 04D0     		beq	.L29
 479 01a8 9B69     		ldr	r3, [r3, #24]
 480 01aa 9968     		ldr	r1, [r3, #8]
 481 01ac 9368     		ldr	r3, [r2, #8]
 482 01ae 9942     		cmp	r1, r3
 483 01b0 04D3     		bcc	.L31
 484              	.L29:
 485              	.LVL54:
 486              	.LBB186:
 487              	.LBB187:
 488              	.LBB188:
 489              		.loc 3 493 0
 490 01b2 0023     		movs	r3, #0
 491              		.syntax unified
 492              	@ 493 "../../../ChibiOSRepo/chibios191/os/common/ext/ARM/CMSIS/Core/Include/cmsis_gcc.h" 1
 493 01b4 83F31188 		MSR basepri, r3
 494              	@ 0 "" 2
 495              	.LVL55:
 496              		.thumb
 497              		.syntax unified
 498              	.LBE188:
 499              	.LBE187:
 500              	.LBE186:
 501              	.LBE185:
 502              	.LBE184:
 503              		.loc 1 301 0
 504 01b8 2046     		mov	r0, r4
 505 01ba 10BD     		pop	{r4, pc}
 506              	.LVL56:
 507              	.L31:
 508              	.LBB190:
 509              	.LBB189:
 510              		.loc 4 374 0
 511 01bc 0348     		ldr	r0, .L32+8
ARM GAS  C:\Users\RAKIBU~1\AppData\Local\Temp\ccsGZEMI.s 			page 10


 512 01be FFF7FEFF 		bl	chSysHalt
 513              	.LVL57:
 514 01c2 F6E7     		b	.L29
 515              	.L33:
 516              		.align	2
 517              	.L32:
 518 01c4 3C000000 		.word	.LANCHOR0+60
 519 01c8 00000000 		.word	ch
 520 01cc 30000000 		.word	.LANCHOR0+48
 521              	.LBE189:
 522              	.LBE190:
 523              		.cfi_endproc
 524              	.LFE300:
 525              		.size	chThdCreate, .-chThdCreate
 526              		.align	1
 527              		.p2align 4,,15
 528              		.global	chThdCreateStatic
 529              		.syntax unified
 530              		.thumb
 531              		.thumb_func
 532              		.fpu softvfp
 533              		.type	chThdCreateStatic, %function
 534              	chThdCreateStatic:
 535              	.LFB301:
 536              		.loc 1 324 0
 537              		.cfi_startproc
 538              		@ args = 4, pretend = 0, frame = 0
 539              		@ frame_needed = 0, uses_anonymous_args = 0
 540              	.LVL58:
 541 01d0 F8B5     		push	{r3, r4, r5, r6, r7, lr}
 542              		.cfi_def_cfa_offset 24
 543              		.cfi_offset 3, -24
 544              		.cfi_offset 4, -20
 545              		.cfi_offset 5, -16
 546              		.cfi_offset 6, -12
 547              		.cfi_offset 7, -8
 548              		.cfi_offset 14, -4
 549 01d2 0C46     		mov	r4, r1
 550 01d4 1646     		mov	r6, r2
 551 01d6 1F46     		mov	r7, r3
 552              		.loc 1 327 0
 553 01d8 0546     		mov	r5, r0
 554 01da 50B1     		cbz	r0, .L35
 555              		.loc 1 327 0 is_stmt 0 discriminator 3
 556 01dc 10F0070F 		tst	r0, #7
 557 01e0 07D1     		bne	.L35
 558              		.loc 1 327 0 discriminator 5
 559 01e2 E729     		cmp	r1, #231
 560 01e4 05D9     		bls	.L35
 561              		.loc 1 327 0 discriminator 7
 562 01e6 11F0070F 		tst	r1, #7
 563 01ea 02D1     		bne	.L35
 564              		.loc 1 327 0 discriminator 9
 565 01ec FF2A     		cmp	r2, #255
 566 01ee 00D8     		bhi	.L35
 567              		.loc 1 327 0 discriminator 11
 568 01f0 13B9     		cbnz	r3, .L36
ARM GAS  C:\Users\RAKIBU~1\AppData\Local\Temp\ccsGZEMI.s 			page 11


 569              	.L35:
 570              		.loc 1 327 0 discriminator 12
 571 01f2 2148     		ldr	r0, .L41
 572              	.LVL59:
 573 01f4 FFF7FEFF 		bl	chSysHalt
 574              	.LVL60:
 575              	.L36:
 576              		.loc 1 335 0 is_stmt 1 discriminator 1
 577 01f8 2846     		mov	r0, r5
 578 01fa FFF7FEFF 		bl	chRegFindThreadByWorkingArea
 579              	.LVL61:
 580 01fe 10B1     		cbz	r0, .L37
 581              		.loc 1 335 0 is_stmt 0 discriminator 2
 582 0200 1D48     		ldr	r0, .L41
 583 0202 FFF7FEFF 		bl	chSysHalt
 584              	.LVL62:
 585              	.L37:
 586              		.loc 1 340 0 is_stmt 1
 587 0206 5522     		movs	r2, #85
 588 0208 2919     		adds	r1, r5, r4
 589 020a 2846     		mov	r0, r5
 590 020c FFF7FEFF 		bl	_thread_memfill
 591              	.LVL63:
 592              	.LBB201:
 593              	.LBB202:
 594              	.LBB203:
 595              	.LBB204:
 596              	.LBB205:
 597              		.loc 3 493 0
 598 0210 2023     		movs	r3, #32
 599              		.syntax unified
 600              	@ 493 "../../../ChibiOSRepo/chibios191/os/common/ext/ARM/CMSIS/Core/Include/cmsis_gcc.h" 1
 601 0212 83F31188 		MSR basepri, r3
 602              	@ 0 "" 2
 603              	.LVL64:
 604              		.thumb
 605              		.syntax unified
 606              	.LBE205:
 607              	.LBE204:
 608              	.LBE203:
 609              		.loc 4 356 0
 610 0216 FFF7FEFF 		bl	_stats_start_measure_crit_thd
 611              	.LVL65:
 612              		.loc 4 357 0
 613 021a FFF7FEFF 		bl	_dbg_check_lock
 614              	.LVL66:
 615              	.LBE202:
 616              	.LBE201:
 617              		.loc 1 350 0
 618 021e A4F16000 		sub	r0, r4, #96
 619 0222 2844     		add	r0, r0, r5
 620              	.LVL67:
 621              		.loc 1 355 0
 622 0224 C561     		str	r5, [r0, #28]
 623              		.loc 1 359 0
 624 0226 A0F12403 		sub	r3, r0, #36
 625 022a C360     		str	r3, [r0, #12]
ARM GAS  C:\Users\RAKIBU~1\AppData\Local\Temp\ccsGZEMI.s 			page 12


 626 022c 40F8247C 		str	r7, [r0, #-36]
 627 0230 069A     		ldr	r2, [sp, #24]
 628 0232 40F8202C 		str	r2, [r0, #-32]
 629 0236 114A     		ldr	r2, .L41+4
 630 0238 40F8042C 		str	r2, [r0, #-4]
 631              		.loc 1 361 0
 632 023c 3246     		mov	r2, r6
 633 023e 1049     		ldr	r1, .L41+8
 634 0240 FFF7FEFF 		bl	_thread_init
 635              	.LVL68:
 636 0244 0446     		mov	r4, r0
 637              	.LVL69:
 638              		.loc 1 364 0
 639 0246 0021     		movs	r1, #0
 640 0248 FFF7FEFF 		bl	chSchWakeupS
 641              	.LVL70:
 642              	.LBB206:
 643              	.LBB207:
 644              		.loc 4 367 0
 645 024c FFF7FEFF 		bl	_dbg_check_unlock
 646              	.LVL71:
 647              		.loc 4 368 0
 648 0250 FFF7FEFF 		bl	_stats_stop_measure_crit_thd
 649              	.LVL72:
 650              		.loc 4 374 0
 651 0254 0B4B     		ldr	r3, .L41+12
 652 0256 1A68     		ldr	r2, [r3]
 653 0258 9A42     		cmp	r2, r3
 654 025a 04D0     		beq	.L38
 655 025c 9B69     		ldr	r3, [r3, #24]
 656 025e 9968     		ldr	r1, [r3, #8]
 657 0260 9368     		ldr	r3, [r2, #8]
 658 0262 9942     		cmp	r1, r3
 659 0264 04D3     		bcc	.L40
 660              	.L38:
 661              	.LVL73:
 662              	.LBB208:
 663              	.LBB209:
 664              	.LBB210:
 665              		.loc 3 493 0
 666 0266 0023     		movs	r3, #0
 667              		.syntax unified
 668              	@ 493 "../../../ChibiOSRepo/chibios191/os/common/ext/ARM/CMSIS/Core/Include/cmsis_gcc.h" 1
 669 0268 83F31188 		MSR basepri, r3
 670              	@ 0 "" 2
 671              	.LVL74:
 672              		.thumb
 673              		.syntax unified
 674              	.LBE210:
 675              	.LBE209:
 676              	.LBE208:
 677              	.LBE207:
 678              	.LBE206:
 679              		.loc 1 368 0
 680 026c 2046     		mov	r0, r4
 681 026e F8BD     		pop	{r3, r4, r5, r6, r7, pc}
 682              	.LVL75:
ARM GAS  C:\Users\RAKIBU~1\AppData\Local\Temp\ccsGZEMI.s 			page 13


 683              	.L40:
 684              	.LBB212:
 685              	.LBB211:
 686              		.loc 4 374 0
 687 0270 0548     		ldr	r0, .L41+16
 688 0272 FFF7FEFF 		bl	chSysHalt
 689              	.LVL76:
 690 0276 F6E7     		b	.L38
 691              	.L42:
 692              		.align	2
 693              	.L41:
 694 0278 48000000 		.word	.LANCHOR0+72
 695 027c 00000000 		.word	_port_thread_start
 696 0280 00000000 		.word	.LC0
 697 0284 00000000 		.word	ch
 698 0288 30000000 		.word	.LANCHOR0+48
 699              	.LBE211:
 700              	.LBE212:
 701              		.cfi_endproc
 702              	.LFE301:
 703              		.size	chThdCreateStatic, .-chThdCreateStatic
 704              		.align	1
 705 028c AFF30080 		.p2align 4,,15
 706              		.global	chThdStart
 707              		.syntax unified
 708              		.thumb
 709              		.thumb_func
 710              		.fpu softvfp
 711              		.type	chThdStart, %function
 712              	chThdStart:
 713              	.LFB302:
 714              		.loc 1 379 0
 715              		.cfi_startproc
 716              		@ args = 0, pretend = 0, frame = 0
 717              		@ frame_needed = 0, uses_anonymous_args = 0
 718              	.LVL77:
 719 0290 10B5     		push	{r4, lr}
 720              		.cfi_def_cfa_offset 8
 721              		.cfi_offset 4, -8
 722              		.cfi_offset 14, -4
 723 0292 0446     		mov	r4, r0
 724              	.LVL78:
 725              	.LBB223:
 726              	.LBB224:
 727              	.LBB225:
 728              	.LBB226:
 729              	.LBB227:
 730              		.loc 3 493 0
 731 0294 2023     		movs	r3, #32
 732              		.syntax unified
 733              	@ 493 "../../../ChibiOSRepo/chibios191/os/common/ext/ARM/CMSIS/Core/Include/cmsis_gcc.h" 1
 734 0296 83F31188 		MSR basepri, r3
 735              	@ 0 "" 2
 736              	.LVL79:
 737              		.thumb
 738              		.syntax unified
 739              	.LBE227:
ARM GAS  C:\Users\RAKIBU~1\AppData\Local\Temp\ccsGZEMI.s 			page 14


 740              	.LBE226:
 741              	.LBE225:
 742              		.loc 4 356 0
 743 029a FFF7FEFF 		bl	_stats_start_measure_crit_thd
 744              	.LVL80:
 745              		.loc 4 357 0
 746 029e FFF7FEFF 		bl	_dbg_check_lock
 747              	.LVL81:
 748              	.LBE224:
 749              	.LBE223:
 750              		.loc 1 382 0
 751 02a2 94F82030 		ldrb	r3, [r4, #32]	@ zero_extendqisi2
 752 02a6 022B     		cmp	r3, #2
 753 02a8 02D0     		beq	.L44
 754              		.loc 1 382 0 is_stmt 0 discriminator 2
 755 02aa 0E48     		ldr	r0, .L48
 756 02ac FFF7FEFF 		bl	chSysHalt
 757              	.LVL82:
 758              	.L44:
 759              		.loc 1 383 0 is_stmt 1
 760 02b0 0021     		movs	r1, #0
 761 02b2 2046     		mov	r0, r4
 762 02b4 FFF7FEFF 		bl	chSchWakeupS
 763              	.LVL83:
 764              	.LBB228:
 765              	.LBB229:
 766              		.loc 4 367 0
 767 02b8 FFF7FEFF 		bl	_dbg_check_unlock
 768              	.LVL84:
 769              		.loc 4 368 0
 770 02bc FFF7FEFF 		bl	_stats_stop_measure_crit_thd
 771              	.LVL85:
 772              		.loc 4 374 0
 773 02c0 094B     		ldr	r3, .L48+4
 774 02c2 1A68     		ldr	r2, [r3]
 775 02c4 9A42     		cmp	r2, r3
 776 02c6 04D0     		beq	.L45
 777 02c8 9B69     		ldr	r3, [r3, #24]
 778 02ca 9968     		ldr	r1, [r3, #8]
 779 02cc 9368     		ldr	r3, [r2, #8]
 780 02ce 9942     		cmp	r1, r3
 781 02d0 04D3     		bcc	.L47
 782              	.L45:
 783              	.LVL86:
 784              	.LBB230:
 785              	.LBB231:
 786              	.LBB232:
 787              		.loc 3 493 0
 788 02d2 0023     		movs	r3, #0
 789              		.syntax unified
 790              	@ 493 "../../../ChibiOSRepo/chibios191/os/common/ext/ARM/CMSIS/Core/Include/cmsis_gcc.h" 1
 791 02d4 83F31188 		MSR basepri, r3
 792              	@ 0 "" 2
 793              	.LVL87:
 794              		.thumb
 795              		.syntax unified
 796              	.LBE232:
ARM GAS  C:\Users\RAKIBU~1\AppData\Local\Temp\ccsGZEMI.s 			page 15


 797              	.LBE231:
 798              	.LBE230:
 799              	.LBE229:
 800              	.LBE228:
 801              		.loc 1 387 0
 802 02d8 2046     		mov	r0, r4
 803 02da 10BD     		pop	{r4, pc}
 804              	.LVL88:
 805              	.L47:
 806              	.LBB234:
 807              	.LBB233:
 808              		.loc 4 374 0
 809 02dc 0348     		ldr	r0, .L48+8
 810 02de FFF7FEFF 		bl	chSysHalt
 811              	.LVL89:
 812 02e2 F6E7     		b	.L45
 813              	.L49:
 814              		.align	2
 815              	.L48:
 816 02e4 5C000000 		.word	.LANCHOR0+92
 817 02e8 00000000 		.word	ch
 818 02ec 30000000 		.word	.LANCHOR0+48
 819              	.LBE233:
 820              	.LBE234:
 821              		.cfi_endproc
 822              	.LFE302:
 823              		.size	chThdStart, .-chThdStart
 824              		.align	1
 825              		.p2align 4,,15
 826              		.global	chThdAddRef
 827              		.syntax unified
 828              		.thumb
 829              		.thumb_func
 830              		.fpu softvfp
 831              		.type	chThdAddRef, %function
 832              	chThdAddRef:
 833              	.LFB303:
 834              		.loc 1 401 0
 835              		.cfi_startproc
 836              		@ args = 0, pretend = 0, frame = 0
 837              		@ frame_needed = 0, uses_anonymous_args = 0
 838              	.LVL90:
 839 02f0 10B5     		push	{r4, lr}
 840              		.cfi_def_cfa_offset 8
 841              		.cfi_offset 4, -8
 842              		.cfi_offset 14, -4
 843 02f2 0446     		mov	r4, r0
 844              	.LVL91:
 845              	.LBB245:
 846              	.LBB246:
 847              	.LBB247:
 848              	.LBB248:
 849              	.LBB249:
 850              		.loc 3 493 0
 851 02f4 2023     		movs	r3, #32
 852              		.syntax unified
 853              	@ 493 "../../../ChibiOSRepo/chibios191/os/common/ext/ARM/CMSIS/Core/Include/cmsis_gcc.h" 1
ARM GAS  C:\Users\RAKIBU~1\AppData\Local\Temp\ccsGZEMI.s 			page 16


 854 02f6 83F31188 		MSR basepri, r3
 855              	@ 0 "" 2
 856              	.LVL92:
 857              		.thumb
 858              		.syntax unified
 859              	.LBE249:
 860              	.LBE248:
 861              	.LBE247:
 862              		.loc 4 356 0
 863 02fa FFF7FEFF 		bl	_stats_start_measure_crit_thd
 864              	.LVL93:
 865              		.loc 4 357 0
 866 02fe FFF7FEFF 		bl	_dbg_check_lock
 867              	.LVL94:
 868              	.LBE246:
 869              	.LBE245:
 870              		.loc 1 404 0
 871 0302 94F82230 		ldrb	r3, [r4, #34]	@ zero_extendqisi2
 872 0306 FF2B     		cmp	r3, #255
 873 0308 16D0     		beq	.L54
 874              	.L51:
 875              		.loc 1 405 0
 876 030a 94F82230 		ldrb	r3, [r4, #34]	@ zero_extendqisi2
 877 030e 0133     		adds	r3, r3, #1
 878 0310 84F82230 		strb	r3, [r4, #34]
 879              	.LBB250:
 880              	.LBB251:
 881              		.loc 4 367 0
 882 0314 FFF7FEFF 		bl	_dbg_check_unlock
 883              	.LVL95:
 884              		.loc 4 368 0
 885 0318 FFF7FEFF 		bl	_stats_stop_measure_crit_thd
 886              	.LVL96:
 887              		.loc 4 374 0
 888 031c 0A4B     		ldr	r3, .L56
 889 031e 1A68     		ldr	r2, [r3]
 890 0320 9A42     		cmp	r2, r3
 891 0322 04D0     		beq	.L52
 892 0324 9B69     		ldr	r3, [r3, #24]
 893 0326 9968     		ldr	r1, [r3, #8]
 894 0328 9368     		ldr	r3, [r2, #8]
 895 032a 9942     		cmp	r1, r3
 896 032c 08D3     		bcc	.L55
 897              	.L52:
 898              	.LVL97:
 899              	.LBB252:
 900              	.LBB253:
 901              	.LBB254:
 902              		.loc 3 493 0
 903 032e 0023     		movs	r3, #0
 904              		.syntax unified
 905              	@ 493 "../../../ChibiOSRepo/chibios191/os/common/ext/ARM/CMSIS/Core/Include/cmsis_gcc.h" 1
 906 0330 83F31188 		MSR basepri, r3
 907              	@ 0 "" 2
 908              	.LVL98:
 909              		.thumb
 910              		.syntax unified
ARM GAS  C:\Users\RAKIBU~1\AppData\Local\Temp\ccsGZEMI.s 			page 17


 911              	.LBE254:
 912              	.LBE253:
 913              	.LBE252:
 914              	.LBE251:
 915              	.LBE250:
 916              		.loc 1 409 0
 917 0334 2046     		mov	r0, r4
 918 0336 10BD     		pop	{r4, pc}
 919              	.LVL99:
 920              	.L54:
 921              		.loc 1 404 0 discriminator 2
 922 0338 0448     		ldr	r0, .L56+4
 923 033a FFF7FEFF 		bl	chSysHalt
 924              	.LVL100:
 925 033e E4E7     		b	.L51
 926              	.L55:
 927              	.LBB256:
 928              	.LBB255:
 929              		.loc 4 374 0
 930 0340 0348     		ldr	r0, .L56+8
 931 0342 FFF7FEFF 		bl	chSysHalt
 932              	.LVL101:
 933 0346 F2E7     		b	.L52
 934              	.L57:
 935              		.align	2
 936              	.L56:
 937 0348 00000000 		.word	ch
 938 034c 68000000 		.word	.LANCHOR0+104
 939 0350 30000000 		.word	.LANCHOR0+48
 940              	.LBE255:
 941              	.LBE256:
 942              		.cfi_endproc
 943              	.LFE303:
 944              		.size	chThdAddRef, .-chThdAddRef
 945              		.align	1
 946 0354 AFF30080 		.p2align 4,,15
 946      AFF30080 
 946      AFF30080 
 947              		.global	chThdRelease
 948              		.syntax unified
 949              		.thumb
 950              		.thumb_func
 951              		.fpu softvfp
 952              		.type	chThdRelease, %function
 953              	chThdRelease:
 954              	.LFB304:
 955              		.loc 1 427 0
 956              		.cfi_startproc
 957              		@ args = 0, pretend = 0, frame = 0
 958              		@ frame_needed = 0, uses_anonymous_args = 0
 959              	.LVL102:
 960 0360 10B5     		push	{r4, lr}
 961              		.cfi_def_cfa_offset 8
 962              		.cfi_offset 4, -8
 963              		.cfi_offset 14, -4
 964 0362 0446     		mov	r4, r0
 965              	.LVL103:
ARM GAS  C:\Users\RAKIBU~1\AppData\Local\Temp\ccsGZEMI.s 			page 18


 966              	.LBB276:
 967              	.LBB277:
 968              	.LBB278:
 969              	.LBB279:
 970              	.LBB280:
 971              		.loc 3 493 0
 972 0364 2023     		movs	r3, #32
 973              		.syntax unified
 974              	@ 493 "../../../ChibiOSRepo/chibios191/os/common/ext/ARM/CMSIS/Core/Include/cmsis_gcc.h" 1
 975 0366 83F31188 		MSR basepri, r3
 976              	@ 0 "" 2
 977              	.LVL104:
 978              		.thumb
 979              		.syntax unified
 980              	.LBE280:
 981              	.LBE279:
 982              	.LBE278:
 983              		.loc 4 356 0
 984 036a FFF7FEFF 		bl	_stats_start_measure_crit_thd
 985              	.LVL105:
 986              		.loc 4 357 0
 987 036e FFF7FEFF 		bl	_dbg_check_lock
 988              	.LVL106:
 989              	.LBE277:
 990              	.LBE276:
 991              		.loc 1 430 0
 992 0372 94F82230 		ldrb	r3, [r4, #34]	@ zero_extendqisi2
 993 0376 D3B1     		cbz	r3, .L67
 994              	.L59:
 995              		.loc 1 431 0
 996 0378 94F82230 		ldrb	r3, [r4, #34]	@ zero_extendqisi2
 997 037c 013B     		subs	r3, r3, #1
 998 037e 84F82230 		strb	r3, [r4, #34]
 999              		.loc 1 436 0
 1000 0382 236A     		ldr	r3, [r4, #32]
 1001 0384 03F0FF13 		and	r3, r3, #16711935
 1002 0388 0F2B     		cmp	r3, #15
 1003 038a 14D0     		beq	.L68
 1004              	.LBB281:
 1005              	.LBB282:
 1006              		.loc 4 367 0
 1007 038c FFF7FEFF 		bl	_dbg_check_unlock
 1008              	.LVL107:
 1009              		.loc 4 368 0
 1010 0390 FFF7FEFF 		bl	_stats_stop_measure_crit_thd
 1011              	.LVL108:
 1012              		.loc 4 374 0
 1013 0394 1F4B     		ldr	r3, .L71
 1014 0396 1A68     		ldr	r2, [r3]
 1015 0398 9A42     		cmp	r2, r3
 1016 039a 04D0     		beq	.L65
 1017 039c 9B69     		ldr	r3, [r3, #24]
 1018 039e 9968     		ldr	r1, [r3, #8]
 1019 03a0 9368     		ldr	r3, [r2, #8]
 1020 03a2 9942     		cmp	r1, r3
 1021 03a4 32D3     		bcc	.L69
 1022              	.L65:
ARM GAS  C:\Users\RAKIBU~1\AppData\Local\Temp\ccsGZEMI.s 			page 19


 1023              	.LVL109:
 1024              	.LBB283:
 1025              	.LBB284:
 1026              	.LBB285:
 1027              		.loc 3 493 0
 1028 03a6 0023     		movs	r3, #0
 1029              		.syntax unified
 1030              	@ 493 "../../../ChibiOSRepo/chibios191/os/common/ext/ARM/CMSIS/Core/Include/cmsis_gcc.h" 1
 1031 03a8 83F31188 		MSR basepri, r3
 1032              	@ 0 "" 2
 1033              	.LVL110:
 1034              		.thumb
 1035              		.syntax unified
 1036              	.L58:
 1037              	.LBE285:
 1038              	.LBE284:
 1039              	.LBE283:
 1040              	.LBE282:
 1041              	.LBE281:
 1042              		.loc 1 460 0
 1043 03ac 10BD     		pop	{r4, pc}
 1044              	.LVL111:
 1045              	.L67:
 1046              		.loc 1 430 0 discriminator 2
 1047 03ae 1A48     		ldr	r0, .L71+4
 1048 03b0 FFF7FEFF 		bl	chSysHalt
 1049              	.LVL112:
 1050 03b4 E0E7     		b	.L59
 1051              	.L68:
 1052              		.loc 1 437 0
 1053 03b6 6369     		ldr	r3, [r4, #20]
 1054 03b8 2269     		ldr	r2, [r4, #16]
 1055 03ba 1A61     		str	r2, [r3, #16]
 1056 03bc 2369     		ldr	r3, [r4, #16]
 1057 03be 6269     		ldr	r2, [r4, #20]
 1058 03c0 5A61     		str	r2, [r3, #20]
 1059              	.LBB287:
 1060              	.LBB288:
 1061              		.loc 4 367 0
 1062 03c2 FFF7FEFF 		bl	_dbg_check_unlock
 1063              	.LVL113:
 1064              		.loc 4 368 0
 1065 03c6 FFF7FEFF 		bl	_stats_stop_measure_crit_thd
 1066              	.LVL114:
 1067              		.loc 4 374 0
 1068 03ca 124B     		ldr	r3, .L71
 1069 03cc 1A68     		ldr	r2, [r3]
 1070 03ce 9A42     		cmp	r2, r3
 1071 03d0 04D0     		beq	.L61
 1072 03d2 9B69     		ldr	r3, [r3, #24]
 1073 03d4 9968     		ldr	r1, [r3, #8]
 1074 03d6 9368     		ldr	r3, [r2, #8]
 1075 03d8 9942     		cmp	r1, r3
 1076 03da 0FD3     		bcc	.L70
 1077              	.L61:
 1078              	.LVL115:
 1079              	.LBB289:
ARM GAS  C:\Users\RAKIBU~1\AppData\Local\Temp\ccsGZEMI.s 			page 20


 1080              	.LBB290:
 1081              	.LBB291:
 1082              		.loc 3 493 0
 1083 03dc 0023     		movs	r3, #0
 1084              		.syntax unified
 1085              	@ 493 "../../../ChibiOSRepo/chibios191/os/common/ext/ARM/CMSIS/Core/Include/cmsis_gcc.h" 1
 1086 03de 83F31188 		MSR basepri, r3
 1087              	@ 0 "" 2
 1088              	.LVL116:
 1089              		.thumb
 1090              		.syntax unified
 1091              	.LBE291:
 1092              	.LBE290:
 1093              	.LBE289:
 1094              	.LBE288:
 1095              	.LBE287:
 1096              		.loc 1 441 0
 1097 03e2 94F82130 		ldrb	r3, [r4, #33]	@ zero_extendqisi2
 1098 03e6 03F00303 		and	r3, r3, #3
 1099 03ea 012B     		cmp	r3, #1
 1100 03ec 0AD0     		beq	.L63
 1101 03ee 022B     		cmp	r3, #2
 1102 03f0 DCD1     		bne	.L58
 1103              		.loc 1 449 0
 1104 03f2 E169     		ldr	r1, [r4, #28]
 1105 03f4 206C     		ldr	r0, [r4, #64]
 1106 03f6 FFF7FEFF 		bl	chPoolFree
 1107              	.LVL117:
 1108              		.loc 1 450 0
 1109 03fa D7E7     		b	.L58
 1110              	.L70:
 1111              	.LBB293:
 1112              	.LBB292:
 1113              		.loc 4 374 0
 1114 03fc 0748     		ldr	r0, .L71+8
 1115 03fe FFF7FEFF 		bl	chSysHalt
 1116              	.LVL118:
 1117 0402 EBE7     		b	.L61
 1118              	.L63:
 1119              	.LBE292:
 1120              	.LBE293:
 1121              		.loc 1 444 0
 1122 0404 E069     		ldr	r0, [r4, #28]
 1123 0406 FFF7FEFF 		bl	chHeapFree
 1124              	.LVL119:
 1125              		.loc 1 445 0
 1126 040a CFE7     		b	.L58
 1127              	.L69:
 1128              	.LBB294:
 1129              	.LBB286:
 1130              		.loc 4 374 0
 1131 040c 0348     		ldr	r0, .L71+8
 1132 040e FFF7FEFF 		bl	chSysHalt
 1133              	.LVL120:
 1134 0412 C8E7     		b	.L65
 1135              	.L72:
 1136              		.align	2
ARM GAS  C:\Users\RAKIBU~1\AppData\Local\Temp\ccsGZEMI.s 			page 21


 1137              	.L71:
 1138 0414 00000000 		.word	ch
 1139 0418 74000000 		.word	.LANCHOR0+116
 1140 041c 30000000 		.word	.LANCHOR0+48
 1141              	.LBE286:
 1142              	.LBE294:
 1143              		.cfi_endproc
 1144              	.LFE304:
 1145              		.size	chThdRelease, .-chThdRelease
 1146              		.align	1
 1147              		.p2align 4,,15
 1148              		.global	chThdExitS
 1149              		.syntax unified
 1150              		.thumb
 1151              		.thumb_func
 1152              		.fpu softvfp
 1153              		.type	chThdExitS, %function
 1154              	chThdExitS:
 1155              	.LFB306:
 1156              		.loc 1 501 0
 1157              		.cfi_startproc
 1158              		@ args = 0, pretend = 0, frame = 0
 1159              		@ frame_needed = 0, uses_anonymous_args = 0
 1160              	.LVL121:
 1161 0420 10B5     		push	{r4, lr}
 1162              		.cfi_def_cfa_offset 8
 1163              		.cfi_offset 4, -8
 1164              		.cfi_offset 14, -4
 1165              		.loc 1 502 0
 1166 0422 114B     		ldr	r3, .L78
 1167 0424 9C69     		ldr	r4, [r3, #24]
 1168              	.LVL122:
 1169              		.loc 1 505 0
 1170 0426 6062     		str	r0, [r4, #36]
 1171              		.loc 1 512 0
 1172 0428 03E0     		b	.L74
 1173              	.LVL123:
 1174              	.L75:
 1175              	.LBB295:
 1176              	.LBB296:
 1177              		.loc 2 581 0
 1178 042a 0368     		ldr	r3, [r0]
 1179              	.LVL124:
 1180 042c A362     		str	r3, [r4, #40]
 1181              	.LVL125:
 1182              	.LBE296:
 1183              	.LBE295:
 1184              		.loc 1 513 0
 1185 042e FFF7FEFF 		bl	chSchReadyI
 1186              	.LVL126:
 1187              	.L74:
 1188              		.loc 1 512 0
 1189 0432 04F12803 		add	r3, r4, #40
 1190              	.LVL127:
 1191              	.LBB297:
 1192              	.LBB298:
 1193              		.loc 2 527 0
ARM GAS  C:\Users\RAKIBU~1\AppData\Local\Temp\ccsGZEMI.s 			page 22


 1194 0436 A06A     		ldr	r0, [r4, #40]
 1195              	.LVL128:
 1196              	.LBE298:
 1197              	.LBE297:
 1198              		.loc 1 512 0
 1199 0438 8342     		cmp	r3, r0
 1200 043a F6D1     		bne	.L75
 1201              		.loc 1 521 0
 1202 043c 94F82230 		ldrb	r3, [r4, #34]	@ zero_extendqisi2
 1203 0440 53B9     		cbnz	r3, .L76
 1204              		.loc 1 522 0 discriminator 1
 1205 0442 94F82130 		ldrb	r3, [r4, #33]	@ zero_extendqisi2
 1206              		.loc 1 521 0 discriminator 1
 1207 0446 13F0030F 		tst	r3, #3
 1208 044a 05D1     		bne	.L76
 1209              		.loc 1 523 0
 1210 044c 6369     		ldr	r3, [r4, #20]
 1211 044e 2269     		ldr	r2, [r4, #16]
 1212 0450 1A61     		str	r2, [r3, #16]
 1213 0452 2369     		ldr	r3, [r4, #16]
 1214 0454 6269     		ldr	r2, [r4, #20]
 1215 0456 5A61     		str	r2, [r3, #20]
 1216              	.L76:
 1217              		.loc 1 533 0
 1218 0458 0F20     		movs	r0, #15
 1219 045a FFF7FEFF 		bl	chSchGoSleepS
 1220              	.LVL129:
 1221              		.loc 1 536 0
 1222 045e 0348     		ldr	r0, .L78+4
 1223 0460 FFF7FEFF 		bl	chSysHalt
 1224              	.LVL130:
 1225              		.loc 1 537 0
 1226 0464 10BD     		pop	{r4, pc}
 1227              	.LVL131:
 1228              	.L79:
 1229 0466 00BF     		.align	2
 1230              	.L78:
 1231 0468 00000000 		.word	ch
 1232 046c 84000000 		.word	.LANCHOR0+132
 1233              		.cfi_endproc
 1234              	.LFE306:
 1235              		.size	chThdExitS, .-chThdExitS
 1236              		.align	1
 1237              		.p2align 4,,15
 1238              		.global	chThdExit
 1239              		.syntax unified
 1240              		.thumb
 1241              		.thumb_func
 1242              		.fpu softvfp
 1243              		.type	chThdExit, %function
 1244              	chThdExit:
 1245              	.LFB305:
 1246              		.loc 1 477 0
 1247              		.cfi_startproc
 1248              		@ args = 0, pretend = 0, frame = 0
 1249              		@ frame_needed = 0, uses_anonymous_args = 0
 1250              	.LVL132:
ARM GAS  C:\Users\RAKIBU~1\AppData\Local\Temp\ccsGZEMI.s 			page 23


 1251 0470 10B5     		push	{r4, lr}
 1252              		.cfi_def_cfa_offset 8
 1253              		.cfi_offset 4, -8
 1254              		.cfi_offset 14, -4
 1255 0472 0446     		mov	r4, r0
 1256              	.LVL133:
 1257              	.LBB299:
 1258              	.LBB300:
 1259              	.LBB301:
 1260              	.LBB302:
 1261              	.LBB303:
 1262              		.loc 3 493 0
 1263 0474 2023     		movs	r3, #32
 1264              		.syntax unified
 1265              	@ 493 "../../../ChibiOSRepo/chibios191/os/common/ext/ARM/CMSIS/Core/Include/cmsis_gcc.h" 1
 1266 0476 83F31188 		MSR basepri, r3
 1267              	@ 0 "" 2
 1268              	.LVL134:
 1269              		.thumb
 1270              		.syntax unified
 1271              	.LBE303:
 1272              	.LBE302:
 1273              	.LBE301:
 1274              		.loc 4 356 0
 1275 047a FFF7FEFF 		bl	_stats_start_measure_crit_thd
 1276              	.LVL135:
 1277              		.loc 4 357 0
 1278 047e FFF7FEFF 		bl	_dbg_check_lock
 1279              	.LVL136:
 1280              	.LBE300:
 1281              	.LBE299:
 1282              		.loc 1 480 0
 1283 0482 2046     		mov	r0, r4
 1284 0484 FFF7FEFF 		bl	chThdExitS
 1285              	.LVL137:
 1286              		.loc 1 482 0
 1287 0488 10BD     		pop	{r4, pc}
 1288              		.cfi_endproc
 1289              	.LFE305:
 1290              		.size	chThdExit, .-chThdExit
 1291              		.align	1
 1292 048a 00BFAFF3 		.p2align 4,,15
 1292      0080
 1293              		.global	chThdWait
 1294              		.syntax unified
 1295              		.thumb
 1296              		.thumb_func
 1297              		.fpu softvfp
 1298              		.type	chThdWait, %function
 1299              	chThdWait:
 1300              	.LFB307:
 1301              		.loc 1 559 0
 1302              		.cfi_startproc
 1303              		@ args = 0, pretend = 0, frame = 0
 1304              		@ frame_needed = 0, uses_anonymous_args = 0
 1305              	.LVL138:
 1306 0490 38B5     		push	{r3, r4, r5, lr}
ARM GAS  C:\Users\RAKIBU~1\AppData\Local\Temp\ccsGZEMI.s 			page 24


 1307              		.cfi_def_cfa_offset 16
 1308              		.cfi_offset 3, -16
 1309              		.cfi_offset 4, -12
 1310              		.cfi_offset 5, -8
 1311              		.cfi_offset 14, -4
 1312              		.loc 1 562 0
 1313 0492 0446     		mov	r4, r0
 1314 0494 78B3     		cbz	r0, .L89
 1315              	.LVL139:
 1316              	.L83:
 1317              	.LBB316:
 1318              	.LBB317:
 1319              	.LBB318:
 1320              	.LBB319:
 1321              	.LBB320:
 1322              		.loc 3 493 0
 1323 0496 2023     		movs	r3, #32
 1324              		.syntax unified
 1325              	@ 493 "../../../ChibiOSRepo/chibios191/os/common/ext/ARM/CMSIS/Core/Include/cmsis_gcc.h" 1
 1326 0498 83F31188 		MSR basepri, r3
 1327              	@ 0 "" 2
 1328              	.LVL140:
 1329              		.thumb
 1330              		.syntax unified
 1331              	.LBE320:
 1332              	.LBE319:
 1333              	.LBE318:
 1334              		.loc 4 356 0
 1335 049c FFF7FEFF 		bl	_stats_start_measure_crit_thd
 1336              	.LVL141:
 1337              		.loc 4 357 0
 1338 04a0 FFF7FEFF 		bl	_dbg_check_lock
 1339              	.LVL142:
 1340              	.LBE317:
 1341              	.LBE316:
 1342              		.loc 1 565 0
 1343 04a4 1C4B     		ldr	r3, .L93
 1344 04a6 9B69     		ldr	r3, [r3, #24]
 1345 04a8 A342     		cmp	r3, r4
 1346 04aa 28D0     		beq	.L90
 1347              	.L84:
 1348              		.loc 1 567 0 discriminator 1
 1349 04ac 94F82230 		ldrb	r3, [r4, #34]	@ zero_extendqisi2
 1350 04b0 4BB3     		cbz	r3, .L91
 1351              	.L85:
 1352              		.loc 1 570 0
 1353 04b2 94F82030 		ldrb	r3, [r4, #32]	@ zero_extendqisi2
 1354 04b6 0F2B     		cmp	r3, #15
 1355 04b8 07D0     		beq	.L86
 1356              		.loc 1 571 0
 1357 04ba 174B     		ldr	r3, .L93
 1358 04bc 9B69     		ldr	r3, [r3, #24]
 1359              	.LVL143:
 1360              	.LBB321:
 1361              	.LBB322:
 1362              		.loc 2 574 0
 1363 04be A26A     		ldr	r2, [r4, #40]
ARM GAS  C:\Users\RAKIBU~1\AppData\Local\Temp\ccsGZEMI.s 			page 25


 1364 04c0 1A60     		str	r2, [r3]
 1365              		.loc 2 575 0
 1366 04c2 A362     		str	r3, [r4, #40]
 1367              	.LVL144:
 1368              	.LBE322:
 1369              	.LBE321:
 1370              		.loc 1 572 0
 1371 04c4 0920     		movs	r0, #9
 1372 04c6 FFF7FEFF 		bl	chSchGoSleepS
 1373              	.LVL145:
 1374              	.L86:
 1375              		.loc 1 574 0
 1376 04ca 656A     		ldr	r5, [r4, #36]
 1377              	.LVL146:
 1378              	.LBB323:
 1379              	.LBB324:
 1380              		.loc 4 367 0
 1381 04cc FFF7FEFF 		bl	_dbg_check_unlock
 1382              	.LVL147:
 1383              		.loc 4 368 0
 1384 04d0 FFF7FEFF 		bl	_stats_stop_measure_crit_thd
 1385              	.LVL148:
 1386              		.loc 4 374 0
 1387 04d4 104B     		ldr	r3, .L93
 1388 04d6 1A68     		ldr	r2, [r3]
 1389 04d8 9A42     		cmp	r2, r3
 1390 04da 04D0     		beq	.L87
 1391 04dc 9B69     		ldr	r3, [r3, #24]
 1392 04de 9968     		ldr	r1, [r3, #8]
 1393 04e0 9368     		ldr	r3, [r2, #8]
 1394 04e2 9942     		cmp	r1, r3
 1395 04e4 13D3     		bcc	.L92
 1396              	.L87:
 1397              	.LVL149:
 1398              	.LBB325:
 1399              	.LBB326:
 1400              	.LBB327:
 1401              		.loc 3 493 0
 1402 04e6 0023     		movs	r3, #0
 1403              		.syntax unified
 1404              	@ 493 "../../../ChibiOSRepo/chibios191/os/common/ext/ARM/CMSIS/Core/Include/cmsis_gcc.h" 1
 1405 04e8 83F31188 		MSR basepri, r3
 1406              	@ 0 "" 2
 1407              	.LVL150:
 1408              		.thumb
 1409              		.syntax unified
 1410              	.LBE327:
 1411              	.LBE326:
 1412              	.LBE325:
 1413              	.LBE324:
 1414              	.LBE323:
 1415              		.loc 1 579 0
 1416 04ec 2046     		mov	r0, r4
 1417 04ee FFF7FEFF 		bl	chThdRelease
 1418              	.LVL151:
 1419              		.loc 1 583 0
 1420 04f2 2846     		mov	r0, r5
ARM GAS  C:\Users\RAKIBU~1\AppData\Local\Temp\ccsGZEMI.s 			page 26


 1421 04f4 38BD     		pop	{r3, r4, r5, pc}
 1422              	.LVL152:
 1423              	.L89:
 1424              		.loc 1 562 0 discriminator 2
 1425 04f6 0948     		ldr	r0, .L93+4
 1426              	.LVL153:
 1427 04f8 FFF7FEFF 		bl	chSysHalt
 1428              	.LVL154:
 1429 04fc CBE7     		b	.L83
 1430              	.L90:
 1431              		.loc 1 565 0 discriminator 2
 1432 04fe 0748     		ldr	r0, .L93+4
 1433 0500 FFF7FEFF 		bl	chSysHalt
 1434              	.LVL155:
 1435 0504 D2E7     		b	.L84
 1436              	.L91:
 1437              		.loc 1 567 0 discriminator 2
 1438 0506 0548     		ldr	r0, .L93+4
 1439 0508 FFF7FEFF 		bl	chSysHalt
 1440              	.LVL156:
 1441 050c D1E7     		b	.L85
 1442              	.LVL157:
 1443              	.L92:
 1444              	.LBB329:
 1445              	.LBB328:
 1446              		.loc 4 374 0
 1447 050e 0448     		ldr	r0, .L93+8
 1448 0510 FFF7FEFF 		bl	chSysHalt
 1449              	.LVL158:
 1450 0514 E7E7     		b	.L87
 1451              	.L94:
 1452 0516 00BF     		.align	2
 1453              	.L93:
 1454 0518 00000000 		.word	ch
 1455 051c 90000000 		.word	.LANCHOR0+144
 1456 0520 30000000 		.word	.LANCHOR0+48
 1457              	.LBE328:
 1458              	.LBE329:
 1459              		.cfi_endproc
 1460              	.LFE307:
 1461              		.size	chThdWait, .-chThdWait
 1462              		.align	1
 1463 0524 AFF30080 		.p2align 4,,15
 1463      AFF30080 
 1463      AFF30080 
 1464              		.global	chThdSetPriority
 1465              		.syntax unified
 1466              		.thumb
 1467              		.thumb_func
 1468              		.fpu softvfp
 1469              		.type	chThdSetPriority, %function
 1470              	chThdSetPriority:
 1471              	.LFB308:
 1472              		.loc 1 598 0
 1473              		.cfi_startproc
 1474              		@ args = 0, pretend = 0, frame = 0
 1475              		@ frame_needed = 0, uses_anonymous_args = 0
ARM GAS  C:\Users\RAKIBU~1\AppData\Local\Temp\ccsGZEMI.s 			page 27


 1476              	.LVL159:
 1477 0530 70B5     		push	{r4, r5, r6, lr}
 1478              		.cfi_def_cfa_offset 16
 1479              		.cfi_offset 4, -16
 1480              		.cfi_offset 5, -12
 1481              		.cfi_offset 6, -8
 1482              		.cfi_offset 14, -4
 1483 0532 0446     		mov	r4, r0
 1484              		.loc 1 601 0
 1485 0534 FF28     		cmp	r0, #255
 1486 0536 25D8     		bhi	.L101
 1487              	.LVL160:
 1488              	.L96:
 1489              	.LBB340:
 1490              	.LBB341:
 1491              	.LBB342:
 1492              	.LBB343:
 1493              	.LBB344:
 1494              		.loc 3 493 0
 1495 0538 2023     		movs	r3, #32
 1496              		.syntax unified
 1497              	@ 493 "../../../ChibiOSRepo/chibios191/os/common/ext/ARM/CMSIS/Core/Include/cmsis_gcc.h" 1
 1498 053a 83F31188 		MSR basepri, r3
 1499              	@ 0 "" 2
 1500              	.LVL161:
 1501              		.thumb
 1502              		.syntax unified
 1503              	.LBE344:
 1504              	.LBE343:
 1505              	.LBE342:
 1506              		.loc 4 356 0
 1507 053e FFF7FEFF 		bl	_stats_start_measure_crit_thd
 1508              	.LVL162:
 1509              		.loc 4 357 0
 1510 0542 FFF7FEFF 		bl	_dbg_check_lock
 1511              	.LVL163:
 1512              	.LBE341:
 1513              	.LBE340:
 1514              		.loc 1 605 0
 1515 0546 134B     		ldr	r3, .L103
 1516 0548 9B69     		ldr	r3, [r3, #24]
 1517 054a DE6B     		ldr	r6, [r3, #60]
 1518              	.LVL164:
 1519              		.loc 1 606 0
 1520 054c 9A68     		ldr	r2, [r3, #8]
 1521 054e B242     		cmp	r2, r6
 1522 0550 01D0     		beq	.L97
 1523              		.loc 1 606 0 is_stmt 0 discriminator 1
 1524 0552 A242     		cmp	r2, r4
 1525 0554 00D2     		bcs	.L98
 1526              	.L97:
 1527              		.loc 1 607 0 is_stmt 1
 1528 0556 9C60     		str	r4, [r3, #8]
 1529              	.L98:
 1530              		.loc 1 609 0
 1531 0558 0E4D     		ldr	r5, .L103
 1532 055a AB69     		ldr	r3, [r5, #24]
ARM GAS  C:\Users\RAKIBU~1\AppData\Local\Temp\ccsGZEMI.s 			page 28


 1533 055c DC63     		str	r4, [r3, #60]
 1534              		.loc 1 614 0
 1535 055e FFF7FEFF 		bl	chSchRescheduleS
 1536              	.LVL165:
 1537              	.LBB345:
 1538              	.LBB346:
 1539              		.loc 4 367 0
 1540 0562 FFF7FEFF 		bl	_dbg_check_unlock
 1541              	.LVL166:
 1542              		.loc 4 368 0
 1543 0566 FFF7FEFF 		bl	_stats_stop_measure_crit_thd
 1544              	.LVL167:
 1545              		.loc 4 374 0
 1546 056a 2B68     		ldr	r3, [r5]
 1547 056c AB42     		cmp	r3, r5
 1548 056e 04D0     		beq	.L99
 1549 0570 AA69     		ldr	r2, [r5, #24]
 1550 0572 9268     		ldr	r2, [r2, #8]
 1551 0574 9B68     		ldr	r3, [r3, #8]
 1552 0576 9A42     		cmp	r2, r3
 1553 0578 08D3     		bcc	.L102
 1554              	.L99:
 1555              	.LVL168:
 1556              	.LBB347:
 1557              	.LBB348:
 1558              	.LBB349:
 1559              		.loc 3 493 0
 1560 057a 0023     		movs	r3, #0
 1561              		.syntax unified
 1562              	@ 493 "../../../ChibiOSRepo/chibios191/os/common/ext/ARM/CMSIS/Core/Include/cmsis_gcc.h" 1
 1563 057c 83F31188 		MSR basepri, r3
 1564              	@ 0 "" 2
 1565              	.LVL169:
 1566              		.thumb
 1567              		.syntax unified
 1568              	.LBE349:
 1569              	.LBE348:
 1570              	.LBE347:
 1571              	.LBE346:
 1572              	.LBE345:
 1573              		.loc 1 618 0
 1574 0580 3046     		mov	r0, r6
 1575 0582 70BD     		pop	{r4, r5, r6, pc}
 1576              	.LVL170:
 1577              	.L101:
 1578              		.loc 1 601 0 discriminator 2
 1579 0584 0448     		ldr	r0, .L103+4
 1580              	.LVL171:
 1581 0586 FFF7FEFF 		bl	chSysHalt
 1582              	.LVL172:
 1583 058a D5E7     		b	.L96
 1584              	.LVL173:
 1585              	.L102:
 1586              	.LBB351:
 1587              	.LBB350:
 1588              		.loc 4 374 0
 1589 058c 0348     		ldr	r0, .L103+8
ARM GAS  C:\Users\RAKIBU~1\AppData\Local\Temp\ccsGZEMI.s 			page 29


 1590 058e FFF7FEFF 		bl	chSysHalt
 1591              	.LVL174:
 1592 0592 F2E7     		b	.L99
 1593              	.L104:
 1594              		.align	2
 1595              	.L103:
 1596 0594 00000000 		.word	ch
 1597 0598 9C000000 		.word	.LANCHOR0+156
 1598 059c 30000000 		.word	.LANCHOR0+48
 1599              	.LBE350:
 1600              	.LBE351:
 1601              		.cfi_endproc
 1602              	.LFE308:
 1603              		.size	chThdSetPriority, .-chThdSetPriority
 1604              		.align	1
 1605              		.p2align 4,,15
 1606              		.global	chThdTerminate
 1607              		.syntax unified
 1608              		.thumb
 1609              		.thumb_func
 1610              		.fpu softvfp
 1611              		.type	chThdTerminate, %function
 1612              	chThdTerminate:
 1613              	.LFB309:
 1614              		.loc 1 632 0
 1615              		.cfi_startproc
 1616              		@ args = 0, pretend = 0, frame = 0
 1617              		@ frame_needed = 0, uses_anonymous_args = 0
 1618              	.LVL175:
 1619 05a0 10B5     		push	{r4, lr}
 1620              		.cfi_def_cfa_offset 8
 1621              		.cfi_offset 4, -8
 1622              		.cfi_offset 14, -4
 1623 05a2 0446     		mov	r4, r0
 1624              	.LVL176:
 1625              	.LBB362:
 1626              	.LBB363:
 1627              	.LBB364:
 1628              	.LBB365:
 1629              	.LBB366:
 1630              		.loc 3 493 0
 1631 05a4 2023     		movs	r3, #32
 1632              		.syntax unified
 1633              	@ 493 "../../../ChibiOSRepo/chibios191/os/common/ext/ARM/CMSIS/Core/Include/cmsis_gcc.h" 1
 1634 05a6 83F31188 		MSR basepri, r3
 1635              	@ 0 "" 2
 1636              	.LVL177:
 1637              		.thumb
 1638              		.syntax unified
 1639              	.LBE366:
 1640              	.LBE365:
 1641              	.LBE364:
 1642              		.loc 4 356 0
 1643 05aa FFF7FEFF 		bl	_stats_start_measure_crit_thd
 1644              	.LVL178:
 1645              		.loc 4 357 0
 1646 05ae FFF7FEFF 		bl	_dbg_check_lock
ARM GAS  C:\Users\RAKIBU~1\AppData\Local\Temp\ccsGZEMI.s 			page 30


 1647              	.LVL179:
 1648              	.LBE363:
 1649              	.LBE362:
 1650              		.loc 1 635 0
 1651 05b2 94F82130 		ldrb	r3, [r4, #33]	@ zero_extendqisi2
 1652 05b6 43F00403 		orr	r3, r3, #4
 1653 05ba 84F82130 		strb	r3, [r4, #33]
 1654              	.LBB367:
 1655              	.LBB368:
 1656              		.loc 4 367 0
 1657 05be FFF7FEFF 		bl	_dbg_check_unlock
 1658              	.LVL180:
 1659              		.loc 4 368 0
 1660 05c2 FFF7FEFF 		bl	_stats_stop_measure_crit_thd
 1661              	.LVL181:
 1662              		.loc 4 374 0
 1663 05c6 084B     		ldr	r3, .L109
 1664 05c8 1A68     		ldr	r2, [r3]
 1665 05ca 9A42     		cmp	r2, r3
 1666 05cc 04D0     		beq	.L106
 1667 05ce 9B69     		ldr	r3, [r3, #24]
 1668 05d0 9968     		ldr	r1, [r3, #8]
 1669 05d2 9368     		ldr	r3, [r2, #8]
 1670 05d4 9942     		cmp	r1, r3
 1671 05d6 03D3     		bcc	.L108
 1672              	.L106:
 1673              	.LVL182:
 1674              	.LBB369:
 1675              	.LBB370:
 1676              	.LBB371:
 1677              		.loc 3 493 0
 1678 05d8 0023     		movs	r3, #0
 1679              		.syntax unified
 1680              	@ 493 "../../../ChibiOSRepo/chibios191/os/common/ext/ARM/CMSIS/Core/Include/cmsis_gcc.h" 1
 1681 05da 83F31188 		MSR basepri, r3
 1682              	@ 0 "" 2
 1683              	.LVL183:
 1684              		.thumb
 1685              		.syntax unified
 1686              	.LBE371:
 1687              	.LBE370:
 1688              	.LBE369:
 1689              	.LBE368:
 1690              	.LBE367:
 1691              		.loc 1 637 0
 1692 05de 10BD     		pop	{r4, pc}
 1693              	.LVL184:
 1694              	.L108:
 1695              	.LBB373:
 1696              	.LBB372:
 1697              		.loc 4 374 0
 1698 05e0 0248     		ldr	r0, .L109+4
 1699 05e2 FFF7FEFF 		bl	chSysHalt
 1700              	.LVL185:
 1701 05e6 F7E7     		b	.L106
 1702              	.L110:
 1703              		.align	2
ARM GAS  C:\Users\RAKIBU~1\AppData\Local\Temp\ccsGZEMI.s 			page 31


 1704              	.L109:
 1705 05e8 00000000 		.word	ch
 1706 05ec 30000000 		.word	.LANCHOR0+48
 1707              	.LBE372:
 1708              	.LBE373:
 1709              		.cfi_endproc
 1710              	.LFE309:
 1711              		.size	chThdTerminate, .-chThdTerminate
 1712              		.align	1
 1713              		.p2align 4,,15
 1714              		.global	chThdSleep
 1715              		.syntax unified
 1716              		.thumb
 1717              		.thumb_func
 1718              		.fpu softvfp
 1719              		.type	chThdSleep, %function
 1720              	chThdSleep:
 1721              	.LFB310:
 1722              		.loc 1 651 0
 1723              		.cfi_startproc
 1724              		@ args = 0, pretend = 0, frame = 0
 1725              		@ frame_needed = 0, uses_anonymous_args = 0
 1726              	.LVL186:
 1727 05f0 38B5     		push	{r3, r4, r5, lr}
 1728              		.cfi_def_cfa_offset 16
 1729              		.cfi_offset 3, -16
 1730              		.cfi_offset 4, -12
 1731              		.cfi_offset 5, -8
 1732              		.cfi_offset 14, -4
 1733 05f2 0446     		mov	r4, r0
 1734 05f4 0D46     		mov	r5, r1
 1735              	.LVL187:
 1736              	.LBB386:
 1737              	.LBB387:
 1738              	.LBB388:
 1739              	.LBB389:
 1740              	.LBB390:
 1741              		.loc 3 493 0
 1742 05f6 2023     		movs	r3, #32
 1743              		.syntax unified
 1744              	@ 493 "../../../ChibiOSRepo/chibios191/os/common/ext/ARM/CMSIS/Core/Include/cmsis_gcc.h" 1
 1745 05f8 83F31188 		MSR basepri, r3
 1746              	@ 0 "" 2
 1747              	.LVL188:
 1748              		.thumb
 1749              		.syntax unified
 1750              	.LBE390:
 1751              	.LBE389:
 1752              	.LBE388:
 1753              		.loc 4 356 0
 1754 05fc FFF7FEFF 		bl	_stats_start_measure_crit_thd
 1755              	.LVL189:
 1756              		.loc 4 357 0
 1757 0600 FFF7FEFF 		bl	_dbg_check_lock
 1758              	.LVL190:
 1759              	.LBE387:
 1760              	.LBE386:
ARM GAS  C:\Users\RAKIBU~1\AppData\Local\Temp\ccsGZEMI.s 			page 32


 1761              	.LBB391:
 1762              	.LBB392:
 1763              		.file 5 "../../../ChibiOSRepo/chibios191/os/rt/include/chthreads.h"
 1764              		.loc 5 380 0
 1765 0604 54EA0503 		orrs	r3, r4, r5
 1766 0608 15D0     		beq	.L115
 1767              	.L112:
 1768              		.loc 5 382 0
 1769 060a 2246     		mov	r2, r4
 1770 060c 2B46     		mov	r3, r5
 1771 060e 0820     		movs	r0, #8
 1772 0610 FFF7FEFF 		bl	chSchGoSleepTimeoutS
 1773              	.LVL191:
 1774              	.LBE392:
 1775              	.LBE391:
 1776              	.LBB394:
 1777              	.LBB395:
 1778              		.loc 4 367 0
 1779 0614 FFF7FEFF 		bl	_dbg_check_unlock
 1780              	.LVL192:
 1781              		.loc 4 368 0
 1782 0618 FFF7FEFF 		bl	_stats_stop_measure_crit_thd
 1783              	.LVL193:
 1784              		.loc 4 374 0
 1785 061c 0A4B     		ldr	r3, .L117
 1786 061e 1A68     		ldr	r2, [r3]
 1787 0620 9A42     		cmp	r2, r3
 1788 0622 04D0     		beq	.L113
 1789 0624 9B69     		ldr	r3, [r3, #24]
 1790 0626 9968     		ldr	r1, [r3, #8]
 1791 0628 9368     		ldr	r3, [r2, #8]
 1792 062a 9942     		cmp	r1, r3
 1793 062c 07D3     		bcc	.L116
 1794              	.L113:
 1795              	.LVL194:
 1796              	.LBB396:
 1797              	.LBB397:
 1798              	.LBB398:
 1799              		.loc 3 493 0
 1800 062e 0023     		movs	r3, #0
 1801              		.syntax unified
 1802              	@ 493 "../../../ChibiOSRepo/chibios191/os/common/ext/ARM/CMSIS/Core/Include/cmsis_gcc.h" 1
 1803 0630 83F31188 		MSR basepri, r3
 1804              	@ 0 "" 2
 1805              	.LVL195:
 1806              		.thumb
 1807              		.syntax unified
 1808              	.LBE398:
 1809              	.LBE397:
 1810              	.LBE396:
 1811              	.LBE395:
 1812              	.LBE394:
 1813              		.loc 1 656 0
 1814 0634 38BD     		pop	{r3, r4, r5, pc}
 1815              	.LVL196:
 1816              	.L115:
 1817              	.LBB400:
ARM GAS  C:\Users\RAKIBU~1\AppData\Local\Temp\ccsGZEMI.s 			page 33


 1818              	.LBB393:
 1819              		.loc 5 380 0
 1820 0636 0548     		ldr	r0, .L117+4
 1821 0638 FFF7FEFF 		bl	chSysHalt
 1822              	.LVL197:
 1823 063c E5E7     		b	.L112
 1824              	.LVL198:
 1825              	.L116:
 1826              	.LBE393:
 1827              	.LBE400:
 1828              	.LBB401:
 1829              	.LBB399:
 1830              		.loc 4 374 0
 1831 063e 0448     		ldr	r0, .L117+8
 1832 0640 FFF7FEFF 		bl	chSysHalt
 1833              	.LVL199:
 1834 0644 F3E7     		b	.L113
 1835              	.L118:
 1836 0646 00BF     		.align	2
 1837              	.L117:
 1838 0648 00000000 		.word	ch
 1839 064c B0000000 		.word	.LANCHOR0+176
 1840 0650 30000000 		.word	.LANCHOR0+48
 1841              	.LBE399:
 1842              	.LBE401:
 1843              		.cfi_endproc
 1844              	.LFE310:
 1845              		.size	chThdSleep, .-chThdSleep
 1846              		.align	1
 1847 0654 AFF30080 		.p2align 4,,15
 1847      AFF30080 
 1847      AFF30080 
 1848              		.global	chThdSleepUntil
 1849              		.syntax unified
 1850              		.thumb
 1851              		.thumb_func
 1852              		.fpu softvfp
 1853              		.type	chThdSleepUntil, %function
 1854              	chThdSleepUntil:
 1855              	.LFB311:
 1856              		.loc 1 671 0
 1857              		.cfi_startproc
 1858              		@ args = 0, pretend = 0, frame = 0
 1859              		@ frame_needed = 0, uses_anonymous_args = 0
 1860              	.LVL200:
 1861 0660 38B5     		push	{r3, r4, r5, lr}
 1862              		.cfi_def_cfa_offset 16
 1863              		.cfi_offset 3, -16
 1864              		.cfi_offset 4, -12
 1865              		.cfi_offset 5, -8
 1866              		.cfi_offset 14, -4
 1867 0662 0446     		mov	r4, r0
 1868              	.LVL201:
 1869              	.LBB420:
 1870              	.LBB421:
 1871              	.LBB422:
 1872              	.LBB423:
ARM GAS  C:\Users\RAKIBU~1\AppData\Local\Temp\ccsGZEMI.s 			page 34


 1873              	.LBB424:
 1874              		.loc 3 493 0
 1875 0664 2023     		movs	r3, #32
 1876              		.syntax unified
 1877              	@ 493 "../../../ChibiOSRepo/chibios191/os/common/ext/ARM/CMSIS/Core/Include/cmsis_gcc.h" 1
 1878 0666 83F31188 		MSR basepri, r3
 1879              	@ 0 "" 2
 1880              	.LVL202:
 1881              		.thumb
 1882              		.syntax unified
 1883              	.LBE424:
 1884              	.LBE423:
 1885              	.LBE422:
 1886              		.loc 4 356 0
 1887 066a FFF7FEFF 		bl	_stats_start_measure_crit_thd
 1888              	.LVL203:
 1889              		.loc 4 357 0
 1890 066e FFF7FEFF 		bl	_dbg_check_lock
 1891              	.LVL204:
 1892              	.LBE421:
 1893              	.LBE420:
 1894              	.LBB425:
 1895              	.LBB426:
 1896              	.LBB427:
 1897              	.LBB428:
 1898              		.file 6 "../../../ChibiOSRepo/chibios191/os/hal/ports/STM32/LLD/TIMv1/hal_st_lld.h"
 1899              		.loc 6 147 0
 1900 0672 4FF08043 		mov	r3, #1073741824
 1901 0676 5B6A     		ldr	r3, [r3, #36]
 1902              	.LVL205:
 1903              	.LBE428:
 1904              	.LBE427:
 1905              	.LBE426:
 1906              	.LBE425:
 1907              	.LBB429:
 1908              	.LBB430:
 1909              		.file 7 "../../../ChibiOSRepo/chibios191/os/rt/include/chtime.h"
 1910              		.loc 7 463 0
 1911 0678 E41A     		subs	r4, r4, r3
 1912              	.LVL206:
 1913 067a 0025     		movs	r5, #0
 1914              	.LVL207:
 1915              	.LBE430:
 1916              	.LBE429:
 1917              		.loc 1 676 0
 1918 067c 54EA0503 		orrs	r3, r4, r5
 1919 0680 10D1     		bne	.L124
 1920              	.L120:
 1921              	.LBB431:
 1922              	.LBB432:
 1923              		.loc 4 367 0
 1924 0682 FFF7FEFF 		bl	_dbg_check_unlock
 1925              	.LVL208:
 1926              		.loc 4 368 0
 1927 0686 FFF7FEFF 		bl	_stats_stop_measure_crit_thd
 1928              	.LVL209:
 1929              		.loc 4 374 0
ARM GAS  C:\Users\RAKIBU~1\AppData\Local\Temp\ccsGZEMI.s 			page 35


 1930 068a 0E4B     		ldr	r3, .L127
 1931 068c 1A68     		ldr	r2, [r3]
 1932 068e 9A42     		cmp	r2, r3
 1933 0690 04D0     		beq	.L122
 1934 0692 9B69     		ldr	r3, [r3, #24]
 1935 0694 9968     		ldr	r1, [r3, #8]
 1936 0696 9368     		ldr	r3, [r2, #8]
 1937 0698 9942     		cmp	r1, r3
 1938 069a 0ED3     		bcc	.L125
 1939              	.L122:
 1940              	.LVL210:
 1941              	.LBB433:
 1942              	.LBB434:
 1943              	.LBB435:
 1944              		.loc 3 493 0
 1945 069c 0023     		movs	r3, #0
 1946              		.syntax unified
 1947              	@ 493 "../../../ChibiOSRepo/chibios191/os/common/ext/ARM/CMSIS/Core/Include/cmsis_gcc.h" 1
 1948 069e 83F31188 		MSR basepri, r3
 1949              	@ 0 "" 2
 1950              	.LVL211:
 1951              		.thumb
 1952              		.syntax unified
 1953              	.LBE435:
 1954              	.LBE434:
 1955              	.LBE433:
 1956              	.LBE432:
 1957              	.LBE431:
 1958              		.loc 1 680 0
 1959 06a2 38BD     		pop	{r3, r4, r5, pc}
 1960              	.L124:
 1961              	.LVL212:
 1962              	.LBB437:
 1963              	.LBB438:
 1964              		.loc 5 380 0
 1965 06a4 05D0     		beq	.L126
 1966              	.L121:
 1967              		.loc 5 382 0
 1968 06a6 2246     		mov	r2, r4
 1969 06a8 2B46     		mov	r3, r5
 1970 06aa 0820     		movs	r0, #8
 1971 06ac FFF7FEFF 		bl	chSchGoSleepTimeoutS
 1972              	.LVL213:
 1973 06b0 E7E7     		b	.L120
 1974              	.L126:
 1975              		.loc 5 380 0
 1976 06b2 0548     		ldr	r0, .L127+4
 1977 06b4 FFF7FEFF 		bl	chSysHalt
 1978              	.LVL214:
 1979 06b8 F5E7     		b	.L121
 1980              	.LVL215:
 1981              	.L125:
 1982              	.LBE438:
 1983              	.LBE437:
 1984              	.LBB439:
 1985              	.LBB436:
 1986              		.loc 4 374 0
ARM GAS  C:\Users\RAKIBU~1\AppData\Local\Temp\ccsGZEMI.s 			page 36


 1987 06ba 0448     		ldr	r0, .L127+8
 1988 06bc FFF7FEFF 		bl	chSysHalt
 1989              	.LVL216:
 1990 06c0 ECE7     		b	.L122
 1991              	.L128:
 1992 06c2 00BF     		.align	2
 1993              	.L127:
 1994 06c4 00000000 		.word	ch
 1995 06c8 B0000000 		.word	.LANCHOR0+176
 1996 06cc 30000000 		.word	.LANCHOR0+48
 1997              	.LBE436:
 1998              	.LBE439:
 1999              		.cfi_endproc
 2000              	.LFE311:
 2001              		.size	chThdSleepUntil, .-chThdSleepUntil
 2002              		.align	1
 2003              		.p2align 4,,15
 2004              		.global	chThdSleepUntilWindowed
 2005              		.syntax unified
 2006              		.thumb
 2007              		.thumb_func
 2008              		.fpu softvfp
 2009              		.type	chThdSleepUntilWindowed, %function
 2010              	chThdSleepUntilWindowed:
 2011              	.LFB312:
 2012              		.loc 1 696 0
 2013              		.cfi_startproc
 2014              		@ args = 0, pretend = 0, frame = 0
 2015              		@ frame_needed = 0, uses_anonymous_args = 0
 2016              	.LVL217:
 2017 06d0 70B5     		push	{r4, r5, r6, lr}
 2018              		.cfi_def_cfa_offset 16
 2019              		.cfi_offset 4, -16
 2020              		.cfi_offset 5, -12
 2021              		.cfi_offset 6, -8
 2022              		.cfi_offset 14, -4
 2023 06d2 0446     		mov	r4, r0
 2024 06d4 0E46     		mov	r6, r1
 2025              	.LVL218:
 2026              	.LBB460:
 2027              	.LBB461:
 2028              	.LBB462:
 2029              	.LBB463:
 2030              	.LBB464:
 2031              		.loc 3 493 0
 2032 06d6 2023     		movs	r3, #32
 2033              		.syntax unified
 2034              	@ 493 "../../../ChibiOSRepo/chibios191/os/common/ext/ARM/CMSIS/Core/Include/cmsis_gcc.h" 1
 2035 06d8 83F31188 		MSR basepri, r3
 2036              	@ 0 "" 2
 2037              	.LVL219:
 2038              		.thumb
 2039              		.syntax unified
 2040              	.LBE464:
 2041              	.LBE463:
 2042              	.LBE462:
 2043              		.loc 4 356 0
ARM GAS  C:\Users\RAKIBU~1\AppData\Local\Temp\ccsGZEMI.s 			page 37


 2044 06dc FFF7FEFF 		bl	_stats_start_measure_crit_thd
 2045              	.LVL220:
 2046              		.loc 4 357 0
 2047 06e0 FFF7FEFF 		bl	_dbg_check_lock
 2048              	.LVL221:
 2049              	.LBE461:
 2050              	.LBE460:
 2051              	.LBB465:
 2052              	.LBB466:
 2053              	.LBB467:
 2054              	.LBB468:
 2055              		.loc 6 147 0
 2056 06e4 4FF08043 		mov	r3, #1073741824
 2057 06e8 5B6A     		ldr	r3, [r3, #36]
 2058              	.LVL222:
 2059              	.LBE468:
 2060              	.LBE467:
 2061              	.LBE466:
 2062              	.LBE465:
 2063              	.LBB469:
 2064              	.LBB470:
 2065              		.loc 7 484 0
 2066 06ea 1A1B     		subs	r2, r3, r4
 2067              		.loc 7 485 0
 2068 06ec 341B     		subs	r4, r6, r4
 2069              	.LVL223:
 2070              	.LBE470:
 2071              	.LBE469:
 2072              		.loc 1 701 0
 2073 06ee 9442     		cmp	r4, r2
 2074 06f0 11D8     		bhi	.L134
 2075              	.L130:
 2076              	.LBB471:
 2077              	.LBB472:
 2078              		.loc 4 367 0
 2079 06f2 FFF7FEFF 		bl	_dbg_check_unlock
 2080              	.LVL224:
 2081              		.loc 4 368 0
 2082 06f6 FFF7FEFF 		bl	_stats_stop_measure_crit_thd
 2083              	.LVL225:
 2084              		.loc 4 374 0
 2085 06fa 104B     		ldr	r3, .L137
 2086 06fc 1A68     		ldr	r2, [r3]
 2087 06fe 9A42     		cmp	r2, r3
 2088 0700 04D0     		beq	.L132
 2089 0702 9B69     		ldr	r3, [r3, #24]
 2090 0704 9968     		ldr	r1, [r3, #8]
 2091 0706 9368     		ldr	r3, [r2, #8]
 2092 0708 9942     		cmp	r1, r3
 2093 070a 13D3     		bcc	.L135
 2094              	.L132:
 2095              	.LVL226:
 2096              	.LBB473:
 2097              	.LBB474:
 2098              	.LBB475:
 2099              		.loc 3 493 0
 2100 070c 0023     		movs	r3, #0
ARM GAS  C:\Users\RAKIBU~1\AppData\Local\Temp\ccsGZEMI.s 			page 38


 2101              		.syntax unified
 2102              	@ 493 "../../../ChibiOSRepo/chibios191/os/common/ext/ARM/CMSIS/Core/Include/cmsis_gcc.h" 1
 2103 070e 83F31188 		MSR basepri, r3
 2104              	@ 0 "" 2
 2105              	.LVL227:
 2106              		.thumb
 2107              		.syntax unified
 2108              	.LBE475:
 2109              	.LBE474:
 2110              	.LBE473:
 2111              	.LBE472:
 2112              	.LBE471:
 2113              		.loc 1 707 0
 2114 0712 3046     		mov	r0, r6
 2115 0714 70BD     		pop	{r4, r5, r6, pc}
 2116              	.LVL228:
 2117              	.L134:
 2118              	.LBB477:
 2119              	.LBB478:
 2120              		.loc 7 463 0
 2121 0716 F41A     		subs	r4, r6, r3
 2122 0718 0025     		movs	r5, #0
 2123              	.LVL229:
 2124              	.LBE478:
 2125              	.LBE477:
 2126              	.LBB479:
 2127              	.LBB480:
 2128              		.loc 5 380 0
 2129 071a 54EA0503 		orrs	r3, r4, r5
 2130 071e 05D0     		beq	.L136
 2131              	.L131:
 2132              		.loc 5 382 0
 2133 0720 2246     		mov	r2, r4
 2134 0722 2B46     		mov	r3, r5
 2135 0724 0820     		movs	r0, #8
 2136 0726 FFF7FEFF 		bl	chSchGoSleepTimeoutS
 2137              	.LVL230:
 2138 072a E2E7     		b	.L130
 2139              	.L136:
 2140              		.loc 5 380 0
 2141 072c 0448     		ldr	r0, .L137+4
 2142 072e FFF7FEFF 		bl	chSysHalt
 2143              	.LVL231:
 2144 0732 F5E7     		b	.L131
 2145              	.LVL232:
 2146              	.L135:
 2147              	.LBE480:
 2148              	.LBE479:
 2149              	.LBB481:
 2150              	.LBB476:
 2151              		.loc 4 374 0
 2152 0734 0348     		ldr	r0, .L137+8
 2153 0736 FFF7FEFF 		bl	chSysHalt
 2154              	.LVL233:
 2155 073a E7E7     		b	.L132
 2156              	.L138:
 2157              		.align	2
ARM GAS  C:\Users\RAKIBU~1\AppData\Local\Temp\ccsGZEMI.s 			page 39


 2158              	.L137:
 2159 073c 00000000 		.word	ch
 2160 0740 B0000000 		.word	.LANCHOR0+176
 2161 0744 30000000 		.word	.LANCHOR0+48
 2162              	.LBE476:
 2163              	.LBE481:
 2164              		.cfi_endproc
 2165              	.LFE312:
 2166              		.size	chThdSleepUntilWindowed, .-chThdSleepUntilWindowed
 2167              		.align	1
 2168 0748 AFF30080 		.p2align 4,,15
 2168      AFF30080 
 2169              		.global	chThdYield
 2170              		.syntax unified
 2171              		.thumb
 2172              		.thumb_func
 2173              		.fpu softvfp
 2174              		.type	chThdYield, %function
 2175              	chThdYield:
 2176              	.LFB313:
 2177              		.loc 1 716 0
 2178              		.cfi_startproc
 2179              		@ args = 0, pretend = 0, frame = 0
 2180              		@ frame_needed = 0, uses_anonymous_args = 0
 2181 0750 08B5     		push	{r3, lr}
 2182              		.cfi_def_cfa_offset 8
 2183              		.cfi_offset 3, -8
 2184              		.cfi_offset 14, -4
 2185              	.LVL234:
 2186              	.LBB496:
 2187              	.LBB497:
 2188              	.LBB498:
 2189              	.LBB499:
 2190              	.LBB500:
 2191              		.loc 3 493 0
 2192 0752 2023     		movs	r3, #32
 2193              		.syntax unified
 2194              	@ 493 "../../../ChibiOSRepo/chibios191/os/common/ext/ARM/CMSIS/Core/Include/cmsis_gcc.h" 1
 2195 0754 83F31188 		MSR basepri, r3
 2196              	@ 0 "" 2
 2197              	.LVL235:
 2198              		.thumb
 2199              		.syntax unified
 2200              	.LBE500:
 2201              	.LBE499:
 2202              	.LBE498:
 2203              		.loc 4 356 0
 2204 0758 FFF7FEFF 		bl	_stats_start_measure_crit_thd
 2205              	.LVL236:
 2206              		.loc 4 357 0
 2207 075c FFF7FEFF 		bl	_dbg_check_lock
 2208              	.LVL237:
 2209              	.LBE497:
 2210              	.LBE496:
 2211              	.LBB501:
 2212              	.LBB502:
 2213              		.loc 2 678 0
ARM GAS  C:\Users\RAKIBU~1\AppData\Local\Temp\ccsGZEMI.s 			page 40


 2214 0760 FFF7FEFF 		bl	chDbgCheckClassS
 2215              	.LVL238:
 2216              	.LBB503:
 2217              	.LBB504:
 2218              		.loc 2 664 0
 2219 0764 FFF7FEFF 		bl	chDbgCheckClassS
 2220              	.LVL239:
 2221              		.loc 2 666 0
 2222 0768 0F4B     		ldr	r3, .L145
 2223 076a 1A68     		ldr	r2, [r3]
 2224 076c 9268     		ldr	r2, [r2, #8]
 2225 076e 9B69     		ldr	r3, [r3, #24]
 2226 0770 9B68     		ldr	r3, [r3, #8]
 2227              	.LBE504:
 2228              	.LBE503:
 2229              		.loc 2 680 0
 2230 0772 9A42     		cmp	r2, r3
 2231 0774 10D2     		bcs	.L143
 2232              	.L140:
 2233              	.LBE502:
 2234              	.LBE501:
 2235              	.LBB506:
 2236              	.LBB507:
 2237              		.loc 4 367 0
 2238 0776 FFF7FEFF 		bl	_dbg_check_unlock
 2239              	.LVL240:
 2240              		.loc 4 368 0
 2241 077a FFF7FEFF 		bl	_stats_stop_measure_crit_thd
 2242              	.LVL241:
 2243              		.loc 4 374 0
 2244 077e 0A4B     		ldr	r3, .L145
 2245 0780 1A68     		ldr	r2, [r3]
 2246 0782 9A42     		cmp	r2, r3
 2247 0784 04D0     		beq	.L141
 2248 0786 9B69     		ldr	r3, [r3, #24]
 2249 0788 9968     		ldr	r1, [r3, #8]
 2250 078a 9368     		ldr	r3, [r2, #8]
 2251 078c 9942     		cmp	r1, r3
 2252 078e 06D3     		bcc	.L144
 2253              	.L141:
 2254              	.LVL242:
 2255              	.LBB508:
 2256              	.LBB509:
 2257              	.LBB510:
 2258              		.loc 3 493 0
 2259 0790 0023     		movs	r3, #0
 2260              		.syntax unified
 2261              	@ 493 "../../../ChibiOSRepo/chibios191/os/common/ext/ARM/CMSIS/Core/Include/cmsis_gcc.h" 1
 2262 0792 83F31188 		MSR basepri, r3
 2263              	@ 0 "" 2
 2264              	.LVL243:
 2265              		.thumb
 2266              		.syntax unified
 2267              	.LBE510:
 2268              	.LBE509:
 2269              	.LBE508:
 2270              	.LBE507:
ARM GAS  C:\Users\RAKIBU~1\AppData\Local\Temp\ccsGZEMI.s 			page 41


 2271              	.LBE506:
 2272              		.loc 1 721 0
 2273 0796 08BD     		pop	{r3, pc}
 2274              	.L143:
 2275              	.LBB512:
 2276              	.LBB505:
 2277              		.loc 2 681 0
 2278 0798 FFF7FEFF 		bl	chSchDoRescheduleBehind
 2279              	.LVL244:
 2280 079c EBE7     		b	.L140
 2281              	.L144:
 2282              	.LBE505:
 2283              	.LBE512:
 2284              	.LBB513:
 2285              	.LBB511:
 2286              		.loc 4 374 0
 2287 079e 0348     		ldr	r0, .L145+4
 2288 07a0 FFF7FEFF 		bl	chSysHalt
 2289              	.LVL245:
 2290 07a4 F4E7     		b	.L141
 2291              	.L146:
 2292 07a6 00BF     		.align	2
 2293              	.L145:
 2294 07a8 00000000 		.word	ch
 2295 07ac 30000000 		.word	.LANCHOR0+48
 2296              	.LBE511:
 2297              	.LBE513:
 2298              		.cfi_endproc
 2299              	.LFE313:
 2300              		.size	chThdYield, .-chThdYield
 2301              		.align	1
 2302              		.p2align 4,,15
 2303              		.global	chThdSuspendS
 2304              		.syntax unified
 2305              		.thumb
 2306              		.thumb_func
 2307              		.fpu softvfp
 2308              		.type	chThdSuspendS, %function
 2309              	chThdSuspendS:
 2310              	.LFB314:
 2311              		.loc 1 733 0
 2312              		.cfi_startproc
 2313              		@ args = 0, pretend = 0, frame = 0
 2314              		@ frame_needed = 0, uses_anonymous_args = 0
 2315              	.LVL246:
 2316 07b0 38B5     		push	{r3, r4, r5, lr}
 2317              		.cfi_def_cfa_offset 16
 2318              		.cfi_offset 3, -16
 2319              		.cfi_offset 4, -12
 2320              		.cfi_offset 5, -8
 2321              		.cfi_offset 14, -4
 2322 07b2 0446     		mov	r4, r0
 2323              	.LBB514:
 2324              	.LBB515:
 2325              		.loc 5 274 0
 2326 07b4 074B     		ldr	r3, .L150
 2327 07b6 9D69     		ldr	r5, [r3, #24]
ARM GAS  C:\Users\RAKIBU~1\AppData\Local\Temp\ccsGZEMI.s 			page 42


 2328              	.LBE515:
 2329              	.LBE514:
 2330              		.loc 1 736 0
 2331 07b8 0368     		ldr	r3, [r0]
 2332 07ba 13B1     		cbz	r3, .L148
 2333              		.loc 1 736 0 is_stmt 0 discriminator 2
 2334 07bc 0648     		ldr	r0, .L150+4
 2335              	.LVL247:
 2336 07be FFF7FEFF 		bl	chSysHalt
 2337              	.LVL248:
 2338              	.L148:
 2339              		.loc 1 738 0 is_stmt 1
 2340 07c2 2560     		str	r5, [r4]
 2341              		.loc 1 739 0
 2342 07c4 6C62     		str	r4, [r5, #36]
 2343              		.loc 1 740 0
 2344 07c6 0320     		movs	r0, #3
 2345 07c8 FFF7FEFF 		bl	chSchGoSleepS
 2346              	.LVL249:
 2347              	.LBB516:
 2348              	.LBB517:
 2349              		.loc 5 274 0
 2350 07cc 014B     		ldr	r3, .L150
 2351 07ce 9B69     		ldr	r3, [r3, #24]
 2352              	.LBE517:
 2353              	.LBE516:
 2354              		.loc 1 743 0
 2355 07d0 586A     		ldr	r0, [r3, #36]
 2356 07d2 38BD     		pop	{r3, r4, r5, pc}
 2357              	.LVL250:
 2358              	.L151:
 2359              		.align	2
 2360              	.L150:
 2361 07d4 00000000 		.word	ch
 2362 07d8 BC000000 		.word	.LANCHOR0+188
 2363              		.cfi_endproc
 2364              	.LFE314:
 2365              		.size	chThdSuspendS, .-chThdSuspendS
 2366              		.align	1
 2367 07dc AFF30080 		.p2align 4,,15
 2368              		.global	chThdSuspendTimeoutS
 2369              		.syntax unified
 2370              		.thumb
 2371              		.thumb_func
 2372              		.fpu softvfp
 2373              		.type	chThdSuspendTimeoutS, %function
 2374              	chThdSuspendTimeoutS:
 2375              	.LFB315:
 2376              		.loc 1 764 0
 2377              		.cfi_startproc
 2378              		@ args = 0, pretend = 0, frame = 0
 2379              		@ frame_needed = 0, uses_anonymous_args = 0
 2380              	.LVL251:
 2381 07e0 F8B5     		push	{r3, r4, r5, r6, r7, lr}
 2382              		.cfi_def_cfa_offset 24
 2383              		.cfi_offset 3, -24
 2384              		.cfi_offset 4, -20
ARM GAS  C:\Users\RAKIBU~1\AppData\Local\Temp\ccsGZEMI.s 			page 43


 2385              		.cfi_offset 5, -16
 2386              		.cfi_offset 6, -12
 2387              		.cfi_offset 7, -8
 2388              		.cfi_offset 14, -4
 2389 07e2 0446     		mov	r4, r0
 2390 07e4 1646     		mov	r6, r2
 2391 07e6 1F46     		mov	r7, r3
 2392              	.LBB518:
 2393              	.LBB519:
 2394              		.loc 5 274 0
 2395 07e8 0A4B     		ldr	r3, .L157
 2396 07ea 9D69     		ldr	r5, [r3, #24]
 2397              	.LBE519:
 2398              	.LBE518:
 2399              		.loc 1 767 0
 2400 07ec 0368     		ldr	r3, [r0]
 2401 07ee 13B1     		cbz	r3, .L153
 2402              		.loc 1 767 0 is_stmt 0 discriminator 2
 2403 07f0 0948     		ldr	r0, .L157+4
 2404              	.LVL252:
 2405 07f2 FFF7FEFF 		bl	chSysHalt
 2406              	.LVL253:
 2407              	.L153:
 2408              		.loc 1 769 0 is_stmt 1
 2409 07f6 56EA0703 		orrs	r3, r6, r7
 2410 07fa 07D0     		beq	.L155
 2411              		.loc 1 773 0
 2412 07fc 2560     		str	r5, [r4]
 2413              		.loc 1 774 0
 2414 07fe 6C62     		str	r4, [r5, #36]
 2415              		.loc 1 776 0
 2416 0800 3246     		mov	r2, r6
 2417 0802 3B46     		mov	r3, r7
 2418 0804 0320     		movs	r0, #3
 2419 0806 FFF7FEFF 		bl	chSchGoSleepTimeoutS
 2420              	.LVL254:
 2421              	.L152:
 2422              		.loc 1 777 0
 2423 080a F8BD     		pop	{r3, r4, r5, r6, r7, pc}
 2424              	.LVL255:
 2425              	.L155:
 2426              		.loc 1 770 0
 2427 080c 4FF0FF30 		mov	r0, #-1
 2428 0810 FBE7     		b	.L152
 2429              	.L158:
 2430 0812 00BF     		.align	2
 2431              	.L157:
 2432 0814 00000000 		.word	ch
 2433 0818 CC000000 		.word	.LANCHOR0+204
 2434              		.cfi_endproc
 2435              	.LFE315:
 2436              		.size	chThdSuspendTimeoutS, .-chThdSuspendTimeoutS
 2437              		.align	1
 2438 081c AFF30080 		.p2align 4,,15
 2439              		.global	chThdResumeI
 2440              		.syntax unified
 2441              		.thumb
ARM GAS  C:\Users\RAKIBU~1\AppData\Local\Temp\ccsGZEMI.s 			page 44


 2442              		.thumb_func
 2443              		.fpu softvfp
 2444              		.type	chThdResumeI, %function
 2445              	chThdResumeI:
 2446              	.LFB316:
 2447              		.loc 1 789 0
 2448              		.cfi_startproc
 2449              		@ args = 0, pretend = 0, frame = 0
 2450              		@ frame_needed = 0, uses_anonymous_args = 0
 2451              	.LVL256:
 2452 0820 70B5     		push	{r4, r5, r6, lr}
 2453              		.cfi_def_cfa_offset 16
 2454              		.cfi_offset 4, -16
 2455              		.cfi_offset 5, -12
 2456              		.cfi_offset 6, -8
 2457              		.cfi_offset 14, -4
 2458              		.loc 1 791 0
 2459 0822 0468     		ldr	r4, [r0]
 2460 0824 5CB1     		cbz	r4, .L159
 2461 0826 0E46     		mov	r6, r1
 2462 0828 0546     		mov	r5, r0
 2463              	.LVL257:
 2464              	.LBB520:
 2465              		.loc 1 794 0
 2466 082a 94F82030 		ldrb	r3, [r4, #32]	@ zero_extendqisi2
 2467 082e 032B     		cmp	r3, #3
 2468 0830 06D1     		bne	.L163
 2469              	.LVL258:
 2470              	.L161:
 2471              		.loc 1 796 0
 2472 0832 0023     		movs	r3, #0
 2473 0834 2B60     		str	r3, [r5]
 2474              		.loc 1 797 0
 2475 0836 6662     		str	r6, [r4, #36]
 2476              		.loc 1 798 0
 2477 0838 2046     		mov	r0, r4
 2478 083a FFF7FEFF 		bl	chSchReadyI
 2479              	.LVL259:
 2480              	.L159:
 2481              	.LBE520:
 2482              		.loc 1 800 0
 2483 083e 70BD     		pop	{r4, r5, r6, pc}
 2484              	.LVL260:
 2485              	.L163:
 2486              	.LBB521:
 2487              		.loc 1 794 0 discriminator 2
 2488 0840 0148     		ldr	r0, .L164
 2489              	.LVL261:
 2490 0842 FFF7FEFF 		bl	chSysHalt
 2491              	.LVL262:
 2492 0846 F4E7     		b	.L161
 2493              	.L165:
 2494              		.align	2
 2495              	.L164:
 2496 0848 E4000000 		.word	.LANCHOR0+228
 2497              	.LBE521:
 2498              		.cfi_endproc
ARM GAS  C:\Users\RAKIBU~1\AppData\Local\Temp\ccsGZEMI.s 			page 45


 2499              	.LFE316:
 2500              		.size	chThdResumeI, .-chThdResumeI
 2501              		.align	1
 2502 084c AFF30080 		.p2align 4,,15
 2503              		.global	chThdResumeS
 2504              		.syntax unified
 2505              		.thumb
 2506              		.thumb_func
 2507              		.fpu softvfp
 2508              		.type	chThdResumeS, %function
 2509              	chThdResumeS:
 2510              	.LFB317:
 2511              		.loc 1 812 0
 2512              		.cfi_startproc
 2513              		@ args = 0, pretend = 0, frame = 0
 2514              		@ frame_needed = 0, uses_anonymous_args = 0
 2515              	.LVL263:
 2516 0850 70B5     		push	{r4, r5, r6, lr}
 2517              		.cfi_def_cfa_offset 16
 2518              		.cfi_offset 4, -16
 2519              		.cfi_offset 5, -12
 2520              		.cfi_offset 6, -8
 2521              		.cfi_offset 14, -4
 2522              		.loc 1 814 0
 2523 0852 0568     		ldr	r5, [r0]
 2524 0854 5DB1     		cbz	r5, .L166
 2525 0856 0E46     		mov	r6, r1
 2526 0858 0446     		mov	r4, r0
 2527              	.LVL264:
 2528              	.LBB522:
 2529              		.loc 1 817 0
 2530 085a 95F82030 		ldrb	r3, [r5, #32]	@ zero_extendqisi2
 2531 085e 032B     		cmp	r3, #3
 2532 0860 06D1     		bne	.L170
 2533              	.LVL265:
 2534              	.L168:
 2535              		.loc 1 819 0
 2536 0862 0023     		movs	r3, #0
 2537 0864 2360     		str	r3, [r4]
 2538              		.loc 1 820 0
 2539 0866 3146     		mov	r1, r6
 2540 0868 2846     		mov	r0, r5
 2541 086a FFF7FEFF 		bl	chSchWakeupS
 2542              	.LVL266:
 2543              	.L166:
 2544              	.LBE522:
 2545              		.loc 1 822 0
 2546 086e 70BD     		pop	{r4, r5, r6, pc}
 2547              	.LVL267:
 2548              	.L170:
 2549              	.LBB523:
 2550              		.loc 1 817 0 discriminator 2
 2551 0870 0148     		ldr	r0, .L171
 2552              	.LVL268:
 2553 0872 FFF7FEFF 		bl	chSysHalt
 2554              	.LVL269:
 2555 0876 F4E7     		b	.L168
ARM GAS  C:\Users\RAKIBU~1\AppData\Local\Temp\ccsGZEMI.s 			page 46


 2556              	.L172:
 2557              		.align	2
 2558              	.L171:
 2559 0878 F4000000 		.word	.LANCHOR0+244
 2560              	.LBE523:
 2561              		.cfi_endproc
 2562              	.LFE317:
 2563              		.size	chThdResumeS, .-chThdResumeS
 2564              		.align	1
 2565 087c AFF30080 		.p2align 4,,15
 2566              		.global	chThdResume
 2567              		.syntax unified
 2568              		.thumb
 2569              		.thumb_func
 2570              		.fpu softvfp
 2571              		.type	chThdResume, %function
 2572              	chThdResume:
 2573              	.LFB318:
 2574              		.loc 1 834 0
 2575              		.cfi_startproc
 2576              		@ args = 0, pretend = 0, frame = 0
 2577              		@ frame_needed = 0, uses_anonymous_args = 0
 2578              	.LVL270:
 2579 0880 38B5     		push	{r3, r4, r5, lr}
 2580              		.cfi_def_cfa_offset 16
 2581              		.cfi_offset 3, -16
 2582              		.cfi_offset 4, -12
 2583              		.cfi_offset 5, -8
 2584              		.cfi_offset 14, -4
 2585 0882 0446     		mov	r4, r0
 2586 0884 0D46     		mov	r5, r1
 2587              	.LVL271:
 2588              	.LBB534:
 2589              	.LBB535:
 2590              	.LBB536:
 2591              	.LBB537:
 2592              	.LBB538:
 2593              		.loc 3 493 0
 2594 0886 2023     		movs	r3, #32
 2595              		.syntax unified
 2596              	@ 493 "../../../ChibiOSRepo/chibios191/os/common/ext/ARM/CMSIS/Core/Include/cmsis_gcc.h" 1
 2597 0888 83F31188 		MSR basepri, r3
 2598              	@ 0 "" 2
 2599              	.LVL272:
 2600              		.thumb
 2601              		.syntax unified
 2602              	.LBE538:
 2603              	.LBE537:
 2604              	.LBE536:
 2605              		.loc 4 356 0
 2606 088c FFF7FEFF 		bl	_stats_start_measure_crit_thd
 2607              	.LVL273:
 2608              		.loc 4 357 0
 2609 0890 FFF7FEFF 		bl	_dbg_check_lock
 2610              	.LVL274:
 2611              	.LBE535:
 2612              	.LBE534:
ARM GAS  C:\Users\RAKIBU~1\AppData\Local\Temp\ccsGZEMI.s 			page 47


 2613              		.loc 1 837 0
 2614 0894 2946     		mov	r1, r5
 2615 0896 2046     		mov	r0, r4
 2616 0898 FFF7FEFF 		bl	chThdResumeS
 2617              	.LVL275:
 2618              	.LBB539:
 2619              	.LBB540:
 2620              		.loc 4 367 0
 2621 089c FFF7FEFF 		bl	_dbg_check_unlock
 2622              	.LVL276:
 2623              		.loc 4 368 0
 2624 08a0 FFF7FEFF 		bl	_stats_stop_measure_crit_thd
 2625              	.LVL277:
 2626              		.loc 4 374 0
 2627 08a4 084B     		ldr	r3, .L177
 2628 08a6 1A68     		ldr	r2, [r3]
 2629 08a8 9A42     		cmp	r2, r3
 2630 08aa 04D0     		beq	.L174
 2631 08ac 9B69     		ldr	r3, [r3, #24]
 2632 08ae 9968     		ldr	r1, [r3, #8]
 2633 08b0 9368     		ldr	r3, [r2, #8]
 2634 08b2 9942     		cmp	r1, r3
 2635 08b4 03D3     		bcc	.L176
 2636              	.L174:
 2637              	.LVL278:
 2638              	.LBB541:
 2639              	.LBB542:
 2640              	.LBB543:
 2641              		.loc 3 493 0
 2642 08b6 0023     		movs	r3, #0
 2643              		.syntax unified
 2644              	@ 493 "../../../ChibiOSRepo/chibios191/os/common/ext/ARM/CMSIS/Core/Include/cmsis_gcc.h" 1
 2645 08b8 83F31188 		MSR basepri, r3
 2646              	@ 0 "" 2
 2647              	.LVL279:
 2648              		.thumb
 2649              		.syntax unified
 2650              	.LBE543:
 2651              	.LBE542:
 2652              	.LBE541:
 2653              	.LBE540:
 2654              	.LBE539:
 2655              		.loc 1 839 0
 2656 08bc 38BD     		pop	{r3, r4, r5, pc}
 2657              	.LVL280:
 2658              	.L176:
 2659              	.LBB545:
 2660              	.LBB544:
 2661              		.loc 4 374 0
 2662 08be 0348     		ldr	r0, .L177+4
 2663 08c0 FFF7FEFF 		bl	chSysHalt
 2664              	.LVL281:
 2665 08c4 F7E7     		b	.L174
 2666              	.L178:
 2667 08c6 00BF     		.align	2
 2668              	.L177:
 2669 08c8 00000000 		.word	ch
ARM GAS  C:\Users\RAKIBU~1\AppData\Local\Temp\ccsGZEMI.s 			page 48


 2670 08cc 30000000 		.word	.LANCHOR0+48
 2671              	.LBE544:
 2672              	.LBE545:
 2673              		.cfi_endproc
 2674              	.LFE318:
 2675              		.size	chThdResume, .-chThdResume
 2676              		.align	1
 2677              		.p2align 4,,15
 2678              		.global	chThdEnqueueTimeoutS
 2679              		.syntax unified
 2680              		.thumb
 2681              		.thumb_func
 2682              		.fpu softvfp
 2683              		.type	chThdEnqueueTimeoutS, %function
 2684              	chThdEnqueueTimeoutS:
 2685              	.LFB319:
 2686              		.loc 1 864 0
 2687              		.cfi_startproc
 2688              		@ args = 0, pretend = 0, frame = 0
 2689              		@ frame_needed = 0, uses_anonymous_args = 0
 2690              	.LVL282:
 2691              		.loc 1 866 0
 2692 08d0 52EA0301 		orrs	r1, r2, r3
 2693 08d4 0BD0     		beq	.L181
 2694              		.loc 1 864 0
 2695 08d6 10B5     		push	{r4, lr}
 2696              		.cfi_def_cfa_offset 8
 2697              		.cfi_offset 4, -8
 2698              		.cfi_offset 14, -4
 2699              		.loc 1 870 0
 2700 08d8 0649     		ldr	r1, .L186
 2701 08da 8969     		ldr	r1, [r1, #24]
 2702              	.LVL283:
 2703              	.LBB546:
 2704              	.LBB547:
 2705              		.loc 2 600 0
 2706 08dc 0860     		str	r0, [r1]
 2707              		.loc 2 601 0
 2708 08de 4468     		ldr	r4, [r0, #4]
 2709 08e0 4C60     		str	r4, [r1, #4]
 2710              		.loc 2 602 0
 2711 08e2 2160     		str	r1, [r4]
 2712              		.loc 2 603 0
 2713 08e4 4160     		str	r1, [r0, #4]
 2714              	.LVL284:
 2715              	.LBE547:
 2716              	.LBE546:
 2717              		.loc 1 872 0
 2718 08e6 0420     		movs	r0, #4
 2719              	.LVL285:
 2720 08e8 FFF7FEFF 		bl	chSchGoSleepTimeoutS
 2721              	.LVL286:
 2722              		.loc 1 873 0
 2723 08ec 10BD     		pop	{r4, pc}
 2724              	.LVL287:
 2725              	.L181:
 2726              		.cfi_def_cfa_offset 0
ARM GAS  C:\Users\RAKIBU~1\AppData\Local\Temp\ccsGZEMI.s 			page 49


 2727              		.cfi_restore 4
 2728              		.cfi_restore 14
 2729              		.loc 1 867 0
 2730 08ee 4FF0FF30 		mov	r0, #-1
 2731              	.LVL288:
 2732              		.loc 1 873 0
 2733 08f2 7047     		bx	lr
 2734              	.L187:
 2735              		.align	2
 2736              	.L186:
 2737 08f4 00000000 		.word	ch
 2738              		.cfi_endproc
 2739              	.LFE319:
 2740              		.size	chThdEnqueueTimeoutS, .-chThdEnqueueTimeoutS
 2741              		.align	1
 2742 08f8 AFF30080 		.p2align 4,,15
 2742      AFF30080 
 2743              		.global	chThdDequeueNextI
 2744              		.syntax unified
 2745              		.thumb
 2746              		.thumb_func
 2747              		.fpu softvfp
 2748              		.type	chThdDequeueNextI, %function
 2749              	chThdDequeueNextI:
 2750              	.LFB320:
 2751              		.loc 1 884 0
 2752              		.cfi_startproc
 2753              		@ args = 0, pretend = 0, frame = 0
 2754              		@ frame_needed = 0, uses_anonymous_args = 0
 2755              	.LVL289:
 2756              	.LBB556:
 2757              	.LBB557:
 2758              		.loc 2 566 0
 2759 0900 0368     		ldr	r3, [r0]
 2760              	.LVL290:
 2761              	.LBE557:
 2762              	.LBE556:
 2763              		.loc 1 886 0
 2764 0902 9842     		cmp	r0, r3
 2765 0904 17D0     		beq	.L193
 2766              		.loc 1 884 0
 2767 0906 70B5     		push	{r4, r5, r6, lr}
 2768              		.cfi_def_cfa_offset 16
 2769              		.cfi_offset 4, -16
 2770              		.cfi_offset 5, -12
 2771              		.cfi_offset 6, -8
 2772              		.cfi_offset 14, -4
 2773 0908 0E46     		mov	r6, r1
 2774 090a 0446     		mov	r4, r0
 2775              	.LVL291:
 2776              	.LBB558:
 2777              	.LBB559:
 2778              		.loc 5 428 0
 2779 090c 0FD0     		beq	.L196
 2780              	.LVL292:
 2781              	.L190:
 2782              	.LBB560:
ARM GAS  C:\Users\RAKIBU~1\AppData\Local\Temp\ccsGZEMI.s 			page 50


 2783              	.LBB561:
 2784              		.loc 2 607 0
 2785 090e 2568     		ldr	r5, [r4]
 2786              	.LVL293:
 2787              		.loc 2 609 0
 2788 0910 2B68     		ldr	r3, [r5]
 2789 0912 2360     		str	r3, [r4]
 2790              		.loc 2 610 0
 2791 0914 5C60     		str	r4, [r3, #4]
 2792              	.LVL294:
 2793              	.LBE561:
 2794              	.LBE560:
 2795              		.loc 5 432 0
 2796 0916 95F82030 		ldrb	r3, [r5, #32]	@ zero_extendqisi2
 2797 091a 042B     		cmp	r3, #4
 2798 091c 02D0     		beq	.L191
 2799 091e 0648     		ldr	r0, .L197
 2800 0920 FFF7FEFF 		bl	chSysHalt
 2801              	.LVL295:
 2802              	.L191:
 2803              		.loc 5 434 0
 2804 0924 6E62     		str	r6, [r5, #36]
 2805              		.loc 5 435 0
 2806 0926 2846     		mov	r0, r5
 2807 0928 FFF7FEFF 		bl	chSchReadyI
 2808              	.LVL296:
 2809              	.LBE559:
 2810              	.LBE558:
 2811              		.loc 1 889 0
 2812 092c 70BD     		pop	{r4, r5, r6, pc}
 2813              	.LVL297:
 2814              	.L196:
 2815              	.LBB563:
 2816              	.LBB562:
 2817              		.loc 5 428 0
 2818 092e 0248     		ldr	r0, .L197
 2819              	.LVL298:
 2820 0930 FFF7FEFF 		bl	chSysHalt
 2821              	.LVL299:
 2822 0934 EBE7     		b	.L190
 2823              	.LVL300:
 2824              	.L193:
 2825              		.cfi_def_cfa_offset 0
 2826              		.cfi_restore 4
 2827              		.cfi_restore 5
 2828              		.cfi_restore 6
 2829              		.cfi_restore 14
 2830 0936 7047     		bx	lr
 2831              	.L198:
 2832              		.align	2
 2833              	.L197:
 2834 0938 04010000 		.word	.LANCHOR0+260
 2835              	.LBE562:
 2836              	.LBE563:
 2837              		.cfi_endproc
 2838              	.LFE320:
 2839              		.size	chThdDequeueNextI, .-chThdDequeueNextI
ARM GAS  C:\Users\RAKIBU~1\AppData\Local\Temp\ccsGZEMI.s 			page 51


 2840              		.align	1
 2841 093c AFF30080 		.p2align 4,,15
 2842              		.global	chThdDequeueAllI
 2843              		.syntax unified
 2844              		.thumb
 2845              		.thumb_func
 2846              		.fpu softvfp
 2847              		.type	chThdDequeueAllI, %function
 2848              	chThdDequeueAllI:
 2849              	.LFB321:
 2850              		.loc 1 899 0
 2851              		.cfi_startproc
 2852              		@ args = 0, pretend = 0, frame = 0
 2853              		@ frame_needed = 0, uses_anonymous_args = 0
 2854              	.LVL301:
 2855 0940 70B5     		push	{r4, r5, r6, lr}
 2856              		.cfi_def_cfa_offset 16
 2857              		.cfi_offset 4, -16
 2858              		.cfi_offset 5, -12
 2859              		.cfi_offset 6, -8
 2860              		.cfi_offset 14, -4
 2861 0942 0446     		mov	r4, r0
 2862 0944 0E46     		mov	r6, r1
 2863              		.loc 1 901 0
 2864 0946 07E0     		b	.L200
 2865              	.LVL302:
 2866              	.L206:
 2867              	.LBB572:
 2868              	.LBB573:
 2869              		.loc 5 428 0
 2870 0948 0D48     		ldr	r0, .L207
 2871 094a FFF7FEFF 		bl	chSysHalt
 2872              	.LVL303:
 2873 094e 09E0     		b	.L201
 2874              	.L202:
 2875              		.loc 5 434 0
 2876 0950 6E62     		str	r6, [r5, #36]
 2877              		.loc 5 435 0
 2878 0952 2846     		mov	r0, r5
 2879 0954 FFF7FEFF 		bl	chSchReadyI
 2880              	.LVL304:
 2881              	.L200:
 2882              	.LBE573:
 2883              	.LBE572:
 2884              	.LBB579:
 2885              	.LBB580:
 2886              		.loc 2 566 0
 2887 0958 2368     		ldr	r3, [r4]
 2888              	.LVL305:
 2889              	.LBE580:
 2890              	.LBE579:
 2891              		.loc 1 901 0
 2892 095a 9C42     		cmp	r4, r3
 2893 095c 0ED0     		beq	.L205
 2894              	.LVL306:
 2895              	.LBB581:
 2896              	.LBB578:
ARM GAS  C:\Users\RAKIBU~1\AppData\Local\Temp\ccsGZEMI.s 			page 52


 2897              	.LBB574:
 2898              	.LBB575:
 2899              		.loc 2 566 0
 2900 095e 2368     		ldr	r3, [r4]
 2901              	.LVL307:
 2902              	.LBE575:
 2903              	.LBE574:
 2904              		.loc 5 428 0
 2905 0960 9C42     		cmp	r4, r3
 2906 0962 F1D0     		beq	.L206
 2907              	.L201:
 2908              	.LVL308:
 2909              	.LBB576:
 2910              	.LBB577:
 2911              		.loc 2 607 0
 2912 0964 2568     		ldr	r5, [r4]
 2913              	.LVL309:
 2914              		.loc 2 609 0
 2915 0966 2B68     		ldr	r3, [r5]
 2916 0968 2360     		str	r3, [r4]
 2917              		.loc 2 610 0
 2918 096a 5C60     		str	r4, [r3, #4]
 2919              	.LVL310:
 2920              	.LBE577:
 2921              	.LBE576:
 2922              		.loc 5 432 0
 2923 096c 95F82030 		ldrb	r3, [r5, #32]	@ zero_extendqisi2
 2924 0970 042B     		cmp	r3, #4
 2925 0972 EDD0     		beq	.L202
 2926 0974 0248     		ldr	r0, .L207
 2927 0976 FFF7FEFF 		bl	chSysHalt
 2928              	.LVL311:
 2929 097a E9E7     		b	.L202
 2930              	.LVL312:
 2931              	.L205:
 2932              	.LBE578:
 2933              	.LBE581:
 2934              		.loc 1 904 0
 2935 097c 70BD     		pop	{r4, r5, r6, pc}
 2936              	.LVL313:
 2937              	.L208:
 2938 097e 00BF     		.align	2
 2939              	.L207:
 2940 0980 04010000 		.word	.LANCHOR0+260
 2941              		.cfi_endproc
 2942              	.LFE321:
 2943              		.size	chThdDequeueAllI, .-chThdDequeueAllI
 2944              		.section	.rodata
 2945              		.align	2
 2946              		.set	.LANCHOR0,. + 0
 2947              		.type	__func__.7120, %object
 2948              		.size	__func__.7120, 22
 2949              	__func__.7120:
 2950 0000 63685468 		.ascii	"chThdCreateSuspendedI\000"
 2950      64437265 
 2950      61746553 
 2950      75737065 
ARM GAS  C:\Users\RAKIBU~1\AppData\Local\Temp\ccsGZEMI.s 			page 53


 2950      6E646564 
 2951 0016 0000     		.space	2
 2952              		.type	__func__.7125, %object
 2953              		.size	__func__.7125, 21
 2954              	__func__.7125:
 2955 0018 63685468 		.ascii	"chThdCreateSuspended\000"
 2955      64437265 
 2955      61746553 
 2955      75737065 
 2955      6E646564 
 2956 002d 000000   		.space	3
 2957              		.type	__func__.6118, %object
 2958              		.size	__func__.6118, 12
 2959              	__func__.6118:
 2960 0030 63685379 		.ascii	"chSysUnlock\000"
 2960      73556E6C 
 2960      6F636B00 
 2961              		.type	__func__.7133, %object
 2962              		.size	__func__.7133, 12
 2963              	__func__.7133:
 2964 003c 63685468 		.ascii	"chThdCreate\000"
 2964      64437265 
 2964      61746500 
 2965              		.type	__func__.7142, %object
 2966              		.size	__func__.7142, 18
 2967              	__func__.7142:
 2968 0048 63685468 		.ascii	"chThdCreateStatic\000"
 2968      64437265 
 2968      61746553 
 2968      74617469 
 2968      6300
 2969 005a 0000     		.space	2
 2970              		.type	__func__.7146, %object
 2971              		.size	__func__.7146, 11
 2972              	__func__.7146:
 2973 005c 63685468 		.ascii	"chThdStart\000"
 2973      64537461 
 2973      727400
 2974 0067 00       		.space	1
 2975              		.type	__func__.7150, %object
 2976              		.size	__func__.7150, 12
 2977              	__func__.7150:
 2978 0068 63685468 		.ascii	"chThdAddRef\000"
 2978      64416464 
 2978      52656600 
 2979              		.type	__func__.7154, %object
 2980              		.size	__func__.7154, 13
 2981              	__func__.7154:
 2982 0074 63685468 		.ascii	"chThdRelease\000"
 2982      6452656C 
 2982      65617365 
 2982      00
 2983 0081 000000   		.space	3
 2984              		.type	__func__.7169, %object
 2985              		.size	__func__.7169, 11
 2986              	__func__.7169:
 2987 0084 63685468 		.ascii	"chThdExitS\000"
ARM GAS  C:\Users\RAKIBU~1\AppData\Local\Temp\ccsGZEMI.s 			page 54


 2987      64457869 
 2987      745300
 2988 008f 00       		.space	1
 2989              		.type	__func__.7174, %object
 2990              		.size	__func__.7174, 10
 2991              	__func__.7174:
 2992 0090 63685468 		.ascii	"chThdWait\000"
 2992      64576169 
 2992      7400
 2993 009a 0000     		.space	2
 2994              		.type	__func__.7179, %object
 2995              		.size	__func__.7179, 17
 2996              	__func__.7179:
 2997 009c 63685468 		.ascii	"chThdSetPriority\000"
 2997      64536574 
 2997      5072696F 
 2997      72697479 
 2997      00
 2998 00ad 000000   		.space	3
 2999              		.type	__func__.6307, %object
 3000              		.size	__func__.6307, 12
 3001              	__func__.6307:
 3002 00b0 63685468 		.ascii	"chThdSleepS\000"
 3002      64536C65 
 3002      65705300 
 3003              		.type	__func__.7202, %object
 3004              		.size	__func__.7202, 14
 3005              	__func__.7202:
 3006 00bc 63685468 		.ascii	"chThdSuspendS\000"
 3006      64537573 
 3006      70656E64 
 3006      5300
 3007 00ca 0000     		.space	2
 3008              		.type	__func__.7208, %object
 3009              		.size	__func__.7208, 21
 3010              	__func__.7208:
 3011 00cc 63685468 		.ascii	"chThdSuspendTimeoutS\000"
 3011      64537573 
 3011      70656E64 
 3011      54696D65 
 3011      6F757453 
 3012 00e1 000000   		.space	3
 3013              		.type	__func__.7214, %object
 3014              		.size	__func__.7214, 13
 3015              	__func__.7214:
 3016 00e4 63685468 		.ascii	"chThdResumeI\000"
 3016      64526573 
 3016      756D6549 
 3016      00
 3017 00f1 000000   		.space	3
 3018              		.type	__func__.7220, %object
 3019              		.size	__func__.7220, 13
 3020              	__func__.7220:
 3021 00f4 63685468 		.ascii	"chThdResumeS\000"
 3021      64526573 
 3021      756D6553 
 3021      00
ARM GAS  C:\Users\RAKIBU~1\AppData\Local\Temp\ccsGZEMI.s 			page 55


 3022 0101 000000   		.space	3
 3023              		.type	__func__.6319, %object
 3024              		.size	__func__.6319, 20
 3025              	__func__.6319:
 3026 0104 63685468 		.ascii	"chThdDoDequeueNextI\000"
 3026      64446F44 
 3026      65717565 
 3026      75654E65 
 3026      78744900 
 3027              		.section	.rodata.str1.4,"aMS",%progbits,1
 3028              		.align	2
 3029              	.LC0:
 3030 0000 6E6F6E61 		.ascii	"noname\000"
 3030      6D6500
 3031              		.text
 3032              	.Letext0:
 3033              		.file 8 "c:\\chibistudio\\tools\\gnu tools arm embedded\\7.0 2017q4\\lib\\gcc\\arm-none-eabi\\7.2.
 3034              		.file 9 "c:\\chibistudio\\tools\\gnu tools arm embedded\\7.0 2017q4\\arm-none-eabi\\include\\machi
 3035              		.file 10 "c:\\chibistudio\\tools\\gnu tools arm embedded\\7.0 2017q4\\arm-none-eabi\\include\\sys\
 3036              		.file 11 "../../../ChibiOSRepo/chibios191/os/common/ports/ARMCMx/compilers/GCC/chtypes.h"
 3037              		.file 12 "../../../ChibiOSRepo/chibios191/os/rt/include/chsystypes.h"
 3038              		.file 13 "../../../ChibiOSRepo/chibios191/os/common/ext/ARM/CMSIS/Core/Include/core_cm4.h"
 3039              		.file 14 "../../../ChibiOSRepo/chibios191/os/common/ext/ST/STM32F4xx/system_stm32f4xx.h"
 3040              		.file 15 "../../../ChibiOSRepo/chibios191/os/common/ports/ARMCMx/chcore.h"
 3041              		.file 16 "../../../ChibiOSRepo/chibios191/os/common/ports/ARMCMx/chcore_v7m.h"
 3042              		.file 17 "../../../ChibiOSRepo/chibios191/os/hal/ports/STM32/LLD/TIMv1/stm32_tim.h"
 3043              		.file 18 "../../../ChibiOSRepo/chibios191/os/rt/include/chtrace.h"
 3044              		.file 19 "../../../ChibiOSRepo/chibios191/os/rt/include/chtm.h"
 3045              		.file 20 "../../../ChibiOSRepo/chibios191/os/rt/include/chstats.h"
 3046              		.file 21 "../../../ChibiOSRepo/chibios191/os/rt/include/chsem.h"
 3047              		.file 22 "../../../ChibiOSRepo/chibios191/os/rt/include/chmtx.h"
 3048              		.file 23 "../../../ChibiOSRepo/chibios191/os/rt/include/chregistry.h"
 3049              		.file 24 "../../../ChibiOSRepo/chibios191/os/oslib/include/chmemcore.h"
 3050              		.file 25 "../../../ChibiOSRepo/chibios191/os/oslib/include/chmempools.h"
 3051              		.file 26 "../../../ChibiOSRepo/chibios191/os/oslib/include/chfactory.h"
 3052              		.file 27 "../../../ChibiOSRepo/chibios191/os/rt/include/chvt.h"
 3053              		.file 28 "../../../ChibiOSRepo/chibios191/os/common/ports/ARMCMx/chcore_timer.h"
 3054              		.file 29 "../../../ChibiOSRepo/chibios191/os/rt/include/ch.h"
 3055              		.file 30 "../../../ChibiOSRepo/chibios191/os/rt/include/chdebug.h"
 3056              		.file 31 "../../../ChibiOSRepo/chibios191/os/oslib/include/chmemheaps.h"