ARM GAS  C:\Users\RAKIBU~1\AppData\Local\Temp\ccjGO38n.s 			page 1


   1              		.cpu cortex-m4
   2              		.eabi_attribute 20, 1
   3              		.eabi_attribute 21, 1
   4              		.eabi_attribute 23, 3
   5              		.eabi_attribute 24, 1
   6              		.eabi_attribute 25, 1
   7              		.eabi_attribute 26, 1
   8              		.eabi_attribute 30, 1
   9              		.eabi_attribute 34, 1
  10              		.eabi_attribute 18, 4
  11              		.file	"crt1.c"
  12              		.text
  13              	.Ltext0:
  14              		.cfi_sections	.debug_frame
  15              		.align	1
  16              		.p2align 4,,15
  17              		.weak	__core_init
  18              		.syntax unified
  19              		.thumb
  20              		.thumb_func
  21              		.fpu softvfp
  22              		.type	__core_init, %function
  23              	__core_init:
  24              	.LFB130:
  25              		.file 1 "../../../ChibiOSRepo/chibios191/os/common/startup/ARMCMx/compilers/GCC/crt1.c"
  26              		.loc 1 137 0
  27              		.cfi_startproc
  28              		@ args = 0, pretend = 0, frame = 0
  29              		@ frame_needed = 0, uses_anonymous_args = 0
  30              		@ link register save eliminated.
  31              		.loc 1 143 0
  32 0000 7047     		bx	lr
  33              		.cfi_endproc
  34              	.LFE130:
  35              		.size	__core_init, .-__core_init
  36              		.align	1
  37 0002 00BFAFF3 		.p2align 4,,15
  37      0080AFF3 
  37      0080AFF3 
  37      0080
  38              		.weak	__early_init
  39              		.syntax unified
  40              		.thumb
  41              		.thumb_func
  42              		.fpu softvfp
  43              		.type	__early_init, %function
  44              	__early_init:
  45              	.LFB131:
  46              		.loc 1 156 0
  47              		.cfi_startproc
  48              		@ args = 0, pretend = 0, frame = 0
  49              		@ frame_needed = 0, uses_anonymous_args = 0
  50              		@ link register save eliminated.
  51              		.loc 1 156 0
  52 0010 7047     		bx	lr
  53              		.cfi_endproc
  54              	.LFE131:
ARM GAS  C:\Users\RAKIBU~1\AppData\Local\Temp\ccjGO38n.s 			page 2


  55              		.size	__early_init, .-__early_init
  56              		.align	1
  57 0012 00BFAFF3 		.p2align 4,,15
  57      0080AFF3 
  57      0080AFF3 
  57      0080
  58              		.weak	__late_init
  59              		.syntax unified
  60              		.thumb
  61              		.thumb_func
  62              		.fpu softvfp
  63              		.type	__late_init, %function
  64              	__late_init:
  65              	.LFB132:
  66              		.loc 1 170 0
  67              		.cfi_startproc
  68              		@ args = 0, pretend = 0, frame = 0
  69              		@ frame_needed = 0, uses_anonymous_args = 0
  70              		@ link register save eliminated.
  71              		.loc 1 170 0
  72 0020 7047     		bx	lr
  73              		.cfi_endproc
  74              	.LFE132:
  75              		.size	__late_init, .-__late_init
  76              		.align	1
  77 0022 00BFAFF3 		.p2align 4,,15
  77      0080AFF3 
  77      0080AFF3 
  77      0080
  78              		.weak	__default_exit
  79              		.syntax unified
  80              		.thumb
  81              		.thumb_func
  82              		.fpu softvfp
  83              		.type	__default_exit, %function
  84              	__default_exit:
  85              	.LFB133:
  86              		.loc 1 183 0
  87              		.cfi_startproc
  88              		@ Volatile: function does not return.
  89              		@ args = 0, pretend = 0, frame = 0
  90              		@ frame_needed = 0, uses_anonymous_args = 0
  91              		@ link register save eliminated.
  92              	.L5:
  93 0030 FEE7     		b	.L5
  94              		.cfi_endproc
  95              	.LFE133:
  96              		.size	__default_exit, .-__default_exit
  97              		.align	1
  98 0032 00BFAFF3 		.p2align 4,,15
  98      0080AFF3 
  98      0080AFF3 
  98      0080
  99              		.global	__init_ram_areas
 100              		.syntax unified
 101              		.thumb
 102              		.thumb_func
ARM GAS  C:\Users\RAKIBU~1\AppData\Local\Temp\ccjGO38n.s 			page 3


 103              		.fpu softvfp
 104              		.type	__init_ram_areas, %function
 105              	__init_ram_areas:
 106              	.LFB134:
 107              		.loc 1 193 0
 108              		.cfi_startproc
 109              		@ args = 0, pretend = 0, frame = 0
 110              		@ frame_needed = 0, uses_anonymous_args = 0
 111              		@ link register save eliminated.
 112              	.LVL0:
 113              		.loc 1 195 0
 114 0040 0B4A     		ldr	r2, .L13
 115 0042 11E0     		b	.L11
 116              	.LVL1:
 117              	.L8:
 118              	.LBB2:
 119              		.loc 1 203 0
 120 0044 50F8041B 		ldr	r1, [r0], #4
 121              	.LVL2:
 122 0048 43F8041B 		str	r1, [r3], #4
 123              	.LVL3:
 124              	.L7:
 125              		.loc 1 202 0
 126 004c 9168     		ldr	r1, [r2, #8]
 127 004e 9942     		cmp	r1, r3
 128 0050 F8D8     		bhi	.L8
 129 0052 02E0     		b	.L9
 130              	.L10:
 131              		.loc 1 210 0
 132 0054 0021     		movs	r1, #0
 133 0056 43F8041B 		str	r1, [r3], #4
 134              	.LVL4:
 135              	.L9:
 136              		.loc 1 209 0
 137 005a D168     		ldr	r1, [r2, #12]
 138 005c 9942     		cmp	r1, r3
 139 005e F9D8     		bhi	.L10
 140              		.loc 1 213 0
 141 0060 1032     		adds	r2, r2, #16
 142              	.LVL5:
 143              	.LBE2:
 144              		.loc 1 215 0
 145 0062 044B     		ldr	r3, .L13+4
 146              	.LVL6:
 147 0064 9A42     		cmp	r2, r3
 148 0066 02D2     		bcs	.L12
 149              	.LVL7:
 150              	.L11:
 151              	.LBB3:
 152              		.loc 1 198 0
 153 0068 1068     		ldr	r0, [r2]
 154              	.LVL8:
 155              		.loc 1 199 0
 156 006a 5368     		ldr	r3, [r2, #4]
 157              	.LVL9:
 158              		.loc 1 202 0
 159 006c EEE7     		b	.L7
ARM GAS  C:\Users\RAKIBU~1\AppData\Local\Temp\ccjGO38n.s 			page 4


 160              	.LVL10:
 161              	.L12:
 162              	.LBE3:
 163              		.loc 1 217 0
 164 006e 7047     		bx	lr
 165              	.L14:
 166              		.align	2
 167              	.L13:
 168 0070 00000000 		.word	.LANCHOR0
 169 0074 80000000 		.word	.LANCHOR0+128
 170              		.cfi_endproc
 171              	.LFE134:
 172              		.size	__init_ram_areas, .-__init_ram_areas
 173              		.section	.rodata
 174              		.align	2
 175              		.set	.LANCHOR0,. + 0
 176              		.type	ram_areas, %object
 177              		.size	ram_areas, 128
 178              	ram_areas:
 179 0000 00000000 		.word	__ram0_init_text__
 180 0004 00000000 		.word	__ram0_init__
 181 0008 00000000 		.word	__ram0_clear__
 182 000c 00000000 		.word	__ram0_noinit__
 183 0010 00000000 		.word	__ram1_init_text__
 184 0014 00000000 		.word	__ram1_init__
 185 0018 00000000 		.word	__ram1_clear__
 186 001c 00000000 		.word	__ram1_noinit__
 187 0020 00000000 		.word	__ram2_init_text__
 188 0024 00000000 		.word	__ram2_init__
 189 0028 00000000 		.word	__ram2_clear__
 190 002c 00000000 		.word	__ram2_noinit__
 191 0030 00000000 		.word	__ram3_init_text__
 192 0034 00000000 		.word	__ram3_init__
 193 0038 00000000 		.word	__ram3_clear__
 194 003c 00000000 		.word	__ram3_noinit__
 195 0040 00000000 		.word	__ram4_init_text__
 196 0044 00000000 		.word	__ram4_init__
 197 0048 00000000 		.word	__ram4_clear__
 198 004c 00000000 		.word	__ram4_noinit__
 199 0050 00000000 		.word	__ram5_init_text__
 200 0054 00000000 		.word	__ram5_init__
 201 0058 00000000 		.word	__ram5_clear__
 202 005c 00000000 		.word	__ram5_noinit__
 203 0060 00000000 		.word	__ram6_init_text__
 204 0064 00000000 		.word	__ram6_init__
 205 0068 00000000 		.word	__ram6_clear__
 206 006c 00000000 		.word	__ram6_noinit__
 207 0070 00000000 		.word	__ram7_init_text__
 208 0074 00000000 		.word	__ram7_init__
 209 0078 00000000 		.word	__ram7_clear__
 210 007c 00000000 		.word	__ram7_noinit__
 211              		.text
 212              	.Letext0:
 213              		.file 2 "c:\\chibistudio\\tools\\gnu tools arm embedded\\7.0 2017q4\\arm-none-eabi\\include\\machi
 214              		.file 3 "c:\\chibistudio\\tools\\gnu tools arm embedded\\7.0 2017q4\\arm-none-eabi\\include\\sys\\
 215              		.file 4 "../../../ChibiOSRepo/chibios191/os/common/ext/ARM/CMSIS/Core/Include/core_cm4.h"
 216              		.file 5 "../../../ChibiOSRepo/chibios191/os/common/ext/ST/STM32F4xx/system_stm32f4xx.h"
ARM GAS  C:\Users\RAKIBU~1\AppData\Local\Temp\ccjGO38n.s 			page 5

