ARM GAS  C:\Users\RAKIBU~1\AppData\Local\Temp\ccBdMgjJ.s 			page 1


   1              		.cpu cortex-m4
   2              		.eabi_attribute 20, 1
   3              		.eabi_attribute 21, 1
   4              		.eabi_attribute 23, 3
   5              		.eabi_attribute 24, 1
   6              		.eabi_attribute 25, 1
   7              		.eabi_attribute 26, 1
   8              		.eabi_attribute 30, 1
   9              		.eabi_attribute 34, 1
  10              		.eabi_attribute 18, 4
  11              		.file	"hal_sdc.c"
  12              		.text
  13              	.Ltext0:
  14              		.cfi_sections	.debug_frame
  15              		.align	1
  16              		.p2align 4,,15
  17              		.syntax unified
  18              		.thumb
  19              		.thumb_func
  20              		.fpu softvfp
  21              		.type	sdc_cmd6_extract_info, %function
  22              	sdc_cmd6_extract_info:
  23              	.LFB333:
  24              		.file 1 "../../../ChibiOSRepo/chibios191/os/hal/src/hal_sdc.c"
  25              		.loc 1 272 0
  26              		.cfi_startproc
  27              		@ args = 0, pretend = 0, frame = 0
  28              		@ frame_needed = 0, uses_anonymous_args = 0
  29              		@ link register save eliminated.
  30              	.LVL0:
  31              		.loc 1 274 0
  32 0000 C0EBC070 		rsb	r0, r0, r0, lsl #31
  33              	.LVL1:
  34 0004 4300     		lsls	r3, r0, #1
  35 0006 03F10C02 		add	r2, r3, #12
  36              	.LVL2:
  37              		.loc 1 276 0
  38 000a 885C     		ldrb	r0, [r1, r2]	@ zero_extendqisi2
  39 000c 1944     		add	r1, r1, r3
  40              	.LVL3:
  41 000e 4B7B     		ldrb	r3, [r1, #13]	@ zero_extendqisi2
  42              		.loc 1 277 0
  43 0010 43EA0020 		orr	r0, r3, r0, lsl #8
  44 0014 7047     		bx	lr
  45              		.cfi_endproc
  46              	.LFE333:
  47              		.size	sdc_cmd6_extract_info, .-sdc_cmd6_extract_info
  48              		.align	1
  49 0016 00BFAFF3 		.p2align 4,,15
  49      0080AFF3 
  49      0080
  50              		.syntax unified
  51              		.thumb
  52              		.thumb_func
  53              		.fpu softvfp
  54              		.type	sdc_cmd6_check_status, %function
  55              	sdc_cmd6_check_status:
ARM GAS  C:\Users\RAKIBU~1\AppData\Local\Temp\ccBdMgjJ.s 			page 2


  56              	.LFB334:
  57              		.loc 1 292 0
  58              		.cfi_startproc
  59              		@ args = 0, pretend = 0, frame = 0
  60              		@ frame_needed = 0, uses_anonymous_args = 0
  61              		@ link register save eliminated.
  62              	.LVL4:
  63              		.loc 1 297 0
  64 0020 8A7B     		ldrb	r2, [r1, #14]	@ zero_extendqisi2
  65              		.loc 1 298 0
  66 0022 CB7B     		ldrb	r3, [r1, #15]	@ zero_extendqisi2
  67 0024 1B02     		lsls	r3, r3, #8
  68              		.loc 1 297 0
  69 0026 43EA0243 		orr	r3, r3, r2, lsl #16
  70              		.loc 1 299 0
  71 002a 0A7C     		ldrb	r2, [r1, #16]	@ zero_extendqisi2
  72              		.loc 1 297 0
  73 002c 1343     		orrs	r3, r3, r2
  74              	.LVL5:
  75              		.loc 1 300 0
  76 002e 8000     		lsls	r0, r0, #2
  77              	.LVL6:
  78 0030 C340     		lsrs	r3, r3, r0
  79              	.LVL7:
  80 0032 03F00F03 		and	r3, r3, #15
  81              	.LVL8:
  82              		.loc 1 301 0
  83 0036 0F2B     		cmp	r3, #15
  84 0038 01D0     		beq	.L4
  85              		.loc 1 302 0
  86 003a 0020     		movs	r0, #0
  87 003c 7047     		bx	lr
  88              	.L4:
  89              		.loc 1 304 0
  90 003e 0120     		movs	r0, #1
  91              		.loc 1 305 0
  92 0040 7047     		bx	lr
  93              		.cfi_endproc
  94              	.LFE334:
  95              		.size	sdc_cmd6_check_status, .-sdc_cmd6_check_status
  96              		.align	1
  97 0042 00BFAFF3 		.p2align 4,,15
  97      0080AFF3 
  97      0080AFF3 
  97      0080
  98              		.syntax unified
  99              		.thumb
 100              		.thumb_func
 101              		.fpu softvfp
 102              		.type	mmc_cmd6_construct, %function
 103              	mmc_cmd6_construct:
 104              	.LFB331:
 105              		.loc 1 230 0
 106              		.cfi_startproc
 107              		@ args = 0, pretend = 0, frame = 0
 108              		@ frame_needed = 0, uses_anonymous_args = 0
 109              	.LVL9:
ARM GAS  C:\Users\RAKIBU~1\AppData\Local\Temp\ccBdMgjJ.s 			page 3


 110 0050 F8B5     		push	{r3, r4, r5, r6, r7, lr}
 111              		.cfi_def_cfa_offset 24
 112              		.cfi_offset 3, -24
 113              		.cfi_offset 4, -20
 114              		.cfi_offset 5, -16
 115              		.cfi_offset 6, -12
 116              		.cfi_offset 7, -8
 117              		.cfi_offset 14, -4
 118 0052 0746     		mov	r7, r0
 119 0054 0C46     		mov	r4, r1
 120 0056 1646     		mov	r6, r2
 121 0058 1D46     		mov	r5, r3
 122              		.loc 1 232 0
 123 005a BF29     		cmp	r1, #191
 124 005c 08D8     		bhi	.L9
 125              	.LVL10:
 126              	.L6:
 127              		.loc 1 233 0 discriminator 1
 128 005e 072D     		cmp	r5, #7
 129 0060 0AD8     		bhi	.L10
 130              	.L7:
 131              		.loc 1 235 0
 132 0062 2004     		lsls	r0, r4, #16
 133 0064 40EA0760 		orr	r0, r0, r7, lsl #24
 134 0068 40EA0620 		orr	r0, r0, r6, lsl #8
 135              		.loc 1 236 0
 136 006c 2843     		orrs	r0, r0, r5
 137 006e F8BD     		pop	{r3, r4, r5, r6, r7, pc}
 138              	.LVL11:
 139              	.L9:
 140              		.loc 1 232 0 discriminator 2
 141 0070 0348     		ldr	r0, .L11
 142              	.LVL12:
 143 0072 FFF7FEFF 		bl	chSysHalt
 144              	.LVL13:
 145 0076 F2E7     		b	.L6
 146              	.L10:
 147              		.loc 1 233 0 discriminator 2
 148 0078 0148     		ldr	r0, .L11
 149 007a FFF7FEFF 		bl	chSysHalt
 150              	.LVL14:
 151 007e F0E7     		b	.L7
 152              	.L12:
 153              		.align	2
 154              	.L11:
 155 0080 00000000 		.word	.LANCHOR0
 156              		.cfi_endproc
 157              	.LFE331:
 158              		.size	mmc_cmd6_construct, .-mmc_cmd6_construct
 159              		.align	1
 160 0084 AFF30080 		.p2align 4,,15
 160      AFF30080 
 160      AFF30080 
 161              		.syntax unified
 162              		.thumb
 163              		.thumb_func
 164              		.fpu softvfp
ARM GAS  C:\Users\RAKIBU~1\AppData\Local\Temp\ccBdMgjJ.s 			page 4


 165              		.type	mmc_detect_bus_clk, %function
 166              	mmc_detect_bus_clk:
 167              	.LFB336:
 168              		.loc 1 373 0
 169              		.cfi_startproc
 170              		@ args = 0, pretend = 0, frame = 8
 171              		@ frame_needed = 0, uses_anonymous_args = 0
 172              	.LVL15:
 173              		.loc 1 376 0
 174 0090 C36A     		ldr	r3, [r0, #44]
 175 0092 1B68     		ldr	r3, [r3]
 176              	.LVL16:
 177              		.loc 1 379 0
 178 0094 0022     		movs	r2, #0
 179 0096 0A70     		strb	r2, [r1]
 180              		.loc 1 382 0
 181 0098 CBB1     		cbz	r3, .L16
 182              		.loc 1 373 0
 183 009a 30B5     		push	{r4, r5, lr}
 184              		.cfi_def_cfa_offset 12
 185              		.cfi_offset 4, -12
 186              		.cfi_offset 5, -8
 187              		.cfi_offset 14, -4
 188 009c 83B0     		sub	sp, sp, #12
 189              		.cfi_def_cfa_offset 24
 190 009e 0D46     		mov	r5, r1
 191 00a0 0446     		mov	r4, r0
 192              		.loc 1 386 0
 193 00a2 1346     		mov	r3, r2
 194              	.LVL17:
 195 00a4 0122     		movs	r2, #1
 196 00a6 B921     		movs	r1, #185
 197              	.LVL18:
 198 00a8 0320     		movs	r0, #3
 199              	.LVL19:
 200 00aa FFF7D1FF 		bl	mmc_cmd6_construct
 201              	.LVL20:
 202              		.loc 1 387 0
 203 00ae 01AB     		add	r3, sp, #4
 204 00b0 0246     		mov	r2, r0
 205 00b2 0621     		movs	r1, #6
 206 00b4 2046     		mov	r0, r4
 207              	.LVL21:
 208 00b6 FFF7FEFF 		bl	sdc_lld_send_cmd_short_crc
 209              	.LVL22:
 210 00ba 28B9     		cbnz	r0, .L14
 211              		.loc 1 388 0 discriminator 1
 212 00bc 054B     		ldr	r3, .L19
 213 00be 019A     		ldr	r2, [sp, #4]
 214 00c0 1340     		ands	r3, r3, r2
 215              		.loc 1 387 0 discriminator 1
 216 00c2 0BB9     		cbnz	r3, .L14
 217              		.loc 1 389 0
 218 00c4 0123     		movs	r3, #1
 219 00c6 2B70     		strb	r3, [r5]
 220              	.L14:
 221              		.loc 1 393 0
ARM GAS  C:\Users\RAKIBU~1\AppData\Local\Temp\ccBdMgjJ.s 			page 5


 222 00c8 0020     		movs	r0, #0
 223 00ca 03B0     		add	sp, sp, #12
 224              		.cfi_def_cfa_offset 12
 225              		@ sp needed
 226 00cc 30BD     		pop	{r4, r5, pc}
 227              	.LVL23:
 228              	.L16:
 229              		.cfi_def_cfa_offset 0
 230              		.cfi_restore 4
 231              		.cfi_restore 5
 232              		.cfi_restore 14
 233 00ce 0020     		movs	r0, #0
 234              	.LVL24:
 235 00d0 7047     		bx	lr
 236              	.L20:
 237 00d2 00BF     		.align	2
 238              	.L19:
 239 00d4 08E0FFFD 		.word	-33562616
 240              		.cfi_endproc
 241              	.LFE336:
 242              		.size	mmc_detect_bus_clk, .-mmc_detect_bus_clk
 243              		.align	1
 244 00d8 AFF30080 		.p2align 4,,15
 244      AFF30080 
 245              		.syntax unified
 246              		.thumb
 247              		.thumb_func
 248              		.fpu softvfp
 249              		.type	sdc_cmd6_construct, %function
 250              	sdc_cmd6_construct:
 251              	.LFB332:
 252              		.loc 1 251 0
 253              		.cfi_startproc
 254              		@ args = 0, pretend = 0, frame = 0
 255              		@ frame_needed = 0, uses_anonymous_args = 0
 256              	.LVL25:
 257 00e0 70B5     		push	{r4, r5, r6, lr}
 258              		.cfi_def_cfa_offset 16
 259              		.cfi_offset 4, -16
 260              		.cfi_offset 5, -12
 261              		.cfi_offset 6, -8
 262              		.cfi_offset 14, -4
 263 00e2 0546     		mov	r5, r0
 264 00e4 0E46     		mov	r6, r1
 265 00e6 1446     		mov	r4, r2
 266              	.LVL26:
 267              		.loc 1 254 0
 268 00e8 0F2A     		cmp	r2, #15
 269 00ea 0AD8     		bhi	.L24
 270              	.LVL27:
 271              	.L22:
 272              		.loc 1 256 0
 273 00ec B100     		lsls	r1, r6, #2
 274 00ee 0F20     		movs	r0, #15
 275 00f0 8840     		lsls	r0, r0, r1
 276 00f2 C043     		mvns	r0, r0
 277 00f4 20F07F40 		bic	r0, r0, #-16777216
ARM GAS  C:\Users\RAKIBU~1\AppData\Local\Temp\ccBdMgjJ.s 			page 6


 278              	.LVL28:
 279              		.loc 1 257 0
 280 00f8 8C40     		lsls	r4, r4, r1
 281              	.LVL29:
 282 00fa 2043     		orrs	r0, r0, r4
 283              	.LVL30:
 284              		.loc 1 259 0
 285 00fc 40EAC570 		orr	r0, r0, r5, lsl #31
 286              	.LVL31:
 287 0100 70BD     		pop	{r4, r5, r6, pc}
 288              	.LVL32:
 289              	.L24:
 290              		.loc 1 254 0 discriminator 2
 291 0102 0248     		ldr	r0, .L25
 292              	.LVL33:
 293 0104 FFF7FEFF 		bl	chSysHalt
 294              	.LVL34:
 295 0108 F0E7     		b	.L22
 296              	.L26:
 297 010a 00BF     		.align	2
 298              	.L25:
 299 010c 14000000 		.word	.LANCHOR0+20
 300              		.cfi_endproc
 301              	.LFE332:
 302              		.size	sdc_cmd6_construct, .-sdc_cmd6_construct
 303              		.align	1
 304              		.p2align 4,,15
 305              		.global	sdcGetInfo
 306              		.syntax unified
 307              		.thumb
 308              		.thumb_func
 309              		.fpu softvfp
 310              		.type	sdcGetInfo, %function
 311              	sdcGetInfo:
 312              	.LFB351:
 313              		.loc 1 927 0
 314              		.cfi_startproc
 315              		@ args = 0, pretend = 0, frame = 0
 316              		@ frame_needed = 0, uses_anonymous_args = 0
 317              	.LVL35:
 318 0110 38B5     		push	{r3, r4, r5, lr}
 319              		.cfi_def_cfa_offset 16
 320              		.cfi_offset 3, -16
 321              		.cfi_offset 4, -12
 322              		.cfi_offset 5, -8
 323              		.cfi_offset 14, -4
 324 0112 0C46     		mov	r4, r1
 325              		.loc 1 929 0
 326 0114 0546     		mov	r5, r0
 327 0116 28B1     		cbz	r0, .L28
 328              		.loc 1 929 0 is_stmt 0 discriminator 3
 329 0118 21B1     		cbz	r1, .L28
 330              	.LVL36:
 331              	.L29:
 332              		.loc 1 931 0 is_stmt 1
 333 011a 2B79     		ldrb	r3, [r5, #4]	@ zero_extendqisi2
 334 011c 052B     		cmp	r3, #5
ARM GAS  C:\Users\RAKIBU~1\AppData\Local\Temp\ccBdMgjJ.s 			page 7


 335 011e 05D0     		beq	.L33
 336              		.loc 1 932 0
 337 0120 0120     		movs	r0, #1
 338              	.L30:
 339              		.loc 1 939 0
 340 0122 38BD     		pop	{r3, r4, r5, pc}
 341              	.LVL37:
 342              	.L28:
 343              		.loc 1 929 0 discriminator 4
 344 0124 0548     		ldr	r0, .L34
 345              	.LVL38:
 346 0126 FFF7FEFF 		bl	chSysHalt
 347              	.LVL39:
 348 012a F6E7     		b	.L29
 349              	.L33:
 350              		.loc 1 935 0
 351 012c AB6A     		ldr	r3, [r5, #40]
 352 012e 6360     		str	r3, [r4, #4]
 353              		.loc 1 936 0
 354 0130 4FF40073 		mov	r3, #512
 355 0134 2360     		str	r3, [r4]
 356              		.loc 1 938 0
 357 0136 0020     		movs	r0, #0
 358 0138 F3E7     		b	.L30
 359              	.L35:
 360 013a 00BF     		.align	2
 361              	.L34:
 362 013c 28000000 		.word	.LANCHOR0+40
 363              		.cfi_endproc
 364              	.LFE351:
 365              		.size	sdcGetInfo, .-sdcGetInfo
 366              		.align	1
 367              		.p2align 4,,15
 368              		.syntax unified
 369              		.thumb
 370              		.thumb_func
 371              		.fpu softvfp
 372              		.type	mode_detect, %function
 373              	mode_detect:
 374              	.LFB328:
 375              		.loc 1 100 0
 376              		.cfi_startproc
 377              		@ args = 0, pretend = 0, frame = 8
 378              		@ frame_needed = 0, uses_anonymous_args = 0
 379              	.LVL40:
 380 0140 30B5     		push	{r4, r5, lr}
 381              		.cfi_def_cfa_offset 12
 382              		.cfi_offset 4, -12
 383              		.cfi_offset 5, -8
 384              		.cfi_offset 14, -4
 385 0142 83B0     		sub	sp, sp, #12
 386              		.cfi_def_cfa_offset 24
 387 0144 0446     		mov	r4, r0
 388              		.loc 1 104 0
 389 0146 01AB     		add	r3, sp, #4
 390 0148 4FF4D572 		mov	r2, #426
 391 014c 0821     		movs	r1, #8
ARM GAS  C:\Users\RAKIBU~1\AppData\Local\Temp\ccBdMgjJ.s 			page 8


 392 014e FFF7FEFF 		bl	sdc_lld_send_cmd_short_crc
 393              	.LVL41:
 394 0152 D0B9     		cbnz	r0, .L37
 395              		.loc 1 106 0
 396 0154 0123     		movs	r3, #1
 397 0156 2363     		str	r3, [r4, #48]
 398              		.loc 1 108 0
 399 0158 019B     		ldr	r3, [sp, #4]
 400 015a C3F30323 		ubfx	r3, r3, #8, #4
 401 015e 012B     		cmp	r3, #1
 402 0160 03D0     		beq	.L43
 403              		.loc 1 109 0
 404 0162 0125     		movs	r5, #1
 405              	.L38:
 406              		.loc 1 131 0
 407 0164 2846     		mov	r0, r5
 408 0166 03B0     		add	sp, sp, #12
 409              		.cfi_remember_state
 410              		.cfi_def_cfa_offset 12
 411              		@ sp needed
 412 0168 30BD     		pop	{r4, r5, pc}
 413              	.LVL42:
 414              	.L43:
 415              		.cfi_restore_state
 416              		.loc 1 111 0
 417 016a 01AB     		add	r3, sp, #4
 418 016c 0022     		movs	r2, #0
 419 016e 3721     		movs	r1, #55
 420 0170 2046     		mov	r0, r4
 421 0172 FFF7FEFF 		bl	sdc_lld_send_cmd_short_crc
 422              	.LVL43:
 423 0176 0546     		mov	r5, r0
 424 0178 0028     		cmp	r0, #0
 425 017a F3D1     		bne	.L38
 426              		.loc 1 112 0 discriminator 1
 427 017c 0E4B     		ldr	r3, .L44
 428 017e 019A     		ldr	r2, [sp, #4]
 429 0180 1340     		ands	r3, r3, r2
 430              		.loc 1 111 0 discriminator 1
 431 0182 002B     		cmp	r3, #0
 432 0184 EED0     		beq	.L38
 433              		.loc 1 113 0
 434 0186 0125     		movs	r5, #1
 435 0188 ECE7     		b	.L38
 436              	.L37:
 437              		.loc 1 118 0
 438 018a 01AB     		add	r3, sp, #4
 439 018c 0022     		movs	r2, #0
 440 018e 3721     		movs	r1, #55
 441 0190 2046     		mov	r0, r4
 442 0192 FFF7FEFF 		bl	sdc_lld_send_cmd_short_crc
 443              	.LVL44:
 444 0196 0546     		mov	r5, r0
 445 0198 18B9     		cbnz	r0, .L39
 446              		.loc 1 119 0 discriminator 1
 447 019a 074B     		ldr	r3, .L44
 448 019c 019A     		ldr	r2, [sp, #4]
ARM GAS  C:\Users\RAKIBU~1\AppData\Local\Temp\ccBdMgjJ.s 			page 9


 449 019e 1340     		ands	r3, r3, r2
 450              		.loc 1 118 0 discriminator 1
 451 01a0 1BB1     		cbz	r3, .L40
 452              	.L39:
 453              		.loc 1 120 0
 454 01a2 0223     		movs	r3, #2
 455 01a4 2363     		str	r3, [r4, #48]
 456              		.loc 1 130 0
 457 01a6 0025     		movs	r5, #0
 458              		.loc 1 120 0
 459 01a8 DCE7     		b	.L38
 460              	.L40:
 461              		.loc 1 123 0
 462 01aa 0021     		movs	r1, #0
 463 01ac 2163     		str	r1, [r4, #48]
 464              		.loc 1 126 0
 465 01ae 0A46     		mov	r2, r1
 466 01b0 2046     		mov	r0, r4
 467 01b2 FFF7FEFF 		bl	sdc_lld_send_cmd_none
 468              	.LVL45:
 469 01b6 D5E7     		b	.L38
 470              	.L45:
 471              		.align	2
 472              	.L44:
 473 01b8 08E0FFFD 		.word	-33562616
 474              		.cfi_endproc
 475              	.LFE328:
 476              		.size	mode_detect, .-mode_detect
 477              		.align	1
 478 01bc AFF30080 		.p2align 4,,15
 479              		.syntax unified
 480              		.thumb
 481              		.thumb_func
 482              		.fpu softvfp
 483              		.type	mmc_init, %function
 484              	mmc_init:
 485              	.LFB329:
 486              		.loc 1 144 0
 487              		.cfi_startproc
 488              		@ args = 0, pretend = 0, frame = 8
 489              		@ frame_needed = 0, uses_anonymous_args = 0
 490              	.LVL46:
 491 01c0 30B5     		push	{r4, r5, lr}
 492              		.cfi_def_cfa_offset 12
 493              		.cfi_offset 4, -12
 494              		.cfi_offset 5, -8
 495              		.cfi_offset 14, -4
 496 01c2 83B0     		sub	sp, sp, #12
 497              		.cfi_def_cfa_offset 24
 498 01c4 0546     		mov	r5, r0
 499              	.LVL47:
 500              		.loc 1 150 0
 501 01c6 0024     		movs	r4, #0
 502              	.LVL48:
 503              	.L49:
 504              		.loc 1 152 0
 505 01c8 01AB     		add	r3, sp, #4
ARM GAS  C:\Users\RAKIBU~1\AppData\Local\Temp\ccBdMgjJ.s 			page 10


 506 01ca 0F4A     		ldr	r2, .L53
 507 01cc 0121     		movs	r1, #1
 508 01ce 2846     		mov	r0, r5
 509 01d0 FFF7FEFF 		bl	sdc_lld_send_cmd_short
 510              	.LVL49:
 511 01d4 0246     		mov	r2, r0
 512 01d6 90B9     		cbnz	r0, .L47
 513              		.loc 1 155 0
 514 01d8 019B     		ldr	r3, [sp, #4]
 515 01da 002B     		cmp	r3, #0
 516 01dc 08DB     		blt	.L52
 517              		.loc 1 161 0
 518 01de 0134     		adds	r4, r4, #1
 519              	.LVL50:
 520 01e0 632C     		cmp	r4, #99
 521 01e2 0FD8     		bhi	.L50
 522              	.LVL51:
 523              	.LBB63:
 524              	.LBB64:
 525              		.file 2 "../../../ChibiOSRepo/chibios191/os/hal/osal/rt/osal.h"
 526              		.loc 2 720 0
 527 01e4 4FF47A70 		mov	r0, #1000
 528 01e8 0021     		movs	r1, #0
 529 01ea FFF7FEFF 		bl	chThdSleep
 530              	.LVL52:
 531 01ee EBE7     		b	.L49
 532              	.LVL53:
 533              	.L52:
 534              	.LBE64:
 535              	.LBE63:
 536              		.loc 1 156 0
 537 01f0 13F0804F 		tst	r3, #1073741824
 538 01f4 03D0     		beq	.L47
 539              		.loc 1 157 0
 540 01f6 2B6B     		ldr	r3, [r5, #48]
 541 01f8 43F01003 		orr	r3, r3, #16
 542 01fc 2B63     		str	r3, [r5, #48]
 543              	.L47:
 544              		.loc 1 168 0
 545 01fe 1046     		mov	r0, r2
 546 0200 03B0     		add	sp, sp, #12
 547              		.cfi_remember_state
 548              		.cfi_def_cfa_offset 12
 549              		@ sp needed
 550 0202 30BD     		pop	{r4, r5, pc}
 551              	.LVL54:
 552              	.L50:
 553              		.cfi_restore_state
 554              		.loc 1 162 0
 555 0204 0122     		movs	r2, #1
 556 0206 FAE7     		b	.L47
 557              	.L54:
 558              		.align	2
 559              	.L53:
 560 0208 0080FFC0 		.word	-1056997376
 561              		.cfi_endproc
 562              	.LFE329:
ARM GAS  C:\Users\RAKIBU~1\AppData\Local\Temp\ccBdMgjJ.s 			page 11


 563              		.size	mmc_init, .-mmc_init
 564              		.align	1
 565 020c AFF30080 		.p2align 4,,15
 566              		.syntax unified
 567              		.thumb
 568              		.thumb_func
 569              		.fpu softvfp
 570              		.type	sdc_init, %function
 571              	sdc_init:
 572              	.LFB330:
 573              		.loc 1 181 0
 574              		.cfi_startproc
 575              		@ args = 0, pretend = 0, frame = 8
 576              		@ frame_needed = 0, uses_anonymous_args = 0
 577              	.LVL55:
 578 0210 70B5     		push	{r4, r5, r6, lr}
 579              		.cfi_def_cfa_offset 16
 580              		.cfi_offset 4, -16
 581              		.cfi_offset 5, -12
 582              		.cfi_offset 6, -8
 583              		.cfi_offset 14, -4
 584 0212 82B0     		sub	sp, sp, #8
 585              		.cfi_def_cfa_offset 24
 586 0214 0546     		mov	r5, r0
 587              		.loc 1 186 0
 588 0216 036B     		ldr	r3, [r0, #48]
 589 0218 03F00F03 		and	r3, r3, #15
 590 021c 012B     		cmp	r3, #1
 591 021e 21D0     		beq	.L64
 592              		.loc 1 190 0
 593 0220 184E     		ldr	r6, .L66
 594              	.L56:
 595              	.LVL56:
 596              		.loc 1 193 0
 597 0222 0024     		movs	r4, #0
 598              	.LVL57:
 599              	.L59:
 600              		.loc 1 195 0
 601 0224 01AB     		add	r3, sp, #4
 602 0226 0022     		movs	r2, #0
 603 0228 3721     		movs	r1, #55
 604 022a 2846     		mov	r0, r5
 605 022c FFF7FEFF 		bl	sdc_lld_send_cmd_short_crc
 606              	.LVL58:
 607 0230 0346     		mov	r3, r0
 608 0232 10BB     		cbnz	r0, .L57
 609              		.loc 1 196 0 discriminator 1
 610 0234 144B     		ldr	r3, .L66+4
 611 0236 019A     		ldr	r2, [sp, #4]
 612 0238 1340     		ands	r3, r3, r2
 613              		.loc 1 195 0 discriminator 1
 614 023a EBB9     		cbnz	r3, .L61
 615              		.loc 1 199 0
 616 023c 01AB     		add	r3, sp, #4
 617 023e 3246     		mov	r2, r6
 618 0240 2921     		movs	r1, #41
 619 0242 2846     		mov	r0, r5
ARM GAS  C:\Users\RAKIBU~1\AppData\Local\Temp\ccBdMgjJ.s 			page 12


 620 0244 FFF7FEFF 		bl	sdc_lld_send_cmd_short
 621              	.LVL59:
 622 0248 0346     		mov	r3, r0
 623 024a B0B9     		cbnz	r0, .L57
 624              		.loc 1 202 0
 625 024c 019A     		ldr	r2, [sp, #4]
 626 024e 002A     		cmp	r2, #0
 627 0250 0ADB     		blt	.L65
 628              		.loc 1 208 0
 629 0252 0134     		adds	r4, r4, #1
 630              	.LVL60:
 631 0254 632C     		cmp	r4, #99
 632 0256 13D8     		bhi	.L62
 633              	.LVL61:
 634              	.LBB65:
 635              	.LBB66:
 636              		.loc 2 720 0
 637 0258 4FF47A70 		mov	r0, #1000
 638 025c 0021     		movs	r1, #0
 639 025e FFF7FEFF 		bl	chThdSleep
 640              	.LVL62:
 641 0262 DFE7     		b	.L59
 642              	.LVL63:
 643              	.L64:
 644              	.LBE66:
 645              	.LBE65:
 646              		.loc 1 187 0
 647 0264 094E     		ldr	r6, .L66+8
 648 0266 DCE7     		b	.L56
 649              	.LVL64:
 650              	.L65:
 651              		.loc 1 203 0
 652 0268 12F0804F 		tst	r2, #1073741824
 653 026c 05D0     		beq	.L57
 654              		.loc 1 204 0
 655 026e 2A6B     		ldr	r2, [r5, #48]
 656 0270 42F01002 		orr	r2, r2, #16
 657 0274 2A63     		str	r2, [r5, #48]
 658 0276 00E0     		b	.L57
 659              	.L61:
 660              		.loc 1 197 0
 661 0278 0123     		movs	r3, #1
 662              	.L57:
 663              		.loc 1 215 0
 664 027a 1846     		mov	r0, r3
 665 027c 02B0     		add	sp, sp, #8
 666              		.cfi_remember_state
 667              		.cfi_def_cfa_offset 16
 668              		@ sp needed
 669 027e 70BD     		pop	{r4, r5, r6, pc}
 670              	.LVL65:
 671              	.L62:
 672              		.cfi_restore_state
 673              		.loc 1 209 0
 674 0280 0123     		movs	r3, #1
 675 0282 FAE7     		b	.L57
 676              	.L67:
ARM GAS  C:\Users\RAKIBU~1\AppData\Local\Temp\ccBdMgjJ.s 			page 13


 677              		.align	2
 678              	.L66:
 679 0284 00001080 		.word	-2146435072
 680 0288 08E0FFFD 		.word	-33562616
 681 028c 0080FF50 		.word	1358921728
 682              		.cfi_endproc
 683              	.LFE330:
 684              		.size	sdc_init, .-sdc_init
 685              		.align	1
 686              		.p2align 4,,15
 687              		.syntax unified
 688              		.thumb
 689              		.thumb_func
 690              		.fpu softvfp
 691              		.type	sdc_detect_bus_clk, %function
 692              	sdc_detect_bus_clk:
 693              	.LFB335:
 694              		.loc 1 319 0
 695              		.cfi_startproc
 696              		@ args = 0, pretend = 0, frame = 64
 697              		@ frame_needed = 0, uses_anonymous_args = 0
 698              	.LVL66:
 699 0290 70B5     		push	{r4, r5, r6, lr}
 700              		.cfi_def_cfa_offset 16
 701              		.cfi_offset 4, -16
 702              		.cfi_offset 5, -12
 703              		.cfi_offset 6, -8
 704              		.cfi_offset 14, -4
 705 0292 92B0     		sub	sp, sp, #72
 706              		.cfi_def_cfa_offset 88
 707 0294 0646     		mov	r6, r0
 708 0296 0D46     		mov	r5, r1
 709              	.LVL67:
 710              		.loc 1 325 0
 711 0298 0023     		movs	r3, #0
 712 029a 0B70     		strb	r3, [r1]
 713              		.loc 1 329 0
 714 029c 7E22     		movs	r2, #126
 715 029e 7F21     		movs	r1, #127
 716              	.LVL68:
 717 02a0 1830     		adds	r0, r0, #24
 718              	.LVL69:
 719 02a2 FFF7FEFF 		bl	_mmcsd_get_slice
 720              	.LVL70:
 721 02a6 20B9     		cbnz	r0, .L69
 722              		.loc 1 330 0
 723 02a8 0024     		movs	r4, #0
 724 02aa 2C70     		strb	r4, [r5]
 725              	.L70:
 726              		.loc 1 359 0
 727 02ac 2046     		mov	r0, r4
 728 02ae 12B0     		add	sp, sp, #72
 729              		.cfi_remember_state
 730              		.cfi_def_cfa_offset 16
 731              		@ sp needed
 732 02b0 70BD     		pop	{r4, r5, r6, pc}
 733              	.LVL71:
ARM GAS  C:\Users\RAKIBU~1\AppData\Local\Temp\ccBdMgjJ.s 			page 14


 734              	.L69:
 735              		.cfi_restore_state
 736              		.loc 1 335 0
 737 02b2 0023     		movs	r3, #0
 738 02b4 0093     		str	r3, [sp]
 739 02b6 0623     		movs	r3, #6
 740 02b8 4022     		movs	r2, #64
 741 02ba 02A9     		add	r1, sp, #8
 742              	.LVL72:
 743 02bc 3046     		mov	r0, r6
 744 02be FFF7FEFF 		bl	sdc_lld_read_special
 745              	.LVL73:
 746 02c2 0446     		mov	r4, r0
 747 02c4 0028     		cmp	r0, #0
 748 02c6 F1D1     		bne	.L70
 749              		.loc 1 340 0
 750 02c8 02A9     		add	r1, sp, #8
 751              	.LVL74:
 752 02ca FFF799FE 		bl	sdc_cmd6_extract_info
 753              	.LVL75:
 754 02ce 10F0020F 		tst	r0, #2
 755 02d2 EBD0     		beq	.L70
 756              		.loc 1 342 0
 757 02d4 0122     		movs	r2, #1
 758 02d6 0021     		movs	r1, #0
 759 02d8 1046     		mov	r0, r2
 760 02da FFF701FF 		bl	sdc_cmd6_construct
 761              	.LVL76:
 762              		.loc 1 345 0
 763 02de 0090     		str	r0, [sp]
 764 02e0 0623     		movs	r3, #6
 765 02e2 4022     		movs	r2, #64
 766 02e4 02A9     		add	r1, sp, #8
 767              	.LVL77:
 768 02e6 3046     		mov	r0, r6
 769              	.LVL78:
 770 02e8 FFF7FEFF 		bl	sdc_lld_read_special
 771              	.LVL79:
 772 02ec 0446     		mov	r4, r0
 773 02ee 0028     		cmp	r0, #0
 774 02f0 DCD1     		bne	.L70
 775              		.loc 1 350 0
 776 02f2 02A9     		add	r1, sp, #8
 777              	.LVL80:
 778 02f4 FFF794FE 		bl	sdc_cmd6_check_status
 779              	.LVL81:
 780 02f8 10B1     		cbz	r0, .L73
 781              		.loc 1 354 0
 782 02fa 0023     		movs	r3, #0
 783 02fc 2B70     		strb	r3, [r5]
 784 02fe D5E7     		b	.L70
 785              	.L73:
 786              		.loc 1 351 0
 787 0300 0122     		movs	r2, #1
 788 0302 2A70     		strb	r2, [r5]
 789              		.loc 1 358 0
 790 0304 0446     		mov	r4, r0
ARM GAS  C:\Users\RAKIBU~1\AppData\Local\Temp\ccBdMgjJ.s 			page 15


 791 0306 D1E7     		b	.L70
 792              		.cfi_endproc
 793              	.LFE335:
 794              		.size	sdc_detect_bus_clk, .-sdc_detect_bus_clk
 795              		.align	1
 796 0308 AFF30080 		.p2align 4,,15
 796      AFF30080 
 797              		.syntax unified
 798              		.thumb
 799              		.thumb_func
 800              		.fpu softvfp
 801              		.type	detect_bus_clk, %function
 802              	detect_bus_clk:
 803              	.LFB337:
 804              		.loc 1 407 0
 805              		.cfi_startproc
 806              		@ args = 0, pretend = 0, frame = 0
 807              		@ frame_needed = 0, uses_anonymous_args = 0
 808              	.LVL82:
 809 0310 08B5     		push	{r3, lr}
 810              		.cfi_def_cfa_offset 8
 811              		.cfi_offset 3, -8
 812              		.cfi_offset 14, -4
 813              		.loc 1 409 0
 814 0312 036B     		ldr	r3, [r0, #48]
 815 0314 03F00F03 		and	r3, r3, #15
 816 0318 022B     		cmp	r3, #2
 817 031a 02D0     		beq	.L78
 818              		.loc 1 412 0
 819 031c FFF7B8FF 		bl	sdc_detect_bus_clk
 820              	.LVL83:
 821              	.L76:
 822              		.loc 1 413 0
 823 0320 08BD     		pop	{r3, pc}
 824              	.LVL84:
 825              	.L78:
 826              		.loc 1 410 0
 827 0322 FFF7B5FE 		bl	mmc_detect_bus_clk
 828              	.LVL85:
 829 0326 FBE7     		b	.L76
 830              		.cfi_endproc
 831              	.LFE337:
 832              		.size	detect_bus_clk, .-detect_bus_clk
 833              		.align	1
 834              		.syntax unified
 835              		.thumb
 836              		.thumb_func
 837              		.fpu softvfp
 838              		.type	sdc_set_bus_width, %function
 839              	sdc_set_bus_width:
 840              	.LFB338:
 841              		.loc 1 426 0
 842              		.cfi_startproc
 843              		@ args = 0, pretend = 0, frame = 8
 844              		@ frame_needed = 0, uses_anonymous_args = 0
 845              	.LVL86:
 846              		.loc 1 429 0
ARM GAS  C:\Users\RAKIBU~1\AppData\Local\Temp\ccBdMgjJ.s 			page 16


 847 0328 C36A     		ldr	r3, [r0, #44]
 848 032a 1B79     		ldrb	r3, [r3, #4]	@ zero_extendqisi2
 849 032c 1BB3     		cbz	r3, .L81
 850              		.loc 1 433 0
 851 032e 012B     		cmp	r3, #1
 852 0330 24D1     		bne	.L82
 853              		.loc 1 426 0
 854 0332 10B5     		push	{r4, lr}
 855              		.cfi_def_cfa_offset 8
 856              		.cfi_offset 4, -8
 857              		.cfi_offset 14, -4
 858 0334 82B0     		sub	sp, sp, #8
 859              		.cfi_def_cfa_offset 16
 860 0336 0446     		mov	r4, r0
 861              		.loc 1 434 0
 862 0338 0121     		movs	r1, #1
 863 033a FFF7FEFF 		bl	sdc_lld_set_bus_mode
 864              	.LVL87:
 865              		.loc 1 435 0
 866 033e 01AB     		add	r3, sp, #4
 867 0340 A26B     		ldr	r2, [r4, #56]
 868 0342 3721     		movs	r1, #55
 869 0344 2046     		mov	r0, r4
 870 0346 FFF7FEFF 		bl	sdc_lld_send_cmd_short_crc
 871              	.LVL88:
 872 034a 0346     		mov	r3, r0
 873 034c 80B9     		cbnz	r0, .L80
 874              		.loc 1 436 0 discriminator 1
 875 034e 0D4B     		ldr	r3, .L88
 876 0350 019A     		ldr	r2, [sp, #4]
 877 0352 1340     		ands	r3, r3, r2
 878              		.loc 1 435 0 discriminator 1
 879 0354 A3B9     		cbnz	r3, .L83
 880              		.loc 1 440 0
 881 0356 01AB     		add	r3, sp, #4
 882 0358 0222     		movs	r2, #2
 883 035a 0621     		movs	r1, #6
 884 035c 2046     		mov	r0, r4
 885 035e FFF7FEFF 		bl	sdc_lld_send_cmd_short_crc
 886              	.LVL89:
 887 0362 0346     		mov	r3, r0
 888 0364 20B9     		cbnz	r0, .L80
 889              		.loc 1 441 0 discriminator 1
 890 0366 074A     		ldr	r2, .L88
 891 0368 0199     		ldr	r1, [sp, #4]
 892 036a 0A40     		ands	r2, r2, r1
 893              		.loc 1 440 0 discriminator 1
 894 036c 02B1     		cbz	r2, .L80
 895              		.loc 1 442 0
 896 036e 0123     		movs	r3, #1
 897              	.L80:
 898              		.loc 1 451 0
 899 0370 1846     		mov	r0, r3
 900 0372 02B0     		add	sp, sp, #8
 901              		.cfi_def_cfa_offset 8
 902              		@ sp needed
 903 0374 10BD     		pop	{r4, pc}
ARM GAS  C:\Users\RAKIBU~1\AppData\Local\Temp\ccBdMgjJ.s 			page 17


 904              	.LVL90:
 905              	.L81:
 906              		.cfi_def_cfa_offset 0
 907              		.cfi_restore 4
 908              		.cfi_restore 14
 909              		.loc 1 431 0
 910 0376 0023     		movs	r3, #0
 911              	.L85:
 912              		.loc 1 451 0
 913 0378 1846     		mov	r0, r3
 914              	.LVL91:
 915 037a 7047     		bx	lr
 916              	.LVL92:
 917              	.L82:
 918              		.loc 1 447 0
 919 037c 0123     		movs	r3, #1
 920 037e FBE7     		b	.L85
 921              	.LVL93:
 922              	.L83:
 923              		.cfi_def_cfa_offset 16
 924              		.cfi_offset 4, -8
 925              		.cfi_offset 14, -4
 926              		.loc 1 437 0
 927 0380 0123     		movs	r3, #1
 928 0382 F5E7     		b	.L80
 929              	.L89:
 930              		.align	2
 931              	.L88:
 932 0384 08E0FFFD 		.word	-33562616
 933              		.cfi_endproc
 934              	.LFE338:
 935              		.size	sdc_set_bus_width, .-sdc_set_bus_width
 936              		.align	1
 937              		.syntax unified
 938              		.thumb
 939              		.thumb_func
 940              		.fpu softvfp
 941              		.type	mmc_set_bus_width, %function
 942              	mmc_set_bus_width:
 943              	.LFB339:
 944              		.loc 1 464 0
 945              		.cfi_startproc
 946              		@ args = 0, pretend = 0, frame = 8
 947              		@ frame_needed = 0, uses_anonymous_args = 0
 948              	.LVL94:
 949 0388 30B5     		push	{r4, r5, lr}
 950              		.cfi_def_cfa_offset 12
 951              		.cfi_offset 4, -12
 952              		.cfi_offset 5, -8
 953              		.cfi_offset 14, -4
 954 038a 83B0     		sub	sp, sp, #12
 955              		.cfi_def_cfa_offset 24
 956 038c 0446     		mov	r4, r0
 957              		.loc 1 466 0
 958 038e 0023     		movs	r3, #0
 959 0390 1A46     		mov	r2, r3
 960 0392 B721     		movs	r1, #183
ARM GAS  C:\Users\RAKIBU~1\AppData\Local\Temp\ccBdMgjJ.s 			page 18


 961 0394 0320     		movs	r0, #3
 962              	.LVL95:
 963 0396 FFF75BFE 		bl	mmc_cmd6_construct
 964              	.LVL96:
 965              		.loc 1 468 0
 966 039a E36A     		ldr	r3, [r4, #44]
 967 039c 1B79     		ldrb	r3, [r3, #4]	@ zero_extendqisi2
 968 039e 012B     		cmp	r3, #1
 969 03a0 07D0     		beq	.L92
 970 03a2 0546     		mov	r5, r0
 971 03a4 4BB3     		cbz	r3, .L96
 972 03a6 022B     		cmp	r3, #2
 973 03a8 1FD0     		beq	.L94
 974              		.loc 1 479 0 discriminator 2
 975 03aa 1548     		ldr	r0, .L99
 976              	.LVL97:
 977 03ac FFF7FEFF 		bl	chSysHalt
 978              	.LVL98:
 979              		.loc 1 480 0 discriminator 2
 980 03b0 06E0     		b	.L95
 981              	.LVL99:
 982              	.L92:
 983              		.loc 1 473 0
 984 03b2 0023     		movs	r3, #0
 985 03b4 0122     		movs	r2, #1
 986 03b6 B721     		movs	r1, #183
 987 03b8 0320     		movs	r0, #3
 988              	.LVL100:
 989 03ba FFF749FE 		bl	mmc_cmd6_construct
 990              	.LVL101:
 991 03be 0546     		mov	r5, r0
 992              	.LVL102:
 993              	.L95:
 994              		.loc 1 483 0
 995 03c0 E36A     		ldr	r3, [r4, #44]
 996 03c2 1979     		ldrb	r1, [r3, #4]	@ zero_extendqisi2
 997 03c4 2046     		mov	r0, r4
 998 03c6 FFF7FEFF 		bl	sdc_lld_set_bus_mode
 999              	.LVL103:
 1000              		.loc 1 484 0
 1001 03ca 01AB     		add	r3, sp, #4
 1002 03cc 2A46     		mov	r2, r5
 1003 03ce 0621     		movs	r1, #6
 1004 03d0 2046     		mov	r0, r4
 1005 03d2 FFF7FEFF 		bl	sdc_lld_send_cmd_short_crc
 1006              	.LVL104:
 1007 03d6 0346     		mov	r3, r0
 1008 03d8 20B9     		cbnz	r0, .L93
 1009              		.loc 1 485 0 discriminator 1
 1010 03da 0A4A     		ldr	r2, .L99+4
 1011 03dc 0199     		ldr	r1, [sp, #4]
 1012 03de 0A40     		ands	r2, r2, r1
 1013              		.loc 1 484 0 discriminator 1
 1014 03e0 02B1     		cbz	r2, .L93
 1015              		.loc 1 486 0
 1016 03e2 0123     		movs	r3, #1
 1017              	.LVL105:
ARM GAS  C:\Users\RAKIBU~1\AppData\Local\Temp\ccBdMgjJ.s 			page 19


 1018              	.L93:
 1019              		.loc 1 490 0
 1020 03e4 1846     		mov	r0, r3
 1021 03e6 03B0     		add	sp, sp, #12
 1022              		.cfi_remember_state
 1023              		.cfi_def_cfa_offset 12
 1024              		@ sp needed
 1025 03e8 30BD     		pop	{r4, r5, pc}
 1026              	.LVL106:
 1027              	.L94:
 1028              		.cfi_restore_state
 1029              		.loc 1 476 0
 1030 03ea 0023     		movs	r3, #0
 1031 03ec 0222     		movs	r2, #2
 1032 03ee B721     		movs	r1, #183
 1033 03f0 0320     		movs	r0, #3
 1034              	.LVL107:
 1035 03f2 FFF72DFE 		bl	mmc_cmd6_construct
 1036              	.LVL108:
 1037 03f6 0546     		mov	r5, r0
 1038              	.LVL109:
 1039              		.loc 1 477 0
 1040 03f8 E2E7     		b	.L95
 1041              	.L96:
 1042              		.loc 1 471 0
 1043 03fa 0023     		movs	r3, #0
 1044 03fc F2E7     		b	.L93
 1045              	.L100:
 1046 03fe 00BF     		.align	2
 1047              	.L99:
 1048 0400 34000000 		.word	.LANCHOR0+52
 1049 0404 08E0FFFD 		.word	-33562616
 1050              		.cfi_endproc
 1051              	.LFE339:
 1052              		.size	mmc_set_bus_width, .-mmc_set_bus_width
 1053              		.align	1
 1054 0408 AFF30080 		.p2align 4,,15
 1054      AFF30080 
 1055              		.global	sdcConnect
 1056              		.syntax unified
 1057              		.thumb
 1058              		.thumb_func
 1059              		.fpu softvfp
 1060              		.type	sdcConnect, %function
 1061              	sdcConnect:
 1062              	.LFB345:
 1063              		.loc 1 623 0
 1064              		.cfi_startproc
 1065              		@ args = 0, pretend = 0, frame = 8
 1066              		@ frame_needed = 0, uses_anonymous_args = 0
 1067              	.LVL110:
 1068 0410 30B5     		push	{r4, r5, lr}
 1069              		.cfi_def_cfa_offset 12
 1070              		.cfi_offset 4, -12
 1071              		.cfi_offset 5, -8
 1072              		.cfi_offset 14, -4
 1073 0412 85B0     		sub	sp, sp, #20
ARM GAS  C:\Users\RAKIBU~1\AppData\Local\Temp\ccBdMgjJ.s 			page 20


 1074              		.cfi_def_cfa_offset 32
 1075              		.loc 1 625 0
 1076 0414 0023     		movs	r3, #0
 1077 0416 8DF80B30 		strb	r3, [sp, #11]
 1078              		.loc 1 627 0
 1079 041a 0446     		mov	r4, r0
 1080 041c 60B3     		cbz	r0, .L115
 1081              	.LVL111:
 1082              	.L102:
 1083              		.loc 1 628 0 discriminator 1
 1084 041e 2379     		ldrb	r3, [r4, #4]	@ zero_extendqisi2
 1085 0420 022B     		cmp	r3, #2
 1086 0422 01D0     		beq	.L103
 1087              		.loc 1 628 0 is_stmt 0 discriminator 2
 1088 0424 052B     		cmp	r3, #5
 1089 0426 2BD1     		bne	.L116
 1090              	.L103:
 1091              		.loc 1 632 0 is_stmt 1
 1092 0428 0323     		movs	r3, #3
 1093 042a 2371     		strb	r3, [r4, #4]
 1094              		.loc 1 635 0
 1095 042c 2046     		mov	r0, r4
 1096 042e FFF7FEFF 		bl	sdc_lld_start_clk
 1097              	.LVL112:
 1098              		.loc 1 638 0
 1099 0432 0022     		movs	r2, #0
 1100 0434 1146     		mov	r1, r2
 1101 0436 2046     		mov	r0, r4
 1102 0438 FFF7FEFF 		bl	sdc_lld_send_cmd_none
 1103              	.LVL113:
 1104              		.loc 1 641 0
 1105 043c 2046     		mov	r0, r4
 1106 043e FFF77FFE 		bl	mode_detect
 1107              	.LVL114:
 1108 0442 80B9     		cbnz	r0, .L104
 1109              		.loc 1 646 0
 1110 0444 236B     		ldr	r3, [r4, #48]
 1111 0446 03F00F03 		and	r3, r3, #15
 1112 044a 022B     		cmp	r3, #2
 1113 044c 1CD0     		beq	.L117
 1114              		.loc 1 652 0
 1115 044e 2046     		mov	r0, r4
 1116 0450 FFF7DEFE 		bl	sdc_init
 1117              	.LVL115:
 1118 0454 38B9     		cbnz	r0, .L104
 1119              	.L106:
 1120              		.loc 1 658 0
 1121 0456 04F10803 		add	r3, r4, #8
 1122 045a 0022     		movs	r2, #0
 1123 045c 0221     		movs	r1, #2
 1124 045e 2046     		mov	r0, r4
 1125 0460 FFF7FEFF 		bl	sdc_lld_send_cmd_long_crc
 1126              	.LVL116:
 1127 0464 B0B1     		cbz	r0, .L118
 1128              	.L104:
 1129              		.loc 1 746 0
 1130 0466 2046     		mov	r0, r4
ARM GAS  C:\Users\RAKIBU~1\AppData\Local\Temp\ccBdMgjJ.s 			page 21


 1131 0468 FFF7FEFF 		bl	sdc_lld_stop_clk
 1132              	.LVL117:
 1133              		.loc 1 747 0
 1134 046c 0223     		movs	r3, #2
 1135 046e 2371     		strb	r3, [r4, #4]
 1136              		.loc 1 748 0
 1137 0470 0125     		movs	r5, #1
 1138              	.L113:
 1139              		.loc 1 749 0
 1140 0472 2846     		mov	r0, r5
 1141 0474 05B0     		add	sp, sp, #20
 1142              		.cfi_remember_state
 1143              		.cfi_def_cfa_offset 12
 1144              		@ sp needed
 1145 0476 30BD     		pop	{r4, r5, pc}
 1146              	.LVL118:
 1147              	.L115:
 1148              		.cfi_restore_state
 1149              		.loc 1 627 0 discriminator 2
 1150 0478 4148     		ldr	r0, .L120
 1151              	.LVL119:
 1152 047a FFF7FEFF 		bl	chSysHalt
 1153              	.LVL120:
 1154 047e CEE7     		b	.L102
 1155              	.L116:
 1156              		.loc 1 628 0 discriminator 3
 1157 0480 3F48     		ldr	r0, .L120
 1158 0482 FFF7FEFF 		bl	chSysHalt
 1159              	.LVL121:
 1160 0486 CFE7     		b	.L103
 1161              	.L117:
 1162              		.loc 1 647 0
 1163 0488 2046     		mov	r0, r4
 1164 048a FFF799FE 		bl	mmc_init
 1165              	.LVL122:
 1166 048e 0028     		cmp	r0, #0
 1167 0490 E9D1     		bne	.L104
 1168 0492 E0E7     		b	.L106
 1169              	.L118:
 1170              		.loc 1 663 0
 1171 0494 04F13803 		add	r3, r4, #56
 1172 0498 0022     		movs	r2, #0
 1173 049a 0321     		movs	r1, #3
 1174 049c 2046     		mov	r0, r4
 1175 049e FFF7FEFF 		bl	sdc_lld_send_cmd_short_crc
 1176              	.LVL123:
 1177 04a2 0028     		cmp	r0, #0
 1178 04a4 DFD1     		bne	.L104
 1179              		.loc 1 670 0
 1180 04a6 04F11805 		add	r5, r4, #24
 1181              		.loc 1 669 0
 1182 04aa 2B46     		mov	r3, r5
 1183 04ac A26B     		ldr	r2, [r4, #56]
 1184 04ae 0921     		movs	r1, #9
 1185 04b0 2046     		mov	r0, r4
 1186 04b2 FFF7FEFF 		bl	sdc_lld_send_cmd_long_crc
 1187              	.LVL124:
ARM GAS  C:\Users\RAKIBU~1\AppData\Local\Temp\ccBdMgjJ.s 			page 22


 1188 04b6 0028     		cmp	r0, #0
 1189 04b8 D5D1     		bne	.L104
 1190              		.loc 1 675 0
 1191 04ba 03AB     		add	r3, sp, #12
 1192 04bc A26B     		ldr	r2, [r4, #56]
 1193 04be 0721     		movs	r1, #7
 1194 04c0 2046     		mov	r0, r4
 1195 04c2 FFF7FEFF 		bl	sdc_lld_send_cmd_short_crc
 1196              	.LVL125:
 1197 04c6 0028     		cmp	r0, #0
 1198 04c8 CDD1     		bne	.L104
 1199              		.loc 1 681 0
 1200 04ca 0DF10B01 		add	r1, sp, #11
 1201 04ce 2046     		mov	r0, r4
 1202 04d0 FFF71EFF 		bl	detect_bus_clk
 1203              	.LVL126:
 1204 04d4 0028     		cmp	r0, #0
 1205 04d6 C6D1     		bne	.L104
 1206              		.loc 1 684 0
 1207 04d8 9DF80B10 		ldrb	r1, [sp, #11]	@ zero_extendqisi2
 1208 04dc 2046     		mov	r0, r4
 1209 04de FFF7FEFF 		bl	sdc_lld_set_data_clk
 1210              	.LVL127:
 1211              		.loc 1 687 0
 1212 04e2 236B     		ldr	r3, [r4, #48]
 1213 04e4 03F00F03 		and	r3, r3, #15
 1214 04e8 022B     		cmp	r3, #2
 1215 04ea 1FD0     		beq	.L119
 1216              		.loc 1 712 0
 1217 04ec 2846     		mov	r0, r5
 1218 04ee FFF7FEFF 		bl	_mmcsd_get_capacity
 1219              	.LVL128:
 1220 04f2 A062     		str	r0, [r4, #40]
 1221              	.L109:
 1222              		.loc 1 716 0
 1223 04f4 03AB     		add	r3, sp, #12
 1224 04f6 4FF40072 		mov	r2, #512
 1225 04fa 1021     		movs	r1, #16
 1226 04fc 2046     		mov	r0, r4
 1227 04fe FFF7FEFF 		bl	sdc_lld_send_cmd_short_crc
 1228              	.LVL129:
 1229 0502 0546     		mov	r5, r0
 1230 0504 0028     		cmp	r0, #0
 1231 0506 AED1     		bne	.L104
 1232              		.loc 1 718 0
 1233 0508 1E4B     		ldr	r3, .L120+4
 1234 050a 039A     		ldr	r2, [sp, #12]
 1235 050c 1340     		ands	r3, r3, r2
 1236              		.loc 1 717 0
 1237 050e 002B     		cmp	r3, #0
 1238 0510 A9D1     		bne	.L104
 1239              		.loc 1 723 0
 1240 0512 236B     		ldr	r3, [r4, #48]
 1241 0514 03F00F03 		and	r3, r3, #15
 1242 0518 012B     		cmp	r3, #1
 1243 051a 27D9     		bls	.L110
 1244 051c 022B     		cmp	r3, #2
ARM GAS  C:\Users\RAKIBU~1\AppData\Local\Temp\ccBdMgjJ.s 			page 23


 1245 051e A2D1     		bne	.L104
 1246              		.loc 1 731 0
 1247 0520 2046     		mov	r0, r4
 1248 0522 FFF731FF 		bl	mmc_set_bus_width
 1249              	.LVL130:
 1250 0526 0028     		cmp	r0, #0
 1251 0528 9DD1     		bne	.L104
 1252 052a 25E0     		b	.L112
 1253              	.L119:
 1254              		.loc 1 690 0
 1255 052c 7E22     		movs	r2, #126
 1256 052e 7F21     		movs	r1, #127
 1257 0530 2846     		mov	r0, r5
 1258 0532 FFF7FEFF 		bl	_mmcsd_get_slice
 1259              	.LVL131:
 1260 0536 0128     		cmp	r0, #1
 1261 0538 13D9     		bls	.L108
 1262              	.LBB67:
 1263              		.loc 1 691 0
 1264 053a E36A     		ldr	r3, [r4, #44]
 1265 053c 1D68     		ldr	r5, [r3]
 1266              	.LVL132:
 1267              		.loc 1 694 0
 1268 053e 002D     		cmp	r5, #0
 1269 0540 91D0     		beq	.L104
 1270              		.loc 1 698 0
 1271 0542 0023     		movs	r3, #0
 1272 0544 0093     		str	r3, [sp]
 1273 0546 0823     		movs	r3, #8
 1274 0548 4FF40072 		mov	r2, #512
 1275 054c 2946     		mov	r1, r5
 1276 054e 2046     		mov	r0, r4
 1277 0550 FFF7FEFF 		bl	sdc_lld_read_special
 1278              	.LVL133:
 1279 0554 0028     		cmp	r0, #0
 1280 0556 86D1     		bne	.L104
 1281              		.loc 1 703 0
 1282 0558 2846     		mov	r0, r5
 1283 055a FFF7FEFF 		bl	_mmcsd_get_capacity_ext
 1284              	.LVL134:
 1285 055e A062     		str	r0, [r4, #40]
 1286              	.LBE67:
 1287 0560 C8E7     		b	.L109
 1288              	.LVL135:
 1289              	.L108:
 1290              		.loc 1 707 0
 1291 0562 2846     		mov	r0, r5
 1292 0564 FFF7FEFF 		bl	_mmcsd_get_capacity
 1293              	.LVL136:
 1294 0568 A062     		str	r0, [r4, #40]
 1295 056a C3E7     		b	.L109
 1296              	.L110:
 1297              		.loc 1 726 0
 1298 056c 2046     		mov	r0, r4
 1299 056e FFF7DBFE 		bl	sdc_set_bus_width
 1300              	.LVL137:
 1301 0572 0028     		cmp	r0, #0
ARM GAS  C:\Users\RAKIBU~1\AppData\Local\Temp\ccBdMgjJ.s 			page 24


 1302 0574 7FF477AF 		bne	.L104
 1303              	.L112:
 1304              		.loc 1 741 0
 1305 0578 0523     		movs	r3, #5
 1306 057a 2371     		strb	r3, [r4, #4]
 1307              		.loc 1 742 0
 1308 057c 79E7     		b	.L113
 1309              	.L121:
 1310 057e 00BF     		.align	2
 1311              	.L120:
 1312 0580 48000000 		.word	.LANCHOR0+72
 1313 0584 08E0FFFD 		.word	-33562616
 1314              		.cfi_endproc
 1315              	.LFE345:
 1316              		.size	sdcConnect, .-sdcConnect
 1317              		.align	1
 1318 0588 AFF30080 		.p2align 4,,15
 1318      AFF30080 
 1319              		.global	sdcRead
 1320              		.syntax unified
 1321              		.thumb
 1322              		.thumb_func
 1323              		.fpu softvfp
 1324              		.type	sdcRead, %function
 1325              	sdcRead:
 1326              	.LFB347:
 1327              		.loc 1 805 0
 1328              		.cfi_startproc
 1329              		@ args = 0, pretend = 0, frame = 0
 1330              		@ frame_needed = 0, uses_anonymous_args = 0
 1331              	.LVL138:
 1332 0590 F8B5     		push	{r3, r4, r5, r6, r7, lr}
 1333              		.cfi_def_cfa_offset 24
 1334              		.cfi_offset 3, -24
 1335              		.cfi_offset 4, -20
 1336              		.cfi_offset 5, -16
 1337              		.cfi_offset 6, -12
 1338              		.cfi_offset 7, -8
 1339              		.cfi_offset 14, -4
 1340 0592 0E46     		mov	r6, r1
 1341 0594 1746     		mov	r7, r2
 1342 0596 1D46     		mov	r5, r3
 1343              		.loc 1 808 0
 1344 0598 0446     		mov	r4, r0
 1345 059a 08B1     		cbz	r0, .L123
 1346              		.loc 1 808 0 is_stmt 0 discriminator 3
 1347 059c 02B1     		cbz	r2, .L123
 1348              		.loc 1 808 0 discriminator 5
 1349 059e 13B9     		cbnz	r3, .L124
 1350              	.L123:
 1351              		.loc 1 808 0 discriminator 6
 1352 05a0 0F48     		ldr	r0, .L130
 1353              	.LVL139:
 1354 05a2 FFF7FEFF 		bl	chSysHalt
 1355              	.LVL140:
 1356              	.L124:
 1357              		.loc 1 809 0 is_stmt 1 discriminator 1
ARM GAS  C:\Users\RAKIBU~1\AppData\Local\Temp\ccBdMgjJ.s 			page 25


 1358 05a6 2379     		ldrb	r3, [r4, #4]	@ zero_extendqisi2
 1359 05a8 052B     		cmp	r3, #5
 1360 05aa 0AD1     		bne	.L129
 1361              	.L125:
 1362              		.loc 1 811 0
 1363 05ac AB19     		adds	r3, r5, r6
 1364 05ae 013B     		subs	r3, r3, #1
 1365 05b0 A26A     		ldr	r2, [r4, #40]
 1366 05b2 9342     		cmp	r3, r2
 1367 05b4 09D9     		bls	.L126
 1368              		.loc 1 812 0
 1369 05b6 636B     		ldr	r3, [r4, #52]
 1370 05b8 43F08003 		orr	r3, r3, #128
 1371 05bc 6363     		str	r3, [r4, #52]
 1372              		.loc 1 813 0
 1373 05be 0120     		movs	r0, #1
 1374              	.L127:
 1375              		.loc 1 824 0
 1376 05c0 F8BD     		pop	{r3, r4, r5, r6, r7, pc}
 1377              	.LVL141:
 1378              	.L129:
 1379              		.loc 1 809 0 discriminator 2
 1380 05c2 0748     		ldr	r0, .L130
 1381 05c4 FFF7FEFF 		bl	chSysHalt
 1382              	.LVL142:
 1383 05c8 F0E7     		b	.L125
 1384              	.L126:
 1385              		.loc 1 817 0
 1386 05ca 0623     		movs	r3, #6
 1387 05cc 2371     		strb	r3, [r4, #4]
 1388              		.loc 1 819 0
 1389 05ce 2B46     		mov	r3, r5
 1390 05d0 3A46     		mov	r2, r7
 1391 05d2 3146     		mov	r1, r6
 1392 05d4 2046     		mov	r0, r4
 1393 05d6 FFF7FEFF 		bl	sdc_lld_read
 1394              	.LVL143:
 1395              		.loc 1 822 0
 1396 05da 0523     		movs	r3, #5
 1397 05dc 2371     		strb	r3, [r4, #4]
 1398              		.loc 1 823 0
 1399 05de EFE7     		b	.L127
 1400              	.L131:
 1401              		.align	2
 1402              	.L130:
 1403 05e0 54000000 		.word	.LANCHOR0+84
 1404              		.cfi_endproc
 1405              	.LFE347:
 1406              		.size	sdcRead, .-sdcRead
 1407              		.align	1
 1408 05e4 AFF30080 		.p2align 4,,15
 1408      AFF30080 
 1408      AFF30080 
 1409              		.global	sdcWrite
 1410              		.syntax unified
 1411              		.thumb
 1412              		.thumb_func
ARM GAS  C:\Users\RAKIBU~1\AppData\Local\Temp\ccBdMgjJ.s 			page 26


 1413              		.fpu softvfp
 1414              		.type	sdcWrite, %function
 1415              	sdcWrite:
 1416              	.LFB348:
 1417              		.loc 1 843 0
 1418              		.cfi_startproc
 1419              		@ args = 0, pretend = 0, frame = 0
 1420              		@ frame_needed = 0, uses_anonymous_args = 0
 1421              	.LVL144:
 1422 05f0 F8B5     		push	{r3, r4, r5, r6, r7, lr}
 1423              		.cfi_def_cfa_offset 24
 1424              		.cfi_offset 3, -24
 1425              		.cfi_offset 4, -20
 1426              		.cfi_offset 5, -16
 1427              		.cfi_offset 6, -12
 1428              		.cfi_offset 7, -8
 1429              		.cfi_offset 14, -4
 1430 05f2 0E46     		mov	r6, r1
 1431 05f4 1746     		mov	r7, r2
 1432 05f6 1D46     		mov	r5, r3
 1433              		.loc 1 846 0
 1434 05f8 0446     		mov	r4, r0
 1435 05fa 08B1     		cbz	r0, .L133
 1436              		.loc 1 846 0 is_stmt 0 discriminator 3
 1437 05fc 02B1     		cbz	r2, .L133
 1438              		.loc 1 846 0 discriminator 5
 1439 05fe 13B9     		cbnz	r3, .L134
 1440              	.L133:
 1441              		.loc 1 846 0 discriminator 6
 1442 0600 0F48     		ldr	r0, .L140
 1443              	.LVL145:
 1444 0602 FFF7FEFF 		bl	chSysHalt
 1445              	.LVL146:
 1446              	.L134:
 1447              		.loc 1 847 0 is_stmt 1 discriminator 1
 1448 0606 2379     		ldrb	r3, [r4, #4]	@ zero_extendqisi2
 1449 0608 052B     		cmp	r3, #5
 1450 060a 0AD1     		bne	.L139
 1451              	.L135:
 1452              		.loc 1 849 0
 1453 060c AB19     		adds	r3, r5, r6
 1454 060e 013B     		subs	r3, r3, #1
 1455 0610 A26A     		ldr	r2, [r4, #40]
 1456 0612 9342     		cmp	r3, r2
 1457 0614 09D9     		bls	.L136
 1458              		.loc 1 850 0
 1459 0616 636B     		ldr	r3, [r4, #52]
 1460 0618 43F08003 		orr	r3, r3, #128
 1461 061c 6363     		str	r3, [r4, #52]
 1462              		.loc 1 851 0
 1463 061e 0120     		movs	r0, #1
 1464              	.L137:
 1465              		.loc 1 862 0
 1466 0620 F8BD     		pop	{r3, r4, r5, r6, r7, pc}
 1467              	.LVL147:
 1468              	.L139:
 1469              		.loc 1 847 0 discriminator 2
ARM GAS  C:\Users\RAKIBU~1\AppData\Local\Temp\ccBdMgjJ.s 			page 27


 1470 0622 0748     		ldr	r0, .L140
 1471 0624 FFF7FEFF 		bl	chSysHalt
 1472              	.LVL148:
 1473 0628 F0E7     		b	.L135
 1474              	.L136:
 1475              		.loc 1 855 0
 1476 062a 0723     		movs	r3, #7
 1477 062c 2371     		strb	r3, [r4, #4]
 1478              		.loc 1 857 0
 1479 062e 2B46     		mov	r3, r5
 1480 0630 3A46     		mov	r2, r7
 1481 0632 3146     		mov	r1, r6
 1482 0634 2046     		mov	r0, r4
 1483 0636 FFF7FEFF 		bl	sdc_lld_write
 1484              	.LVL149:
 1485              		.loc 1 860 0
 1486 063a 0523     		movs	r3, #5
 1487 063c 2371     		strb	r3, [r4, #4]
 1488              		.loc 1 861 0
 1489 063e EFE7     		b	.L137
 1490              	.L141:
 1491              		.align	2
 1492              	.L140:
 1493 0640 5C000000 		.word	.LANCHOR0+92
 1494              		.cfi_endproc
 1495              	.LFE348:
 1496              		.size	sdcWrite, .-sdcWrite
 1497              		.align	1
 1498 0644 AFF30080 		.p2align 4,,15
 1498      AFF30080 
 1498      AFF30080 
 1499              		.global	sdcSync
 1500              		.syntax unified
 1501              		.thumb
 1502              		.thumb_func
 1503              		.fpu softvfp
 1504              		.type	sdcSync, %function
 1505              	sdcSync:
 1506              	.LFB350:
 1507              		.loc 1 896 0
 1508              		.cfi_startproc
 1509              		@ args = 0, pretend = 0, frame = 0
 1510              		@ frame_needed = 0, uses_anonymous_args = 0
 1511              	.LVL150:
 1512 0650 10B5     		push	{r4, lr}
 1513              		.cfi_def_cfa_offset 8
 1514              		.cfi_offset 4, -8
 1515              		.cfi_offset 14, -4
 1516              		.loc 1 899 0
 1517 0652 0446     		mov	r4, r0
 1518 0654 20B1     		cbz	r0, .L147
 1519              	.LVL151:
 1520              	.L143:
 1521              		.loc 1 901 0
 1522 0656 2379     		ldrb	r3, [r4, #4]	@ zero_extendqisi2
 1523 0658 052B     		cmp	r3, #5
 1524 065a 05D0     		beq	.L148
ARM GAS  C:\Users\RAKIBU~1\AppData\Local\Temp\ccBdMgjJ.s 			page 28


 1525              		.loc 1 902 0
 1526 065c 0120     		movs	r0, #1
 1527              	.L144:
 1528              		.loc 1 913 0
 1529 065e 10BD     		pop	{r4, pc}
 1530              	.LVL152:
 1531              	.L147:
 1532              		.loc 1 899 0 discriminator 2
 1533 0660 0548     		ldr	r0, .L149
 1534              	.LVL153:
 1535 0662 FFF7FEFF 		bl	chSysHalt
 1536              	.LVL154:
 1537 0666 F6E7     		b	.L143
 1538              	.L148:
 1539              		.loc 1 906 0
 1540 0668 0823     		movs	r3, #8
 1541 066a 2371     		strb	r3, [r4, #4]
 1542              		.loc 1 908 0
 1543 066c 2046     		mov	r0, r4
 1544 066e FFF7FEFF 		bl	sdc_lld_sync
 1545              	.LVL155:
 1546              		.loc 1 911 0
 1547 0672 0523     		movs	r3, #5
 1548 0674 2371     		strb	r3, [r4, #4]
 1549              		.loc 1 912 0
 1550 0676 F2E7     		b	.L144
 1551              	.L150:
 1552              		.align	2
 1553              	.L149:
 1554 0678 68000000 		.word	.LANCHOR0+104
 1555              		.cfi_endproc
 1556              	.LFE350:
 1557              		.size	sdcSync, .-sdcSync
 1558              		.align	1
 1559 067c AFF30080 		.p2align 4,,15
 1560              		.global	_sdc_wait_for_transfer_state
 1561              		.syntax unified
 1562              		.thumb
 1563              		.thumb_func
 1564              		.fpu softvfp
 1565              		.type	_sdc_wait_for_transfer_state, %function
 1566              	_sdc_wait_for_transfer_state:
 1567              	.LFB340:
 1568              		.loc 1 503 0
 1569              		.cfi_startproc
 1570              		@ args = 0, pretend = 0, frame = 8
 1571              		@ frame_needed = 0, uses_anonymous_args = 0
 1572              	.LVL156:
 1573 0680 10B5     		push	{r4, lr}
 1574              		.cfi_def_cfa_offset 8
 1575              		.cfi_offset 4, -8
 1576              		.cfi_offset 14, -4
 1577 0682 82B0     		sub	sp, sp, #8
 1578              		.cfi_def_cfa_offset 16
 1579 0684 0446     		mov	r4, r0
 1580              	.LVL157:
 1581              	.L155:
ARM GAS  C:\Users\RAKIBU~1\AppData\Local\Temp\ccBdMgjJ.s 			page 29


 1582              		.loc 1 507 0
 1583 0686 01AB     		add	r3, sp, #4
 1584 0688 A26B     		ldr	r2, [r4, #56]
 1585 068a 0D21     		movs	r1, #13
 1586 068c 2046     		mov	r0, r4
 1587 068e FFF7FEFF 		bl	sdc_lld_send_cmd_short_crc
 1588              	.LVL158:
 1589 0692 0146     		mov	r1, r0
 1590 0694 90B9     		cbnz	r0, .L152
 1591              		.loc 1 509 0
 1592 0696 019B     		ldr	r3, [sp, #4]
 1593 0698 0A4A     		ldr	r2, .L159
 1594 069a 1A40     		ands	r2, r2, r3
 1595              		.loc 1 508 0
 1596 069c 5AB9     		cbnz	r2, .L156
 1597              		.loc 1 513 0
 1598 069e C3F34323 		ubfx	r3, r3, #9, #4
 1599 06a2 042B     		cmp	r3, #4
 1600 06a4 0AD0     		beq	.L152
 1601 06a6 08D3     		bcc	.L157
 1602 06a8 072B     		cmp	r3, #7
 1603 06aa 06D8     		bhi	.L157
 1604              	.LVL159:
 1605              	.LBB68:
 1606              	.LBB69:
 1607              		.loc 2 720 0
 1608 06ac 6420     		movs	r0, #100
 1609 06ae 0021     		movs	r1, #0
 1610 06b0 FFF7FEFF 		bl	chThdSleep
 1611              	.LVL160:
 1612              	.LBE69:
 1613              	.LBE68:
 1614              		.loc 1 507 0
 1615 06b4 E7E7     		b	.L155
 1616              	.L156:
 1617              		.loc 1 510 0
 1618 06b6 0121     		movs	r1, #1
 1619 06b8 00E0     		b	.L152
 1620              	.L157:
 1621              		.loc 1 526 0
 1622 06ba 0121     		movs	r1, #1
 1623              	.L152:
 1624              		.loc 1 529 0
 1625 06bc 0846     		mov	r0, r1
 1626 06be 02B0     		add	sp, sp, #8
 1627              		.cfi_def_cfa_offset 8
 1628              		@ sp needed
 1629 06c0 10BD     		pop	{r4, pc}
 1630              	.LVL161:
 1631              	.L160:
 1632 06c2 00BF     		.align	2
 1633              	.L159:
 1634 06c4 08E0FFFD 		.word	-33562616
 1635              		.cfi_endproc
 1636              	.LFE340:
 1637              		.size	_sdc_wait_for_transfer_state, .-_sdc_wait_for_transfer_state
 1638              		.align	1
ARM GAS  C:\Users\RAKIBU~1\AppData\Local\Temp\ccBdMgjJ.s 			page 30


 1639 06c8 AFF30080 		.p2align 4,,15
 1639      AFF30080 
 1640              		.global	sdcDisconnect
 1641              		.syntax unified
 1642              		.thumb
 1643              		.thumb_func
 1644              		.fpu softvfp
 1645              		.type	sdcDisconnect, %function
 1646              	sdcDisconnect:
 1647              	.LFB346:
 1648              		.loc 1 762 0
 1649              		.cfi_startproc
 1650              		@ args = 0, pretend = 0, frame = 0
 1651              		@ frame_needed = 0, uses_anonymous_args = 0
 1652              	.LVL162:
 1653 06d0 38B5     		push	{r3, r4, r5, lr}
 1654              		.cfi_def_cfa_offset 16
 1655              		.cfi_offset 3, -16
 1656              		.cfi_offset 4, -12
 1657              		.cfi_offset 5, -8
 1658              		.cfi_offset 14, -4
 1659              		.loc 1 764 0
 1660 06d2 0446     		mov	r4, r0
 1661 06d4 60B3     		cbz	r0, .L170
 1662              	.LVL163:
 1663              	.L162:
 1664              	.LBB90:
 1665              	.LBB91:
 1666              	.LBB92:
 1667              	.LBB93:
 1668              	.LBB94:
 1669              	.LBB95:
 1670              		.file 3 "../../../ChibiOSRepo/chibios191/os/common/ext/ARM/CMSIS/Core/Include/cmsis_gcc.h"
 1671              		.loc 3 493 0
 1672 06d6 2023     		movs	r3, #32
 1673              		.syntax unified
 1674              	@ 493 "../../../ChibiOSRepo/chibios191/os/common/ext/ARM/CMSIS/Core/Include/cmsis_gcc.h" 1
 1675 06d8 83F31188 		MSR basepri, r3
 1676              	@ 0 "" 2
 1677              	.LVL164:
 1678              		.thumb
 1679              		.syntax unified
 1680              	.LBE95:
 1681              	.LBE94:
 1682              	.LBE93:
 1683              		.file 4 "../../../ChibiOSRepo/chibios191/os/rt/include/chsys.h"
 1684              		.loc 4 356 0
 1685 06dc FFF7FEFF 		bl	_stats_start_measure_crit_thd
 1686              	.LVL165:
 1687              		.loc 4 357 0
 1688 06e0 FFF7FEFF 		bl	_dbg_check_lock
 1689              	.LVL166:
 1690              	.LBE92:
 1691              	.LBE91:
 1692              	.LBE90:
 1693              		.loc 1 767 0
 1694 06e4 2379     		ldrb	r3, [r4, #4]	@ zero_extendqisi2
ARM GAS  C:\Users\RAKIBU~1\AppData\Local\Temp\ccBdMgjJ.s 			page 31


 1695 06e6 022B     		cmp	r3, #2
 1696 06e8 01D0     		beq	.L163
 1697              		.loc 1 767 0 is_stmt 0 discriminator 2
 1698 06ea 052B     		cmp	r3, #5
 1699 06ec 24D1     		bne	.L171
 1700              	.L163:
 1701              		.loc 1 769 0 is_stmt 1
 1702 06ee 2379     		ldrb	r3, [r4, #4]	@ zero_extendqisi2
 1703 06f0 022B     		cmp	r3, #2
 1704 06f2 25D0     		beq	.L172
 1705              		.loc 1 773 0
 1706 06f4 0423     		movs	r3, #4
 1707 06f6 2371     		strb	r3, [r4, #4]
 1708              	.LBB96:
 1709              	.LBB97:
 1710              	.LBB98:
 1711              		.loc 4 367 0
 1712 06f8 FFF7FEFF 		bl	_dbg_check_unlock
 1713              	.LVL167:
 1714              		.loc 4 368 0
 1715 06fc FFF7FEFF 		bl	_stats_stop_measure_crit_thd
 1716              	.LVL168:
 1717              		.loc 4 374 0
 1718 0700 1F4B     		ldr	r3, .L176
 1719 0702 1A68     		ldr	r2, [r3]
 1720 0704 9A42     		cmp	r2, r3
 1721 0706 04D0     		beq	.L167
 1722 0708 9B69     		ldr	r3, [r3, #24]
 1723 070a 9968     		ldr	r1, [r3, #8]
 1724 070c 9368     		ldr	r3, [r2, #8]
 1725 070e 9942     		cmp	r1, r3
 1726 0710 2BD3     		bcc	.L173
 1727              	.L167:
 1728              	.LVL169:
 1729              	.LBB99:
 1730              	.LBB100:
 1731              	.LBB101:
 1732              		.loc 3 493 0
 1733 0712 0023     		movs	r3, #0
 1734              		.syntax unified
 1735              	@ 493 "../../../ChibiOSRepo/chibios191/os/common/ext/ARM/CMSIS/Core/Include/cmsis_gcc.h" 1
 1736 0714 83F31188 		MSR basepri, r3
 1737              	@ 0 "" 2
 1738              	.LVL170:
 1739              		.thumb
 1740              		.syntax unified
 1741              	.LBE101:
 1742              	.LBE100:
 1743              	.LBE99:
 1744              	.LBE98:
 1745              	.LBE97:
 1746              	.LBE96:
 1747              		.loc 1 777 0
 1748 0718 2046     		mov	r0, r4
 1749 071a FFF7FEFF 		bl	_sdc_wait_for_transfer_state
 1750              	.LVL171:
 1751 071e 0546     		mov	r5, r0
ARM GAS  C:\Users\RAKIBU~1\AppData\Local\Temp\ccBdMgjJ.s 			page 32


 1752 0720 38BB     		cbnz	r0, .L174
 1753              		.loc 1 784 0
 1754 0722 2046     		mov	r0, r4
 1755 0724 FFF7FEFF 		bl	sdc_lld_stop_clk
 1756              	.LVL172:
 1757              		.loc 1 785 0
 1758 0728 0223     		movs	r3, #2
 1759 072a 2371     		strb	r3, [r4, #4]
 1760              	.L166:
 1761              		.loc 1 787 0
 1762 072c 2846     		mov	r0, r5
 1763 072e 38BD     		pop	{r3, r4, r5, pc}
 1764              	.LVL173:
 1765              	.L170:
 1766              		.loc 1 764 0 discriminator 2
 1767 0730 1448     		ldr	r0, .L176+4
 1768              	.LVL174:
 1769 0732 FFF7FEFF 		bl	chSysHalt
 1770              	.LVL175:
 1771 0736 CEE7     		b	.L162
 1772              	.L171:
 1773              		.loc 1 767 0 discriminator 3
 1774 0738 1248     		ldr	r0, .L176+4
 1775 073a FFF7FEFF 		bl	chSysHalt
 1776              	.LVL176:
 1777 073e D6E7     		b	.L163
 1778              	.L172:
 1779              	.LBB104:
 1780              	.LBB105:
 1781              	.LBB106:
 1782              		.loc 4 367 0
 1783 0740 FFF7FEFF 		bl	_dbg_check_unlock
 1784              	.LVL177:
 1785              		.loc 4 368 0
 1786 0744 FFF7FEFF 		bl	_stats_stop_measure_crit_thd
 1787              	.LVL178:
 1788              		.loc 4 374 0
 1789 0748 0D4B     		ldr	r3, .L176
 1790 074a 1A68     		ldr	r2, [r3]
 1791 074c 9A42     		cmp	r2, r3
 1792 074e 04D0     		beq	.L165
 1793 0750 9B69     		ldr	r3, [r3, #24]
 1794 0752 9968     		ldr	r1, [r3, #8]
 1795 0754 9368     		ldr	r3, [r2, #8]
 1796 0756 9942     		cmp	r1, r3
 1797 0758 03D3     		bcc	.L175
 1798              	.L165:
 1799              	.LVL179:
 1800              	.LBB107:
 1801              	.LBB108:
 1802              	.LBB109:
 1803              		.loc 3 493 0
 1804 075a 0025     		movs	r5, #0
 1805              		.syntax unified
 1806              	@ 493 "../../../ChibiOSRepo/chibios191/os/common/ext/ARM/CMSIS/Core/Include/cmsis_gcc.h" 1
 1807 075c 85F31188 		MSR basepri, r5
 1808              	@ 0 "" 2
ARM GAS  C:\Users\RAKIBU~1\AppData\Local\Temp\ccBdMgjJ.s 			page 33


 1809              	.LVL180:
 1810              		.thumb
 1811              		.syntax unified
 1812 0760 E4E7     		b	.L166
 1813              	.L175:
 1814              	.LBE109:
 1815              	.LBE108:
 1816              	.LBE107:
 1817              		.loc 4 374 0
 1818 0762 0948     		ldr	r0, .L176+8
 1819 0764 FFF7FEFF 		bl	chSysHalt
 1820              	.LVL181:
 1821 0768 F7E7     		b	.L165
 1822              	.L173:
 1823              	.LBE106:
 1824              	.LBE105:
 1825              	.LBE104:
 1826              	.LBB110:
 1827              	.LBB103:
 1828              	.LBB102:
 1829 076a 0748     		ldr	r0, .L176+8
 1830 076c FFF7FEFF 		bl	chSysHalt
 1831              	.LVL182:
 1832 0770 CFE7     		b	.L167
 1833              	.L174:
 1834              	.LBE102:
 1835              	.LBE103:
 1836              	.LBE110:
 1837              		.loc 1 778 0
 1838 0772 2046     		mov	r0, r4
 1839 0774 FFF7FEFF 		bl	sdc_lld_stop_clk
 1840              	.LVL183:
 1841              		.loc 1 779 0
 1842 0778 0223     		movs	r3, #2
 1843 077a 2371     		strb	r3, [r4, #4]
 1844              		.loc 1 780 0
 1845 077c D6E7     		b	.L166
 1846              	.L177:
 1847 077e 00BF     		.align	2
 1848              	.L176:
 1849 0780 00000000 		.word	ch
 1850 0784 70000000 		.word	.LANCHOR0+112
 1851 0788 80000000 		.word	.LANCHOR0+128
 1852              		.cfi_endproc
 1853              	.LFE346:
 1854              		.size	sdcDisconnect, .-sdcDisconnect
 1855              		.align	1
 1856 078c AFF30080 		.p2align 4,,15
 1857              		.global	sdcInit
 1858              		.syntax unified
 1859              		.thumb
 1860              		.thumb_func
 1861              		.fpu softvfp
 1862              		.type	sdcInit, %function
 1863              	sdcInit:
 1864              	.LFB341:
 1865              		.loc 1 542 0
ARM GAS  C:\Users\RAKIBU~1\AppData\Local\Temp\ccBdMgjJ.s 			page 34


 1866              		.cfi_startproc
 1867              		@ args = 0, pretend = 0, frame = 0
 1868              		@ frame_needed = 0, uses_anonymous_args = 0
 1869 0790 08B5     		push	{r3, lr}
 1870              		.cfi_def_cfa_offset 8
 1871              		.cfi_offset 3, -8
 1872              		.cfi_offset 14, -4
 1873              		.loc 1 544 0
 1874 0792 FFF7FEFF 		bl	sdc_lld_init
 1875              	.LVL184:
 1876              		.loc 1 545 0
 1877 0796 08BD     		pop	{r3, pc}
 1878              		.cfi_endproc
 1879              	.LFE341:
 1880              		.size	sdcInit, .-sdcInit
 1881              		.align	1
 1882 0798 AFF30080 		.p2align 4,,15
 1882      AFF30080 
 1883              		.global	sdcObjectInit
 1884              		.syntax unified
 1885              		.thumb
 1886              		.thumb_func
 1887              		.fpu softvfp
 1888              		.type	sdcObjectInit, %function
 1889              	sdcObjectInit:
 1890              	.LFB342:
 1891              		.loc 1 554 0
 1892              		.cfi_startproc
 1893              		@ args = 0, pretend = 0, frame = 0
 1894              		@ frame_needed = 0, uses_anonymous_args = 0
 1895              		@ link register save eliminated.
 1896              	.LVL185:
 1897              		.loc 1 556 0
 1898 07a0 044B     		ldr	r3, .L181
 1899 07a2 0360     		str	r3, [r0]
 1900              		.loc 1 557 0
 1901 07a4 0123     		movs	r3, #1
 1902 07a6 0371     		strb	r3, [r0, #4]
 1903              		.loc 1 558 0
 1904 07a8 0023     		movs	r3, #0
 1905 07aa 4363     		str	r3, [r0, #52]
 1906              		.loc 1 559 0
 1907 07ac C362     		str	r3, [r0, #44]
 1908              		.loc 1 560 0
 1909 07ae 8362     		str	r3, [r0, #40]
 1910              		.loc 1 561 0
 1911 07b0 7047     		bx	lr
 1912              	.L182:
 1913 07b2 00BF     		.align	2
 1914              	.L181:
 1915 07b4 8C000000 		.word	.LANCHOR0+140
 1916              		.cfi_endproc
 1917              	.LFE342:
 1918              		.size	sdcObjectInit, .-sdcObjectInit
 1919              		.align	1
 1920 07b8 AFF30080 		.p2align 4,,15
 1920      AFF30080 
ARM GAS  C:\Users\RAKIBU~1\AppData\Local\Temp\ccBdMgjJ.s 			page 35


 1921              		.global	sdcStart
 1922              		.syntax unified
 1923              		.thumb
 1924              		.thumb_func
 1925              		.fpu softvfp
 1926              		.type	sdcStart, %function
 1927              	sdcStart:
 1928              	.LFB343:
 1929              		.loc 1 573 0
 1930              		.cfi_startproc
 1931              		@ args = 0, pretend = 0, frame = 0
 1932              		@ frame_needed = 0, uses_anonymous_args = 0
 1933              	.LVL186:
 1934 07c0 38B5     		push	{r3, r4, r5, lr}
 1935              		.cfi_def_cfa_offset 16
 1936              		.cfi_offset 3, -16
 1937              		.cfi_offset 4, -12
 1938              		.cfi_offset 5, -8
 1939              		.cfi_offset 14, -4
 1940 07c2 0D46     		mov	r5, r1
 1941              		.loc 1 575 0
 1942 07c4 0446     		mov	r4, r0
 1943 07c6 28B3     		cbz	r0, .L188
 1944              	.LVL187:
 1945              	.L184:
 1946              	.LBB124:
 1947              	.LBB125:
 1948              	.LBB126:
 1949              	.LBB127:
 1950              	.LBB128:
 1951              	.LBB129:
 1952              		.loc 3 493 0
 1953 07c8 2023     		movs	r3, #32
 1954              		.syntax unified
 1955              	@ 493 "../../../ChibiOSRepo/chibios191/os/common/ext/ARM/CMSIS/Core/Include/cmsis_gcc.h" 1
 1956 07ca 83F31188 		MSR basepri, r3
 1957              	@ 0 "" 2
 1958              	.LVL188:
 1959              		.thumb
 1960              		.syntax unified
 1961              	.LBE129:
 1962              	.LBE128:
 1963              	.LBE127:
 1964              		.loc 4 356 0
 1965 07ce FFF7FEFF 		bl	_stats_start_measure_crit_thd
 1966              	.LVL189:
 1967              		.loc 4 357 0
 1968 07d2 FFF7FEFF 		bl	_dbg_check_lock
 1969              	.LVL190:
 1970              	.LBE126:
 1971              	.LBE125:
 1972              	.LBE124:
 1973              		.loc 1 578 0
 1974 07d6 2379     		ldrb	r3, [r4, #4]	@ zero_extendqisi2
 1975 07d8 013B     		subs	r3, r3, #1
 1976 07da DBB2     		uxtb	r3, r3
 1977 07dc 012B     		cmp	r3, #1
ARM GAS  C:\Users\RAKIBU~1\AppData\Local\Temp\ccBdMgjJ.s 			page 36


 1978 07de 02D9     		bls	.L185
 1979              		.loc 1 578 0 is_stmt 0 discriminator 2
 1980 07e0 1048     		ldr	r0, .L190
 1981 07e2 FFF7FEFF 		bl	chSysHalt
 1982              	.LVL191:
 1983              	.L185:
 1984              		.loc 1 580 0 is_stmt 1
 1985 07e6 E562     		str	r5, [r4, #44]
 1986              		.loc 1 581 0
 1987 07e8 2046     		mov	r0, r4
 1988 07ea FFF7FEFF 		bl	sdc_lld_start
 1989              	.LVL192:
 1990              		.loc 1 582 0
 1991 07ee 0223     		movs	r3, #2
 1992 07f0 2371     		strb	r3, [r4, #4]
 1993              	.LBB130:
 1994              	.LBB131:
 1995              	.LBB132:
 1996              		.loc 4 367 0
 1997 07f2 FFF7FEFF 		bl	_dbg_check_unlock
 1998              	.LVL193:
 1999              		.loc 4 368 0
 2000 07f6 FFF7FEFF 		bl	_stats_stop_measure_crit_thd
 2001              	.LVL194:
 2002              		.loc 4 374 0
 2003 07fa 0B4B     		ldr	r3, .L190+4
 2004 07fc 1A68     		ldr	r2, [r3]
 2005 07fe 9A42     		cmp	r2, r3
 2006 0800 04D0     		beq	.L186
 2007 0802 9B69     		ldr	r3, [r3, #24]
 2008 0804 9968     		ldr	r1, [r3, #8]
 2009 0806 9368     		ldr	r3, [r2, #8]
 2010 0808 9942     		cmp	r1, r3
 2011 080a 07D3     		bcc	.L189
 2012              	.L186:
 2013              	.LVL195:
 2014              	.LBB133:
 2015              	.LBB134:
 2016              	.LBB135:
 2017              		.loc 3 493 0
 2018 080c 0023     		movs	r3, #0
 2019              		.syntax unified
 2020              	@ 493 "../../../ChibiOSRepo/chibios191/os/common/ext/ARM/CMSIS/Core/Include/cmsis_gcc.h" 1
 2021 080e 83F31188 		MSR basepri, r3
 2022              	@ 0 "" 2
 2023              	.LVL196:
 2024              		.thumb
 2025              		.syntax unified
 2026              	.LBE135:
 2027              	.LBE134:
 2028              	.LBE133:
 2029              	.LBE132:
 2030              	.LBE131:
 2031              	.LBE130:
 2032              		.loc 1 584 0
 2033 0812 38BD     		pop	{r3, r4, r5, pc}
 2034              	.LVL197:
ARM GAS  C:\Users\RAKIBU~1\AppData\Local\Temp\ccBdMgjJ.s 			page 37


 2035              	.L188:
 2036              		.loc 1 575 0 discriminator 2
 2037 0814 0348     		ldr	r0, .L190
 2038              	.LVL198:
 2039 0816 FFF7FEFF 		bl	chSysHalt
 2040              	.LVL199:
 2041 081a D5E7     		b	.L184
 2042              	.L189:
 2043              	.LBB138:
 2044              	.LBB137:
 2045              	.LBB136:
 2046              		.loc 4 374 0
 2047 081c 0348     		ldr	r0, .L190+8
 2048 081e FFF7FEFF 		bl	chSysHalt
 2049              	.LVL200:
 2050 0822 F3E7     		b	.L186
 2051              	.L191:
 2052              		.align	2
 2053              	.L190:
 2054 0824 B0000000 		.word	.LANCHOR0+176
 2055 0828 00000000 		.word	ch
 2056 082c 80000000 		.word	.LANCHOR0+128
 2057              	.LBE136:
 2058              	.LBE137:
 2059              	.LBE138:
 2060              		.cfi_endproc
 2061              	.LFE343:
 2062              		.size	sdcStart, .-sdcStart
 2063              		.align	1
 2064              		.p2align 4,,15
 2065              		.global	sdcStop
 2066              		.syntax unified
 2067              		.thumb
 2068              		.thumb_func
 2069              		.fpu softvfp
 2070              		.type	sdcStop, %function
 2071              	sdcStop:
 2072              	.LFB344:
 2073              		.loc 1 593 0
 2074              		.cfi_startproc
 2075              		@ args = 0, pretend = 0, frame = 0
 2076              		@ frame_needed = 0, uses_anonymous_args = 0
 2077              	.LVL201:
 2078 0830 10B5     		push	{r4, lr}
 2079              		.cfi_def_cfa_offset 8
 2080              		.cfi_offset 4, -8
 2081              		.cfi_offset 14, -4
 2082              		.loc 1 595 0
 2083 0832 0446     		mov	r4, r0
 2084 0834 30B3     		cbz	r0, .L197
 2085              	.LVL202:
 2086              	.L193:
 2087              	.LBB152:
 2088              	.LBB153:
 2089              	.LBB154:
 2090              	.LBB155:
 2091              	.LBB156:
ARM GAS  C:\Users\RAKIBU~1\AppData\Local\Temp\ccBdMgjJ.s 			page 38


 2092              	.LBB157:
 2093              		.loc 3 493 0
 2094 0836 2023     		movs	r3, #32
 2095              		.syntax unified
 2096              	@ 493 "../../../ChibiOSRepo/chibios191/os/common/ext/ARM/CMSIS/Core/Include/cmsis_gcc.h" 1
 2097 0838 83F31188 		MSR basepri, r3
 2098              	@ 0 "" 2
 2099              	.LVL203:
 2100              		.thumb
 2101              		.syntax unified
 2102              	.LBE157:
 2103              	.LBE156:
 2104              	.LBE155:
 2105              		.loc 4 356 0
 2106 083c FFF7FEFF 		bl	_stats_start_measure_crit_thd
 2107              	.LVL204:
 2108              		.loc 4 357 0
 2109 0840 FFF7FEFF 		bl	_dbg_check_lock
 2110              	.LVL205:
 2111              	.LBE154:
 2112              	.LBE153:
 2113              	.LBE152:
 2114              		.loc 1 599 0
 2115 0844 2379     		ldrb	r3, [r4, #4]	@ zero_extendqisi2
 2116 0846 013B     		subs	r3, r3, #1
 2117 0848 DBB2     		uxtb	r3, r3
 2118 084a 012B     		cmp	r3, #1
 2119 084c 02D9     		bls	.L194
 2120              		.loc 1 599 0 is_stmt 0 discriminator 2
 2121 084e 1148     		ldr	r0, .L199
 2122 0850 FFF7FEFF 		bl	chSysHalt
 2123              	.LVL206:
 2124              	.L194:
 2125              		.loc 1 602 0 is_stmt 1
 2126 0854 2046     		mov	r0, r4
 2127 0856 FFF7FEFF 		bl	sdc_lld_stop
 2128              	.LVL207:
 2129              		.loc 1 603 0
 2130 085a 0023     		movs	r3, #0
 2131 085c E362     		str	r3, [r4, #44]
 2132              		.loc 1 604 0
 2133 085e 0123     		movs	r3, #1
 2134 0860 2371     		strb	r3, [r4, #4]
 2135              	.LBB158:
 2136              	.LBB159:
 2137              	.LBB160:
 2138              		.loc 4 367 0
 2139 0862 FFF7FEFF 		bl	_dbg_check_unlock
 2140              	.LVL208:
 2141              		.loc 4 368 0
 2142 0866 FFF7FEFF 		bl	_stats_stop_measure_crit_thd
 2143              	.LVL209:
 2144              		.loc 4 374 0
 2145 086a 0B4B     		ldr	r3, .L199+4
 2146 086c 1A68     		ldr	r2, [r3]
 2147 086e 9A42     		cmp	r2, r3
 2148 0870 04D0     		beq	.L195
ARM GAS  C:\Users\RAKIBU~1\AppData\Local\Temp\ccBdMgjJ.s 			page 39


 2149 0872 9B69     		ldr	r3, [r3, #24]
 2150 0874 9968     		ldr	r1, [r3, #8]
 2151 0876 9368     		ldr	r3, [r2, #8]
 2152 0878 9942     		cmp	r1, r3
 2153 087a 07D3     		bcc	.L198
 2154              	.L195:
 2155              	.LVL210:
 2156              	.LBB161:
 2157              	.LBB162:
 2158              	.LBB163:
 2159              		.loc 3 493 0
 2160 087c 0023     		movs	r3, #0
 2161              		.syntax unified
 2162              	@ 493 "../../../ChibiOSRepo/chibios191/os/common/ext/ARM/CMSIS/Core/Include/cmsis_gcc.h" 1
 2163 087e 83F31188 		MSR basepri, r3
 2164              	@ 0 "" 2
 2165              	.LVL211:
 2166              		.thumb
 2167              		.syntax unified
 2168              	.LBE163:
 2169              	.LBE162:
 2170              	.LBE161:
 2171              	.LBE160:
 2172              	.LBE159:
 2173              	.LBE158:
 2174              		.loc 1 607 0
 2175 0882 10BD     		pop	{r4, pc}
 2176              	.LVL212:
 2177              	.L197:
 2178              		.loc 1 595 0 discriminator 2
 2179 0884 0348     		ldr	r0, .L199
 2180              	.LVL213:
 2181 0886 FFF7FEFF 		bl	chSysHalt
 2182              	.LVL214:
 2183 088a D4E7     		b	.L193
 2184              	.L198:
 2185              	.LBB166:
 2186              	.LBB165:
 2187              	.LBB164:
 2188              		.loc 4 374 0
 2189 088c 0348     		ldr	r0, .L199+8
 2190 088e FFF7FEFF 		bl	chSysHalt
 2191              	.LVL215:
 2192 0892 F3E7     		b	.L195
 2193              	.L200:
 2194              		.align	2
 2195              	.L199:
 2196 0894 BC000000 		.word	.LANCHOR0+188
 2197 0898 00000000 		.word	ch
 2198 089c 80000000 		.word	.LANCHOR0+128
 2199              	.LBE164:
 2200              	.LBE165:
 2201              	.LBE166:
 2202              		.cfi_endproc
 2203              	.LFE344:
 2204              		.size	sdcStop, .-sdcStop
 2205              		.align	1
ARM GAS  C:\Users\RAKIBU~1\AppData\Local\Temp\ccBdMgjJ.s 			page 40


 2206              		.p2align 4,,15
 2207              		.global	sdcGetAndClearErrors
 2208              		.syntax unified
 2209              		.thumb
 2210              		.thumb_func
 2211              		.fpu softvfp
 2212              		.type	sdcGetAndClearErrors, %function
 2213              	sdcGetAndClearErrors:
 2214              	.LFB349:
 2215              		.loc 1 872 0
 2216              		.cfi_startproc
 2217              		@ args = 0, pretend = 0, frame = 0
 2218              		@ frame_needed = 0, uses_anonymous_args = 0
 2219              	.LVL216:
 2220 08a0 38B5     		push	{r3, r4, r5, lr}
 2221              		.cfi_def_cfa_offset 16
 2222              		.cfi_offset 3, -16
 2223              		.cfi_offset 4, -12
 2224              		.cfi_offset 5, -8
 2225              		.cfi_offset 14, -4
 2226              		.loc 1 875 0
 2227 08a2 0446     		mov	r4, r0
 2228 08a4 08B3     		cbz	r0, .L206
 2229              	.LVL217:
 2230              	.L202:
 2231              		.loc 1 876 0 discriminator 1
 2232 08a6 2379     		ldrb	r3, [r4, #4]	@ zero_extendqisi2
 2233 08a8 052B     		cmp	r3, #5
 2234 08aa 02D0     		beq	.L203
 2235              		.loc 1 876 0 is_stmt 0 discriminator 2
 2236 08ac 1348     		ldr	r0, .L208
 2237 08ae FFF7FEFF 		bl	chSysHalt
 2238              	.LVL218:
 2239              	.L203:
 2240              	.LBB180:
 2241              	.LBB181:
 2242              	.LBB182:
 2243              	.LBB183:
 2244              	.LBB184:
 2245              	.LBB185:
 2246              		.loc 3 493 0 is_stmt 1
 2247 08b2 2023     		movs	r3, #32
 2248              		.syntax unified
 2249              	@ 493 "../../../ChibiOSRepo/chibios191/os/common/ext/ARM/CMSIS/Core/Include/cmsis_gcc.h" 1
 2250 08b4 83F31188 		MSR basepri, r3
 2251              	@ 0 "" 2
 2252              	.LVL219:
 2253              		.thumb
 2254              		.syntax unified
 2255              	.LBE185:
 2256              	.LBE184:
 2257              	.LBE183:
 2258              		.loc 4 356 0
 2259 08b8 FFF7FEFF 		bl	_stats_start_measure_crit_thd
 2260              	.LVL220:
 2261              		.loc 4 357 0
 2262 08bc FFF7FEFF 		bl	_dbg_check_lock
ARM GAS  C:\Users\RAKIBU~1\AppData\Local\Temp\ccBdMgjJ.s 			page 41


 2263              	.LVL221:
 2264              	.LBE182:
 2265              	.LBE181:
 2266              	.LBE180:
 2267              		.loc 1 879 0
 2268 08c0 656B     		ldr	r5, [r4, #52]
 2269              	.LVL222:
 2270              		.loc 1 880 0
 2271 08c2 0023     		movs	r3, #0
 2272 08c4 6363     		str	r3, [r4, #52]
 2273              	.LBB186:
 2274              	.LBB187:
 2275              	.LBB188:
 2276              		.loc 4 367 0
 2277 08c6 FFF7FEFF 		bl	_dbg_check_unlock
 2278              	.LVL223:
 2279              		.loc 4 368 0
 2280 08ca FFF7FEFF 		bl	_stats_stop_measure_crit_thd
 2281              	.LVL224:
 2282              		.loc 4 374 0
 2283 08ce 0C4B     		ldr	r3, .L208+4
 2284 08d0 1A68     		ldr	r2, [r3]
 2285 08d2 9A42     		cmp	r2, r3
 2286 08d4 04D0     		beq	.L204
 2287 08d6 9B69     		ldr	r3, [r3, #24]
 2288 08d8 9968     		ldr	r1, [r3, #8]
 2289 08da 9368     		ldr	r3, [r2, #8]
 2290 08dc 9942     		cmp	r1, r3
 2291 08de 08D3     		bcc	.L207
 2292              	.L204:
 2293              	.LVL225:
 2294              	.LBB189:
 2295              	.LBB190:
 2296              	.LBB191:
 2297              		.loc 3 493 0
 2298 08e0 0023     		movs	r3, #0
 2299              		.syntax unified
 2300              	@ 493 "../../../ChibiOSRepo/chibios191/os/common/ext/ARM/CMSIS/Core/Include/cmsis_gcc.h" 1
 2301 08e2 83F31188 		MSR basepri, r3
 2302              	@ 0 "" 2
 2303              	.LVL226:
 2304              		.thumb
 2305              		.syntax unified
 2306              	.LBE191:
 2307              	.LBE190:
 2308              	.LBE189:
 2309              	.LBE188:
 2310              	.LBE187:
 2311              	.LBE186:
 2312              		.loc 1 883 0
 2313 08e6 2846     		mov	r0, r5
 2314 08e8 38BD     		pop	{r3, r4, r5, pc}
 2315              	.LVL227:
 2316              	.L206:
 2317              		.loc 1 875 0 discriminator 2
 2318 08ea 0448     		ldr	r0, .L208
 2319              	.LVL228:
ARM GAS  C:\Users\RAKIBU~1\AppData\Local\Temp\ccBdMgjJ.s 			page 42


 2320 08ec FFF7FEFF 		bl	chSysHalt
 2321              	.LVL229:
 2322 08f0 D9E7     		b	.L202
 2323              	.LVL230:
 2324              	.L207:
 2325              	.LBB194:
 2326              	.LBB193:
 2327              	.LBB192:
 2328              		.loc 4 374 0
 2329 08f2 0448     		ldr	r0, .L208+8
 2330 08f4 FFF7FEFF 		bl	chSysHalt
 2331              	.LVL231:
 2332 08f8 F2E7     		b	.L204
 2333              	.L209:
 2334 08fa 00BF     		.align	2
 2335              	.L208:
 2336 08fc C4000000 		.word	.LANCHOR0+196
 2337 0900 00000000 		.word	ch
 2338 0904 80000000 		.word	.LANCHOR0+128
 2339              	.LBE192:
 2340              	.LBE193:
 2341              	.LBE194:
 2342              		.cfi_endproc
 2343              	.LFE349:
 2344              		.size	sdcGetAndClearErrors, .-sdcGetAndClearErrors
 2345              		.align	1
 2346 0908 AFF30080 		.p2align 4,,15
 2346      AFF30080 
 2347              		.global	sdcErase
 2348              		.syntax unified
 2349              		.thumb
 2350              		.thumb_func
 2351              		.fpu softvfp
 2352              		.type	sdcErase, %function
 2353              	sdcErase:
 2354              	.LFB352:
 2355              		.loc 1 954 0
 2356              		.cfi_startproc
 2357              		@ args = 0, pretend = 0, frame = 8
 2358              		@ frame_needed = 0, uses_anonymous_args = 0
 2359              	.LVL232:
 2360 0910 70B5     		push	{r4, r5, r6, lr}
 2361              		.cfi_def_cfa_offset 16
 2362              		.cfi_offset 4, -16
 2363              		.cfi_offset 5, -12
 2364              		.cfi_offset 6, -8
 2365              		.cfi_offset 14, -4
 2366 0912 82B0     		sub	sp, sp, #8
 2367              		.cfi_def_cfa_offset 24
 2368 0914 0D46     		mov	r5, r1
 2369 0916 1646     		mov	r6, r2
 2370              		.loc 1 957 0
 2371 0918 0446     		mov	r4, r0
 2372 091a A0B1     		cbz	r0, .L217
 2373              	.LVL233:
 2374              	.L211:
 2375              		.loc 1 958 0 discriminator 1
ARM GAS  C:\Users\RAKIBU~1\AppData\Local\Temp\ccBdMgjJ.s 			page 43


 2376 091c 2379     		ldrb	r3, [r4, #4]	@ zero_extendqisi2
 2377 091e 052B     		cmp	r3, #5
 2378 0920 15D1     		bne	.L218
 2379              	.L212:
 2380              		.loc 1 961 0
 2381 0922 0723     		movs	r3, #7
 2382 0924 2371     		strb	r3, [r4, #4]
 2383              		.loc 1 964 0
 2384 0926 236B     		ldr	r3, [r4, #48]
 2385 0928 13F0100F 		tst	r3, #16
 2386 092c 01D0     		beq	.L213
 2387              		.loc 1 965 0
 2388 092e 6D02     		lsls	r5, r5, #9
 2389              	.LVL234:
 2390              		.loc 1 966 0
 2391 0930 7602     		lsls	r6, r6, #9
 2392              	.LVL235:
 2393              	.L213:
 2394              		.loc 1 969 0
 2395 0932 2046     		mov	r0, r4
 2396 0934 FFF7FEFF 		bl	_sdc_wait_for_transfer_state
 2397              	.LVL236:
 2398 0938 68B1     		cbz	r0, .L219
 2399              	.L214:
 2400              		.loc 1 1003 0
 2401 093a 0523     		movs	r3, #5
 2402 093c 2371     		strb	r3, [r4, #4]
 2403              		.loc 1 1004 0
 2404 093e 0123     		movs	r3, #1
 2405              	.L215:
 2406              		.loc 1 1005 0
 2407 0940 1846     		mov	r0, r3
 2408 0942 02B0     		add	sp, sp, #8
 2409              		.cfi_remember_state
 2410              		.cfi_def_cfa_offset 16
 2411              		@ sp needed
 2412 0944 70BD     		pop	{r4, r5, r6, pc}
 2413              	.LVL237:
 2414              	.L217:
 2415              		.cfi_restore_state
 2416              		.loc 1 957 0 discriminator 2
 2417 0946 1C48     		ldr	r0, .L220
 2418              	.LVL238:
 2419 0948 FFF7FEFF 		bl	chSysHalt
 2420              	.LVL239:
 2421 094c E6E7     		b	.L211
 2422              	.L218:
 2423              		.loc 1 958 0 discriminator 2
 2424 094e 1A48     		ldr	r0, .L220
 2425 0950 FFF7FEFF 		bl	chSysHalt
 2426              	.LVL240:
 2427 0954 E5E7     		b	.L212
 2428              	.L219:
 2429              		.loc 1 973 0
 2430 0956 01AB     		add	r3, sp, #4
 2431 0958 2A46     		mov	r2, r5
 2432 095a 2021     		movs	r1, #32
ARM GAS  C:\Users\RAKIBU~1\AppData\Local\Temp\ccBdMgjJ.s 			page 44


 2433 095c 2046     		mov	r0, r4
 2434 095e FFF7FEFF 		bl	sdc_lld_send_cmd_short_crc
 2435              	.LVL241:
 2436 0962 0028     		cmp	r0, #0
 2437 0964 E9D1     		bne	.L214
 2438              		.loc 1 975 0
 2439 0966 154B     		ldr	r3, .L220+4
 2440 0968 019A     		ldr	r2, [sp, #4]
 2441 096a 1340     		ands	r3, r3, r2
 2442              		.loc 1 974 0
 2443 096c 002B     		cmp	r3, #0
 2444 096e E4D1     		bne	.L214
 2445              		.loc 1 979 0
 2446 0970 01AB     		add	r3, sp, #4
 2447 0972 3246     		mov	r2, r6
 2448 0974 2121     		movs	r1, #33
 2449 0976 2046     		mov	r0, r4
 2450 0978 FFF7FEFF 		bl	sdc_lld_send_cmd_short_crc
 2451              	.LVL242:
 2452 097c 0028     		cmp	r0, #0
 2453 097e DCD1     		bne	.L214
 2454              		.loc 1 981 0
 2455 0980 0E4B     		ldr	r3, .L220+4
 2456 0982 019A     		ldr	r2, [sp, #4]
 2457 0984 1340     		ands	r3, r3, r2
 2458              		.loc 1 980 0
 2459 0986 002B     		cmp	r3, #0
 2460 0988 D7D1     		bne	.L214
 2461              		.loc 1 985 0
 2462 098a 01AB     		add	r3, sp, #4
 2463 098c 0022     		movs	r2, #0
 2464 098e 2621     		movs	r1, #38
 2465 0990 2046     		mov	r0, r4
 2466 0992 FFF7FEFF 		bl	sdc_lld_send_cmd_short_crc
 2467              	.LVL243:
 2468 0996 0028     		cmp	r0, #0
 2469 0998 CFD1     		bne	.L214
 2470              		.loc 1 987 0
 2471 099a 084B     		ldr	r3, .L220+4
 2472 099c 019A     		ldr	r2, [sp, #4]
 2473 099e 1340     		ands	r3, r3, r2
 2474              		.loc 1 986 0
 2475 09a0 002B     		cmp	r3, #0
 2476 09a2 CAD1     		bne	.L214
 2477              		.loc 1 995 0
 2478 09a4 2046     		mov	r0, r4
 2479 09a6 FFF7FEFF 		bl	_sdc_wait_for_transfer_state
 2480              	.LVL244:
 2481 09aa 0346     		mov	r3, r0
 2482 09ac 0028     		cmp	r0, #0
 2483 09ae C4D1     		bne	.L214
 2484              		.loc 1 999 0
 2485 09b0 0522     		movs	r2, #5
 2486 09b2 2271     		strb	r2, [r4, #4]
 2487              		.loc 1 1000 0
 2488 09b4 C4E7     		b	.L215
 2489              	.L221:
ARM GAS  C:\Users\RAKIBU~1\AppData\Local\Temp\ccBdMgjJ.s 			page 45


 2490 09b6 00BF     		.align	2
 2491              	.L220:
 2492 09b8 DC000000 		.word	.LANCHOR0+220
 2493 09bc 08E0FFFD 		.word	-33562616
 2494              		.cfi_endproc
 2495              	.LFE352:
 2496              		.size	sdcErase, .-sdcErase
 2497              		.section	.rodata
 2498              		.align	2
 2499              		.set	.LANCHOR0,. + 0
 2500              		.type	__func__.9224, %object
 2501              		.size	__func__.9224, 19
 2502              	__func__.9224:
 2503 0000 6D6D635F 		.ascii	"mmc_cmd6_construct\000"
 2503      636D6436 
 2503      5F636F6E 
 2503      73747275 
 2503      637400
 2504 0013 00       		.space	1
 2505              		.type	__func__.9231, %object
 2506              		.size	__func__.9231, 19
 2507              	__func__.9231:
 2508 0014 7364635F 		.ascii	"sdc_cmd6_construct\000"
 2508      636D6436 
 2508      5F636F6E 
 2508      73747275 
 2508      637400
 2509 0027 00       		.space	1
 2510              		.type	__func__.9349, %object
 2511              		.size	__func__.9349, 11
 2512              	__func__.9349:
 2513 0028 73646347 		.ascii	"sdcGetInfo\000"
 2513      6574496E 
 2513      666F00
 2514 0033 00       		.space	1
 2515              		.type	__func__.9275, %object
 2516              		.size	__func__.9275, 18
 2517              	__func__.9275:
 2518 0034 6D6D635F 		.ascii	"mmc_set_bus_width\000"
 2518      7365745F 
 2518      6275735F 
 2518      77696474 
 2518      6800
 2519 0046 0000     		.space	2
 2520              		.type	__func__.9307, %object
 2521              		.size	__func__.9307, 11
 2522              	__func__.9307:
 2523 0048 73646343 		.ascii	"sdcConnect\000"
 2523      6F6E6E65 
 2523      637400
 2524 0053 00       		.space	1
 2525              		.type	__func__.9326, %object
 2526              		.size	__func__.9326, 8
 2527              	__func__.9326:
 2528 0054 73646352 		.ascii	"sdcRead\000"
 2528      65616400 
 2529              		.type	__func__.9334, %object
ARM GAS  C:\Users\RAKIBU~1\AppData\Local\Temp\ccBdMgjJ.s 			page 46


 2530              		.size	__func__.9334, 9
 2531              	__func__.9334:
 2532 005c 73646357 		.ascii	"sdcWrite\000"
 2532      72697465 
 2532      00
 2533 0065 000000   		.space	3
 2534              		.type	__func__.9344, %object
 2535              		.size	__func__.9344, 8
 2536              	__func__.9344:
 2537 0068 73646353 		.ascii	"sdcSync\000"
 2537      796E6300 
 2538              		.type	__func__.9318, %object
 2539              		.size	__func__.9318, 14
 2540              	__func__.9318:
 2541 0070 73646344 		.ascii	"sdcDisconnect\000"
 2541      6973636F 
 2541      6E6E6563 
 2541      7400
 2542 007e 0000     		.space	2
 2543              		.type	__func__.6519, %object
 2544              		.size	__func__.6519, 12
 2545              	__func__.6519:
 2546 0080 63685379 		.ascii	"chSysUnlock\000"
 2546      73556E6C 
 2546      6F636B00 
 2547              		.type	sdc_vmt, %object
 2548              		.size	sdc_vmt, 36
 2549              	sdc_vmt:
 2550 008c 00000000 		.word	0
 2551 0090 00000000 		.word	sdc_lld_is_card_inserted
 2552 0094 00000000 		.word	sdc_lld_is_write_protected
 2553 0098 00000000 		.word	sdcConnect
 2554 009c 00000000 		.word	sdcDisconnect
 2555 00a0 00000000 		.word	sdcRead
 2556 00a4 00000000 		.word	sdcWrite
 2557 00a8 00000000 		.word	sdcSync
 2558 00ac 00000000 		.word	sdcGetInfo
 2559              		.type	__func__.9297, %object
 2560              		.size	__func__.9297, 9
 2561              	__func__.9297:
 2562 00b0 73646353 		.ascii	"sdcStart\000"
 2562      74617274 
 2562      00
 2563 00b9 000000   		.space	3
 2564              		.type	__func__.9301, %object
 2565              		.size	__func__.9301, 8
 2566              	__func__.9301:
 2567 00bc 73646353 		.ascii	"sdcStop\000"
 2567      746F7000 
 2568              		.type	__func__.9339, %object
 2569              		.size	__func__.9339, 21
 2570              	__func__.9339:
 2571 00c4 73646347 		.ascii	"sdcGetAndClearErrors\000"
 2571      6574416E 
 2571      64436C65 
 2571      61724572 
 2571      726F7273 
ARM GAS  C:\Users\RAKIBU~1\AppData\Local\Temp\ccBdMgjJ.s 			page 47


 2572 00d9 000000   		.space	3
 2573              		.type	__func__.9356, %object
 2574              		.size	__func__.9356, 9
 2575              	__func__.9356:
 2576 00dc 73646345 		.ascii	"sdcErase\000"
 2576      72617365 
 2576      00
 2577              		.text
 2578              	.Letext0:
 2579              		.file 5 "c:\\chibistudio\\tools\\gnu tools arm embedded\\7.0 2017q4\\lib\\gcc\\arm-none-eabi\\7.2.
 2580              		.file 6 "c:\\chibistudio\\tools\\gnu tools arm embedded\\7.0 2017q4\\arm-none-eabi\\include\\machi
 2581              		.file 7 "c:\\chibistudio\\tools\\gnu tools arm embedded\\7.0 2017q4\\arm-none-eabi\\include\\sys\\
 2582              		.file 8 "c:\\chibistudio\\tools\\gnu tools arm embedded\\7.0 2017q4\\arm-none-eabi\\include\\sys\\
 2583              		.file 9 "c:\\chibistudio\\tools\\gnu tools arm embedded\\7.0 2017q4\\arm-none-eabi\\include\\sys\\
 2584              		.file 10 "c:\\chibistudio\\tools\\gnu tools arm embedded\\7.0 2017q4\\arm-none-eabi\\include\\sys\
 2585              		.file 11 "c:\\chibistudio\\tools\\gnu tools arm embedded\\7.0 2017q4\\arm-none-eabi\\include\\stdi
 2586              		.file 12 "../../../ChibiOSRepo/chibios191/os/common/ports/ARMCMx/compilers/GCC/chtypes.h"
 2587              		.file 13 "../../../ChibiOSRepo/chibios191/os/rt/include/chsystypes.h"
 2588              		.file 14 "../../../ChibiOSRepo/chibios191/os/rt/include/chschd.h"
 2589              		.file 15 "../../../ChibiOSRepo/chibios191/os/rt/include/chtime.h"
 2590              		.file 16 "../../../ChibiOSRepo/chibios191/os/common/ext/ARM/CMSIS/Core/Include/core_cm4.h"
 2591              		.file 17 "../../../ChibiOSRepo/chibios191/os/common/ext/ST/STM32F4xx/system_stm32f4xx.h"
 2592              		.file 18 "../../../ChibiOSRepo/chibios191/os/common/ext/ST/STM32F4xx/stm32f407xx.h"
 2593              		.file 19 "../../../ChibiOSRepo/chibios191/os/common/ports/ARMCMx/chcore.h"
 2594              		.file 20 "../../../ChibiOSRepo/chibios191/os/common/ports/ARMCMx/chcore_v7m.h"
 2595              		.file 21 "../../../ChibiOSRepo/chibios191/os/hal/ports/STM32/LLD/TIMv1/stm32_tim.h"
 2596              		.file 22 "../../../ChibiOSRepo/chibios191/os/rt/include/chtrace.h"
 2597              		.file 23 "../../../ChibiOSRepo/chibios191/os/rt/include/chtm.h"
 2598              		.file 24 "../../../ChibiOSRepo/chibios191/os/rt/include/chstats.h"
 2599              		.file 25 "../../../ChibiOSRepo/chibios191/os/rt/include/chsem.h"
 2600              		.file 26 "../../../ChibiOSRepo/chibios191/os/rt/include/chmtx.h"
 2601              		.file 27 "../../../ChibiOSRepo/chibios191/os/rt/include/chregistry.h"
 2602              		.file 28 "../../../ChibiOSRepo/chibios191/os/rt/include/chevents.h"
 2603              		.file 29 "../../../ChibiOSRepo/chibios191/os/oslib/include/chmemcore.h"
 2604              		.file 30 "../../../ChibiOSRepo/chibios191/os/oslib/include/chmempools.h"
 2605              		.file 31 "../../../ChibiOSRepo/chibios191/os/oslib/include/chfactory.h"
 2606              		.file 32 "../../../ChibiOSRepo/chibios191/os/hal/ports/STM32/LLD/DMAv2/stm32_dma.h"
 2607              		.file 33 "../../../ChibiOSRepo/chibios191/os/hal/include/hal_ioblock.h"
 2608              		.file 34 "../../../ChibiOSRepo/chibios191/os/hal/include/hal_persistent.h"
 2609              		.file 35 "../../../ChibiOSRepo/chibios191/os/hal/include/hal_queues.h"
 2610              		.file 36 "../../../ChibiOSRepo/chibios191/os/hal/include/hal_pal.h"
 2611              		.file 37 "../../../ChibiOSRepo/chibios191/os/hal/ports/STM32/LLD/GPIOv2/stm32_gpio.h"
 2612              		.file 38 "../../../ChibiOSRepo/chibios191/os/hal/ports/STM32/LLD/GPIOv2/hal_pal_lld.h"
 2613              		.file 39 "../../../ChibiOSRepo/chibios191/os/hal/include/hal_gpt.h"
 2614              		.file 40 "../../../ChibiOSRepo/chibios191/os/hal/ports/STM32/LLD/TIMv1/hal_gpt_lld.h"
 2615              		.file 41 "../../../ChibiOSRepo/chibios191/os/hal/include/hal_i2c.h"
 2616              		.file 42 "../../../ChibiOSRepo/chibios191/os/hal/ports/STM32/LLD/I2Cv1/hal_i2c_lld.h"
 2617              		.file 43 "c:\\chibistudio\\tools\\gnu tools arm embedded\\7.0 2017q4\\arm-none-eabi\\include\\time
 2618              		.file 44 "../../../ChibiOSRepo/chibios191/os/hal/include/hal_rtc.h"
 2619              		.file 45 "../../../ChibiOSRepo/chibios191/os/hal/ports/STM32/LLD/RTCv2/hal_rtc_lld.h"
 2620              		.file 46 "../../../ChibiOSRepo/chibios191/os/hal/include/hal_serial.h"
 2621              		.file 47 "../../../ChibiOSRepo/chibios191/os/hal/ports/STM32/LLD/USARTv1/hal_serial_lld.h"
 2622              		.file 48 "../../../ChibiOSRepo/chibios191/os/hal/include/hal_sdc.h"
 2623              		.file 49 "../../../ChibiOSRepo/chibios191/os/hal/ports/STM32/LLD/SDIOv1/hal_sdc_lld.h"
 2624              		.file 50 "../../../ChibiOSRepo/chibios191/os/hal/include/hal_spi.h"
 2625              		.file 51 "../../../ChibiOSRepo/chibios191/os/hal/ports/STM32/LLD/SPIv1/hal_spi_lld.h"
 2626              		.file 52 "../../../ChibiOSRepo/chibios191/os/rt/include/ch.h"
ARM GAS  C:\Users\RAKIBU~1\AppData\Local\Temp\ccBdMgjJ.s 			page 48


 2627              		.file 53 "../../../ChibiOSRepo/chibios191/os/rt/include/chdebug.h"
 2628              		.file 54 "../../../ChibiOSRepo/chibios191/os/hal/include/hal_mmcsd.h"
 2629              		.file 55 "../../../ChibiOSRepo/chibios191/os/rt/include/chthreads.h"