ARM GAS  C:\Users\RAKIBU~1\AppData\Local\Temp\ccc4ys0s.s 			page 1


   1              		.cpu cortex-m4
   2              		.eabi_attribute 20, 1
   3              		.eabi_attribute 21, 1
   4              		.eabi_attribute 23, 3
   5              		.eabi_attribute 24, 1
   6              		.eabi_attribute 25, 1
   7              		.eabi_attribute 26, 1
   8              		.eabi_attribute 30, 1
   9              		.eabi_attribute 34, 1
  10              		.eabi_attribute 18, 4
  11              		.file	"hal_serial.c"
  12              		.text
  13              	.Ltext0:
  14              		.cfi_sections	.debug_frame
  15              		.align	1
  16              		.p2align 4,,15
  17              		.syntax unified
  18              		.thumb
  19              		.thumb_func
  20              		.fpu softvfp
  21              		.type	_ctl, %function
  22              	_ctl:
  23              	.LFB336:
  24              		.file 1 "../../../ChibiOSRepo/chibios191/os/hal/src/hal_serial.c"
  25              		.loc 1 94 0
  26              		.cfi_startproc
  27              		@ args = 0, pretend = 0, frame = 0
  28              		@ frame_needed = 0, uses_anonymous_args = 0
  29              	.LVL0:
  30 0000 38B5     		push	{r3, r4, r5, lr}
  31              		.cfi_def_cfa_offset 16
  32              		.cfi_offset 3, -16
  33              		.cfi_offset 4, -12
  34              		.cfi_offset 5, -8
  35              		.cfi_offset 14, -4
  36 0002 0C46     		mov	r4, r1
  37 0004 1546     		mov	r5, r2
  38              	.LVL1:
  39              		.loc 1 97 0
  40 0006 38B1     		cbz	r0, .L7
  41              	.LVL2:
  42              	.L2:
  43              		.loc 1 99 0
  44 0008 54B1     		cbz	r4, .L4
  45 000a 012C     		cmp	r4, #1
  46 000c 0BD1     		bne	.L3
  47              		.loc 1 101 0 discriminator 1
  48 000e 55B1     		cbz	r5, .L3
  49              		.loc 1 101 0 is_stmt 0 discriminator 2
  50 0010 0648     		ldr	r0, .L8
  51 0012 FFF7FEFF 		bl	chSysHalt
  52              	.LVL3:
  53 0016 06E0     		b	.L3
  54              	.LVL4:
  55              	.L7:
  56              		.loc 1 97 0 is_stmt 1 discriminator 2
  57 0018 0448     		ldr	r0, .L8
ARM GAS  C:\Users\RAKIBU~1\AppData\Local\Temp\ccc4ys0s.s 			page 2


  58              	.LVL5:
  59 001a FFF7FEFF 		bl	chSysHalt
  60              	.LVL6:
  61 001e F3E7     		b	.L2
  62              	.L4:
  63              		.loc 1 104 0 discriminator 2
  64 0020 0248     		ldr	r0, .L8
  65 0022 FFF7FEFF 		bl	chSysHalt
  66              	.LVL7:
  67              	.L3:
  68              		.loc 1 115 0
  69 0026 0020     		movs	r0, #0
  70 0028 38BD     		pop	{r3, r4, r5, pc}
  71              	.LVL8:
  72              	.L9:
  73 002a 00BF     		.align	2
  74              	.L8:
  75 002c 00000000 		.word	.LANCHOR0
  76              		.cfi_endproc
  77              	.LFE336:
  78              		.size	_ctl, .-_ctl
  79              		.align	1
  80              		.p2align 4,,15
  81              		.syntax unified
  82              		.thumb
  83              		.thumb_func
  84              		.fpu softvfp
  85              		.type	_readt, %function
  86              	_readt:
  87              	.LFB335:
  88              		.loc 1 89 0
  89              		.cfi_startproc
  90              		@ args = 8, pretend = 0, frame = 0
  91              		@ frame_needed = 0, uses_anonymous_args = 0
  92              	.LVL9:
  93 0030 30B5     		push	{r4, r5, lr}
  94              		.cfi_def_cfa_offset 12
  95              		.cfi_offset 4, -12
  96              		.cfi_offset 5, -8
  97              		.cfi_offset 14, -4
  98 0032 83B0     		sub	sp, sp, #12
  99              		.cfi_def_cfa_offset 24
 100              		.loc 1 91 0
 101 0034 DDE90645 		ldrd	r4, [sp, #24]
 102 0038 CDE90045 		strd	r4, [sp]
 103 003c 0C30     		adds	r0, r0, #12
 104              	.LVL10:
 105 003e FFF7FEFF 		bl	iqReadTimeout
 106              	.LVL11:
 107              		.loc 1 92 0
 108 0042 03B0     		add	sp, sp, #12
 109              		.cfi_def_cfa_offset 12
 110              		@ sp needed
 111 0044 30BD     		pop	{r4, r5, pc}
 112              		.cfi_endproc
 113              	.LFE335:
 114              		.size	_readt, .-_readt
ARM GAS  C:\Users\RAKIBU~1\AppData\Local\Temp\ccc4ys0s.s 			page 3


 115              		.align	1
 116 0046 00BFAFF3 		.p2align 4,,15
 116      0080AFF3 
 116      0080
 117              		.syntax unified
 118              		.thumb
 119              		.thumb_func
 120              		.fpu softvfp
 121              		.type	_read, %function
 122              	_read:
 123              	.LFB329:
 124              		.loc 1 56 0
 125              		.cfi_startproc
 126              		@ args = 0, pretend = 0, frame = 0
 127              		@ frame_needed = 0, uses_anonymous_args = 0
 128              	.LVL12:
 129 0050 30B5     		push	{r4, r5, lr}
 130              		.cfi_def_cfa_offset 12
 131              		.cfi_offset 4, -12
 132              		.cfi_offset 5, -8
 133              		.cfi_offset 14, -4
 134 0052 83B0     		sub	sp, sp, #12
 135              		.cfi_def_cfa_offset 24
 136              		.loc 1 58 0
 137 0054 4FF0FF34 		mov	r4, #-1
 138 0058 4FF0FF35 		mov	r5, #-1
 139 005c CDE90045 		strd	r4, [sp]
 140 0060 0C30     		adds	r0, r0, #12
 141              	.LVL13:
 142 0062 FFF7FEFF 		bl	iqReadTimeout
 143              	.LVL14:
 144              		.loc 1 60 0
 145 0066 03B0     		add	sp, sp, #12
 146              		.cfi_def_cfa_offset 12
 147              		@ sp needed
 148 0068 30BD     		pop	{r4, r5, pc}
 149              		.cfi_endproc
 150              	.LFE329:
 151              		.size	_read, .-_read
 152              		.align	1
 153 006a 00BFAFF3 		.p2align 4,,15
 153      0080
 154              		.syntax unified
 155              		.thumb
 156              		.thumb_func
 157              		.fpu softvfp
 158              		.type	_writet, %function
 159              	_writet:
 160              	.LFB334:
 161              		.loc 1 83 0
 162              		.cfi_startproc
 163              		@ args = 8, pretend = 0, frame = 0
 164              		@ frame_needed = 0, uses_anonymous_args = 0
 165              	.LVL15:
 166 0070 30B5     		push	{r4, r5, lr}
 167              		.cfi_def_cfa_offset 12
 168              		.cfi_offset 4, -12
ARM GAS  C:\Users\RAKIBU~1\AppData\Local\Temp\ccc4ys0s.s 			page 4


 169              		.cfi_offset 5, -8
 170              		.cfi_offset 14, -4
 171 0072 83B0     		sub	sp, sp, #12
 172              		.cfi_def_cfa_offset 24
 173              		.loc 1 85 0
 174 0074 DDE90645 		ldrd	r4, [sp, #24]
 175 0078 CDE90045 		strd	r4, [sp]
 176 007c 3030     		adds	r0, r0, #48
 177              	.LVL16:
 178 007e FFF7FEFF 		bl	oqWriteTimeout
 179              	.LVL17:
 180              		.loc 1 86 0
 181 0082 03B0     		add	sp, sp, #12
 182              		.cfi_def_cfa_offset 12
 183              		@ sp needed
 184 0084 30BD     		pop	{r4, r5, pc}
 185              		.cfi_endproc
 186              	.LFE334:
 187              		.size	_writet, .-_writet
 188              		.align	1
 189 0086 00BFAFF3 		.p2align 4,,15
 189      0080AFF3 
 189      0080
 190              		.syntax unified
 191              		.thumb
 192              		.thumb_func
 193              		.fpu softvfp
 194              		.type	_write, %function
 195              	_write:
 196              	.LFB328:
 197              		.loc 1 50 0
 198              		.cfi_startproc
 199              		@ args = 0, pretend = 0, frame = 0
 200              		@ frame_needed = 0, uses_anonymous_args = 0
 201              	.LVL18:
 202 0090 30B5     		push	{r4, r5, lr}
 203              		.cfi_def_cfa_offset 12
 204              		.cfi_offset 4, -12
 205              		.cfi_offset 5, -8
 206              		.cfi_offset 14, -4
 207 0092 83B0     		sub	sp, sp, #12
 208              		.cfi_def_cfa_offset 24
 209              		.loc 1 52 0
 210 0094 4FF0FF34 		mov	r4, #-1
 211 0098 4FF0FF35 		mov	r5, #-1
 212 009c CDE90045 		strd	r4, [sp]
 213 00a0 3030     		adds	r0, r0, #48
 214              	.LVL19:
 215 00a2 FFF7FEFF 		bl	oqWriteTimeout
 216              	.LVL20:
 217              		.loc 1 54 0
 218 00a6 03B0     		add	sp, sp, #12
 219              		.cfi_def_cfa_offset 12
 220              		@ sp needed
 221 00a8 30BD     		pop	{r4, r5, pc}
 222              		.cfi_endproc
 223              	.LFE328:
ARM GAS  C:\Users\RAKIBU~1\AppData\Local\Temp\ccc4ys0s.s 			page 5


 224              		.size	_write, .-_write
 225              		.align	1
 226 00aa 00BFAFF3 		.p2align 4,,15
 226      0080
 227              		.syntax unified
 228              		.thumb
 229              		.thumb_func
 230              		.fpu softvfp
 231              		.type	_gett, %function
 232              	_gett:
 233              	.LFB333:
 234              		.loc 1 77 0
 235              		.cfi_startproc
 236              		@ args = 0, pretend = 0, frame = 0
 237              		@ frame_needed = 0, uses_anonymous_args = 0
 238              	.LVL21:
 239 00b0 08B5     		push	{r3, lr}
 240              		.cfi_def_cfa_offset 8
 241              		.cfi_offset 3, -8
 242              		.cfi_offset 14, -4
 243              		.loc 1 79 0
 244 00b2 0C30     		adds	r0, r0, #12
 245              	.LVL22:
 246 00b4 FFF7FEFF 		bl	iqGetTimeout
 247              	.LVL23:
 248              		.loc 1 80 0
 249 00b8 08BD     		pop	{r3, pc}
 250              		.cfi_endproc
 251              	.LFE333:
 252              		.size	_gett, .-_gett
 253              		.align	1
 254 00ba 00BFAFF3 		.p2align 4,,15
 254      0080
 255              		.syntax unified
 256              		.thumb
 257              		.thumb_func
 258              		.fpu softvfp
 259              		.type	_get, %function
 260              	_get:
 261              	.LFB331:
 262              		.loc 1 67 0
 263              		.cfi_startproc
 264              		@ args = 0, pretend = 0, frame = 0
 265              		@ frame_needed = 0, uses_anonymous_args = 0
 266              	.LVL24:
 267 00c0 08B5     		push	{r3, lr}
 268              		.cfi_def_cfa_offset 8
 269              		.cfi_offset 3, -8
 270              		.cfi_offset 14, -4
 271              		.loc 1 69 0
 272 00c2 4FF0FF32 		mov	r2, #-1
 273 00c6 4FF0FF33 		mov	r3, #-1
 274 00ca 0C30     		adds	r0, r0, #12
 275              	.LVL25:
 276 00cc FFF7FEFF 		bl	iqGetTimeout
 277              	.LVL26:
 278              		.loc 1 70 0
ARM GAS  C:\Users\RAKIBU~1\AppData\Local\Temp\ccc4ys0s.s 			page 6


 279 00d0 08BD     		pop	{r3, pc}
 280              		.cfi_endproc
 281              	.LFE331:
 282              		.size	_get, .-_get
 283              		.align	1
 284 00d2 00BFAFF3 		.p2align 4,,15
 284      0080AFF3 
 284      0080AFF3 
 284      0080
 285              		.syntax unified
 286              		.thumb
 287              		.thumb_func
 288              		.fpu softvfp
 289              		.type	_putt, %function
 290              	_putt:
 291              	.LFB332:
 292              		.loc 1 72 0
 293              		.cfi_startproc
 294              		@ args = 0, pretend = 0, frame = 0
 295              		@ frame_needed = 0, uses_anonymous_args = 0
 296              	.LVL27:
 297 00e0 08B5     		push	{r3, lr}
 298              		.cfi_def_cfa_offset 8
 299              		.cfi_offset 3, -8
 300              		.cfi_offset 14, -4
 301              		.loc 1 74 0
 302 00e2 3030     		adds	r0, r0, #48
 303              	.LVL28:
 304 00e4 FFF7FEFF 		bl	oqPutTimeout
 305              	.LVL29:
 306              		.loc 1 75 0
 307 00e8 08BD     		pop	{r3, pc}
 308              		.cfi_endproc
 309              	.LFE332:
 310              		.size	_putt, .-_putt
 311              		.align	1
 312 00ea 00BFAFF3 		.p2align 4,,15
 312      0080
 313              		.syntax unified
 314              		.thumb
 315              		.thumb_func
 316              		.fpu softvfp
 317              		.type	_put, %function
 318              	_put:
 319              	.LFB330:
 320              		.loc 1 62 0
 321              		.cfi_startproc
 322              		@ args = 0, pretend = 0, frame = 0
 323              		@ frame_needed = 0, uses_anonymous_args = 0
 324              	.LVL30:
 325 00f0 08B5     		push	{r3, lr}
 326              		.cfi_def_cfa_offset 8
 327              		.cfi_offset 3, -8
 328              		.cfi_offset 14, -4
 329              		.loc 1 64 0
 330 00f2 4FF0FF32 		mov	r2, #-1
 331 00f6 4FF0FF33 		mov	r3, #-1
ARM GAS  C:\Users\RAKIBU~1\AppData\Local\Temp\ccc4ys0s.s 			page 7


 332 00fa 3030     		adds	r0, r0, #48
 333              	.LVL31:
 334 00fc FFF7FEFF 		bl	oqPutTimeout
 335              	.LVL32:
 336              		.loc 1 65 0
 337 0100 08BD     		pop	{r3, pc}
 338              		.cfi_endproc
 339              	.LFE330:
 340              		.size	_put, .-_put
 341              		.align	1
 342 0102 00BFAFF3 		.p2align 4,,15
 342      0080AFF3 
 342      0080AFF3 
 342      0080
 343              		.global	sdInit
 344              		.syntax unified
 345              		.thumb
 346              		.thumb_func
 347              		.fpu softvfp
 348              		.type	sdInit, %function
 349              	sdInit:
 350              	.LFB337:
 351              		.loc 1 135 0
 352              		.cfi_startproc
 353              		@ args = 0, pretend = 0, frame = 0
 354              		@ frame_needed = 0, uses_anonymous_args = 0
 355 0110 08B5     		push	{r3, lr}
 356              		.cfi_def_cfa_offset 8
 357              		.cfi_offset 3, -8
 358              		.cfi_offset 14, -4
 359              		.loc 1 137 0
 360 0112 FFF7FEFF 		bl	sd_lld_init
 361              	.LVL33:
 362              		.loc 1 138 0
 363 0116 08BD     		pop	{r3, pc}
 364              		.cfi_endproc
 365              	.LFE337:
 366              		.size	sdInit, .-sdInit
 367              		.align	1
 368 0118 AFF30080 		.p2align 4,,15
 368      AFF30080 
 369              		.global	sdObjectInit
 370              		.syntax unified
 371              		.thumb
 372              		.thumb_func
 373              		.fpu softvfp
 374              		.type	sdObjectInit, %function
 375              	sdObjectInit:
 376              	.LFB338:
 377              		.loc 1 158 0
 378              		.cfi_startproc
 379              		@ args = 0, pretend = 0, frame = 0
 380              		@ frame_needed = 0, uses_anonymous_args = 0
 381              	.LVL34:
 382 0120 30B5     		push	{r4, r5, lr}
 383              		.cfi_def_cfa_offset 12
 384              		.cfi_offset 4, -12
ARM GAS  C:\Users\RAKIBU~1\AppData\Local\Temp\ccc4ys0s.s 			page 8


 385              		.cfi_offset 5, -8
 386              		.cfi_offset 14, -4
 387 0122 83B0     		sub	sp, sp, #12
 388              		.cfi_def_cfa_offset 24
 389 0124 0446     		mov	r4, r0
 390 0126 1546     		mov	r5, r2
 391              		.loc 1 160 0
 392 0128 0346     		mov	r3, r0
 393 012a 0D4A     		ldr	r2, .L30
 394              	.LVL35:
 395 012c 43F8042B 		str	r2, [r3], #4
 396              	.LVL36:
 397              	.LBB69:
 398              	.LBB70:
 399              	.LBB71:
 400              		.file 2 "../../../ChibiOSRepo/chibios191/os/rt/include/chevents.h"
 401              		.loc 2 173 0
 402 0130 4360     		str	r3, [r0, #4]
 403              	.LVL37:
 404              	.LBE71:
 405              	.LBE70:
 406              	.LBE69:
 407              		.loc 1 162 0
 408 0132 0123     		movs	r3, #1
 409 0134 0372     		strb	r3, [r0, #8]
 410              		.loc 1 163 0
 411 0136 0090     		str	r0, [sp]
 412 0138 0B46     		mov	r3, r1
 413 013a 4FF48072 		mov	r2, #256
 414 013e 00F15401 		add	r1, r0, #84
 415              	.LVL38:
 416 0142 0C30     		adds	r0, r0, #12
 417              	.LVL39:
 418 0144 FFF7FEFF 		bl	iqObjectInit
 419              	.LVL40:
 420              		.loc 1 164 0
 421 0148 0094     		str	r4, [sp]
 422 014a 2B46     		mov	r3, r5
 423 014c 4FF48072 		mov	r2, #256
 424 0150 04F5AA71 		add	r1, r4, #340
 425 0154 04F13000 		add	r0, r4, #48
 426 0158 FFF7FEFF 		bl	oqObjectInit
 427              	.LVL41:
 428              		.loc 1 165 0
 429 015c 03B0     		add	sp, sp, #12
 430              		.cfi_def_cfa_offset 12
 431              		@ sp needed
 432 015e 30BD     		pop	{r4, r5, pc}
 433              	.LVL42:
 434              	.L31:
 435              		.align	2
 436              	.L30:
 437 0160 08000000 		.word	.LANCHOR0+8
 438              		.cfi_endproc
 439              	.LFE338:
 440              		.size	sdObjectInit, .-sdObjectInit
 441              		.align	1
ARM GAS  C:\Users\RAKIBU~1\AppData\Local\Temp\ccc4ys0s.s 			page 9


 442 0164 AFF30080 		.p2align 4,,15
 442      AFF30080 
 442      AFF30080 
 443              		.global	sdStart
 444              		.syntax unified
 445              		.thumb
 446              		.thumb_func
 447              		.fpu softvfp
 448              		.type	sdStart, %function
 449              	sdStart:
 450              	.LFB339:
 451              		.loc 1 185 0
 452              		.cfi_startproc
 453              		@ args = 0, pretend = 0, frame = 0
 454              		@ frame_needed = 0, uses_anonymous_args = 0
 455              	.LVL43:
 456 0170 38B5     		push	{r3, r4, r5, lr}
 457              		.cfi_def_cfa_offset 16
 458              		.cfi_offset 3, -16
 459              		.cfi_offset 4, -12
 460              		.cfi_offset 5, -8
 461              		.cfi_offset 14, -4
 462 0172 0D46     		mov	r5, r1
 463              		.loc 1 187 0
 464 0174 0446     		mov	r4, r0
 465 0176 28B3     		cbz	r0, .L37
 466              	.LVL44:
 467              	.L33:
 468              	.LBB85:
 469              	.LBB86:
 470              	.LBB87:
 471              	.LBB88:
 472              	.LBB89:
 473              	.LBB90:
 474              		.file 3 "../../../ChibiOSRepo/chibios191/os/common/ext/ARM/CMSIS/Core/Include/cmsis_gcc.h"
 475              		.loc 3 493 0
 476 0178 2023     		movs	r3, #32
 477              		.syntax unified
 478              	@ 493 "../../../ChibiOSRepo/chibios191/os/common/ext/ARM/CMSIS/Core/Include/cmsis_gcc.h" 1
 479 017a 83F31188 		MSR basepri, r3
 480              	@ 0 "" 2
 481              	.LVL45:
 482              		.thumb
 483              		.syntax unified
 484              	.LBE90:
 485              	.LBE89:
 486              	.LBE88:
 487              		.file 4 "../../../ChibiOSRepo/chibios191/os/rt/include/chsys.h"
 488              		.loc 4 356 0
 489 017e FFF7FEFF 		bl	_stats_start_measure_crit_thd
 490              	.LVL46:
 491              		.loc 4 357 0
 492 0182 FFF7FEFF 		bl	_dbg_check_lock
 493              	.LVL47:
 494              	.LBE87:
 495              	.LBE86:
 496              	.LBE85:
ARM GAS  C:\Users\RAKIBU~1\AppData\Local\Temp\ccc4ys0s.s 			page 10


 497              		.loc 1 190 0
 498 0186 237A     		ldrb	r3, [r4, #8]	@ zero_extendqisi2
 499 0188 013B     		subs	r3, r3, #1
 500 018a DBB2     		uxtb	r3, r3
 501 018c 012B     		cmp	r3, #1
 502 018e 02D9     		bls	.L34
 503              		.loc 1 190 0 is_stmt 0 discriminator 2
 504 0190 1048     		ldr	r0, .L39
 505 0192 FFF7FEFF 		bl	chSysHalt
 506              	.LVL48:
 507              	.L34:
 508              		.loc 1 192 0 is_stmt 1
 509 0196 2946     		mov	r1, r5
 510 0198 2046     		mov	r0, r4
 511 019a FFF7FEFF 		bl	sd_lld_start
 512              	.LVL49:
 513              		.loc 1 193 0
 514 019e 0223     		movs	r3, #2
 515 01a0 2372     		strb	r3, [r4, #8]
 516              	.LBB91:
 517              	.LBB92:
 518              	.LBB93:
 519              		.loc 4 367 0
 520 01a2 FFF7FEFF 		bl	_dbg_check_unlock
 521              	.LVL50:
 522              		.loc 4 368 0
 523 01a6 FFF7FEFF 		bl	_stats_stop_measure_crit_thd
 524              	.LVL51:
 525              		.loc 4 374 0
 526 01aa 0B4B     		ldr	r3, .L39+4
 527 01ac 1A68     		ldr	r2, [r3]
 528 01ae 9A42     		cmp	r2, r3
 529 01b0 04D0     		beq	.L35
 530 01b2 9B69     		ldr	r3, [r3, #24]
 531 01b4 9968     		ldr	r1, [r3, #8]
 532 01b6 9368     		ldr	r3, [r2, #8]
 533 01b8 9942     		cmp	r1, r3
 534 01ba 07D3     		bcc	.L38
 535              	.L35:
 536              	.LVL52:
 537              	.LBB94:
 538              	.LBB95:
 539              	.LBB96:
 540              		.loc 3 493 0
 541 01bc 0023     		movs	r3, #0
 542              		.syntax unified
 543              	@ 493 "../../../ChibiOSRepo/chibios191/os/common/ext/ARM/CMSIS/Core/Include/cmsis_gcc.h" 1
 544 01be 83F31188 		MSR basepri, r3
 545              	@ 0 "" 2
 546              	.LVL53:
 547              		.thumb
 548              		.syntax unified
 549              	.LBE96:
 550              	.LBE95:
 551              	.LBE94:
 552              	.LBE93:
 553              	.LBE92:
ARM GAS  C:\Users\RAKIBU~1\AppData\Local\Temp\ccc4ys0s.s 			page 11


 554              	.LBE91:
 555              		.loc 1 195 0
 556 01c2 38BD     		pop	{r3, r4, r5, pc}
 557              	.LVL54:
 558              	.L37:
 559              		.loc 1 187 0 discriminator 2
 560 01c4 0348     		ldr	r0, .L39
 561              	.LVL55:
 562 01c6 FFF7FEFF 		bl	chSysHalt
 563              	.LVL56:
 564 01ca D5E7     		b	.L33
 565              	.L38:
 566              	.LBB99:
 567              	.LBB98:
 568              	.LBB97:
 569              		.loc 4 374 0
 570 01cc 0348     		ldr	r0, .L39+8
 571 01ce FFF7FEFF 		bl	chSysHalt
 572              	.LVL57:
 573 01d2 F3E7     		b	.L35
 574              	.L40:
 575              		.align	2
 576              	.L39:
 577 01d4 30000000 		.word	.LANCHOR0+48
 578 01d8 00000000 		.word	ch
 579 01dc 38000000 		.word	.LANCHOR0+56
 580              	.LBE97:
 581              	.LBE98:
 582              	.LBE99:
 583              		.cfi_endproc
 584              	.LFE339:
 585              		.size	sdStart, .-sdStart
 586              		.align	1
 587              		.p2align 4,,15
 588              		.global	sdStop
 589              		.syntax unified
 590              		.thumb
 591              		.thumb_func
 592              		.fpu softvfp
 593              		.type	sdStop, %function
 594              	sdStop:
 595              	.LFB340:
 596              		.loc 1 206 0
 597              		.cfi_startproc
 598              		@ args = 0, pretend = 0, frame = 0
 599              		@ frame_needed = 0, uses_anonymous_args = 0
 600              	.LVL58:
 601 01e0 10B5     		push	{r4, lr}
 602              		.cfi_def_cfa_offset 8
 603              		.cfi_offset 4, -8
 604              		.cfi_offset 14, -4
 605              		.loc 1 208 0
 606 01e2 0446     		mov	r4, r0
 607 01e4 70B3     		cbz	r0, .L46
 608              	.LVL59:
 609              	.L42:
 610              	.LBB115:
ARM GAS  C:\Users\RAKIBU~1\AppData\Local\Temp\ccc4ys0s.s 			page 12


 611              	.LBB116:
 612              	.LBB117:
 613              	.LBB118:
 614              	.LBB119:
 615              	.LBB120:
 616              		.loc 3 493 0
 617 01e6 2023     		movs	r3, #32
 618              		.syntax unified
 619              	@ 493 "../../../ChibiOSRepo/chibios191/os/common/ext/ARM/CMSIS/Core/Include/cmsis_gcc.h" 1
 620 01e8 83F31188 		MSR basepri, r3
 621              	@ 0 "" 2
 622              	.LVL60:
 623              		.thumb
 624              		.syntax unified
 625              	.LBE120:
 626              	.LBE119:
 627              	.LBE118:
 628              		.loc 4 356 0
 629 01ec FFF7FEFF 		bl	_stats_start_measure_crit_thd
 630              	.LVL61:
 631              		.loc 4 357 0
 632 01f0 FFF7FEFF 		bl	_dbg_check_lock
 633              	.LVL62:
 634              	.LBE117:
 635              	.LBE116:
 636              	.LBE115:
 637              		.loc 1 212 0
 638 01f4 237A     		ldrb	r3, [r4, #8]	@ zero_extendqisi2
 639 01f6 013B     		subs	r3, r3, #1
 640 01f8 DBB2     		uxtb	r3, r3
 641 01fa 012B     		cmp	r3, #1
 642 01fc 02D9     		bls	.L43
 643              		.loc 1 212 0 is_stmt 0 discriminator 2
 644 01fe 1548     		ldr	r0, .L48
 645 0200 FFF7FEFF 		bl	chSysHalt
 646              	.LVL63:
 647              	.L43:
 648              		.loc 1 215 0 is_stmt 1
 649 0204 2046     		mov	r0, r4
 650 0206 FFF7FEFF 		bl	sd_lld_stop
 651              	.LVL64:
 652              		.loc 1 216 0
 653 020a 0123     		movs	r3, #1
 654 020c 2372     		strb	r3, [r4, #8]
 655              		.loc 1 217 0
 656 020e 04F13000 		add	r0, r4, #48
 657 0212 FFF7FEFF 		bl	oqResetI
 658              	.LVL65:
 659              		.loc 1 218 0
 660 0216 04F10C00 		add	r0, r4, #12
 661 021a FFF7FEFF 		bl	iqResetI
 662              	.LVL66:
 663              	.LBB121:
 664              	.LBB122:
 665              		.file 5 "../../../ChibiOSRepo/chibios191/os/hal/osal/rt/osal.h"
 666              		.loc 5 618 0
 667 021e FFF7FEFF 		bl	chSchRescheduleS
ARM GAS  C:\Users\RAKIBU~1\AppData\Local\Temp\ccc4ys0s.s 			page 13


 668              	.LVL67:
 669              	.LBE122:
 670              	.LBE121:
 671              	.LBB123:
 672              	.LBB124:
 673              	.LBB125:
 674              		.loc 4 367 0
 675 0222 FFF7FEFF 		bl	_dbg_check_unlock
 676              	.LVL68:
 677              		.loc 4 368 0
 678 0226 FFF7FEFF 		bl	_stats_stop_measure_crit_thd
 679              	.LVL69:
 680              		.loc 4 374 0
 681 022a 0B4B     		ldr	r3, .L48+4
 682 022c 1A68     		ldr	r2, [r3]
 683 022e 9A42     		cmp	r2, r3
 684 0230 04D0     		beq	.L44
 685 0232 9B69     		ldr	r3, [r3, #24]
 686 0234 9968     		ldr	r1, [r3, #8]
 687 0236 9368     		ldr	r3, [r2, #8]
 688 0238 9942     		cmp	r1, r3
 689 023a 07D3     		bcc	.L47
 690              	.L44:
 691              	.LVL70:
 692              	.LBB126:
 693              	.LBB127:
 694              	.LBB128:
 695              		.loc 3 493 0
 696 023c 0023     		movs	r3, #0
 697              		.syntax unified
 698              	@ 493 "../../../ChibiOSRepo/chibios191/os/common/ext/ARM/CMSIS/Core/Include/cmsis_gcc.h" 1
 699 023e 83F31188 		MSR basepri, r3
 700              	@ 0 "" 2
 701              	.LVL71:
 702              		.thumb
 703              		.syntax unified
 704              	.LBE128:
 705              	.LBE127:
 706              	.LBE126:
 707              	.LBE125:
 708              	.LBE124:
 709              	.LBE123:
 710              		.loc 1 222 0
 711 0242 10BD     		pop	{r4, pc}
 712              	.LVL72:
 713              	.L46:
 714              		.loc 1 208 0 discriminator 2
 715 0244 0348     		ldr	r0, .L48
 716              	.LVL73:
 717 0246 FFF7FEFF 		bl	chSysHalt
 718              	.LVL74:
 719 024a CCE7     		b	.L42
 720              	.L47:
 721              	.LBB131:
 722              	.LBB130:
 723              	.LBB129:
 724              		.loc 4 374 0
ARM GAS  C:\Users\RAKIBU~1\AppData\Local\Temp\ccc4ys0s.s 			page 14


 725 024c 0348     		ldr	r0, .L48+8
 726 024e FFF7FEFF 		bl	chSysHalt
 727              	.LVL75:
 728 0252 F3E7     		b	.L44
 729              	.L49:
 730              		.align	2
 731              	.L48:
 732 0254 44000000 		.word	.LANCHOR0+68
 733 0258 00000000 		.word	ch
 734 025c 38000000 		.word	.LANCHOR0+56
 735              	.LBE129:
 736              	.LBE130:
 737              	.LBE131:
 738              		.cfi_endproc
 739              	.LFE340:
 740              		.size	sdStop, .-sdStop
 741              		.align	1
 742              		.p2align 4,,15
 743              		.global	sdIncomingDataI
 744              		.syntax unified
 745              		.thumb
 746              		.thumb_func
 747              		.fpu softvfp
 748              		.type	sdIncomingDataI, %function
 749              	sdIncomingDataI:
 750              	.LFB341:
 751              		.loc 1 240 0
 752              		.cfi_startproc
 753              		@ args = 0, pretend = 0, frame = 0
 754              		@ frame_needed = 0, uses_anonymous_args = 0
 755              	.LVL76:
 756 0260 38B5     		push	{r3, r4, r5, lr}
 757              		.cfi_def_cfa_offset 16
 758              		.cfi_offset 3, -16
 759              		.cfi_offset 4, -12
 760              		.cfi_offset 5, -8
 761              		.cfi_offset 14, -4
 762 0262 0446     		mov	r4, r0
 763 0264 0D46     		mov	r5, r1
 764              		.loc 1 242 0
 765 0266 FFF7FEFF 		bl	chDbgCheckClassI
 766              	.LVL77:
 767              		.loc 1 243 0
 768 026a 4CB1     		cbz	r4, .L55
 769              	.L51:
 770              		.loc 1 245 0
 771 026c 6369     		ldr	r3, [r4, #20]
 772 026e 5BB1     		cbz	r3, .L56
 773              	.L52:
 774              		.loc 1 247 0
 775 0270 2946     		mov	r1, r5
 776 0272 04F10C00 		add	r0, r4, #12
 777 0276 FFF7FEFF 		bl	iqPutI
 778              	.LVL78:
 779 027a 0028     		cmp	r0, #0
 780 027c 09DB     		blt	.L57
 781              	.L50:
ARM GAS  C:\Users\RAKIBU~1\AppData\Local\Temp\ccc4ys0s.s 			page 15


 782              		.loc 1 249 0
 783 027e 38BD     		pop	{r3, r4, r5, pc}
 784              	.LVL79:
 785              	.L55:
 786              		.loc 1 243 0 discriminator 2
 787 0280 0748     		ldr	r0, .L58
 788 0282 FFF7FEFF 		bl	chSysHalt
 789              	.LVL80:
 790 0286 F1E7     		b	.L51
 791              	.L56:
 792              	.LVL81:
 793              	.LBB132:
 794              	.LBB133:
 795              		.loc 5 895 0
 796 0288 0421     		movs	r1, #4
 797 028a 6018     		adds	r0, r4, r1
 798              	.LVL82:
 799 028c FFF7FEFF 		bl	chEvtBroadcastFlagsI
 800              	.LVL83:
 801 0290 EEE7     		b	.L52
 802              	.LVL84:
 803              	.L57:
 804              	.LBE133:
 805              	.LBE132:
 806              	.LBB134:
 807              	.LBB135:
 808 0292 4FF48061 		mov	r1, #1024
 809 0296 201D     		adds	r0, r4, #4
 810              	.LVL85:
 811 0298 FFF7FEFF 		bl	chEvtBroadcastFlagsI
 812              	.LVL86:
 813              	.LBE135:
 814              	.LBE134:
 815              		.loc 1 249 0
 816 029c EFE7     		b	.L50
 817              	.L59:
 818 029e 00BF     		.align	2
 819              	.L58:
 820 02a0 4C000000 		.word	.LANCHOR0+76
 821              		.cfi_endproc
 822              	.LFE341:
 823              		.size	sdIncomingDataI, .-sdIncomingDataI
 824              		.align	1
 825 02a4 AFF30080 		.p2align 4,,15
 825      AFF30080 
 825      AFF30080 
 826              		.global	sdRequestDataI
 827              		.syntax unified
 828              		.thumb
 829              		.thumb_func
 830              		.fpu softvfp
 831              		.type	sdRequestDataI, %function
 832              	sdRequestDataI:
 833              	.LFB342:
 834              		.loc 1 266 0
 835              		.cfi_startproc
 836              		@ args = 0, pretend = 0, frame = 0
ARM GAS  C:\Users\RAKIBU~1\AppData\Local\Temp\ccc4ys0s.s 			page 16


 837              		@ frame_needed = 0, uses_anonymous_args = 0
 838              	.LVL87:
 839 02b0 38B5     		push	{r3, r4, r5, lr}
 840              		.cfi_def_cfa_offset 16
 841              		.cfi_offset 3, -16
 842              		.cfi_offset 4, -12
 843              		.cfi_offset 5, -8
 844              		.cfi_offset 14, -4
 845 02b2 0446     		mov	r4, r0
 846              		.loc 1 269 0
 847 02b4 FFF7FEFF 		bl	chDbgCheckClassI
 848              	.LVL88:
 849              		.loc 1 270 0
 850 02b8 3CB1     		cbz	r4, .L64
 851              	.L61:
 852              		.loc 1 272 0
 853 02ba 04F13000 		add	r0, r4, #48
 854 02be FFF7FEFF 		bl	oqGetI
 855              	.LVL89:
 856              		.loc 1 273 0
 857 02c2 051E     		subs	r5, r0, #0
 858 02c4 05DB     		blt	.L65
 859              	.LVL90:
 860              	.L60:
 861              		.loc 1 276 0
 862 02c6 2846     		mov	r0, r5
 863 02c8 38BD     		pop	{r3, r4, r5, pc}
 864              	.LVL91:
 865              	.L64:
 866              		.loc 1 270 0 discriminator 2
 867 02ca 0448     		ldr	r0, .L66
 868 02cc FFF7FEFF 		bl	chSysHalt
 869              	.LVL92:
 870 02d0 F3E7     		b	.L61
 871              	.LVL93:
 872              	.L65:
 873              	.LBB136:
 874              	.LBB137:
 875              		.loc 5 895 0
 876 02d2 0821     		movs	r1, #8
 877 02d4 201D     		adds	r0, r4, #4
 878              	.LVL94:
 879 02d6 FFF7FEFF 		bl	chEvtBroadcastFlagsI
 880              	.LVL95:
 881              	.LBE137:
 882              	.LBE136:
 883              		.loc 1 275 0
 884 02da F4E7     		b	.L60
 885              	.L67:
 886              		.align	2
 887              	.L66:
 888 02dc 5C000000 		.word	.LANCHOR0+92
 889              		.cfi_endproc
 890              	.LFE342:
 891              		.size	sdRequestDataI, .-sdRequestDataI
 892              		.align	1
 893              		.p2align 4,,15
ARM GAS  C:\Users\RAKIBU~1\AppData\Local\Temp\ccc4ys0s.s 			page 17


 894              		.global	sdPutWouldBlock
 895              		.syntax unified
 896              		.thumb
 897              		.thumb_func
 898              		.fpu softvfp
 899              		.type	sdPutWouldBlock, %function
 900              	sdPutWouldBlock:
 901              	.LFB343:
 902              		.loc 1 293 0
 903              		.cfi_startproc
 904              		@ args = 0, pretend = 0, frame = 0
 905              		@ frame_needed = 0, uses_anonymous_args = 0
 906              	.LVL96:
 907 02e0 10B5     		push	{r4, lr}
 908              		.cfi_def_cfa_offset 8
 909              		.cfi_offset 4, -8
 910              		.cfi_offset 14, -4
 911 02e2 0446     		mov	r4, r0
 912              	.LVL97:
 913              	.LBB151:
 914              	.LBB152:
 915              	.LBB153:
 916              	.LBB154:
 917              	.LBB155:
 918              	.LBB156:
 919              		.loc 3 493 0
 920 02e4 2023     		movs	r3, #32
 921              		.syntax unified
 922              	@ 493 "../../../ChibiOSRepo/chibios191/os/common/ext/ARM/CMSIS/Core/Include/cmsis_gcc.h" 1
 923 02e6 83F31188 		MSR basepri, r3
 924              	@ 0 "" 2
 925              	.LVL98:
 926              		.thumb
 927              		.syntax unified
 928              	.LBE156:
 929              	.LBE155:
 930              	.LBE154:
 931              		.loc 4 356 0
 932 02ea FFF7FEFF 		bl	_stats_start_measure_crit_thd
 933              	.LVL99:
 934              		.loc 4 357 0
 935 02ee FFF7FEFF 		bl	_dbg_check_lock
 936              	.LVL100:
 937              	.LBE153:
 938              	.LBE152:
 939              	.LBE151:
 940              		.loc 1 297 0
 941 02f2 A46B     		ldr	r4, [r4, #56]
 942              	.LVL101:
 943 02f4 B4FA84F4 		clz	r4, r4
 944 02f8 6409     		lsrs	r4, r4, #5
 945              	.LVL102:
 946              	.LBB157:
 947              	.LBB158:
 948              	.LBB159:
 949              		.loc 4 367 0
 950 02fa FFF7FEFF 		bl	_dbg_check_unlock
ARM GAS  C:\Users\RAKIBU~1\AppData\Local\Temp\ccc4ys0s.s 			page 18


 951              	.LVL103:
 952              		.loc 4 368 0
 953 02fe FFF7FEFF 		bl	_stats_stop_measure_crit_thd
 954              	.LVL104:
 955              		.loc 4 374 0
 956 0302 094B     		ldr	r3, .L72
 957 0304 1A68     		ldr	r2, [r3]
 958 0306 9A42     		cmp	r2, r3
 959 0308 04D0     		beq	.L69
 960 030a 9B69     		ldr	r3, [r3, #24]
 961 030c 9968     		ldr	r1, [r3, #8]
 962 030e 9368     		ldr	r3, [r2, #8]
 963 0310 9942     		cmp	r1, r3
 964 0312 04D3     		bcc	.L71
 965              	.L69:
 966              	.LVL105:
 967              	.LBB160:
 968              	.LBB161:
 969              	.LBB162:
 970              		.loc 3 493 0
 971 0314 0023     		movs	r3, #0
 972              		.syntax unified
 973              	@ 493 "../../../ChibiOSRepo/chibios191/os/common/ext/ARM/CMSIS/Core/Include/cmsis_gcc.h" 1
 974 0316 83F31188 		MSR basepri, r3
 975              	@ 0 "" 2
 976              	.LVL106:
 977              		.thumb
 978              		.syntax unified
 979              	.LBE162:
 980              	.LBE161:
 981              	.LBE160:
 982              	.LBE159:
 983              	.LBE158:
 984              	.LBE157:
 985              		.loc 1 301 0
 986 031a 2046     		mov	r0, r4
 987 031c 10BD     		pop	{r4, pc}
 988              	.LVL107:
 989              	.L71:
 990              	.LBB165:
 991              	.LBB164:
 992              	.LBB163:
 993              		.loc 4 374 0
 994 031e 0348     		ldr	r0, .L72+4
 995 0320 FFF7FEFF 		bl	chSysHalt
 996              	.LVL108:
 997 0324 F6E7     		b	.L69
 998              	.L73:
 999 0326 00BF     		.align	2
 1000              	.L72:
 1001 0328 00000000 		.word	ch
 1002 032c 38000000 		.word	.LANCHOR0+56
 1003              	.LBE163:
 1004              	.LBE164:
 1005              	.LBE165:
 1006              		.cfi_endproc
 1007              	.LFE343:
ARM GAS  C:\Users\RAKIBU~1\AppData\Local\Temp\ccc4ys0s.s 			page 19


 1008              		.size	sdPutWouldBlock, .-sdPutWouldBlock
 1009              		.align	1
 1010              		.p2align 4,,15
 1011              		.global	sdGetWouldBlock
 1012              		.syntax unified
 1013              		.thumb
 1014              		.thumb_func
 1015              		.fpu softvfp
 1016              		.type	sdGetWouldBlock, %function
 1017              	sdGetWouldBlock:
 1018              	.LFB344:
 1019              		.loc 1 318 0
 1020              		.cfi_startproc
 1021              		@ args = 0, pretend = 0, frame = 0
 1022              		@ frame_needed = 0, uses_anonymous_args = 0
 1023              	.LVL109:
 1024 0330 10B5     		push	{r4, lr}
 1025              		.cfi_def_cfa_offset 8
 1026              		.cfi_offset 4, -8
 1027              		.cfi_offset 14, -4
 1028 0332 0446     		mov	r4, r0
 1029              	.LVL110:
 1030              	.LBB179:
 1031              	.LBB180:
 1032              	.LBB181:
 1033              	.LBB182:
 1034              	.LBB183:
 1035              	.LBB184:
 1036              		.loc 3 493 0
 1037 0334 2023     		movs	r3, #32
 1038              		.syntax unified
 1039              	@ 493 "../../../ChibiOSRepo/chibios191/os/common/ext/ARM/CMSIS/Core/Include/cmsis_gcc.h" 1
 1040 0336 83F31188 		MSR basepri, r3
 1041              	@ 0 "" 2
 1042              	.LVL111:
 1043              		.thumb
 1044              		.syntax unified
 1045              	.LBE184:
 1046              	.LBE183:
 1047              	.LBE182:
 1048              		.loc 4 356 0
 1049 033a FFF7FEFF 		bl	_stats_start_measure_crit_thd
 1050              	.LVL112:
 1051              		.loc 4 357 0
 1052 033e FFF7FEFF 		bl	_dbg_check_lock
 1053              	.LVL113:
 1054              	.LBE181:
 1055              	.LBE180:
 1056              	.LBE179:
 1057              		.loc 1 322 0
 1058 0342 6469     		ldr	r4, [r4, #20]
 1059              	.LVL114:
 1060 0344 B4FA84F4 		clz	r4, r4
 1061 0348 6409     		lsrs	r4, r4, #5
 1062              	.LVL115:
 1063              	.LBB185:
 1064              	.LBB186:
ARM GAS  C:\Users\RAKIBU~1\AppData\Local\Temp\ccc4ys0s.s 			page 20


 1065              	.LBB187:
 1066              		.loc 4 367 0
 1067 034a FFF7FEFF 		bl	_dbg_check_unlock
 1068              	.LVL116:
 1069              		.loc 4 368 0
 1070 034e FFF7FEFF 		bl	_stats_stop_measure_crit_thd
 1071              	.LVL117:
 1072              		.loc 4 374 0
 1073 0352 094B     		ldr	r3, .L78
 1074 0354 1A68     		ldr	r2, [r3]
 1075 0356 9A42     		cmp	r2, r3
 1076 0358 04D0     		beq	.L75
 1077 035a 9B69     		ldr	r3, [r3, #24]
 1078 035c 9968     		ldr	r1, [r3, #8]
 1079 035e 9368     		ldr	r3, [r2, #8]
 1080 0360 9942     		cmp	r1, r3
 1081 0362 04D3     		bcc	.L77
 1082              	.L75:
 1083              	.LVL118:
 1084              	.LBB188:
 1085              	.LBB189:
 1086              	.LBB190:
 1087              		.loc 3 493 0
 1088 0364 0023     		movs	r3, #0
 1089              		.syntax unified
 1090              	@ 493 "../../../ChibiOSRepo/chibios191/os/common/ext/ARM/CMSIS/Core/Include/cmsis_gcc.h" 1
 1091 0366 83F31188 		MSR basepri, r3
 1092              	@ 0 "" 2
 1093              	.LVL119:
 1094              		.thumb
 1095              		.syntax unified
 1096              	.LBE190:
 1097              	.LBE189:
 1098              	.LBE188:
 1099              	.LBE187:
 1100              	.LBE186:
 1101              	.LBE185:
 1102              		.loc 1 326 0
 1103 036a 2046     		mov	r0, r4
 1104 036c 10BD     		pop	{r4, pc}
 1105              	.LVL120:
 1106              	.L77:
 1107              	.LBB193:
 1108              	.LBB192:
 1109              	.LBB191:
 1110              		.loc 4 374 0
 1111 036e 0348     		ldr	r0, .L78+4
 1112 0370 FFF7FEFF 		bl	chSysHalt
 1113              	.LVL121:
 1114 0374 F6E7     		b	.L75
 1115              	.L79:
 1116 0376 00BF     		.align	2
 1117              	.L78:
 1118 0378 00000000 		.word	ch
 1119 037c 38000000 		.word	.LANCHOR0+56
 1120              	.LBE191:
 1121              	.LBE192:
ARM GAS  C:\Users\RAKIBU~1\AppData\Local\Temp\ccc4ys0s.s 			page 21


 1122              	.LBE193:
 1123              		.cfi_endproc
 1124              	.LFE344:
 1125              		.size	sdGetWouldBlock, .-sdGetWouldBlock
 1126              		.align	1
 1127              		.p2align 4,,15
 1128              		.global	sdControl
 1129              		.syntax unified
 1130              		.thumb
 1131              		.thumb_func
 1132              		.fpu softvfp
 1133              		.type	sdControl, %function
 1134              	sdControl:
 1135              	.LFB345:
 1136              		.loc 1 342 0
 1137              		.cfi_startproc
 1138              		@ args = 0, pretend = 0, frame = 0
 1139              		@ frame_needed = 0, uses_anonymous_args = 0
 1140              	.LVL122:
 1141 0380 08B5     		push	{r3, lr}
 1142              		.cfi_def_cfa_offset 8
 1143              		.cfi_offset 3, -8
 1144              		.cfi_offset 14, -4
 1145              		.loc 1 344 0
 1146 0382 FFF73DFE 		bl	_ctl
 1147              	.LVL123:
 1148              		.loc 1 345 0
 1149 0386 08BD     		pop	{r3, pc}
 1150              		.cfi_endproc
 1151              	.LFE345:
 1152              		.size	sdControl, .-sdControl
 1153              		.section	.rodata
 1154              		.align	2
 1155              		.set	.LANCHOR0,. + 0
 1156              		.type	__func__.9008, %object
 1157              		.size	__func__.9008, 5
 1158              	__func__.9008:
 1159 0000 5F63746C 		.ascii	"_ctl\000"
 1159      00
 1160 0005 000000   		.space	3
 1161              		.type	vmt, %object
 1162              		.size	vmt, 40
 1163              	vmt:
 1164 0008 00000000 		.word	0
 1165 000c 00000000 		.word	_write
 1166 0010 00000000 		.word	_read
 1167 0014 00000000 		.word	_put
 1168 0018 00000000 		.word	_get
 1169 001c 00000000 		.word	_putt
 1170 0020 00000000 		.word	_gett
 1171 0024 00000000 		.word	_writet
 1172 0028 00000000 		.word	_readt
 1173 002c 00000000 		.word	_ctl
 1174              		.type	__func__.9026, %object
 1175              		.size	__func__.9026, 8
 1176              	__func__.9026:
 1177 0030 73645374 		.ascii	"sdStart\000"
ARM GAS  C:\Users\RAKIBU~1\AppData\Local\Temp\ccc4ys0s.s 			page 22


 1177      61727400 
 1178              		.type	__func__.6118, %object
 1179              		.size	__func__.6118, 12
 1180              	__func__.6118:
 1181 0038 63685379 		.ascii	"chSysUnlock\000"
 1181      73556E6C 
 1181      6F636B00 
 1182              		.type	__func__.9030, %object
 1183              		.size	__func__.9030, 7
 1184              	__func__.9030:
 1185 0044 73645374 		.ascii	"sdStop\000"
 1185      6F7000
 1186 004b 00       		.space	1
 1187              		.type	__func__.9035, %object
 1188              		.size	__func__.9035, 16
 1189              	__func__.9035:
 1190 004c 7364496E 		.ascii	"sdIncomingDataI\000"
 1190      636F6D69 
 1190      6E674461 
 1190      74614900 
 1191              		.type	__func__.9040, %object
 1192              		.size	__func__.9040, 15
 1193              	__func__.9040:
 1194 005c 73645265 		.ascii	"sdRequestDataI\000"
 1194      71756573 
 1194      74446174 
 1194      614900
 1195              		.text
 1196              	.Letext0:
 1197              		.file 6 "c:\\chibistudio\\tools\\gnu tools arm embedded\\7.0 2017q4\\lib\\gcc\\arm-none-eabi\\7.2.
 1198              		.file 7 "c:\\chibistudio\\tools\\gnu tools arm embedded\\7.0 2017q4\\arm-none-eabi\\include\\machi
 1199              		.file 8 "c:\\chibistudio\\tools\\gnu tools arm embedded\\7.0 2017q4\\arm-none-eabi\\include\\sys\\
 1200              		.file 9 "c:\\chibistudio\\tools\\gnu tools arm embedded\\7.0 2017q4\\arm-none-eabi\\include\\stdin
 1201              		.file 10 "../../../ChibiOSRepo/chibios191/os/common/ports/ARMCMx/compilers/GCC/chtypes.h"
 1202              		.file 11 "../../../ChibiOSRepo/chibios191/os/rt/include/chsystypes.h"
 1203              		.file 12 "../../../ChibiOSRepo/chibios191/os/rt/include/chschd.h"
 1204              		.file 13 "../../../ChibiOSRepo/chibios191/os/rt/include/chtime.h"
 1205              		.file 14 "../../../ChibiOSRepo/chibios191/os/common/ext/ARM/CMSIS/Core/Include/core_cm4.h"
 1206              		.file 15 "../../../ChibiOSRepo/chibios191/os/common/ext/ST/STM32F4xx/system_stm32f4xx.h"
 1207              		.file 16 "../../../ChibiOSRepo/chibios191/os/common/ext/ST/STM32F4xx/stm32f407xx.h"
 1208              		.file 17 "../../../ChibiOSRepo/chibios191/os/common/ports/ARMCMx/chcore.h"
 1209              		.file 18 "../../../ChibiOSRepo/chibios191/os/common/ports/ARMCMx/chcore_v7m.h"
 1210              		.file 19 "../../../ChibiOSRepo/chibios191/os/hal/ports/STM32/LLD/TIMv1/stm32_tim.h"
 1211              		.file 20 "../../../ChibiOSRepo/chibios191/os/rt/include/chtrace.h"
 1212              		.file 21 "../../../ChibiOSRepo/chibios191/os/rt/include/chtm.h"
 1213              		.file 22 "../../../ChibiOSRepo/chibios191/os/rt/include/chstats.h"
 1214              		.file 23 "../../../ChibiOSRepo/chibios191/os/rt/include/chsem.h"
 1215              		.file 24 "../../../ChibiOSRepo/chibios191/os/rt/include/chmtx.h"
 1216              		.file 25 "../../../ChibiOSRepo/chibios191/os/rt/include/chregistry.h"
 1217              		.file 26 "../../../ChibiOSRepo/chibios191/os/oslib/include/chmemcore.h"
 1218              		.file 27 "../../../ChibiOSRepo/chibios191/os/oslib/include/chmempools.h"
 1219              		.file 28 "../../../ChibiOSRepo/chibios191/os/oslib/include/chfactory.h"
 1220              		.file 29 "../../../ChibiOSRepo/chibios191/os/hal/ports/STM32/LLD/DMAv2/stm32_dma.h"
 1221              		.file 30 "../../../ChibiOSRepo/chibios191/os/hal/include/hal_ioblock.h"
 1222              		.file 31 "../../../ChibiOSRepo/chibios191/os/hal/include/hal_persistent.h"
 1223              		.file 32 "../../../ChibiOSRepo/chibios191/os/hal/include/hal_queues.h"
 1224              		.file 33 "../../../ChibiOSRepo/chibios191/os/hal/include/hal_pal.h"
ARM GAS  C:\Users\RAKIBU~1\AppData\Local\Temp\ccc4ys0s.s 			page 23


 1225              		.file 34 "../../../ChibiOSRepo/chibios191/os/hal/ports/STM32/LLD/GPIOv2/stm32_gpio.h"
 1226              		.file 35 "../../../ChibiOSRepo/chibios191/os/hal/ports/STM32/LLD/GPIOv2/hal_pal_lld.h"
 1227              		.file 36 "../../../ChibiOSRepo/chibios191/os/hal/include/hal_gpt.h"
 1228              		.file 37 "../../../ChibiOSRepo/chibios191/os/hal/ports/STM32/LLD/TIMv1/hal_gpt_lld.h"
 1229              		.file 38 "../../../ChibiOSRepo/chibios191/os/hal/include/hal_i2c.h"
 1230              		.file 39 "../../../ChibiOSRepo/chibios191/os/hal/ports/STM32/LLD/I2Cv1/hal_i2c_lld.h"
 1231              		.file 40 "c:\\chibistudio\\tools\\gnu tools arm embedded\\7.0 2017q4\\arm-none-eabi\\include\\sys\
 1232              		.file 41 "c:\\chibistudio\\tools\\gnu tools arm embedded\\7.0 2017q4\\arm-none-eabi\\include\\sys\
 1233              		.file 42 "c:\\chibistudio\\tools\\gnu tools arm embedded\\7.0 2017q4\\arm-none-eabi\\include\\sys\
 1234              		.file 43 "c:\\chibistudio\\tools\\gnu tools arm embedded\\7.0 2017q4\\arm-none-eabi\\include\\time
 1235              		.file 44 "../../../ChibiOSRepo/chibios191/os/hal/include/hal_rtc.h"
 1236              		.file 45 "../../../ChibiOSRepo/chibios191/os/hal/ports/STM32/LLD/RTCv2/hal_rtc_lld.h"
 1237              		.file 46 "../../../ChibiOSRepo/chibios191/os/hal/include/hal_serial.h"
 1238              		.file 47 "../../../ChibiOSRepo/chibios191/os/hal/ports/STM32/LLD/USARTv1/hal_serial_lld.h"
 1239              		.file 48 "../../../ChibiOSRepo/chibios191/os/hal/include/hal_sdc.h"
 1240              		.file 49 "../../../ChibiOSRepo/chibios191/os/hal/ports/STM32/LLD/SDIOv1/hal_sdc_lld.h"
 1241              		.file 50 "../../../ChibiOSRepo/chibios191/os/hal/include/hal_spi.h"
 1242              		.file 51 "../../../ChibiOSRepo/chibios191/os/hal/ports/STM32/LLD/SPIv1/hal_spi_lld.h"
 1243              		.file 52 "../../../ChibiOSRepo/chibios191/os/rt/include/chdebug.h"
 1244              		.file 53 "../../../ChibiOSRepo/chibios191/os/rt/include/ch.h"