ARM GAS  C:\Users\RAKIBU~1\AppData\Local\Temp\ccIj1WTc.s 			page 1


   1              		.cpu cortex-m4
   2              		.eabi_attribute 20, 1
   3              		.eabi_attribute 21, 1
   4              		.eabi_attribute 23, 3
   5              		.eabi_attribute 24, 1
   6              		.eabi_attribute 25, 1
   7              		.eabi_attribute 26, 1
   8              		.eabi_attribute 30, 1
   9              		.eabi_attribute 34, 1
  10              		.eabi_attribute 18, 4
  11              		.file	"hal_mmcsd.c"
  12              		.text
  13              	.Ltext0:
  14              		.cfi_sections	.debug_frame
  15              		.align	1
  16              		.p2align 4,,15
  17              		.global	_mmcsd_get_slice
  18              		.syntax unified
  19              		.thumb
  20              		.thumb_func
  21              		.fpu softvfp
  22              		.type	_mmcsd_get_slice, %function
  23              	_mmcsd_get_slice:
  24              	.LFB328:
  25              		.file 1 "../../../ChibiOSRepo/chibios191/os/hal/src/hal_mmcsd.c"
  26              		.loc 1 63 0
  27              		.cfi_startproc
  28              		@ args = 0, pretend = 0, frame = 0
  29              		@ frame_needed = 0, uses_anonymous_args = 0
  30              	.LVL0:
  31 0000 70B5     		push	{r4, r5, r6, lr}
  32              		.cfi_def_cfa_offset 16
  33              		.cfi_offset 4, -16
  34              		.cfi_offset 5, -12
  35              		.cfi_offset 6, -8
  36              		.cfi_offset 14, -4
  37 0002 0546     		mov	r5, r0
  38 0004 0C46     		mov	r4, r1
  39 0006 1646     		mov	r6, r2
  40              		.loc 1 67 0
  41 0008 9142     		cmp	r1, r2
  42 000a 02D3     		bcc	.L2
  43              		.loc 1 67 0 is_stmt 0 discriminator 3
  44 000c 8B1A     		subs	r3, r1, r2
  45 000e 1F2B     		cmp	r3, #31
  46 0010 02D9     		bls	.L3
  47              	.L2:
  48              		.loc 1 67 0 discriminator 4
  49 0012 1048     		ldr	r0, .L8
  50              	.LVL1:
  51 0014 FFF7FEFF 		bl	chSysHalt
  52              	.LVL2:
  53              	.L3:
  54              		.loc 1 69 0 is_stmt 1
  55 0018 7309     		lsrs	r3, r6, #5
  56              	.LVL3:
  57              		.loc 1 70 0
ARM GAS  C:\Users\RAKIBU~1\AppData\Local\Temp\ccIj1WTc.s 			page 2


  58 001a 06F01F06 		and	r6, r6, #31
  59              	.LVL4:
  60              		.loc 1 71 0
  61 001e 6209     		lsrs	r2, r4, #5
  62              	.LVL5:
  63              		.loc 1 72 0
  64 0020 04F01F04 		and	r4, r4, #31
  65              	.LVL6:
  66 0024 0134     		adds	r4, r4, #1
  67 0026 0120     		movs	r0, #1
  68 0028 00FA04F4 		lsl	r4, r0, r4
  69 002c 013C     		subs	r4, r4, #1
  70              	.LVL7:
  71              		.loc 1 75 0
  72 002e 9342     		cmp	r3, r2
  73 0030 04D3     		bcc	.L7
  74              		.loc 1 79 0
  75 0032 55F82300 		ldr	r0, [r5, r3, lsl #2]
  76 0036 2040     		ands	r0, r0, r4
  77 0038 F040     		lsrs	r0, r0, r6
  78              	.LVL8:
  79              	.L1:
  80              		.loc 1 80 0
  81 003a 70BD     		pop	{r4, r5, r6, pc}
  82              	.LVL9:
  83              	.L7:
  84              		.loc 1 76 0
  85 003c 55F82330 		ldr	r3, [r5, r3, lsl #2]
  86              	.LVL10:
  87 0040 F340     		lsrs	r3, r3, r6
  88              		.loc 1 77 0
  89 0042 55F82200 		ldr	r0, [r5, r2, lsl #2]
  90 0046 2040     		ands	r0, r0, r4
  91 0048 C6F12006 		rsb	r6, r6, #32
  92              	.LVL11:
  93 004c B040     		lsls	r0, r0, r6
  94              		.loc 1 76 0
  95 004e 1843     		orrs	r0, r0, r3
  96 0050 F3E7     		b	.L1
  97              	.L9:
  98 0052 00BF     		.align	2
  99              	.L8:
 100 0054 00000000 		.word	.LANCHOR0
 101              		.cfi_endproc
 102              	.LFE328:
 103              		.size	_mmcsd_get_slice, .-_mmcsd_get_slice
 104              		.align	1
 105 0058 AFF30080 		.p2align 4,,15
 105      AFF30080 
 106              		.global	_mmcsd_get_capacity
 107              		.syntax unified
 108              		.thumb
 109              		.thumb_func
 110              		.fpu softvfp
 111              		.type	_mmcsd_get_capacity, %function
 112              	_mmcsd_get_capacity:
 113              	.LFB329:
ARM GAS  C:\Users\RAKIBU~1\AppData\Local\Temp\ccIj1WTc.s 			page 3


 114              		.loc 1 93 0
 115              		.cfi_startproc
 116              		@ args = 0, pretend = 0, frame = 0
 117              		@ frame_needed = 0, uses_anonymous_args = 0
 118              	.LVL12:
 119 0060 70B5     		push	{r4, r5, r6, lr}
 120              		.cfi_def_cfa_offset 16
 121              		.cfi_offset 4, -16
 122              		.cfi_offset 5, -12
 123              		.cfi_offset 6, -8
 124              		.cfi_offset 14, -4
 125              		.loc 1 96 0
 126 0062 0546     		mov	r5, r0
 127 0064 48B1     		cbz	r0, .L18
 128              	.LVL13:
 129              	.L11:
 130              		.loc 1 98 0
 131 0066 7E22     		movs	r2, #126
 132 0068 7F21     		movs	r1, #127
 133 006a 2846     		mov	r0, r5
 134 006c FFF7FEFF 		bl	_mmcsd_get_slice
 135              	.LVL14:
 136 0070 38B1     		cbz	r0, .L13
 137 0072 0128     		cmp	r0, #1
 138 0074 1DD0     		beq	.L14
 139              		.loc 1 112 0
 140 0076 0020     		movs	r0, #0
 141 0078 1AE0     		b	.L10
 142              	.LVL15:
 143              	.L18:
 144              		.loc 1 96 0 discriminator 2
 145 007a 1248     		ldr	r0, .L19
 146              	.LVL16:
 147 007c FFF7FEFF 		bl	chSysHalt
 148              	.LVL17:
 149 0080 F1E7     		b	.L11
 150              	.L13:
 151              		.loc 1 101 0
 152 0082 3E22     		movs	r2, #62
 153 0084 4921     		movs	r1, #73
 154 0086 2846     		mov	r0, r5
 155 0088 FFF7FEFF 		bl	_mmcsd_get_slice
 156              	.LVL18:
 157 008c 0446     		mov	r4, r0
 158              	.LVL19:
 159              		.loc 1 102 0
 160 008e 2F22     		movs	r2, #47
 161 0090 3121     		movs	r1, #49
 162 0092 2846     		mov	r0, r5
 163              	.LVL20:
 164 0094 FFF7FEFF 		bl	_mmcsd_get_slice
 165              	.LVL21:
 166 0098 0646     		mov	r6, r0
 167              	.LVL22:
 168              		.loc 1 103 0
 169 009a 5022     		movs	r2, #80
 170 009c 5321     		movs	r1, #83
ARM GAS  C:\Users\RAKIBU~1\AppData\Local\Temp\ccIj1WTc.s 			page 4


 171 009e 2846     		mov	r0, r5
 172              	.LVL23:
 173 00a0 FFF7FEFF 		bl	_mmcsd_get_slice
 174              	.LVL24:
 175              		.loc 1 104 0
 176 00a4 0134     		adds	r4, r4, #1
 177              	.LVL25:
 178 00a6 0236     		adds	r6, r6, #2
 179              	.LVL26:
 180 00a8 B440     		lsls	r4, r4, r6
 181              	.LVL27:
 182 00aa 0938     		subs	r0, r0, #9
 183              	.LVL28:
 184 00ac 04FA00F0 		lsl	r0, r4, r0
 185              	.LVL29:
 186              	.L10:
 187              		.loc 1 113 0
 188 00b0 70BD     		pop	{r4, r5, r6, pc}
 189              	.LVL30:
 190              	.L14:
 191              		.loc 1 107 0
 192 00b2 3022     		movs	r2, #48
 193 00b4 4521     		movs	r1, #69
 194 00b6 2846     		mov	r0, r5
 195 00b8 FFF7FEFF 		bl	_mmcsd_get_slice
 196              	.LVL31:
 197 00bc 0130     		adds	r0, r0, #1
 198 00be 8002     		lsls	r0, r0, #10
 199 00c0 F6E7     		b	.L10
 200              	.L20:
 201 00c2 00BF     		.align	2
 202              	.L19:
 203 00c4 14000000 		.word	.LANCHOR0+20
 204              		.cfi_endproc
 205              	.LFE329:
 206              		.size	_mmcsd_get_capacity, .-_mmcsd_get_capacity
 207              		.align	1
 208 00c8 AFF30080 		.p2align 4,,15
 208      AFF30080 
 209              		.global	_mmcsd_get_capacity_ext
 210              		.syntax unified
 211              		.thumb
 212              		.thumb_func
 213              		.fpu softvfp
 214              		.type	_mmcsd_get_capacity_ext, %function
 215              	_mmcsd_get_capacity_ext:
 216              	.LFB330:
 217              		.loc 1 125 0
 218              		.cfi_startproc
 219              		@ args = 0, pretend = 0, frame = 0
 220              		@ frame_needed = 0, uses_anonymous_args = 0
 221              	.LVL32:
 222 00d0 10B5     		push	{r4, lr}
 223              		.cfi_def_cfa_offset 8
 224              		.cfi_offset 4, -8
 225              		.cfi_offset 14, -4
 226              		.loc 1 127 0
ARM GAS  C:\Users\RAKIBU~1\AppData\Local\Temp\ccIj1WTc.s 			page 5


 227 00d2 0446     		mov	r4, r0
 228 00d4 70B1     		cbz	r0, .L24
 229              	.LVL33:
 230              	.L22:
 231              		.loc 1 129 0
 232 00d6 94F8D700 		ldrb	r0, [r4, #215]	@ zero_extendqisi2
 233              		.loc 1 130 0
 234 00da 94F8D630 		ldrb	r3, [r4, #214]	@ zero_extendqisi2
 235 00de 1B04     		lsls	r3, r3, #16
 236              		.loc 1 129 0
 237 00e0 03EB0063 		add	r3, r3, r0, lsl #24
 238              		.loc 1 131 0
 239 00e4 94F8D500 		ldrb	r0, [r4, #213]	@ zero_extendqisi2
 240              		.loc 1 130 0
 241 00e8 03EB0023 		add	r3, r3, r0, lsl #8
 242              		.loc 1 132 0
 243 00ec 94F8D400 		ldrb	r0, [r4, #212]	@ zero_extendqisi2
 244              		.loc 1 133 0
 245 00f0 1844     		add	r0, r0, r3
 246 00f2 10BD     		pop	{r4, pc}
 247              	.LVL34:
 248              	.L24:
 249              		.loc 1 127 0 discriminator 2
 250 00f4 0148     		ldr	r0, .L25
 251              	.LVL35:
 252 00f6 FFF7FEFF 		bl	chSysHalt
 253              	.LVL36:
 254 00fa ECE7     		b	.L22
 255              	.L26:
 256              		.align	2
 257              	.L25:
 258 00fc 28000000 		.word	.LANCHOR0+40
 259              		.cfi_endproc
 260              	.LFE330:
 261              		.size	_mmcsd_get_capacity_ext, .-_mmcsd_get_capacity_ext
 262              		.align	1
 263              		.p2align 4,,15
 264              		.global	_mmcsd_unpack_sdc_cid
 265              		.syntax unified
 266              		.thumb
 267              		.thumb_func
 268              		.fpu softvfp
 269              		.type	_mmcsd_unpack_sdc_cid, %function
 270              	_mmcsd_unpack_sdc_cid:
 271              	.LFB331:
 272              		.loc 1 144 0
 273              		.cfi_startproc
 274              		@ args = 0, pretend = 0, frame = 0
 275              		@ frame_needed = 0, uses_anonymous_args = 0
 276              	.LVL37:
 277 0100 38B5     		push	{r3, r4, r5, lr}
 278              		.cfi_def_cfa_offset 16
 279              		.cfi_offset 3, -16
 280              		.cfi_offset 4, -12
 281              		.cfi_offset 5, -8
 282              		.cfi_offset 14, -4
 283 0102 0D46     		mov	r5, r1
ARM GAS  C:\Users\RAKIBU~1\AppData\Local\Temp\ccIj1WTc.s 			page 6


 284              		.loc 1 147 0
 285 0104 0446     		mov	r4, r0
 286 0106 0028     		cmp	r0, #0
 287 0108 54D0     		beq	.L28
 288              		.loc 1 147 0 is_stmt 0 discriminator 3
 289 010a 0029     		cmp	r1, #0
 290 010c 52D0     		beq	.L28
 291              	.LVL38:
 292              	.L29:
 293              		.loc 1 149 0 is_stmt 1
 294 010e 0834     		adds	r4, r4, #8
 295              	.LVL39:
 296              		.loc 1 150 0
 297 0110 0122     		movs	r2, #1
 298 0112 0721     		movs	r1, #7
 299 0114 2046     		mov	r0, r4
 300 0116 FFF7FEFF 		bl	_mmcsd_get_slice
 301              	.LVL40:
 302 011a 2875     		strb	r0, [r5, #20]
 303              		.loc 1 151 0
 304 011c 0C22     		movs	r2, #12
 305 011e 1321     		movs	r1, #19
 306 0120 2046     		mov	r0, r4
 307 0122 FFF7FEFF 		bl	_mmcsd_get_slice
 308              	.LVL41:
 309 0126 80B2     		uxth	r0, r0
 310 0128 00F5FA60 		add	r0, r0, #2000
 311 012c 6882     		strh	r0, [r5, #18]	@ movhi
 312              		.loc 1 153 0
 313 012e 0822     		movs	r2, #8
 314 0130 0B21     		movs	r1, #11
 315 0132 2046     		mov	r0, r4
 316 0134 FFF7FEFF 		bl	_mmcsd_get_slice
 317              	.LVL42:
 318 0138 2874     		strb	r0, [r5, #16]
 319              		.loc 1 154 0
 320 013a 7822     		movs	r2, #120
 321 013c 7F21     		movs	r1, #127
 322 013e 2046     		mov	r0, r4
 323 0140 FFF7FEFF 		bl	_mmcsd_get_slice
 324              	.LVL43:
 325 0144 2870     		strb	r0, [r5]
 326              		.loc 1 155 0
 327 0146 6822     		movs	r2, #104
 328 0148 7721     		movs	r1, #119
 329 014a 2046     		mov	r0, r4
 330 014c FFF7FEFF 		bl	_mmcsd_get_slice
 331              	.LVL44:
 332 0150 6880     		strh	r0, [r5, #2]	@ movhi
 333              		.loc 1 156 0
 334 0152 4022     		movs	r2, #64
 335 0154 4721     		movs	r1, #71
 336 0156 2046     		mov	r0, r4
 337 0158 FFF7FEFF 		bl	_mmcsd_get_slice
 338              	.LVL45:
 339 015c 2872     		strb	r0, [r5, #8]
 340              		.loc 1 157 0
ARM GAS  C:\Users\RAKIBU~1\AppData\Local\Temp\ccIj1WTc.s 			page 7


 341 015e 4822     		movs	r2, #72
 342 0160 4F21     		movs	r1, #79
 343 0162 2046     		mov	r0, r4
 344 0164 FFF7FEFF 		bl	_mmcsd_get_slice
 345              	.LVL46:
 346 0168 E871     		strb	r0, [r5, #7]
 347              		.loc 1 158 0
 348 016a 5022     		movs	r2, #80
 349 016c 5721     		movs	r1, #87
 350 016e 2046     		mov	r0, r4
 351 0170 FFF7FEFF 		bl	_mmcsd_get_slice
 352              	.LVL47:
 353 0174 A871     		strb	r0, [r5, #6]
 354              		.loc 1 159 0
 355 0176 5822     		movs	r2, #88
 356 0178 5F21     		movs	r1, #95
 357 017a 2046     		mov	r0, r4
 358 017c FFF7FEFF 		bl	_mmcsd_get_slice
 359              	.LVL48:
 360 0180 6871     		strb	r0, [r5, #5]
 361              		.loc 1 160 0
 362 0182 6022     		movs	r2, #96
 363 0184 6721     		movs	r1, #103
 364 0186 2046     		mov	r0, r4
 365 0188 FFF7FEFF 		bl	_mmcsd_get_slice
 366              	.LVL49:
 367 018c 2871     		strb	r0, [r5, #4]
 368              		.loc 1 161 0
 369 018e 3C22     		movs	r2, #60
 370 0190 3F21     		movs	r1, #63
 371 0192 2046     		mov	r0, r4
 372 0194 FFF7FEFF 		bl	_mmcsd_get_slice
 373              	.LVL50:
 374 0198 6872     		strb	r0, [r5, #9]
 375              		.loc 1 162 0
 376 019a 3822     		movs	r2, #56
 377 019c 3B21     		movs	r1, #59
 378 019e 2046     		mov	r0, r4
 379 01a0 FFF7FEFF 		bl	_mmcsd_get_slice
 380              	.LVL51:
 381 01a4 A872     		strb	r0, [r5, #10]
 382              		.loc 1 163 0
 383 01a6 1822     		movs	r2, #24
 384 01a8 3721     		movs	r1, #55
 385 01aa 2046     		mov	r0, r4
 386 01ac FFF7FEFF 		bl	_mmcsd_get_slice
 387              	.LVL52:
 388 01b0 E860     		str	r0, [r5, #12]
 389              		.loc 1 164 0
 390 01b2 38BD     		pop	{r3, r4, r5, pc}
 391              	.LVL53:
 392              	.L28:
 393              		.loc 1 147 0 discriminator 4
 394 01b4 0148     		ldr	r0, .L31
 395              	.LVL54:
 396 01b6 FFF7FEFF 		bl	chSysHalt
 397              	.LVL55:
ARM GAS  C:\Users\RAKIBU~1\AppData\Local\Temp\ccIj1WTc.s 			page 8


 398 01ba A8E7     		b	.L29
 399              	.L32:
 400              		.align	2
 401              	.L31:
 402 01bc 40000000 		.word	.LANCHOR0+64
 403              		.cfi_endproc
 404              	.LFE331:
 405              		.size	_mmcsd_unpack_sdc_cid, .-_mmcsd_unpack_sdc_cid
 406              		.align	1
 407              		.p2align 4,,15
 408              		.global	_mmcsd_unpack_mmc_cid
 409              		.syntax unified
 410              		.thumb
 411              		.thumb_func
 412              		.fpu softvfp
 413              		.type	_mmcsd_unpack_mmc_cid, %function
 414              	_mmcsd_unpack_mmc_cid:
 415              	.LFB332:
 416              		.loc 1 175 0
 417              		.cfi_startproc
 418              		@ args = 0, pretend = 0, frame = 0
 419              		@ frame_needed = 0, uses_anonymous_args = 0
 420              	.LVL56:
 421 01c0 38B5     		push	{r3, r4, r5, lr}
 422              		.cfi_def_cfa_offset 16
 423              		.cfi_offset 3, -16
 424              		.cfi_offset 4, -12
 425              		.cfi_offset 5, -8
 426              		.cfi_offset 14, -4
 427 01c2 0D46     		mov	r5, r1
 428              		.loc 1 178 0
 429 01c4 0446     		mov	r4, r0
 430 01c6 0028     		cmp	r0, #0
 431 01c8 5AD0     		beq	.L34
 432              		.loc 1 178 0 is_stmt 0 discriminator 3
 433 01ca 0029     		cmp	r1, #0
 434 01cc 58D0     		beq	.L34
 435              	.LVL57:
 436              	.L35:
 437              		.loc 1 180 0 is_stmt 1
 438 01ce 0834     		adds	r4, r4, #8
 439              	.LVL58:
 440              		.loc 1 181 0
 441 01d0 0122     		movs	r2, #1
 442 01d2 0721     		movs	r1, #7
 443 01d4 2046     		mov	r0, r4
 444 01d6 FFF7FEFF 		bl	_mmcsd_get_slice
 445              	.LVL59:
 446 01da 2875     		strb	r0, [r5, #20]
 447              		.loc 1 182 0
 448 01dc 0822     		movs	r2, #8
 449 01de 0B21     		movs	r1, #11
 450 01e0 2046     		mov	r0, r4
 451 01e2 FFF7FEFF 		bl	_mmcsd_get_slice
 452              	.LVL60:
 453 01e6 80B2     		uxth	r0, r0
 454 01e8 00F2CD70 		addw	r0, r0, #1997
ARM GAS  C:\Users\RAKIBU~1\AppData\Local\Temp\ccIj1WTc.s 			page 9


 455 01ec 6882     		strh	r0, [r5, #18]	@ movhi
 456              		.loc 1 184 0
 457 01ee 0C22     		movs	r2, #12
 458 01f0 0F21     		movs	r1, #15
 459 01f2 2046     		mov	r0, r4
 460 01f4 FFF7FEFF 		bl	_mmcsd_get_slice
 461              	.LVL61:
 462 01f8 2874     		strb	r0, [r5, #16]
 463              		.loc 1 185 0
 464 01fa 7822     		movs	r2, #120
 465 01fc 7F21     		movs	r1, #127
 466 01fe 2046     		mov	r0, r4
 467 0200 FFF7FEFF 		bl	_mmcsd_get_slice
 468              	.LVL62:
 469 0204 2870     		strb	r0, [r5]
 470              		.loc 1 186 0
 471 0206 6822     		movs	r2, #104
 472 0208 7721     		movs	r1, #119
 473 020a 2046     		mov	r0, r4
 474 020c FFF7FEFF 		bl	_mmcsd_get_slice
 475              	.LVL63:
 476 0210 6880     		strh	r0, [r5, #2]	@ movhi
 477              		.loc 1 187 0
 478 0212 3822     		movs	r2, #56
 479 0214 3F21     		movs	r1, #63
 480 0216 2046     		mov	r0, r4
 481 0218 FFF7FEFF 		bl	_mmcsd_get_slice
 482              	.LVL64:
 483 021c 6872     		strb	r0, [r5, #9]
 484              		.loc 1 188 0
 485 021e 4022     		movs	r2, #64
 486 0220 4721     		movs	r1, #71
 487 0222 2046     		mov	r0, r4
 488 0224 FFF7FEFF 		bl	_mmcsd_get_slice
 489              	.LVL65:
 490 0228 2872     		strb	r0, [r5, #8]
 491              		.loc 1 189 0
 492 022a 4822     		movs	r2, #72
 493 022c 4F21     		movs	r1, #79
 494 022e 2046     		mov	r0, r4
 495 0230 FFF7FEFF 		bl	_mmcsd_get_slice
 496              	.LVL66:
 497 0234 E871     		strb	r0, [r5, #7]
 498              		.loc 1 190 0
 499 0236 5022     		movs	r2, #80
 500 0238 5721     		movs	r1, #87
 501 023a 2046     		mov	r0, r4
 502 023c FFF7FEFF 		bl	_mmcsd_get_slice
 503              	.LVL67:
 504 0240 A871     		strb	r0, [r5, #6]
 505              		.loc 1 191 0
 506 0242 5822     		movs	r2, #88
 507 0244 5F21     		movs	r1, #95
 508 0246 2046     		mov	r0, r4
 509 0248 FFF7FEFF 		bl	_mmcsd_get_slice
 510              	.LVL68:
 511 024c 6871     		strb	r0, [r5, #5]
ARM GAS  C:\Users\RAKIBU~1\AppData\Local\Temp\ccIj1WTc.s 			page 10


 512              		.loc 1 192 0
 513 024e 6022     		movs	r2, #96
 514 0250 6721     		movs	r1, #103
 515 0252 2046     		mov	r0, r4
 516 0254 FFF7FEFF 		bl	_mmcsd_get_slice
 517              	.LVL69:
 518 0258 2871     		strb	r0, [r5, #4]
 519              		.loc 1 193 0
 520 025a 3422     		movs	r2, #52
 521 025c 3721     		movs	r1, #55
 522 025e 2046     		mov	r0, r4
 523 0260 FFF7FEFF 		bl	_mmcsd_get_slice
 524              	.LVL70:
 525 0264 A872     		strb	r0, [r5, #10]
 526              		.loc 1 194 0
 527 0266 3022     		movs	r2, #48
 528 0268 3321     		movs	r1, #51
 529 026a 2046     		mov	r0, r4
 530 026c FFF7FEFF 		bl	_mmcsd_get_slice
 531              	.LVL71:
 532 0270 E872     		strb	r0, [r5, #11]
 533              		.loc 1 195 0
 534 0272 1022     		movs	r2, #16
 535 0274 2F21     		movs	r1, #47
 536 0276 2046     		mov	r0, r4
 537 0278 FFF7FEFF 		bl	_mmcsd_get_slice
 538              	.LVL72:
 539 027c E860     		str	r0, [r5, #12]
 540              		.loc 1 196 0
 541 027e 38BD     		pop	{r3, r4, r5, pc}
 542              	.LVL73:
 543              	.L34:
 544              		.loc 1 178 0 discriminator 4
 545 0280 0148     		ldr	r0, .L37
 546              	.LVL74:
 547 0282 FFF7FEFF 		bl	chSysHalt
 548              	.LVL75:
 549 0286 A2E7     		b	.L35
 550              	.L38:
 551              		.align	2
 552              	.L37:
 553 0288 58000000 		.word	.LANCHOR0+88
 554              		.cfi_endproc
 555              	.LFE332:
 556              		.size	_mmcsd_unpack_mmc_cid, .-_mmcsd_unpack_mmc_cid
 557              		.align	1
 558 028c AFF30080 		.p2align 4,,15
 559              		.global	_mmcsd_unpack_csd_mmc
 560              		.syntax unified
 561              		.thumb
 562              		.thumb_func
 563              		.fpu softvfp
 564              		.type	_mmcsd_unpack_csd_mmc, %function
 565              	_mmcsd_unpack_csd_mmc:
 566              	.LFB333:
 567              		.loc 1 207 0
 568              		.cfi_startproc
ARM GAS  C:\Users\RAKIBU~1\AppData\Local\Temp\ccIj1WTc.s 			page 11


 569              		@ args = 0, pretend = 0, frame = 0
 570              		@ frame_needed = 0, uses_anonymous_args = 0
 571              	.LVL76:
 572 0290 38B5     		push	{r3, r4, r5, lr}
 573              		.cfi_def_cfa_offset 16
 574              		.cfi_offset 3, -16
 575              		.cfi_offset 4, -12
 576              		.cfi_offset 5, -8
 577              		.cfi_offset 14, -4
 578 0292 0D46     		mov	r5, r1
 579              		.loc 1 210 0
 580 0294 0446     		mov	r4, r0
 581 0296 0028     		cmp	r0, #0
 582 0298 00F0C480 		beq	.L40
 583              		.loc 1 210 0 is_stmt 0 discriminator 3
 584 029c 0029     		cmp	r1, #0
 585 029e 00F0C180 		beq	.L40
 586              	.LVL77:
 587              	.L41:
 588              		.loc 1 212 0 is_stmt 1
 589 02a2 1834     		adds	r4, r4, #24
 590              	.LVL78:
 591              		.loc 1 213 0
 592 02a4 3E22     		movs	r2, #62
 593 02a6 4921     		movs	r1, #73
 594 02a8 2046     		mov	r0, r4
 595 02aa FFF7FEFF 		bl	_mmcsd_get_slice
 596              	.LVL79:
 597 02ae E881     		strh	r0, [r5, #14]	@ movhi
 598              		.loc 1 214 0
 599 02b0 2F22     		movs	r2, #47
 600 02b2 3121     		movs	r1, #49
 601 02b4 2046     		mov	r0, r4
 602 02b6 FFF7FEFF 		bl	_mmcsd_get_slice
 603              	.LVL80:
 604 02ba 2875     		strb	r0, [r5, #20]
 605              		.loc 1 215 0
 606 02bc 5422     		movs	r2, #84
 607 02be 5F21     		movs	r1, #95
 608 02c0 2046     		mov	r0, r4
 609 02c2 FFF7FEFF 		bl	_mmcsd_get_slice
 610              	.LVL81:
 611 02c6 E880     		strh	r0, [r5, #6]	@ movhi
 612              		.loc 1 216 0
 613 02c8 0E22     		movs	r2, #14
 614 02ca 1146     		mov	r1, r2
 615 02cc 2046     		mov	r0, r4
 616 02ce FFF7FEFF 		bl	_mmcsd_get_slice
 617              	.LVL82:
 618 02d2 E877     		strb	r0, [r5, #31]
 619              		.loc 1 217 0
 620 02d4 0122     		movs	r2, #1
 621 02d6 0721     		movs	r1, #7
 622 02d8 2046     		mov	r0, r4
 623 02da FFF7FEFF 		bl	_mmcsd_get_slice
 624              	.LVL83:
 625 02de 85F82400 		strb	r0, [r5, #36]
ARM GAS  C:\Users\RAKIBU~1\AppData\Local\Temp\ccIj1WTc.s 			page 12


 626              		.loc 1 218 0
 627 02e2 7E22     		movs	r2, #126
 628 02e4 7F21     		movs	r1, #127
 629 02e6 2046     		mov	r0, r4
 630 02e8 FFF7FEFF 		bl	_mmcsd_get_slice
 631              	.LVL84:
 632 02ec 2870     		strb	r0, [r5]
 633              		.loc 1 219 0
 634 02ee 4C22     		movs	r2, #76
 635 02f0 1146     		mov	r1, r2
 636 02f2 2046     		mov	r0, r4
 637 02f4 FFF7FEFF 		bl	_mmcsd_get_slice
 638              	.LVL85:
 639 02f8 2873     		strb	r0, [r5, #12]
 640              		.loc 1 220 0
 641 02fa 0822     		movs	r2, #8
 642 02fc 0921     		movs	r1, #9
 643 02fe 2046     		mov	r0, r4
 644 0300 FFF7FEFF 		bl	_mmcsd_get_slice
 645              	.LVL86:
 646 0304 85F82300 		strb	r0, [r5, #35]
 647              		.loc 1 221 0
 648 0308 2522     		movs	r2, #37
 649 030a 2921     		movs	r1, #41
 650 030c 2046     		mov	r0, r4
 651 030e FFF7FEFF 		bl	_mmcsd_get_slice
 652              	.LVL87:
 653 0312 A875     		strb	r0, [r5, #22]
 654              		.loc 1 222 0
 655 0314 2A22     		movs	r2, #42
 656 0316 2E21     		movs	r1, #46
 657 0318 2046     		mov	r0, r4
 658 031a FFF7FEFF 		bl	_mmcsd_get_slice
 659              	.LVL88:
 660 031e 6875     		strb	r0, [r5, #21]
 661              		.loc 1 223 0
 662 0320 0A22     		movs	r2, #10
 663 0322 0B21     		movs	r1, #11
 664 0324 2046     		mov	r0, r4
 665 0326 FFF7FEFF 		bl	_mmcsd_get_slice
 666              	.LVL89:
 667 032a 85F82200 		strb	r0, [r5, #34]
 668              		.loc 1 224 0
 669 032e 0F22     		movs	r2, #15
 670 0330 1146     		mov	r1, r2
 671 0332 2046     		mov	r0, r4
 672 0334 FFF7FEFF 		bl	_mmcsd_get_slice
 673              	.LVL90:
 674 0338 A877     		strb	r0, [r5, #30]
 675              		.loc 1 225 0
 676 033a 6822     		movs	r2, #104
 677 033c 6F21     		movs	r1, #111
 678 033e 2046     		mov	r0, r4
 679 0340 FFF7FEFF 		bl	_mmcsd_get_slice
 680              	.LVL91:
 681 0344 E870     		strb	r0, [r5, #3]
 682              		.loc 1 226 0
ARM GAS  C:\Users\RAKIBU~1\AppData\Local\Temp\ccIj1WTc.s 			page 13


 683 0346 0D22     		movs	r2, #13
 684 0348 1146     		mov	r1, r2
 685 034a 2046     		mov	r0, r4
 686 034c FFF7FEFF 		bl	_mmcsd_get_slice
 687              	.LVL92:
 688 0350 85F82000 		strb	r0, [r5, #32]
 689              		.loc 1 227 0
 690 0354 1A22     		movs	r2, #26
 691 0356 1C21     		movs	r1, #28
 692 0358 2046     		mov	r0, r4
 693 035a FFF7FEFF 		bl	_mmcsd_get_slice
 694              	.LVL93:
 695 035e A876     		strb	r0, [r5, #26]
 696              		.loc 1 228 0
 697 0360 5022     		movs	r2, #80
 698 0362 5321     		movs	r1, #83
 699 0364 2046     		mov	r0, r4
 700 0366 FFF7FEFF 		bl	_mmcsd_get_slice
 701              	.LVL94:
 702 036a 2872     		strb	r0, [r5, #8]
 703              		.loc 1 229 0
 704 036c 4F22     		movs	r2, #79
 705 036e 1146     		mov	r1, r2
 706 0370 2046     		mov	r0, r4
 707 0372 FFF7FEFF 		bl	_mmcsd_get_slice
 708              	.LVL95:
 709 0376 6872     		strb	r0, [r5, #9]
 710              		.loc 1 230 0
 711 0378 4D22     		movs	r2, #77
 712 037a 1146     		mov	r1, r2
 713 037c 2046     		mov	r0, r4
 714 037e FFF7FEFF 		bl	_mmcsd_get_slice
 715              	.LVL96:
 716 0382 E872     		strb	r0, [r5, #11]
 717              		.loc 1 231 0
 718 0384 7A22     		movs	r2, #122
 719 0386 7D21     		movs	r1, #125
 720 0388 2046     		mov	r0, r4
 721 038a FFF7FEFF 		bl	_mmcsd_get_slice
 722              	.LVL97:
 723 038e 6870     		strb	r0, [r5, #1]
 724              		.loc 1 232 0
 725 0390 7022     		movs	r2, #112
 726 0392 7721     		movs	r1, #119
 727 0394 2046     		mov	r0, r4
 728 0396 FFF7FEFF 		bl	_mmcsd_get_slice
 729              	.LVL98:
 730 039a A870     		strb	r0, [r5, #2]
 731              		.loc 1 233 0
 732 039c 0C22     		movs	r2, #12
 733 039e 1146     		mov	r1, r2
 734 03a0 2046     		mov	r0, r4
 735 03a2 FFF7FEFF 		bl	_mmcsd_get_slice
 736              	.LVL99:
 737 03a6 85F82100 		strb	r0, [r5, #33]
 738              		.loc 1 234 0
 739 03aa 6022     		movs	r2, #96
ARM GAS  C:\Users\RAKIBU~1\AppData\Local\Temp\ccIj1WTc.s 			page 14


 740 03ac 6721     		movs	r1, #103
 741 03ae 2046     		mov	r0, r4
 742 03b0 FFF7FEFF 		bl	_mmcsd_get_slice
 743              	.LVL100:
 744 03b4 2871     		strb	r0, [r5, #4]
 745              		.loc 1 235 0
 746 03b6 3822     		movs	r2, #56
 747 03b8 3A21     		movs	r1, #58
 748 03ba 2046     		mov	r0, r4
 749 03bc FFF7FEFF 		bl	_mmcsd_get_slice
 750              	.LVL101:
 751 03c0 6874     		strb	r0, [r5, #17]
 752              		.loc 1 236 0
 753 03c2 3B22     		movs	r2, #59
 754 03c4 3D21     		movs	r1, #61
 755 03c6 2046     		mov	r0, r4
 756 03c8 FFF7FEFF 		bl	_mmcsd_get_slice
 757              	.LVL102:
 758 03cc 2874     		strb	r0, [r5, #16]
 759              		.loc 1 237 0
 760 03ce 3222     		movs	r2, #50
 761 03d0 3421     		movs	r1, #52
 762 03d2 2046     		mov	r0, r4
 763 03d4 FFF7FEFF 		bl	_mmcsd_get_slice
 764              	.LVL103:
 765 03d8 E874     		strb	r0, [r5, #19]
 766              		.loc 1 238 0
 767 03da 3522     		movs	r2, #53
 768 03dc 3721     		movs	r1, #55
 769 03de 2046     		mov	r0, r4
 770 03e0 FFF7FEFF 		bl	_mmcsd_get_slice
 771              	.LVL104:
 772 03e4 A874     		strb	r0, [r5, #18]
 773              		.loc 1 239 0
 774 03e6 1F22     		movs	r2, #31
 775 03e8 1146     		mov	r1, r2
 776 03ea 2046     		mov	r0, r4
 777 03ec FFF7FEFF 		bl	_mmcsd_get_slice
 778              	.LVL105:
 779 03f0 2876     		strb	r0, [r5, #24]
 780              		.loc 1 240 0
 781 03f2 2022     		movs	r2, #32
 782 03f4 2421     		movs	r1, #36
 783 03f6 2046     		mov	r0, r4
 784 03f8 FFF7FEFF 		bl	_mmcsd_get_slice
 785              	.LVL106:
 786 03fc E875     		strb	r0, [r5, #23]
 787              		.loc 1 241 0
 788 03fe 1622     		movs	r2, #22
 789 0400 1921     		movs	r1, #25
 790 0402 2046     		mov	r0, r4
 791 0404 FFF7FEFF 		bl	_mmcsd_get_slice
 792              	.LVL107:
 793 0408 E876     		strb	r0, [r5, #27]
 794              		.loc 1 242 0
 795 040a 1522     		movs	r2, #21
 796 040c 1146     		mov	r1, r2
ARM GAS  C:\Users\RAKIBU~1\AppData\Local\Temp\ccIj1WTc.s 			page 15


 797 040e 2046     		mov	r0, r4
 798 0410 FFF7FEFF 		bl	_mmcsd_get_slice
 799              	.LVL108:
 800 0414 2877     		strb	r0, [r5, #28]
 801              		.loc 1 243 0
 802 0416 4E22     		movs	r2, #78
 803 0418 1146     		mov	r1, r2
 804 041a 2046     		mov	r0, r4
 805 041c FFF7FEFF 		bl	_mmcsd_get_slice
 806              	.LVL109:
 807 0420 A872     		strb	r0, [r5, #10]
 808              		.loc 1 244 0
 809 0422 38BD     		pop	{r3, r4, r5, pc}
 810              	.LVL110:
 811              	.L40:
 812              		.loc 1 210 0 discriminator 4
 813 0424 0148     		ldr	r0, .L43
 814              	.LVL111:
 815 0426 FFF7FEFF 		bl	chSysHalt
 816              	.LVL112:
 817 042a 3AE7     		b	.L41
 818              	.L44:
 819              		.align	2
 820              	.L43:
 821 042c 70000000 		.word	.LANCHOR0+112
 822              		.cfi_endproc
 823              	.LFE333:
 824              		.size	_mmcsd_unpack_csd_mmc, .-_mmcsd_unpack_csd_mmc
 825              		.align	1
 826              		.p2align 4,,15
 827              		.global	_mmcsd_unpack_csd_v10
 828              		.syntax unified
 829              		.thumb
 830              		.thumb_func
 831              		.fpu softvfp
 832              		.type	_mmcsd_unpack_csd_v10, %function
 833              	_mmcsd_unpack_csd_v10:
 834              	.LFB334:
 835              		.loc 1 255 0
 836              		.cfi_startproc
 837              		@ args = 0, pretend = 0, frame = 0
 838              		@ frame_needed = 0, uses_anonymous_args = 0
 839              	.LVL113:
 840 0430 38B5     		push	{r3, r4, r5, lr}
 841              		.cfi_def_cfa_offset 16
 842              		.cfi_offset 3, -16
 843              		.cfi_offset 4, -12
 844              		.cfi_offset 5, -8
 845              		.cfi_offset 14, -4
 846 0432 0D46     		mov	r5, r1
 847              		.loc 1 258 0
 848 0434 0446     		mov	r4, r0
 849 0436 0028     		cmp	r0, #0
 850 0438 00F09880 		beq	.L48
 851              	.LVL114:
 852              	.L46:
 853              		.loc 1 260 0
ARM GAS  C:\Users\RAKIBU~1\AppData\Local\Temp\ccIj1WTc.s 			page 16


 854 043c 1834     		adds	r4, r4, #24
 855              	.LVL115:
 856              		.loc 1 261 0
 857 043e 3E22     		movs	r2, #62
 858 0440 4921     		movs	r1, #73
 859 0442 2046     		mov	r0, r4
 860 0444 FFF7FEFF 		bl	_mmcsd_get_slice
 861              	.LVL116:
 862 0448 A881     		strh	r0, [r5, #12]	@ movhi
 863              		.loc 1 262 0
 864 044a 2F22     		movs	r2, #47
 865 044c 3121     		movs	r1, #49
 866 044e 2046     		mov	r0, r4
 867 0450 FFF7FEFF 		bl	_mmcsd_get_slice
 868              	.LVL117:
 869 0454 A874     		strb	r0, [r5, #18]
 870              		.loc 1 263 0
 871 0456 5422     		movs	r2, #84
 872 0458 5F21     		movs	r1, #95
 873 045a 2046     		mov	r0, r4
 874 045c FFF7FEFF 		bl	_mmcsd_get_slice
 875              	.LVL118:
 876 0460 A880     		strh	r0, [r5, #4]	@ movhi
 877              		.loc 1 264 0
 878 0462 0E22     		movs	r2, #14
 879 0464 1146     		mov	r1, r2
 880 0466 2046     		mov	r0, r4
 881 0468 FFF7FEFF 		bl	_mmcsd_get_slice
 882              	.LVL119:
 883 046c E876     		strb	r0, [r5, #27]
 884              		.loc 1 265 0
 885 046e 0122     		movs	r2, #1
 886 0470 0721     		movs	r1, #7
 887 0472 2046     		mov	r0, r4
 888 0474 FFF7FEFF 		bl	_mmcsd_get_slice
 889              	.LVL120:
 890 0478 E877     		strb	r0, [r5, #31]
 891              		.loc 1 266 0
 892 047a 7E22     		movs	r2, #126
 893 047c 7F21     		movs	r1, #127
 894 047e 2046     		mov	r0, r4
 895 0480 FFF7FEFF 		bl	_mmcsd_get_slice
 896              	.LVL121:
 897 0484 2870     		strb	r0, [r5]
 898              		.loc 1 267 0
 899 0486 4C22     		movs	r2, #76
 900 0488 1146     		mov	r1, r2
 901 048a 2046     		mov	r0, r4
 902 048c FFF7FEFF 		bl	_mmcsd_get_slice
 903              	.LVL122:
 904 0490 A872     		strb	r0, [r5, #10]
 905              		.loc 1 268 0
 906 0492 2E22     		movs	r2, #46
 907 0494 1146     		mov	r1, r2
 908 0496 2046     		mov	r0, r4
 909 0498 FFF7FEFF 		bl	_mmcsd_get_slice
 910              	.LVL123:
ARM GAS  C:\Users\RAKIBU~1\AppData\Local\Temp\ccIj1WTc.s 			page 17


 911 049c E874     		strb	r0, [r5, #19]
 912              		.loc 1 269 0
 913 049e 2722     		movs	r2, #39
 914 04a0 2D21     		movs	r1, #45
 915 04a2 2046     		mov	r0, r4
 916 04a4 FFF7FEFF 		bl	_mmcsd_get_slice
 917              	.LVL124:
 918 04a8 2875     		strb	r0, [r5, #20]
 919              		.loc 1 270 0
 920 04aa 0A22     		movs	r2, #10
 921 04ac 0B21     		movs	r1, #11
 922 04ae 2046     		mov	r0, r4
 923 04b0 FFF7FEFF 		bl	_mmcsd_get_slice
 924              	.LVL125:
 925 04b4 A877     		strb	r0, [r5, #30]
 926              		.loc 1 271 0
 927 04b6 0F22     		movs	r2, #15
 928 04b8 1146     		mov	r1, r2
 929 04ba 2046     		mov	r0, r4
 930 04bc FFF7FEFF 		bl	_mmcsd_get_slice
 931              	.LVL126:
 932 04c0 A876     		strb	r0, [r5, #26]
 933              		.loc 1 272 0
 934 04c2 6822     		movs	r2, #104
 935 04c4 6F21     		movs	r1, #111
 936 04c6 2046     		mov	r0, r4
 937 04c8 FFF7FEFF 		bl	_mmcsd_get_slice
 938              	.LVL127:
 939 04cc A870     		strb	r0, [r5, #2]
 940              		.loc 1 273 0
 941 04ce 0D22     		movs	r2, #13
 942 04d0 1146     		mov	r1, r2
 943 04d2 2046     		mov	r0, r4
 944 04d4 FFF7FEFF 		bl	_mmcsd_get_slice
 945              	.LVL128:
 946 04d8 2877     		strb	r0, [r5, #28]
 947              		.loc 1 274 0
 948 04da 1A22     		movs	r2, #26
 949 04dc 1C21     		movs	r1, #28
 950 04de 2046     		mov	r0, r4
 951 04e0 FFF7FEFF 		bl	_mmcsd_get_slice
 952              	.LVL129:
 953 04e4 E875     		strb	r0, [r5, #23]
 954              		.loc 1 275 0
 955 04e6 5022     		movs	r2, #80
 956 04e8 5321     		movs	r1, #83
 957 04ea 2046     		mov	r0, r4
 958 04ec FFF7FEFF 		bl	_mmcsd_get_slice
 959              	.LVL130:
 960 04f0 A871     		strb	r0, [r5, #6]
 961              		.loc 1 276 0
 962 04f2 4F22     		movs	r2, #79
 963 04f4 1146     		mov	r1, r2
 964 04f6 2046     		mov	r0, r4
 965 04f8 FFF7FEFF 		bl	_mmcsd_get_slice
 966              	.LVL131:
 967 04fc E871     		strb	r0, [r5, #7]
ARM GAS  C:\Users\RAKIBU~1\AppData\Local\Temp\ccIj1WTc.s 			page 18


 968              		.loc 1 277 0
 969 04fe 4D22     		movs	r2, #77
 970 0500 1146     		mov	r1, r2
 971 0502 2046     		mov	r0, r4
 972 0504 FFF7FEFF 		bl	_mmcsd_get_slice
 973              	.LVL132:
 974 0508 6872     		strb	r0, [r5, #9]
 975              		.loc 1 278 0
 976 050a 7022     		movs	r2, #112
 977 050c 7721     		movs	r1, #119
 978 050e 2046     		mov	r0, r4
 979 0510 FFF7FEFF 		bl	_mmcsd_get_slice
 980              	.LVL133:
 981 0514 6870     		strb	r0, [r5, #1]
 982              		.loc 1 279 0
 983 0516 0C22     		movs	r2, #12
 984 0518 1146     		mov	r1, r2
 985 051a 2046     		mov	r0, r4
 986 051c FFF7FEFF 		bl	_mmcsd_get_slice
 987              	.LVL134:
 988 0520 6877     		strb	r0, [r5, #29]
 989              		.loc 1 280 0
 990 0522 6022     		movs	r2, #96
 991 0524 6721     		movs	r1, #103
 992 0526 2046     		mov	r0, r4
 993 0528 FFF7FEFF 		bl	_mmcsd_get_slice
 994              	.LVL135:
 995 052c E870     		strb	r0, [r5, #3]
 996              		.loc 1 281 0
 997 052e 1F22     		movs	r2, #31
 998 0530 1146     		mov	r1, r2
 999 0532 2046     		mov	r0, r4
 1000 0534 FFF7FEFF 		bl	_mmcsd_get_slice
 1001              	.LVL136:
 1002 0538 A875     		strb	r0, [r5, #22]
 1003              		.loc 1 282 0
 1004 053a 2022     		movs	r2, #32
 1005 053c 2621     		movs	r1, #38
 1006 053e 2046     		mov	r0, r4
 1007 0540 FFF7FEFF 		bl	_mmcsd_get_slice
 1008              	.LVL137:
 1009 0544 6875     		strb	r0, [r5, #21]
 1010              		.loc 1 283 0
 1011 0546 0C22     		movs	r2, #12
 1012 0548 1921     		movs	r1, #25
 1013 054a 2046     		mov	r0, r4
 1014 054c FFF7FEFF 		bl	_mmcsd_get_slice
 1015              	.LVL138:
 1016 0550 2876     		strb	r0, [r5, #24]
 1017              		.loc 1 284 0
 1018 0552 1522     		movs	r2, #21
 1019 0554 1146     		mov	r1, r2
 1020 0556 2046     		mov	r0, r4
 1021 0558 FFF7FEFF 		bl	_mmcsd_get_slice
 1022              	.LVL139:
 1023 055c 6876     		strb	r0, [r5, #25]
 1024              		.loc 1 285 0
ARM GAS  C:\Users\RAKIBU~1\AppData\Local\Temp\ccIj1WTc.s 			page 19


 1025 055e 4E22     		movs	r2, #78
 1026 0560 1146     		mov	r1, r2
 1027 0562 2046     		mov	r0, r4
 1028 0564 FFF7FEFF 		bl	_mmcsd_get_slice
 1029              	.LVL140:
 1030 0568 2872     		strb	r0, [r5, #8]
 1031              		.loc 1 286 0
 1032 056a 38BD     		pop	{r3, r4, r5, pc}
 1033              	.LVL141:
 1034              	.L48:
 1035              		.loc 1 258 0 discriminator 2
 1036 056c 0148     		ldr	r0, .L49
 1037              	.LVL142:
 1038 056e FFF7FEFF 		bl	chSysHalt
 1039              	.LVL143:
 1040 0572 63E7     		b	.L46
 1041              	.L50:
 1042              		.align	2
 1043              	.L49:
 1044 0574 88000000 		.word	.LANCHOR0+136
 1045              		.cfi_endproc
 1046              	.LFE334:
 1047              		.size	_mmcsd_unpack_csd_v10, .-_mmcsd_unpack_csd_v10
 1048              		.align	1
 1049 0578 AFF30080 		.p2align 4,,15
 1049      AFF30080 
 1050              		.global	_mmcsd_unpack_csd_v20
 1051              		.syntax unified
 1052              		.thumb
 1053              		.thumb_func
 1054              		.fpu softvfp
 1055              		.type	_mmcsd_unpack_csd_v20, %function
 1056              	_mmcsd_unpack_csd_v20:
 1057              	.LFB335:
 1058              		.loc 1 297 0
 1059              		.cfi_startproc
 1060              		@ args = 0, pretend = 0, frame = 0
 1061              		@ frame_needed = 0, uses_anonymous_args = 0
 1062              	.LVL144:
 1063 0580 38B5     		push	{r3, r4, r5, lr}
 1064              		.cfi_def_cfa_offset 16
 1065              		.cfi_offset 3, -16
 1066              		.cfi_offset 4, -12
 1067              		.cfi_offset 5, -8
 1068              		.cfi_offset 14, -4
 1069 0582 0D46     		mov	r5, r1
 1070              		.loc 1 300 0
 1071 0584 0446     		mov	r4, r0
 1072 0586 0028     		cmp	r0, #0
 1073 0588 00F09280 		beq	.L54
 1074              	.LVL145:
 1075              	.L52:
 1076              		.loc 1 302 0
 1077 058c 1834     		adds	r4, r4, #24
 1078              	.LVL146:
 1079              		.loc 1 303 0
 1080 058e 3022     		movs	r2, #48
ARM GAS  C:\Users\RAKIBU~1\AppData\Local\Temp\ccIj1WTc.s 			page 20


 1081 0590 4521     		movs	r1, #69
 1082 0592 2046     		mov	r0, r4
 1083 0594 FFF7FEFF 		bl	_mmcsd_get_slice
 1084              	.LVL147:
 1085 0598 E860     		str	r0, [r5, #12]
 1086              		.loc 1 304 0
 1087 059a 0122     		movs	r2, #1
 1088 059c 0721     		movs	r1, #7
 1089 059e 2046     		mov	r0, r4
 1090 05a0 FFF7FEFF 		bl	_mmcsd_get_slice
 1091              	.LVL148:
 1092 05a4 2877     		strb	r0, [r5, #28]
 1093              		.loc 1 305 0
 1094 05a6 5422     		movs	r2, #84
 1095 05a8 5F21     		movs	r1, #95
 1096 05aa 2046     		mov	r0, r4
 1097 05ac FFF7FEFF 		bl	_mmcsd_get_slice
 1098              	.LVL149:
 1099 05b0 A880     		strh	r0, [r5, #4]	@ movhi
 1100              		.loc 1 306 0
 1101 05b2 0E22     		movs	r2, #14
 1102 05b4 1146     		mov	r1, r2
 1103 05b6 2046     		mov	r0, r4
 1104 05b8 FFF7FEFF 		bl	_mmcsd_get_slice
 1105              	.LVL150:
 1106 05bc 2876     		strb	r0, [r5, #24]
 1107              		.loc 1 307 0
 1108 05be 7E22     		movs	r2, #126
 1109 05c0 7F21     		movs	r1, #127
 1110 05c2 2046     		mov	r0, r4
 1111 05c4 FFF7FEFF 		bl	_mmcsd_get_slice
 1112              	.LVL151:
 1113 05c8 2870     		strb	r0, [r5]
 1114              		.loc 1 308 0
 1115 05ca 4C22     		movs	r2, #76
 1116 05cc 1146     		mov	r1, r2
 1117 05ce 2046     		mov	r0, r4
 1118 05d0 FFF7FEFF 		bl	_mmcsd_get_slice
 1119              	.LVL152:
 1120 05d4 A872     		strb	r0, [r5, #10]
 1121              		.loc 1 309 0
 1122 05d6 2E22     		movs	r2, #46
 1123 05d8 1146     		mov	r1, r2
 1124 05da 2046     		mov	r0, r4
 1125 05dc FFF7FEFF 		bl	_mmcsd_get_slice
 1126              	.LVL153:
 1127 05e0 2874     		strb	r0, [r5, #16]
 1128              		.loc 1 310 0
 1129 05e2 0A22     		movs	r2, #10
 1130 05e4 0B21     		movs	r1, #11
 1131 05e6 2046     		mov	r0, r4
 1132 05e8 FFF7FEFF 		bl	_mmcsd_get_slice
 1133              	.LVL154:
 1134 05ec E876     		strb	r0, [r5, #27]
 1135              		.loc 1 311 0
 1136 05ee 0F22     		movs	r2, #15
 1137 05f0 1146     		mov	r1, r2
ARM GAS  C:\Users\RAKIBU~1\AppData\Local\Temp\ccIj1WTc.s 			page 21


 1138 05f2 2046     		mov	r0, r4
 1139 05f4 FFF7FEFF 		bl	_mmcsd_get_slice
 1140              	.LVL155:
 1141 05f8 E875     		strb	r0, [r5, #23]
 1142              		.loc 1 312 0
 1143 05fa 6822     		movs	r2, #104
 1144 05fc 6F21     		movs	r1, #111
 1145 05fe 2046     		mov	r0, r4
 1146 0600 FFF7FEFF 		bl	_mmcsd_get_slice
 1147              	.LVL156:
 1148 0604 A870     		strb	r0, [r5, #2]
 1149              		.loc 1 313 0
 1150 0606 0D22     		movs	r2, #13
 1151 0608 1146     		mov	r1, r2
 1152 060a 2046     		mov	r0, r4
 1153 060c FFF7FEFF 		bl	_mmcsd_get_slice
 1154              	.LVL157:
 1155 0610 6876     		strb	r0, [r5, #25]
 1156              		.loc 1 314 0
 1157 0612 1A22     		movs	r2, #26
 1158 0614 1C21     		movs	r1, #28
 1159 0616 2046     		mov	r0, r4
 1160 0618 FFF7FEFF 		bl	_mmcsd_get_slice
 1161              	.LVL158:
 1162 061c 2875     		strb	r0, [r5, #20]
 1163              		.loc 1 315 0
 1164 061e 5022     		movs	r2, #80
 1165 0620 5321     		movs	r1, #83
 1166 0622 2046     		mov	r0, r4
 1167 0624 FFF7FEFF 		bl	_mmcsd_get_slice
 1168              	.LVL159:
 1169 0628 A871     		strb	r0, [r5, #6]
 1170              		.loc 1 316 0
 1171 062a 4F22     		movs	r2, #79
 1172 062c 1146     		mov	r1, r2
 1173 062e 2046     		mov	r0, r4
 1174 0630 FFF7FEFF 		bl	_mmcsd_get_slice
 1175              	.LVL160:
 1176 0634 E871     		strb	r0, [r5, #7]
 1177              		.loc 1 317 0
 1178 0636 4D22     		movs	r2, #77
 1179 0638 1146     		mov	r1, r2
 1180 063a 2046     		mov	r0, r4
 1181 063c FFF7FEFF 		bl	_mmcsd_get_slice
 1182              	.LVL161:
 1183 0640 6872     		strb	r0, [r5, #9]
 1184              		.loc 1 318 0
 1185 0642 2722     		movs	r2, #39
 1186 0644 2D21     		movs	r1, #45
 1187 0646 2046     		mov	r0, r4
 1188 0648 FFF7FEFF 		bl	_mmcsd_get_slice
 1189              	.LVL162:
 1190 064c 6874     		strb	r0, [r5, #17]
 1191              		.loc 1 319 0
 1192 064e 7022     		movs	r2, #112
 1193 0650 7721     		movs	r1, #119
 1194 0652 2046     		mov	r0, r4
ARM GAS  C:\Users\RAKIBU~1\AppData\Local\Temp\ccIj1WTc.s 			page 22


 1195 0654 FFF7FEFF 		bl	_mmcsd_get_slice
 1196              	.LVL163:
 1197 0658 6870     		strb	r0, [r5, #1]
 1198              		.loc 1 320 0
 1199 065a 0C22     		movs	r2, #12
 1200 065c 1146     		mov	r1, r2
 1201 065e 2046     		mov	r0, r4
 1202 0660 FFF7FEFF 		bl	_mmcsd_get_slice
 1203              	.LVL164:
 1204 0664 A876     		strb	r0, [r5, #26]
 1205              		.loc 1 321 0
 1206 0666 6022     		movs	r2, #96
 1207 0668 6721     		movs	r1, #103
 1208 066a 2046     		mov	r0, r4
 1209 066c FFF7FEFF 		bl	_mmcsd_get_slice
 1210              	.LVL165:
 1211 0670 E870     		strb	r0, [r5, #3]
 1212              		.loc 1 322 0
 1213 0672 1F22     		movs	r2, #31
 1214 0674 1146     		mov	r1, r2
 1215 0676 2046     		mov	r0, r4
 1216 0678 FFF7FEFF 		bl	_mmcsd_get_slice
 1217              	.LVL166:
 1218 067c E874     		strb	r0, [r5, #19]
 1219              		.loc 1 323 0
 1220 067e 2022     		movs	r2, #32
 1221 0680 2621     		movs	r1, #38
 1222 0682 2046     		mov	r0, r4
 1223 0684 FFF7FEFF 		bl	_mmcsd_get_slice
 1224              	.LVL167:
 1225 0688 A874     		strb	r0, [r5, #18]
 1226              		.loc 1 324 0
 1227 068a 0C22     		movs	r2, #12
 1228 068c 1921     		movs	r1, #25
 1229 068e 2046     		mov	r0, r4
 1230 0690 FFF7FEFF 		bl	_mmcsd_get_slice
 1231              	.LVL168:
 1232 0694 6875     		strb	r0, [r5, #21]
 1233              		.loc 1 325 0
 1234 0696 1522     		movs	r2, #21
 1235 0698 1146     		mov	r1, r2
 1236 069a 2046     		mov	r0, r4
 1237 069c FFF7FEFF 		bl	_mmcsd_get_slice
 1238              	.LVL169:
 1239 06a0 A875     		strb	r0, [r5, #22]
 1240              		.loc 1 326 0
 1241 06a2 4E22     		movs	r2, #78
 1242 06a4 1146     		mov	r1, r2
 1243 06a6 2046     		mov	r0, r4
 1244 06a8 FFF7FEFF 		bl	_mmcsd_get_slice
 1245              	.LVL170:
 1246 06ac 2872     		strb	r0, [r5, #8]
 1247              		.loc 1 327 0
 1248 06ae 38BD     		pop	{r3, r4, r5, pc}
 1249              	.LVL171:
 1250              	.L54:
 1251              		.loc 1 300 0 discriminator 2
ARM GAS  C:\Users\RAKIBU~1\AppData\Local\Temp\ccIj1WTc.s 			page 23


 1252 06b0 0148     		ldr	r0, .L55
 1253              	.LVL172:
 1254 06b2 FFF7FEFF 		bl	chSysHalt
 1255              	.LVL173:
 1256 06b6 69E7     		b	.L52
 1257              	.L56:
 1258              		.align	2
 1259              	.L55:
 1260 06b8 A0000000 		.word	.LANCHOR0+160
 1261              		.cfi_endproc
 1262              	.LFE335:
 1263              		.size	_mmcsd_unpack_csd_v20, .-_mmcsd_unpack_csd_v20
 1264              		.section	.rodata
 1265              		.align	2
 1266              		.set	.LANCHOR0,. + 0
 1267              		.type	__func__.8973, %object
 1268              		.size	__func__.8973, 17
 1269              	__func__.8973:
 1270 0000 5F6D6D63 		.ascii	"_mmcsd_get_slice\000"
 1270      73645F67 
 1270      65745F73 
 1270      6C696365 
 1270      00
 1271 0011 000000   		.space	3
 1272              		.type	__func__.8980, %object
 1273              		.size	__func__.8980, 20
 1274              	__func__.8980:
 1275 0014 5F6D6D63 		.ascii	"_mmcsd_get_capacity\000"
 1275      73645F67 
 1275      65745F63 
 1275      61706163 
 1275      69747900 
 1276              		.type	__func__.8988, %object
 1277              		.size	__func__.8988, 24
 1278              	__func__.8988:
 1279 0028 5F6D6D63 		.ascii	"_mmcsd_get_capacity_ext\000"
 1279      73645F67 
 1279      65745F63 
 1279      61706163 
 1279      6974795F 
 1280              		.type	__func__.8994, %object
 1281              		.size	__func__.8994, 22
 1282              	__func__.8994:
 1283 0040 5F6D6D63 		.ascii	"_mmcsd_unpack_sdc_cid\000"
 1283      73645F75 
 1283      6E706163 
 1283      6B5F7364 
 1283      635F6369 
 1284 0056 0000     		.space	2
 1285              		.type	__func__.9000, %object
 1286              		.size	__func__.9000, 22
 1287              	__func__.9000:
 1288 0058 5F6D6D63 		.ascii	"_mmcsd_unpack_mmc_cid\000"
 1288      73645F75 
 1288      6E706163 
 1288      6B5F6D6D 
 1288      635F6369 
ARM GAS  C:\Users\RAKIBU~1\AppData\Local\Temp\ccIj1WTc.s 			page 24


 1289 006e 0000     		.space	2
 1290              		.type	__func__.9006, %object
 1291              		.size	__func__.9006, 22
 1292              	__func__.9006:
 1293 0070 5F6D6D63 		.ascii	"_mmcsd_unpack_csd_mmc\000"
 1293      73645F75 
 1293      6E706163 
 1293      6B5F6373 
 1293      645F6D6D 
 1294 0086 0000     		.space	2
 1295              		.type	__func__.9012, %object
 1296              		.size	__func__.9012, 22
 1297              	__func__.9012:
 1298 0088 5F6D6D63 		.ascii	"_mmcsd_unpack_csd_v10\000"
 1298      73645F75 
 1298      6E706163 
 1298      6B5F6373 
 1298      645F7631 
 1299 009e 0000     		.space	2
 1300              		.type	__func__.9018, %object
 1301              		.size	__func__.9018, 22
 1302              	__func__.9018:
 1303 00a0 5F6D6D63 		.ascii	"_mmcsd_unpack_csd_v20\000"
 1303      73645F75 
 1303      6E706163 
 1303      6B5F6373 
 1303      645F7632 
 1304              		.text
 1305              	.Letext0:
 1306              		.file 2 "c:\\chibistudio\\tools\\gnu tools arm embedded\\7.0 2017q4\\lib\\gcc\\arm-none-eabi\\7.2.
 1307              		.file 3 "c:\\chibistudio\\tools\\gnu tools arm embedded\\7.0 2017q4\\arm-none-eabi\\include\\machi
 1308              		.file 4 "c:\\chibistudio\\tools\\gnu tools arm embedded\\7.0 2017q4\\arm-none-eabi\\include\\sys\\
 1309              		.file 5 "c:\\chibistudio\\tools\\gnu tools arm embedded\\7.0 2017q4\\arm-none-eabi\\include\\stdin
 1310              		.file 6 "../../../ChibiOSRepo/chibios191/os/common/ports/ARMCMx/compilers/GCC/chtypes.h"
 1311              		.file 7 "../../../ChibiOSRepo/chibios191/os/rt/include/chsystypes.h"
 1312              		.file 8 "../../../ChibiOSRepo/chibios191/os/rt/include/chschd.h"
 1313              		.file 9 "../../../ChibiOSRepo/chibios191/os/rt/include/chtime.h"
 1314              		.file 10 "../../../ChibiOSRepo/chibios191/os/common/ext/ARM/CMSIS/Core/Include/core_cm4.h"
 1315              		.file 11 "../../../ChibiOSRepo/chibios191/os/common/ext/ST/STM32F4xx/system_stm32f4xx.h"
 1316              		.file 12 "../../../ChibiOSRepo/chibios191/os/common/ext/ST/STM32F4xx/stm32f407xx.h"
 1317              		.file 13 "../../../ChibiOSRepo/chibios191/os/common/ports/ARMCMx/chcore.h"
 1318              		.file 14 "../../../ChibiOSRepo/chibios191/os/common/ports/ARMCMx/chcore_v7m.h"
 1319              		.file 15 "../../../ChibiOSRepo/chibios191/os/hal/ports/STM32/LLD/TIMv1/stm32_tim.h"
 1320              		.file 16 "../../../ChibiOSRepo/chibios191/os/rt/include/chtrace.h"
 1321              		.file 17 "../../../ChibiOSRepo/chibios191/os/rt/include/chtm.h"
 1322              		.file 18 "../../../ChibiOSRepo/chibios191/os/rt/include/chstats.h"
 1323              		.file 19 "../../../ChibiOSRepo/chibios191/os/rt/include/chsem.h"
 1324              		.file 20 "../../../ChibiOSRepo/chibios191/os/rt/include/chmtx.h"
 1325              		.file 21 "../../../ChibiOSRepo/chibios191/os/rt/include/chsys.h"
 1326              		.file 22 "../../../ChibiOSRepo/chibios191/os/rt/include/chregistry.h"
 1327              		.file 23 "../../../ChibiOSRepo/chibios191/os/rt/include/chevents.h"
 1328              		.file 24 "../../../ChibiOSRepo/chibios191/os/oslib/include/chmemcore.h"
 1329              		.file 25 "../../../ChibiOSRepo/chibios191/os/oslib/include/chmempools.h"
 1330              		.file 26 "../../../ChibiOSRepo/chibios191/os/oslib/include/chfactory.h"
 1331              		.file 27 "../../../ChibiOSRepo/chibios191/os/hal/ports/STM32/LLD/DMAv2/stm32_dma.h"
 1332              		.file 28 "../../../ChibiOSRepo/chibios191/os/hal/include/hal_ioblock.h"
 1333              		.file 29 "../../../ChibiOSRepo/chibios191/os/hal/include/hal_mmcsd.h"
ARM GAS  C:\Users\RAKIBU~1\AppData\Local\Temp\ccIj1WTc.s 			page 25


 1334              		.file 30 "../../../ChibiOSRepo/chibios191/os/hal/include/hal_persistent.h"
 1335              		.file 31 "../../../ChibiOSRepo/chibios191/os/hal/include/hal_queues.h"
 1336              		.file 32 "../../../ChibiOSRepo/chibios191/os/hal/include/hal_pal.h"
 1337              		.file 33 "../../../ChibiOSRepo/chibios191/os/hal/ports/STM32/LLD/GPIOv2/stm32_gpio.h"
 1338              		.file 34 "../../../ChibiOSRepo/chibios191/os/hal/ports/STM32/LLD/GPIOv2/hal_pal_lld.h"
 1339              		.file 35 "../../../ChibiOSRepo/chibios191/os/hal/include/hal_gpt.h"
 1340              		.file 36 "../../../ChibiOSRepo/chibios191/os/hal/ports/STM32/LLD/TIMv1/hal_gpt_lld.h"
 1341              		.file 37 "../../../ChibiOSRepo/chibios191/os/hal/include/hal_i2c.h"
 1342              		.file 38 "../../../ChibiOSRepo/chibios191/os/hal/ports/STM32/LLD/I2Cv1/hal_i2c_lld.h"
 1343              		.file 39 "c:\\chibistudio\\tools\\gnu tools arm embedded\\7.0 2017q4\\arm-none-eabi\\include\\sys\
 1344              		.file 40 "c:\\chibistudio\\tools\\gnu tools arm embedded\\7.0 2017q4\\arm-none-eabi\\include\\sys\
 1345              		.file 41 "c:\\chibistudio\\tools\\gnu tools arm embedded\\7.0 2017q4\\arm-none-eabi\\include\\sys\
 1346              		.file 42 "c:\\chibistudio\\tools\\gnu tools arm embedded\\7.0 2017q4\\arm-none-eabi\\include\\time
 1347              		.file 43 "../../../ChibiOSRepo/chibios191/os/hal/include/hal_rtc.h"
 1348              		.file 44 "../../../ChibiOSRepo/chibios191/os/hal/ports/STM32/LLD/RTCv2/hal_rtc_lld.h"
 1349              		.file 45 "../../../ChibiOSRepo/chibios191/os/hal/include/hal_serial.h"
 1350              		.file 46 "../../../ChibiOSRepo/chibios191/os/hal/ports/STM32/LLD/USARTv1/hal_serial_lld.h"
 1351              		.file 47 "../../../ChibiOSRepo/chibios191/os/hal/include/hal_sdc.h"
 1352              		.file 48 "../../../ChibiOSRepo/chibios191/os/hal/ports/STM32/LLD/SDIOv1/hal_sdc_lld.h"
 1353              		.file 49 "../../../ChibiOSRepo/chibios191/os/hal/include/hal_spi.h"
 1354              		.file 50 "../../../ChibiOSRepo/chibios191/os/hal/ports/STM32/LLD/SPIv1/hal_spi_lld.h"
 1355              		.file 51 "../../../ChibiOSRepo/chibios191/os/rt/include/ch.h"