ARM GAS  C:\Users\RAKIBU~1\AppData\Local\Temp\ccYLMMhd.s 			page 1


   1              		.cpu cortex-m4
   2              		.eabi_attribute 20, 1
   3              		.eabi_attribute 21, 1
   4              		.eabi_attribute 23, 3
   5              		.eabi_attribute 24, 1
   6              		.eabi_attribute 25, 1
   7              		.eabi_attribute 26, 1
   8              		.eabi_attribute 30, 1
   9              		.eabi_attribute 34, 1
  10              		.eabi_attribute 18, 4
  11              		.file	"hal_gpt.c"
  12              		.text
  13              	.Ltext0:
  14              		.cfi_sections	.debug_frame
  15              		.align	1
  16              		.p2align 4,,15
  17              		.global	gptInit
  18              		.syntax unified
  19              		.thumb
  20              		.thumb_func
  21              		.fpu softvfp
  22              		.type	gptInit, %function
  23              	gptInit:
  24              	.LFB328:
  25              		.file 1 "../../../ChibiOSRepo/chibios191/os/hal/src/hal_gpt.c"
  26              		.loc 1 56 0
  27              		.cfi_startproc
  28              		@ args = 0, pretend = 0, frame = 0
  29              		@ frame_needed = 0, uses_anonymous_args = 0
  30 0000 08B5     		push	{r3, lr}
  31              		.cfi_def_cfa_offset 8
  32              		.cfi_offset 3, -8
  33              		.cfi_offset 14, -4
  34              		.loc 1 58 0
  35 0002 FFF7FEFF 		bl	gpt_lld_init
  36              	.LVL0:
  37              		.loc 1 59 0
  38 0006 08BD     		pop	{r3, pc}
  39              		.cfi_endproc
  40              	.LFE328:
  41              		.size	gptInit, .-gptInit
  42              		.align	1
  43 0008 AFF30080 		.p2align 4,,15
  43      AFF30080 
  44              		.global	gptObjectInit
  45              		.syntax unified
  46              		.thumb
  47              		.thumb_func
  48              		.fpu softvfp
  49              		.type	gptObjectInit, %function
  50              	gptObjectInit:
  51              	.LFB329:
  52              		.loc 1 68 0
  53              		.cfi_startproc
  54              		@ args = 0, pretend = 0, frame = 0
  55              		@ frame_needed = 0, uses_anonymous_args = 0
  56              		@ link register save eliminated.
ARM GAS  C:\Users\RAKIBU~1\AppData\Local\Temp\ccYLMMhd.s 			page 2


  57              	.LVL1:
  58              		.loc 1 70 0
  59 0010 0123     		movs	r3, #1
  60 0012 0370     		strb	r3, [r0]
  61              		.loc 1 71 0
  62 0014 0023     		movs	r3, #0
  63 0016 4360     		str	r3, [r0, #4]
  64              		.loc 1 72 0
  65 0018 7047     		bx	lr
  66              		.cfi_endproc
  67              	.LFE329:
  68              		.size	gptObjectInit, .-gptObjectInit
  69              		.align	1
  70 001a 00BFAFF3 		.p2align 4,,15
  70      0080
  71              		.global	gptStart
  72              		.syntax unified
  73              		.thumb
  74              		.thumb_func
  75              		.fpu softvfp
  76              		.type	gptStart, %function
  77              	gptStart:
  78              	.LFB330:
  79              		.loc 1 82 0
  80              		.cfi_startproc
  81              		@ args = 0, pretend = 0, frame = 0
  82              		@ frame_needed = 0, uses_anonymous_args = 0
  83              	.LVL2:
  84 0020 38B5     		push	{r3, r4, r5, lr}
  85              		.cfi_def_cfa_offset 16
  86              		.cfi_offset 3, -16
  87              		.cfi_offset 4, -12
  88              		.cfi_offset 5, -8
  89              		.cfi_offset 14, -4
  90 0022 0D46     		mov	r5, r1
  91              		.loc 1 84 0
  92 0024 0446     		mov	r4, r0
  93 0026 30B3     		cbz	r0, .L5
  94              		.loc 1 84 0 is_stmt 0 discriminator 3
  95 0028 29B3     		cbz	r1, .L5
  96              	.LVL3:
  97              	.L6:
  98              	.LBB86:
  99              	.LBB87:
 100              	.LBB88:
 101              	.LBB89:
 102              	.LBB90:
 103              	.LBB91:
 104              		.file 2 "../../../ChibiOSRepo/chibios191/os/common/ext/ARM/CMSIS/Core/Include/cmsis_gcc.h"
 105              		.loc 2 493 0 is_stmt 1
 106 002a 2023     		movs	r3, #32
 107              		.syntax unified
 108              	@ 493 "../../../ChibiOSRepo/chibios191/os/common/ext/ARM/CMSIS/Core/Include/cmsis_gcc.h" 1
 109 002c 83F31188 		MSR basepri, r3
 110              	@ 0 "" 2
 111              	.LVL4:
 112              		.thumb
ARM GAS  C:\Users\RAKIBU~1\AppData\Local\Temp\ccYLMMhd.s 			page 3


 113              		.syntax unified
 114              	.LBE91:
 115              	.LBE90:
 116              	.LBE89:
 117              		.file 3 "../../../ChibiOSRepo/chibios191/os/rt/include/chsys.h"
 118              		.loc 3 356 0
 119 0030 FFF7FEFF 		bl	_stats_start_measure_crit_thd
 120              	.LVL5:
 121              		.loc 3 357 0
 122 0034 FFF7FEFF 		bl	_dbg_check_lock
 123              	.LVL6:
 124              	.LBE88:
 125              	.LBE87:
 126              	.LBE86:
 127              		.loc 1 87 0
 128 0038 2378     		ldrb	r3, [r4]	@ zero_extendqisi2
 129 003a 013B     		subs	r3, r3, #1
 130 003c DBB2     		uxtb	r3, r3
 131 003e 012B     		cmp	r3, #1
 132 0040 02D9     		bls	.L7
 133              		.loc 1 87 0 is_stmt 0 discriminator 2
 134 0042 1148     		ldr	r0, .L11
 135 0044 FFF7FEFF 		bl	chSysHalt
 136              	.LVL7:
 137              	.L7:
 138              		.loc 1 89 0 is_stmt 1
 139 0048 6560     		str	r5, [r4, #4]
 140              		.loc 1 90 0
 141 004a 2046     		mov	r0, r4
 142 004c FFF7FEFF 		bl	gpt_lld_start
 143              	.LVL8:
 144              		.loc 1 91 0
 145 0050 0223     		movs	r3, #2
 146 0052 2370     		strb	r3, [r4]
 147              	.LBB92:
 148              	.LBB93:
 149              	.LBB94:
 150              		.loc 3 367 0
 151 0054 FFF7FEFF 		bl	_dbg_check_unlock
 152              	.LVL9:
 153              		.loc 3 368 0
 154 0058 FFF7FEFF 		bl	_stats_stop_measure_crit_thd
 155              	.LVL10:
 156              		.loc 3 374 0
 157 005c 0B4B     		ldr	r3, .L11+4
 158 005e 1A68     		ldr	r2, [r3]
 159 0060 9A42     		cmp	r2, r3
 160 0062 04D0     		beq	.L8
 161 0064 9B69     		ldr	r3, [r3, #24]
 162 0066 9968     		ldr	r1, [r3, #8]
 163 0068 9368     		ldr	r3, [r2, #8]
 164 006a 9942     		cmp	r1, r3
 165 006c 07D3     		bcc	.L10
 166              	.L8:
 167              	.LVL11:
 168              	.LBB95:
 169              	.LBB96:
ARM GAS  C:\Users\RAKIBU~1\AppData\Local\Temp\ccYLMMhd.s 			page 4


 170              	.LBB97:
 171              		.loc 2 493 0
 172 006e 0023     		movs	r3, #0
 173              		.syntax unified
 174              	@ 493 "../../../ChibiOSRepo/chibios191/os/common/ext/ARM/CMSIS/Core/Include/cmsis_gcc.h" 1
 175 0070 83F31188 		MSR basepri, r3
 176              	@ 0 "" 2
 177              	.LVL12:
 178              		.thumb
 179              		.syntax unified
 180              	.LBE97:
 181              	.LBE96:
 182              	.LBE95:
 183              	.LBE94:
 184              	.LBE93:
 185              	.LBE92:
 186              		.loc 1 93 0
 187 0074 38BD     		pop	{r3, r4, r5, pc}
 188              	.LVL13:
 189              	.L5:
 190              		.loc 1 84 0 discriminator 4
 191 0076 0448     		ldr	r0, .L11
 192              	.LVL14:
 193 0078 FFF7FEFF 		bl	chSysHalt
 194              	.LVL15:
 195 007c D5E7     		b	.L6
 196              	.L10:
 197              	.LBB100:
 198              	.LBB99:
 199              	.LBB98:
 200              		.loc 3 374 0
 201 007e 0448     		ldr	r0, .L11+8
 202 0080 FFF7FEFF 		bl	chSysHalt
 203              	.LVL16:
 204 0084 F3E7     		b	.L8
 205              	.L12:
 206 0086 00BF     		.align	2
 207              	.L11:
 208 0088 00000000 		.word	.LANCHOR0
 209 008c 00000000 		.word	ch
 210 0090 0C000000 		.word	.LANCHOR0+12
 211              	.LBE98:
 212              	.LBE99:
 213              	.LBE100:
 214              		.cfi_endproc
 215              	.LFE330:
 216              		.size	gptStart, .-gptStart
 217              		.align	1
 218 0094 AFF30080 		.p2align 4,,15
 218      AFF30080 
 218      AFF30080 
 219              		.global	gptStop
 220              		.syntax unified
 221              		.thumb
 222              		.thumb_func
 223              		.fpu softvfp
 224              		.type	gptStop, %function
ARM GAS  C:\Users\RAKIBU~1\AppData\Local\Temp\ccYLMMhd.s 			page 5


 225              	gptStop:
 226              	.LFB331:
 227              		.loc 1 102 0
 228              		.cfi_startproc
 229              		@ args = 0, pretend = 0, frame = 0
 230              		@ frame_needed = 0, uses_anonymous_args = 0
 231              	.LVL17:
 232 00a0 10B5     		push	{r4, lr}
 233              		.cfi_def_cfa_offset 8
 234              		.cfi_offset 4, -8
 235              		.cfi_offset 14, -4
 236              		.loc 1 104 0
 237 00a2 0446     		mov	r4, r0
 238 00a4 30B3     		cbz	r0, .L18
 239              	.LVL18:
 240              	.L14:
 241              	.LBB114:
 242              	.LBB115:
 243              	.LBB116:
 244              	.LBB117:
 245              	.LBB118:
 246              	.LBB119:
 247              		.loc 2 493 0
 248 00a6 2023     		movs	r3, #32
 249              		.syntax unified
 250              	@ 493 "../../../ChibiOSRepo/chibios191/os/common/ext/ARM/CMSIS/Core/Include/cmsis_gcc.h" 1
 251 00a8 83F31188 		MSR basepri, r3
 252              	@ 0 "" 2
 253              	.LVL19:
 254              		.thumb
 255              		.syntax unified
 256              	.LBE119:
 257              	.LBE118:
 258              	.LBE117:
 259              		.loc 3 356 0
 260 00ac FFF7FEFF 		bl	_stats_start_measure_crit_thd
 261              	.LVL20:
 262              		.loc 3 357 0
 263 00b0 FFF7FEFF 		bl	_dbg_check_lock
 264              	.LVL21:
 265              	.LBE116:
 266              	.LBE115:
 267              	.LBE114:
 268              		.loc 1 108 0
 269 00b4 2378     		ldrb	r3, [r4]	@ zero_extendqisi2
 270 00b6 013B     		subs	r3, r3, #1
 271 00b8 DBB2     		uxtb	r3, r3
 272 00ba 012B     		cmp	r3, #1
 273 00bc 02D9     		bls	.L15
 274              		.loc 1 108 0 is_stmt 0 discriminator 2
 275 00be 1148     		ldr	r0, .L20
 276 00c0 FFF7FEFF 		bl	chSysHalt
 277              	.LVL22:
 278              	.L15:
 279              		.loc 1 111 0 is_stmt 1
 280 00c4 2046     		mov	r0, r4
 281 00c6 FFF7FEFF 		bl	gpt_lld_stop
ARM GAS  C:\Users\RAKIBU~1\AppData\Local\Temp\ccYLMMhd.s 			page 6


 282              	.LVL23:
 283              		.loc 1 112 0
 284 00ca 0023     		movs	r3, #0
 285 00cc 6360     		str	r3, [r4, #4]
 286              		.loc 1 113 0
 287 00ce 0123     		movs	r3, #1
 288 00d0 2370     		strb	r3, [r4]
 289              	.LBB120:
 290              	.LBB121:
 291              	.LBB122:
 292              		.loc 3 367 0
 293 00d2 FFF7FEFF 		bl	_dbg_check_unlock
 294              	.LVL24:
 295              		.loc 3 368 0
 296 00d6 FFF7FEFF 		bl	_stats_stop_measure_crit_thd
 297              	.LVL25:
 298              		.loc 3 374 0
 299 00da 0B4B     		ldr	r3, .L20+4
 300 00dc 1A68     		ldr	r2, [r3]
 301 00de 9A42     		cmp	r2, r3
 302 00e0 04D0     		beq	.L16
 303 00e2 9B69     		ldr	r3, [r3, #24]
 304 00e4 9968     		ldr	r1, [r3, #8]
 305 00e6 9368     		ldr	r3, [r2, #8]
 306 00e8 9942     		cmp	r1, r3
 307 00ea 07D3     		bcc	.L19
 308              	.L16:
 309              	.LVL26:
 310              	.LBB123:
 311              	.LBB124:
 312              	.LBB125:
 313              		.loc 2 493 0
 314 00ec 0023     		movs	r3, #0
 315              		.syntax unified
 316              	@ 493 "../../../ChibiOSRepo/chibios191/os/common/ext/ARM/CMSIS/Core/Include/cmsis_gcc.h" 1
 317 00ee 83F31188 		MSR basepri, r3
 318              	@ 0 "" 2
 319              	.LVL27:
 320              		.thumb
 321              		.syntax unified
 322              	.LBE125:
 323              	.LBE124:
 324              	.LBE123:
 325              	.LBE122:
 326              	.LBE121:
 327              	.LBE120:
 328              		.loc 1 116 0
 329 00f2 10BD     		pop	{r4, pc}
 330              	.LVL28:
 331              	.L18:
 332              		.loc 1 104 0 discriminator 2
 333 00f4 0348     		ldr	r0, .L20
 334              	.LVL29:
 335 00f6 FFF7FEFF 		bl	chSysHalt
 336              	.LVL30:
 337 00fa D4E7     		b	.L14
 338              	.L19:
ARM GAS  C:\Users\RAKIBU~1\AppData\Local\Temp\ccYLMMhd.s 			page 7


 339              	.LBB128:
 340              	.LBB127:
 341              	.LBB126:
 342              		.loc 3 374 0
 343 00fc 0348     		ldr	r0, .L20+8
 344 00fe FFF7FEFF 		bl	chSysHalt
 345              	.LVL31:
 346 0102 F3E7     		b	.L16
 347              	.L21:
 348              		.align	2
 349              	.L20:
 350 0104 18000000 		.word	.LANCHOR0+24
 351 0108 00000000 		.word	ch
 352 010c 0C000000 		.word	.LANCHOR0+12
 353              	.LBE126:
 354              	.LBE127:
 355              	.LBE128:
 356              		.cfi_endproc
 357              	.LFE331:
 358              		.size	gptStop, .-gptStop
 359              		.align	1
 360              		.p2align 4,,15
 361              		.global	gptChangeInterval
 362              		.syntax unified
 363              		.thumb
 364              		.thumb_func
 365              		.fpu softvfp
 366              		.type	gptChangeInterval, %function
 367              	gptChangeInterval:
 368              	.LFB332:
 369              		.loc 1 129 0
 370              		.cfi_startproc
 371              		@ args = 0, pretend = 0, frame = 0
 372              		@ frame_needed = 0, uses_anonymous_args = 0
 373              	.LVL32:
 374 0110 38B5     		push	{r3, r4, r5, lr}
 375              		.cfi_def_cfa_offset 16
 376              		.cfi_offset 3, -16
 377              		.cfi_offset 4, -12
 378              		.cfi_offset 5, -8
 379              		.cfi_offset 14, -4
 380 0112 0C46     		mov	r4, r1
 381              		.loc 1 131 0
 382 0114 0546     		mov	r5, r0
 383 0116 00B3     		cbz	r0, .L27
 384              	.LVL33:
 385              	.L23:
 386              	.LBB142:
 387              	.LBB143:
 388              	.LBB144:
 389              	.LBB145:
 390              	.LBB146:
 391              	.LBB147:
 392              		.loc 2 493 0
 393 0118 2023     		movs	r3, #32
 394              		.syntax unified
 395              	@ 493 "../../../ChibiOSRepo/chibios191/os/common/ext/ARM/CMSIS/Core/Include/cmsis_gcc.h" 1
ARM GAS  C:\Users\RAKIBU~1\AppData\Local\Temp\ccYLMMhd.s 			page 8


 396 011a 83F31188 		MSR basepri, r3
 397              	@ 0 "" 2
 398              	.LVL34:
 399              		.thumb
 400              		.syntax unified
 401              	.LBE147:
 402              	.LBE146:
 403              	.LBE145:
 404              		.loc 3 356 0
 405 011e FFF7FEFF 		bl	_stats_start_measure_crit_thd
 406              	.LVL35:
 407              		.loc 3 357 0
 408 0122 FFF7FEFF 		bl	_dbg_check_lock
 409              	.LVL36:
 410              	.LBE144:
 411              	.LBE143:
 412              	.LBE142:
 413              		.loc 1 134 0
 414 0126 2B78     		ldrb	r3, [r5]	@ zero_extendqisi2
 415 0128 032B     		cmp	r3, #3
 416 012a 02D0     		beq	.L24
 417              		.loc 1 134 0 is_stmt 0 discriminator 2
 418 012c 0F48     		ldr	r0, .L29
 419 012e FFF7FEFF 		bl	chSysHalt
 420              	.LVL37:
 421              	.L24:
 422              		.loc 1 136 0 is_stmt 1
 423 0132 EB68     		ldr	r3, [r5, #12]
 424 0134 013C     		subs	r4, r4, #1
 425              	.LVL38:
 426 0136 DC62     		str	r4, [r3, #44]
 427              	.LBB148:
 428              	.LBB149:
 429              	.LBB150:
 430              		.loc 3 367 0
 431 0138 FFF7FEFF 		bl	_dbg_check_unlock
 432              	.LVL39:
 433              		.loc 3 368 0
 434 013c FFF7FEFF 		bl	_stats_stop_measure_crit_thd
 435              	.LVL40:
 436              		.loc 3 374 0
 437 0140 0B4B     		ldr	r3, .L29+4
 438 0142 1A68     		ldr	r2, [r3]
 439 0144 9A42     		cmp	r2, r3
 440 0146 04D0     		beq	.L25
 441 0148 9B69     		ldr	r3, [r3, #24]
 442 014a 9968     		ldr	r1, [r3, #8]
 443 014c 9368     		ldr	r3, [r2, #8]
 444 014e 9942     		cmp	r1, r3
 445 0150 07D3     		bcc	.L28
 446              	.L25:
 447              	.LVL41:
 448              	.LBB151:
 449              	.LBB152:
 450              	.LBB153:
 451              		.loc 2 493 0
 452 0152 0023     		movs	r3, #0
ARM GAS  C:\Users\RAKIBU~1\AppData\Local\Temp\ccYLMMhd.s 			page 9


 453              		.syntax unified
 454              	@ 493 "../../../ChibiOSRepo/chibios191/os/common/ext/ARM/CMSIS/Core/Include/cmsis_gcc.h" 1
 455 0154 83F31188 		MSR basepri, r3
 456              	@ 0 "" 2
 457              	.LVL42:
 458              		.thumb
 459              		.syntax unified
 460              	.LBE153:
 461              	.LBE152:
 462              	.LBE151:
 463              	.LBE150:
 464              	.LBE149:
 465              	.LBE148:
 466              		.loc 1 138 0
 467 0158 38BD     		pop	{r3, r4, r5, pc}
 468              	.LVL43:
 469              	.L27:
 470              		.loc 1 131 0 discriminator 2
 471 015a 0448     		ldr	r0, .L29
 472              	.LVL44:
 473 015c FFF7FEFF 		bl	chSysHalt
 474              	.LVL45:
 475 0160 DAE7     		b	.L23
 476              	.LVL46:
 477              	.L28:
 478              	.LBB156:
 479              	.LBB155:
 480              	.LBB154:
 481              		.loc 3 374 0
 482 0162 0448     		ldr	r0, .L29+8
 483 0164 FFF7FEFF 		bl	chSysHalt
 484              	.LVL47:
 485 0168 F3E7     		b	.L25
 486              	.L30:
 487 016a 00BF     		.align	2
 488              	.L29:
 489 016c 20000000 		.word	.LANCHOR0+32
 490 0170 00000000 		.word	ch
 491 0174 0C000000 		.word	.LANCHOR0+12
 492              	.LBE154:
 493              	.LBE155:
 494              	.LBE156:
 495              		.cfi_endproc
 496              	.LFE332:
 497              		.size	gptChangeInterval, .-gptChangeInterval
 498              		.align	1
 499 0178 AFF30080 		.p2align 4,,15
 499      AFF30080 
 500              		.global	gptStartContinuousI
 501              		.syntax unified
 502              		.thumb
 503              		.thumb_func
 504              		.fpu softvfp
 505              		.type	gptStartContinuousI, %function
 506              	gptStartContinuousI:
 507              	.LFB334:
 508              		.loc 1 163 0
ARM GAS  C:\Users\RAKIBU~1\AppData\Local\Temp\ccYLMMhd.s 			page 10


 509              		.cfi_startproc
 510              		@ args = 0, pretend = 0, frame = 0
 511              		@ frame_needed = 0, uses_anonymous_args = 0
 512              	.LVL48:
 513 0180 38B5     		push	{r3, r4, r5, lr}
 514              		.cfi_def_cfa_offset 16
 515              		.cfi_offset 3, -16
 516              		.cfi_offset 4, -12
 517              		.cfi_offset 5, -8
 518              		.cfi_offset 14, -4
 519 0182 0446     		mov	r4, r0
 520 0184 0D46     		mov	r5, r1
 521              		.loc 1 165 0
 522 0186 FFF7FEFF 		bl	chDbgCheckClassI
 523              	.LVL49:
 524              		.loc 1 166 0
 525 018a 64B1     		cbz	r4, .L35
 526              	.L32:
 527              		.loc 1 167 0 discriminator 1
 528 018c 2378     		ldrb	r3, [r4]	@ zero_extendqisi2
 529 018e 022B     		cmp	r3, #2
 530 0190 02D0     		beq	.L33
 531              		.loc 1 167 0 is_stmt 0 discriminator 2
 532 0192 0748     		ldr	r0, .L36
 533 0194 FFF7FEFF 		bl	chSysHalt
 534              	.LVL50:
 535              	.L33:
 536              		.loc 1 170 0 is_stmt 1
 537 0198 0323     		movs	r3, #3
 538 019a 2370     		strb	r3, [r4]
 539              		.loc 1 171 0
 540 019c 2946     		mov	r1, r5
 541 019e 2046     		mov	r0, r4
 542 01a0 FFF7FEFF 		bl	gpt_lld_start_timer
 543              	.LVL51:
 544              		.loc 1 172 0
 545 01a4 38BD     		pop	{r3, r4, r5, pc}
 546              	.LVL52:
 547              	.L35:
 548              		.loc 1 166 0 discriminator 2
 549 01a6 0248     		ldr	r0, .L36
 550 01a8 FFF7FEFF 		bl	chSysHalt
 551              	.LVL53:
 552 01ac EEE7     		b	.L32
 553              	.L37:
 554 01ae 00BF     		.align	2
 555              	.L36:
 556 01b0 34000000 		.word	.LANCHOR0+52
 557              		.cfi_endproc
 558              	.LFE334:
 559              		.size	gptStartContinuousI, .-gptStartContinuousI
 560              		.align	1
 561 01b4 AFF30080 		.p2align 4,,15
 561      AFF30080 
 561      AFF30080 
 562              		.global	gptStartContinuous
 563              		.syntax unified
ARM GAS  C:\Users\RAKIBU~1\AppData\Local\Temp\ccYLMMhd.s 			page 11


 564              		.thumb
 565              		.thumb_func
 566              		.fpu softvfp
 567              		.type	gptStartContinuous, %function
 568              	gptStartContinuous:
 569              	.LFB333:
 570              		.loc 1 148 0
 571              		.cfi_startproc
 572              		@ args = 0, pretend = 0, frame = 0
 573              		@ frame_needed = 0, uses_anonymous_args = 0
 574              	.LVL54:
 575 01c0 38B5     		push	{r3, r4, r5, lr}
 576              		.cfi_def_cfa_offset 16
 577              		.cfi_offset 3, -16
 578              		.cfi_offset 4, -12
 579              		.cfi_offset 5, -8
 580              		.cfi_offset 14, -4
 581 01c2 0446     		mov	r4, r0
 582 01c4 0D46     		mov	r5, r1
 583              	.LVL55:
 584              	.LBB170:
 585              	.LBB171:
 586              	.LBB172:
 587              	.LBB173:
 588              	.LBB174:
 589              	.LBB175:
 590              		.loc 2 493 0
 591 01c6 2023     		movs	r3, #32
 592              		.syntax unified
 593              	@ 493 "../../../ChibiOSRepo/chibios191/os/common/ext/ARM/CMSIS/Core/Include/cmsis_gcc.h" 1
 594 01c8 83F31188 		MSR basepri, r3
 595              	@ 0 "" 2
 596              	.LVL56:
 597              		.thumb
 598              		.syntax unified
 599              	.LBE175:
 600              	.LBE174:
 601              	.LBE173:
 602              		.loc 3 356 0
 603 01cc FFF7FEFF 		bl	_stats_start_measure_crit_thd
 604              	.LVL57:
 605              		.loc 3 357 0
 606 01d0 FFF7FEFF 		bl	_dbg_check_lock
 607              	.LVL58:
 608              	.LBE172:
 609              	.LBE171:
 610              	.LBE170:
 611              		.loc 1 151 0
 612 01d4 2946     		mov	r1, r5
 613 01d6 2046     		mov	r0, r4
 614 01d8 FFF7FEFF 		bl	gptStartContinuousI
 615              	.LVL59:
 616              	.LBB176:
 617              	.LBB177:
 618              	.LBB178:
 619              		.loc 3 367 0
 620 01dc FFF7FEFF 		bl	_dbg_check_unlock
ARM GAS  C:\Users\RAKIBU~1\AppData\Local\Temp\ccYLMMhd.s 			page 12


 621              	.LVL60:
 622              		.loc 3 368 0
 623 01e0 FFF7FEFF 		bl	_stats_stop_measure_crit_thd
 624              	.LVL61:
 625              		.loc 3 374 0
 626 01e4 084B     		ldr	r3, .L42
 627 01e6 1A68     		ldr	r2, [r3]
 628 01e8 9A42     		cmp	r2, r3
 629 01ea 04D0     		beq	.L39
 630 01ec 9B69     		ldr	r3, [r3, #24]
 631 01ee 9968     		ldr	r1, [r3, #8]
 632 01f0 9368     		ldr	r3, [r2, #8]
 633 01f2 9942     		cmp	r1, r3
 634 01f4 03D3     		bcc	.L41
 635              	.L39:
 636              	.LVL62:
 637              	.LBB179:
 638              	.LBB180:
 639              	.LBB181:
 640              		.loc 2 493 0
 641 01f6 0023     		movs	r3, #0
 642              		.syntax unified
 643              	@ 493 "../../../ChibiOSRepo/chibios191/os/common/ext/ARM/CMSIS/Core/Include/cmsis_gcc.h" 1
 644 01f8 83F31188 		MSR basepri, r3
 645              	@ 0 "" 2
 646              	.LVL63:
 647              		.thumb
 648              		.syntax unified
 649              	.LBE181:
 650              	.LBE180:
 651              	.LBE179:
 652              	.LBE178:
 653              	.LBE177:
 654              	.LBE176:
 655              		.loc 1 153 0
 656 01fc 38BD     		pop	{r3, r4, r5, pc}
 657              	.LVL64:
 658              	.L41:
 659              	.LBB184:
 660              	.LBB183:
 661              	.LBB182:
 662              		.loc 3 374 0
 663 01fe 0348     		ldr	r0, .L42+4
 664 0200 FFF7FEFF 		bl	chSysHalt
 665              	.LVL65:
 666 0204 F7E7     		b	.L39
 667              	.L43:
 668 0206 00BF     		.align	2
 669              	.L42:
 670 0208 00000000 		.word	ch
 671 020c 0C000000 		.word	.LANCHOR0+12
 672              	.LBE182:
 673              	.LBE183:
 674              	.LBE184:
 675              		.cfi_endproc
 676              	.LFE333:
 677              		.size	gptStartContinuous, .-gptStartContinuous
ARM GAS  C:\Users\RAKIBU~1\AppData\Local\Temp\ccYLMMhd.s 			page 13


 678              		.align	1
 679              		.p2align 4,,15
 680              		.global	gptStartOneShotI
 681              		.syntax unified
 682              		.thumb
 683              		.thumb_func
 684              		.fpu softvfp
 685              		.type	gptStartOneShotI, %function
 686              	gptStartOneShotI:
 687              	.LFB336:
 688              		.loc 1 197 0
 689              		.cfi_startproc
 690              		@ args = 0, pretend = 0, frame = 0
 691              		@ frame_needed = 0, uses_anonymous_args = 0
 692              	.LVL66:
 693 0210 38B5     		push	{r3, r4, r5, lr}
 694              		.cfi_def_cfa_offset 16
 695              		.cfi_offset 3, -16
 696              		.cfi_offset 4, -12
 697              		.cfi_offset 5, -8
 698              		.cfi_offset 14, -4
 699 0212 0446     		mov	r4, r0
 700 0214 0D46     		mov	r5, r1
 701              		.loc 1 199 0
 702 0216 FFF7FEFF 		bl	chDbgCheckClassI
 703              	.LVL67:
 704              		.loc 1 200 0
 705 021a 7CB1     		cbz	r4, .L49
 706              	.L45:
 707              		.loc 1 201 0 discriminator 1
 708 021c 6368     		ldr	r3, [r4, #4]
 709 021e 5B68     		ldr	r3, [r3, #4]
 710 0220 83B1     		cbz	r3, .L50
 711              	.L46:
 712              		.loc 1 202 0 discriminator 1
 713 0222 2378     		ldrb	r3, [r4]	@ zero_extendqisi2
 714 0224 022B     		cmp	r3, #2
 715 0226 02D0     		beq	.L47
 716              		.loc 1 202 0 is_stmt 0 discriminator 2
 717 0228 0848     		ldr	r0, .L51
 718 022a FFF7FEFF 		bl	chSysHalt
 719              	.LVL68:
 720              	.L47:
 721              		.loc 1 205 0 is_stmt 1
 722 022e 0423     		movs	r3, #4
 723 0230 2370     		strb	r3, [r4]
 724              		.loc 1 206 0
 725 0232 2946     		mov	r1, r5
 726 0234 2046     		mov	r0, r4
 727 0236 FFF7FEFF 		bl	gpt_lld_start_timer
 728              	.LVL69:
 729              		.loc 1 207 0
 730 023a 38BD     		pop	{r3, r4, r5, pc}
 731              	.LVL70:
 732              	.L49:
 733              		.loc 1 200 0 discriminator 2
 734 023c 0348     		ldr	r0, .L51
ARM GAS  C:\Users\RAKIBU~1\AppData\Local\Temp\ccYLMMhd.s 			page 14


 735 023e FFF7FEFF 		bl	chSysHalt
 736              	.LVL71:
 737 0242 EBE7     		b	.L45
 738              	.L50:
 739              		.loc 1 201 0 discriminator 2
 740 0244 0148     		ldr	r0, .L51
 741 0246 FFF7FEFF 		bl	chSysHalt
 742              	.LVL72:
 743 024a EAE7     		b	.L46
 744              	.L52:
 745              		.align	2
 746              	.L51:
 747 024c 48000000 		.word	.LANCHOR0+72
 748              		.cfi_endproc
 749              	.LFE336:
 750              		.size	gptStartOneShotI, .-gptStartOneShotI
 751              		.align	1
 752              		.p2align 4,,15
 753              		.global	gptStartOneShot
 754              		.syntax unified
 755              		.thumb
 756              		.thumb_func
 757              		.fpu softvfp
 758              		.type	gptStartOneShot, %function
 759              	gptStartOneShot:
 760              	.LFB335:
 761              		.loc 1 182 0
 762              		.cfi_startproc
 763              		@ args = 0, pretend = 0, frame = 0
 764              		@ frame_needed = 0, uses_anonymous_args = 0
 765              	.LVL73:
 766 0250 38B5     		push	{r3, r4, r5, lr}
 767              		.cfi_def_cfa_offset 16
 768              		.cfi_offset 3, -16
 769              		.cfi_offset 4, -12
 770              		.cfi_offset 5, -8
 771              		.cfi_offset 14, -4
 772 0252 0446     		mov	r4, r0
 773 0254 0D46     		mov	r5, r1
 774              	.LVL74:
 775              	.LBB198:
 776              	.LBB199:
 777              	.LBB200:
 778              	.LBB201:
 779              	.LBB202:
 780              	.LBB203:
 781              		.loc 2 493 0
 782 0256 2023     		movs	r3, #32
 783              		.syntax unified
 784              	@ 493 "../../../ChibiOSRepo/chibios191/os/common/ext/ARM/CMSIS/Core/Include/cmsis_gcc.h" 1
 785 0258 83F31188 		MSR basepri, r3
 786              	@ 0 "" 2
 787              	.LVL75:
 788              		.thumb
 789              		.syntax unified
 790              	.LBE203:
 791              	.LBE202:
ARM GAS  C:\Users\RAKIBU~1\AppData\Local\Temp\ccYLMMhd.s 			page 15


 792              	.LBE201:
 793              		.loc 3 356 0
 794 025c FFF7FEFF 		bl	_stats_start_measure_crit_thd
 795              	.LVL76:
 796              		.loc 3 357 0
 797 0260 FFF7FEFF 		bl	_dbg_check_lock
 798              	.LVL77:
 799              	.LBE200:
 800              	.LBE199:
 801              	.LBE198:
 802              		.loc 1 185 0
 803 0264 2946     		mov	r1, r5
 804 0266 2046     		mov	r0, r4
 805 0268 FFF7FEFF 		bl	gptStartOneShotI
 806              	.LVL78:
 807              	.LBB204:
 808              	.LBB205:
 809              	.LBB206:
 810              		.loc 3 367 0
 811 026c FFF7FEFF 		bl	_dbg_check_unlock
 812              	.LVL79:
 813              		.loc 3 368 0
 814 0270 FFF7FEFF 		bl	_stats_stop_measure_crit_thd
 815              	.LVL80:
 816              		.loc 3 374 0
 817 0274 084B     		ldr	r3, .L57
 818 0276 1A68     		ldr	r2, [r3]
 819 0278 9A42     		cmp	r2, r3
 820 027a 04D0     		beq	.L54
 821 027c 9B69     		ldr	r3, [r3, #24]
 822 027e 9968     		ldr	r1, [r3, #8]
 823 0280 9368     		ldr	r3, [r2, #8]
 824 0282 9942     		cmp	r1, r3
 825 0284 03D3     		bcc	.L56
 826              	.L54:
 827              	.LVL81:
 828              	.LBB207:
 829              	.LBB208:
 830              	.LBB209:
 831              		.loc 2 493 0
 832 0286 0023     		movs	r3, #0
 833              		.syntax unified
 834              	@ 493 "../../../ChibiOSRepo/chibios191/os/common/ext/ARM/CMSIS/Core/Include/cmsis_gcc.h" 1
 835 0288 83F31188 		MSR basepri, r3
 836              	@ 0 "" 2
 837              	.LVL82:
 838              		.thumb
 839              		.syntax unified
 840              	.LBE209:
 841              	.LBE208:
 842              	.LBE207:
 843              	.LBE206:
 844              	.LBE205:
 845              	.LBE204:
 846              		.loc 1 187 0
 847 028c 38BD     		pop	{r3, r4, r5, pc}
 848              	.LVL83:
ARM GAS  C:\Users\RAKIBU~1\AppData\Local\Temp\ccYLMMhd.s 			page 16


 849              	.L56:
 850              	.LBB212:
 851              	.LBB211:
 852              	.LBB210:
 853              		.loc 3 374 0
 854 028e 0348     		ldr	r0, .L57+4
 855 0290 FFF7FEFF 		bl	chSysHalt
 856              	.LVL84:
 857 0294 F7E7     		b	.L54
 858              	.L58:
 859 0296 00BF     		.align	2
 860              	.L57:
 861 0298 00000000 		.word	ch
 862 029c 0C000000 		.word	.LANCHOR0+12
 863              	.LBE210:
 864              	.LBE211:
 865              	.LBE212:
 866              		.cfi_endproc
 867              	.LFE335:
 868              		.size	gptStartOneShot, .-gptStartOneShot
 869              		.align	1
 870              		.p2align 4,,15
 871              		.global	gptStopTimerI
 872              		.syntax unified
 873              		.thumb
 874              		.thumb_func
 875              		.fpu softvfp
 876              		.type	gptStopTimerI, %function
 877              	gptStopTimerI:
 878              	.LFB338:
 879              		.loc 1 230 0
 880              		.cfi_startproc
 881              		@ args = 0, pretend = 0, frame = 0
 882              		@ frame_needed = 0, uses_anonymous_args = 0
 883              	.LVL85:
 884 02a0 10B5     		push	{r4, lr}
 885              		.cfi_def_cfa_offset 8
 886              		.cfi_offset 4, -8
 887              		.cfi_offset 14, -4
 888 02a2 0446     		mov	r4, r0
 889              		.loc 1 232 0
 890 02a4 FFF7FEFF 		bl	chDbgCheckClassI
 891              	.LVL86:
 892              		.loc 1 233 0
 893 02a8 54B1     		cbz	r4, .L63
 894              	.L60:
 895              		.loc 1 234 0 discriminator 1
 896 02aa 2378     		ldrb	r3, [r4]	@ zero_extendqisi2
 897 02ac 023B     		subs	r3, r3, #2
 898 02ae DBB2     		uxtb	r3, r3
 899 02b0 022B     		cmp	r3, #2
 900 02b2 09D8     		bhi	.L64
 901              	.L61:
 902              		.loc 1 238 0
 903 02b4 0223     		movs	r3, #2
 904 02b6 2370     		strb	r3, [r4]
 905              		.loc 1 239 0
ARM GAS  C:\Users\RAKIBU~1\AppData\Local\Temp\ccYLMMhd.s 			page 17


 906 02b8 2046     		mov	r0, r4
 907 02ba FFF7FEFF 		bl	gpt_lld_stop_timer
 908              	.LVL87:
 909              		.loc 1 240 0
 910 02be 10BD     		pop	{r4, pc}
 911              	.LVL88:
 912              	.L63:
 913              		.loc 1 233 0 discriminator 2
 914 02c0 0348     		ldr	r0, .L65
 915 02c2 FFF7FEFF 		bl	chSysHalt
 916              	.LVL89:
 917 02c6 F0E7     		b	.L60
 918              	.L64:
 919              		.loc 1 234 0 discriminator 2
 920 02c8 0148     		ldr	r0, .L65
 921 02ca FFF7FEFF 		bl	chSysHalt
 922              	.LVL90:
 923 02ce F1E7     		b	.L61
 924              	.L66:
 925              		.align	2
 926              	.L65:
 927 02d0 5C000000 		.word	.LANCHOR0+92
 928              		.cfi_endproc
 929              	.LFE338:
 930              		.size	gptStopTimerI, .-gptStopTimerI
 931              		.align	1
 932 02d4 AFF30080 		.p2align 4,,15
 932      AFF30080 
 932      AFF30080 
 933              		.global	gptStopTimer
 934              		.syntax unified
 935              		.thumb
 936              		.thumb_func
 937              		.fpu softvfp
 938              		.type	gptStopTimer, %function
 939              	gptStopTimer:
 940              	.LFB337:
 941              		.loc 1 216 0
 942              		.cfi_startproc
 943              		@ args = 0, pretend = 0, frame = 0
 944              		@ frame_needed = 0, uses_anonymous_args = 0
 945              	.LVL91:
 946 02e0 10B5     		push	{r4, lr}
 947              		.cfi_def_cfa_offset 8
 948              		.cfi_offset 4, -8
 949              		.cfi_offset 14, -4
 950 02e2 0446     		mov	r4, r0
 951              	.LVL92:
 952              	.LBB226:
 953              	.LBB227:
 954              	.LBB228:
 955              	.LBB229:
 956              	.LBB230:
 957              	.LBB231:
 958              		.loc 2 493 0
 959 02e4 2023     		movs	r3, #32
 960              		.syntax unified
ARM GAS  C:\Users\RAKIBU~1\AppData\Local\Temp\ccYLMMhd.s 			page 18


 961              	@ 493 "../../../ChibiOSRepo/chibios191/os/common/ext/ARM/CMSIS/Core/Include/cmsis_gcc.h" 1
 962 02e6 83F31188 		MSR basepri, r3
 963              	@ 0 "" 2
 964              	.LVL93:
 965              		.thumb
 966              		.syntax unified
 967              	.LBE231:
 968              	.LBE230:
 969              	.LBE229:
 970              		.loc 3 356 0
 971 02ea FFF7FEFF 		bl	_stats_start_measure_crit_thd
 972              	.LVL94:
 973              		.loc 3 357 0
 974 02ee FFF7FEFF 		bl	_dbg_check_lock
 975              	.LVL95:
 976              	.LBE228:
 977              	.LBE227:
 978              	.LBE226:
 979              		.loc 1 219 0
 980 02f2 2046     		mov	r0, r4
 981 02f4 FFF7FEFF 		bl	gptStopTimerI
 982              	.LVL96:
 983              	.LBB232:
 984              	.LBB233:
 985              	.LBB234:
 986              		.loc 3 367 0
 987 02f8 FFF7FEFF 		bl	_dbg_check_unlock
 988              	.LVL97:
 989              		.loc 3 368 0
 990 02fc FFF7FEFF 		bl	_stats_stop_measure_crit_thd
 991              	.LVL98:
 992              		.loc 3 374 0
 993 0300 084B     		ldr	r3, .L71
 994 0302 1A68     		ldr	r2, [r3]
 995 0304 9A42     		cmp	r2, r3
 996 0306 04D0     		beq	.L68
 997 0308 9B69     		ldr	r3, [r3, #24]
 998 030a 9968     		ldr	r1, [r3, #8]
 999 030c 9368     		ldr	r3, [r2, #8]
 1000 030e 9942     		cmp	r1, r3
 1001 0310 03D3     		bcc	.L70
 1002              	.L68:
 1003              	.LVL99:
 1004              	.LBB235:
 1005              	.LBB236:
 1006              	.LBB237:
 1007              		.loc 2 493 0
 1008 0312 0023     		movs	r3, #0
 1009              		.syntax unified
 1010              	@ 493 "../../../ChibiOSRepo/chibios191/os/common/ext/ARM/CMSIS/Core/Include/cmsis_gcc.h" 1
 1011 0314 83F31188 		MSR basepri, r3
 1012              	@ 0 "" 2
 1013              	.LVL100:
 1014              		.thumb
 1015              		.syntax unified
 1016              	.LBE237:
 1017              	.LBE236:
ARM GAS  C:\Users\RAKIBU~1\AppData\Local\Temp\ccYLMMhd.s 			page 19


 1018              	.LBE235:
 1019              	.LBE234:
 1020              	.LBE233:
 1021              	.LBE232:
 1022              		.loc 1 221 0
 1023 0318 10BD     		pop	{r4, pc}
 1024              	.LVL101:
 1025              	.L70:
 1026              	.LBB240:
 1027              	.LBB239:
 1028              	.LBB238:
 1029              		.loc 3 374 0
 1030 031a 0348     		ldr	r0, .L71+4
 1031 031c FFF7FEFF 		bl	chSysHalt
 1032              	.LVL102:
 1033 0320 F7E7     		b	.L68
 1034              	.L72:
 1035 0322 00BF     		.align	2
 1036              	.L71:
 1037 0324 00000000 		.word	ch
 1038 0328 0C000000 		.word	.LANCHOR0+12
 1039              	.LBE238:
 1040              	.LBE239:
 1041              	.LBE240:
 1042              		.cfi_endproc
 1043              	.LFE337:
 1044              		.size	gptStopTimer, .-gptStopTimer
 1045              		.align	1
 1046 032c AFF30080 		.p2align 4,,15
 1047              		.global	gptPolledDelay
 1048              		.syntax unified
 1049              		.thumb
 1050              		.thumb_func
 1051              		.fpu softvfp
 1052              		.type	gptPolledDelay, %function
 1053              	gptPolledDelay:
 1054              	.LFB339:
 1055              		.loc 1 254 0
 1056              		.cfi_startproc
 1057              		@ args = 0, pretend = 0, frame = 0
 1058              		@ frame_needed = 0, uses_anonymous_args = 0
 1059              	.LVL103:
 1060 0330 38B5     		push	{r3, r4, r5, lr}
 1061              		.cfi_def_cfa_offset 16
 1062              		.cfi_offset 3, -16
 1063              		.cfi_offset 4, -12
 1064              		.cfi_offset 5, -8
 1065              		.cfi_offset 14, -4
 1066 0332 0446     		mov	r4, r0
 1067 0334 0D46     		mov	r5, r1
 1068              		.loc 1 256 0
 1069 0336 0378     		ldrb	r3, [r0]	@ zero_extendqisi2
 1070 0338 022B     		cmp	r3, #2
 1071 033a 02D0     		beq	.L74
 1072              		.loc 1 256 0 is_stmt 0 discriminator 2
 1073 033c 0548     		ldr	r0, .L76
 1074              	.LVL104:
ARM GAS  C:\Users\RAKIBU~1\AppData\Local\Temp\ccYLMMhd.s 			page 20


 1075 033e FFF7FEFF 		bl	chSysHalt
 1076              	.LVL105:
 1077              	.L74:
 1078              		.loc 1 259 0 is_stmt 1
 1079 0342 0423     		movs	r3, #4
 1080 0344 2370     		strb	r3, [r4]
 1081              		.loc 1 260 0
 1082 0346 2946     		mov	r1, r5
 1083 0348 2046     		mov	r0, r4
 1084 034a FFF7FEFF 		bl	gpt_lld_polled_delay
 1085              	.LVL106:
 1086              		.loc 1 261 0
 1087 034e 0223     		movs	r3, #2
 1088 0350 2370     		strb	r3, [r4]
 1089              		.loc 1 262 0
 1090 0352 38BD     		pop	{r3, r4, r5, pc}
 1091              	.LVL107:
 1092              	.L77:
 1093              		.align	2
 1094              	.L76:
 1095 0354 6C000000 		.word	.LANCHOR0+108
 1096              		.cfi_endproc
 1097              	.LFE339:
 1098              		.size	gptPolledDelay, .-gptPolledDelay
 1099              		.section	.rodata
 1100              		.align	2
 1101              		.set	.LANCHOR0,. + 0
 1102              		.type	__func__.8974, %object
 1103              		.size	__func__.8974, 9
 1104              	__func__.8974:
 1105 0000 67707453 		.ascii	"gptStart\000"
 1105      74617274 
 1105      00
 1106 0009 000000   		.space	3
 1107              		.type	__func__.6118, %object
 1108              		.size	__func__.6118, 12
 1109              	__func__.6118:
 1110 000c 63685379 		.ascii	"chSysUnlock\000"
 1110      73556E6C 
 1110      6F636B00 
 1111              		.type	__func__.8978, %object
 1112              		.size	__func__.8978, 8
 1113              	__func__.8978:
 1114 0018 67707453 		.ascii	"gptStop\000"
 1114      746F7000 
 1115              		.type	__func__.8983, %object
 1116              		.size	__func__.8983, 18
 1117              	__func__.8983:
 1118 0020 67707443 		.ascii	"gptChangeInterval\000"
 1118      68616E67 
 1118      65496E74 
 1118      65727661 
 1118      6C00
 1119 0032 0000     		.space	2
 1120              		.type	__func__.8992, %object
 1121              		.size	__func__.8992, 20
 1122              	__func__.8992:
ARM GAS  C:\Users\RAKIBU~1\AppData\Local\Temp\ccYLMMhd.s 			page 21


 1123 0034 67707453 		.ascii	"gptStartContinuousI\000"
 1123      74617274 
 1123      436F6E74 
 1123      696E756F 
 1123      75734900 
 1124              		.type	__func__.9001, %object
 1125              		.size	__func__.9001, 17
 1126              	__func__.9001:
 1127 0048 67707453 		.ascii	"gptStartOneShotI\000"
 1127      74617274 
 1127      4F6E6553 
 1127      686F7449 
 1127      00
 1128 0059 000000   		.space	3
 1129              		.type	__func__.9008, %object
 1130              		.size	__func__.9008, 14
 1131              	__func__.9008:
 1132 005c 67707453 		.ascii	"gptStopTimerI\000"
 1132      746F7054 
 1132      696D6572 
 1132      4900
 1133 006a 0000     		.space	2
 1134              		.type	__func__.9013, %object
 1135              		.size	__func__.9013, 15
 1136              	__func__.9013:
 1137 006c 67707450 		.ascii	"gptPolledDelay\000"
 1137      6F6C6C65 
 1137      6444656C 
 1137      617900
 1138              		.text
 1139              	.Letext0:
 1140              		.file 4 "c:\\chibistudio\\tools\\gnu tools arm embedded\\7.0 2017q4\\lib\\gcc\\arm-none-eabi\\7.2.
 1141              		.file 5 "c:\\chibistudio\\tools\\gnu tools arm embedded\\7.0 2017q4\\arm-none-eabi\\include\\machi
 1142              		.file 6 "c:\\chibistudio\\tools\\gnu tools arm embedded\\7.0 2017q4\\arm-none-eabi\\include\\sys\\
 1143              		.file 7 "c:\\chibistudio\\tools\\gnu tools arm embedded\\7.0 2017q4\\arm-none-eabi\\include\\stdin
 1144              		.file 8 "../../../ChibiOSRepo/chibios191/os/common/ports/ARMCMx/compilers/GCC/chtypes.h"
 1145              		.file 9 "../../../ChibiOSRepo/chibios191/os/rt/include/chsystypes.h"
 1146              		.file 10 "../../../ChibiOSRepo/chibios191/os/rt/include/chschd.h"
 1147              		.file 11 "../../../ChibiOSRepo/chibios191/os/rt/include/chtime.h"
 1148              		.file 12 "../../../ChibiOSRepo/chibios191/os/common/ext/ARM/CMSIS/Core/Include/core_cm4.h"
 1149              		.file 13 "../../../ChibiOSRepo/chibios191/os/common/ext/ST/STM32F4xx/system_stm32f4xx.h"
 1150              		.file 14 "../../../ChibiOSRepo/chibios191/os/common/ext/ST/STM32F4xx/stm32f407xx.h"
 1151              		.file 15 "../../../ChibiOSRepo/chibios191/os/common/ports/ARMCMx/chcore.h"
 1152              		.file 16 "../../../ChibiOSRepo/chibios191/os/common/ports/ARMCMx/chcore_v7m.h"
 1153              		.file 17 "../../../ChibiOSRepo/chibios191/os/hal/ports/STM32/LLD/TIMv1/stm32_tim.h"
 1154              		.file 18 "../../../ChibiOSRepo/chibios191/os/rt/include/chtrace.h"
 1155              		.file 19 "../../../ChibiOSRepo/chibios191/os/rt/include/chtm.h"
 1156              		.file 20 "../../../ChibiOSRepo/chibios191/os/rt/include/chstats.h"
 1157              		.file 21 "../../../ChibiOSRepo/chibios191/os/rt/include/chsem.h"
 1158              		.file 22 "../../../ChibiOSRepo/chibios191/os/rt/include/chmtx.h"
 1159              		.file 23 "../../../ChibiOSRepo/chibios191/os/rt/include/chregistry.h"
 1160              		.file 24 "../../../ChibiOSRepo/chibios191/os/rt/include/chevents.h"
 1161              		.file 25 "../../../ChibiOSRepo/chibios191/os/oslib/include/chmemcore.h"
 1162              		.file 26 "../../../ChibiOSRepo/chibios191/os/oslib/include/chmempools.h"
 1163              		.file 27 "../../../ChibiOSRepo/chibios191/os/oslib/include/chfactory.h"
 1164              		.file 28 "../../../ChibiOSRepo/chibios191/os/hal/ports/STM32/LLD/DMAv2/stm32_dma.h"
 1165              		.file 29 "../../../ChibiOSRepo/chibios191/os/hal/include/hal_ioblock.h"
ARM GAS  C:\Users\RAKIBU~1\AppData\Local\Temp\ccYLMMhd.s 			page 22


 1166              		.file 30 "../../../ChibiOSRepo/chibios191/os/hal/include/hal_persistent.h"
 1167              		.file 31 "../../../ChibiOSRepo/chibios191/os/hal/include/hal_queues.h"
 1168              		.file 32 "../../../ChibiOSRepo/chibios191/os/hal/include/hal_pal.h"
 1169              		.file 33 "../../../ChibiOSRepo/chibios191/os/hal/ports/STM32/LLD/GPIOv2/stm32_gpio.h"
 1170              		.file 34 "../../../ChibiOSRepo/chibios191/os/hal/ports/STM32/LLD/GPIOv2/hal_pal_lld.h"
 1171              		.file 35 "../../../ChibiOSRepo/chibios191/os/hal/include/hal_gpt.h"
 1172              		.file 36 "../../../ChibiOSRepo/chibios191/os/hal/ports/STM32/LLD/TIMv1/hal_gpt_lld.h"
 1173              		.file 37 "../../../ChibiOSRepo/chibios191/os/hal/include/hal_i2c.h"
 1174              		.file 38 "../../../ChibiOSRepo/chibios191/os/hal/ports/STM32/LLD/I2Cv1/hal_i2c_lld.h"
 1175              		.file 39 "c:\\chibistudio\\tools\\gnu tools arm embedded\\7.0 2017q4\\arm-none-eabi\\include\\sys\
 1176              		.file 40 "c:\\chibistudio\\tools\\gnu tools arm embedded\\7.0 2017q4\\arm-none-eabi\\include\\sys\
 1177              		.file 41 "c:\\chibistudio\\tools\\gnu tools arm embedded\\7.0 2017q4\\arm-none-eabi\\include\\sys\
 1178              		.file 42 "c:\\chibistudio\\tools\\gnu tools arm embedded\\7.0 2017q4\\arm-none-eabi\\include\\time
 1179              		.file 43 "../../../ChibiOSRepo/chibios191/os/hal/include/hal_rtc.h"
 1180              		.file 44 "../../../ChibiOSRepo/chibios191/os/hal/ports/STM32/LLD/RTCv2/hal_rtc_lld.h"
 1181              		.file 45 "../../../ChibiOSRepo/chibios191/os/hal/include/hal_serial.h"
 1182              		.file 46 "../../../ChibiOSRepo/chibios191/os/hal/ports/STM32/LLD/USARTv1/hal_serial_lld.h"
 1183              		.file 47 "../../../ChibiOSRepo/chibios191/os/hal/include/hal_sdc.h"
 1184              		.file 48 "../../../ChibiOSRepo/chibios191/os/hal/ports/STM32/LLD/SDIOv1/hal_sdc_lld.h"
 1185              		.file 49 "../../../ChibiOSRepo/chibios191/os/hal/include/hal_spi.h"
 1186              		.file 50 "../../../ChibiOSRepo/chibios191/os/hal/ports/STM32/LLD/SPIv1/hal_spi_lld.h"
 1187              		.file 51 "../../../ChibiOSRepo/chibios191/os/hal/osal/rt/osal.h"
 1188              		.file 52 "../../../ChibiOSRepo/chibios191/os/rt/include/ch.h"
 1189              		.file 53 "../../../ChibiOSRepo/chibios191/os/rt/include/chdebug.h"