ARM GAS  C:\Users\RAKIBU~1\AppData\Local\Temp\ccoBOe3a.s 			page 1


   1              		.cpu cortex-m4
   2              		.eabi_attribute 20, 1
   3              		.eabi_attribute 21, 1
   4              		.eabi_attribute 23, 3
   5              		.eabi_attribute 24, 1
   6              		.eabi_attribute 25, 1
   7              		.eabi_attribute 26, 1
   8              		.eabi_attribute 30, 1
   9              		.eabi_attribute 34, 1
  10              		.eabi_attribute 18, 4
  11              		.file	"hal_spi_lld.c"
  12              		.text
  13              	.Ltext0:
  14              		.cfi_sections	.debug_frame
  15              		.align	1
  16              		.p2align 4,,15
  17              		.syntax unified
  18              		.thumb
  19              		.thumb_func
  20              		.fpu softvfp
  21              		.type	spi_lld_serve_tx_interrupt, %function
  22              	spi_lld_serve_tx_interrupt:
  23              	.LFB329:
  24              		.file 1 "../../../ChibiOSRepo/chibios191/os/hal/ports/STM32/LLD/SPIv1/hal_spi_lld.c"
  25              		.loc 1 170 0
  26              		.cfi_startproc
  27              		@ args = 0, pretend = 0, frame = 0
  28              		@ frame_needed = 0, uses_anonymous_args = 0
  29              	.LVL0:
  30              		.loc 1 175 0
  31 0000 11F00C0F 		tst	r1, #12
  32 0004 00D1     		bne	.L7
  33 0006 7047     		bx	lr
  34              	.L7:
  35              		.loc 1 170 0
  36 0008 08B5     		push	{r3, lr}
  37              		.cfi_def_cfa_offset 8
  38              		.cfi_offset 3, -8
  39              		.cfi_offset 14, -4
  40              	.LVL1:
  41              	.LBB58:
  42              	.LBB59:
  43              		.file 2 "../../../ChibiOSRepo/chibios191/os/hal/osal/rt/osal.h"
  44              		.loc 2 480 0
  45 000a 0248     		ldr	r0, .L8
  46              	.LVL2:
  47 000c FFF7FEFF 		bl	chSysHalt
  48              	.LVL3:
  49              	.LBE59:
  50              	.LBE58:
  51              		.loc 1 182 0
  52 0010 08BD     		pop	{r3, pc}
  53              	.L9:
  54 0012 00BF     		.align	2
  55              	.L8:
  56 0014 00000000 		.word	.LC0
  57              		.cfi_endproc
ARM GAS  C:\Users\RAKIBU~1\AppData\Local\Temp\ccoBOe3a.s 			page 2


  58              	.LFE329:
  59              		.size	spi_lld_serve_tx_interrupt, .-spi_lld_serve_tx_interrupt
  60              		.align	1
  61 0018 AFF30080 		.p2align 4,,15
  61      AFF30080 
  62              		.syntax unified
  63              		.thumb
  64              		.thumb_func
  65              		.fpu softvfp
  66              		.type	spi_lld_serve_rx_interrupt, %function
  67              	spi_lld_serve_rx_interrupt:
  68              	.LFB328:
  69              		.loc 1 132 0
  70              		.cfi_startproc
  71              		@ args = 0, pretend = 0, frame = 0
  72              		@ frame_needed = 0, uses_anonymous_args = 0
  73              	.LVL4:
  74 0020 38B5     		push	{r3, r4, r5, lr}
  75              		.cfi_def_cfa_offset 16
  76              		.cfi_offset 3, -16
  77              		.cfi_offset 4, -12
  78              		.cfi_offset 5, -8
  79              		.cfi_offset 14, -4
  80 0022 0446     		mov	r4, r0
  81 0024 0D46     		mov	r5, r1
  82              		.loc 1 136 0
  83 0026 11F00C0F 		tst	r1, #12
  84 002a 1BD1     		bne	.L20
  85              	.LVL5:
  86              	.L11:
  87              		.loc 1 143 0
  88 002c 6368     		ldr	r3, [r4, #4]
  89 002e 1A78     		ldrb	r2, [r3]	@ zero_extendqisi2
  90 0030 E2B1     		cbz	r2, .L12
  91              		.loc 1 144 0
  92 0032 15F0100F 		tst	r5, #16
  93 0036 03D0     		beq	.L13
  94              		.loc 1 146 0
  95 0038 5B68     		ldr	r3, [r3, #4]
  96 003a 0BB1     		cbz	r3, .L13
  97              		.loc 1 146 0 is_stmt 0 discriminator 1
  98 003c 2046     		mov	r0, r4
  99 003e 9847     		blx	r3
 100              	.LVL6:
 101              	.L13:
 102              		.loc 1 148 0 is_stmt 1
 103 0040 15F0200F 		tst	r5, #32
 104 0044 52D0     		beq	.L10
 105              		.loc 1 150 0
 106 0046 6368     		ldr	r3, [r4, #4]
 107 0048 5A68     		ldr	r2, [r3, #4]
 108 004a 002A     		cmp	r2, #0
 109 004c 4ED0     		beq	.L10
 110              		.loc 1 150 0 is_stmt 0 discriminator 1
 111 004e 0422     		movs	r2, #4
 112 0050 2270     		strb	r2, [r4]
 113 0052 5B68     		ldr	r3, [r3, #4]
ARM GAS  C:\Users\RAKIBU~1\AppData\Local\Temp\ccoBOe3a.s 			page 3


 114 0054 2046     		mov	r0, r4
 115 0056 9847     		blx	r3
 116              	.LVL7:
 117 0058 2378     		ldrb	r3, [r4]	@ zero_extendqisi2
 118 005a 042B     		cmp	r3, #4
 119 005c 46D1     		bne	.L10
 120              		.loc 1 150 0 discriminator 2
 121 005e 0323     		movs	r3, #3
 122 0060 2370     		strb	r3, [r4]
 123 0062 43E0     		b	.L10
 124              	.LVL8:
 125              	.L20:
 126              	.LBB60:
 127              	.LBB61:
 128              		.loc 2 480 0 is_stmt 1
 129 0064 2548     		ldr	r0, .L22
 130              	.LVL9:
 131 0066 FFF7FEFF 		bl	chSysHalt
 132              	.LVL10:
 133 006a DFE7     		b	.L11
 134              	.LVL11:
 135              	.L12:
 136              	.LBE61:
 137              	.LBE60:
 138              		.loc 1 155 0
 139 006c 636A     		ldr	r3, [r4, #36]
 140 006e 1A68     		ldr	r2, [r3]
 141 0070 1368     		ldr	r3, [r2]
 142 0072 23F01F03 		bic	r3, r3, #31
 143 0076 1360     		str	r3, [r2]
 144              	.L15:
 145              		.loc 1 155 0 is_stmt 0 discriminator 2
 146 0078 636A     		ldr	r3, [r4, #36]
 147 007a 1A68     		ldr	r2, [r3]
 148 007c 1268     		ldr	r2, [r2]
 149 007e 12F0010F 		tst	r2, #1
 150 0082 F9D1     		bne	.L15
 151              		.loc 1 155 0 discriminator 3
 152 0084 597A     		ldrb	r1, [r3, #9]	@ zero_extendqisi2
 153 0086 5A68     		ldr	r2, [r3, #4]
 154 0088 3D23     		movs	r3, #61
 155 008a 8B40     		lsls	r3, r3, r1
 156 008c 1360     		str	r3, [r2]
 157              		.loc 1 156 0 is_stmt 1 discriminator 3
 158 008e 236A     		ldr	r3, [r4, #32]
 159 0090 1A68     		ldr	r2, [r3]
 160 0092 1368     		ldr	r3, [r2]
 161 0094 23F01F03 		bic	r3, r3, #31
 162 0098 1360     		str	r3, [r2]
 163              	.L16:
 164              		.loc 1 156 0 is_stmt 0 discriminator 2
 165 009a 236A     		ldr	r3, [r4, #32]
 166 009c 1A68     		ldr	r2, [r3]
 167 009e 1268     		ldr	r2, [r2]
 168 00a0 12F0010F 		tst	r2, #1
 169 00a4 F9D1     		bne	.L16
 170              		.loc 1 156 0 discriminator 3
ARM GAS  C:\Users\RAKIBU~1\AppData\Local\Temp\ccoBOe3a.s 			page 4


 171 00a6 597A     		ldrb	r1, [r3, #9]	@ zero_extendqisi2
 172 00a8 5A68     		ldr	r2, [r3, #4]
 173 00aa 3D23     		movs	r3, #61
 174 00ac 8B40     		lsls	r3, r3, r1
 175 00ae 1360     		str	r3, [r2]
 176              		.loc 1 160 0 is_stmt 1 discriminator 3
 177 00b0 6368     		ldr	r3, [r4, #4]
 178 00b2 5A68     		ldr	r2, [r3, #4]
 179 00b4 F2B1     		cbz	r2, .L17
 180              		.loc 1 160 0 is_stmt 0 discriminator 1
 181 00b6 0422     		movs	r2, #4
 182 00b8 2270     		strb	r2, [r4]
 183 00ba 5B68     		ldr	r3, [r3, #4]
 184 00bc 2046     		mov	r0, r4
 185 00be 9847     		blx	r3
 186              	.LVL12:
 187 00c0 2378     		ldrb	r3, [r4]	@ zero_extendqisi2
 188 00c2 042B     		cmp	r3, #4
 189 00c4 13D0     		beq	.L21
 190              	.L18:
 191              	.LVL13:
 192              	.LBB62:
 193              	.LBB63:
 194              	.LBB64:
 195              	.LBB65:
 196              	.LBB66:
 197              	.LBB67:
 198              	.LBB68:
 199              		.file 3 "../../../ChibiOSRepo/chibios191/os/common/ext/ARM/CMSIS/Core/Include/cmsis_gcc.h"
 200              		.loc 3 493 0 is_stmt 1 discriminator 4
 201 00c6 2023     		movs	r3, #32
 202              		.syntax unified
 203              	@ 493 "../../../ChibiOSRepo/chibios191/os/common/ext/ARM/CMSIS/Core/Include/cmsis_gcc.h" 1
 204 00c8 83F31188 		MSR basepri, r3
 205              	@ 0 "" 2
 206              	.LVL14:
 207              		.thumb
 208              		.syntax unified
 209              	.LBE68:
 210              	.LBE67:
 211              	.LBE66:
 212              	.LBE65:
 213              		.file 4 "../../../ChibiOSRepo/chibios191/os/rt/include/chsys.h"
 214              		.loc 4 396 0 discriminator 4
 215 00cc FFF7FEFF 		bl	_stats_start_measure_crit_isr
 216              	.LVL15:
 217              		.loc 4 397 0 discriminator 4
 218 00d0 FFF7FEFF 		bl	_dbg_check_lock_from_isr
 219              	.LVL16:
 220              	.LBE64:
 221              	.LBE63:
 222              	.LBE62:
 223              	.LBB69:
 224              	.LBB70:
 225              		.loc 2 775 0 discriminator 4
 226 00d4 0021     		movs	r1, #0
 227 00d6 04F10800 		add	r0, r4, #8
ARM GAS  C:\Users\RAKIBU~1\AppData\Local\Temp\ccoBOe3a.s 			page 5


 228              	.LVL17:
 229 00da FFF7FEFF 		bl	chThdResumeI
 230              	.LVL18:
 231              	.LBE70:
 232              	.LBE69:
 233              	.LBB71:
 234              	.LBB72:
 235              	.LBB73:
 236              		.loc 4 415 0 discriminator 4
 237 00de FFF7FEFF 		bl	_dbg_check_unlock_from_isr
 238              	.LVL19:
 239              		.loc 4 416 0 discriminator 4
 240 00e2 FFF7FEFF 		bl	_stats_stop_measure_crit_isr
 241              	.LVL20:
 242              	.LBB74:
 243              	.LBB75:
 244              	.LBB76:
 245              	.LBB77:
 246              		.loc 3 493 0 discriminator 4
 247 00e6 0023     		movs	r3, #0
 248              		.syntax unified
 249              	@ 493 "../../../ChibiOSRepo/chibios191/os/common/ext/ARM/CMSIS/Core/Include/cmsis_gcc.h" 1
 250 00e8 83F31188 		MSR basepri, r3
 251              	@ 0 "" 2
 252              	.LVL21:
 253              		.thumb
 254              		.syntax unified
 255              	.L10:
 256              	.LBE77:
 257              	.LBE76:
 258              	.LBE75:
 259              	.LBE74:
 260              	.LBE73:
 261              	.LBE72:
 262              	.LBE71:
 263              		.loc 1 162 0
 264 00ec 38BD     		pop	{r3, r4, r5, pc}
 265              	.LVL22:
 266              	.L21:
 267              		.loc 1 160 0 discriminator 3
 268 00ee 0223     		movs	r3, #2
 269 00f0 2370     		strb	r3, [r4]
 270 00f2 E8E7     		b	.L18
 271              	.L17:
 272              		.loc 1 160 0 is_stmt 0 discriminator 2
 273 00f4 0223     		movs	r3, #2
 274 00f6 2370     		strb	r3, [r4]
 275 00f8 E5E7     		b	.L18
 276              	.L23:
 277 00fa 00BF     		.align	2
 278              	.L22:
 279 00fc 00000000 		.word	.LC0
 280              		.cfi_endproc
 281              	.LFE328:
 282              		.size	spi_lld_serve_rx_interrupt, .-spi_lld_serve_rx_interrupt
 283              		.align	1
 284              		.p2align 4,,15
ARM GAS  C:\Users\RAKIBU~1\AppData\Local\Temp\ccoBOe3a.s 			page 6


 285              		.global	spi_lld_init
 286              		.syntax unified
 287              		.thumb
 288              		.thumb_func
 289              		.fpu softvfp
 290              		.type	spi_lld_init, %function
 291              	spi_lld_init:
 292              	.LFB330:
 293              		.loc 1 197 0 is_stmt 1
 294              		.cfi_startproc
 295              		@ args = 0, pretend = 0, frame = 0
 296              		@ frame_needed = 0, uses_anonymous_args = 0
 297 0100 10B5     		push	{r4, lr}
 298              		.cfi_def_cfa_offset 8
 299              		.cfi_offset 4, -8
 300              		.cfi_offset 14, -4
 301              		.loc 1 200 0
 302 0102 074C     		ldr	r4, .L26
 303 0104 2046     		mov	r0, r4
 304 0106 FFF7FEFF 		bl	spiObjectInit
 305              	.LVL23:
 306              		.loc 1 201 0
 307 010a 064B     		ldr	r3, .L26+4
 308 010c E361     		str	r3, [r4, #28]
 309              		.loc 1 202 0
 310 010e 0023     		movs	r3, #0
 311 0110 2362     		str	r3, [r4, #32]
 312              		.loc 1 203 0
 313 0112 6362     		str	r3, [r4, #36]
 314              		.loc 1 204 0
 315 0114 044B     		ldr	r3, .L26+8
 316 0116 A362     		str	r3, [r4, #40]
 317              		.loc 1 210 0
 318 0118 3033     		adds	r3, r3, #48
 319 011a E362     		str	r3, [r4, #44]
 320              		.loc 1 306 0
 321 011c 10BD     		pop	{r4, pc}
 322              	.L27:
 323 011e 00BF     		.align	2
 324              	.L26:
 325 0120 00000000 		.word	SPID1
 326 0124 00300140 		.word	1073819648
 327 0128 16000306 		.word	100859926
 328              		.cfi_endproc
 329              	.LFE330:
 330              		.size	spi_lld_init, .-spi_lld_init
 331              		.align	1
 332 012c AFF30080 		.p2align 4,,15
 333              		.global	spi_lld_start
 334              		.syntax unified
 335              		.thumb
 336              		.thumb_func
 337              		.fpu softvfp
 338              		.type	spi_lld_start, %function
 339              	spi_lld_start:
 340              	.LFB331:
 341              		.loc 1 315 0
ARM GAS  C:\Users\RAKIBU~1\AppData\Local\Temp\ccoBOe3a.s 			page 7


 342              		.cfi_startproc
 343              		@ args = 0, pretend = 0, frame = 0
 344              		@ frame_needed = 0, uses_anonymous_args = 0
 345              	.LVL24:
 346 0130 10B5     		push	{r4, lr}
 347              		.cfi_def_cfa_offset 8
 348              		.cfi_offset 4, -8
 349              		.cfi_offset 14, -4
 350 0132 0446     		mov	r4, r0
 351              		.loc 1 318 0
 352 0134 0378     		ldrb	r3, [r0]	@ zero_extendqisi2
 353 0136 012B     		cmp	r3, #1
 354 0138 2FD0     		beq	.L38
 355              	.LVL25:
 356              	.L29:
 357              		.loc 1 416 0
 358 013a 6368     		ldr	r3, [r4, #4]
 359 013c 1B8A     		ldrh	r3, [r3, #16]
 360 013e 13F4006F 		tst	r3, #2048
 361 0142 5BD1     		bne	.L33
 362              		.loc 1 418 0
 363 0144 A36A     		ldr	r3, [r4, #40]
 364              		.loc 1 419 0
 365 0146 23F4F043 		bic	r3, r3, #30720
 366              		.loc 1 418 0
 367 014a A362     		str	r3, [r4, #40]
 368              		.loc 1 420 0
 369 014c E36A     		ldr	r3, [r4, #44]
 370              		.loc 1 421 0
 371 014e 23F4F043 		bic	r3, r3, #30720
 372              		.loc 1 420 0
 373 0152 E362     		str	r3, [r4, #44]
 374              	.L34:
 375              		.loc 1 431 0
 376 0154 6368     		ldr	r3, [r4, #4]
 377 0156 1B78     		ldrb	r3, [r3]	@ zero_extendqisi2
 378 0158 002B     		cmp	r3, #0
 379 015a 5CD1     		bne	.L39
 380              		.loc 1 436 0
 381 015c A36A     		ldr	r3, [r4, #40]
 382 015e 23F48473 		bic	r3, r3, #264
 383 0162 A362     		str	r3, [r4, #40]
 384              		.loc 1 437 0
 385 0164 E36A     		ldr	r3, [r4, #44]
 386 0166 23F48473 		bic	r3, r3, #264
 387 016a E362     		str	r3, [r4, #44]
 388              	.L36:
 389              		.loc 1 441 0
 390 016c E269     		ldr	r2, [r4, #28]
 391 016e 1368     		ldr	r3, [r2]
 392 0170 23F04003 		bic	r3, r3, #64
 393 0174 1360     		str	r3, [r2]
 394              		.loc 1 442 0
 395 0176 6368     		ldr	r3, [r4, #4]
 396 0178 1B8A     		ldrh	r3, [r3, #16]
 397 017a E269     		ldr	r2, [r4, #28]
 398 017c 43F44173 		orr	r3, r3, #772
ARM GAS  C:\Users\RAKIBU~1\AppData\Local\Temp\ccoBOe3a.s 			page 8


 399 0180 1360     		str	r3, [r2]
 400              		.loc 1 444 0
 401 0182 6368     		ldr	r3, [r4, #4]
 402 0184 5B8A     		ldrh	r3, [r3, #18]
 403 0186 E269     		ldr	r2, [r4, #28]
 404 0188 43F00703 		orr	r3, r3, #7
 405 018c 5360     		str	r3, [r2, #4]
 406              		.loc 1 446 0
 407 018e E269     		ldr	r2, [r4, #28]
 408 0190 1368     		ldr	r3, [r2]
 409 0192 43F04003 		orr	r3, r3, #64
 410 0196 1360     		str	r3, [r2]
 411              		.loc 1 447 0
 412 0198 10BD     		pop	{r4, pc}
 413              	.LVL26:
 414              	.L38:
 415              		.loc 1 320 0
 416 019a 234B     		ldr	r3, .L43
 417 019c 9842     		cmp	r0, r3
 418 019e 0AD0     		beq	.L40
 419              	.LVL27:
 420              	.L30:
 421              		.loc 1 411 0
 422 01a0 E369     		ldr	r3, [r4, #28]
 423 01a2 0C33     		adds	r3, r3, #12
 424 01a4 226A     		ldr	r2, [r4, #32]
 425 01a6 1268     		ldr	r2, [r2]
 426 01a8 9360     		str	r3, [r2, #8]
 427              		.loc 1 412 0
 428 01aa E369     		ldr	r3, [r4, #28]
 429 01ac 0C33     		adds	r3, r3, #12
 430 01ae 626A     		ldr	r2, [r4, #36]
 431 01b0 1268     		ldr	r2, [r2]
 432 01b2 9360     		str	r3, [r2, #8]
 433 01b4 C1E7     		b	.L29
 434              	.LVL28:
 435              	.L40:
 436              		.loc 1 321 0
 437 01b6 0346     		mov	r3, r0
 438 01b8 1C4A     		ldr	r2, .L43+4
 439 01ba 0221     		movs	r1, #2
 440 01bc 0820     		movs	r0, #8
 441              	.LVL29:
 442 01be FFF7FEFF 		bl	dmaStreamAllocI
 443              	.LVL30:
 444 01c2 2062     		str	r0, [r4, #32]
 445              		.loc 1 325 0
 446 01c4 90B1     		cbz	r0, .L41
 447              	.L31:
 448              		.loc 1 326 0
 449 01c6 2346     		mov	r3, r4
 450 01c8 194A     		ldr	r2, .L43+8
 451 01ca 0221     		movs	r1, #2
 452 01cc 0B20     		movs	r0, #11
 453 01ce FFF7FEFF 		bl	dmaStreamAllocI
 454              	.LVL31:
 455 01d2 6062     		str	r0, [r4, #36]
ARM GAS  C:\Users\RAKIBU~1\AppData\Local\Temp\ccoBOe3a.s 			page 9


 456              		.loc 1 330 0
 457 01d4 70B1     		cbz	r0, .L42
 458              	.L32:
 459              		.loc 1 331 0
 460 01d6 174B     		ldr	r3, .L43+12
 461 01d8 5A6C     		ldr	r2, [r3, #68]
 462 01da 42F48052 		orr	r2, r2, #4096
 463 01de 5A64     		str	r2, [r3, #68]
 464 01e0 5A6E     		ldr	r2, [r3, #100]
 465 01e2 42F48052 		orr	r2, r2, #4096
 466 01e6 5A66     		str	r2, [r3, #100]
 467 01e8 5B6E     		ldr	r3, [r3, #100]
 468 01ea D9E7     		b	.L30
 469              	.L41:
 470              		.loc 1 325 0 discriminator 2
 471 01ec 1248     		ldr	r0, .L43+16
 472 01ee FFF7FEFF 		bl	chSysHalt
 473              	.LVL32:
 474 01f2 E8E7     		b	.L31
 475              	.L42:
 476              		.loc 1 330 0 discriminator 2
 477 01f4 1048     		ldr	r0, .L43+16
 478 01f6 FFF7FEFF 		bl	chSysHalt
 479              	.LVL33:
 480 01fa ECE7     		b	.L32
 481              	.L33:
 482              		.loc 1 425 0
 483 01fc A36A     		ldr	r3, [r4, #40]
 484 01fe 23F4F043 		bic	r3, r3, #30720
 485              		.loc 1 426 0
 486 0202 43F42053 		orr	r3, r3, #10240
 487              		.loc 1 425 0
 488 0206 A362     		str	r3, [r4, #40]
 489              		.loc 1 427 0
 490 0208 E36A     		ldr	r3, [r4, #44]
 491 020a 23F4F043 		bic	r3, r3, #30720
 492              		.loc 1 428 0
 493 020e 43F42053 		orr	r3, r3, #10240
 494              		.loc 1 427 0
 495 0212 E362     		str	r3, [r4, #44]
 496 0214 9EE7     		b	.L34
 497              	.L39:
 498              		.loc 1 432 0
 499 0216 A36A     		ldr	r3, [r4, #40]
 500 0218 43F48473 		orr	r3, r3, #264
 501 021c A362     		str	r3, [r4, #40]
 502              		.loc 1 433 0
 503 021e E36A     		ldr	r3, [r4, #44]
 504 0220 43F48473 		orr	r3, r3, #264
 505 0224 E362     		str	r3, [r4, #44]
 506 0226 A1E7     		b	.L36
 507              	.L44:
 508              		.align	2
 509              	.L43:
 510 0228 00000000 		.word	SPID1
 511 022c 00000000 		.word	spi_lld_serve_rx_interrupt
 512 0230 00000000 		.word	spi_lld_serve_tx_interrupt
ARM GAS  C:\Users\RAKIBU~1\AppData\Local\Temp\ccoBOe3a.s 			page 10


 513 0234 00380240 		.word	1073887232
 514 0238 00000000 		.word	.LANCHOR0
 515              		.cfi_endproc
 516              	.LFE331:
 517              		.size	spi_lld_start, .-spi_lld_start
 518              		.align	1
 519 023c AFF30080 		.p2align 4,,15
 520              		.global	spi_lld_stop
 521              		.syntax unified
 522              		.thumb
 523              		.thumb_func
 524              		.fpu softvfp
 525              		.type	spi_lld_stop, %function
 526              	spi_lld_stop:
 527              	.LFB332:
 528              		.loc 1 456 0
 529              		.cfi_startproc
 530              		@ args = 0, pretend = 0, frame = 0
 531              		@ frame_needed = 0, uses_anonymous_args = 0
 532              	.LVL34:
 533 0240 38B5     		push	{r3, r4, r5, lr}
 534              		.cfi_def_cfa_offset 16
 535              		.cfi_offset 3, -16
 536              		.cfi_offset 4, -12
 537              		.cfi_offset 5, -8
 538              		.cfi_offset 14, -4
 539              		.loc 1 459 0
 540 0242 0378     		ldrb	r3, [r0]	@ zero_extendqisi2
 541 0244 022B     		cmp	r3, #2
 542 0246 00D0     		beq	.L48
 543              	.LVL35:
 544              	.L45:
 545              		.loc 1 495 0
 546 0248 38BD     		pop	{r3, r4, r5, pc}
 547              	.LVL36:
 548              	.L48:
 549 024a 0446     		mov	r4, r0
 550              		.loc 1 462 0
 551 024c C269     		ldr	r2, [r0, #28]
 552 024e 1368     		ldr	r3, [r2]
 553 0250 23F04003 		bic	r3, r3, #64
 554 0254 1360     		str	r3, [r2]
 555              		.loc 1 463 0
 556 0256 C369     		ldr	r3, [r0, #28]
 557 0258 0025     		movs	r5, #0
 558 025a 1D60     		str	r5, [r3]
 559              		.loc 1 464 0
 560 025c C369     		ldr	r3, [r0, #28]
 561 025e 5D60     		str	r5, [r3, #4]
 562              		.loc 1 465 0
 563 0260 006A     		ldr	r0, [r0, #32]
 564              	.LVL37:
 565 0262 FFF7FEFF 		bl	dmaStreamFreeI
 566              	.LVL38:
 567              		.loc 1 466 0
 568 0266 606A     		ldr	r0, [r4, #36]
 569 0268 FFF7FEFF 		bl	dmaStreamFreeI
ARM GAS  C:\Users\RAKIBU~1\AppData\Local\Temp\ccoBOe3a.s 			page 11


 570              	.LVL39:
 571              		.loc 1 467 0
 572 026c 2562     		str	r5, [r4, #32]
 573              		.loc 1 468 0
 574 026e 6562     		str	r5, [r4, #36]
 575              		.loc 1 471 0
 576 0270 064B     		ldr	r3, .L49
 577 0272 9C42     		cmp	r4, r3
 578 0274 E8D1     		bne	.L45
 579              		.loc 1 472 0
 580 0276 064B     		ldr	r3, .L49+4
 581 0278 5A6C     		ldr	r2, [r3, #68]
 582 027a 22F48052 		bic	r2, r2, #4096
 583 027e 5A64     		str	r2, [r3, #68]
 584 0280 5A6E     		ldr	r2, [r3, #100]
 585 0282 22F48052 		bic	r2, r2, #4096
 586 0286 5A66     		str	r2, [r3, #100]
 587 0288 5B6E     		ldr	r3, [r3, #100]
 588              		.loc 1 495 0
 589 028a DDE7     		b	.L45
 590              	.L50:
 591              		.align	2
 592              	.L49:
 593 028c 00000000 		.word	SPID1
 594 0290 00380240 		.word	1073887232
 595              		.cfi_endproc
 596              	.LFE332:
 597              		.size	spi_lld_stop, .-spi_lld_stop
 598              		.align	1
 599 0294 AFF30080 		.p2align 4,,15
 599      AFF30080 
 599      AFF30080 
 600              		.global	spi_lld_ignore
 601              		.syntax unified
 602              		.thumb
 603              		.thumb_func
 604              		.fpu softvfp
 605              		.type	spi_lld_ignore, %function
 606              	spi_lld_ignore:
 607              	.LFB333:
 608              		.loc 1 535 0
 609              		.cfi_startproc
 610              		@ args = 0, pretend = 0, frame = 0
 611              		@ frame_needed = 0, uses_anonymous_args = 0
 612              	.LVL40:
 613 02a0 38B5     		push	{r3, r4, r5, lr}
 614              		.cfi_def_cfa_offset 16
 615              		.cfi_offset 3, -16
 616              		.cfi_offset 4, -12
 617              		.cfi_offset 5, -8
 618              		.cfi_offset 14, -4
 619 02a2 0446     		mov	r4, r0
 620 02a4 0D46     		mov	r5, r1
 621              		.loc 1 537 0
 622 02a6 B1F5803F 		cmp	r1, #65536
 623 02aa 22D2     		bcs	.L54
 624              	.LVL41:
ARM GAS  C:\Users\RAKIBU~1\AppData\Local\Temp\ccoBOe3a.s 			page 12


 625              	.L52:
 626              		.loc 1 539 0
 627 02ac 236A     		ldr	r3, [r4, #32]
 628 02ae 1B68     		ldr	r3, [r3]
 629 02b0 124A     		ldr	r2, .L55
 630 02b2 DA60     		str	r2, [r3, #12]
 631              		.loc 1 540 0
 632 02b4 236A     		ldr	r3, [r4, #32]
 633 02b6 1B68     		ldr	r3, [r3]
 634 02b8 5D60     		str	r5, [r3, #4]
 635              		.loc 1 541 0
 636 02ba 236A     		ldr	r3, [r4, #32]
 637 02bc 1B68     		ldr	r3, [r3]
 638 02be A26A     		ldr	r2, [r4, #40]
 639 02c0 1A60     		str	r2, [r3]
 640              		.loc 1 543 0
 641 02c2 636A     		ldr	r3, [r4, #36]
 642 02c4 1B68     		ldr	r3, [r3]
 643 02c6 0E4A     		ldr	r2, .L55+4
 644 02c8 DA60     		str	r2, [r3, #12]
 645              		.loc 1 544 0
 646 02ca 636A     		ldr	r3, [r4, #36]
 647 02cc 1B68     		ldr	r3, [r3]
 648 02ce 5D60     		str	r5, [r3, #4]
 649              		.loc 1 545 0
 650 02d0 636A     		ldr	r3, [r4, #36]
 651 02d2 1B68     		ldr	r3, [r3]
 652 02d4 E26A     		ldr	r2, [r4, #44]
 653 02d6 1A60     		str	r2, [r3]
 654              		.loc 1 547 0
 655 02d8 236A     		ldr	r3, [r4, #32]
 656 02da 1A68     		ldr	r2, [r3]
 657 02dc 1368     		ldr	r3, [r2]
 658 02de 43F00103 		orr	r3, r3, #1
 659 02e2 1360     		str	r3, [r2]
 660              		.loc 1 548 0
 661 02e4 636A     		ldr	r3, [r4, #36]
 662 02e6 1A68     		ldr	r2, [r3]
 663 02e8 1368     		ldr	r3, [r2]
 664 02ea 43F00103 		orr	r3, r3, #1
 665 02ee 1360     		str	r3, [r2]
 666              		.loc 1 549 0
 667 02f0 38BD     		pop	{r3, r4, r5, pc}
 668              	.LVL42:
 669              	.L54:
 670              		.loc 1 537 0 discriminator 2
 671 02f2 0448     		ldr	r0, .L55+8
 672              	.LVL43:
 673 02f4 FFF7FEFF 		bl	chSysHalt
 674              	.LVL44:
 675 02f8 D8E7     		b	.L52
 676              	.L56:
 677 02fa 00BF     		.align	2
 678              	.L55:
 679 02fc 00000000 		.word	.LANCHOR1
 680 0300 20000000 		.word	.LANCHOR0+32
 681 0304 10000000 		.word	.LANCHOR0+16
ARM GAS  C:\Users\RAKIBU~1\AppData\Local\Temp\ccoBOe3a.s 			page 13


 682              		.cfi_endproc
 683              	.LFE333:
 684              		.size	spi_lld_ignore, .-spi_lld_ignore
 685              		.align	1
 686 0308 AFF30080 		.p2align 4,,15
 686      AFF30080 
 687              		.global	spi_lld_exchange
 688              		.syntax unified
 689              		.thumb
 690              		.thumb_func
 691              		.fpu softvfp
 692              		.type	spi_lld_exchange, %function
 693              	spi_lld_exchange:
 694              	.LFB334:
 695              		.loc 1 567 0
 696              		.cfi_startproc
 697              		@ args = 0, pretend = 0, frame = 0
 698              		@ frame_needed = 0, uses_anonymous_args = 0
 699              	.LVL45:
 700 0310 F8B5     		push	{r3, r4, r5, r6, r7, lr}
 701              		.cfi_def_cfa_offset 24
 702              		.cfi_offset 3, -24
 703              		.cfi_offset 4, -20
 704              		.cfi_offset 5, -16
 705              		.cfi_offset 6, -12
 706              		.cfi_offset 7, -8
 707              		.cfi_offset 14, -4
 708 0312 0446     		mov	r4, r0
 709 0314 0D46     		mov	r5, r1
 710 0316 1646     		mov	r6, r2
 711 0318 1F46     		mov	r7, r3
 712              		.loc 1 569 0
 713 031a B1F5803F 		cmp	r1, #65536
 714 031e 24D2     		bcs	.L60
 715              	.LVL46:
 716              	.L58:
 717              		.loc 1 571 0
 718 0320 236A     		ldr	r3, [r4, #32]
 719 0322 1B68     		ldr	r3, [r3]
 720 0324 DF60     		str	r7, [r3, #12]
 721              		.loc 1 572 0
 722 0326 236A     		ldr	r3, [r4, #32]
 723 0328 1B68     		ldr	r3, [r3]
 724 032a 5D60     		str	r5, [r3, #4]
 725              		.loc 1 573 0
 726 032c A36A     		ldr	r3, [r4, #40]
 727 032e 226A     		ldr	r2, [r4, #32]
 728 0330 1268     		ldr	r2, [r2]
 729 0332 43F48063 		orr	r3, r3, #1024
 730 0336 1360     		str	r3, [r2]
 731              		.loc 1 575 0
 732 0338 636A     		ldr	r3, [r4, #36]
 733 033a 1B68     		ldr	r3, [r3]
 734 033c DE60     		str	r6, [r3, #12]
 735              		.loc 1 576 0
 736 033e 636A     		ldr	r3, [r4, #36]
 737 0340 1B68     		ldr	r3, [r3]
ARM GAS  C:\Users\RAKIBU~1\AppData\Local\Temp\ccoBOe3a.s 			page 14


 738 0342 5D60     		str	r5, [r3, #4]
 739              		.loc 1 577 0
 740 0344 E36A     		ldr	r3, [r4, #44]
 741 0346 626A     		ldr	r2, [r4, #36]
 742 0348 1268     		ldr	r2, [r2]
 743 034a 43F48063 		orr	r3, r3, #1024
 744 034e 1360     		str	r3, [r2]
 745              		.loc 1 579 0
 746 0350 236A     		ldr	r3, [r4, #32]
 747 0352 1A68     		ldr	r2, [r3]
 748 0354 1368     		ldr	r3, [r2]
 749 0356 43F00103 		orr	r3, r3, #1
 750 035a 1360     		str	r3, [r2]
 751              		.loc 1 580 0
 752 035c 636A     		ldr	r3, [r4, #36]
 753 035e 1A68     		ldr	r2, [r3]
 754 0360 1368     		ldr	r3, [r2]
 755 0362 43F00103 		orr	r3, r3, #1
 756 0366 1360     		str	r3, [r2]
 757              		.loc 1 581 0
 758 0368 F8BD     		pop	{r3, r4, r5, r6, r7, pc}
 759              	.LVL47:
 760              	.L60:
 761              		.loc 1 569 0 discriminator 2
 762 036a 0248     		ldr	r0, .L61
 763              	.LVL48:
 764 036c FFF7FEFF 		bl	chSysHalt
 765              	.LVL49:
 766 0370 D6E7     		b	.L58
 767              	.L62:
 768 0372 00BF     		.align	2
 769              	.L61:
 770 0374 24000000 		.word	.LANCHOR0+36
 771              		.cfi_endproc
 772              	.LFE334:
 773              		.size	spi_lld_exchange, .-spi_lld_exchange
 774              		.align	1
 775 0378 AFF30080 		.p2align 4,,15
 775      AFF30080 
 776              		.global	spi_lld_send
 777              		.syntax unified
 778              		.thumb
 779              		.thumb_func
 780              		.fpu softvfp
 781              		.type	spi_lld_send, %function
 782              	spi_lld_send:
 783              	.LFB335:
 784              		.loc 1 596 0
 785              		.cfi_startproc
 786              		@ args = 0, pretend = 0, frame = 0
 787              		@ frame_needed = 0, uses_anonymous_args = 0
 788              	.LVL50:
 789 0380 70B5     		push	{r4, r5, r6, lr}
 790              		.cfi_def_cfa_offset 16
 791              		.cfi_offset 4, -16
 792              		.cfi_offset 5, -12
 793              		.cfi_offset 6, -8
ARM GAS  C:\Users\RAKIBU~1\AppData\Local\Temp\ccoBOe3a.s 			page 15


 794              		.cfi_offset 14, -4
 795 0382 0446     		mov	r4, r0
 796 0384 0D46     		mov	r5, r1
 797 0386 1646     		mov	r6, r2
 798              		.loc 1 598 0
 799 0388 B1F5803F 		cmp	r1, #65536
 800 038c 23D2     		bcs	.L66
 801              	.LVL51:
 802              	.L64:
 803              		.loc 1 600 0
 804 038e 236A     		ldr	r3, [r4, #32]
 805 0390 1B68     		ldr	r3, [r3]
 806 0392 134A     		ldr	r2, .L67
 807 0394 DA60     		str	r2, [r3, #12]
 808              		.loc 1 601 0
 809 0396 236A     		ldr	r3, [r4, #32]
 810 0398 1B68     		ldr	r3, [r3]
 811 039a 5D60     		str	r5, [r3, #4]
 812              		.loc 1 602 0
 813 039c 236A     		ldr	r3, [r4, #32]
 814 039e 1B68     		ldr	r3, [r3]
 815 03a0 A26A     		ldr	r2, [r4, #40]
 816 03a2 1A60     		str	r2, [r3]
 817              		.loc 1 604 0
 818 03a4 636A     		ldr	r3, [r4, #36]
 819 03a6 1B68     		ldr	r3, [r3]
 820 03a8 DE60     		str	r6, [r3, #12]
 821              		.loc 1 605 0
 822 03aa 636A     		ldr	r3, [r4, #36]
 823 03ac 1B68     		ldr	r3, [r3]
 824 03ae 5D60     		str	r5, [r3, #4]
 825              		.loc 1 606 0
 826 03b0 E36A     		ldr	r3, [r4, #44]
 827 03b2 626A     		ldr	r2, [r4, #36]
 828 03b4 1268     		ldr	r2, [r2]
 829 03b6 43F48063 		orr	r3, r3, #1024
 830 03ba 1360     		str	r3, [r2]
 831              		.loc 1 608 0
 832 03bc 236A     		ldr	r3, [r4, #32]
 833 03be 1A68     		ldr	r2, [r3]
 834 03c0 1368     		ldr	r3, [r2]
 835 03c2 43F00103 		orr	r3, r3, #1
 836 03c6 1360     		str	r3, [r2]
 837              		.loc 1 609 0
 838 03c8 636A     		ldr	r3, [r4, #36]
 839 03ca 1A68     		ldr	r2, [r3]
 840 03cc 1368     		ldr	r3, [r2]
 841 03ce 43F00103 		orr	r3, r3, #1
 842 03d2 1360     		str	r3, [r2]
 843              		.loc 1 610 0
 844 03d4 70BD     		pop	{r4, r5, r6, pc}
 845              	.LVL52:
 846              	.L66:
 847              		.loc 1 598 0 discriminator 2
 848 03d6 0348     		ldr	r0, .L67+4
 849              	.LVL53:
 850 03d8 FFF7FEFF 		bl	chSysHalt
ARM GAS  C:\Users\RAKIBU~1\AppData\Local\Temp\ccoBOe3a.s 			page 16


 851              	.LVL54:
 852 03dc D7E7     		b	.L64
 853              	.L68:
 854 03de 00BF     		.align	2
 855              	.L67:
 856 03e0 00000000 		.word	.LANCHOR1
 857 03e4 38000000 		.word	.LANCHOR0+56
 858              		.cfi_endproc
 859              	.LFE335:
 860              		.size	spi_lld_send, .-spi_lld_send
 861              		.align	1
 862 03e8 AFF30080 		.p2align 4,,15
 862      AFF30080 
 863              		.global	spi_lld_receive
 864              		.syntax unified
 865              		.thumb
 866              		.thumb_func
 867              		.fpu softvfp
 868              		.type	spi_lld_receive, %function
 869              	spi_lld_receive:
 870              	.LFB336:
 871              		.loc 1 625 0
 872              		.cfi_startproc
 873              		@ args = 0, pretend = 0, frame = 0
 874              		@ frame_needed = 0, uses_anonymous_args = 0
 875              	.LVL55:
 876 03f0 70B5     		push	{r4, r5, r6, lr}
 877              		.cfi_def_cfa_offset 16
 878              		.cfi_offset 4, -16
 879              		.cfi_offset 5, -12
 880              		.cfi_offset 6, -8
 881              		.cfi_offset 14, -4
 882 03f2 0446     		mov	r4, r0
 883 03f4 0D46     		mov	r5, r1
 884 03f6 1646     		mov	r6, r2
 885              		.loc 1 627 0
 886 03f8 B1F5803F 		cmp	r1, #65536
 887 03fc 23D2     		bcs	.L72
 888              	.LVL56:
 889              	.L70:
 890              		.loc 1 629 0
 891 03fe 236A     		ldr	r3, [r4, #32]
 892 0400 1B68     		ldr	r3, [r3]
 893 0402 DE60     		str	r6, [r3, #12]
 894              		.loc 1 630 0
 895 0404 236A     		ldr	r3, [r4, #32]
 896 0406 1B68     		ldr	r3, [r3]
 897 0408 5D60     		str	r5, [r3, #4]
 898              		.loc 1 631 0
 899 040a A36A     		ldr	r3, [r4, #40]
 900 040c 226A     		ldr	r2, [r4, #32]
 901 040e 1268     		ldr	r2, [r2]
 902 0410 43F48063 		orr	r3, r3, #1024
 903 0414 1360     		str	r3, [r2]
 904              		.loc 1 633 0
 905 0416 636A     		ldr	r3, [r4, #36]
 906 0418 1B68     		ldr	r3, [r3]
ARM GAS  C:\Users\RAKIBU~1\AppData\Local\Temp\ccoBOe3a.s 			page 17


 907 041a 0D4A     		ldr	r2, .L73
 908 041c DA60     		str	r2, [r3, #12]
 909              		.loc 1 634 0
 910 041e 636A     		ldr	r3, [r4, #36]
 911 0420 1B68     		ldr	r3, [r3]
 912 0422 5D60     		str	r5, [r3, #4]
 913              		.loc 1 635 0
 914 0424 636A     		ldr	r3, [r4, #36]
 915 0426 1B68     		ldr	r3, [r3]
 916 0428 E26A     		ldr	r2, [r4, #44]
 917 042a 1A60     		str	r2, [r3]
 918              		.loc 1 637 0
 919 042c 236A     		ldr	r3, [r4, #32]
 920 042e 1A68     		ldr	r2, [r3]
 921 0430 1368     		ldr	r3, [r2]
 922 0432 43F00103 		orr	r3, r3, #1
 923 0436 1360     		str	r3, [r2]
 924              		.loc 1 638 0
 925 0438 636A     		ldr	r3, [r4, #36]
 926 043a 1A68     		ldr	r2, [r3]
 927 043c 1368     		ldr	r3, [r2]
 928 043e 43F00103 		orr	r3, r3, #1
 929 0442 1360     		str	r3, [r2]
 930              		.loc 1 639 0
 931 0444 70BD     		pop	{r4, r5, r6, pc}
 932              	.LVL57:
 933              	.L72:
 934              		.loc 1 627 0 discriminator 2
 935 0446 0348     		ldr	r0, .L73+4
 936              	.LVL58:
 937 0448 FFF7FEFF 		bl	chSysHalt
 938              	.LVL59:
 939 044c D7E7     		b	.L70
 940              	.L74:
 941 044e 00BF     		.align	2
 942              	.L73:
 943 0450 20000000 		.word	.LANCHOR0+32
 944 0454 48000000 		.word	.LANCHOR0+72
 945              		.cfi_endproc
 946              	.LFE336:
 947              		.size	spi_lld_receive, .-spi_lld_receive
 948              		.align	1
 949 0458 AFF30080 		.p2align 4,,15
 949      AFF30080 
 950              		.global	spi_lld_abort
 951              		.syntax unified
 952              		.thumb
 953              		.thumb_func
 954              		.fpu softvfp
 955              		.type	spi_lld_abort, %function
 956              	spi_lld_abort:
 957              	.LFB337:
 958              		.loc 1 649 0
 959              		.cfi_startproc
 960              		@ args = 0, pretend = 0, frame = 0
 961              		@ frame_needed = 0, uses_anonymous_args = 0
 962              		@ link register save eliminated.
ARM GAS  C:\Users\RAKIBU~1\AppData\Local\Temp\ccoBOe3a.s 			page 18


 963              	.LVL60:
 964              		.loc 1 652 0
 965 0460 436A     		ldr	r3, [r0, #36]
 966 0462 1A68     		ldr	r2, [r3]
 967 0464 1368     		ldr	r3, [r2]
 968 0466 23F01F03 		bic	r3, r3, #31
 969 046a 1360     		str	r3, [r2]
 970              	.L76:
 971              		.loc 1 652 0 is_stmt 0 discriminator 2
 972 046c 436A     		ldr	r3, [r0, #36]
 973 046e 1A68     		ldr	r2, [r3]
 974 0470 1268     		ldr	r2, [r2]
 975 0472 12F0010F 		tst	r2, #1
 976 0476 F9D1     		bne	.L76
 977              		.loc 1 652 0 discriminator 3
 978 0478 597A     		ldrb	r1, [r3, #9]	@ zero_extendqisi2
 979 047a 5A68     		ldr	r2, [r3, #4]
 980 047c 3D23     		movs	r3, #61
 981 047e 8B40     		lsls	r3, r3, r1
 982 0480 1360     		str	r3, [r2]
 983              		.loc 1 653 0 is_stmt 1 discriminator 3
 984 0482 036A     		ldr	r3, [r0, #32]
 985 0484 1A68     		ldr	r2, [r3]
 986 0486 1368     		ldr	r3, [r2]
 987 0488 23F01F03 		bic	r3, r3, #31
 988 048c 1360     		str	r3, [r2]
 989              	.L77:
 990              		.loc 1 653 0 is_stmt 0 discriminator 2
 991 048e 036A     		ldr	r3, [r0, #32]
 992 0490 1A68     		ldr	r2, [r3]
 993 0492 1268     		ldr	r2, [r2]
 994 0494 12F0010F 		tst	r2, #1
 995 0498 F9D1     		bne	.L77
 996              		.loc 1 653 0 discriminator 3
 997 049a 597A     		ldrb	r1, [r3, #9]	@ zero_extendqisi2
 998 049c 5A68     		ldr	r2, [r3, #4]
 999 049e 3D23     		movs	r3, #61
 1000 04a0 8B40     		lsls	r3, r3, r1
 1001 04a2 1360     		str	r3, [r2]
 1002              		.loc 1 654 0 is_stmt 1 discriminator 3
 1003 04a4 7047     		bx	lr
 1004              		.cfi_endproc
 1005              	.LFE337:
 1006              		.size	spi_lld_abort, .-spi_lld_abort
 1007              		.align	1
 1008 04a6 00BFAFF3 		.p2align 4,,15
 1008      0080AFF3 
 1008      0080
 1009              		.global	spi_lld_polled_exchange
 1010              		.syntax unified
 1011              		.thumb
 1012              		.thumb_func
 1013              		.fpu softvfp
 1014              		.type	spi_lld_polled_exchange, %function
 1015              	spi_lld_polled_exchange:
 1016              	.LFB338:
 1017              		.loc 1 669 0
ARM GAS  C:\Users\RAKIBU~1\AppData\Local\Temp\ccoBOe3a.s 			page 19


 1018              		.cfi_startproc
 1019              		@ args = 0, pretend = 0, frame = 0
 1020              		@ frame_needed = 0, uses_anonymous_args = 0
 1021              		@ link register save eliminated.
 1022              	.LVL61:
 1023              		.loc 1 671 0
 1024 04b0 C369     		ldr	r3, [r0, #28]
 1025 04b2 D960     		str	r1, [r3, #12]
 1026              	.L79:
 1027              		.loc 1 672 0 discriminator 1
 1028 04b4 C369     		ldr	r3, [r0, #28]
 1029 04b6 9A68     		ldr	r2, [r3, #8]
 1030 04b8 12F0010F 		tst	r2, #1
 1031 04bc FAD0     		beq	.L79
 1032              		.loc 1 674 0
 1033 04be D868     		ldr	r0, [r3, #12]
 1034              	.LVL62:
 1035              		.loc 1 675 0
 1036 04c0 80B2     		uxth	r0, r0
 1037 04c2 7047     		bx	lr
 1038              		.cfi_endproc
 1039              	.LFE338:
 1040              		.size	spi_lld_polled_exchange, .-spi_lld_polled_exchange
 1041              		.comm	SPID1,48,4
 1042              		.section	.rodata
 1043              		.align	2
 1044              		.set	.LANCHOR0,. + 0
 1045              		.type	__func__.8987, %object
 1046              		.size	__func__.8987, 14
 1047              	__func__.8987:
 1048 0000 7370695F 		.ascii	"spi_lld_start\000"
 1048      6C6C645F 
 1048      73746172 
 1048      7400
 1049 000e 0000     		.space	2
 1050              		.type	__func__.8995, %object
 1051              		.size	__func__.8995, 15
 1052              	__func__.8995:
 1053 0010 7370695F 		.ascii	"spi_lld_ignore\000"
 1053      6C6C645F 
 1053      69676E6F 
 1053      726500
 1054 001f 00       		.space	1
 1055              		.type	dummytx, %object
 1056              		.size	dummytx, 2
 1057              	dummytx:
 1058 0020 FFFF     		.short	-1
 1059 0022 0000     		.space	2
 1060              		.type	__func__.9002, %object
 1061              		.size	__func__.9002, 17
 1062              	__func__.9002:
 1063 0024 7370695F 		.ascii	"spi_lld_exchange\000"
 1063      6C6C645F 
 1063      65786368 
 1063      616E6765 
 1063      00
 1064 0035 000000   		.space	3
ARM GAS  C:\Users\RAKIBU~1\AppData\Local\Temp\ccoBOe3a.s 			page 20


 1065              		.type	__func__.9008, %object
 1066              		.size	__func__.9008, 13
 1067              	__func__.9008:
 1068 0038 7370695F 		.ascii	"spi_lld_send\000"
 1068      6C6C645F 
 1068      73656E64 
 1068      00
 1069 0045 000000   		.space	3
 1070              		.type	__func__.9014, %object
 1071              		.size	__func__.9014, 16
 1072              	__func__.9014:
 1073 0048 7370695F 		.ascii	"spi_lld_receive\000"
 1073      6C6C645F 
 1073      72656365 
 1073      69766500 
 1074              		.bss
 1075              		.align	1
 1076              		.set	.LANCHOR1,. + 0
 1077              		.type	dummyrx, %object
 1078              		.size	dummyrx, 2
 1079              	dummyrx:
 1080 0000 0000     		.space	2
 1081              		.section	.rodata.str1.4,"aMS",%progbits,1
 1082              		.align	2
 1083              	.LC0:
 1084 0000 444D4120 		.ascii	"DMA failure\000"
 1084      6661696C 
 1084      75726500 
 1085              		.text
 1086              	.Letext0:
 1087              		.file 5 "c:\\chibistudio\\tools\\gnu tools arm embedded\\7.0 2017q4\\lib\\gcc\\arm-none-eabi\\7.2.
 1088              		.file 6 "c:\\chibistudio\\tools\\gnu tools arm embedded\\7.0 2017q4\\arm-none-eabi\\include\\machi
 1089              		.file 7 "c:\\chibistudio\\tools\\gnu tools arm embedded\\7.0 2017q4\\arm-none-eabi\\include\\sys\\
 1090              		.file 8 "c:\\chibistudio\\tools\\gnu tools arm embedded\\7.0 2017q4\\arm-none-eabi\\include\\stdin
 1091              		.file 9 "../../../ChibiOSRepo/chibios191/os/common/ports/ARMCMx/compilers/GCC/chtypes.h"
 1092              		.file 10 "../../../ChibiOSRepo/chibios191/os/rt/include/chsystypes.h"
 1093              		.file 11 "../../../ChibiOSRepo/chibios191/os/rt/include/chschd.h"
 1094              		.file 12 "../../../ChibiOSRepo/chibios191/os/rt/include/chtime.h"
 1095              		.file 13 "../../../ChibiOSRepo/chibios191/os/common/ext/ARM/CMSIS/Core/Include/core_cm4.h"
 1096              		.file 14 "../../../ChibiOSRepo/chibios191/os/common/ext/ST/STM32F4xx/system_stm32f4xx.h"
 1097              		.file 15 "../../../ChibiOSRepo/chibios191/os/common/ext/ST/STM32F4xx/stm32f407xx.h"
 1098              		.file 16 "../../../ChibiOSRepo/chibios191/os/common/ports/ARMCMx/chcore.h"
 1099              		.file 17 "../../../ChibiOSRepo/chibios191/os/common/ports/ARMCMx/chcore_v7m.h"
 1100              		.file 18 "../../../ChibiOSRepo/chibios191/os/hal/ports/STM32/LLD/TIMv1/stm32_tim.h"
 1101              		.file 19 "../../../ChibiOSRepo/chibios191/os/rt/include/chtrace.h"
 1102              		.file 20 "../../../ChibiOSRepo/chibios191/os/rt/include/chtm.h"
 1103              		.file 21 "../../../ChibiOSRepo/chibios191/os/rt/include/chstats.h"
 1104              		.file 22 "../../../ChibiOSRepo/chibios191/os/rt/include/chsem.h"
 1105              		.file 23 "../../../ChibiOSRepo/chibios191/os/rt/include/chmtx.h"
 1106              		.file 24 "../../../ChibiOSRepo/chibios191/os/rt/include/chregistry.h"
 1107              		.file 25 "../../../ChibiOSRepo/chibios191/os/rt/include/chevents.h"
 1108              		.file 26 "../../../ChibiOSRepo/chibios191/os/oslib/include/chmemcore.h"
 1109              		.file 27 "../../../ChibiOSRepo/chibios191/os/oslib/include/chmempools.h"
 1110              		.file 28 "../../../ChibiOSRepo/chibios191/os/oslib/include/chfactory.h"
 1111              		.file 29 "../../../ChibiOSRepo/chibios191/os/hal/ports/STM32/LLD/DMAv2/stm32_dma.h"
 1112              		.file 30 "../../../ChibiOSRepo/chibios191/os/hal/include/hal_ioblock.h"
 1113              		.file 31 "../../../ChibiOSRepo/chibios191/os/hal/include/hal_persistent.h"
ARM GAS  C:\Users\RAKIBU~1\AppData\Local\Temp\ccoBOe3a.s 			page 21


 1114              		.file 32 "../../../ChibiOSRepo/chibios191/os/hal/include/hal_queues.h"
 1115              		.file 33 "../../../ChibiOSRepo/chibios191/os/hal/include/hal_pal.h"
 1116              		.file 34 "../../../ChibiOSRepo/chibios191/os/hal/ports/STM32/LLD/GPIOv2/stm32_gpio.h"
 1117              		.file 35 "../../../ChibiOSRepo/chibios191/os/hal/ports/STM32/LLD/GPIOv2/hal_pal_lld.h"
 1118              		.file 36 "../../../ChibiOSRepo/chibios191/os/hal/include/hal_gpt.h"
 1119              		.file 37 "../../../ChibiOSRepo/chibios191/os/hal/ports/STM32/LLD/TIMv1/hal_gpt_lld.h"
 1120              		.file 38 "../../../ChibiOSRepo/chibios191/os/hal/include/hal_i2c.h"
 1121              		.file 39 "../../../ChibiOSRepo/chibios191/os/hal/ports/STM32/LLD/I2Cv1/hal_i2c_lld.h"
 1122              		.file 40 "c:\\chibistudio\\tools\\gnu tools arm embedded\\7.0 2017q4\\arm-none-eabi\\include\\sys\
 1123              		.file 41 "c:\\chibistudio\\tools\\gnu tools arm embedded\\7.0 2017q4\\arm-none-eabi\\include\\sys\
 1124              		.file 42 "c:\\chibistudio\\tools\\gnu tools arm embedded\\7.0 2017q4\\arm-none-eabi\\include\\sys\
 1125              		.file 43 "c:\\chibistudio\\tools\\gnu tools arm embedded\\7.0 2017q4\\arm-none-eabi\\include\\time
 1126              		.file 44 "../../../ChibiOSRepo/chibios191/os/hal/include/hal_rtc.h"
 1127              		.file 45 "../../../ChibiOSRepo/chibios191/os/hal/ports/STM32/LLD/RTCv2/hal_rtc_lld.h"
 1128              		.file 46 "../../../ChibiOSRepo/chibios191/os/hal/include/hal_serial.h"
 1129              		.file 47 "../../../ChibiOSRepo/chibios191/os/hal/ports/STM32/LLD/USARTv1/hal_serial_lld.h"
 1130              		.file 48 "../../../ChibiOSRepo/chibios191/os/hal/include/hal_sdc.h"
 1131              		.file 49 "../../../ChibiOSRepo/chibios191/os/hal/ports/STM32/LLD/SDIOv1/hal_sdc_lld.h"
 1132              		.file 50 "../../../ChibiOSRepo/chibios191/os/hal/include/hal_spi.h"
 1133              		.file 51 "../../../ChibiOSRepo/chibios191/os/hal/ports/STM32/LLD/SPIv1/hal_spi_lld.h"
 1134              		.file 52 "../../../ChibiOSRepo/chibios191/os/rt/include/ch.h"
 1135              		.file 53 "../../../ChibiOSRepo/chibios191/os/rt/include/chdebug.h"
 1136              		.file 54 "../../../ChibiOSRepo/chibios191/os/rt/include/chthreads.h"