ARM GAS  C:\Users\RAKIBU~1\AppData\Local\Temp\ccvAKyma.s 			page 1


   1              		.cpu cortex-m4
   2              		.eabi_attribute 20, 1
   3              		.eabi_attribute 21, 1
   4              		.eabi_attribute 23, 3
   5              		.eabi_attribute 24, 1
   6              		.eabi_attribute 25, 1
   7              		.eabi_attribute 26, 1
   8              		.eabi_attribute 30, 1
   9              		.eabi_attribute 34, 1
  10              		.eabi_attribute 18, 4
  11              		.file	"hal_sdc_lld.c"
  12              		.text
  13              	.Ltext0:
  14              		.cfi_sections	.debug_frame
  15              		.align	1
  16              		.p2align 4,,15
  17              		.syntax unified
  18              		.thumb
  19              		.thumb_func
  20              		.fpu softvfp
  21              		.type	sdc_lld_collect_errors, %function
  22              	sdc_lld_collect_errors:
  23              	.LFB332:
  24              		.file 1 "../../../ChibiOSRepo/chibios191/os/hal/ports/STM32/LLD/SDIOv1/hal_sdc_lld.c"
  25              		.loc 1 260 0
  26              		.cfi_startproc
  27              		@ args = 0, pretend = 0, frame = 0
  28              		@ frame_needed = 0, uses_anonymous_args = 0
  29              		@ link register save eliminated.
  30              	.LVL0:
  31              		.loc 1 263 0
  32 0000 11F0010F 		tst	r1, #1
  33 0004 22D1     		bne	.L9
  34              		.loc 1 261 0
  35 0006 0023     		movs	r3, #0
  36              	.L2:
  37              	.LVL1:
  38              		.loc 1 265 0
  39 0008 11F0020F 		tst	r1, #2
  40 000c 01D0     		beq	.L3
  41              		.loc 1 266 0
  42 000e 43F00203 		orr	r3, r3, #2
  43              	.LVL2:
  44              	.L3:
  45              		.loc 1 267 0
  46 0012 11F0040F 		tst	r1, #4
  47 0016 01D0     		beq	.L4
  48              		.loc 1 268 0
  49 0018 43F00803 		orr	r3, r3, #8
  50              	.LVL3:
  51              	.L4:
  52              		.loc 1 269 0
  53 001c 11F0080F 		tst	r1, #8
  54 0020 01D0     		beq	.L5
  55              		.loc 1 270 0
  56 0022 43F00403 		orr	r3, r3, #4
  57              	.LVL4:
ARM GAS  C:\Users\RAKIBU~1\AppData\Local\Temp\ccvAKyma.s 			page 2


  58              	.L5:
  59              		.loc 1 271 0
  60 0026 11F0100F 		tst	r1, #16
  61 002a 01D0     		beq	.L6
  62              		.loc 1 272 0
  63 002c 43F01003 		orr	r3, r3, #16
  64              	.LVL5:
  65              	.L6:
  66              		.loc 1 273 0
  67 0030 11F0200F 		tst	r1, #32
  68 0034 01D0     		beq	.L7
  69              		.loc 1 274 0
  70 0036 43F02003 		orr	r3, r3, #32
  71              	.LVL6:
  72              	.L7:
  73              		.loc 1 275 0
  74 003a 11F4007F 		tst	r1, #512
  75 003e 01D0     		beq	.L8
  76              		.loc 1 276 0
  77 0040 43F04003 		orr	r3, r3, #64
  78              	.LVL7:
  79              	.L8:
  80              		.loc 1 278 0
  81 0044 426B     		ldr	r2, [r0, #52]
  82 0046 1343     		orrs	r3, r3, r2
  83              	.LVL8:
  84 0048 4363     		str	r3, [r0, #52]
  85              		.loc 1 279 0
  86 004a 7047     		bx	lr
  87              	.LVL9:
  88              	.L9:
  89              		.loc 1 264 0
  90 004c 0123     		movs	r3, #1
  91 004e DBE7     		b	.L2
  92              		.cfi_endproc
  93              	.LFE332:
  94              		.size	sdc_lld_collect_errors, .-sdc_lld_collect_errors
  95              		.align	1
  96              		.p2align 4,,15
  97              		.syntax unified
  98              		.thumb
  99              		.thumb_func
 100              		.fpu softvfp
 101              		.type	sdc_lld_prepare_read_bytes, %function
 102              	sdc_lld_prepare_read_bytes:
 103              	.LFB328:
 104              		.loc 1 87 0
 105              		.cfi_startproc
 106              		@ args = 0, pretend = 0, frame = 0
 107              		@ frame_needed = 0, uses_anonymous_args = 0
 108              	.LVL10:
 109 0050 70B5     		push	{r4, r5, r6, lr}
 110              		.cfi_def_cfa_offset 16
 111              		.cfi_offset 4, -16
 112              		.cfi_offset 5, -12
 113              		.cfi_offset 6, -8
 114              		.cfi_offset 14, -4
ARM GAS  C:\Users\RAKIBU~1\AppData\Local\Temp\ccvAKyma.s 			page 3


 115 0052 0446     		mov	r4, r0
 116 0054 0E46     		mov	r6, r1
 117 0056 1546     		mov	r5, r2
 118              		.loc 1 88 0
 119 0058 B2F1807F 		cmp	r2, #16777216
 120 005c 26D2     		bcs	.L14
 121              	.LVL11:
 122              	.L11:
 123              		.loc 1 90 0
 124 005e A36C     		ldr	r3, [r4, #72]
 125 0060 144A     		ldr	r2, .L15
 126 0062 5A62     		str	r2, [r3, #36]
 127              		.loc 1 93 0
 128 0064 2046     		mov	r0, r4
 129 0066 FFF7FEFF 		bl	_sdc_wait_for_transfer_state
 130              	.LVL12:
 131 006a 0246     		mov	r2, r0
 132 006c E0B9     		cbnz	r0, .L12
 133              		.loc 1 97 0
 134 006e 636C     		ldr	r3, [r4, #68]
 135 0070 1B68     		ldr	r3, [r3]
 136 0072 DE60     		str	r6, [r3, #12]
 137              		.loc 1 98 0
 138 0074 636C     		ldr	r3, [r4, #68]
 139 0076 1B68     		ldr	r3, [r3]
 140 0078 A908     		lsrs	r1, r5, #2
 141 007a 5960     		str	r1, [r3, #4]
 142              		.loc 1 99 0
 143 007c 636C     		ldr	r3, [r4, #68]
 144 007e 1B68     		ldr	r3, [r3]
 145 0080 216C     		ldr	r1, [r4, #64]
 146 0082 1960     		str	r1, [r3]
 147              		.loc 1 100 0
 148 0084 636C     		ldr	r3, [r4, #68]
 149 0086 1968     		ldr	r1, [r3]
 150 0088 0B68     		ldr	r3, [r1]
 151 008a 43F00103 		orr	r3, r3, #1
 152 008e 0B60     		str	r3, [r1]
 153              		.loc 1 103 0
 154 0090 A36C     		ldr	r3, [r4, #72]
 155 0092 0949     		ldr	r1, .L15+4
 156 0094 9963     		str	r1, [r3, #56]
 157              		.loc 1 104 0
 158 0096 A36C     		ldr	r3, [r4, #72]
 159 0098 40F22A31 		movw	r1, #810
 160 009c D963     		str	r1, [r3, #60]
 161              		.loc 1 109 0
 162 009e A36C     		ldr	r3, [r4, #72]
 163 00a0 9D62     		str	r5, [r3, #40]
 164              		.loc 1 112 0
 165 00a2 A36C     		ldr	r3, [r4, #72]
 166 00a4 0F21     		movs	r1, #15
 167 00a6 D962     		str	r1, [r3, #44]
 168              	.L12:
 169              		.loc 1 118 0
 170 00a8 1046     		mov	r0, r2
 171 00aa 70BD     		pop	{r4, r5, r6, pc}
ARM GAS  C:\Users\RAKIBU~1\AppData\Local\Temp\ccvAKyma.s 			page 4


 172              	.LVL13:
 173              	.L14:
 174              		.loc 1 88 0 discriminator 2
 175 00ac 0348     		ldr	r0, .L15+8
 176              	.LVL14:
 177 00ae FFF7FEFF 		bl	chSysHalt
 178              	.LVL15:
 179 00b2 D4E7     		b	.L11
 180              	.L16:
 181              		.align	2
 182              	.L15:
 183 00b4 00366E01 		.word	24000000
 184 00b8 FF07C000 		.word	12584959
 185 00bc 00000000 		.word	.LANCHOR0
 186              		.cfi_endproc
 187              	.LFE328:
 188              		.size	sdc_lld_prepare_read_bytes, .-sdc_lld_prepare_read_bytes
 189              		.align	1
 190              		.p2align 4,,15
 191              		.global	Vector104
 192              		.syntax unified
 193              		.thumb
 194              		.thumb_func
 195              		.fpu softvfp
 196              		.type	Vector104, %function
 197              	Vector104:
 198              	.LFB334:
 199              		.loc 1 319 0
 200              		.cfi_startproc
 201              		@ args = 0, pretend = 0, frame = 0
 202              		@ frame_needed = 0, uses_anonymous_args = 0
 203 00c0 38B5     		push	{r3, r4, r5, lr}
 204              		.cfi_def_cfa_offset 16
 205              		.cfi_offset 3, -16
 206              		.cfi_offset 4, -12
 207              		.cfi_offset 5, -8
 208              		.cfi_offset 14, -4
 209              		.loc 1 321 0
 210 00c2 FFF7FEFF 		bl	_stats_increase_irq
 211              	.LVL16:
 212 00c6 114D     		ldr	r5, .L19
 213 00c8 2846     		mov	r0, r5
 214 00ca FFF7FEFF 		bl	_trace_isr_enter
 215              	.LVL17:
 216 00ce FFF7FEFF 		bl	_dbg_check_enter_isr
 217              	.LVL18:
 218              	.LBB82:
 219              	.LBB83:
 220              	.LBB84:
 221              	.LBB85:
 222              	.LBB86:
 223              	.LBB87:
 224              	.LBB88:
 225              		.file 2 "../../../ChibiOSRepo/chibios191/os/common/ext/ARM/CMSIS/Core/Include/cmsis_gcc.h"
 226              		.loc 2 493 0
 227 00d2 2023     		movs	r3, #32
 228              		.syntax unified
ARM GAS  C:\Users\RAKIBU~1\AppData\Local\Temp\ccvAKyma.s 			page 5


 229              	@ 493 "../../../ChibiOSRepo/chibios191/os/common/ext/ARM/CMSIS/Core/Include/cmsis_gcc.h" 1
 230 00d4 83F31188 		MSR basepri, r3
 231              	@ 0 "" 2
 232              	.LVL19:
 233              		.thumb
 234              		.syntax unified
 235              	.LBE88:
 236              	.LBE87:
 237              	.LBE86:
 238              	.LBE85:
 239              		.file 3 "../../../ChibiOSRepo/chibios191/os/rt/include/chsys.h"
 240              		.loc 3 396 0
 241 00d8 FFF7FEFF 		bl	_stats_start_measure_crit_isr
 242              	.LVL20:
 243              		.loc 3 397 0
 244 00dc FFF7FEFF 		bl	_dbg_check_lock_from_isr
 245              	.LVL21:
 246              	.LBE84:
 247              	.LBE83:
 248              	.LBE82:
 249              		.loc 1 327 0
 250 00e0 0024     		movs	r4, #0
 251 00e2 0B4B     		ldr	r3, .L19+4
 252 00e4 DC63     		str	r4, [r3, #60]
 253              	.LVL22:
 254              	.LBB89:
 255              	.LBB90:
 256              		.file 4 "../../../ChibiOSRepo/chibios191/os/hal/osal/rt/osal.h"
 257              		.loc 4 775 0
 258 00e6 2146     		mov	r1, r4
 259 00e8 0A48     		ldr	r0, .L19+8
 260              	.LVL23:
 261 00ea FFF7FEFF 		bl	chThdResumeI
 262              	.LVL24:
 263              	.LBE90:
 264              	.LBE89:
 265              	.LBB91:
 266              	.LBB92:
 267              	.LBB93:
 268              		.loc 3 415 0
 269 00ee FFF7FEFF 		bl	_dbg_check_unlock_from_isr
 270              	.LVL25:
 271              		.loc 3 416 0
 272 00f2 FFF7FEFF 		bl	_stats_stop_measure_crit_isr
 273              	.LVL26:
 274              	.LBB94:
 275              	.LBB95:
 276              	.LBB96:
 277              	.LBB97:
 278              		.loc 2 493 0
 279              		.syntax unified
 280              	@ 493 "../../../ChibiOSRepo/chibios191/os/common/ext/ARM/CMSIS/Core/Include/cmsis_gcc.h" 1
 281 00f6 84F31188 		MSR basepri, r4
 282              	@ 0 "" 2
 283              	.LVL27:
 284              		.thumb
 285              		.syntax unified
ARM GAS  C:\Users\RAKIBU~1\AppData\Local\Temp\ccvAKyma.s 			page 6


 286              	.LBE97:
 287              	.LBE96:
 288              	.LBE95:
 289              	.LBE94:
 290              	.LBE93:
 291              	.LBE92:
 292              	.LBE91:
 293              		.loc 1 333 0
 294 00fa FFF7FEFF 		bl	_dbg_check_leave_isr
 295              	.LVL28:
 296 00fe 2846     		mov	r0, r5
 297 0100 FFF7FEFF 		bl	_trace_isr_leave
 298              	.LVL29:
 299 0104 FFF7FEFF 		bl	_port_irq_epilogue
 300              	.LVL30:
 301              		.loc 1 334 0
 302 0108 38BD     		pop	{r3, r4, r5, pc}
 303              	.L20:
 304 010a 00BF     		.align	2
 305              	.L19:
 306 010c 1C000000 		.word	.LANCHOR0+28
 307 0110 002C0140 		.word	1073818624
 308 0114 3C000000 		.word	SDCD1+60
 309              		.cfi_endproc
 310              	.LFE334:
 311              		.size	Vector104, .-Vector104
 312              		.align	1
 313 0118 AFF30080 		.p2align 4,,15
 313      AFF30080 
 314              		.global	sdc_lld_init
 315              		.syntax unified
 316              		.thumb
 317              		.thumb_func
 318              		.fpu softvfp
 319              		.type	sdc_lld_init, %function
 320              	sdc_lld_init:
 321              	.LFB335:
 322              		.loc 1 345 0
 323              		.cfi_startproc
 324              		@ args = 0, pretend = 0, frame = 0
 325              		@ frame_needed = 0, uses_anonymous_args = 0
 326 0120 10B5     		push	{r4, lr}
 327              		.cfi_def_cfa_offset 8
 328              		.cfi_offset 4, -8
 329              		.cfi_offset 14, -4
 330              		.loc 1 347 0
 331 0122 074C     		ldr	r4, .L23
 332 0124 2046     		mov	r0, r4
 333 0126 FFF7FEFF 		bl	sdcObjectInit
 334              	.LVL31:
 335              		.loc 1 348 0
 336 012a 0023     		movs	r3, #0
 337 012c E363     		str	r3, [r4, #60]
 338              		.loc 1 349 0
 339 012e 6364     		str	r3, [r4, #68]
 340              		.loc 1 350 0
 341 0130 044B     		ldr	r3, .L23+4
ARM GAS  C:\Users\RAKIBU~1\AppData\Local\Temp\ccvAKyma.s 			page 7


 342 0132 A364     		str	r3, [r4, #72]
 343              		.loc 1 351 0
 344 0134 0921     		movs	r1, #9
 345 0136 3120     		movs	r0, #49
 346 0138 FFF7FEFF 		bl	nvicEnableVector
 347              	.LVL32:
 348              		.loc 1 352 0
 349 013c 10BD     		pop	{r4, pc}
 350              	.L24:
 351 013e 00BF     		.align	2
 352              	.L23:
 353 0140 00000000 		.word	SDCD1
 354 0144 002C0140 		.word	1073818624
 355              		.cfi_endproc
 356              	.LFE335:
 357              		.size	sdc_lld_init, .-sdc_lld_init
 358              		.align	1
 359 0148 AFF30080 		.p2align 4,,15
 359      AFF30080 
 360              		.global	sdc_lld_start
 361              		.syntax unified
 362              		.thumb
 363              		.thumb_func
 364              		.fpu softvfp
 365              		.type	sdc_lld_start, %function
 366              	sdc_lld_start:
 367              	.LFB336:
 368              		.loc 1 361 0
 369              		.cfi_startproc
 370              		@ args = 0, pretend = 0, frame = 0
 371              		@ frame_needed = 0, uses_anonymous_args = 0
 372              	.LVL33:
 373 0150 10B5     		push	{r4, lr}
 374              		.cfi_def_cfa_offset 8
 375              		.cfi_offset 4, -8
 376              		.cfi_offset 14, -4
 377 0152 0446     		mov	r4, r0
 378              		.loc 1 364 0
 379 0154 C36A     		ldr	r3, [r0, #44]
 380 0156 73B1     		cbz	r3, .L30
 381              	.L26:
 382              		.loc 1 375 0
 383 0158 184B     		ldr	r3, .L33
 384 015a 2364     		str	r3, [r4, #64]
 385              		.loc 1 380 0
 386 015c 2379     		ldrb	r3, [r4, #4]	@ zero_extendqisi2
 387 015e 012B     		cmp	r3, #1
 388 0160 0CD0     		beq	.L31
 389              	.LVL34:
 390              	.L27:
 391              		.loc 1 395 0
 392 0162 A26C     		ldr	r2, [r4, #72]
 393 0164 0023     		movs	r3, #0
 394 0166 1360     		str	r3, [r2]
 395              		.loc 1 396 0
 396 0168 A26C     		ldr	r2, [r4, #72]
 397 016a 5360     		str	r3, [r2, #4]
ARM GAS  C:\Users\RAKIBU~1\AppData\Local\Temp\ccvAKyma.s 			page 8


 398              		.loc 1 397 0
 399 016c A26C     		ldr	r2, [r4, #72]
 400 016e D362     		str	r3, [r2, #44]
 401              		.loc 1 398 0
 402 0170 A26C     		ldr	r2, [r4, #72]
 403 0172 5362     		str	r3, [r2, #36]
 404              		.loc 1 399 0
 405 0174 10BD     		pop	{r4, pc}
 406              	.LVL35:
 407              	.L30:
 408              		.loc 1 365 0
 409 0176 124B     		ldr	r3, .L33+4
 410 0178 C362     		str	r3, [r0, #44]
 411 017a EDE7     		b	.L26
 412              	.L31:
 413              		.loc 1 381 0
 414 017c 0023     		movs	r3, #0
 415 017e 1A46     		mov	r2, r3
 416 0180 0921     		movs	r1, #9
 417 0182 0E20     		movs	r0, #14
 418              	.LVL36:
 419 0184 FFF7FEFF 		bl	dmaStreamAllocI
 420              	.LVL37:
 421 0188 6064     		str	r0, [r4, #68]
 422              		.loc 1 385 0
 423 018a 98B1     		cbz	r0, .L32
 424              	.L28:
 425              		.loc 1 387 0
 426 018c A36C     		ldr	r3, [r4, #72]
 427 018e 8033     		adds	r3, r3, #128
 428 0190 626C     		ldr	r2, [r4, #68]
 429 0192 1268     		ldr	r2, [r2]
 430 0194 9360     		str	r3, [r2, #8]
 431              		.loc 1 389 0
 432 0196 636C     		ldr	r3, [r4, #68]
 433 0198 1B68     		ldr	r3, [r3]
 434 019a 0722     		movs	r2, #7
 435 019c 5A61     		str	r2, [r3, #20]
 436              		.loc 1 391 0
 437 019e 094B     		ldr	r3, .L33+8
 438 01a0 5A6C     		ldr	r2, [r3, #68]
 439 01a2 42F40062 		orr	r2, r2, #2048
 440 01a6 5A64     		str	r2, [r3, #68]
 441 01a8 5A6E     		ldr	r2, [r3, #100]
 442 01aa 42F40062 		orr	r2, r2, #2048
 443 01ae 5A66     		str	r2, [r3, #100]
 444 01b0 5B6E     		ldr	r3, [r3, #100]
 445 01b2 D6E7     		b	.L27
 446              	.L32:
 447              		.loc 1 385 0 discriminator 2
 448 01b4 0448     		ldr	r0, .L33+12
 449 01b6 FFF7FEFF 		bl	chSysHalt
 450              	.LVL38:
 451 01ba E7E7     		b	.L28
 452              	.L34:
 453              		.align	2
 454              	.L33:
ARM GAS  C:\Users\RAKIBU~1\AppData\Local\Temp\ccvAKyma.s 			page 9


 455 01bc 2054A208 		.word	144856096
 456 01c0 28000000 		.word	.LANCHOR0+40
 457 01c4 00380240 		.word	1073887232
 458 01c8 30000000 		.word	.LANCHOR0+48
 459              		.cfi_endproc
 460              	.LFE336:
 461              		.size	sdc_lld_start, .-sdc_lld_start
 462              		.align	1
 463 01cc AFF30080 		.p2align 4,,15
 464              		.global	sdc_lld_stop
 465              		.syntax unified
 466              		.thumb
 467              		.thumb_func
 468              		.fpu softvfp
 469              		.type	sdc_lld_stop, %function
 470              	sdc_lld_stop:
 471              	.LFB337:
 472              		.loc 1 408 0
 473              		.cfi_startproc
 474              		@ args = 0, pretend = 0, frame = 0
 475              		@ frame_needed = 0, uses_anonymous_args = 0
 476              	.LVL39:
 477 01d0 38B5     		push	{r3, r4, r5, lr}
 478              		.cfi_def_cfa_offset 16
 479              		.cfi_offset 3, -16
 480              		.cfi_offset 4, -12
 481              		.cfi_offset 5, -8
 482              		.cfi_offset 14, -4
 483              		.loc 1 410 0
 484 01d2 0379     		ldrb	r3, [r0, #4]	@ zero_extendqisi2
 485 01d4 012B     		cmp	r3, #1
 486 01d6 17D0     		beq	.L35
 487 01d8 0446     		mov	r4, r0
 488              		.loc 1 413 0
 489 01da 836C     		ldr	r3, [r0, #72]
 490 01dc 0025     		movs	r5, #0
 491 01de 1D60     		str	r5, [r3]
 492              		.loc 1 414 0
 493 01e0 836C     		ldr	r3, [r0, #72]
 494 01e2 5D60     		str	r5, [r3, #4]
 495              		.loc 1 415 0
 496 01e4 836C     		ldr	r3, [r0, #72]
 497 01e6 DD62     		str	r5, [r3, #44]
 498              		.loc 1 416 0
 499 01e8 836C     		ldr	r3, [r0, #72]
 500 01ea 5D62     		str	r5, [r3, #36]
 501              		.loc 1 419 0
 502 01ec 406C     		ldr	r0, [r0, #68]
 503              	.LVL40:
 504 01ee FFF7FEFF 		bl	dmaStreamFreeI
 505              	.LVL41:
 506              		.loc 1 420 0
 507 01f2 6564     		str	r5, [r4, #68]
 508              		.loc 1 423 0
 509 01f4 054B     		ldr	r3, .L38
 510 01f6 5A6C     		ldr	r2, [r3, #68]
 511 01f8 22F40062 		bic	r2, r2, #2048
ARM GAS  C:\Users\RAKIBU~1\AppData\Local\Temp\ccvAKyma.s 			page 10


 512 01fc 5A64     		str	r2, [r3, #68]
 513 01fe 5A6E     		ldr	r2, [r3, #100]
 514 0200 22F40062 		bic	r2, r2, #2048
 515 0204 5A66     		str	r2, [r3, #100]
 516 0206 5B6E     		ldr	r3, [r3, #100]
 517              	.LVL42:
 518              	.L35:
 519              		.loc 1 425 0
 520 0208 38BD     		pop	{r3, r4, r5, pc}
 521              	.L39:
 522 020a 00BF     		.align	2
 523              	.L38:
 524 020c 00380240 		.word	1073887232
 525              		.cfi_endproc
 526              	.LFE337:
 527              		.size	sdc_lld_stop, .-sdc_lld_stop
 528              		.align	1
 529              		.p2align 4,,15
 530              		.global	sdc_lld_start_clk
 531              		.syntax unified
 532              		.thumb
 533              		.thumb_func
 534              		.fpu softvfp
 535              		.type	sdc_lld_start_clk, %function
 536              	sdc_lld_start_clk:
 537              	.LFB338:
 538              		.loc 1 434 0
 539              		.cfi_startproc
 540              		@ args = 0, pretend = 0, frame = 0
 541              		@ frame_needed = 0, uses_anonymous_args = 0
 542              	.LVL43:
 543 0210 08B5     		push	{r3, lr}
 544              		.cfi_def_cfa_offset 8
 545              		.cfi_offset 3, -8
 546              		.cfi_offset 14, -4
 547              		.loc 1 437 0
 548 0212 836C     		ldr	r3, [r0, #72]
 549 0214 7822     		movs	r2, #120
 550 0216 5A60     		str	r2, [r3, #4]
 551              		.loc 1 438 0
 552 0218 826C     		ldr	r2, [r0, #72]
 553 021a 1368     		ldr	r3, [r2]
 554 021c 43F00303 		orr	r3, r3, #3
 555 0220 1360     		str	r3, [r2]
 556              		.loc 1 439 0
 557 0222 826C     		ldr	r2, [r0, #72]
 558 0224 5368     		ldr	r3, [r2, #4]
 559 0226 43F48073 		orr	r3, r3, #256
 560 022a 5360     		str	r3, [r2, #4]
 561              	.LVL44:
 562              	.LBB98:
 563              	.LBB99:
 564              		.loc 4 720 0
 565 022c 4FF47A70 		mov	r0, #1000
 566              	.LVL45:
 567 0230 0021     		movs	r1, #0
 568 0232 FFF7FEFF 		bl	chThdSleep
ARM GAS  C:\Users\RAKIBU~1\AppData\Local\Temp\ccvAKyma.s 			page 11


 569              	.LVL46:
 570              	.LBE99:
 571              	.LBE98:
 572              		.loc 1 443 0
 573 0236 08BD     		pop	{r3, pc}
 574              		.cfi_endproc
 575              	.LFE338:
 576              		.size	sdc_lld_start_clk, .-sdc_lld_start_clk
 577              		.align	1
 578 0238 AFF30080 		.p2align 4,,15
 578      AFF30080 
 579              		.global	sdc_lld_set_data_clk
 580              		.syntax unified
 581              		.thumb
 582              		.thumb_func
 583              		.fpu softvfp
 584              		.type	sdc_lld_set_data_clk, %function
 585              	sdc_lld_set_data_clk:
 586              	.LFB339:
 587              		.loc 1 453 0
 588              		.cfi_startproc
 589              		@ args = 0, pretend = 0, frame = 0
 590              		@ frame_needed = 0, uses_anonymous_args = 0
 591              		@ link register save eliminated.
 592              	.LVL47:
 593              		.loc 1 465 0
 594 0240 826C     		ldr	r2, [r0, #72]
 595 0242 5368     		ldr	r3, [r2, #4]
 596 0244 23F0FF03 		bic	r3, r3, #255
 597 0248 5360     		str	r3, [r2, #4]
 598              		.loc 1 467 0
 599 024a 7047     		bx	lr
 600              		.cfi_endproc
 601              	.LFE339:
 602              		.size	sdc_lld_set_data_clk, .-sdc_lld_set_data_clk
 603              		.align	1
 604 024c AFF30080 		.p2align 4,,15
 605              		.global	sdc_lld_stop_clk
 606              		.syntax unified
 607              		.thumb
 608              		.thumb_func
 609              		.fpu softvfp
 610              		.type	sdc_lld_stop_clk, %function
 611              	sdc_lld_stop_clk:
 612              	.LFB340:
 613              		.loc 1 476 0
 614              		.cfi_startproc
 615              		@ args = 0, pretend = 0, frame = 0
 616              		@ frame_needed = 0, uses_anonymous_args = 0
 617              		@ link register save eliminated.
 618              	.LVL48:
 619              		.loc 1 478 0
 620 0250 826C     		ldr	r2, [r0, #72]
 621 0252 0023     		movs	r3, #0
 622 0254 5360     		str	r3, [r2, #4]
 623              		.loc 1 479 0
 624 0256 826C     		ldr	r2, [r0, #72]
ARM GAS  C:\Users\RAKIBU~1\AppData\Local\Temp\ccvAKyma.s 			page 12


 625 0258 1360     		str	r3, [r2]
 626              		.loc 1 480 0
 627 025a 7047     		bx	lr
 628              		.cfi_endproc
 629              	.LFE340:
 630              		.size	sdc_lld_stop_clk, .-sdc_lld_stop_clk
 631              		.align	1
 632 025c AFF30080 		.p2align 4,,15
 633              		.global	sdc_lld_set_bus_mode
 634              		.syntax unified
 635              		.thumb
 636              		.thumb_func
 637              		.fpu softvfp
 638              		.type	sdc_lld_set_bus_mode, %function
 639              	sdc_lld_set_bus_mode:
 640              	.LFB341:
 641              		.loc 1 490 0
 642              		.cfi_startproc
 643              		@ args = 0, pretend = 0, frame = 0
 644              		@ frame_needed = 0, uses_anonymous_args = 0
 645              		@ link register save eliminated.
 646              	.LVL49:
 647              		.loc 1 491 0
 648 0260 826C     		ldr	r2, [r0, #72]
 649 0262 5368     		ldr	r3, [r2, #4]
 650 0264 23F4C053 		bic	r3, r3, #6144
 651              	.LVL50:
 652              		.loc 1 493 0
 653 0268 0129     		cmp	r1, #1
 654 026a 05D0     		beq	.L46
 655 026c 11B1     		cbz	r1, .L47
 656 026e 0229     		cmp	r1, #2
 657 0270 06D0     		beq	.L48
 658 0272 7047     		bx	lr
 659              	.L47:
 660              		.loc 1 495 0
 661 0274 5360     		str	r3, [r2, #4]
 662              		.loc 1 496 0
 663 0276 7047     		bx	lr
 664              	.L46:
 665              		.loc 1 498 0
 666 0278 43F40063 		orr	r3, r3, #2048
 667              	.LVL51:
 668 027c 5360     		str	r3, [r2, #4]
 669              		.loc 1 499 0
 670 027e 7047     		bx	lr
 671              	.LVL52:
 672              	.L48:
 673              		.loc 1 501 0
 674 0280 43F48053 		orr	r3, r3, #4096
 675              	.LVL53:
 676 0284 5360     		str	r3, [r2, #4]
 677              		.loc 1 504 0
 678 0286 7047     		bx	lr
 679              		.cfi_endproc
 680              	.LFE341:
 681              		.size	sdc_lld_set_bus_mode, .-sdc_lld_set_bus_mode
ARM GAS  C:\Users\RAKIBU~1\AppData\Local\Temp\ccvAKyma.s 			page 13


 682              		.align	1
 683 0288 AFF30080 		.p2align 4,,15
 683      AFF30080 
 684              		.global	sdc_lld_send_cmd_none
 685              		.syntax unified
 686              		.thumb
 687              		.thumb_func
 688              		.fpu softvfp
 689              		.type	sdc_lld_send_cmd_none, %function
 690              	sdc_lld_send_cmd_none:
 691              	.LFB342:
 692              		.loc 1 515 0
 693              		.cfi_startproc
 694              		@ args = 0, pretend = 0, frame = 0
 695              		@ frame_needed = 0, uses_anonymous_args = 0
 696              		@ link register save eliminated.
 697              	.LVL54:
 698              		.loc 1 517 0
 699 0290 836C     		ldr	r3, [r0, #72]
 700 0292 9A60     		str	r2, [r3, #8]
 701              		.loc 1 518 0
 702 0294 836C     		ldr	r3, [r0, #72]
 703 0296 41F48061 		orr	r1, r1, #1024
 704              	.LVL55:
 705 029a D960     		str	r1, [r3, #12]
 706              	.LVL56:
 707              	.L50:
 708              		.loc 1 519 0 discriminator 1
 709 029c 836C     		ldr	r3, [r0, #72]
 710 029e 5A6B     		ldr	r2, [r3, #52]
 711 02a0 12F0800F 		tst	r2, #128
 712 02a4 FAD0     		beq	.L50
 713              		.loc 1 521 0
 714 02a6 8022     		movs	r2, #128
 715 02a8 9A63     		str	r2, [r3, #56]
 716              		.loc 1 522 0
 717 02aa 7047     		bx	lr
 718              		.cfi_endproc
 719              	.LFE342:
 720              		.size	sdc_lld_send_cmd_none, .-sdc_lld_send_cmd_none
 721              		.align	1
 722 02ac AFF30080 		.p2align 4,,15
 723              		.global	sdc_lld_send_cmd_short
 724              		.syntax unified
 725              		.thumb
 726              		.thumb_func
 727              		.fpu softvfp
 728              		.type	sdc_lld_send_cmd_short, %function
 729              	sdc_lld_send_cmd_short:
 730              	.LFB343:
 731              		.loc 1 540 0
 732              		.cfi_startproc
 733              		@ args = 0, pretend = 0, frame = 0
 734              		@ frame_needed = 0, uses_anonymous_args = 0
 735              	.LVL57:
 736 02b0 10B5     		push	{r4, lr}
 737              		.cfi_def_cfa_offset 8
ARM GAS  C:\Users\RAKIBU~1\AppData\Local\Temp\ccvAKyma.s 			page 14


 738              		.cfi_offset 4, -8
 739              		.cfi_offset 14, -4
 740              		.loc 1 543 0
 741 02b2 846C     		ldr	r4, [r0, #72]
 742 02b4 A260     		str	r2, [r4, #8]
 743              		.loc 1 544 0
 744 02b6 826C     		ldr	r2, [r0, #72]
 745              	.LVL58:
 746 02b8 41F48861 		orr	r1, r1, #1088
 747              	.LVL59:
 748 02bc D160     		str	r1, [r2, #12]
 749              	.LVL60:
 750              	.L52:
 751              		.loc 1 545 0 discriminator 1
 752 02be 826C     		ldr	r2, [r0, #72]
 753 02c0 516B     		ldr	r1, [r2, #52]
 754              	.LVL61:
 755 02c2 11F04504 		ands	r4, r1, #69
 756 02c6 FAD0     		beq	.L52
 757              		.loc 1 548 0
 758 02c8 9463     		str	r4, [r2, #56]
 759              		.loc 1 550 0
 760 02ca 11F0040F 		tst	r1, #4
 761 02ce 04D1     		bne	.L56
 762              		.loc 1 554 0
 763 02d0 826C     		ldr	r2, [r0, #72]
 764 02d2 5269     		ldr	r2, [r2, #20]
 765 02d4 1A60     		str	r2, [r3]
 766              		.loc 1 555 0
 767 02d6 0020     		movs	r0, #0
 768              	.LVL62:
 769              	.L54:
 770              		.loc 1 556 0
 771 02d8 10BD     		pop	{r4, pc}
 772              	.LVL63:
 773              	.L56:
 774              		.loc 1 551 0
 775 02da FFF791FE 		bl	sdc_lld_collect_errors
 776              	.LVL64:
 777              		.loc 1 552 0
 778 02de 0120     		movs	r0, #1
 779 02e0 FAE7     		b	.L54
 780              		.cfi_endproc
 781              	.LFE343:
 782              		.size	sdc_lld_send_cmd_short, .-sdc_lld_send_cmd_short
 783              		.align	1
 784 02e2 00BFAFF3 		.p2align 4,,15
 784      0080AFF3 
 784      0080AFF3 
 784      0080
 785              		.global	sdc_lld_send_cmd_short_crc
 786              		.syntax unified
 787              		.thumb
 788              		.thumb_func
 789              		.fpu softvfp
 790              		.type	sdc_lld_send_cmd_short_crc, %function
 791              	sdc_lld_send_cmd_short_crc:
ARM GAS  C:\Users\RAKIBU~1\AppData\Local\Temp\ccvAKyma.s 			page 15


 792              	.LFB344:
 793              		.loc 1 573 0
 794              		.cfi_startproc
 795              		@ args = 0, pretend = 0, frame = 0
 796              		@ frame_needed = 0, uses_anonymous_args = 0
 797              	.LVL65:
 798 02f0 10B5     		push	{r4, lr}
 799              		.cfi_def_cfa_offset 8
 800              		.cfi_offset 4, -8
 801              		.cfi_offset 14, -4
 802              		.loc 1 576 0
 803 02f2 846C     		ldr	r4, [r0, #72]
 804 02f4 A260     		str	r2, [r4, #8]
 805              		.loc 1 577 0
 806 02f6 826C     		ldr	r2, [r0, #72]
 807              	.LVL66:
 808 02f8 41F48861 		orr	r1, r1, #1088
 809              	.LVL67:
 810 02fc D160     		str	r1, [r2, #12]
 811              	.LVL68:
 812              	.L58:
 813              		.loc 1 578 0 discriminator 1
 814 02fe 826C     		ldr	r2, [r0, #72]
 815 0300 516B     		ldr	r1, [r2, #52]
 816              	.LVL69:
 817 0302 11F04504 		ands	r4, r1, #69
 818 0306 FAD0     		beq	.L58
 819              		.loc 1 581 0
 820 0308 9463     		str	r4, [r2, #56]
 821              		.loc 1 582 0
 822 030a 11F0050F 		tst	r1, #5
 823 030e 04D1     		bne	.L62
 824              		.loc 1 586 0
 825 0310 826C     		ldr	r2, [r0, #72]
 826 0312 5269     		ldr	r2, [r2, #20]
 827 0314 1A60     		str	r2, [r3]
 828              		.loc 1 587 0
 829 0316 0020     		movs	r0, #0
 830              	.LVL70:
 831              	.L60:
 832              		.loc 1 588 0
 833 0318 10BD     		pop	{r4, pc}
 834              	.LVL71:
 835              	.L62:
 836              		.loc 1 583 0
 837 031a FFF771FE 		bl	sdc_lld_collect_errors
 838              	.LVL72:
 839              		.loc 1 584 0
 840 031e 0120     		movs	r0, #1
 841 0320 FAE7     		b	.L60
 842              		.cfi_endproc
 843              	.LFE344:
 844              		.size	sdc_lld_send_cmd_short_crc, .-sdc_lld_send_cmd_short_crc
 845              		.align	1
 846 0322 00BFAFF3 		.p2align 4,,15
 846      0080AFF3 
 846      0080AFF3 
ARM GAS  C:\Users\RAKIBU~1\AppData\Local\Temp\ccvAKyma.s 			page 16


 846      0080
 847              		.syntax unified
 848              		.thumb
 849              		.thumb_func
 850              		.fpu softvfp
 851              		.type	sdc_lld_wait_transaction_end, %function
 852              	sdc_lld_wait_transaction_end:
 853              	.LFB331:
 854              		.loc 1 208 0
 855              		.cfi_startproc
 856              		@ args = 0, pretend = 0, frame = 0
 857              		@ frame_needed = 0, uses_anonymous_args = 0
 858              	.LVL73:
 859 0330 70B5     		push	{r4, r5, r6, lr}
 860              		.cfi_def_cfa_offset 16
 861              		.cfi_offset 4, -16
 862              		.cfi_offset 5, -12
 863              		.cfi_offset 6, -8
 864              		.cfi_offset 14, -4
 865 0332 0446     		mov	r4, r0
 866 0334 0D46     		mov	r5, r1
 867 0336 1646     		mov	r6, r2
 868              	.LVL74:
 869              	.LBB122:
 870              	.LBB123:
 871              	.LBB124:
 872              	.LBB125:
 873              	.LBB126:
 874              	.LBB127:
 875              		.loc 2 493 0
 876 0338 2023     		movs	r3, #32
 877              		.syntax unified
 878              	@ 493 "../../../ChibiOSRepo/chibios191/os/common/ext/ARM/CMSIS/Core/Include/cmsis_gcc.h" 1
 879 033a 83F31188 		MSR basepri, r3
 880              	@ 0 "" 2
 881              	.LVL75:
 882              		.thumb
 883              		.syntax unified
 884              	.LBE127:
 885              	.LBE126:
 886              	.LBE125:
 887              		.loc 3 356 0
 888 033e FFF7FEFF 		bl	_stats_start_measure_crit_thd
 889              	.LVL76:
 890              		.loc 3 357 0
 891 0342 FFF7FEFF 		bl	_dbg_check_lock
 892              	.LVL77:
 893              	.LBE124:
 894              	.LBE123:
 895              	.LBE122:
 896              		.loc 1 213 0
 897 0346 A36C     		ldr	r3, [r4, #72]
 898 0348 DB6B     		ldr	r3, [r3, #60]
 899 034a 002B     		cmp	r3, #0
 900 034c 2ED1     		bne	.L71
 901              	.L64:
 902              		.loc 1 215 0
ARM GAS  C:\Users\RAKIBU~1\AppData\Local\Temp\ccvAKyma.s 			page 17


 903 034e A36C     		ldr	r3, [r4, #72]
 904 0350 5B6B     		ldr	r3, [r3, #52]
 905 0352 13F4807F 		tst	r3, #256
 906 0356 32D0     		beq	.L72
 907              	.L65:
 908              		.loc 1 222 0 discriminator 1
 909 0358 636C     		ldr	r3, [r4, #68]
 910 035a 1A68     		ldr	r2, [r3]
 911 035c 1268     		ldr	r2, [r2]
 912 035e 12F0010F 		tst	r2, #1
 913 0362 F9D1     		bne	.L65
 914              		.loc 1 226 0
 915 0364 597A     		ldrb	r1, [r3, #9]	@ zero_extendqisi2
 916 0366 5A68     		ldr	r2, [r3, #4]
 917 0368 3D23     		movs	r3, #61
 918 036a 8B40     		lsls	r3, r3, r1
 919 036c 1360     		str	r3, [r2]
 920              		.loc 1 228 0
 921 036e A36C     		ldr	r3, [r4, #72]
 922 0370 214A     		ldr	r2, .L75
 923 0372 9A63     		str	r2, [r3, #56]
 924              		.loc 1 229 0
 925 0374 A36C     		ldr	r3, [r4, #72]
 926 0376 0022     		movs	r2, #0
 927 0378 DA62     		str	r2, [r3, #44]
 928              	.LBB128:
 929              	.LBB129:
 930              	.LBB130:
 931              		.loc 3 367 0
 932 037a FFF7FEFF 		bl	_dbg_check_unlock
 933              	.LVL78:
 934              		.loc 3 368 0
 935 037e FFF7FEFF 		bl	_stats_stop_measure_crit_thd
 936              	.LVL79:
 937              		.loc 3 374 0
 938 0382 1E4B     		ldr	r3, .L75+4
 939 0384 1A68     		ldr	r2, [r3]
 940 0386 9A42     		cmp	r2, r3
 941 0388 04D0     		beq	.L68
 942 038a 9B69     		ldr	r3, [r3, #24]
 943 038c 9968     		ldr	r1, [r3, #8]
 944 038e 9368     		ldr	r3, [r2, #8]
 945 0390 9942     		cmp	r1, r3
 946 0392 2AD3     		bcc	.L73
 947              	.L68:
 948              	.LVL80:
 949              	.LBB131:
 950              	.LBB132:
 951              	.LBB133:
 952              		.loc 2 493 0
 953 0394 0023     		movs	r3, #0
 954              		.syntax unified
 955              	@ 493 "../../../ChibiOSRepo/chibios191/os/common/ext/ARM/CMSIS/Core/Include/cmsis_gcc.h" 1
 956 0396 83F31188 		MSR basepri, r3
 957              	@ 0 "" 2
 958              	.LVL81:
 959              		.thumb
ARM GAS  C:\Users\RAKIBU~1\AppData\Local\Temp\ccvAKyma.s 			page 18


 960              		.syntax unified
 961              	.LBE133:
 962              	.LBE132:
 963              	.LBE131:
 964              	.LBE130:
 965              	.LBE129:
 966              	.LBE128:
 967              		.loc 1 246 0
 968 039a 012D     		cmp	r5, #1
 969 039c 29D9     		bls	.L69
 970              		.loc 1 247 0
 971 039e 3346     		mov	r3, r6
 972 03a0 0022     		movs	r2, #0
 973 03a2 0C21     		movs	r1, #12
 974 03a4 2046     		mov	r0, r4
 975 03a6 FFF7FEFF 		bl	sdc_lld_send_cmd_short_crc
 976              	.LVL82:
 977              	.L67:
 978              		.loc 1 250 0
 979 03aa 70BD     		pop	{r4, r5, r6, pc}
 980              	.LVL83:
 981              	.L71:
 982              	.LBB136:
 983              	.LBB137:
 984              		.loc 4 735 0
 985 03ac 4FF0FF32 		mov	r2, #-1
 986 03b0 4FF0FF33 		mov	r3, #-1
 987 03b4 04F13C00 		add	r0, r4, #60
 988              	.LVL84:
 989 03b8 FFF7FEFF 		bl	chThdSuspendTimeoutS
 990              	.LVL85:
 991 03bc C7E7     		b	.L64
 992              	.LVL86:
 993              	.L72:
 994              	.LBE137:
 995              	.LBE136:
 996              	.LBB138:
 997              	.LBB139:
 998              	.LBB140:
 999              		.loc 3 367 0
 1000 03be FFF7FEFF 		bl	_dbg_check_unlock
 1001              	.LVL87:
 1002              		.loc 3 368 0
 1003 03c2 FFF7FEFF 		bl	_stats_stop_measure_crit_thd
 1004              	.LVL88:
 1005              		.loc 3 374 0
 1006 03c6 0D4B     		ldr	r3, .L75+4
 1007 03c8 1A68     		ldr	r2, [r3]
 1008 03ca 9A42     		cmp	r2, r3
 1009 03cc 04D0     		beq	.L66
 1010 03ce 9B69     		ldr	r3, [r3, #24]
 1011 03d0 9968     		ldr	r1, [r3, #8]
 1012 03d2 9368     		ldr	r3, [r2, #8]
 1013 03d4 9942     		cmp	r1, r3
 1014 03d6 04D3     		bcc	.L74
 1015              	.L66:
 1016              	.LVL89:
ARM GAS  C:\Users\RAKIBU~1\AppData\Local\Temp\ccvAKyma.s 			page 19


 1017              	.LBB141:
 1018              	.LBB142:
 1019              	.LBB143:
 1020              		.loc 2 493 0
 1021 03d8 0023     		movs	r3, #0
 1022              		.syntax unified
 1023              	@ 493 "../../../ChibiOSRepo/chibios191/os/common/ext/ARM/CMSIS/Core/Include/cmsis_gcc.h" 1
 1024 03da 83F31188 		MSR basepri, r3
 1025              	@ 0 "" 2
 1026              	.LVL90:
 1027              		.thumb
 1028              		.syntax unified
 1029              	.LBE143:
 1030              	.LBE142:
 1031              	.LBE141:
 1032              	.LBE140:
 1033              	.LBE139:
 1034              	.LBE138:
 1035              		.loc 1 217 0
 1036 03de 0120     		movs	r0, #1
 1037 03e0 E3E7     		b	.L67
 1038              	.L74:
 1039              	.LBB146:
 1040              	.LBB145:
 1041              	.LBB144:
 1042              		.loc 3 374 0
 1043 03e2 0748     		ldr	r0, .L75+8
 1044 03e4 FFF7FEFF 		bl	chSysHalt
 1045              	.LVL91:
 1046 03e8 F6E7     		b	.L66
 1047              	.L73:
 1048              	.LBE144:
 1049              	.LBE145:
 1050              	.LBE146:
 1051              	.LBB147:
 1052              	.LBB135:
 1053              	.LBB134:
 1054 03ea 0548     		ldr	r0, .L75+8
 1055 03ec FFF7FEFF 		bl	chSysHalt
 1056              	.LVL92:
 1057 03f0 D0E7     		b	.L68
 1058              	.L69:
 1059              	.LBE134:
 1060              	.LBE135:
 1061              	.LBE147:
 1062              		.loc 1 249 0
 1063 03f2 0020     		movs	r0, #0
 1064 03f4 D9E7     		b	.L67
 1065              	.L76:
 1066 03f6 00BF     		.align	2
 1067              	.L75:
 1068 03f8 FF07C000 		.word	12584959
 1069 03fc 00000000 		.word	ch
 1070 0400 40000000 		.word	.LANCHOR0+64
 1071              		.cfi_endproc
 1072              	.LFE331:
 1073              		.size	sdc_lld_wait_transaction_end, .-sdc_lld_wait_transaction_end
ARM GAS  C:\Users\RAKIBU~1\AppData\Local\Temp\ccvAKyma.s 			page 20


 1074              		.align	1
 1075 0404 AFF30080 		.p2align 4,,15
 1075      AFF30080 
 1075      AFF30080 
 1076              		.syntax unified
 1077              		.thumb
 1078              		.thumb_func
 1079              		.fpu softvfp
 1080              		.type	sdc_lld_error_cleanup, %function
 1081              	sdc_lld_error_cleanup:
 1082              	.LFB333:
 1083              		.loc 1 292 0
 1084              		.cfi_startproc
 1085              		@ args = 0, pretend = 0, frame = 0
 1086              		@ frame_needed = 0, uses_anonymous_args = 0
 1087              	.LVL93:
 1088 0410 70B5     		push	{r4, r5, r6, lr}
 1089              		.cfi_def_cfa_offset 16
 1090              		.cfi_offset 4, -16
 1091              		.cfi_offset 5, -12
 1092              		.cfi_offset 6, -8
 1093              		.cfi_offset 14, -4
 1094 0412 0446     		mov	r4, r0
 1095 0414 0D46     		mov	r5, r1
 1096 0416 1646     		mov	r6, r2
 1097              		.loc 1 293 0
 1098 0418 836C     		ldr	r3, [r0, #72]
 1099 041a 596B     		ldr	r1, [r3, #52]
 1100              	.LVL94:
 1101              		.loc 1 295 0
 1102 041c 426C     		ldr	r2, [r0, #68]
 1103              	.LVL95:
 1104 041e 507A     		ldrb	r0, [r2, #9]	@ zero_extendqisi2
 1105              	.LVL96:
 1106 0420 5268     		ldr	r2, [r2, #4]
 1107 0422 3D23     		movs	r3, #61
 1108 0424 8340     		lsls	r3, r3, r0
 1109 0426 1360     		str	r3, [r2]
 1110              		.loc 1 296 0
 1111 0428 636C     		ldr	r3, [r4, #68]
 1112 042a 1A68     		ldr	r2, [r3]
 1113 042c 1368     		ldr	r3, [r2]
 1114 042e 23F01F03 		bic	r3, r3, #31
 1115 0432 1360     		str	r3, [r2]
 1116              	.L78:
 1117              		.loc 1 296 0 is_stmt 0 discriminator 2
 1118 0434 636C     		ldr	r3, [r4, #68]
 1119 0436 1A68     		ldr	r2, [r3]
 1120 0438 1268     		ldr	r2, [r2]
 1121 043a 12F0010F 		tst	r2, #1
 1122 043e F9D1     		bne	.L78
 1123              		.loc 1 296 0 discriminator 3
 1124 0440 587A     		ldrb	r0, [r3, #9]	@ zero_extendqisi2
 1125 0442 5A68     		ldr	r2, [r3, #4]
 1126 0444 3D23     		movs	r3, #61
 1127 0446 8340     		lsls	r3, r3, r0
 1128 0448 1360     		str	r3, [r2]
ARM GAS  C:\Users\RAKIBU~1\AppData\Local\Temp\ccvAKyma.s 			page 21


 1129              		.loc 1 297 0 is_stmt 1 discriminator 3
 1130 044a A36C     		ldr	r3, [r4, #72]
 1131 044c 094A     		ldr	r2, .L81
 1132 044e 9A63     		str	r2, [r3, #56]
 1133              		.loc 1 298 0 discriminator 3
 1134 0450 A26C     		ldr	r2, [r4, #72]
 1135 0452 0023     		movs	r3, #0
 1136 0454 D363     		str	r3, [r2, #60]
 1137              		.loc 1 299 0 discriminator 3
 1138 0456 A26C     		ldr	r2, [r4, #72]
 1139 0458 D362     		str	r3, [r2, #44]
 1140              		.loc 1 300 0 discriminator 3
 1141 045a 2046     		mov	r0, r4
 1142 045c FFF7D0FD 		bl	sdc_lld_collect_errors
 1143              	.LVL97:
 1144              		.loc 1 301 0 discriminator 3
 1145 0460 012D     		cmp	r5, #1
 1146 0462 05D9     		bls	.L77
 1147              		.loc 1 302 0
 1148 0464 3346     		mov	r3, r6
 1149 0466 0022     		movs	r2, #0
 1150 0468 0C21     		movs	r1, #12
 1151 046a 2046     		mov	r0, r4
 1152 046c FFF7FEFF 		bl	sdc_lld_send_cmd_short_crc
 1153              	.LVL98:
 1154              	.L77:
 1155              		.loc 1 303 0
 1156 0470 70BD     		pop	{r4, r5, r6, pc}
 1157              	.LVL99:
 1158              	.L82:
 1159 0472 00BF     		.align	2
 1160              	.L81:
 1161 0474 FF07C000 		.word	12584959
 1162              		.cfi_endproc
 1163              	.LFE333:
 1164              		.size	sdc_lld_error_cleanup, .-sdc_lld_error_cleanup
 1165              		.align	1
 1166 0478 AFF30080 		.p2align 4,,15
 1166      AFF30080 
 1167              		.syntax unified
 1168              		.thumb
 1169              		.thumb_func
 1170              		.fpu softvfp
 1171              		.type	sdc_lld_prepare_read, %function
 1172              	sdc_lld_prepare_read:
 1173              	.LFB329:
 1174              		.loc 1 135 0
 1175              		.cfi_startproc
 1176              		@ args = 0, pretend = 0, frame = 0
 1177              		@ frame_needed = 0, uses_anonymous_args = 0
 1178              	.LVL100:
 1179 0480 10B5     		push	{r4, lr}
 1180              		.cfi_def_cfa_offset 8
 1181              		.cfi_offset 4, -8
 1182              		.cfi_offset 14, -4
 1183 0482 1C46     		mov	r4, r3
 1184              		.loc 1 139 0
ARM GAS  C:\Users\RAKIBU~1\AppData\Local\Temp\ccvAKyma.s 			page 22


 1185 0484 036B     		ldr	r3, [r0, #48]
 1186              	.LVL101:
 1187 0486 13F0100F 		tst	r3, #16
 1188 048a 00D1     		bne	.L84
 1189              		.loc 1 140 0
 1190 048c 4902     		lsls	r1, r1, #9
 1191              	.LVL102:
 1192              	.L84:
 1193              		.loc 1 142 0
 1194 048e 012A     		cmp	r2, #1
 1195 0490 0DD9     		bls	.L85
 1196              		.loc 1 144 0
 1197 0492 2346     		mov	r3, r4
 1198 0494 0A46     		mov	r2, r1
 1199              	.LVL103:
 1200 0496 1221     		movs	r1, #18
 1201              	.LVL104:
 1202 0498 FFF7FEFF 		bl	sdc_lld_send_cmd_short_crc
 1203              	.LVL105:
 1204 049c 0346     		mov	r3, r0
 1205 049e 20B9     		cbnz	r0, .L86
 1206              		.loc 1 145 0
 1207 04a0 2168     		ldr	r1, [r4]
 1208 04a2 0A4A     		ldr	r2, .L88
 1209 04a4 0A40     		ands	r2, r2, r1
 1210 04a6 02B1     		cbz	r2, .L86
 1211              		.loc 1 146 0
 1212 04a8 0123     		movs	r3, #1
 1213              	.L86:
 1214              		.loc 1 156 0
 1215 04aa 1846     		mov	r0, r3
 1216 04ac 10BD     		pop	{r4, pc}
 1217              	.LVL106:
 1218              	.L85:
 1219              		.loc 1 150 0
 1220 04ae 2346     		mov	r3, r4
 1221 04b0 0A46     		mov	r2, r1
 1222              	.LVL107:
 1223 04b2 1121     		movs	r1, #17
 1224              	.LVL108:
 1225 04b4 FFF7FEFF 		bl	sdc_lld_send_cmd_short_crc
 1226              	.LVL109:
 1227 04b8 0346     		mov	r3, r0
 1228 04ba 0028     		cmp	r0, #0
 1229 04bc F5D1     		bne	.L86
 1230              		.loc 1 151 0
 1231 04be 2168     		ldr	r1, [r4]
 1232 04c0 024A     		ldr	r2, .L88
 1233 04c2 0A40     		ands	r2, r2, r1
 1234 04c4 002A     		cmp	r2, #0
 1235 04c6 F0D0     		beq	.L86
 1236              		.loc 1 152 0
 1237 04c8 0123     		movs	r3, #1
 1238 04ca EEE7     		b	.L86
 1239              	.L89:
 1240              		.align	2
 1241              	.L88:
ARM GAS  C:\Users\RAKIBU~1\AppData\Local\Temp\ccvAKyma.s 			page 23


 1242 04cc 08E0FFFD 		.word	-33562616
 1243              		.cfi_endproc
 1244              	.LFE329:
 1245              		.size	sdc_lld_prepare_read, .-sdc_lld_prepare_read
 1246              		.align	1
 1247              		.p2align 4,,15
 1248              		.syntax unified
 1249              		.thumb
 1250              		.thumb_func
 1251              		.fpu softvfp
 1252              		.type	sdc_lld_prepare_write, %function
 1253              	sdc_lld_prepare_write:
 1254              	.LFB330:
 1255              		.loc 1 173 0
 1256              		.cfi_startproc
 1257              		@ args = 0, pretend = 0, frame = 0
 1258              		@ frame_needed = 0, uses_anonymous_args = 0
 1259              	.LVL110:
 1260 04d0 10B5     		push	{r4, lr}
 1261              		.cfi_def_cfa_offset 8
 1262              		.cfi_offset 4, -8
 1263              		.cfi_offset 14, -4
 1264 04d2 1C46     		mov	r4, r3
 1265              		.loc 1 177 0
 1266 04d4 036B     		ldr	r3, [r0, #48]
 1267              	.LVL111:
 1268 04d6 13F0100F 		tst	r3, #16
 1269 04da 00D1     		bne	.L91
 1270              		.loc 1 178 0
 1271 04dc 4902     		lsls	r1, r1, #9
 1272              	.LVL112:
 1273              	.L91:
 1274              		.loc 1 180 0
 1275 04de 012A     		cmp	r2, #1
 1276 04e0 0DD9     		bls	.L92
 1277              		.loc 1 182 0
 1278 04e2 2346     		mov	r3, r4
 1279 04e4 0A46     		mov	r2, r1
 1280              	.LVL113:
 1281 04e6 1921     		movs	r1, #25
 1282              	.LVL114:
 1283 04e8 FFF7FEFF 		bl	sdc_lld_send_cmd_short_crc
 1284              	.LVL115:
 1285 04ec 0346     		mov	r3, r0
 1286 04ee 20B9     		cbnz	r0, .L93
 1287              		.loc 1 183 0
 1288 04f0 2168     		ldr	r1, [r4]
 1289 04f2 0A4A     		ldr	r2, .L95
 1290 04f4 0A40     		ands	r2, r2, r1
 1291 04f6 02B1     		cbz	r2, .L93
 1292              		.loc 1 184 0
 1293 04f8 0123     		movs	r3, #1
 1294              	.L93:
 1295              		.loc 1 194 0
 1296 04fa 1846     		mov	r0, r3
 1297 04fc 10BD     		pop	{r4, pc}
 1298              	.LVL116:
ARM GAS  C:\Users\RAKIBU~1\AppData\Local\Temp\ccvAKyma.s 			page 24


 1299              	.L92:
 1300              		.loc 1 188 0
 1301 04fe 2346     		mov	r3, r4
 1302 0500 0A46     		mov	r2, r1
 1303              	.LVL117:
 1304 0502 1821     		movs	r1, #24
 1305              	.LVL118:
 1306 0504 FFF7FEFF 		bl	sdc_lld_send_cmd_short_crc
 1307              	.LVL119:
 1308 0508 0346     		mov	r3, r0
 1309 050a 0028     		cmp	r0, #0
 1310 050c F5D1     		bne	.L93
 1311              		.loc 1 189 0
 1312 050e 2168     		ldr	r1, [r4]
 1313 0510 024A     		ldr	r2, .L95
 1314 0512 0A40     		ands	r2, r2, r1
 1315 0514 002A     		cmp	r2, #0
 1316 0516 F0D0     		beq	.L93
 1317              		.loc 1 190 0
 1318 0518 0123     		movs	r3, #1
 1319 051a EEE7     		b	.L93
 1320              	.L96:
 1321              		.align	2
 1322              	.L95:
 1323 051c 08E0FFFD 		.word	-33562616
 1324              		.cfi_endproc
 1325              	.LFE330:
 1326              		.size	sdc_lld_prepare_write, .-sdc_lld_prepare_write
 1327              		.align	1
 1328              		.p2align 4,,15
 1329              		.global	sdc_lld_send_cmd_long_crc
 1330              		.syntax unified
 1331              		.thumb
 1332              		.thumb_func
 1333              		.fpu softvfp
 1334              		.type	sdc_lld_send_cmd_long_crc, %function
 1335              	sdc_lld_send_cmd_long_crc:
 1336              	.LFB345:
 1337              		.loc 1 605 0
 1338              		.cfi_startproc
 1339              		@ args = 0, pretend = 0, frame = 0
 1340              		@ frame_needed = 0, uses_anonymous_args = 0
 1341              	.LVL120:
 1342 0520 10B5     		push	{r4, lr}
 1343              		.cfi_def_cfa_offset 8
 1344              		.cfi_offset 4, -8
 1345              		.cfi_offset 14, -4
 1346              		.loc 1 610 0
 1347 0522 846C     		ldr	r4, [r0, #72]
 1348 0524 A260     		str	r2, [r4, #8]
 1349              		.loc 1 611 0
 1350 0526 826C     		ldr	r2, [r0, #72]
 1351              	.LVL121:
 1352 0528 41F49861 		orr	r1, r1, #1216
 1353              	.LVL122:
 1354 052c D160     		str	r1, [r2, #12]
 1355              	.LVL123:
ARM GAS  C:\Users\RAKIBU~1\AppData\Local\Temp\ccvAKyma.s 			page 25


 1356              	.L98:
 1357              		.loc 1 613 0 discriminator 1
 1358 052e 826C     		ldr	r2, [r0, #72]
 1359 0530 516B     		ldr	r1, [r2, #52]
 1360              	.LVL124:
 1361 0532 11F04504 		ands	r4, r1, #69
 1362 0536 FAD0     		beq	.L98
 1363              		.loc 1 616 0
 1364 0538 9463     		str	r4, [r2, #56]
 1365              		.loc 1 618 0
 1366 053a 11F03F0F 		tst	r1, #63
 1367 053e 0DD1     		bne	.L102
 1368              		.loc 1 623 0
 1369 0540 826C     		ldr	r2, [r0, #72]
 1370              	.LVL125:
 1371 0542 126A     		ldr	r2, [r2, #32]
 1372 0544 1A60     		str	r2, [r3]
 1373              		.loc 1 624 0
 1374 0546 826C     		ldr	r2, [r0, #72]
 1375              	.LVL126:
 1376 0548 D269     		ldr	r2, [r2, #28]
 1377 054a 5A60     		str	r2, [r3, #4]
 1378              		.loc 1 625 0
 1379 054c 826C     		ldr	r2, [r0, #72]
 1380              	.LVL127:
 1381 054e 9269     		ldr	r2, [r2, #24]
 1382 0550 9A60     		str	r2, [r3, #8]
 1383              		.loc 1 626 0
 1384 0552 826C     		ldr	r2, [r0, #72]
 1385 0554 5269     		ldr	r2, [r2, #20]
 1386 0556 DA60     		str	r2, [r3, #12]
 1387              		.loc 1 627 0
 1388 0558 0020     		movs	r0, #0
 1389              	.LVL128:
 1390              	.L100:
 1391              		.loc 1 628 0
 1392 055a 10BD     		pop	{r4, pc}
 1393              	.LVL129:
 1394              	.L102:
 1395              		.loc 1 619 0
 1396 055c FFF750FD 		bl	sdc_lld_collect_errors
 1397              	.LVL130:
 1398              		.loc 1 620 0
 1399 0560 0120     		movs	r0, #1
 1400 0562 FAE7     		b	.L100
 1401              		.cfi_endproc
 1402              	.LFE345:
 1403              		.size	sdc_lld_send_cmd_long_crc, .-sdc_lld_send_cmd_long_crc
 1404              		.align	1
 1405 0564 AFF30080 		.p2align 4,,15
 1405      AFF30080 
 1405      AFF30080 
 1406              		.global	sdc_lld_read_special
 1407              		.syntax unified
 1408              		.thumb
 1409              		.thumb_func
 1410              		.fpu softvfp
ARM GAS  C:\Users\RAKIBU~1\AppData\Local\Temp\ccvAKyma.s 			page 26


 1411              		.type	sdc_lld_read_special, %function
 1412              	sdc_lld_read_special:
 1413              	.LFB346:
 1414              		.loc 1 647 0
 1415              		.cfi_startproc
 1416              		@ args = 4, pretend = 0, frame = 8
 1417              		@ frame_needed = 0, uses_anonymous_args = 0
 1418              	.LVL131:
 1419 0570 30B5     		push	{r4, r5, lr}
 1420              		.cfi_def_cfa_offset 12
 1421              		.cfi_offset 4, -12
 1422              		.cfi_offset 5, -8
 1423              		.cfi_offset 14, -4
 1424 0572 83B0     		sub	sp, sp, #12
 1425              		.cfi_def_cfa_offset 24
 1426 0574 0446     		mov	r4, r0
 1427 0576 1D46     		mov	r5, r3
 1428              		.loc 1 650 0
 1429 0578 FFF76AFD 		bl	sdc_lld_prepare_read_bytes
 1430              	.LVL132:
 1431 057c 50B9     		cbnz	r0, .L104
 1432              		.loc 1 653 0
 1433 057e 01AB     		add	r3, sp, #4
 1434 0580 069A     		ldr	r2, [sp, #24]
 1435 0582 2946     		mov	r1, r5
 1436 0584 2046     		mov	r0, r4
 1437 0586 FFF7FEFF 		bl	sdc_lld_send_cmd_short_crc
 1438              	.LVL133:
 1439 058a 18B9     		cbnz	r0, .L104
 1440              		.loc 1 654 0
 1441 058c 0A4B     		ldr	r3, .L108
 1442 058e 019A     		ldr	r2, [sp, #4]
 1443 0590 1340     		ands	r3, r3, r2
 1444 0592 43B1     		cbz	r3, .L107
 1445              	.L104:
 1446              		.loc 1 663 0
 1447 0594 01AA     		add	r2, sp, #4
 1448 0596 0121     		movs	r1, #1
 1449 0598 2046     		mov	r0, r4
 1450 059a FFF739FF 		bl	sdc_lld_error_cleanup
 1451              	.LVL134:
 1452              		.loc 1 664 0
 1453 059e 0123     		movs	r3, #1
 1454              	.L105:
 1455              		.loc 1 665 0
 1456 05a0 1846     		mov	r0, r3
 1457 05a2 03B0     		add	sp, sp, #12
 1458              		.cfi_remember_state
 1459              		.cfi_def_cfa_offset 12
 1460              		@ sp needed
 1461 05a4 30BD     		pop	{r4, r5, pc}
 1462              	.LVL135:
 1463              	.L107:
 1464              		.cfi_restore_state
 1465              		.loc 1 657 0
 1466 05a6 01AA     		add	r2, sp, #4
 1467 05a8 0121     		movs	r1, #1
ARM GAS  C:\Users\RAKIBU~1\AppData\Local\Temp\ccvAKyma.s 			page 27


 1468 05aa 2046     		mov	r0, r4
 1469 05ac FFF7C0FE 		bl	sdc_lld_wait_transaction_end
 1470              	.LVL136:
 1471 05b0 0346     		mov	r3, r0
 1472 05b2 0028     		cmp	r0, #0
 1473 05b4 EED1     		bne	.L104
 1474 05b6 F3E7     		b	.L105
 1475              	.L109:
 1476              		.align	2
 1477              	.L108:
 1478 05b8 08E0FFFD 		.word	-33562616
 1479              		.cfi_endproc
 1480              	.LFE346:
 1481              		.size	sdc_lld_read_special, .-sdc_lld_read_special
 1482              		.align	1
 1483 05bc AFF30080 		.p2align 4,,15
 1484              		.global	sdc_lld_read_aligned
 1485              		.syntax unified
 1486              		.thumb
 1487              		.thumb_func
 1488              		.fpu softvfp
 1489              		.type	sdc_lld_read_aligned, %function
 1490              	sdc_lld_read_aligned:
 1491              	.LFB347:
 1492              		.loc 1 682 0
 1493              		.cfi_startproc
 1494              		@ args = 0, pretend = 0, frame = 8
 1495              		@ frame_needed = 0, uses_anonymous_args = 0
 1496              	.LVL137:
 1497 05c0 F0B5     		push	{r4, r5, r6, r7, lr}
 1498              		.cfi_def_cfa_offset 20
 1499              		.cfi_offset 4, -20
 1500              		.cfi_offset 5, -16
 1501              		.cfi_offset 6, -12
 1502              		.cfi_offset 7, -8
 1503              		.cfi_offset 14, -4
 1504 05c2 83B0     		sub	sp, sp, #12
 1505              		.cfi_def_cfa_offset 32
 1506 05c4 0446     		mov	r4, r0
 1507 05c6 0E46     		mov	r6, r1
 1508 05c8 1746     		mov	r7, r2
 1509 05ca 1D46     		mov	r5, r3
 1510              		.loc 1 685 0
 1511 05cc B3F5004F 		cmp	r3, #32768
 1512 05d0 0AD2     		bcs	.L115
 1513              	.LVL138:
 1514              	.L111:
 1515              		.loc 1 687 0
 1516 05d2 A36C     		ldr	r3, [r4, #72]
 1517 05d4 204A     		ldr	r2, .L117
 1518 05d6 5A62     		str	r2, [r3, #36]
 1519              		.loc 1 690 0
 1520 05d8 2046     		mov	r0, r4
 1521 05da FFF7FEFF 		bl	_sdc_wait_for_transfer_state
 1522              	.LVL139:
 1523 05de 0346     		mov	r3, r0
 1524 05e0 30B1     		cbz	r0, .L116
ARM GAS  C:\Users\RAKIBU~1\AppData\Local\Temp\ccvAKyma.s 			page 28


 1525              	.L112:
 1526              		.loc 1 727 0
 1527 05e2 1846     		mov	r0, r3
 1528 05e4 03B0     		add	sp, sp, #12
 1529              		.cfi_remember_state
 1530              		.cfi_def_cfa_offset 20
 1531              		@ sp needed
 1532 05e6 F0BD     		pop	{r4, r5, r6, r7, pc}
 1533              	.LVL140:
 1534              	.L115:
 1535              		.cfi_restore_state
 1536              		.loc 1 685 0 discriminator 2
 1537 05e8 1C48     		ldr	r0, .L117+4
 1538              	.LVL141:
 1539 05ea FFF7FEFF 		bl	chSysHalt
 1540              	.LVL142:
 1541 05ee F0E7     		b	.L111
 1542              	.L116:
 1543              		.loc 1 694 0
 1544 05f0 636C     		ldr	r3, [r4, #68]
 1545 05f2 1B68     		ldr	r3, [r3]
 1546 05f4 DF60     		str	r7, [r3, #12]
 1547              		.loc 1 695 0
 1548 05f6 6A02     		lsls	r2, r5, #9
 1549 05f8 636C     		ldr	r3, [r4, #68]
 1550 05fa 1B68     		ldr	r3, [r3]
 1551 05fc 9108     		lsrs	r1, r2, #2
 1552 05fe 5960     		str	r1, [r3, #4]
 1553              		.loc 1 697 0
 1554 0600 636C     		ldr	r3, [r4, #68]
 1555 0602 1B68     		ldr	r3, [r3]
 1556 0604 216C     		ldr	r1, [r4, #64]
 1557 0606 1960     		str	r1, [r3]
 1558              		.loc 1 698 0
 1559 0608 636C     		ldr	r3, [r4, #68]
 1560 060a 1968     		ldr	r1, [r3]
 1561 060c 0B68     		ldr	r3, [r1]
 1562 060e 43F00103 		orr	r3, r3, #1
 1563 0612 0B60     		str	r3, [r1]
 1564              		.loc 1 701 0
 1565 0614 A36C     		ldr	r3, [r4, #72]
 1566 0616 1249     		ldr	r1, .L117+8
 1567 0618 9963     		str	r1, [r3, #56]
 1568              		.loc 1 702 0
 1569 061a A36C     		ldr	r3, [r4, #72]
 1570 061c 40F22A31 		movw	r1, #810
 1571 0620 D963     		str	r1, [r3, #60]
 1572              		.loc 1 707 0
 1573 0622 A36C     		ldr	r3, [r4, #72]
 1574 0624 9A62     		str	r2, [r3, #40]
 1575              		.loc 1 710 0
 1576 0626 A36C     		ldr	r3, [r4, #72]
 1577 0628 9B22     		movs	r2, #155
 1578 062a DA62     		str	r2, [r3, #44]
 1579              		.loc 1 716 0
 1580 062c 01AB     		add	r3, sp, #4
 1581 062e 2A46     		mov	r2, r5
ARM GAS  C:\Users\RAKIBU~1\AppData\Local\Temp\ccvAKyma.s 			page 29


 1582 0630 3146     		mov	r1, r6
 1583 0632 2046     		mov	r0, r4
 1584 0634 FFF724FF 		bl	sdc_lld_prepare_read
 1585              	.LVL143:
 1586 0638 38B9     		cbnz	r0, .L113
 1587              		.loc 1 719 0
 1588 063a 01AA     		add	r2, sp, #4
 1589 063c 2946     		mov	r1, r5
 1590 063e 2046     		mov	r0, r4
 1591 0640 FFF776FE 		bl	sdc_lld_wait_transaction_end
 1592              	.LVL144:
 1593 0644 0346     		mov	r3, r0
 1594 0646 0028     		cmp	r0, #0
 1595 0648 CBD0     		beq	.L112
 1596              	.L113:
 1597              		.loc 1 725 0
 1598 064a 01AA     		add	r2, sp, #4
 1599 064c 2946     		mov	r1, r5
 1600 064e 2046     		mov	r0, r4
 1601 0650 FFF7DEFE 		bl	sdc_lld_error_cleanup
 1602              	.LVL145:
 1603              		.loc 1 726 0
 1604 0654 0123     		movs	r3, #1
 1605 0656 C4E7     		b	.L112
 1606              	.L118:
 1607              		.align	2
 1608              	.L117:
 1609 0658 00366E01 		.word	24000000
 1610 065c 4C000000 		.word	.LANCHOR0+76
 1611 0660 FF07C000 		.word	12584959
 1612              		.cfi_endproc
 1613              	.LFE347:
 1614              		.size	sdc_lld_read_aligned, .-sdc_lld_read_aligned
 1615              		.align	1
 1616 0664 AFF30080 		.p2align 4,,15
 1616      AFF30080 
 1616      AFF30080 
 1617              		.global	sdc_lld_write_aligned
 1618              		.syntax unified
 1619              		.thumb
 1620              		.thumb_func
 1621              		.fpu softvfp
 1622              		.type	sdc_lld_write_aligned, %function
 1623              	sdc_lld_write_aligned:
 1624              	.LFB348:
 1625              		.loc 1 744 0
 1626              		.cfi_startproc
 1627              		@ args = 0, pretend = 0, frame = 8
 1628              		@ frame_needed = 0, uses_anonymous_args = 0
 1629              	.LVL146:
 1630 0670 F0B5     		push	{r4, r5, r6, r7, lr}
 1631              		.cfi_def_cfa_offset 20
 1632              		.cfi_offset 4, -20
 1633              		.cfi_offset 5, -16
 1634              		.cfi_offset 6, -12
 1635              		.cfi_offset 7, -8
 1636              		.cfi_offset 14, -4
ARM GAS  C:\Users\RAKIBU~1\AppData\Local\Temp\ccvAKyma.s 			page 30


 1637 0672 83B0     		sub	sp, sp, #12
 1638              		.cfi_def_cfa_offset 32
 1639 0674 0446     		mov	r4, r0
 1640 0676 0E46     		mov	r6, r1
 1641 0678 1746     		mov	r7, r2
 1642 067a 1D46     		mov	r5, r3
 1643              		.loc 1 747 0
 1644 067c B3F5004F 		cmp	r3, #32768
 1645 0680 0AD2     		bcs	.L124
 1646              	.LVL147:
 1647              	.L120:
 1648              		.loc 1 749 0
 1649 0682 A36C     		ldr	r3, [r4, #72]
 1650 0684 214A     		ldr	r2, .L126
 1651 0686 5A62     		str	r2, [r3, #36]
 1652              		.loc 1 752 0
 1653 0688 2046     		mov	r0, r4
 1654 068a FFF7FEFF 		bl	_sdc_wait_for_transfer_state
 1655              	.LVL148:
 1656 068e 0346     		mov	r3, r0
 1657 0690 30B1     		cbz	r0, .L125
 1658              	.L121:
 1659              		.loc 1 789 0
 1660 0692 1846     		mov	r0, r3
 1661 0694 03B0     		add	sp, sp, #12
 1662              		.cfi_remember_state
 1663              		.cfi_def_cfa_offset 20
 1664              		@ sp needed
 1665 0696 F0BD     		pop	{r4, r5, r6, r7, pc}
 1666              	.LVL149:
 1667              	.L124:
 1668              		.cfi_restore_state
 1669              		.loc 1 747 0 discriminator 2
 1670 0698 1D48     		ldr	r0, .L126+4
 1671              	.LVL150:
 1672 069a FFF7FEFF 		bl	chSysHalt
 1673              	.LVL151:
 1674 069e F0E7     		b	.L120
 1675              	.L125:
 1676              		.loc 1 756 0
 1677 06a0 636C     		ldr	r3, [r4, #68]
 1678 06a2 1B68     		ldr	r3, [r3]
 1679 06a4 DF60     		str	r7, [r3, #12]
 1680              		.loc 1 757 0
 1681 06a6 6A02     		lsls	r2, r5, #9
 1682 06a8 636C     		ldr	r3, [r4, #68]
 1683 06aa 1B68     		ldr	r3, [r3]
 1684 06ac 9108     		lsrs	r1, r2, #2
 1685 06ae 5960     		str	r1, [r3, #4]
 1686              		.loc 1 759 0
 1687 06b0 236C     		ldr	r3, [r4, #64]
 1688 06b2 616C     		ldr	r1, [r4, #68]
 1689 06b4 0968     		ldr	r1, [r1]
 1690 06b6 43F04003 		orr	r3, r3, #64
 1691 06ba 0B60     		str	r3, [r1]
 1692              		.loc 1 760 0
 1693 06bc 636C     		ldr	r3, [r4, #68]
ARM GAS  C:\Users\RAKIBU~1\AppData\Local\Temp\ccvAKyma.s 			page 31


 1694 06be 1968     		ldr	r1, [r3]
 1695 06c0 0B68     		ldr	r3, [r1]
 1696 06c2 43F00103 		orr	r3, r3, #1
 1697 06c6 0B60     		str	r3, [r1]
 1698              		.loc 1 763 0
 1699 06c8 A36C     		ldr	r3, [r4, #72]
 1700 06ca 1249     		ldr	r1, .L126+8
 1701 06cc 9963     		str	r1, [r3, #56]
 1702              		.loc 1 764 0
 1703 06ce A36C     		ldr	r3, [r4, #72]
 1704 06d0 40F21A31 		movw	r1, #794
 1705 06d4 D963     		str	r1, [r3, #60]
 1706              		.loc 1 769 0
 1707 06d6 A36C     		ldr	r3, [r4, #72]
 1708 06d8 9A62     		str	r2, [r3, #40]
 1709              		.loc 1 772 0
 1710 06da 01AB     		add	r3, sp, #4
 1711 06dc 2A46     		mov	r2, r5
 1712 06de 3146     		mov	r1, r6
 1713 06e0 2046     		mov	r0, r4
 1714 06e2 FFF7F5FE 		bl	sdc_lld_prepare_write
 1715              	.LVL152:
 1716 06e6 50B9     		cbnz	r0, .L122
 1717              		.loc 1 776 0
 1718 06e8 A36C     		ldr	r3, [r4, #72]
 1719 06ea 9922     		movs	r2, #153
 1720 06ec DA62     		str	r2, [r3, #44]
 1721              		.loc 1 781 0
 1722 06ee 01AA     		add	r2, sp, #4
 1723 06f0 2946     		mov	r1, r5
 1724 06f2 2046     		mov	r0, r4
 1725 06f4 FFF71CFE 		bl	sdc_lld_wait_transaction_end
 1726              	.LVL153:
 1727 06f8 0346     		mov	r3, r0
 1728 06fa 0028     		cmp	r0, #0
 1729 06fc C9D0     		beq	.L121
 1730              	.L122:
 1731              		.loc 1 787 0
 1732 06fe 01AA     		add	r2, sp, #4
 1733 0700 2946     		mov	r1, r5
 1734 0702 2046     		mov	r0, r4
 1735 0704 FFF784FE 		bl	sdc_lld_error_cleanup
 1736              	.LVL154:
 1737              		.loc 1 788 0
 1738 0708 0123     		movs	r3, #1
 1739 070a C2E7     		b	.L121
 1740              	.L127:
 1741              		.align	2
 1742              	.L126:
 1743 070c 00366E01 		.word	24000000
 1744 0710 64000000 		.word	.LANCHOR0+100
 1745 0714 FF07C000 		.word	12584959
 1746              		.cfi_endproc
 1747              	.LFE348:
 1748              		.size	sdc_lld_write_aligned, .-sdc_lld_write_aligned
 1749              		.align	1
 1750 0718 AFF30080 		.p2align 4,,15
ARM GAS  C:\Users\RAKIBU~1\AppData\Local\Temp\ccvAKyma.s 			page 32


 1750      AFF30080 
 1751              		.global	sdc_lld_read
 1752              		.syntax unified
 1753              		.thumb
 1754              		.thumb_func
 1755              		.fpu softvfp
 1756              		.type	sdc_lld_read, %function
 1757              	sdc_lld_read:
 1758              	.LFB349:
 1759              		.loc 1 806 0
 1760              		.cfi_startproc
 1761              		@ args = 0, pretend = 0, frame = 0
 1762              		@ frame_needed = 0, uses_anonymous_args = 0
 1763              	.LVL155:
 1764 0720 2DE9F041 		push	{r4, r5, r6, r7, r8, lr}
 1765              		.cfi_def_cfa_offset 24
 1766              		.cfi_offset 4, -24
 1767              		.cfi_offset 5, -20
 1768              		.cfi_offset 6, -16
 1769              		.cfi_offset 7, -12
 1770              		.cfi_offset 8, -8
 1771              		.cfi_offset 14, -4
 1772 0724 8046     		mov	r8, r0
 1773 0726 0D46     		mov	r5, r1
 1774 0728 1446     		mov	r4, r2
 1775 072a 1F46     		mov	r7, r3
 1776              		.loc 1 809 0
 1777 072c 12F0030F 		tst	r2, #3
 1778 0730 19D0     		beq	.L136
 1779              	.LBB148:
 1780              		.loc 1 811 0
 1781 0732 0026     		movs	r6, #0
 1782              	.LVL156:
 1783              	.L129:
 1784              		.loc 1 811 0 is_stmt 0 discriminator 1
 1785 0734 BE42     		cmp	r6, r7
 1786 0736 12D2     		bcs	.L137
 1787              		.loc 1 812 0 is_stmt 1
 1788 0738 0123     		movs	r3, #1
 1789 073a 0D4A     		ldr	r2, .L138
 1790 073c 2946     		mov	r1, r5
 1791 073e 4046     		mov	r0, r8
 1792 0740 FFF7FEFF 		bl	sdc_lld_read_aligned
 1793              	.LVL157:
 1794 0744 0346     		mov	r3, r0
 1795 0746 58B9     		cbnz	r0, .L131
 1796              		.loc 1 814 0 discriminator 2
 1797 0748 4FF40072 		mov	r2, #512
 1798 074c 0849     		ldr	r1, .L138
 1799 074e 2046     		mov	r0, r4
 1800 0750 FFF7FEFF 		bl	memcpy
 1801              	.LVL158:
 1802              		.loc 1 815 0 discriminator 2
 1803 0754 04F50074 		add	r4, r4, #512
 1804              	.LVL159:
 1805              		.loc 1 816 0 discriminator 2
 1806 0758 0135     		adds	r5, r5, #1
ARM GAS  C:\Users\RAKIBU~1\AppData\Local\Temp\ccvAKyma.s 			page 33


 1807              	.LVL160:
 1808              		.loc 1 811 0 discriminator 2
 1809 075a 0136     		adds	r6, r6, #1
 1810              	.LVL161:
 1811 075c EAE7     		b	.L129
 1812              	.L137:
 1813              		.loc 1 818 0
 1814 075e 0023     		movs	r3, #0
 1815              	.LVL162:
 1816              	.L131:
 1817              	.LBE148:
 1818              		.loc 1 824 0
 1819 0760 1846     		mov	r0, r3
 1820 0762 BDE8F081 		pop	{r4, r5, r6, r7, r8, pc}
 1821              	.LVL163:
 1822              	.L136:
 1823              		.loc 1 823 0
 1824 0766 FFF7FEFF 		bl	sdc_lld_read_aligned
 1825              	.LVL164:
 1826 076a 0346     		mov	r3, r0
 1827 076c F8E7     		b	.L131
 1828              	.L139:
 1829 076e 00BF     		.align	2
 1830              	.L138:
 1831 0770 00000000 		.word	.LANCHOR1
 1832              		.cfi_endproc
 1833              	.LFE349:
 1834              		.size	sdc_lld_read, .-sdc_lld_read
 1835              		.align	1
 1836 0774 AFF30080 		.p2align 4,,15
 1836      AFF30080 
 1836      AFF30080 
 1837              		.global	sdc_lld_write
 1838              		.syntax unified
 1839              		.thumb
 1840              		.thumb_func
 1841              		.fpu softvfp
 1842              		.type	sdc_lld_write, %function
 1843              	sdc_lld_write:
 1844              	.LFB350:
 1845              		.loc 1 841 0
 1846              		.cfi_startproc
 1847              		@ args = 0, pretend = 0, frame = 0
 1848              		@ frame_needed = 0, uses_anonymous_args = 0
 1849              	.LVL165:
 1850 0780 2DE9F843 		push	{r3, r4, r5, r6, r7, r8, r9, lr}
 1851              		.cfi_def_cfa_offset 32
 1852              		.cfi_offset 3, -32
 1853              		.cfi_offset 4, -28
 1854              		.cfi_offset 5, -24
 1855              		.cfi_offset 6, -20
 1856              		.cfi_offset 7, -16
 1857              		.cfi_offset 8, -12
 1858              		.cfi_offset 9, -8
 1859              		.cfi_offset 14, -4
 1860 0784 8146     		mov	r9, r0
 1861 0786 0D46     		mov	r5, r1
ARM GAS  C:\Users\RAKIBU~1\AppData\Local\Temp\ccvAKyma.s 			page 34


 1862 0788 1446     		mov	r4, r2
 1863 078a 9846     		mov	r8, r3
 1864              		.loc 1 844 0
 1865 078c 12F0030F 		tst	r2, #3
 1866 0790 1AD0     		beq	.L148
 1867              	.LBB149:
 1868              		.loc 1 846 0
 1869 0792 0026     		movs	r6, #0
 1870              	.LVL166:
 1871              	.L141:
 1872              		.loc 1 846 0 is_stmt 0 discriminator 1
 1873 0794 4645     		cmp	r6, r8
 1874 0796 13D2     		bcs	.L149
 1875              		.loc 1 847 0 is_stmt 1
 1876 0798 0D4F     		ldr	r7, .L150
 1877 079a 4FF40072 		mov	r2, #512
 1878 079e 2146     		mov	r1, r4
 1879 07a0 3846     		mov	r0, r7
 1880 07a2 FFF7FEFF 		bl	memcpy
 1881              	.LVL167:
 1882              		.loc 1 848 0
 1883 07a6 04F50074 		add	r4, r4, #512
 1884              	.LVL168:
 1885              		.loc 1 849 0
 1886 07aa 0123     		movs	r3, #1
 1887 07ac 3A46     		mov	r2, r7
 1888 07ae 2946     		mov	r1, r5
 1889 07b0 4846     		mov	r0, r9
 1890 07b2 FFF7FEFF 		bl	sdc_lld_write_aligned
 1891              	.LVL169:
 1892 07b6 0346     		mov	r3, r0
 1893 07b8 18B9     		cbnz	r0, .L143
 1894              		.loc 1 851 0 discriminator 2
 1895 07ba 0135     		adds	r5, r5, #1
 1896              	.LVL170:
 1897              		.loc 1 846 0 discriminator 2
 1898 07bc 0136     		adds	r6, r6, #1
 1899              	.LVL171:
 1900 07be E9E7     		b	.L141
 1901              	.L149:
 1902              		.loc 1 853 0
 1903 07c0 0023     		movs	r3, #0
 1904              	.LVL172:
 1905              	.L143:
 1906              	.LBE149:
 1907              		.loc 1 859 0
 1908 07c2 1846     		mov	r0, r3
 1909 07c4 BDE8F883 		pop	{r3, r4, r5, r6, r7, r8, r9, pc}
 1910              	.LVL173:
 1911              	.L148:
 1912              		.loc 1 858 0
 1913 07c8 FFF7FEFF 		bl	sdc_lld_write_aligned
 1914              	.LVL174:
 1915 07cc 0346     		mov	r3, r0
 1916 07ce F8E7     		b	.L143
 1917              	.L151:
 1918              		.align	2
ARM GAS  C:\Users\RAKIBU~1\AppData\Local\Temp\ccvAKyma.s 			page 35


 1919              	.L150:
 1920 07d0 00000000 		.word	.LANCHOR1
 1921              		.cfi_endproc
 1922              	.LFE350:
 1923              		.size	sdc_lld_write, .-sdc_lld_write
 1924              		.align	1
 1925 07d4 AFF30080 		.p2align 4,,15
 1925      AFF30080 
 1925      AFF30080 
 1926              		.global	sdc_lld_sync
 1927              		.syntax unified
 1928              		.thumb
 1929              		.thumb_func
 1930              		.fpu softvfp
 1931              		.type	sdc_lld_sync, %function
 1932              	sdc_lld_sync:
 1933              	.LFB351:
 1934              		.loc 1 872 0
 1935              		.cfi_startproc
 1936              		@ args = 0, pretend = 0, frame = 0
 1937              		@ frame_needed = 0, uses_anonymous_args = 0
 1938              		@ link register save eliminated.
 1939              	.LVL175:
 1940              		.loc 1 877 0
 1941 07e0 0020     		movs	r0, #0
 1942              	.LVL176:
 1943 07e2 7047     		bx	lr
 1944              		.cfi_endproc
 1945              	.LFE351:
 1946              		.size	sdc_lld_sync, .-sdc_lld_sync
 1947              		.comm	SDCD1,76,4
 1948              		.section	.rodata
 1949              		.align	2
 1950              		.set	.LANCHOR0,. + 0
 1951              		.type	__func__.9177, %object
 1952              		.size	__func__.9177, 27
 1953              	__func__.9177:
 1954 0000 7364635F 		.ascii	"sdc_lld_prepare_read_bytes\000"
 1954      6C6C645F 
 1954      70726570 
 1954      6172655F 
 1954      72656164 
 1955 001b 00       		.space	1
 1956              		.type	__func__.9215, %object
 1957              		.size	__func__.9215, 10
 1958              	__func__.9215:
 1959 001c 56656374 		.ascii	"Vector104\000"
 1959      6F723130 
 1959      3400
 1960 0026 0000     		.space	2
 1961              		.type	sdc_default_cfg, %object
 1962              		.size	sdc_default_cfg, 8
 1963              	sdc_default_cfg:
 1964 0028 00000000 		.word	0
 1965 002c 01       		.byte	1
 1966 002d 000000   		.space	3
 1967              		.type	__func__.9222, %object
ARM GAS  C:\Users\RAKIBU~1\AppData\Local\Temp\ccvAKyma.s 			page 36


 1968              		.size	__func__.9222, 14
 1969              	__func__.9222:
 1970 0030 7364635F 		.ascii	"sdc_lld_start\000"
 1970      6C6C645F 
 1970      73746172 
 1970      7400
 1971 003e 0000     		.space	2
 1972              		.type	__func__.6519, %object
 1973              		.size	__func__.6519, 12
 1974              	__func__.6519:
 1975 0040 63685379 		.ascii	"chSysUnlock\000"
 1975      73556E6C 
 1975      6F636B00 
 1976              		.type	__func__.9299, %object
 1977              		.size	__func__.9299, 21
 1978              	__func__.9299:
 1979 004c 7364635F 		.ascii	"sdc_lld_read_aligned\000"
 1979      6C6C645F 
 1979      72656164 
 1979      5F616C69 
 1979      676E6564 
 1980 0061 000000   		.space	3
 1981              		.type	__func__.9308, %object
 1982              		.size	__func__.9308, 22
 1983              	__func__.9308:
 1984 0064 7364635F 		.ascii	"sdc_lld_write_aligned\000"
 1984      6C6C645F 
 1984      77726974 
 1984      655F616C 
 1984      69676E65 
 1985              		.bss
 1986              		.align	2
 1987              		.set	.LANCHOR1,. + 0
 1988              		.type	u, %object
 1989              		.size	u, 512
 1990              	u:
 1991 0000 00000000 		.space	512
 1991      00000000 
 1991      00000000 
 1991      00000000 
 1991      00000000 
 1992              		.text
 1993              	.Letext0:
 1994              		.file 5 "c:\\chibistudio\\tools\\gnu tools arm embedded\\7.0 2017q4\\lib\\gcc\\arm-none-eabi\\7.2.
 1995              		.file 6 "c:\\chibistudio\\tools\\gnu tools arm embedded\\7.0 2017q4\\arm-none-eabi\\include\\machi
 1996              		.file 7 "c:\\chibistudio\\tools\\gnu tools arm embedded\\7.0 2017q4\\arm-none-eabi\\include\\sys\\
 1997              		.file 8 "c:\\chibistudio\\tools\\gnu tools arm embedded\\7.0 2017q4\\arm-none-eabi\\include\\sys\\
 1998              		.file 9 "c:\\chibistudio\\tools\\gnu tools arm embedded\\7.0 2017q4\\arm-none-eabi\\include\\sys\\
 1999              		.file 10 "c:\\chibistudio\\tools\\gnu tools arm embedded\\7.0 2017q4\\arm-none-eabi\\include\\sys\
 2000              		.file 11 "c:\\chibistudio\\tools\\gnu tools arm embedded\\7.0 2017q4\\arm-none-eabi\\include\\stdi
 2001              		.file 12 "../../../ChibiOSRepo/chibios191/os/common/ports/ARMCMx/compilers/GCC/chtypes.h"
 2002              		.file 13 "../../../ChibiOSRepo/chibios191/os/rt/include/chsystypes.h"
 2003              		.file 14 "../../../ChibiOSRepo/chibios191/os/rt/include/chschd.h"
 2004              		.file 15 "../../../ChibiOSRepo/chibios191/os/rt/include/chtime.h"
 2005              		.file 16 "../../../ChibiOSRepo/chibios191/os/common/ext/ARM/CMSIS/Core/Include/core_cm4.h"
 2006              		.file 17 "../../../ChibiOSRepo/chibios191/os/common/ext/ST/STM32F4xx/system_stm32f4xx.h"
 2007              		.file 18 "../../../ChibiOSRepo/chibios191/os/common/ext/ST/STM32F4xx/stm32f407xx.h"
ARM GAS  C:\Users\RAKIBU~1\AppData\Local\Temp\ccvAKyma.s 			page 37


 2008              		.file 19 "../../../ChibiOSRepo/chibios191/os/common/ports/ARMCMx/chcore.h"
 2009              		.file 20 "../../../ChibiOSRepo/chibios191/os/common/ports/ARMCMx/chcore_v7m.h"
 2010              		.file 21 "../../../ChibiOSRepo/chibios191/os/hal/ports/STM32/LLD/TIMv1/stm32_tim.h"
 2011              		.file 22 "../../../ChibiOSRepo/chibios191/os/rt/include/chtrace.h"
 2012              		.file 23 "../../../ChibiOSRepo/chibios191/os/rt/include/chtm.h"
 2013              		.file 24 "../../../ChibiOSRepo/chibios191/os/rt/include/chstats.h"
 2014              		.file 25 "../../../ChibiOSRepo/chibios191/os/rt/include/chsem.h"
 2015              		.file 26 "../../../ChibiOSRepo/chibios191/os/rt/include/chmtx.h"
 2016              		.file 27 "../../../ChibiOSRepo/chibios191/os/rt/include/chregistry.h"
 2017              		.file 28 "../../../ChibiOSRepo/chibios191/os/rt/include/chevents.h"
 2018              		.file 29 "../../../ChibiOSRepo/chibios191/os/oslib/include/chmemcore.h"
 2019              		.file 30 "../../../ChibiOSRepo/chibios191/os/oslib/include/chmempools.h"
 2020              		.file 31 "../../../ChibiOSRepo/chibios191/os/oslib/include/chfactory.h"
 2021              		.file 32 "../../../ChibiOSRepo/chibios191/os/hal/ports/STM32/LLD/DMAv2/stm32_dma.h"
 2022              		.file 33 "../../../ChibiOSRepo/chibios191/os/hal/include/hal_ioblock.h"
 2023              		.file 34 "../../../ChibiOSRepo/chibios191/os/hal/include/hal_persistent.h"
 2024              		.file 35 "../../../ChibiOSRepo/chibios191/os/hal/include/hal_queues.h"
 2025              		.file 36 "../../../ChibiOSRepo/chibios191/os/hal/include/hal_pal.h"
 2026              		.file 37 "../../../ChibiOSRepo/chibios191/os/hal/ports/STM32/LLD/GPIOv2/stm32_gpio.h"
 2027              		.file 38 "../../../ChibiOSRepo/chibios191/os/hal/ports/STM32/LLD/GPIOv2/hal_pal_lld.h"
 2028              		.file 39 "../../../ChibiOSRepo/chibios191/os/hal/include/hal_gpt.h"
 2029              		.file 40 "../../../ChibiOSRepo/chibios191/os/hal/ports/STM32/LLD/TIMv1/hal_gpt_lld.h"
 2030              		.file 41 "../../../ChibiOSRepo/chibios191/os/hal/include/hal_i2c.h"
 2031              		.file 42 "../../../ChibiOSRepo/chibios191/os/hal/ports/STM32/LLD/I2Cv1/hal_i2c_lld.h"
 2032              		.file 43 "c:\\chibistudio\\tools\\gnu tools arm embedded\\7.0 2017q4\\arm-none-eabi\\include\\time
 2033              		.file 44 "../../../ChibiOSRepo/chibios191/os/hal/include/hal_rtc.h"
 2034              		.file 45 "../../../ChibiOSRepo/chibios191/os/hal/ports/STM32/LLD/RTCv2/hal_rtc_lld.h"
 2035              		.file 46 "../../../ChibiOSRepo/chibios191/os/hal/include/hal_serial.h"
 2036              		.file 47 "../../../ChibiOSRepo/chibios191/os/hal/ports/STM32/LLD/USARTv1/hal_serial_lld.h"
 2037              		.file 48 "../../../ChibiOSRepo/chibios191/os/hal/include/hal_sdc.h"
 2038              		.file 49 "../../../ChibiOSRepo/chibios191/os/hal/ports/STM32/LLD/SDIOv1/hal_sdc_lld.h"
 2039              		.file 50 "../../../ChibiOSRepo/chibios191/os/hal/include/hal_spi.h"
 2040              		.file 51 "../../../ChibiOSRepo/chibios191/os/hal/ports/STM32/LLD/SPIv1/hal_spi_lld.h"
 2041              		.file 52 "../../../ChibiOSRepo/chibios191/os/rt/include/ch.h"
 2042              		.file 53 "../../../ChibiOSRepo/chibios191/os/rt/include/chthreads.h"
 2043              		.file 54 "../../../ChibiOSRepo/chibios191/os/hal/ports/common/ARMCMx/nvic.h"
 2044              		.file 55 "../../../ChibiOSRepo/chibios191/os/rt/include/chdebug.h"
 2045              		.file 56 "<built-in>"