ARM GAS  C:\Users\RAKIBU~1\AppData\Local\Temp\cc6uEqJR.s 			page 1


   1              		.cpu cortex-m4
   2              		.eabi_attribute 20, 1
   3              		.eabi_attribute 21, 1
   4              		.eabi_attribute 23, 3
   5              		.eabi_attribute 24, 1
   6              		.eabi_attribute 25, 1
   7              		.eabi_attribute 26, 1
   8              		.eabi_attribute 30, 1
   9              		.eabi_attribute 34, 1
  10              		.eabi_attribute 18, 4
  11              		.file	"hal_serial_lld.c"
  12              		.text
  13              	.Ltext0:
  14              		.cfi_sections	.debug_frame
  15              		.align	1
  16              		.p2align 4,,15
  17              		.syntax unified
  18              		.thumb
  19              		.thumb_func
  20              		.fpu softvfp
  21              		.type	usart_init, %function
  22              	usart_init:
  23              	.LFB328:
  24              		.file 1 "../../../ChibiOSRepo/chibios191/os/hal/ports/STM32/LLD/USARTv1/hal_serial_lld.c"
  25              		.loc 1 101 0
  26              		.cfi_startproc
  27              		@ args = 0, pretend = 0, frame = 0
  28              		@ frame_needed = 0, uses_anonymous_args = 0
  29              		@ link register save eliminated.
  30              	.LVL0:
  31 0000 10B4     		push	{r4}
  32              		.cfi_def_cfa_offset 4
  33              		.cfi_offset 4, -4
  34              		.loc 1 103 0
  35 0002 D0F85432 		ldr	r3, [r0, #596]
  36              	.LVL1:
  37              		.loc 1 107 0
  38 0006 1E4A     		ldr	r2, .L11
  39 0008 9342     		cmp	r3, r2
  40 000a 08D0     		beq	.L2
  41              		.loc 1 107 0 is_stmt 0 discriminator 1
  42 000c 02F58062 		add	r2, r2, #1024
  43 0010 9342     		cmp	r3, r2
  44 0012 04D0     		beq	.L2
  45              		.loc 1 113 0 is_stmt 1
  46 0014 0C68     		ldr	r4, [r1]
  47 0016 1B4A     		ldr	r2, .L11+4
  48 0018 B2FBF4F2 		udiv	r2, r2, r4
  49              	.LVL2:
  50 001c 03E0     		b	.L4
  51              	.LVL3:
  52              	.L2:
  53              		.loc 1 111 0
  54 001e 0C68     		ldr	r4, [r1]
  55 0020 194A     		ldr	r2, .L11+8
  56 0022 B2FBF4F2 		udiv	r2, r2, r4
  57              	.LVL4:
ARM GAS  C:\Users\RAKIBU~1\AppData\Local\Temp\cc6uEqJR.s 			page 2


  58              	.L4:
  59              		.loc 1 119 0
  60 0026 B1F90440 		ldrsh	r4, [r1, #4]
  61 002a 002C     		cmp	r4, #0
  62 002c 1DDB     		blt	.L9
  63              	.L5:
  64              		.loc 1 122 0
  65 002e 9A60     		str	r2, [r3, #8]
  66              		.loc 1 125 0
  67 0030 CA88     		ldrh	r2, [r1, #6]
  68              	.LVL5:
  69 0032 42F04002 		orr	r2, r2, #64
  70 0036 1A61     		str	r2, [r3, #16]
  71              	.LVL6:
  72              		.loc 1 126 0
  73 0038 0A89     		ldrh	r2, [r1, #8]
  74 003a 42F00102 		orr	r2, r2, #1
  75 003e 5A61     		str	r2, [r3, #20]
  76              		.loc 1 127 0
  77 0040 8A88     		ldrh	r2, [r1, #4]
  78              		.loc 1 128 0
  79 0042 42F40452 		orr	r2, r2, #8448
  80 0046 42F02C02 		orr	r2, r2, #44
  81              		.loc 1 127 0
  82 004a DA60     		str	r2, [r3, #12]
  83              		.loc 1 130 0
  84 004c 0022     		movs	r2, #0
  85 004e 1A60     		str	r2, [r3]
  86              		.loc 1 131 0
  87 0050 1A68     		ldr	r2, [r3]
  88              		.loc 1 132 0
  89 0052 5B68     		ldr	r3, [r3, #4]
  90              	.LVL7:
  91              		.loc 1 136 0
  92 0054 8B88     		ldrh	r3, [r1, #4]
  93 0056 03F4A053 		and	r3, r3, #5120
  94 005a B3F5806F 		cmp	r3, #1024
  95 005e 0BD0     		beq	.L10
  96              		.loc 1 140 0
  97 0060 FF23     		movs	r3, #255
  98 0062 80F85832 		strb	r3, [r0, #600]
  99              	.L1:
 100              		.loc 1 142 0
 101 0066 10BC     		pop	{r4}
 102              		.cfi_remember_state
 103              		.cfi_restore 4
 104              		.cfi_def_cfa_offset 0
 105 0068 7047     		bx	lr
 106              	.LVL8:
 107              	.L9:
 108              		.cfi_restore_state
 109              		.loc 1 120 0
 110 006a 22F00704 		bic	r4, r2, #7
 111 006e 02F00702 		and	r2, r2, #7
 112              	.LVL9:
 113 0072 42EA4402 		orr	r2, r2, r4, lsl #1
 114              	.LVL10:
ARM GAS  C:\Users\RAKIBU~1\AppData\Local\Temp\cc6uEqJR.s 			page 3


 115 0076 DAE7     		b	.L5
 116              	.LVL11:
 117              	.L10:
 118              		.loc 1 137 0
 119 0078 7F23     		movs	r3, #127
 120 007a 80F85832 		strb	r3, [r0, #600]
 121 007e F2E7     		b	.L1
 122              	.L12:
 123              		.align	2
 124              	.L11:
 125 0080 00100140 		.word	1073811456
 126 0084 80DE8002 		.word	42000000
 127 0088 00BD0105 		.word	84000000
 128              		.cfi_endproc
 129              	.LFE328:
 130              		.size	usart_init, .-usart_init
 131              		.align	1
 132 008c AFF30080 		.p2align 4,,15
 133              		.syntax unified
 134              		.thumb
 135              		.thumb_func
 136              		.fpu softvfp
 137              		.type	usart_deinit, %function
 138              	usart_deinit:
 139              	.LFB329:
 140              		.loc 1 150 0
 141              		.cfi_startproc
 142              		@ args = 0, pretend = 0, frame = 0
 143              		@ frame_needed = 0, uses_anonymous_args = 0
 144              		@ link register save eliminated.
 145              	.LVL12:
 146              		.loc 1 152 0
 147 0090 0023     		movs	r3, #0
 148 0092 C360     		str	r3, [r0, #12]
 149              		.loc 1 153 0
 150 0094 0361     		str	r3, [r0, #16]
 151              		.loc 1 154 0
 152 0096 4361     		str	r3, [r0, #20]
 153              		.loc 1 155 0
 154 0098 7047     		bx	lr
 155              		.cfi_endproc
 156              	.LFE329:
 157              		.size	usart_deinit, .-usart_deinit
 158              		.align	1
 159 009a 00BFAFF3 		.p2align 4,,15
 159      0080
 160              		.syntax unified
 161              		.thumb
 162              		.thumb_func
 163              		.fpu softvfp
 164              		.type	notify2, %function
 165              	notify2:
 166              	.LFB332:
 167              		.loc 1 245 0
 168              		.cfi_startproc
 169              		@ args = 0, pretend = 0, frame = 0
 170              		@ frame_needed = 0, uses_anonymous_args = 0
ARM GAS  C:\Users\RAKIBU~1\AppData\Local\Temp\cc6uEqJR.s 			page 4


 171              		@ link register save eliminated.
 172              	.LVL13:
 173              		.loc 1 248 0
 174 00a0 024A     		ldr	r2, .L15
 175 00a2 D368     		ldr	r3, [r2, #12]
 176 00a4 43F0C003 		orr	r3, r3, #192
 177 00a8 D360     		str	r3, [r2, #12]
 178              		.loc 1 249 0
 179 00aa 7047     		bx	lr
 180              	.L16:
 181              		.align	2
 182              	.L15:
 183 00ac 00440040 		.word	1073759232
 184              		.cfi_endproc
 185              	.LFE332:
 186              		.size	notify2, .-notify2
 187              		.align	1
 188              		.p2align 4,,15
 189              		.syntax unified
 190              		.thumb
 191              		.thumb_func
 192              		.fpu softvfp
 193              		.type	notify3, %function
 194              	notify3:
 195              	.LFB333:
 196              		.loc 1 253 0
 197              		.cfi_startproc
 198              		@ args = 0, pretend = 0, frame = 0
 199              		@ frame_needed = 0, uses_anonymous_args = 0
 200              		@ link register save eliminated.
 201              	.LVL14:
 202              		.loc 1 256 0
 203 00b0 024A     		ldr	r2, .L18
 204 00b2 D368     		ldr	r3, [r2, #12]
 205 00b4 43F0C003 		orr	r3, r3, #192
 206 00b8 D360     		str	r3, [r2, #12]
 207              		.loc 1 257 0
 208 00ba 7047     		bx	lr
 209              	.L19:
 210              		.align	2
 211              	.L18:
 212 00bc 00480040 		.word	1073760256
 213              		.cfi_endproc
 214              	.LFE333:
 215              		.size	notify3, .-notify3
 216              		.align	1
 217              		.p2align 4,,15
 218              		.syntax unified
 219              		.thumb
 220              		.thumb_func
 221              		.fpu softvfp
 222              		.type	notify6, %function
 223              	notify6:
 224              	.LFB334:
 225              		.loc 1 277 0
 226              		.cfi_startproc
 227              		@ args = 0, pretend = 0, frame = 0
ARM GAS  C:\Users\RAKIBU~1\AppData\Local\Temp\cc6uEqJR.s 			page 5


 228              		@ frame_needed = 0, uses_anonymous_args = 0
 229              		@ link register save eliminated.
 230              	.LVL15:
 231              		.loc 1 280 0
 232 00c0 024A     		ldr	r2, .L21
 233 00c2 D368     		ldr	r3, [r2, #12]
 234 00c4 43F0C003 		orr	r3, r3, #192
 235 00c8 D360     		str	r3, [r2, #12]
 236              		.loc 1 281 0
 237 00ca 7047     		bx	lr
 238              	.L22:
 239              		.align	2
 240              	.L21:
 241 00cc 00140140 		.word	1073812480
 242              		.cfi_endproc
 243              	.LFE334:
 244              		.size	notify6, .-notify6
 245              		.align	1
 246              		.p2align 4,,15
 247              		.syntax unified
 248              		.thumb
 249              		.thumb_func
 250              		.fpu softvfp
 251              		.type	set_error, %function
 252              	set_error:
 253              	.LFB330:
 254              		.loc 1 163 0
 255              		.cfi_startproc
 256              		@ args = 0, pretend = 0, frame = 0
 257              		@ frame_needed = 0, uses_anonymous_args = 0
 258              	.LVL16:
 259 00d0 08B5     		push	{r3, lr}
 260              		.cfi_def_cfa_offset 8
 261              		.cfi_offset 3, -8
 262              		.cfi_offset 14, -4
 263              	.LVL17:
 264              		.loc 1 166 0
 265 00d2 11F0080F 		tst	r1, #8
 266 00d6 14D1     		bne	.L28
 267              		.loc 1 164 0
 268 00d8 0023     		movs	r3, #0
 269              	.L24:
 270              	.LVL18:
 271              		.loc 1 168 0
 272 00da 11F0010F 		tst	r1, #1
 273 00de 01D0     		beq	.L25
 274              		.loc 1 169 0
 275 00e0 43F02003 		orr	r3, r3, #32
 276              	.LVL19:
 277              	.L25:
 278              		.loc 1 170 0
 279 00e4 11F0020F 		tst	r1, #2
 280 00e8 01D0     		beq	.L26
 281              		.loc 1 171 0
 282 00ea 43F04003 		orr	r3, r3, #64
 283              	.LVL20:
 284              	.L26:
ARM GAS  C:\Users\RAKIBU~1\AppData\Local\Temp\cc6uEqJR.s 			page 6


 285              		.loc 1 172 0
 286 00ee 11F0040F 		tst	r1, #4
 287 00f2 01D0     		beq	.L27
 288              		.loc 1 173 0
 289 00f4 43F48073 		orr	r3, r3, #256
 290              	.LVL21:
 291              	.L27:
 292              	.LBB110:
 293              	.LBB111:
 294              		.file 2 "../../../ChibiOSRepo/chibios191/os/hal/osal/rt/osal.h"
 295              		.loc 2 895 0
 296 00f8 1946     		mov	r1, r3
 297              	.LVL22:
 298 00fa 0430     		adds	r0, r0, #4
 299              	.LVL23:
 300 00fc FFF7FEFF 		bl	chEvtBroadcastFlagsI
 301              	.LVL24:
 302              	.LBE111:
 303              	.LBE110:
 304              		.loc 1 175 0
 305 0100 08BD     		pop	{r3, pc}
 306              	.LVL25:
 307              	.L28:
 308              		.loc 1 167 0
 309 0102 8023     		movs	r3, #128
 310 0104 E9E7     		b	.L24
 311              		.cfi_endproc
 312              	.LFE330:
 313              		.size	set_error, .-set_error
 314              		.align	1
 315 0106 00BFAFF3 		.p2align 4,,15
 315      0080AFF3 
 315      0080
 316              		.syntax unified
 317              		.thumb
 318              		.thumb_func
 319              		.fpu softvfp
 320              		.type	serve_interrupt, %function
 321              	serve_interrupt:
 322              	.LFB331:
 323              		.loc 1 182 0
 324              		.cfi_startproc
 325              		@ args = 0, pretend = 0, frame = 0
 326              		@ frame_needed = 0, uses_anonymous_args = 0
 327              	.LVL26:
 328 0110 F8B5     		push	{r3, r4, r5, r6, r7, lr}
 329              		.cfi_def_cfa_offset 24
 330              		.cfi_offset 3, -24
 331              		.cfi_offset 4, -20
 332              		.cfi_offset 5, -16
 333              		.cfi_offset 6, -12
 334              		.cfi_offset 7, -8
 335              		.cfi_offset 14, -4
 336 0112 0646     		mov	r6, r0
 337              		.loc 1 183 0
 338 0114 D0F85452 		ldr	r5, [r0, #596]
 339              	.LVL27:
ARM GAS  C:\Users\RAKIBU~1\AppData\Local\Temp\cc6uEqJR.s 			page 7


 340              		.loc 1 184 0
 341 0118 EF68     		ldr	r7, [r5, #12]
 342              	.LVL28:
 343              		.loc 1 185 0
 344 011a 2B68     		ldr	r3, [r5]
 345 011c 9CB2     		uxth	r4, r3
 346              	.LVL29:
 347              		.loc 1 188 0
 348 011e 13F4807F 		tst	r3, #256
 349 0122 07D1     		bne	.L45
 350              	.LVL30:
 351              	.L31:
 352              	.LBB112:
 353              	.LBB113:
 354              	.LBB114:
 355              	.LBB115:
 356              	.LBB116:
 357              	.LBB117:
 358              	.LBB118:
 359              		.file 3 "../../../ChibiOSRepo/chibios191/os/common/ext/ARM/CMSIS/Core/Include/cmsis_gcc.h"
 360              		.loc 3 493 0
 361 0124 2023     		movs	r3, #32
 362              		.syntax unified
 363              	@ 493 "../../../ChibiOSRepo/chibios191/os/common/ext/ARM/CMSIS/Core/Include/cmsis_gcc.h" 1
 364 0126 83F31188 		MSR basepri, r3
 365              	@ 0 "" 2
 366              	.LVL31:
 367              		.thumb
 368              		.syntax unified
 369              	.LBE118:
 370              	.LBE117:
 371              	.LBE116:
 372              	.LBE115:
 373              		.file 4 "../../../ChibiOSRepo/chibios191/os/rt/include/chsys.h"
 374              		.loc 4 396 0
 375 012a FFF7FEFF 		bl	_stats_start_measure_crit_isr
 376              	.LVL32:
 377              		.loc 4 397 0
 378 012e FFF7FEFF 		bl	_dbg_check_lock_from_isr
 379              	.LVL33:
 380 0132 1DE0     		b	.L32
 381              	.LVL34:
 382              	.L45:
 383              	.LBE114:
 384              	.LBE113:
 385              	.LBE112:
 386              	.LBB119:
 387              	.LBB120:
 388              	.LBB121:
 389              	.LBB122:
 390              	.LBB123:
 391              	.LBB124:
 392              	.LBB125:
 393              		.loc 3 493 0
 394 0134 2023     		movs	r3, #32
 395              		.syntax unified
 396              	@ 493 "../../../ChibiOSRepo/chibios191/os/common/ext/ARM/CMSIS/Core/Include/cmsis_gcc.h" 1
ARM GAS  C:\Users\RAKIBU~1\AppData\Local\Temp\cc6uEqJR.s 			page 8


 397 0136 83F31188 		MSR basepri, r3
 398              	@ 0 "" 2
 399              	.LVL35:
 400              		.thumb
 401              		.syntax unified
 402              	.LBE125:
 403              	.LBE124:
 404              	.LBE123:
 405              	.LBE122:
 406              		.loc 4 396 0
 407 013a FFF7FEFF 		bl	_stats_start_measure_crit_isr
 408              	.LVL36:
 409              		.loc 4 397 0
 410 013e FFF7FEFF 		bl	_dbg_check_lock_from_isr
 411              	.LVL37:
 412              	.LBE121:
 413              	.LBE120:
 414              	.LBE119:
 415              	.LBB126:
 416              	.LBB127:
 417              		.loc 2 895 0
 418 0142 4FF40071 		mov	r1, #512
 419 0146 301D     		adds	r0, r6, #4
 420              	.LVL38:
 421 0148 FFF7FEFF 		bl	chEvtBroadcastFlagsI
 422              	.LVL39:
 423              	.LBE127:
 424              	.LBE126:
 425              		.loc 1 191 0
 426 014c 6FF48073 		mvn	r3, #256
 427 0150 2B60     		str	r3, [r5]
 428              	.LBB128:
 429              	.LBB129:
 430              	.LBB130:
 431              		.loc 4 415 0
 432 0152 FFF7FEFF 		bl	_dbg_check_unlock_from_isr
 433              	.LVL40:
 434              		.loc 4 416 0
 435 0156 FFF7FEFF 		bl	_stats_stop_measure_crit_isr
 436              	.LVL41:
 437              	.LBB131:
 438              	.LBB132:
 439              	.LBB133:
 440              	.LBB134:
 441              		.loc 3 493 0
 442 015a 0023     		movs	r3, #0
 443              		.syntax unified
 444              	@ 493 "../../../ChibiOSRepo/chibios191/os/common/ext/ARM/CMSIS/Core/Include/cmsis_gcc.h" 1
 445 015c 83F31188 		MSR basepri, r3
 446              	@ 0 "" 2
 447              	.LVL42:
 448              		.thumb
 449              		.syntax unified
 450 0160 E0E7     		b	.L31
 451              	.L47:
 452              	.LBE134:
 453              	.LBE133:
ARM GAS  C:\Users\RAKIBU~1\AppData\Local\Temp\cc6uEqJR.s 			page 9


 454              	.LBE132:
 455              	.LBE131:
 456              	.LBE130:
 457              	.LBE129:
 458              	.LBE128:
 459              	.LBB135:
 460              		.loc 1 203 0
 461 0162 2146     		mov	r1, r4
 462 0164 3046     		mov	r0, r6
 463 0166 FFF7B3FF 		bl	set_error
 464              	.LVL43:
 465 016a 07E0     		b	.L33
 466              	.LVL44:
 467              	.L34:
 468              		.loc 1 207 0
 469 016c 2C68     		ldr	r4, [r5]
 470              	.LVL45:
 471 016e A4B2     		uxth	r4, r4
 472              	.LVL46:
 473              	.L32:
 474              	.LBE135:
 475              		.loc 1 197 0
 476 0170 14F02F0F 		tst	r4, #47
 477 0174 0DD0     		beq	.L46
 478              	.LBB136:
 479              		.loc 1 202 0
 480 0176 14F00F0F 		tst	r4, #15
 481 017a F2D1     		bne	.L47
 482              	.L33:
 483              		.loc 1 204 0
 484 017c 6968     		ldr	r1, [r5, #4]
 485 017e 96F85832 		ldrb	r3, [r6, #600]	@ zero_extendqisi2
 486 0182 1940     		ands	r1, r1, r3
 487              	.LVL47:
 488              		.loc 1 205 0
 489 0184 14F0200F 		tst	r4, #32
 490 0188 F0D0     		beq	.L34
 491              		.loc 1 206 0
 492 018a 3046     		mov	r0, r6
 493 018c FFF7FEFF 		bl	sdIncomingDataI
 494              	.LVL48:
 495 0190 ECE7     		b	.L34
 496              	.L46:
 497              	.LBE136:
 498              	.LBB137:
 499              	.LBB138:
 500              	.LBB139:
 501              		.loc 4 415 0
 502 0192 FFF7FEFF 		bl	_dbg_check_unlock_from_isr
 503              	.LVL49:
 504              		.loc 4 416 0
 505 0196 FFF7FEFF 		bl	_stats_stop_measure_crit_isr
 506              	.LVL50:
 507              	.LBB140:
 508              	.LBB141:
 509              	.LBB142:
 510              	.LBB143:
ARM GAS  C:\Users\RAKIBU~1\AppData\Local\Temp\cc6uEqJR.s 			page 10


 511              		.loc 3 493 0
 512 019a 0023     		movs	r3, #0
 513              		.syntax unified
 514              	@ 493 "../../../ChibiOSRepo/chibios191/os/common/ext/ARM/CMSIS/Core/Include/cmsis_gcc.h" 1
 515 019c 83F31188 		MSR basepri, r3
 516              	@ 0 "" 2
 517              	.LVL51:
 518              		.thumb
 519              		.syntax unified
 520              	.LBE143:
 521              	.LBE142:
 522              	.LBE141:
 523              	.LBE140:
 524              	.LBE139:
 525              	.LBE138:
 526              	.LBE137:
 527              		.loc 1 212 0
 528 01a0 17F0800F 		tst	r7, #128
 529 01a4 02D0     		beq	.L36
 530              		.loc 1 212 0 is_stmt 0 discriminator 1
 531 01a6 14F0800F 		tst	r4, #128
 532 01aa 06D1     		bne	.L48
 533              	.L36:
 534              		.loc 1 226 0 is_stmt 1
 535 01ac 17F0400F 		tst	r7, #64
 536 01b0 02D0     		beq	.L30
 537              		.loc 1 226 0 is_stmt 0 discriminator 1
 538 01b2 14F0400F 		tst	r4, #64
 539 01b6 1FD1     		bne	.L49
 540              	.LVL52:
 541              	.L30:
 542              		.loc 1 234 0 is_stmt 1
 543 01b8 F8BD     		pop	{r3, r4, r5, r6, r7, pc}
 544              	.LVL53:
 545              	.L48:
 546              	.LBB144:
 547              	.LBB145:
 548              	.LBB146:
 549              	.LBB147:
 550              	.LBB148:
 551              	.LBB149:
 552              	.LBB150:
 553              	.LBB151:
 554              		.loc 3 493 0
 555 01ba 2023     		movs	r3, #32
 556              		.syntax unified
 557              	@ 493 "../../../ChibiOSRepo/chibios191/os/common/ext/ARM/CMSIS/Core/Include/cmsis_gcc.h" 1
 558 01bc 83F31188 		MSR basepri, r3
 559              	@ 0 "" 2
 560              	.LVL54:
 561              		.thumb
 562              		.syntax unified
 563              	.LBE151:
 564              	.LBE150:
 565              	.LBE149:
 566              	.LBE148:
 567              		.loc 4 396 0
ARM GAS  C:\Users\RAKIBU~1\AppData\Local\Temp\cc6uEqJR.s 			page 11


 568 01c0 FFF7FEFF 		bl	_stats_start_measure_crit_isr
 569              	.LVL55:
 570              		.loc 4 397 0
 571 01c4 FFF7FEFF 		bl	_dbg_check_lock_from_isr
 572              	.LVL56:
 573              	.LBE147:
 574              	.LBE146:
 575              	.LBE145:
 576              		.loc 1 215 0
 577 01c8 06F13000 		add	r0, r6, #48
 578 01cc FFF7FEFF 		bl	oqGetI
 579              	.LVL57:
 580              		.loc 1 216 0
 581 01d0 0028     		cmp	r0, #0
 582 01d2 08DB     		blt	.L50
 583              		.loc 1 221 0
 584 01d4 6860     		str	r0, [r5, #4]
 585              	.LVL58:
 586              	.L38:
 587              	.LBB152:
 588              	.LBB153:
 589              	.LBB154:
 590              		.loc 4 415 0
 591 01d6 FFF7FEFF 		bl	_dbg_check_unlock_from_isr
 592              	.LVL59:
 593              		.loc 4 416 0
 594 01da FFF7FEFF 		bl	_stats_stop_measure_crit_isr
 595              	.LVL60:
 596              	.LBB155:
 597              	.LBB156:
 598              	.LBB157:
 599              	.LBB158:
 600              		.loc 3 493 0
 601 01de 0023     		movs	r3, #0
 602              		.syntax unified
 603              	@ 493 "../../../ChibiOSRepo/chibios191/os/common/ext/ARM/CMSIS/Core/Include/cmsis_gcc.h" 1
 604 01e0 83F31188 		MSR basepri, r3
 605              	@ 0 "" 2
 606              	.LVL61:
 607              		.thumb
 608              		.syntax unified
 609 01e4 E2E7     		b	.L36
 610              	.LVL62:
 611              	.L50:
 612              	.LBE158:
 613              	.LBE157:
 614              	.LBE156:
 615              	.LBE155:
 616              	.LBE154:
 617              	.LBE153:
 618              	.LBE152:
 619              	.LBB159:
 620              	.LBB160:
 621              		.loc 2 895 0
 622 01e6 0821     		movs	r1, #8
 623 01e8 301D     		adds	r0, r6, #4
 624              	.LVL63:
ARM GAS  C:\Users\RAKIBU~1\AppData\Local\Temp\cc6uEqJR.s 			page 12


 625 01ea FFF7FEFF 		bl	chEvtBroadcastFlagsI
 626              	.LVL64:
 627              	.LBE160:
 628              	.LBE159:
 629              		.loc 1 218 0
 630 01ee 4FF67F73 		movw	r3, #65407
 631 01f2 3B40     		ands	r3, r3, r7
 632 01f4 EB60     		str	r3, [r5, #12]
 633 01f6 EEE7     		b	.L38
 634              	.L49:
 635              	.LVL65:
 636              	.LBE144:
 637              	.LBB161:
 638              	.LBB162:
 639              	.LBB163:
 640              	.LBB164:
 641              	.LBB165:
 642              	.LBB166:
 643              	.LBB167:
 644              		.loc 3 493 0
 645 01f8 2023     		movs	r3, #32
 646              		.syntax unified
 647              	@ 493 "../../../ChibiOSRepo/chibios191/os/common/ext/ARM/CMSIS/Core/Include/cmsis_gcc.h" 1
 648 01fa 83F31188 		MSR basepri, r3
 649              	@ 0 "" 2
 650              	.LVL66:
 651              		.thumb
 652              		.syntax unified
 653              	.LBE167:
 654              	.LBE166:
 655              	.LBE165:
 656              	.LBE164:
 657              		.loc 4 396 0
 658 01fe FFF7FEFF 		bl	_stats_start_measure_crit_isr
 659              	.LVL67:
 660              		.loc 4 397 0
 661 0202 FFF7FEFF 		bl	_dbg_check_lock_from_isr
 662              	.LVL68:
 663              	.LBE163:
 664              	.LBE162:
 665              	.LBE161:
 666              		.loc 1 228 0
 667 0206 726C     		ldr	r2, [r6, #68]
 668 0208 B36C     		ldr	r3, [r6, #72]
 669 020a 9A42     		cmp	r2, r3
 670 020c 09D0     		beq	.L51
 671 020e 0023     		movs	r3, #0
 672              	.L40:
 673              		.loc 1 228 0 is_stmt 0 discriminator 6
 674 0210 63B9     		cbnz	r3, .L52
 675              	.LVL69:
 676              	.L41:
 677              	.LBB168:
 678              	.LBB169:
 679              	.LBB170:
 680              		.loc 4 415 0 is_stmt 1
 681 0212 FFF7FEFF 		bl	_dbg_check_unlock_from_isr
ARM GAS  C:\Users\RAKIBU~1\AppData\Local\Temp\cc6uEqJR.s 			page 13


 682              	.LVL70:
 683              		.loc 4 416 0
 684 0216 FFF7FEFF 		bl	_stats_stop_measure_crit_isr
 685              	.LVL71:
 686              	.LBB171:
 687              	.LBB172:
 688              	.LBB173:
 689              	.LBB174:
 690              		.loc 3 493 0
 691 021a 0023     		movs	r3, #0
 692              		.syntax unified
 693              	@ 493 "../../../ChibiOSRepo/chibios191/os/common/ext/ARM/CMSIS/Core/Include/cmsis_gcc.h" 1
 694 021c 83F31188 		MSR basepri, r3
 695              	@ 0 "" 2
 696              	.LVL72:
 697              		.thumb
 698              		.syntax unified
 699              	.LBE174:
 700              	.LBE173:
 701              	.LBE172:
 702              	.LBE171:
 703              	.LBE170:
 704              	.LBE169:
 705              	.LBE168:
 706              		.loc 1 234 0
 707 0220 CAE7     		b	.L30
 708              	.LVL73:
 709              	.L51:
 710              		.loc 1 228 0 discriminator 1
 711 0222 B36B     		ldr	r3, [r6, #56]
 712 0224 002B     		cmp	r3, #0
 713 0226 F3D0     		beq	.L40
 714              		.loc 1 228 0 is_stmt 0
 715 0228 0123     		movs	r3, #1
 716 022a F1E7     		b	.L40
 717              	.L52:
 718              	.LVL74:
 719              	.LBB175:
 720              	.LBB176:
 721              		.loc 2 895 0 is_stmt 1
 722 022c 1021     		movs	r1, #16
 723 022e 301D     		adds	r0, r6, #4
 724              	.LVL75:
 725 0230 FFF7FEFF 		bl	chEvtBroadcastFlagsI
 726              	.LVL76:
 727              	.LBE176:
 728              	.LBE175:
 729              		.loc 1 230 0
 730 0234 27F04007 		bic	r7, r7, #64
 731              	.LVL77:
 732 0238 3F04     		lsls	r7, r7, #16
 733 023a 3F0C     		lsrs	r7, r7, #16
 734 023c EF60     		str	r7, [r5, #12]
 735 023e E8E7     		b	.L41
 736              		.cfi_endproc
 737              	.LFE331:
 738              		.size	serve_interrupt, .-serve_interrupt
ARM GAS  C:\Users\RAKIBU~1\AppData\Local\Temp\cc6uEqJR.s 			page 14


 739              		.align	1
 740              		.p2align 4,,15
 741              		.global	VectorD8
 742              		.syntax unified
 743              		.thumb
 744              		.thumb_func
 745              		.fpu softvfp
 746              		.type	VectorD8, %function
 747              	VectorD8:
 748              	.LFB335:
 749              		.loc 1 332 0
 750              		.cfi_startproc
 751              		@ args = 0, pretend = 0, frame = 0
 752              		@ frame_needed = 0, uses_anonymous_args = 0
 753 0240 10B5     		push	{r4, lr}
 754              		.cfi_def_cfa_offset 8
 755              		.cfi_offset 4, -8
 756              		.cfi_offset 14, -4
 757              		.loc 1 334 0
 758 0242 FFF7FEFF 		bl	_stats_increase_irq
 759              	.LVL78:
 760 0246 084C     		ldr	r4, .L55
 761 0248 2046     		mov	r0, r4
 762 024a FFF7FEFF 		bl	_trace_isr_enter
 763              	.LVL79:
 764 024e FFF7FEFF 		bl	_dbg_check_enter_isr
 765              	.LVL80:
 766              		.loc 1 336 0
 767 0252 0648     		ldr	r0, .L55+4
 768 0254 FFF75CFF 		bl	serve_interrupt
 769              	.LVL81:
 770              		.loc 1 338 0
 771 0258 FFF7FEFF 		bl	_dbg_check_leave_isr
 772              	.LVL82:
 773 025c 2046     		mov	r0, r4
 774 025e FFF7FEFF 		bl	_trace_isr_leave
 775              	.LVL83:
 776 0262 FFF7FEFF 		bl	_port_irq_epilogue
 777              	.LVL84:
 778              		.loc 1 339 0
 779 0266 10BD     		pop	{r4, pc}
 780              	.L56:
 781              		.align	2
 782              	.L55:
 783 0268 00000000 		.word	.LANCHOR0
 784 026c 00000000 		.word	SD2
 785              		.cfi_endproc
 786              	.LFE335:
 787              		.size	VectorD8, .-VectorD8
 788              		.align	1
 789              		.p2align 4,,15
 790              		.global	VectorDC
 791              		.syntax unified
 792              		.thumb
 793              		.thumb_func
 794              		.fpu softvfp
 795              		.type	VectorDC, %function
ARM GAS  C:\Users\RAKIBU~1\AppData\Local\Temp\cc6uEqJR.s 			page 15


 796              	VectorDC:
 797              	.LFB336:
 798              		.loc 1 351 0
 799              		.cfi_startproc
 800              		@ args = 0, pretend = 0, frame = 0
 801              		@ frame_needed = 0, uses_anonymous_args = 0
 802 0270 10B5     		push	{r4, lr}
 803              		.cfi_def_cfa_offset 8
 804              		.cfi_offset 4, -8
 805              		.cfi_offset 14, -4
 806              		.loc 1 353 0
 807 0272 FFF7FEFF 		bl	_stats_increase_irq
 808              	.LVL85:
 809 0276 084C     		ldr	r4, .L59
 810 0278 2046     		mov	r0, r4
 811 027a FFF7FEFF 		bl	_trace_isr_enter
 812              	.LVL86:
 813 027e FFF7FEFF 		bl	_dbg_check_enter_isr
 814              	.LVL87:
 815              		.loc 1 355 0
 816 0282 0648     		ldr	r0, .L59+4
 817 0284 FFF744FF 		bl	serve_interrupt
 818              	.LVL88:
 819              		.loc 1 357 0
 820 0288 FFF7FEFF 		bl	_dbg_check_leave_isr
 821              	.LVL89:
 822 028c 2046     		mov	r0, r4
 823 028e FFF7FEFF 		bl	_trace_isr_leave
 824              	.LVL90:
 825 0292 FFF7FEFF 		bl	_port_irq_epilogue
 826              	.LVL91:
 827              		.loc 1 358 0
 828 0296 10BD     		pop	{r4, pc}
 829              	.L60:
 830              		.align	2
 831              	.L59:
 832 0298 0C000000 		.word	.LANCHOR0+12
 833 029c 00000000 		.word	SD3
 834              		.cfi_endproc
 835              	.LFE336:
 836              		.size	VectorDC, .-VectorDC
 837              		.align	1
 838              		.p2align 4,,15
 839              		.global	Vector15C
 840              		.syntax unified
 841              		.thumb
 842              		.thumb_func
 843              		.fpu softvfp
 844              		.type	Vector15C, %function
 845              	Vector15C:
 846              	.LFB337:
 847              		.loc 1 408 0
 848              		.cfi_startproc
 849              		@ args = 0, pretend = 0, frame = 0
 850              		@ frame_needed = 0, uses_anonymous_args = 0
 851 02a0 10B5     		push	{r4, lr}
 852              		.cfi_def_cfa_offset 8
ARM GAS  C:\Users\RAKIBU~1\AppData\Local\Temp\cc6uEqJR.s 			page 16


 853              		.cfi_offset 4, -8
 854              		.cfi_offset 14, -4
 855              		.loc 1 410 0
 856 02a2 FFF7FEFF 		bl	_stats_increase_irq
 857              	.LVL92:
 858 02a6 084C     		ldr	r4, .L63
 859 02a8 2046     		mov	r0, r4
 860 02aa FFF7FEFF 		bl	_trace_isr_enter
 861              	.LVL93:
 862 02ae FFF7FEFF 		bl	_dbg_check_enter_isr
 863              	.LVL94:
 864              		.loc 1 412 0
 865 02b2 0648     		ldr	r0, .L63+4
 866 02b4 FFF72CFF 		bl	serve_interrupt
 867              	.LVL95:
 868              		.loc 1 414 0
 869 02b8 FFF7FEFF 		bl	_dbg_check_leave_isr
 870              	.LVL96:
 871 02bc 2046     		mov	r0, r4
 872 02be FFF7FEFF 		bl	_trace_isr_leave
 873              	.LVL97:
 874 02c2 FFF7FEFF 		bl	_port_irq_epilogue
 875              	.LVL98:
 876              		.loc 1 415 0
 877 02c6 10BD     		pop	{r4, pc}
 878              	.L64:
 879              		.align	2
 880              	.L63:
 881 02c8 18000000 		.word	.LANCHOR0+24
 882 02cc 00000000 		.word	SD6
 883              		.cfi_endproc
 884              	.LFE337:
 885              		.size	Vector15C, .-Vector15C
 886              		.align	1
 887              		.p2align 4,,15
 888              		.global	sd_lld_init
 889              		.syntax unified
 890              		.thumb
 891              		.thumb_func
 892              		.fpu softvfp
 893              		.type	sd_lld_init, %function
 894              	sd_lld_init:
 895              	.LFB338:
 896              		.loc 1 465 0
 897              		.cfi_startproc
 898              		@ args = 0, pretend = 0, frame = 0
 899              		@ frame_needed = 0, uses_anonymous_args = 0
 900 02d0 10B5     		push	{r4, lr}
 901              		.cfi_def_cfa_offset 8
 902              		.cfi_offset 4, -8
 903              		.cfi_offset 14, -4
 904              		.loc 1 473 0
 905 02d2 0E4C     		ldr	r4, .L67
 906 02d4 0E4A     		ldr	r2, .L67+4
 907 02d6 0021     		movs	r1, #0
 908 02d8 2046     		mov	r0, r4
 909 02da FFF7FEFF 		bl	sdObjectInit
ARM GAS  C:\Users\RAKIBU~1\AppData\Local\Temp\cc6uEqJR.s 			page 17


 910              	.LVL99:
 911              		.loc 1 474 0
 912 02de 0D4B     		ldr	r3, .L67+8
 913 02e0 C4F85432 		str	r3, [r4, #596]
 914              		.loc 1 478 0
 915 02e4 0C4C     		ldr	r4, .L67+12
 916 02e6 0D4A     		ldr	r2, .L67+16
 917 02e8 0021     		movs	r1, #0
 918 02ea 2046     		mov	r0, r4
 919 02ec FFF7FEFF 		bl	sdObjectInit
 920              	.LVL100:
 921              		.loc 1 479 0
 922 02f0 0B4B     		ldr	r3, .L67+20
 923 02f2 C4F85432 		str	r3, [r4, #596]
 924              		.loc 1 493 0
 925 02f6 0B4C     		ldr	r4, .L67+24
 926 02f8 0B4A     		ldr	r2, .L67+28
 927 02fa 0021     		movs	r1, #0
 928 02fc 2046     		mov	r0, r4
 929 02fe FFF7FEFF 		bl	sdObjectInit
 930              	.LVL101:
 931              		.loc 1 494 0
 932 0302 0A4B     		ldr	r3, .L67+32
 933 0304 C4F85432 		str	r3, [r4, #596]
 934              		.loc 1 506 0
 935 0308 10BD     		pop	{r4, pc}
 936              	.L68:
 937 030a 00BF     		.align	2
 938              	.L67:
 939 030c 00000000 		.word	SD2
 940 0310 00000000 		.word	notify2
 941 0314 00440040 		.word	1073759232
 942 0318 00000000 		.word	SD3
 943 031c 00000000 		.word	notify3
 944 0320 00480040 		.word	1073760256
 945 0324 00000000 		.word	SD6
 946 0328 00000000 		.word	notify6
 947 032c 00140140 		.word	1073812480
 948              		.cfi_endproc
 949              	.LFE338:
 950              		.size	sd_lld_init, .-sd_lld_init
 951              		.align	1
 952              		.p2align 4,,15
 953              		.global	sd_lld_start
 954              		.syntax unified
 955              		.thumb
 956              		.thumb_func
 957              		.fpu softvfp
 958              		.type	sd_lld_start, %function
 959              	sd_lld_start:
 960              	.LFB339:
 961              		.loc 1 518 0
 962              		.cfi_startproc
 963              		@ args = 0, pretend = 0, frame = 0
 964              		@ frame_needed = 0, uses_anonymous_args = 0
 965              	.LVL102:
 966 0330 38B5     		push	{r3, r4, r5, lr}
ARM GAS  C:\Users\RAKIBU~1\AppData\Local\Temp\cc6uEqJR.s 			page 18


 967              		.cfi_def_cfa_offset 16
 968              		.cfi_offset 3, -16
 969              		.cfi_offset 4, -12
 970              		.cfi_offset 5, -8
 971              		.cfi_offset 14, -4
 972 0332 0446     		mov	r4, r0
 973              		.loc 1 520 0
 974 0334 0D46     		mov	r5, r1
 975 0336 39B1     		cbz	r1, .L76
 976              	.L70:
 977              	.LVL103:
 978              		.loc 1 523 0
 979 0338 237A     		ldrb	r3, [r4, #8]	@ zero_extendqisi2
 980 033a 012B     		cmp	r3, #1
 981 033c 06D0     		beq	.L77
 982              	.LVL104:
 983              	.L71:
 984              		.loc 1 573 0
 985 033e 2946     		mov	r1, r5
 986 0340 2046     		mov	r0, r4
 987 0342 FFF75DFE 		bl	usart_init
 988              	.LVL105:
 989              		.loc 1 574 0
 990 0346 38BD     		pop	{r3, r4, r5, pc}
 991              	.LVL106:
 992              	.L76:
 993              		.loc 1 521 0
 994 0348 1B4D     		ldr	r5, .L80
 995 034a F5E7     		b	.L70
 996              	.LVL107:
 997              	.L77:
 998              		.loc 1 531 0
 999 034c 1B4B     		ldr	r3, .L80+4
 1000 034e 9C42     		cmp	r4, r3
 1001 0350 14D0     		beq	.L78
 1002              	.LVL108:
 1003              	.L72:
 1004              		.loc 1 537 0
 1005 0352 1B4B     		ldr	r3, .L80+8
 1006 0354 9C42     		cmp	r4, r3
 1007 0356 20D0     		beq	.L79
 1008              	.L73:
 1009              		.loc 1 555 0
 1010 0358 1A4B     		ldr	r3, .L80+12
 1011 035a 9C42     		cmp	r4, r3
 1012 035c EFD1     		bne	.L71
 1013              		.loc 1 556 0
 1014 035e 1A4B     		ldr	r3, .L80+16
 1015 0360 5A6C     		ldr	r2, [r3, #68]
 1016 0362 42F02002 		orr	r2, r2, #32
 1017 0366 5A64     		str	r2, [r3, #68]
 1018 0368 5A6E     		ldr	r2, [r3, #100]
 1019 036a 42F02002 		orr	r2, r2, #32
 1020 036e 5A66     		str	r2, [r3, #100]
 1021 0370 5B6E     		ldr	r3, [r3, #100]
 1022              		.loc 1 557 0
 1023 0372 0C21     		movs	r1, #12
ARM GAS  C:\Users\RAKIBU~1\AppData\Local\Temp\cc6uEqJR.s 			page 19


 1024 0374 4720     		movs	r0, #71
 1025 0376 FFF7FEFF 		bl	nvicEnableVector
 1026              	.LVL109:
 1027 037a E0E7     		b	.L71
 1028              	.LVL110:
 1029              	.L78:
 1030              		.loc 1 532 0
 1031 037c 124B     		ldr	r3, .L80+16
 1032 037e 1A6C     		ldr	r2, [r3, #64]
 1033 0380 42F40032 		orr	r2, r2, #131072
 1034 0384 1A64     		str	r2, [r3, #64]
 1035 0386 1A6E     		ldr	r2, [r3, #96]
 1036 0388 42F40032 		orr	r2, r2, #131072
 1037 038c 1A66     		str	r2, [r3, #96]
 1038 038e 1B6E     		ldr	r3, [r3, #96]
 1039              		.loc 1 533 0
 1040 0390 0321     		movs	r1, #3
 1041 0392 2620     		movs	r0, #38
 1042              	.LVL111:
 1043 0394 FFF7FEFF 		bl	nvicEnableVector
 1044              	.LVL112:
 1045 0398 DBE7     		b	.L72
 1046              	.L79:
 1047              		.loc 1 538 0
 1048 039a 0B4B     		ldr	r3, .L80+16
 1049 039c 1A6C     		ldr	r2, [r3, #64]
 1050 039e 42F48022 		orr	r2, r2, #262144
 1051 03a2 1A64     		str	r2, [r3, #64]
 1052 03a4 1A6E     		ldr	r2, [r3, #96]
 1053 03a6 42F48022 		orr	r2, r2, #262144
 1054 03aa 1A66     		str	r2, [r3, #96]
 1055 03ac 1B6E     		ldr	r3, [r3, #96]
 1056              		.loc 1 539 0
 1057 03ae 0321     		movs	r1, #3
 1058 03b0 2720     		movs	r0, #39
 1059 03b2 FFF7FEFF 		bl	nvicEnableVector
 1060              	.LVL113:
 1061 03b6 CFE7     		b	.L73
 1062              	.L81:
 1063              		.align	2
 1064              	.L80:
 1065 03b8 24000000 		.word	.LANCHOR0+36
 1066 03bc 00000000 		.word	SD2
 1067 03c0 00000000 		.word	SD3
 1068 03c4 00000000 		.word	SD6
 1069 03c8 00380240 		.word	1073887232
 1070              		.cfi_endproc
 1071              	.LFE339:
 1072              		.size	sd_lld_start, .-sd_lld_start
 1073              		.align	1
 1074 03cc AFF30080 		.p2align 4,,15
 1075              		.global	sd_lld_stop
 1076              		.syntax unified
 1077              		.thumb
 1078              		.thumb_func
 1079              		.fpu softvfp
 1080              		.type	sd_lld_stop, %function
ARM GAS  C:\Users\RAKIBU~1\AppData\Local\Temp\cc6uEqJR.s 			page 20


 1081              	sd_lld_stop:
 1082              	.LFB340:
 1083              		.loc 1 585 0
 1084              		.cfi_startproc
 1085              		@ args = 0, pretend = 0, frame = 0
 1086              		@ frame_needed = 0, uses_anonymous_args = 0
 1087              	.LVL114:
 1088              		.loc 1 587 0
 1089 03d0 037A     		ldrb	r3, [r0, #8]	@ zero_extendqisi2
 1090 03d2 022B     		cmp	r3, #2
 1091 03d4 00D0     		beq	.L90
 1092 03d6 7047     		bx	lr
 1093              	.L90:
 1094              		.loc 1 585 0
 1095 03d8 10B5     		push	{r4, lr}
 1096              		.cfi_def_cfa_offset 8
 1097              		.cfi_offset 4, -8
 1098              		.cfi_offset 14, -4
 1099 03da 0446     		mov	r4, r0
 1100              		.loc 1 588 0
 1101 03dc D0F85402 		ldr	r0, [r0, #596]
 1102              	.LVL115:
 1103 03e0 FFF756FE 		bl	usart_deinit
 1104              	.LVL116:
 1105              		.loc 1 597 0
 1106 03e4 194B     		ldr	r3, .L94
 1107 03e6 9C42     		cmp	r4, r3
 1108 03e8 06D0     		beq	.L91
 1109              		.loc 1 604 0
 1110 03ea 194B     		ldr	r3, .L94+4
 1111 03ec 9C42     		cmp	r4, r3
 1112 03ee 11D0     		beq	.L92
 1113              		.loc 1 625 0
 1114 03f0 184B     		ldr	r3, .L94+8
 1115 03f2 9C42     		cmp	r4, r3
 1116 03f4 1CD0     		beq	.L93
 1117              	.L82:
 1118              		.loc 1 646 0
 1119 03f6 10BD     		pop	{r4, pc}
 1120              	.LVL117:
 1121              	.L91:
 1122              		.loc 1 598 0
 1123 03f8 174B     		ldr	r3, .L94+12
 1124 03fa 1A6C     		ldr	r2, [r3, #64]
 1125 03fc 22F40032 		bic	r2, r2, #131072
 1126 0400 1A64     		str	r2, [r3, #64]
 1127 0402 1A6E     		ldr	r2, [r3, #96]
 1128 0404 22F40032 		bic	r2, r2, #131072
 1129 0408 1A66     		str	r2, [r3, #96]
 1130 040a 1B6E     		ldr	r3, [r3, #96]
 1131              		.loc 1 599 0
 1132 040c 2620     		movs	r0, #38
 1133 040e FFF7FEFF 		bl	nvicDisableVector
 1134              	.LVL118:
 1135              		.loc 1 600 0
 1136 0412 F0E7     		b	.L82
 1137              	.L92:
ARM GAS  C:\Users\RAKIBU~1\AppData\Local\Temp\cc6uEqJR.s 			page 21


 1138              		.loc 1 605 0
 1139 0414 104B     		ldr	r3, .L94+12
 1140 0416 1A6C     		ldr	r2, [r3, #64]
 1141 0418 22F48022 		bic	r2, r2, #262144
 1142 041c 1A64     		str	r2, [r3, #64]
 1143 041e 1A6E     		ldr	r2, [r3, #96]
 1144 0420 22F48022 		bic	r2, r2, #262144
 1145 0424 1A66     		str	r2, [r3, #96]
 1146 0426 1B6E     		ldr	r3, [r3, #96]
 1147              		.loc 1 606 0
 1148 0428 2720     		movs	r0, #39
 1149 042a FFF7FEFF 		bl	nvicDisableVector
 1150              	.LVL119:
 1151              		.loc 1 607 0
 1152 042e E2E7     		b	.L82
 1153              	.L93:
 1154              		.loc 1 626 0
 1155 0430 094B     		ldr	r3, .L94+12
 1156 0432 5A6C     		ldr	r2, [r3, #68]
 1157 0434 22F02002 		bic	r2, r2, #32
 1158 0438 5A64     		str	r2, [r3, #68]
 1159 043a 5A6E     		ldr	r2, [r3, #100]
 1160 043c 22F02002 		bic	r2, r2, #32
 1161 0440 5A66     		str	r2, [r3, #100]
 1162 0442 5B6E     		ldr	r3, [r3, #100]
 1163              		.loc 1 627 0
 1164 0444 4720     		movs	r0, #71
 1165 0446 FFF7FEFF 		bl	nvicDisableVector
 1166              	.LVL120:
 1167              		.loc 1 628 0
 1168 044a D4E7     		b	.L82
 1169              	.L95:
 1170              		.align	2
 1171              	.L94:
 1172 044c 00000000 		.word	SD2
 1173 0450 00000000 		.word	SD3
 1174 0454 00000000 		.word	SD6
 1175 0458 00380240 		.word	1073887232
 1176              		.cfi_endproc
 1177              	.LFE340:
 1178              		.size	sd_lld_stop, .-sd_lld_stop
 1179              		.comm	SD6,604,4
 1180              		.comm	SD3,604,4
 1181              		.comm	SD2,604,4
 1182              		.section	.rodata
 1183              		.align	2
 1184              		.set	.LANCHOR0,. + 0
 1185              		.type	__func__.9005, %object
 1186              		.size	__func__.9005, 9
 1187              	__func__.9005:
 1188 0000 56656374 		.ascii	"VectorD8\000"
 1188      6F724438 
 1188      00
 1189 0009 000000   		.space	3
 1190              		.type	__func__.9009, %object
 1191              		.size	__func__.9009, 9
 1192              	__func__.9009:
ARM GAS  C:\Users\RAKIBU~1\AppData\Local\Temp\cc6uEqJR.s 			page 22


 1193 000c 56656374 		.ascii	"VectorDC\000"
 1193      6F724443 
 1193      00
 1194 0015 000000   		.space	3
 1195              		.type	__func__.9013, %object
 1196              		.size	__func__.9013, 10
 1197              	__func__.9013:
 1198 0018 56656374 		.ascii	"Vector15C\000"
 1198      6F723135 
 1198      4300
 1199 0022 0000     		.space	2
 1200              		.type	default_config, %object
 1201              		.size	default_config, 12
 1202              	default_config:
 1203 0024 00C20100 		.word	115200
 1204 0028 0000     		.short	0
 1205 002a 0000     		.short	0
 1206 002c 0000     		.short	0
 1207 002e 0000     		.space	2
 1208              		.text
 1209              	.Letext0:
 1210              		.file 5 "c:\\chibistudio\\tools\\gnu tools arm embedded\\7.0 2017q4\\lib\\gcc\\arm-none-eabi\\7.2.
 1211              		.file 6 "c:\\chibistudio\\tools\\gnu tools arm embedded\\7.0 2017q4\\arm-none-eabi\\include\\machi
 1212              		.file 7 "c:\\chibistudio\\tools\\gnu tools arm embedded\\7.0 2017q4\\arm-none-eabi\\include\\sys\\
 1213              		.file 8 "c:\\chibistudio\\tools\\gnu tools arm embedded\\7.0 2017q4\\arm-none-eabi\\include\\stdin
 1214              		.file 9 "../../../ChibiOSRepo/chibios191/os/common/ports/ARMCMx/compilers/GCC/chtypes.h"
 1215              		.file 10 "../../../ChibiOSRepo/chibios191/os/rt/include/chsystypes.h"
 1216              		.file 11 "../../../ChibiOSRepo/chibios191/os/rt/include/chschd.h"
 1217              		.file 12 "../../../ChibiOSRepo/chibios191/os/rt/include/chtime.h"
 1218              		.file 13 "../../../ChibiOSRepo/chibios191/os/common/ext/ARM/CMSIS/Core/Include/core_cm4.h"
 1219              		.file 14 "../../../ChibiOSRepo/chibios191/os/common/ext/ST/STM32F4xx/system_stm32f4xx.h"
 1220              		.file 15 "../../../ChibiOSRepo/chibios191/os/common/ext/ST/STM32F4xx/stm32f407xx.h"
 1221              		.file 16 "../../../ChibiOSRepo/chibios191/os/common/ports/ARMCMx/chcore.h"
 1222              		.file 17 "../../../ChibiOSRepo/chibios191/os/common/ports/ARMCMx/chcore_v7m.h"
 1223              		.file 18 "../../../ChibiOSRepo/chibios191/os/hal/ports/STM32/LLD/TIMv1/stm32_tim.h"
 1224              		.file 19 "../../../ChibiOSRepo/chibios191/os/rt/include/chtrace.h"
 1225              		.file 20 "../../../ChibiOSRepo/chibios191/os/rt/include/chtm.h"
 1226              		.file 21 "../../../ChibiOSRepo/chibios191/os/rt/include/chstats.h"
 1227              		.file 22 "../../../ChibiOSRepo/chibios191/os/rt/include/chsem.h"
 1228              		.file 23 "../../../ChibiOSRepo/chibios191/os/rt/include/chmtx.h"
 1229              		.file 24 "../../../ChibiOSRepo/chibios191/os/rt/include/chregistry.h"
 1230              		.file 25 "../../../ChibiOSRepo/chibios191/os/rt/include/chevents.h"
 1231              		.file 26 "../../../ChibiOSRepo/chibios191/os/oslib/include/chmemcore.h"
 1232              		.file 27 "../../../ChibiOSRepo/chibios191/os/oslib/include/chmempools.h"
 1233              		.file 28 "../../../ChibiOSRepo/chibios191/os/oslib/include/chfactory.h"
 1234              		.file 29 "../../../ChibiOSRepo/chibios191/os/hal/ports/STM32/LLD/DMAv2/stm32_dma.h"
 1235              		.file 30 "../../../ChibiOSRepo/chibios191/os/hal/include/hal_ioblock.h"
 1236              		.file 31 "../../../ChibiOSRepo/chibios191/os/hal/include/hal_persistent.h"
 1237              		.file 32 "../../../ChibiOSRepo/chibios191/os/hal/include/hal_queues.h"
 1238              		.file 33 "../../../ChibiOSRepo/chibios191/os/hal/include/hal_pal.h"
 1239              		.file 34 "../../../ChibiOSRepo/chibios191/os/hal/ports/STM32/LLD/GPIOv2/stm32_gpio.h"
 1240              		.file 35 "../../../ChibiOSRepo/chibios191/os/hal/ports/STM32/LLD/GPIOv2/hal_pal_lld.h"
 1241              		.file 36 "../../../ChibiOSRepo/chibios191/os/hal/include/hal_gpt.h"
 1242              		.file 37 "../../../ChibiOSRepo/chibios191/os/hal/ports/STM32/LLD/TIMv1/hal_gpt_lld.h"
 1243              		.file 38 "../../../ChibiOSRepo/chibios191/os/hal/include/hal_i2c.h"
 1244              		.file 39 "../../../ChibiOSRepo/chibios191/os/hal/ports/STM32/LLD/I2Cv1/hal_i2c_lld.h"
 1245              		.file 40 "c:\\chibistudio\\tools\\gnu tools arm embedded\\7.0 2017q4\\arm-none-eabi\\include\\sys\
ARM GAS  C:\Users\RAKIBU~1\AppData\Local\Temp\cc6uEqJR.s 			page 23


 1246              		.file 41 "c:\\chibistudio\\tools\\gnu tools arm embedded\\7.0 2017q4\\arm-none-eabi\\include\\sys\
 1247              		.file 42 "c:\\chibistudio\\tools\\gnu tools arm embedded\\7.0 2017q4\\arm-none-eabi\\include\\sys\
 1248              		.file 43 "c:\\chibistudio\\tools\\gnu tools arm embedded\\7.0 2017q4\\arm-none-eabi\\include\\time
 1249              		.file 44 "../../../ChibiOSRepo/chibios191/os/hal/include/hal_rtc.h"
 1250              		.file 45 "../../../ChibiOSRepo/chibios191/os/hal/ports/STM32/LLD/RTCv2/hal_rtc_lld.h"
 1251              		.file 46 "../../../ChibiOSRepo/chibios191/os/hal/include/hal_serial.h"
 1252              		.file 47 "../../../ChibiOSRepo/chibios191/os/hal/ports/STM32/LLD/USARTv1/hal_serial_lld.h"
 1253              		.file 48 "../../../ChibiOSRepo/chibios191/os/hal/include/hal_sdc.h"
 1254              		.file 49 "../../../ChibiOSRepo/chibios191/os/hal/ports/STM32/LLD/SDIOv1/hal_sdc_lld.h"
 1255              		.file 50 "../../../ChibiOSRepo/chibios191/os/hal/include/hal_spi.h"
 1256              		.file 51 "../../../ChibiOSRepo/chibios191/os/hal/ports/STM32/LLD/SPIv1/hal_spi_lld.h"
 1257              		.file 52 "../../../ChibiOSRepo/chibios191/os/hal/ports/common/ARMCMx/nvic.h"
 1258              		.file 53 "../../../ChibiOSRepo/chibios191/os/rt/include/chdebug.h"