ARM GAS  C:\Users\RAKIBU~1\AppData\Local\Temp\ccMGOePf.s 			page 1


   1              		.cpu cortex-m4
   2              		.eabi_attribute 20, 1
   3              		.eabi_attribute 21, 1
   4              		.eabi_attribute 23, 3
   5              		.eabi_attribute 24, 1
   6              		.eabi_attribute 25, 1
   7              		.eabi_attribute 26, 1
   8              		.eabi_attribute 30, 1
   9              		.eabi_attribute 34, 1
  10              		.eabi_attribute 18, 4
  11              		.file	"hal_st_lld.c"
  12              		.text
  13              	.Ltext0:
  14              		.cfi_sections	.debug_frame
  15              		.align	1
  16              		.p2align 4,,15
  17              		.global	VectorB0
  18              		.syntax unified
  19              		.thumb
  20              		.thumb_func
  21              		.fpu softvfp
  22              		.type	VectorB0, %function
  23              	VectorB0:
  24              	.LFB328:
  25              		.file 1 "../../../ChibiOSRepo/chibios191/os/hal/ports/STM32/LLD/TIMv1/hal_st_lld.c"
  26              		.loc 1 253 0
  27              		.cfi_startproc
  28              		@ args = 0, pretend = 0, frame = 0
  29              		@ frame_needed = 0, uses_anonymous_args = 0
  30 0000 10B5     		push	{r4, lr}
  31              		.cfi_def_cfa_offset 8
  32              		.cfi_offset 4, -8
  33              		.cfi_offset 14, -4
  34              		.loc 1 255 0
  35 0002 FFF7FEFF 		bl	_stats_increase_irq
  36              	.LVL0:
  37 0006 1348     		ldr	r0, .L5
  38 0008 FFF7FEFF 		bl	_trace_isr_enter
  39              	.LVL1:
  40 000c FFF7FEFF 		bl	_dbg_check_enter_isr
  41              	.LVL2:
  42              		.loc 1 260 0
  43 0010 4FF08043 		mov	r3, #1073741824
  44 0014 1B69     		ldr	r3, [r3, #16]
  45 0016 13F0020F 		tst	r3, #2
  46 001a 07D1     		bne	.L4
  47              	.L2:
  48              		.loc 1 268 0
  49 001c FFF7FEFF 		bl	_dbg_check_leave_isr
  50              	.LVL3:
  51 0020 0C48     		ldr	r0, .L5
  52 0022 FFF7FEFF 		bl	_trace_isr_leave
  53              	.LVL4:
  54 0026 FFF7FEFF 		bl	_port_irq_epilogue
  55              	.LVL5:
  56              		.loc 1 269 0
  57 002a 10BD     		pop	{r4, pc}
ARM GAS  C:\Users\RAKIBU~1\AppData\Local\Temp\ccMGOePf.s 			page 2


  58              	.L4:
  59              		.loc 1 261 0
  60 002c 0024     		movs	r4, #0
  61 002e 4FF08043 		mov	r3, #1073741824
  62 0032 1C61     		str	r4, [r3, #16]
  63              	.LVL6:
  64              	.LBB54:
  65              	.LBB55:
  66              	.LBB56:
  67              	.LBB57:
  68              	.LBB58:
  69              	.LBB59:
  70              	.LBB60:
  71              		.file 2 "../../../ChibiOSRepo/chibios191/os/common/ext/ARM/CMSIS/Core/Include/cmsis_gcc.h"
  72              		.loc 2 493 0
  73 0034 2023     		movs	r3, #32
  74              		.syntax unified
  75              	@ 493 "../../../ChibiOSRepo/chibios191/os/common/ext/ARM/CMSIS/Core/Include/cmsis_gcc.h" 1
  76 0036 83F31188 		MSR basepri, r3
  77              	@ 0 "" 2
  78              	.LVL7:
  79              		.thumb
  80              		.syntax unified
  81              	.LBE60:
  82              	.LBE59:
  83              	.LBE58:
  84              	.LBE57:
  85              		.file 3 "../../../ChibiOSRepo/chibios191/os/rt/include/chsys.h"
  86              		.loc 3 396 0
  87 003a FFF7FEFF 		bl	_stats_start_measure_crit_isr
  88              	.LVL8:
  89              		.loc 3 397 0
  90 003e FFF7FEFF 		bl	_dbg_check_lock_from_isr
  91              	.LVL9:
  92              	.LBE56:
  93              	.LBE55:
  94              	.LBE54:
  95              	.LBB61:
  96              	.LBB62:
  97              		.file 4 "../../../ChibiOSRepo/chibios191/os/hal/osal/rt/osal.h"
  98              		.loc 4 603 0
  99 0042 FFF7FEFF 		bl	chSysTimerHandlerI
 100              	.LVL10:
 101              	.LBE62:
 102              	.LBE61:
 103              	.LBB63:
 104              	.LBB64:
 105              	.LBB65:
 106              		.loc 3 415 0
 107 0046 FFF7FEFF 		bl	_dbg_check_unlock_from_isr
 108              	.LVL11:
 109              		.loc 3 416 0
 110 004a FFF7FEFF 		bl	_stats_stop_measure_crit_isr
 111              	.LVL12:
 112              	.LBB66:
 113              	.LBB67:
 114              	.LBB68:
ARM GAS  C:\Users\RAKIBU~1\AppData\Local\Temp\ccMGOePf.s 			page 3


 115              	.LBB69:
 116              		.loc 2 493 0
 117              		.syntax unified
 118              	@ 493 "../../../ChibiOSRepo/chibios191/os/common/ext/ARM/CMSIS/Core/Include/cmsis_gcc.h" 1
 119 004e 84F31188 		MSR basepri, r4
 120              	@ 0 "" 2
 121              	.LVL13:
 122              		.thumb
 123              		.syntax unified
 124 0052 E3E7     		b	.L2
 125              	.L6:
 126              		.align	2
 127              	.L5:
 128 0054 00000000 		.word	.LANCHOR0
 129              	.LBE69:
 130              	.LBE68:
 131              	.LBE67:
 132              	.LBE66:
 133              	.LBE65:
 134              	.LBE64:
 135              	.LBE63:
 136              		.cfi_endproc
 137              	.LFE328:
 138              		.size	VectorB0, .-VectorB0
 139              		.align	1
 140 0058 AFF30080 		.p2align 4,,15
 140      AFF30080 
 141              		.global	st_lld_init
 142              		.syntax unified
 143              		.thumb
 144              		.thumb_func
 145              		.fpu softvfp
 146              		.type	st_lld_init, %function
 147              	st_lld_init:
 148              	.LFB329:
 149              		.loc 1 281 0
 150              		.cfi_startproc
 151              		@ args = 0, pretend = 0, frame = 0
 152              		@ frame_needed = 0, uses_anonymous_args = 0
 153 0060 08B5     		push	{r3, lr}
 154              		.cfi_def_cfa_offset 8
 155              		.cfi_offset 3, -8
 156              		.cfi_offset 14, -4
 157              		.loc 1 287 0
 158 0062 124B     		ldr	r3, .L9
 159 0064 1A6C     		ldr	r2, [r3, #64]
 160 0066 42F00102 		orr	r2, r2, #1
 161 006a 1A64     		str	r2, [r3, #64]
 162 006c 1A6E     		ldr	r2, [r3, #96]
 163 006e 42F00102 		orr	r2, r2, #1
 164 0072 1A66     		str	r2, [r3, #96]
 165 0074 1B6E     		ldr	r3, [r3, #96]
 166              		.loc 1 290 0
 167 0076 0E4A     		ldr	r2, .L9+4
 168 0078 9368     		ldr	r3, [r2, #8]
 169 007a 43F00103 		orr	r3, r3, #1
 170 007e 9360     		str	r3, [r2, #8]
ARM GAS  C:\Users\RAKIBU~1\AppData\Local\Temp\ccMGOePf.s 			page 4


 171              		.loc 1 293 0
 172 0080 4FF08043 		mov	r3, #1073741824
 173 0084 40F24732 		movw	r2, #839
 174 0088 9A62     		str	r2, [r3, #40]
 175              		.loc 1 294 0
 176 008a 4FF0FF32 		mov	r2, #-1
 177 008e DA62     		str	r2, [r3, #44]
 178              		.loc 1 295 0
 179 0090 0022     		movs	r2, #0
 180 0092 9A61     		str	r2, [r3, #24]
 181              		.loc 1 296 0
 182 0094 5A63     		str	r2, [r3, #52]
 183              		.loc 1 297 0
 184 0096 DA60     		str	r2, [r3, #12]
 185              		.loc 1 298 0
 186 0098 5A60     		str	r2, [r3, #4]
 187              		.loc 1 299 0
 188 009a 0122     		movs	r2, #1
 189 009c 5A61     		str	r2, [r3, #20]
 190              		.loc 1 300 0
 191 009e 1A60     		str	r2, [r3]
 192              		.loc 1 303 0
 193 00a0 0821     		movs	r1, #8
 194 00a2 1C20     		movs	r0, #28
 195 00a4 FFF7FEFF 		bl	nvicEnableVector
 196              	.LVL14:
 197              		.loc 1 318 0
 198 00a8 08BD     		pop	{r3, pc}
 199              	.L10:
 200 00aa 00BF     		.align	2
 201              	.L9:
 202 00ac 00380240 		.word	1073887232
 203 00b0 002004E0 		.word	-536600576
 204              		.cfi_endproc
 205              	.LFE329:
 206              		.size	st_lld_init, .-st_lld_init
 207              		.section	.rodata
 208              		.align	2
 209              		.set	.LANCHOR0,. + 0
 210              		.type	__func__.8967, %object
 211              		.size	__func__.8967, 9
 212              	__func__.8967:
 213 0000 56656374 		.ascii	"VectorB0\000"
 213      6F724230 
 213      00
 214              		.text
 215              	.Letext0:
 216              		.file 5 "c:\\chibistudio\\tools\\gnu tools arm embedded\\7.0 2017q4\\lib\\gcc\\arm-none-eabi\\7.2.
 217              		.file 6 "c:\\chibistudio\\tools\\gnu tools arm embedded\\7.0 2017q4\\arm-none-eabi\\include\\machi
 218              		.file 7 "c:\\chibistudio\\tools\\gnu tools arm embedded\\7.0 2017q4\\arm-none-eabi\\include\\sys\\
 219              		.file 8 "c:\\chibistudio\\tools\\gnu tools arm embedded\\7.0 2017q4\\arm-none-eabi\\include\\stdin
 220              		.file 9 "../../../ChibiOSRepo/chibios191/os/common/ports/ARMCMx/compilers/GCC/chtypes.h"
 221              		.file 10 "../../../ChibiOSRepo/chibios191/os/rt/include/chsystypes.h"
 222              		.file 11 "../../../ChibiOSRepo/chibios191/os/rt/include/chschd.h"
 223              		.file 12 "../../../ChibiOSRepo/chibios191/os/rt/include/chtime.h"
 224              		.file 13 "../../../ChibiOSRepo/chibios191/os/common/ext/ARM/CMSIS/Core/Include/core_cm4.h"
 225              		.file 14 "../../../ChibiOSRepo/chibios191/os/common/ext/ST/STM32F4xx/system_stm32f4xx.h"
ARM GAS  C:\Users\RAKIBU~1\AppData\Local\Temp\ccMGOePf.s 			page 5


 226              		.file 15 "../../../ChibiOSRepo/chibios191/os/common/ext/ST/STM32F4xx/stm32f407xx.h"
 227              		.file 16 "../../../ChibiOSRepo/chibios191/os/common/ports/ARMCMx/chcore.h"
 228              		.file 17 "../../../ChibiOSRepo/chibios191/os/common/ports/ARMCMx/chcore_v7m.h"
 229              		.file 18 "../../../ChibiOSRepo/chibios191/os/hal/ports/STM32/LLD/TIMv1/stm32_tim.h"
 230              		.file 19 "../../../ChibiOSRepo/chibios191/os/rt/include/chtrace.h"
 231              		.file 20 "../../../ChibiOSRepo/chibios191/os/rt/include/chtm.h"
 232              		.file 21 "../../../ChibiOSRepo/chibios191/os/rt/include/chstats.h"
 233              		.file 22 "../../../ChibiOSRepo/chibios191/os/rt/include/chsem.h"
 234              		.file 23 "../../../ChibiOSRepo/chibios191/os/rt/include/chmtx.h"
 235              		.file 24 "../../../ChibiOSRepo/chibios191/os/rt/include/chregistry.h"
 236              		.file 25 "../../../ChibiOSRepo/chibios191/os/rt/include/chevents.h"
 237              		.file 26 "../../../ChibiOSRepo/chibios191/os/oslib/include/chmemcore.h"
 238              		.file 27 "../../../ChibiOSRepo/chibios191/os/oslib/include/chmempools.h"
 239              		.file 28 "../../../ChibiOSRepo/chibios191/os/oslib/include/chfactory.h"
 240              		.file 29 "../../../ChibiOSRepo/chibios191/os/hal/ports/STM32/LLD/DMAv2/stm32_dma.h"
 241              		.file 30 "../../../ChibiOSRepo/chibios191/os/hal/include/hal_ioblock.h"
 242              		.file 31 "../../../ChibiOSRepo/chibios191/os/hal/include/hal_persistent.h"
 243              		.file 32 "../../../ChibiOSRepo/chibios191/os/hal/include/hal_queues.h"
 244              		.file 33 "../../../ChibiOSRepo/chibios191/os/hal/include/hal_pal.h"
 245              		.file 34 "../../../ChibiOSRepo/chibios191/os/hal/ports/STM32/LLD/GPIOv2/stm32_gpio.h"
 246              		.file 35 "../../../ChibiOSRepo/chibios191/os/hal/ports/STM32/LLD/GPIOv2/hal_pal_lld.h"
 247              		.file 36 "../../../ChibiOSRepo/chibios191/os/hal/include/hal_gpt.h"
 248              		.file 37 "../../../ChibiOSRepo/chibios191/os/hal/ports/STM32/LLD/TIMv1/hal_gpt_lld.h"
 249              		.file 38 "../../../ChibiOSRepo/chibios191/os/hal/include/hal_i2c.h"
 250              		.file 39 "../../../ChibiOSRepo/chibios191/os/hal/ports/STM32/LLD/I2Cv1/hal_i2c_lld.h"
 251              		.file 40 "c:\\chibistudio\\tools\\gnu tools arm embedded\\7.0 2017q4\\arm-none-eabi\\include\\sys\
 252              		.file 41 "c:\\chibistudio\\tools\\gnu tools arm embedded\\7.0 2017q4\\arm-none-eabi\\include\\sys\
 253              		.file 42 "c:\\chibistudio\\tools\\gnu tools arm embedded\\7.0 2017q4\\arm-none-eabi\\include\\sys\
 254              		.file 43 "c:\\chibistudio\\tools\\gnu tools arm embedded\\7.0 2017q4\\arm-none-eabi\\include\\time
 255              		.file 44 "../../../ChibiOSRepo/chibios191/os/hal/include/hal_rtc.h"
 256              		.file 45 "../../../ChibiOSRepo/chibios191/os/hal/ports/STM32/LLD/RTCv2/hal_rtc_lld.h"
 257              		.file 46 "../../../ChibiOSRepo/chibios191/os/hal/include/hal_serial.h"
 258              		.file 47 "../../../ChibiOSRepo/chibios191/os/hal/ports/STM32/LLD/USARTv1/hal_serial_lld.h"
 259              		.file 48 "../../../ChibiOSRepo/chibios191/os/hal/include/hal_sdc.h"
 260              		.file 49 "../../../ChibiOSRepo/chibios191/os/hal/ports/STM32/LLD/SDIOv1/hal_sdc_lld.h"
 261              		.file 50 "../../../ChibiOSRepo/chibios191/os/hal/include/hal_spi.h"
 262              		.file 51 "../../../ChibiOSRepo/chibios191/os/hal/ports/STM32/LLD/SPIv1/hal_spi_lld.h"
 263              		.file 52 "../../../ChibiOSRepo/chibios191/os/hal/ports/common/ARMCMx/nvic.h"
 264              		.file 53 "../../../ChibiOSRepo/chibios191/os/rt/include/chdebug.h"