ARM GAS  C:\Users\RAKIBU~1\AppData\Local\Temp\cc4rVvKa.s 			page 1


   1              		.cpu cortex-m4
   2              		.eabi_attribute 20, 1
   3              		.eabi_attribute 21, 1
   4              		.eabi_attribute 23, 3
   5              		.eabi_attribute 24, 1
   6              		.eabi_attribute 25, 1
   7              		.eabi_attribute 26, 1
   8              		.eabi_attribute 30, 1
   9              		.eabi_attribute 34, 1
  10              		.eabi_attribute 18, 4
  11              		.file	"hal_gpt_lld.c"
  12              		.text
  13              	.Ltext0:
  14              		.cfi_sections	.debug_frame
  15              		.align	1
  16              		.p2align 4,,15
  17              		.global	gpt_lld_init
  18              		.syntax unified
  19              		.thumb
  20              		.thumb_func
  21              		.fpu softvfp
  22              		.type	gpt_lld_init, %function
  23              	gpt_lld_init:
  24              	.LFB329:
  25              		.file 1 "../../../ChibiOSRepo/chibios191/os/hal/ports/STM32/LLD/TIMv1/hal_gpt_lld.c"
  26              		.loc 1 506 0
  27              		.cfi_startproc
  28              		@ args = 0, pretend = 0, frame = 0
  29              		@ frame_needed = 0, uses_anonymous_args = 0
  30 0000 08B5     		push	{r3, lr}
  31              		.cfi_def_cfa_offset 8
  32              		.cfi_offset 3, -8
  33              		.cfi_offset 14, -4
  34              		.loc 1 534 0
  35 0002 0348     		ldr	r0, .L3
  36 0004 034B     		ldr	r3, .L3+4
  37 0006 C360     		str	r3, [r0, #12]
  38              		.loc 1 535 0
  39 0008 FFF7FEFF 		bl	gptObjectInit
  40              	.LVL0:
  41              		.loc 1 609 0
  42 000c 08BD     		pop	{r3, pc}
  43              	.L4:
  44 000e 00BF     		.align	2
  45              	.L3:
  46 0010 00000000 		.word	GPTD5
  47 0014 000C0040 		.word	1073744896
  48              		.cfi_endproc
  49              	.LFE329:
  50              		.size	gpt_lld_init, .-gpt_lld_init
  51              		.align	1
  52 0018 AFF30080 		.p2align 4,,15
  52      AFF30080 
  53              		.global	gpt_lld_start
  54              		.syntax unified
  55              		.thumb
  56              		.thumb_func
ARM GAS  C:\Users\RAKIBU~1\AppData\Local\Temp\cc4rVvKa.s 			page 2


  57              		.fpu softvfp
  58              		.type	gpt_lld_start, %function
  59              	gpt_lld_start:
  60              	.LFB330:
  61              		.loc 1 618 0
  62              		.cfi_startproc
  63              		@ args = 0, pretend = 0, frame = 0
  64              		@ frame_needed = 0, uses_anonymous_args = 0
  65              	.LVL1:
  66 0020 38B5     		push	{r3, r4, r5, lr}
  67              		.cfi_def_cfa_offset 16
  68              		.cfi_offset 3, -16
  69              		.cfi_offset 4, -12
  70              		.cfi_offset 5, -8
  71              		.cfi_offset 14, -4
  72 0022 0446     		mov	r4, r0
  73              		.loc 1 621 0
  74 0024 0378     		ldrb	r3, [r0]	@ zero_extendqisi2
  75 0026 012B     		cmp	r3, #1
  76 0028 20D0     		beq	.L9
  77              	.LVL2:
  78              	.L6:
  79              		.loc 1 871 0
  80 002a A268     		ldr	r2, [r4, #8]
  81 002c 6368     		ldr	r3, [r4, #4]
  82 002e 1B68     		ldr	r3, [r3]
  83 0030 B2FBF3F5 		udiv	r5, r2, r3
  84 0034 ADB2     		uxth	r5, r5
  85 0036 013D     		subs	r5, r5, #1
  86 0038 ADB2     		uxth	r5, r5
  87              	.LVL3:
  88              		.loc 1 872 0
  89 003a 05FB0333 		mla	r3, r5, r3, r3
  90 003e 9A42     		cmp	r2, r3
  91 0040 02D0     		beq	.L7
  92              		.loc 1 872 0 is_stmt 0 discriminator 2
  93 0042 1948     		ldr	r0, .L10
  94 0044 FFF7FEFF 		bl	chSysHalt
  95              	.LVL4:
  96              	.L7:
  97              		.loc 1 876 0 is_stmt 1
  98 0048 E268     		ldr	r2, [r4, #12]
  99 004a 0023     		movs	r3, #0
 100 004c 1360     		str	r3, [r2]
 101              		.loc 1 877 0
 102 004e 6168     		ldr	r1, [r4, #4]
 103 0050 E268     		ldr	r2, [r4, #12]
 104 0052 8968     		ldr	r1, [r1, #8]
 105 0054 5160     		str	r1, [r2, #4]
 106              		.loc 1 878 0
 107 0056 E268     		ldr	r2, [r4, #12]
 108 0058 9562     		str	r5, [r2, #40]
 109              		.loc 1 879 0
 110 005a E268     		ldr	r2, [r4, #12]
 111 005c 1361     		str	r3, [r2, #16]
 112              		.loc 1 880 0
 113 005e 6368     		ldr	r3, [r4, #4]
ARM GAS  C:\Users\RAKIBU~1\AppData\Local\Temp\cc4rVvKa.s 			page 3


 114 0060 DB68     		ldr	r3, [r3, #12]
 115 0062 E268     		ldr	r2, [r4, #12]
 116 0064 23F0FF03 		bic	r3, r3, #255
 117 0068 D360     		str	r3, [r2, #12]
 118              		.loc 1 882 0
 119 006a 38BD     		pop	{r3, r4, r5, pc}
 120              	.LVL5:
 121              	.L9:
 122              		.loc 1 684 0
 123 006c 0F4B     		ldr	r3, .L10+4
 124 006e 9842     		cmp	r0, r3
 125 0070 DBD1     		bne	.L6
 126              		.loc 1 685 0
 127 0072 0F4B     		ldr	r3, .L10+8
 128 0074 1A6C     		ldr	r2, [r3, #64]
 129 0076 42F00802 		orr	r2, r2, #8
 130 007a 1A64     		str	r2, [r3, #64]
 131 007c 1A6E     		ldr	r2, [r3, #96]
 132 007e 42F00802 		orr	r2, r2, #8
 133 0082 1A66     		str	r2, [r3, #96]
 134 0084 1A6E     		ldr	r2, [r3, #96]
 135              		.loc 1 686 0
 136 0086 1A6A     		ldr	r2, [r3, #32]
 137 0088 42F00802 		orr	r2, r2, #8
 138 008c 1A62     		str	r2, [r3, #32]
 139 008e 1A6A     		ldr	r2, [r3, #32]
 140 0090 22F00802 		bic	r2, r2, #8
 141 0094 1A62     		str	r2, [r3, #32]
 142 0096 1B6A     		ldr	r3, [r3, #32]
 143              		.loc 1 688 0
 144 0098 0221     		movs	r1, #2
 145 009a 3220     		movs	r0, #50
 146              	.LVL6:
 147 009c FFF7FEFF 		bl	nvicEnableVector
 148              	.LVL7:
 149              		.loc 1 693 0
 150 00a0 044B     		ldr	r3, .L10+12
 151 00a2 A360     		str	r3, [r4, #8]
 152 00a4 C1E7     		b	.L6
 153              	.L11:
 154 00a6 00BF     		.align	2
 155              	.L10:
 156 00a8 00000000 		.word	.LANCHOR0
 157 00ac 00000000 		.word	GPTD5
 158 00b0 00380240 		.word	1073887232
 159 00b4 00BD0105 		.word	84000000
 160              		.cfi_endproc
 161              	.LFE330:
 162              		.size	gpt_lld_start, .-gpt_lld_start
 163              		.align	1
 164 00b8 AFF30080 		.p2align 4,,15
 164      AFF30080 
 165              		.global	gpt_lld_stop
 166              		.syntax unified
 167              		.thumb
 168              		.thumb_func
 169              		.fpu softvfp
ARM GAS  C:\Users\RAKIBU~1\AppData\Local\Temp\cc4rVvKa.s 			page 4


 170              		.type	gpt_lld_stop, %function
 171              	gpt_lld_stop:
 172              	.LFB331:
 173              		.loc 1 891 0
 174              		.cfi_startproc
 175              		@ args = 0, pretend = 0, frame = 0
 176              		@ frame_needed = 0, uses_anonymous_args = 0
 177              	.LVL8:
 178 00c0 08B5     		push	{r3, lr}
 179              		.cfi_def_cfa_offset 8
 180              		.cfi_offset 3, -8
 181              		.cfi_offset 14, -4
 182              		.loc 1 893 0
 183 00c2 0378     		ldrb	r3, [r0]	@ zero_extendqisi2
 184 00c4 022B     		cmp	r3, #2
 185 00c6 00D0     		beq	.L15
 186              	.LVL9:
 187              	.L12:
 188              		.loc 1 1042 0
 189 00c8 08BD     		pop	{r3, pc}
 190              	.LVL10:
 191              	.L15:
 192              		.loc 1 894 0
 193 00ca C268     		ldr	r2, [r0, #12]
 194 00cc 0023     		movs	r3, #0
 195 00ce 1360     		str	r3, [r2]
 196              		.loc 1 895 0
 197 00d0 C268     		ldr	r2, [r0, #12]
 198 00d2 D360     		str	r3, [r2, #12]
 199              		.loc 1 896 0
 200 00d4 C268     		ldr	r2, [r0, #12]
 201 00d6 1361     		str	r3, [r2, #16]
 202              		.loc 1 935 0
 203 00d8 084B     		ldr	r3, .L16
 204 00da 9842     		cmp	r0, r3
 205 00dc F4D1     		bne	.L12
 206              		.loc 1 937 0
 207 00de 3220     		movs	r0, #50
 208              	.LVL11:
 209 00e0 FFF7FEFF 		bl	nvicDisableVector
 210              	.LVL12:
 211              		.loc 1 939 0
 212 00e4 064B     		ldr	r3, .L16+4
 213 00e6 1A6C     		ldr	r2, [r3, #64]
 214 00e8 22F00802 		bic	r2, r2, #8
 215 00ec 1A64     		str	r2, [r3, #64]
 216 00ee 1A6E     		ldr	r2, [r3, #96]
 217 00f0 22F00802 		bic	r2, r2, #8
 218 00f4 1A66     		str	r2, [r3, #96]
 219 00f6 1B6E     		ldr	r3, [r3, #96]
 220              		.loc 1 1042 0
 221 00f8 E6E7     		b	.L12
 222              	.L17:
 223 00fa 00BF     		.align	2
 224              	.L16:
 225 00fc 00000000 		.word	GPTD5
 226 0100 00380240 		.word	1073887232
ARM GAS  C:\Users\RAKIBU~1\AppData\Local\Temp\cc4rVvKa.s 			page 5


 227              		.cfi_endproc
 228              	.LFE331:
 229              		.size	gpt_lld_stop, .-gpt_lld_stop
 230              		.align	1
 231 0104 AFF30080 		.p2align 4,,15
 231      AFF30080 
 231      AFF30080 
 232              		.global	gpt_lld_start_timer
 233              		.syntax unified
 234              		.thumb
 235              		.thumb_func
 236              		.fpu softvfp
 237              		.type	gpt_lld_start_timer, %function
 238              	gpt_lld_start_timer:
 239              	.LFB332:
 240              		.loc 1 1052 0
 241              		.cfi_startproc
 242              		@ args = 0, pretend = 0, frame = 0
 243              		@ frame_needed = 0, uses_anonymous_args = 0
 244              		@ link register save eliminated.
 245              	.LVL13:
 246              		.loc 1 1054 0
 247 0110 C368     		ldr	r3, [r0, #12]
 248 0112 0139     		subs	r1, r1, #1
 249              	.LVL14:
 250 0114 D962     		str	r1, [r3, #44]
 251              		.loc 1 1055 0
 252 0116 C368     		ldr	r3, [r0, #12]
 253 0118 0122     		movs	r2, #1
 254 011a 5A61     		str	r2, [r3, #20]
 255              		.loc 1 1056 0
 256 011c C268     		ldr	r2, [r0, #12]
 257 011e 0023     		movs	r3, #0
 258 0120 5362     		str	r3, [r2, #36]
 259              		.loc 1 1061 0
 260 0122 C268     		ldr	r2, [r0, #12]
 261 0124 1361     		str	r3, [r2, #16]
 262              		.loc 1 1062 0
 263 0126 4368     		ldr	r3, [r0, #4]
 264 0128 5B68     		ldr	r3, [r3, #4]
 265 012a 23B1     		cbz	r3, .L19
 266              		.loc 1 1063 0
 267 012c C268     		ldr	r2, [r0, #12]
 268 012e D368     		ldr	r3, [r2, #12]
 269 0130 43F00103 		orr	r3, r3, #1
 270 0134 D360     		str	r3, [r2, #12]
 271              	.L19:
 272              		.loc 1 1064 0
 273 0136 C368     		ldr	r3, [r0, #12]
 274 0138 8522     		movs	r2, #133
 275 013a 1A60     		str	r2, [r3]
 276              		.loc 1 1065 0
 277 013c 7047     		bx	lr
 278              		.cfi_endproc
 279              	.LFE332:
 280              		.size	gpt_lld_start_timer, .-gpt_lld_start_timer
 281              		.align	1
ARM GAS  C:\Users\RAKIBU~1\AppData\Local\Temp\cc4rVvKa.s 			page 6


 282 013e 00BF     		.p2align 4,,15
 283              		.global	gpt_lld_stop_timer
 284              		.syntax unified
 285              		.thumb
 286              		.thumb_func
 287              		.fpu softvfp
 288              		.type	gpt_lld_stop_timer, %function
 289              	gpt_lld_stop_timer:
 290              	.LFB333:
 291              		.loc 1 1074 0
 292              		.cfi_startproc
 293              		@ args = 0, pretend = 0, frame = 0
 294              		@ frame_needed = 0, uses_anonymous_args = 0
 295              		@ link register save eliminated.
 296              	.LVL15:
 297              		.loc 1 1076 0
 298 0140 C268     		ldr	r2, [r0, #12]
 299 0142 0023     		movs	r3, #0
 300 0144 1360     		str	r3, [r2]
 301              		.loc 1 1077 0
 302 0146 C268     		ldr	r2, [r0, #12]
 303 0148 1361     		str	r3, [r2, #16]
 304              		.loc 1 1080 0
 305 014a C268     		ldr	r2, [r0, #12]
 306 014c D368     		ldr	r3, [r2, #12]
 307 014e 23F0FF03 		bic	r3, r3, #255
 308 0152 D360     		str	r3, [r2, #12]
 309              		.loc 1 1081 0
 310 0154 7047     		bx	lr
 311              		.cfi_endproc
 312              	.LFE333:
 313              		.size	gpt_lld_stop_timer, .-gpt_lld_stop_timer
 314              		.align	1
 315 0156 00BFAFF3 		.p2align 4,,15
 315      0080AFF3 
 315      0080
 316              		.global	gpt_lld_polled_delay
 317              		.syntax unified
 318              		.thumb
 319              		.thumb_func
 320              		.fpu softvfp
 321              		.type	gpt_lld_polled_delay, %function
 322              	gpt_lld_polled_delay:
 323              	.LFB334:
 324              		.loc 1 1094 0
 325              		.cfi_startproc
 326              		@ args = 0, pretend = 0, frame = 0
 327              		@ frame_needed = 0, uses_anonymous_args = 0
 328              		@ link register save eliminated.
 329              	.LVL16:
 330              		.loc 1 1096 0
 331 0160 C368     		ldr	r3, [r0, #12]
 332 0162 0139     		subs	r1, r1, #1
 333              	.LVL17:
 334 0164 D962     		str	r1, [r3, #44]
 335              		.loc 1 1097 0
 336 0166 C368     		ldr	r3, [r0, #12]
ARM GAS  C:\Users\RAKIBU~1\AppData\Local\Temp\cc4rVvKa.s 			page 7


 337 0168 0122     		movs	r2, #1
 338 016a 5A61     		str	r2, [r3, #20]
 339              		.loc 1 1098 0
 340 016c C368     		ldr	r3, [r0, #12]
 341 016e 0022     		movs	r2, #0
 342 0170 1A61     		str	r2, [r3, #16]
 343              		.loc 1 1099 0
 344 0172 C368     		ldr	r3, [r0, #12]
 345 0174 0D22     		movs	r2, #13
 346 0176 1A60     		str	r2, [r3]
 347              	.L22:
 348              		.loc 1 1100 0 discriminator 1
 349 0178 C368     		ldr	r3, [r0, #12]
 350 017a 1A69     		ldr	r2, [r3, #16]
 351 017c 12F0010F 		tst	r2, #1
 352 0180 FAD0     		beq	.L22
 353              		.loc 1 1102 0
 354 0182 0022     		movs	r2, #0
 355 0184 1A61     		str	r2, [r3, #16]
 356              		.loc 1 1103 0
 357 0186 7047     		bx	lr
 358              		.cfi_endproc
 359              	.LFE334:
 360              		.size	gpt_lld_polled_delay, .-gpt_lld_polled_delay
 361              		.align	1
 362 0188 AFF30080 		.p2align 4,,15
 362      AFF30080 
 363              		.global	gpt_lld_serve_interrupt
 364              		.syntax unified
 365              		.thumb
 366              		.thumb_func
 367              		.fpu softvfp
 368              		.type	gpt_lld_serve_interrupt, %function
 369              	gpt_lld_serve_interrupt:
 370              	.LFB335:
 371              		.loc 1 1112 0
 372              		.cfi_startproc
 373              		@ args = 0, pretend = 0, frame = 0
 374              		@ frame_needed = 0, uses_anonymous_args = 0
 375              	.LVL18:
 376              		.loc 1 1115 0
 377 0190 C268     		ldr	r2, [r0, #12]
 378 0192 1369     		ldr	r3, [r2, #16]
 379              	.LVL19:
 380              		.loc 1 1116 0
 381 0194 D168     		ldr	r1, [r2, #12]
 382 0196 C9B2     		uxtb	r1, r1
 383 0198 0B40     		ands	r3, r3, r1
 384              	.LVL20:
 385              		.loc 1 1117 0
 386 019a D943     		mvns	r1, r3
 387 019c 1161     		str	r1, [r2, #16]
 388              		.loc 1 1118 0
 389 019e 13F0010F 		tst	r3, #1
 390 01a2 0FD0     		beq	.L27
 391              		.loc 1 1112 0
 392 01a4 10B5     		push	{r4, lr}
ARM GAS  C:\Users\RAKIBU~1\AppData\Local\Temp\cc4rVvKa.s 			page 8


 393              		.cfi_def_cfa_offset 8
 394              		.cfi_offset 4, -8
 395              		.cfi_offset 14, -4
 396 01a6 0446     		mov	r4, r0
 397              		.loc 1 1119 0
 398 01a8 0378     		ldrb	r3, [r0]	@ zero_extendqisi2
 399              	.LVL21:
 400 01aa 042B     		cmp	r3, #4
 401 01ac 05D0     		beq	.L30
 402              	.LVL22:
 403              	.L25:
 404              		.loc 1 1119 0 is_stmt 0 discriminator 3
 405 01ae 6368     		ldr	r3, [r4, #4]
 406 01b0 5B68     		ldr	r3, [r3, #4]
 407 01b2 0BB1     		cbz	r3, .L23
 408              		.loc 1 1119 0 discriminator 4
 409 01b4 2046     		mov	r0, r4
 410 01b6 9847     		blx	r3
 411              	.LVL23:
 412              	.L23:
 413              		.loc 1 1121 0 is_stmt 1
 414 01b8 10BD     		pop	{r4, pc}
 415              	.LVL24:
 416              	.L30:
 417              		.loc 1 1119 0 discriminator 1
 418 01ba 0223     		movs	r3, #2
 419 01bc 0370     		strb	r3, [r0]
 420 01be FFF7FEFF 		bl	gpt_lld_stop_timer
 421              	.LVL25:
 422 01c2 F4E7     		b	.L25
 423              	.LVL26:
 424              	.L27:
 425              		.cfi_def_cfa_offset 0
 426              		.cfi_restore 4
 427              		.cfi_restore 14
 428 01c4 7047     		bx	lr
 429              		.cfi_endproc
 430              	.LFE335:
 431              		.size	gpt_lld_serve_interrupt, .-gpt_lld_serve_interrupt
 432              		.align	1
 433 01c6 00BFAFF3 		.p2align 4,,15
 433      0080AFF3 
 433      0080
 434              		.global	Vector108
 435              		.syntax unified
 436              		.thumb
 437              		.thumb_func
 438              		.fpu softvfp
 439              		.type	Vector108, %function
 440              	Vector108:
 441              	.LFB328:
 442              		.loc 1 279 0
 443              		.cfi_startproc
 444              		@ args = 0, pretend = 0, frame = 0
 445              		@ frame_needed = 0, uses_anonymous_args = 0
 446 01d0 10B5     		push	{r4, lr}
 447              		.cfi_def_cfa_offset 8
ARM GAS  C:\Users\RAKIBU~1\AppData\Local\Temp\cc4rVvKa.s 			page 9


 448              		.cfi_offset 4, -8
 449              		.cfi_offset 14, -4
 450              		.loc 1 281 0
 451 01d2 FFF7FEFF 		bl	_stats_increase_irq
 452              	.LVL27:
 453 01d6 084C     		ldr	r4, .L33
 454 01d8 2046     		mov	r0, r4
 455 01da FFF7FEFF 		bl	_trace_isr_enter
 456              	.LVL28:
 457 01de FFF7FEFF 		bl	_dbg_check_enter_isr
 458              	.LVL29:
 459              		.loc 1 283 0
 460 01e2 0648     		ldr	r0, .L33+4
 461 01e4 FFF7FEFF 		bl	gpt_lld_serve_interrupt
 462              	.LVL30:
 463              		.loc 1 285 0
 464 01e8 FFF7FEFF 		bl	_dbg_check_leave_isr
 465              	.LVL31:
 466 01ec 2046     		mov	r0, r4
 467 01ee FFF7FEFF 		bl	_trace_isr_leave
 468              	.LVL32:
 469 01f2 FFF7FEFF 		bl	_port_irq_epilogue
 470              	.LVL33:
 471              		.loc 1 286 0
 472 01f6 10BD     		pop	{r4, pc}
 473              	.L34:
 474              		.align	2
 475              	.L33:
 476 01f8 10000000 		.word	.LANCHOR0+16
 477 01fc 00000000 		.word	GPTD5
 478              		.cfi_endproc
 479              	.LFE328:
 480              		.size	Vector108, .-Vector108
 481              		.comm	GPTD5,16,4
 482              		.section	.rodata
 483              		.align	2
 484              		.set	.LANCHOR0,. + 0
 485              		.type	__func__.8976, %object
 486              		.size	__func__.8976, 14
 487              	__func__.8976:
 488 0000 6770745F 		.ascii	"gpt_lld_start\000"
 488      6C6C645F 
 488      73746172 
 488      7400
 489 000e 0000     		.space	2
 490              		.type	__func__.8968, %object
 491              		.size	__func__.8968, 10
 492              	__func__.8968:
 493 0010 56656374 		.ascii	"Vector108\000"
 493      6F723130 
 493      3800
 494              		.text
 495              	.Letext0:
 496              		.file 2 "c:\\chibistudio\\tools\\gnu tools arm embedded\\7.0 2017q4\\lib\\gcc\\arm-none-eabi\\7.2.
 497              		.file 3 "c:\\chibistudio\\tools\\gnu tools arm embedded\\7.0 2017q4\\arm-none-eabi\\include\\machi
 498              		.file 4 "c:\\chibistudio\\tools\\gnu tools arm embedded\\7.0 2017q4\\arm-none-eabi\\include\\sys\\
 499              		.file 5 "c:\\chibistudio\\tools\\gnu tools arm embedded\\7.0 2017q4\\arm-none-eabi\\include\\stdin
ARM GAS  C:\Users\RAKIBU~1\AppData\Local\Temp\cc4rVvKa.s 			page 10


 500              		.file 6 "../../../ChibiOSRepo/chibios191/os/common/ports/ARMCMx/compilers/GCC/chtypes.h"
 501              		.file 7 "../../../ChibiOSRepo/chibios191/os/rt/include/chsystypes.h"
 502              		.file 8 "../../../ChibiOSRepo/chibios191/os/rt/include/chschd.h"
 503              		.file 9 "../../../ChibiOSRepo/chibios191/os/rt/include/chtime.h"
 504              		.file 10 "../../../ChibiOSRepo/chibios191/os/common/ext/ARM/CMSIS/Core/Include/core_cm4.h"
 505              		.file 11 "../../../ChibiOSRepo/chibios191/os/common/ext/ST/STM32F4xx/system_stm32f4xx.h"
 506              		.file 12 "../../../ChibiOSRepo/chibios191/os/common/ext/ST/STM32F4xx/stm32f407xx.h"
 507              		.file 13 "../../../ChibiOSRepo/chibios191/os/common/ports/ARMCMx/chcore.h"
 508              		.file 14 "../../../ChibiOSRepo/chibios191/os/common/ports/ARMCMx/chcore_v7m.h"
 509              		.file 15 "../../../ChibiOSRepo/chibios191/os/hal/ports/STM32/LLD/TIMv1/stm32_tim.h"
 510              		.file 16 "../../../ChibiOSRepo/chibios191/os/rt/include/chtrace.h"
 511              		.file 17 "../../../ChibiOSRepo/chibios191/os/rt/include/chtm.h"
 512              		.file 18 "../../../ChibiOSRepo/chibios191/os/rt/include/chstats.h"
 513              		.file 19 "../../../ChibiOSRepo/chibios191/os/rt/include/chsem.h"
 514              		.file 20 "../../../ChibiOSRepo/chibios191/os/rt/include/chmtx.h"
 515              		.file 21 "../../../ChibiOSRepo/chibios191/os/rt/include/chsys.h"
 516              		.file 22 "../../../ChibiOSRepo/chibios191/os/rt/include/chregistry.h"
 517              		.file 23 "../../../ChibiOSRepo/chibios191/os/rt/include/chevents.h"
 518              		.file 24 "../../../ChibiOSRepo/chibios191/os/oslib/include/chmemcore.h"
 519              		.file 25 "../../../ChibiOSRepo/chibios191/os/oslib/include/chmempools.h"
 520              		.file 26 "../../../ChibiOSRepo/chibios191/os/oslib/include/chfactory.h"
 521              		.file 27 "../../../ChibiOSRepo/chibios191/os/hal/ports/STM32/LLD/DMAv2/stm32_dma.h"
 522              		.file 28 "../../../ChibiOSRepo/chibios191/os/hal/include/hal_ioblock.h"
 523              		.file 29 "../../../ChibiOSRepo/chibios191/os/hal/include/hal_persistent.h"
 524              		.file 30 "../../../ChibiOSRepo/chibios191/os/hal/include/hal_queues.h"
 525              		.file 31 "../../../ChibiOSRepo/chibios191/os/hal/include/hal_pal.h"
 526              		.file 32 "../../../ChibiOSRepo/chibios191/os/hal/ports/STM32/LLD/GPIOv2/stm32_gpio.h"
 527              		.file 33 "../../../ChibiOSRepo/chibios191/os/hal/ports/STM32/LLD/GPIOv2/hal_pal_lld.h"
 528              		.file 34 "../../../ChibiOSRepo/chibios191/os/hal/include/hal_gpt.h"
 529              		.file 35 "../../../ChibiOSRepo/chibios191/os/hal/ports/STM32/LLD/TIMv1/hal_gpt_lld.h"
 530              		.file 36 "../../../ChibiOSRepo/chibios191/os/hal/include/hal_i2c.h"
 531              		.file 37 "../../../ChibiOSRepo/chibios191/os/hal/ports/STM32/LLD/I2Cv1/hal_i2c_lld.h"
 532              		.file 38 "c:\\chibistudio\\tools\\gnu tools arm embedded\\7.0 2017q4\\arm-none-eabi\\include\\sys\
 533              		.file 39 "c:\\chibistudio\\tools\\gnu tools arm embedded\\7.0 2017q4\\arm-none-eabi\\include\\sys\
 534              		.file 40 "c:\\chibistudio\\tools\\gnu tools arm embedded\\7.0 2017q4\\arm-none-eabi\\include\\sys\
 535              		.file 41 "c:\\chibistudio\\tools\\gnu tools arm embedded\\7.0 2017q4\\arm-none-eabi\\include\\time
 536              		.file 42 "../../../ChibiOSRepo/chibios191/os/hal/include/hal_rtc.h"
 537              		.file 43 "../../../ChibiOSRepo/chibios191/os/hal/ports/STM32/LLD/RTCv2/hal_rtc_lld.h"
 538              		.file 44 "../../../ChibiOSRepo/chibios191/os/hal/include/hal_serial.h"
 539              		.file 45 "../../../ChibiOSRepo/chibios191/os/hal/ports/STM32/LLD/USARTv1/hal_serial_lld.h"
 540              		.file 46 "../../../ChibiOSRepo/chibios191/os/hal/include/hal_sdc.h"
 541              		.file 47 "../../../ChibiOSRepo/chibios191/os/hal/ports/STM32/LLD/SDIOv1/hal_sdc_lld.h"
 542              		.file 48 "../../../ChibiOSRepo/chibios191/os/hal/include/hal_spi.h"
 543              		.file 49 "../../../ChibiOSRepo/chibios191/os/hal/ports/STM32/LLD/SPIv1/hal_spi_lld.h"
 544              		.file 50 "../../../ChibiOSRepo/chibios191/os/hal/ports/common/ARMCMx/nvic.h"
 545              		.file 51 "../../../ChibiOSRepo/chibios191/os/rt/include/ch.h"
 546              		.file 52 "../../../ChibiOSRepo/chibios191/os/rt/include/chdebug.h"