ARM GAS  C:\Users\RAKIBU~1\AppData\Local\Temp\cc76R1kY.s 			page 1


   1              		.cpu cortex-m4
   2              		.eabi_attribute 20, 1
   3              		.eabi_attribute 21, 1
   4              		.eabi_attribute 23, 3
   5              		.eabi_attribute 24, 1
   6              		.eabi_attribute 25, 1
   7              		.eabi_attribute 26, 1
   8              		.eabi_attribute 30, 1
   9              		.eabi_attribute 34, 1
  10              		.eabi_attribute 18, 4
  11              		.file	"main.c"
  12              		.text
  13              	.Ltext0:
  14              		.cfi_sections	.debug_frame
  15              		.align	1
  16              		.p2align 4,,15
  17              		.syntax unified
  18              		.thumb
  19              		.thumb_func
  20              		.fpu softvfp
  21              		.type	gpt5cb, %function
  22              	gpt5cb:
  23              	.LFB336:
  24              		.file 1 "main.c"
  25              		.loc 1 617 0
  26              		.cfi_startproc
  27              		@ args = 0, pretend = 0, frame = 0
  28              		@ frame_needed = 0, uses_anonymous_args = 0
  29              		@ link register save eliminated.
  30              	.LVL0:
  31              		.loc 1 622 0
  32 0000 024A     		ldr	r2, .L2
  33 0002 1388     		ldrh	r3, [r2]
  34 0004 0133     		adds	r3, r3, #1
  35 0006 9BB2     		uxth	r3, r3
  36 0008 1380     		strh	r3, [r2]	@ movhi
  37              		.loc 1 624 0
  38 000a 7047     		bx	lr
  39              	.L3:
  40              		.align	2
  41              	.L2:
  42 000c 00000000 		.word	.LANCHOR0
  43              		.cfi_endproc
  44              	.LFE336:
  45              		.size	gpt5cb, .-gpt5cb
  46              		.align	1
  47              		.p2align 4,,15
  48              		.syntax unified
  49              		.thumb
  50              		.thumb_func
  51              		.fpu softvfp
  52              		.type	chSysUnlock, %function
  53              	chSysUnlock:
  54              	.LFB184:
  55              		.file 2 "../../../ChibiOSRepo/chibios191/os/rt/include/chsys.h"
  56              		.loc 2 365 0
  57              		.cfi_startproc
ARM GAS  C:\Users\RAKIBU~1\AppData\Local\Temp\cc76R1kY.s 			page 2


  58              		@ args = 0, pretend = 0, frame = 0
  59              		@ frame_needed = 0, uses_anonymous_args = 0
  60 0010 08B5     		push	{r3, lr}
  61              		.cfi_def_cfa_offset 8
  62              		.cfi_offset 3, -8
  63              		.cfi_offset 14, -4
  64              		.loc 2 367 0
  65 0012 FFF7FEFF 		bl	_dbg_check_unlock
  66              	.LVL1:
  67              		.loc 2 368 0
  68 0016 FFF7FEFF 		bl	_stats_stop_measure_crit_thd
  69              	.LVL2:
  70              		.loc 2 374 0
  71 001a 084B     		ldr	r3, .L8
  72 001c 1A68     		ldr	r2, [r3]
  73 001e 9A42     		cmp	r2, r3
  74 0020 04D0     		beq	.L5
  75              		.loc 2 374 0 is_stmt 0 discriminator 2
  76 0022 9B69     		ldr	r3, [r3, #24]
  77 0024 9968     		ldr	r1, [r3, #8]
  78 0026 9368     		ldr	r3, [r2, #8]
  79 0028 9942     		cmp	r1, r3
  80 002a 03D3     		bcc	.L7
  81              	.L5:
  82              	.LVL3:
  83              	.LBB193:
  84              	.LBB194:
  85              	.LBB195:
  86              		.file 3 "../../../ChibiOSRepo/chibios191/os/common/ext/ARM/CMSIS/Core/Include/cmsis_gcc.h"
  87              		.loc 3 493 0 is_stmt 1
  88 002c 0023     		movs	r3, #0
  89              		.syntax unified
  90              	@ 493 "../../../ChibiOSRepo/chibios191/os/common/ext/ARM/CMSIS/Core/Include/cmsis_gcc.h" 1
  91 002e 83F31188 		MSR basepri, r3
  92              	@ 0 "" 2
  93              	.LVL4:
  94              		.thumb
  95              		.syntax unified
  96              	.LBE195:
  97              	.LBE194:
  98              	.LBE193:
  99              		.loc 2 379 0
 100 0032 08BD     		pop	{r3, pc}
 101              	.L7:
 102              		.loc 2 374 0 discriminator 3
 103 0034 0248     		ldr	r0, .L8+4
 104 0036 FFF7FEFF 		bl	chSysHalt
 105              	.LVL5:
 106 003a F7E7     		b	.L5
 107              	.L9:
 108              		.align	2
 109              	.L8:
 110 003c 00000000 		.word	ch
 111 0040 00000000 		.word	.LANCHOR1
 112              		.cfi_endproc
 113              	.LFE184:
 114              		.size	chSysUnlock, .-chSysUnlock
ARM GAS  C:\Users\RAKIBU~1\AppData\Local\Temp\cc76R1kY.s 			page 3


 115              		.align	1
 116 0044 AFF30080 		.p2align 4,,15
 116      AFF30080 
 116      AFF30080 
 117              		.syntax unified
 118              		.thumb
 119              		.thumb_func
 120              		.fpu softvfp
 121              		.type	pps_thread, %function
 122              	pps_thread:
 123              	.LFB338:
 124              		.loc 1 715 0
 125              		.cfi_startproc
 126              		@ args = 0, pretend = 0, frame = 24
 127              		@ frame_needed = 0, uses_anonymous_args = 0
 128              	.LVL6:
 129 0050 30B5     		push	{r4, r5, lr}
 130              		.cfi_def_cfa_offset 12
 131              		.cfi_offset 4, -12
 132              		.cfi_offset 5, -8
 133              		.cfi_offset 14, -4
 134 0052 87B0     		sub	sp, sp, #28
 135              		.cfi_def_cfa_offset 40
 136              	.LVL7:
 137              	.LBB196:
 138              	.LBB197:
 139              		.file 4 "../../../ChibiOSRepo/chibios191/os/rt/include/chregistry.h"
 140              		.loc 4 136 0
 141 0054 354B     		ldr	r3, .L14
 142 0056 9B69     		ldr	r3, [r3, #24]
 143 0058 354A     		ldr	r2, .L14+4
 144 005a 9A61     		str	r2, [r3, #24]
 145              	.LVL8:
 146              	.LBE197:
 147              	.LBE196:
 148              		.loc 1 720 0
 149 005c 354D     		ldr	r5, .L14+8
 150 005e 364B     		ldr	r3, .L14+12
 151 0060 1D60     		str	r5, [r3]
 152              		.loc 1 721 0
 153 0062 364C     		ldr	r4, .L14+16
 154 0064 3649     		ldr	r1, .L14+20
 155 0066 2046     		mov	r0, r4
 156              	.LVL9:
 157 0068 FFF7FEFF 		bl	gptStart
 158              	.LVL10:
 159              		.loc 1 722 0
 160 006c 354B     		ldr	r3, .L14+24
 161 006e 5968     		ldr	r1, [r3, #4]
 162 0070 2046     		mov	r0, r4
 163 0072 FFF7FEFF 		bl	gptStartContinuous
 164              	.LVL11:
 165              		.loc 1 723 0
 166 0076 E268     		ldr	r2, [r4, #12]
 167 0078 1368     		ldr	r3, [r2]
 168 007a 23F08003 		bic	r3, r3, #128
 169 007e 1360     		str	r3, [r2]
ARM GAS  C:\Users\RAKIBU~1\AppData\Local\Temp\cc76R1kY.s 			page 4


 170              		.loc 1 725 0
 171 0080 0124     		movs	r4, #1
 172 0082 314B     		ldr	r3, .L14+28
 173 0084 1C70     		strb	r4, [r3]
 174              	.LVL12:
 175              	.LBB198:
 176              	.LBB199:
 177              	.LBB200:
 178              	.LBB201:
 179              	.LBB202:
 180              	.LBB203:
 181              		.loc 3 493 0
 182 0086 2023     		movs	r3, #32
 183              		.syntax unified
 184              	@ 493 "../../../ChibiOSRepo/chibios191/os/common/ext/ARM/CMSIS/Core/Include/cmsis_gcc.h" 1
 185 0088 83F31188 		MSR basepri, r3
 186              	@ 0 "" 2
 187              	.LVL13:
 188              		.thumb
 189              		.syntax unified
 190              	.LBE203:
 191              	.LBE202:
 192              	.LBE201:
 193              		.loc 2 356 0
 194 008c FFF7FEFF 		bl	_stats_start_measure_crit_thd
 195              	.LVL14:
 196              		.loc 2 357 0
 197 0090 FFF7FEFF 		bl	_dbg_check_lock
 198              	.LVL15:
 199              	.LBE200:
 200              	.LBE199:
 201              	.LBE198:
 202              		.loc 1 726 0
 203 0094 2246     		mov	r2, r4
 204 0096 0021     		movs	r1, #0
 205 0098 2C48     		ldr	r0, .L14+32
 206 009a FFF7FEFF 		bl	_pal_lld_enablepadevent
 207              	.LVL16:
 208              	.LBB204:
 209              	.LBB205:
 210              		.file 5 "../../../ChibiOSRepo/chibios191/os/hal/osal/rt/osal.h"
 211              		.loc 5 522 0
 212 009e FFF7B7FF 		bl	chSysUnlock
 213              	.LVL17:
 214              	.LBE205:
 215              	.LBE204:
 216              	.LBB206:
 217              	.LBB207:
 218              	.LBB208:
 219              		.file 6 "../../../ChibiOSRepo/chibios191/os/rt/include/chevents.h"
 220              		.loc 6 194 0
 221 00a2 4FF0FF33 		mov	r3, #-1
 222 00a6 0222     		movs	r2, #2
 223 00a8 01A9     		add	r1, sp, #4
 224              	.LVL18:
 225 00aa 2948     		ldr	r0, .L14+36
 226 00ac FFF7FEFF 		bl	chEvtRegisterMaskWithFlags
ARM GAS  C:\Users\RAKIBU~1\AppData\Local\Temp\cc76R1kY.s 			page 5


 227              	.LVL19:
 228              	.LBE208:
 229              	.LBE207:
 230              	.LBE206:
 231              		.loc 1 734 0
 232 00b0 284C     		ldr	r4, .L14+40
 233 00b2 2949     		ldr	r1, .L14+44
 234 00b4 2046     		mov	r0, r4
 235 00b6 FFF7FEFF 		bl	chprintf
 236              	.LVL20:
 237              		.loc 1 735 0
 238 00ba 2A46     		mov	r2, r5
 239 00bc 2749     		ldr	r1, .L14+48
 240 00be 2046     		mov	r0, r4
 241 00c0 FFF7FEFF 		bl	chprintf
 242              	.LVL21:
 243              		.loc 1 738 0
 244 00c4 01A8     		add	r0, sp, #4
 245 00c6 FFF7FEFF 		bl	chEvtGetAndClearFlags
 246              	.LVL22:
 247 00ca 08E0     		b	.L12
 248              	.L11:
 249              		.loc 1 773 0
 250 00cc 1F4C     		ldr	r4, .L14+32
 251 00ce 0825     		movs	r5, #8
 252 00d0 2583     		strh	r5, [r4, #24]	@ movhi
 253              		.loc 1 776 0
 254 00d2 42F21070 		movw	r0, #10000
 255 00d6 0021     		movs	r1, #0
 256 00d8 FFF7FEFF 		bl	chThdSleep
 257              	.LVL23:
 258              		.loc 1 777 0
 259 00dc 6583     		strh	r5, [r4, #26]	@ movhi
 260              	.L12:
 261              		.loc 1 745 0
 262 00de 204A     		ldr	r2, .L14+52
 263 00e0 0023     		movs	r3, #0
 264 00e2 4FF0FF30 		mov	r0, #-1
 265 00e6 FFF7FEFF 		bl	chEvtWaitAnyTimeout
 266              	.LVL24:
 267 00ea 0028     		cmp	r0, #0
 268 00ec EED0     		beq	.L11
 269              		.loc 1 750 0
 270 00ee 134B     		ldr	r3, .L14+16
 271 00f0 DB68     		ldr	r3, [r3, #12]
 272 00f2 DA6A     		ldr	r2, [r3, #44]
 273 00f4 174C     		ldr	r4, .L14+40
 274 00f6 0132     		adds	r2, r2, #1
 275 00f8 1A49     		ldr	r1, .L14+56
 276 00fa 2046     		mov	r0, r4
 277 00fc FFF7FEFF 		bl	chprintf
 278              	.LVL25:
 279              		.loc 1 751 0
 280 0100 0D4B     		ldr	r3, .L14+12
 281 0102 1A68     		ldr	r2, [r3]
 282 0104 1849     		ldr	r1, .L14+60
 283 0106 2046     		mov	r0, r4
ARM GAS  C:\Users\RAKIBU~1\AppData\Local\Temp\cc76R1kY.s 			page 6


 284 0108 FFF7FEFF 		bl	chprintf
 285              	.LVL26:
 286              		.loc 1 752 0
 287 010c 174B     		ldr	r3, .L14+64
 288 010e 1A68     		ldr	r2, [r3]
 289 0110 1749     		ldr	r1, .L14+68
 290 0112 2046     		mov	r0, r4
 291 0114 FFF7FEFF 		bl	chprintf
 292              	.LVL27:
 293              		.loc 1 753 0
 294 0118 0B4B     		ldr	r3, .L14+28
 295 011a 5A68     		ldr	r2, [r3, #4]
 296 011c 1549     		ldr	r1, .L14+72
 297 011e 2046     		mov	r0, r4
 298 0120 FFF7FEFF 		bl	chprintf
 299              	.LVL28:
 300              		.loc 1 756 0
 301 0124 01A8     		add	r0, sp, #4
 302 0126 FFF7FEFF 		bl	chEvtGetAndClearFlags
 303              	.LVL29:
 304 012a CFE7     		b	.L11
 305              	.L15:
 306              		.align	2
 307              	.L14:
 308 012c 00000000 		.word	ch
 309 0130 00000000 		.word	.LC0
 310 0134 00BD0105 		.word	84000000
 311 0138 00000000 		.word	gpt_last_target
 312 013c 00000000 		.word	GPTD5
 313 0140 0C000000 		.word	.LANCHOR1+12
 314 0144 00000000 		.word	.LANCHOR0
 315 0148 00000000 		.word	.LANCHOR2
 316 014c 00100240 		.word	1073876992
 317 0150 00000000 		.word	evtPPS
 318 0154 00000000 		.word	SD6
 319 0158 04000000 		.word	.LC1
 320 015c 18000000 		.word	.LC2
 321 0160 F0490200 		.word	150000
 322 0164 2C000000 		.word	.LC3
 323 0168 44000000 		.word	.LC4
 324 016c 00000000 		.word	gpt_cnt
 325 0170 5C000000 		.word	.LC5
 326 0174 70000000 		.word	.LC6
 327              		.cfi_endproc
 328              	.LFE338:
 329              		.size	pps_thread, .-pps_thread
 330              		.align	1
 331 0178 AFF30080 		.p2align 4,,15
 331      AFF30080 
 332              		.syntax unified
 333              		.thumb
 334              		.thumb_func
 335              		.fpu softvfp
 336              		.type	gps_thread, %function
 337              	gps_thread:
 338              	.LFB333:
 339              		.loc 1 419 0
ARM GAS  C:\Users\RAKIBU~1\AppData\Local\Temp\cc76R1kY.s 			page 7


 340              		.cfi_startproc
 341              		@ args = 0, pretend = 0, frame = 88
 342              		@ frame_needed = 0, uses_anonymous_args = 0
 343              	.LVL30:
 344 0180 10B5     		push	{r4, lr}
 345              		.cfi_def_cfa_offset 8
 346              		.cfi_offset 4, -8
 347              		.cfi_offset 14, -4
 348 0182 96B0     		sub	sp, sp, #88
 349              		.cfi_def_cfa_offset 96
 350              	.LVL31:
 351              	.LBB209:
 352              	.LBB210:
 353              		.loc 4 136 0
 354 0184 5A4B     		ldr	r3, .L23
 355 0186 9B69     		ldr	r3, [r3, #24]
 356 0188 5A4A     		ldr	r2, .L23+4
 357 018a 9A61     		str	r2, [r3, #24]
 358              	.LVL32:
 359              	.LBE210:
 360              	.LBE209:
 361              		.loc 1 428 0
 362 018c 5A4C     		ldr	r4, .L23+8
 363 018e 40F28232 		movw	r2, #898
 364 0192 4FF48071 		mov	r1, #256
 365 0196 2046     		mov	r0, r4
 366              	.LVL33:
 367 0198 FFF7FEFF 		bl	_pal_lld_setgroupmode
 368              	.LVL34:
 369              		.loc 1 429 0
 370 019c 40F28232 		movw	r2, #898
 371 01a0 4FF40071 		mov	r1, #512
 372 01a4 2046     		mov	r0, r4
 373 01a6 FFF7FEFF 		bl	_pal_lld_setgroupmode
 374              	.LVL35:
 375              		.loc 1 430 0
 376 01aa 544C     		ldr	r4, .L23+12
 377 01ac 5449     		ldr	r1, .L23+16
 378 01ae 2046     		mov	r0, r4
 379 01b0 FFF7FEFF 		bl	sdStart
 380              	.LVL36:
 381              		.loc 1 431 0
 382 01b4 FFF7FEFF 		bl	gps_init
 383              	.LVL37:
 384              	.LBB211:
 385              	.LBB212:
 386              		.loc 6 194 0
 387 01b8 4FF0FF33 		mov	r3, #-1
 388 01bc 0222     		movs	r2, #2
 389 01be 0FA9     		add	r1, sp, #60
 390              	.LVL38:
 391 01c0 201D     		adds	r0, r4, #4
 392 01c2 FFF7FEFF 		bl	chEvtRegisterMaskWithFlags
 393              	.LVL39:
 394              	.LBE212:
 395              	.LBE211:
 396              	.LBB213:
ARM GAS  C:\Users\RAKIBU~1\AppData\Local\Temp\cc76R1kY.s 			page 8


 397              	.LBB214:
 398              	.LBB215:
 399 01c6 4FF0FF33 		mov	r3, #-1
 400 01ca 0222     		movs	r2, #2
 401 01cc 0AA9     		add	r1, sp, #40
 402              	.LVL40:
 403 01ce 4D48     		ldr	r0, .L23+20
 404 01d0 FFF7FEFF 		bl	chEvtRegisterMaskWithFlags
 405              	.LVL41:
 406              	.L17:
 407              	.LBE215:
 408              	.LBE214:
 409              	.LBE213:
 410              		.loc 1 443 0
 411 01d4 0220     		movs	r0, #2
 412 01d6 FFF7FEFF 		bl	chEvtWaitOne
 413              	.LVL42:
 414              		.loc 1 445 0
 415 01da 0FA8     		add	r0, sp, #60
 416 01dc FFF7FEFF 		bl	chEvtGetAndClearFlags
 417              	.LVL43:
 418              		.loc 1 448 0
 419 01e0 10F0040F 		tst	r0, #4
 420 01e4 76D1     		bne	.L20
 421              	.LVL44:
 422              	.L18:
 423              		.loc 1 466 0
 424 01e6 0AA8     		add	r0, sp, #40
 425              	.LVL45:
 426 01e8 FFF7FEFF 		bl	chEvtGetAndClearFlags
 427              	.LVL46:
 428              		.loc 1 467 0
 429 01ec 10F0010F 		tst	r0, #1
 430 01f0 F0D0     		beq	.L17
 431              		.loc 1 471 0
 432 01f2 454B     		ldr	r3, .L23+24
 433 01f4 1B78     		ldrb	r3, [r3]	@ zero_extendqisi2
 434 01f6 412B     		cmp	r3, #65
 435 01f8 ECD1     		bne	.L17
 436              	.LBB216:
 437              		.loc 1 474 0
 438 01fa 434B     		ldr	r3, .L23+24
 439 01fc 93F82E20 		ldrb	r2, [r3, #46]	@ zero_extendqisi2
 440 0200 93F82F10 		ldrb	r1, [r3, #47]	@ zero_extendqisi2
 441 0204 303A     		subs	r2, r2, #48
 442 0206 02EB8202 		add	r2, r2, r2, lsl #2
 443 020a 01EB4202 		add	r2, r1, r2, lsl #1
 444 020e 1C3A     		subs	r2, r2, #28
 445 0210 8DF85020 		strb	r2, [sp, #80]
 446              		.loc 1 475 0
 447 0214 93F82C20 		ldrb	r2, [r3, #44]	@ zero_extendqisi2
 448 0218 93F82D10 		ldrb	r1, [r3, #45]	@ zero_extendqisi2
 449 021c 303A     		subs	r2, r2, #48
 450 021e 02EB8202 		add	r2, r2, r2, lsl #2
 451 0222 01EB4202 		add	r2, r1, r2, lsl #1
 452 0226 9DF85100 		ldrb	r0, [sp, #81]	@ zero_extendqisi2
 453              	.LVL47:
ARM GAS  C:\Users\RAKIBU~1\AppData\Local\Temp\cc76R1kY.s 			page 9


 454 022a 62F30300 		bfi	r0, r2, #0, #4
 455              		.loc 1 476 0
 456 022e 93F82A20 		ldrb	r2, [r3, #42]	@ zero_extendqisi2
 457 0232 93F82B10 		ldrb	r1, [r3, #43]	@ zero_extendqisi2
 458 0236 303A     		subs	r2, r2, #48
 459 0238 02EB8202 		add	r2, r2, r2, lsl #2
 460 023c 01EB4202 		add	r2, r1, r2, lsl #1
 461 0240 303A     		subs	r2, r2, #48
 462 0242 9DF85210 		ldrb	r1, [sp, #82]	@ zero_extendqisi2
 463 0246 62F30401 		bfi	r1, r2, #0, #5
 464 024a 8DF85210 		strb	r1, [sp, #82]
 465              		.loc 1 478 0
 466 024e 93F82540 		ldrb	r4, [r3, #37]	@ zero_extendqisi2
 467 0252 303C     		subs	r4, r4, #48
 468 0254 04EB8404 		add	r4, r4, r4, lsl #2
 469 0258 93F82620 		ldrb	r2, [r3, #38]	@ zero_extendqisi2
 470 025c 303A     		subs	r2, r2, #48
 471 025e 02EB4404 		add	r4, r2, r4, lsl #1
 472              	.LVL48:
 473              		.loc 1 479 0
 474 0262 93F82320 		ldrb	r2, [r3, #35]	@ zero_extendqisi2
 475 0266 303A     		subs	r2, r2, #48
 476 0268 02EB8201 		add	r1, r2, r2, lsl #2
 477 026c 93F82420 		ldrb	r2, [r3, #36]	@ zero_extendqisi2
 478 0270 303A     		subs	r2, r2, #48
 479 0272 02EB4102 		add	r2, r2, r1, lsl #1
 480              	.LVL49:
 481              		.loc 1 480 0
 482 0276 93F82110 		ldrb	r1, [r3, #33]	@ zero_extendqisi2
 483 027a 3039     		subs	r1, r1, #48
 484 027c 01EB8101 		add	r1, r1, r1, lsl #2
 485 0280 93F82230 		ldrb	r3, [r3, #34]	@ zero_extendqisi2
 486 0284 303B     		subs	r3, r3, #48
 487 0286 03EB4103 		add	r3, r3, r1, lsl #1
 488              	.LVL50:
 489              		.loc 1 482 0
 490 028a C2EB0212 		rsb	r2, r2, r2, lsl #4
 491              	.LVL51:
 492 028e 9200     		lsls	r2, r2, #2
 493 0290 4FF46161 		mov	r1, #3600
 494 0294 01FB0323 		mla	r3, r1, r3, r2
 495              	.LVL52:
 496 0298 2344     		add	r3, r3, r4
 497 029a 23F07843 		bic	r3, r3, #-134217728
 498 029e 4FF47A72 		mov	r2, #1000
 499 02a2 02FB03F3 		mul	r3, r2, r3
 500 02a6 23F07843 		bic	r3, r3, #-134217728
 501 02aa 159A     		ldr	r2, [sp, #84]
 502 02ac 63F31A02 		bfi	r2, r3, #0, #27
 503 02b0 1592     		str	r2, [sp, #84]
 504              		.loc 1 483 0
 505 02b2 6FF30410 		bfc	r0, #4, #1
 506 02b6 8DF85100 		strb	r0, [sp, #81]
 507              		.loc 1 484 0
 508 02ba 14A9     		add	r1, sp, #80
 509 02bc 1348     		ldr	r0, .L23+28
 510 02be FFF7FEFF 		bl	rtcSetTime
ARM GAS  C:\Users\RAKIBU~1\AppData\Local\Temp\cc76R1kY.s 			page 10


 511              	.LVL53:
 512              		.loc 1 486 0
 513 02c2 0022     		movs	r2, #0
 514 02c4 01A9     		add	r1, sp, #4
 515 02c6 14A8     		add	r0, sp, #80
 516 02c8 FFF7FEFF 		bl	rtcConvertDateTimeToStructTm
 517              	.LVL54:
 518 02cc 82E7     		b	.L17
 519              	.LVL55:
 520              	.L19:
 521              	.LBE216:
 522              	.LBB217:
 523              		.loc 1 461 0
 524 02ce B4F1FF3F 		cmp	r4, #-1
 525 02d2 88D0     		beq	.L18
 526              	.LVL56:
 527              	.L20:
 528              		.loc 1 453 0
 529 02d4 0948     		ldr	r0, .L23+12
 530 02d6 0368     		ldr	r3, [r0]
 531 02d8 9969     		ldr	r1, [r3, #24]
 532 02da 0022     		movs	r2, #0
 533 02dc 0023     		movs	r3, #0
 534 02de 8847     		blx	r1
 535              	.LVL57:
 536 02e0 0446     		mov	r4, r0
 537              	.LVL58:
 538              		.loc 1 454 0
 539 02e2 B0F1FF3F 		cmp	r0, #-1
 540 02e6 F2D0     		beq	.L19
 541              		.loc 1 458 0
 542 02e8 C0B2     		uxtb	r0, r0
 543              	.LVL59:
 544 02ea FFF7FEFF 		bl	GPSParseChar
 545              	.LVL60:
 546 02ee EEE7     		b	.L19
 547              	.L24:
 548              		.align	2
 549              	.L23:
 550 02f0 00000000 		.word	ch
 551 02f4 88000000 		.word	.LC7
 552 02f8 000C0240 		.word	1073875968
 553 02fc 00000000 		.word	SD3
 554 0300 1C000000 		.word	.LANCHOR1+28
 555 0304 00000000 		.word	evtGPS
 556 0308 00000000 		.word	gps_data
 557 030c 00000000 		.word	RTCD1
 558              	.LBE217:
 559              		.cfi_endproc
 560              	.LFE333:
 561              		.size	gps_thread, .-gps_thread
 562              		.global	__aeabi_uldivmod
 563              		.align	1
 564              		.p2align 4,,15
 565              		.syntax unified
 566              		.thumb
 567              		.thumb_func
ARM GAS  C:\Users\RAKIBU~1\AppData\Local\Temp\cc76R1kY.s 			page 11


 568              		.fpu softvfp
 569              		.type	blinker_thread, %function
 570              	blinker_thread:
 571              	.LFB332:
 572              		.loc 1 280 0
 573              		.cfi_startproc
 574              		@ args = 0, pretend = 0, frame = 24
 575              		@ frame_needed = 0, uses_anonymous_args = 0
 576              	.LVL61:
 577 0310 F0B5     		push	{r4, r5, r6, r7, lr}
 578              		.cfi_def_cfa_offset 20
 579              		.cfi_offset 4, -20
 580              		.cfi_offset 5, -16
 581              		.cfi_offset 6, -12
 582              		.cfi_offset 7, -8
 583              		.cfi_offset 14, -4
 584 0312 87B0     		sub	sp, sp, #28
 585              		.cfi_def_cfa_offset 48
 586              	.LVL62:
 587              	.LBB218:
 588              	.LBB219:
 589              		.loc 4 136 0
 590 0314 414B     		ldr	r3, .L38
 591 0316 9B69     		ldr	r3, [r3, #24]
 592 0318 414A     		ldr	r2, .L38+4
 593 031a 9A61     		str	r2, [r3, #24]
 594              	.LVL63:
 595              	.LBE219:
 596              	.LBE218:
 597              		.loc 1 284 0
 598 031c 414C     		ldr	r4, .L38+8
 599 031e 1922     		movs	r2, #25
 600 0320 0821     		movs	r1, #8
 601 0322 2046     		mov	r0, r4
 602              	.LVL64:
 603 0324 FFF7FEFF 		bl	_pal_lld_setgroupmode
 604              	.LVL65:
 605              		.loc 1 285 0
 606 0328 1922     		movs	r2, #25
 607 032a 8021     		movs	r1, #128
 608 032c 2046     		mov	r0, r4
 609 032e FFF7FEFF 		bl	_pal_lld_setgroupmode
 610              	.LVL66:
 611              		.loc 1 286 0
 612 0332 8023     		movs	r3, #128
 613 0334 6383     		strh	r3, [r4, #26]	@ movhi
 614              		.loc 1 290 0
 615 0336 0225     		movs	r5, #2
 616 0338 6583     		strh	r5, [r4, #26]	@ movhi
 617              		.loc 1 291 0
 618 033a 6420     		movs	r0, #100
 619 033c 0021     		movs	r1, #0
 620 033e FFF7FEFF 		bl	chThdSleep
 621              	.LVL67:
 622              		.loc 1 292 0
 623 0342 2583     		strh	r5, [r4, #24]	@ movhi
 624              		.loc 1 293 0
ARM GAS  C:\Users\RAKIBU~1\AppData\Local\Temp\cc76R1kY.s 			page 12


 625 0344 6420     		movs	r0, #100
 626 0346 0021     		movs	r1, #0
 627 0348 FFF7FEFF 		bl	chThdSleep
 628              	.LVL68:
 629              		.loc 1 294 0
 630 034c 364C     		ldr	r4, .L38+12
 631 034e 2046     		mov	r0, r4
 632 0350 FFF7FEFF 		bl	mcp23017_init
 633              	.LVL69:
 634              		.loc 1 315 0
 635 0354 0122     		movs	r2, #1
 636 0356 0721     		movs	r1, #7
 637 0358 2046     		mov	r0, r4
 638 035a FFF7FEFF 		bl	mcp23017_pinModeAB
 639              	.LVL70:
 640              	.LBB220:
 641              	.LBB221:
 642              	.LBB222:
 643              		.loc 6 194 0
 644 035e 4FF0FF33 		mov	r3, #-1
 645 0362 2A46     		mov	r2, r5
 646 0364 01A9     		add	r1, sp, #4
 647              	.LVL71:
 648 0366 3148     		ldr	r0, .L38+16
 649 0368 FFF7FEFF 		bl	chEvtRegisterMaskWithFlags
 650              	.LVL72:
 651              	.LBE222:
 652              	.LBE221:
 653              	.LBE220:
 654              		.loc 1 322 0
 655 036c 01A8     		add	r0, sp, #4
 656 036e FFF7FEFF 		bl	chEvtGetAndClearFlags
 657              	.LVL73:
 658              		.loc 1 330 0
 659 0372 0023     		movs	r3, #0
 660 0374 2A46     		mov	r2, r5
 661 0376 0721     		movs	r1, #7
 662 0378 2046     		mov	r0, r4
 663 037a FFF7FEFF 		bl	mcp23017_digitalWrite
 664              	.LVL74:
 665              		.loc 1 331 0
 666 037e 0023     		movs	r3, #0
 667 0380 0322     		movs	r2, #3
 668 0382 0721     		movs	r1, #7
 669 0384 2046     		mov	r0, r4
 670 0386 FFF7FEFF 		bl	mcp23017_digitalWrite
 671              	.LVL75:
 672              		.loc 1 326 0
 673 038a 0027     		movs	r7, #0
 674              		.loc 1 325 0
 675 038c 4FF4FA76 		mov	r6, #500
 676              		.loc 1 324 0
 677 0390 3C46     		mov	r4, r7
 678 0392 17E0     		b	.L30
 679              	.LVL76:
 680              	.L36:
 681              		.loc 1 338 0
ARM GAS  C:\Users\RAKIBU~1\AppData\Local\Temp\cc76R1kY.s 			page 13


 682 0394 01A8     		add	r0, sp, #4
 683 0396 FFF7FEFF 		bl	chEvtGetAndClearFlags
 684              	.LVL77:
 685              		.loc 1 339 0
 686 039a 87F00107 		eor	r7, r7, #1
 687              	.LVL78:
 688 039e 24E0     		b	.L26
 689              	.L37:
 690              		.loc 1 349 0
 691 03a0 FA26     		movs	r6, #250
 692              	.LVL79:
 693 03a2 2EE0     		b	.L28
 694              	.LVL80:
 695              	.L33:
 696              		.loc 1 354 0
 697 03a4 0023     		movs	r3, #0
 698              	.L29:
 699              	.LVL81:
 700              		.loc 1 366 0
 701 03a6 204D     		ldr	r5, .L38+12
 702 03a8 0222     		movs	r2, #2
 703 03aa 0721     		movs	r1, #7
 704 03ac 2846     		mov	r0, r5
 705 03ae FFF7FEFF 		bl	mcp23017_digitalWrite
 706              	.LVL82:
 707              		.loc 1 367 0
 708 03b2 3B46     		mov	r3, r7
 709 03b4 0322     		movs	r2, #3
 710 03b6 0721     		movs	r1, #7
 711 03b8 2846     		mov	r0, r5
 712 03ba FFF7FEFF 		bl	mcp23017_digitalWrite
 713              	.LVL83:
 714              		.loc 1 369 0
 715 03be 0134     		adds	r4, r4, #1
 716              	.LVL84:
 717 03c0 04F00304 		and	r4, r4, #3
 718              	.LVL85:
 719              	.L30:
 720              	.LBB223:
 721              	.LBB224:
 722              		.file 7 "../../../ChibiOSRepo/chibios191/os/rt/include/chtime.h"
 723              		.loc 7 331 0
 724 03c4 4FF47A72 		mov	r2, #1000
 725 03c8 0023     		movs	r3, #0
 726 03ca 194D     		ldr	r5, .L38+20
 727 03cc 40F2E730 		movw	r0, #999
 728 03d0 0021     		movs	r1, #0
 729 03d2 E5FB0601 		umlal	r0, r1, r5, r6
 730 03d6 FFF7FEFF 		bl	__aeabi_uldivmod
 731              	.LVL86:
 732              	.LBE224:
 733              	.LBE223:
 734              		.loc 1 336 0
 735 03da 0246     		mov	r2, r0
 736 03dc 0B46     		mov	r3, r1
 737 03de 4FF0FF30 		mov	r0, #-1
 738 03e2 FFF7FEFF 		bl	chEvtWaitAnyTimeout
ARM GAS  C:\Users\RAKIBU~1\AppData\Local\Temp\cc76R1kY.s 			page 14


 739              	.LVL87:
 740 03e6 0028     		cmp	r0, #0
 741 03e8 D4D1     		bne	.L36
 742              	.L26:
 743              		.loc 1 343 0
 744 03ea 124B     		ldr	r3, .L38+24
 745 03ec 1B7A     		ldrb	r3, [r3, #8]	@ zero_extendqisi2
 746 03ee 13F0080F 		tst	r3, #8
 747 03f2 01D0     		beq	.L27
 748              		.loc 1 345 0
 749 03f4 4FF4FA76 		mov	r6, #500
 750              	.LVL88:
 751              	.L27:
 752              		.loc 1 347 0
 753 03f8 0E4B     		ldr	r3, .L38+24
 754 03fa 5B7A     		ldrb	r3, [r3, #9]	@ zero_extendqisi2
 755 03fc DBB2     		uxtb	r3, r3
 756 03fe 042B     		cmp	r3, #4
 757 0400 CED0     		beq	.L37
 758              	.LVL89:
 759              	.L28:
 760              		.loc 1 352 0
 761 0402 0C4B     		ldr	r3, .L38+24
 762 0404 1B7A     		ldrb	r3, [r3, #8]	@ zero_extendqisi2
 763 0406 13F0080F 		tst	r3, #8
 764 040a CBD0     		beq	.L33
 765              		.loc 1 356 0
 766 040c 14F0010F 		tst	r4, #1
 767 0410 01D1     		bne	.L34
 768              		.loc 1 358 0
 769 0412 0123     		movs	r3, #1
 770 0414 C7E7     		b	.L29
 771              	.L34:
 772              		.loc 1 362 0
 773 0416 0023     		movs	r3, #0
 774 0418 C5E7     		b	.L29
 775              	.L39:
 776 041a 00BF     		.align	2
 777              	.L38:
 778 041c 00000000 		.word	ch
 779 0420 90000000 		.word	.LC8
 780 0424 00100240 		.word	1073876992
 781 0428 28000000 		.word	.LANCHOR1+40
 782 042c 00000000 		.word	evtPPS
 783 0430 A0860100 		.word	100000
 784 0434 00000000 		.word	.LANCHOR2
 785              		.cfi_endproc
 786              	.LFE332:
 787              		.size	blinker_thread, .-blinker_thread
 788              		.align	1
 789 0438 AFF30080 		.p2align 4,,15
 789      AFF30080 
 790              		.global	write_config_eeprom
 791              		.syntax unified
 792              		.thumb
 793              		.thumb_func
 794              		.fpu softvfp
ARM GAS  C:\Users\RAKIBU~1\AppData\Local\Temp\cc76R1kY.s 			page 15


 795              		.type	write_config_eeprom, %function
 796              	write_config_eeprom:
 797              	.LFB328:
 798              		.loc 1 112 0
 799              		.cfi_startproc
 800              		@ args = 0, pretend = 0, frame = 0
 801              		@ frame_needed = 0, uses_anonymous_args = 0
 802 0440 10B5     		push	{r4, lr}
 803              		.cfi_def_cfa_offset 8
 804              		.cfi_offset 4, -8
 805              		.cfi_offset 14, -4
 806              		.loc 1 114 0
 807 0442 1820     		movs	r0, #24
 808 0444 FFF7FEFF 		bl	EepromFindDevice
 809              	.LVL90:
 810 0448 0C4C     		ldr	r4, .L42
 811 044a 0246     		mov	r2, r0
 812 044c 0C49     		ldr	r1, .L42+4
 813 044e 04F10C00 		add	r0, r4, #12
 814 0452 FFF7FEFF 		bl	EepromFileOpen
 815              	.LVL91:
 816 0456 E061     		str	r0, [r4, #28]
 817              		.loc 1 115 0
 818 0458 0368     		ldr	r3, [r0]
 819 045a 5B6A     		ldr	r3, [r3, #36]
 820 045c 47F6FF71 		movw	r1, #32767
 821 0460 9847     		blx	r3
 822              	.LVL92:
 823              		.loc 1 116 0
 824 0462 E069     		ldr	r0, [r4, #28]
 825 0464 0368     		ldr	r3, [r0]
 826 0466 5B68     		ldr	r3, [r3, #4]
 827 0468 3922     		movs	r2, #57
 828 046a 04F12001 		add	r1, r4, #32
 829 046e 9847     		blx	r3
 830              	.LVL93:
 831              		.loc 1 117 0
 832 0470 E069     		ldr	r0, [r4, #28]
 833 0472 0368     		ldr	r3, [r0]
 834 0474 5B69     		ldr	r3, [r3, #20]
 835 0476 9847     		blx	r3
 836              	.LVL94:
 837              		.loc 1 118 0
 838 0478 10BD     		pop	{r4, pc}
 839              	.L43:
 840 047a 00BF     		.align	2
 841              	.L42:
 842 047c 00000000 		.word	.LANCHOR2
 843 0480 08000000 		.word	.LANCHOR0+8
 844              		.cfi_endproc
 845              	.LFE328:
 846              		.size	write_config_eeprom, .-write_config_eeprom
 847              		.align	1
 848 0484 AFF30080 		.p2align 4,,15
 848      AFF30080 
 848      AFF30080 
 849              		.global	read_config_eeprom
ARM GAS  C:\Users\RAKIBU~1\AppData\Local\Temp\cc76R1kY.s 			page 16


 850              		.syntax unified
 851              		.thumb
 852              		.thumb_func
 853              		.fpu softvfp
 854              		.type	read_config_eeprom, %function
 855              	read_config_eeprom:
 856              	.LFB329:
 857              		.loc 1 124 0
 858              		.cfi_startproc
 859              		@ args = 0, pretend = 0, frame = 104
 860              		@ frame_needed = 0, uses_anonymous_args = 0
 861 0490 10B5     		push	{r4, lr}
 862              		.cfi_def_cfa_offset 8
 863              		.cfi_offset 4, -8
 864              		.cfi_offset 14, -4
 865 0492 9AB0     		sub	sp, sp, #104
 866              		.cfi_def_cfa_offset 112
 867              		.loc 1 126 0
 868 0494 1820     		movs	r0, #24
 869 0496 FFF7FEFF 		bl	EepromFindDevice
 870              	.LVL95:
 871 049a 134C     		ldr	r4, .L46
 872 049c 0246     		mov	r2, r0
 873 049e 1349     		ldr	r1, .L46+4
 874 04a0 04F10C00 		add	r0, r4, #12
 875 04a4 FFF7FEFF 		bl	EepromFileOpen
 876              	.LVL96:
 877 04a8 E061     		str	r0, [r4, #28]
 878              		.loc 1 127 0
 879 04aa 0368     		ldr	r3, [r0]
 880 04ac 5B6A     		ldr	r3, [r3, #36]
 881 04ae 47F6FF71 		movw	r1, #32767
 882 04b2 9847     		blx	r3
 883              	.LVL97:
 884              		.loc 1 128 0
 885 04b4 E069     		ldr	r0, [r4, #28]
 886 04b6 0368     		ldr	r3, [r0]
 887 04b8 9B68     		ldr	r3, [r3, #8]
 888 04ba 3922     		movs	r2, #57
 889 04bc 04F12001 		add	r1, r4, #32
 890 04c0 9847     		blx	r3
 891              	.LVL98:
 892              		.loc 1 129 0
 893 04c2 E069     		ldr	r0, [r4, #28]
 894 04c4 0368     		ldr	r3, [r0]
 895 04c6 5B6A     		ldr	r3, [r3, #36]
 896 04c8 47F6FF71 		movw	r1, #32767
 897 04cc 9847     		blx	r3
 898              	.LVL99:
 899              		.loc 1 130 0
 900 04ce E069     		ldr	r0, [r4, #28]
 901 04d0 0368     		ldr	r3, [r0]
 902 04d2 9B68     		ldr	r3, [r3, #8]
 903 04d4 6422     		movs	r2, #100
 904 04d6 01A9     		add	r1, sp, #4
 905 04d8 9847     		blx	r3
 906              	.LVL100:
ARM GAS  C:\Users\RAKIBU~1\AppData\Local\Temp\cc76R1kY.s 			page 17


 907              		.loc 1 131 0
 908 04da E069     		ldr	r0, [r4, #28]
 909 04dc 0368     		ldr	r3, [r0]
 910 04de 5B69     		ldr	r3, [r3, #20]
 911 04e0 9847     		blx	r3
 912              	.LVL101:
 913              		.loc 1 132 0
 914 04e2 1AB0     		add	sp, sp, #104
 915              		.cfi_def_cfa_offset 8
 916              		@ sp needed
 917 04e4 10BD     		pop	{r4, pc}
 918              	.L47:
 919 04e6 00BF     		.align	2
 920              	.L46:
 921 04e8 00000000 		.word	.LANCHOR2
 922 04ec 08000000 		.word	.LANCHOR0+8
 923              		.cfi_endproc
 924              	.LFE329:
 925              		.size	read_config_eeprom, .-read_config_eeprom
 926              		.align	1
 927              		.p2align 4,,15
 928              		.global	default_config_eeprom
 929              		.syntax unified
 930              		.thumb
 931              		.thumb_func
 932              		.fpu softvfp
 933              		.type	default_config_eeprom, %function
 934              	default_config_eeprom:
 935              	.LFB330:
 936              		.loc 1 138 0
 937              		.cfi_startproc
 938              		@ args = 0, pretend = 0, frame = 64
 939              		@ frame_needed = 0, uses_anonymous_args = 0
 940 04f0 10B5     		push	{r4, lr}
 941              		.cfi_def_cfa_offset 8
 942              		.cfi_offset 4, -8
 943              		.cfi_offset 14, -4
 944 04f2 90B0     		sub	sp, sp, #64
 945              		.cfi_def_cfa_offset 72
 946              		.loc 1 140 0
 947 04f4 4123     		movs	r3, #65
 948 04f6 8DF80430 		strb	r3, [sp, #4]
 949              		.loc 1 141 0
 950 04fa 8DF80530 		strb	r3, [sp, #5]
 951              		.loc 1 142 0
 952 04fe 8DF80630 		strb	r3, [sp, #6]
 953              		.loc 1 143 0
 954 0502 9DF80730 		ldrb	r3, [sp, #7]	@ zero_extendqisi2
 955 0506 0023     		movs	r3, #0
 956 0508 8DF80730 		strb	r3, [sp, #7]
 957 050c 9DF80820 		ldrb	r2, [sp, #8]	@ zero_extendqisi2
 958 0510 8DF80830 		strb	r3, [sp, #8]
 959 0514 9DF80920 		ldrb	r2, [sp, #9]	@ zero_extendqisi2
 960 0518 8DF80930 		strb	r3, [sp, #9]
 961 051c 9DF80A20 		ldrb	r2, [sp, #10]	@ zero_extendqisi2
 962 0520 8DF80A30 		strb	r3, [sp, #10]
 963              		.loc 1 144 0
ARM GAS  C:\Users\RAKIBU~1\AppData\Local\Temp\cc76R1kY.s 			page 18


 964 0524 5622     		movs	r2, #86
 965 0526 8DF81320 		strb	r2, [sp, #19]
 966              		.loc 1 145 0
 967 052a 1A4A     		ldr	r2, .L50
 968 052c 0592     		str	r2, [sp, #20]
 969              		.loc 1 146 0
 970 052e 0692     		str	r2, [sp, #24]
 971              		.loc 1 147 0
 972 0530 1122     		movs	r2, #17
 973 0532 8DF82520 		strb	r2, [sp, #37]
 974              		.loc 1 148 0
 975 0536 9DF82720 		ldrb	r2, [sp, #39]	@ zero_extendqisi2
 976 053a 8DF82730 		strb	r3, [sp, #39]
 977 053e 9DF82820 		ldrb	r2, [sp, #40]	@ zero_extendqisi2
 978 0542 8DF82830 		strb	r3, [sp, #40]
 979 0546 9DF82920 		ldrb	r2, [sp, #41]	@ zero_extendqisi2
 980 054a 8DF82930 		strb	r3, [sp, #41]
 981 054e 9DF82A20 		ldrb	r2, [sp, #42]	@ zero_extendqisi2
 982 0552 8DF82A30 		strb	r3, [sp, #42]
 983              		.loc 1 150 0
 984 0556 1820     		movs	r0, #24
 985 0558 FFF7FEFF 		bl	EepromFindDevice
 986              	.LVL102:
 987 055c 0E4C     		ldr	r4, .L50+4
 988 055e 0246     		mov	r2, r0
 989 0560 0E49     		ldr	r1, .L50+8
 990 0562 04F10C00 		add	r0, r4, #12
 991 0566 FFF7FEFF 		bl	EepromFileOpen
 992              	.LVL103:
 993 056a E061     		str	r0, [r4, #28]
 994              		.loc 1 151 0
 995 056c 0368     		ldr	r3, [r0]
 996 056e 5B6A     		ldr	r3, [r3, #36]
 997 0570 47F6FF71 		movw	r1, #32767
 998 0574 9847     		blx	r3
 999              	.LVL104:
 1000              		.loc 1 152 0
 1001 0576 E069     		ldr	r0, [r4, #28]
 1002 0578 0368     		ldr	r3, [r0]
 1003 057a 5B68     		ldr	r3, [r3, #4]
 1004 057c 3922     		movs	r2, #57
 1005 057e 01A9     		add	r1, sp, #4
 1006 0580 9847     		blx	r3
 1007              	.LVL105:
 1008              		.loc 1 153 0
 1009 0582 E069     		ldr	r0, [r4, #28]
 1010 0584 0368     		ldr	r3, [r0]
 1011 0586 5B69     		ldr	r3, [r3, #20]
 1012 0588 9847     		blx	r3
 1013              	.LVL106:
 1014              		.loc 1 156 0
 1015 058a FFF7FEFF 		bl	read_config_eeprom
 1016              	.LVL107:
 1017              		.loc 1 158 0
 1018 058e 10B0     		add	sp, sp, #64
 1019              		.cfi_def_cfa_offset 8
 1020              		@ sp needed
ARM GAS  C:\Users\RAKIBU~1\AppData\Local\Temp\cc76R1kY.s 			page 19


 1021 0590 10BD     		pop	{r4, pc}
 1022              	.L51:
 1023 0592 00BF     		.align	2
 1024              	.L50:
 1025 0594 601F0D00 		.word	860000
 1026 0598 00000000 		.word	.LANCHOR2
 1027 059c 08000000 		.word	.LANCHOR0+8
 1028              		.cfi_endproc
 1029              	.LFE330:
 1030              		.size	default_config_eeprom, .-default_config_eeprom
 1031              		.align	1
 1032              		.p2align 4,,15
 1033              		.global	setRelayState
 1034              		.syntax unified
 1035              		.thumb
 1036              		.thumb_func
 1037              		.fpu softvfp
 1038              		.type	setRelayState, %function
 1039              	setRelayState:
 1040              	.LFB331:
 1041              		.loc 1 165 0
 1042              		.cfi_startproc
 1043              		@ args = 0, pretend = 0, frame = 0
 1044              		@ frame_needed = 0, uses_anonymous_args = 0
 1045              	.LVL108:
 1046 05a0 38B5     		push	{r3, r4, r5, lr}
 1047              		.cfi_def_cfa_offset 16
 1048              		.cfi_offset 3, -16
 1049              		.cfi_offset 4, -12
 1050              		.cfi_offset 5, -8
 1051              		.cfi_offset 14, -4
 1052 05a2 0546     		mov	r5, r0
 1053              		.loc 1 166 0
 1054 05a4 A0F14103 		sub	r3, r0, #65
 1055 05a8 322B     		cmp	r3, #50
 1056 05aa 68D8     		bhi	.L53
 1057 05ac DFE813F0 		tbh	[pc, r3, lsl #1]
 1058              	.L55:
 1059 05b0 0E01     		.2byte	(.L54-.L55)/2
 1060 05b2 6700     		.2byte	(.L53-.L55)/2
 1061 05b4 9F00     		.2byte	(.L56-.L55)/2
 1062 05b6 6700     		.2byte	(.L53-.L55)/2
 1063 05b8 6700     		.2byte	(.L53-.L55)/2
 1064 05ba 6700     		.2byte	(.L53-.L55)/2
 1065 05bc 6700     		.2byte	(.L53-.L55)/2
 1066 05be 6700     		.2byte	(.L53-.L55)/2
 1067 05c0 6700     		.2byte	(.L53-.L55)/2
 1068 05c2 6700     		.2byte	(.L53-.L55)/2
 1069 05c4 6700     		.2byte	(.L53-.L55)/2
 1070 05c6 6700     		.2byte	(.L53-.L55)/2
 1071 05c8 6700     		.2byte	(.L53-.L55)/2
 1072 05ca 6700     		.2byte	(.L53-.L55)/2
 1073 05cc BC00     		.2byte	(.L57-.L55)/2
 1074 05ce 6700     		.2byte	(.L53-.L55)/2
 1075 05d0 6700     		.2byte	(.L53-.L55)/2
 1076 05d2 6700     		.2byte	(.L53-.L55)/2
 1077 05d4 D900     		.2byte	(.L58-.L55)/2
ARM GAS  C:\Users\RAKIBU~1\AppData\Local\Temp\cc76R1kY.s 			page 20


 1078 05d6 3300     		.2byte	(.L59-.L55)/2
 1079 05d8 6700     		.2byte	(.L53-.L55)/2
 1080 05da 6700     		.2byte	(.L53-.L55)/2
 1081 05dc 6700     		.2byte	(.L53-.L55)/2
 1082 05de 6700     		.2byte	(.L53-.L55)/2
 1083 05e0 6700     		.2byte	(.L53-.L55)/2
 1084 05e2 6700     		.2byte	(.L53-.L55)/2
 1085 05e4 6700     		.2byte	(.L53-.L55)/2
 1086 05e6 6700     		.2byte	(.L53-.L55)/2
 1087 05e8 6700     		.2byte	(.L53-.L55)/2
 1088 05ea 6700     		.2byte	(.L53-.L55)/2
 1089 05ec 6700     		.2byte	(.L53-.L55)/2
 1090 05ee 6700     		.2byte	(.L53-.L55)/2
 1091 05f0 6700     		.2byte	(.L53-.L55)/2
 1092 05f2 6700     		.2byte	(.L53-.L55)/2
 1093 05f4 6700     		.2byte	(.L53-.L55)/2
 1094 05f6 6700     		.2byte	(.L53-.L55)/2
 1095 05f8 6700     		.2byte	(.L53-.L55)/2
 1096 05fa 6700     		.2byte	(.L53-.L55)/2
 1097 05fc 6700     		.2byte	(.L53-.L55)/2
 1098 05fe 6700     		.2byte	(.L53-.L55)/2
 1099 0600 6700     		.2byte	(.L53-.L55)/2
 1100 0602 6700     		.2byte	(.L53-.L55)/2
 1101 0604 6700     		.2byte	(.L53-.L55)/2
 1102 0606 6700     		.2byte	(.L53-.L55)/2
 1103 0608 6700     		.2byte	(.L53-.L55)/2
 1104 060a 6700     		.2byte	(.L53-.L55)/2
 1105 060c 6700     		.2byte	(.L53-.L55)/2
 1106 060e 6700     		.2byte	(.L53-.L55)/2
 1107 0610 6700     		.2byte	(.L53-.L55)/2
 1108 0612 6700     		.2byte	(.L53-.L55)/2
 1109 0614 4301     		.2byte	(.L60-.L55)/2
 1110              		.p2align 1
 1111              	.L59:
 1112              		.loc 1 170 0
 1113 0616 A24C     		ldr	r4, .L62
 1114 0618 0023     		movs	r3, #0
 1115 061a 0E22     		movs	r2, #14
 1116 061c 0721     		movs	r1, #7
 1117 061e 2046     		mov	r0, r4
 1118              	.LVL109:
 1119 0620 FFF7FEFF 		bl	mcp23017_digitalWrite
 1120              	.LVL110:
 1121              		.loc 1 171 0
 1122 0624 0123     		movs	r3, #1
 1123 0626 0F22     		movs	r2, #15
 1124 0628 0721     		movs	r1, #7
 1125 062a 2046     		mov	r0, r4
 1126 062c FFF7FEFF 		bl	mcp23017_digitalWrite
 1127              	.LVL111:
 1128              		.loc 1 173 0
 1129 0630 0123     		movs	r3, #1
 1130 0632 0B22     		movs	r2, #11
 1131 0634 0721     		movs	r1, #7
 1132 0636 2046     		mov	r0, r4
 1133 0638 FFF7FEFF 		bl	mcp23017_digitalWrite
 1134              	.LVL112:
ARM GAS  C:\Users\RAKIBU~1\AppData\Local\Temp\cc76R1kY.s 			page 21


 1135              		.loc 1 174 0
 1136 063c 0023     		movs	r3, #0
 1137 063e 0A22     		movs	r2, #10
 1138 0640 0721     		movs	r1, #7
 1139 0642 2046     		mov	r0, r4
 1140 0644 FFF7FEFF 		bl	mcp23017_digitalWrite
 1141              	.LVL113:
 1142              		.loc 1 176 0
 1143 0648 0023     		movs	r3, #0
 1144 064a 0822     		movs	r2, #8
 1145 064c 0721     		movs	r1, #7
 1146 064e 2046     		mov	r0, r4
 1147 0650 FFF7FEFF 		bl	mcp23017_digitalWrite
 1148              	.LVL114:
 1149              		.loc 1 177 0
 1150 0654 0123     		movs	r3, #1
 1151 0656 0922     		movs	r2, #9
 1152 0658 0721     		movs	r1, #7
 1153 065a 2046     		mov	r0, r4
 1154 065c FFF7FEFF 		bl	mcp23017_digitalWrite
 1155              	.LVL115:
 1156              		.loc 1 179 0
 1157 0660 0023     		movs	r3, #0
 1158 0662 0722     		movs	r2, #7
 1159 0664 1146     		mov	r1, r2
 1160 0666 2046     		mov	r0, r4
 1161 0668 FFF7FEFF 		bl	mcp23017_digitalWrite
 1162              	.LVL116:
 1163              		.loc 1 180 0
 1164 066c 0123     		movs	r3, #1
 1165 066e 0622     		movs	r2, #6
 1166 0670 0721     		movs	r1, #7
 1167 0672 2046     		mov	r0, r4
 1168 0674 FFF7FEFF 		bl	mcp23017_digitalWrite
 1169              	.LVL117:
 1170              		.loc 1 181 0
 1171 0678 8A4B     		ldr	r3, .L62+4
 1172 067a 83F85950 		strb	r5, [r3, #89]
 1173              	.L53:
 1174              		.loc 1 258 0
 1175 067e 4FF4FA60 		mov	r0, #2000
 1176 0682 0021     		movs	r1, #0
 1177 0684 FFF7FEFF 		bl	chThdSleep
 1178              	.LVL118:
 1179              		.loc 1 261 0
 1180 0688 854C     		ldr	r4, .L62
 1181 068a 0023     		movs	r3, #0
 1182 068c 0E22     		movs	r2, #14
 1183 068e 0721     		movs	r1, #7
 1184 0690 2046     		mov	r0, r4
 1185 0692 FFF7FEFF 		bl	mcp23017_digitalWrite
 1186              	.LVL119:
 1187              		.loc 1 262 0
 1188 0696 0023     		movs	r3, #0
 1189 0698 0F22     		movs	r2, #15
 1190 069a 0721     		movs	r1, #7
 1191 069c 2046     		mov	r0, r4
ARM GAS  C:\Users\RAKIBU~1\AppData\Local\Temp\cc76R1kY.s 			page 22


 1192 069e FFF7FEFF 		bl	mcp23017_digitalWrite
 1193              	.LVL120:
 1194              		.loc 1 264 0
 1195 06a2 0023     		movs	r3, #0
 1196 06a4 0B22     		movs	r2, #11
 1197 06a6 0721     		movs	r1, #7
 1198 06a8 2046     		mov	r0, r4
 1199 06aa FFF7FEFF 		bl	mcp23017_digitalWrite
 1200              	.LVL121:
 1201              		.loc 1 265 0
 1202 06ae 0023     		movs	r3, #0
 1203 06b0 0A22     		movs	r2, #10
 1204 06b2 0721     		movs	r1, #7
 1205 06b4 2046     		mov	r0, r4
 1206 06b6 FFF7FEFF 		bl	mcp23017_digitalWrite
 1207              	.LVL122:
 1208              		.loc 1 267 0
 1209 06ba 0023     		movs	r3, #0
 1210 06bc 0822     		movs	r2, #8
 1211 06be 0721     		movs	r1, #7
 1212 06c0 2046     		mov	r0, r4
 1213 06c2 FFF7FEFF 		bl	mcp23017_digitalWrite
 1214              	.LVL123:
 1215              		.loc 1 268 0
 1216 06c6 0023     		movs	r3, #0
 1217 06c8 0922     		movs	r2, #9
 1218 06ca 0721     		movs	r1, #7
 1219 06cc 2046     		mov	r0, r4
 1220 06ce FFF7FEFF 		bl	mcp23017_digitalWrite
 1221              	.LVL124:
 1222              		.loc 1 270 0
 1223 06d2 0023     		movs	r3, #0
 1224 06d4 0722     		movs	r2, #7
 1225 06d6 1146     		mov	r1, r2
 1226 06d8 2046     		mov	r0, r4
 1227 06da FFF7FEFF 		bl	mcp23017_digitalWrite
 1228              	.LVL125:
 1229              		.loc 1 271 0
 1230 06de 0023     		movs	r3, #0
 1231 06e0 0622     		movs	r2, #6
 1232 06e2 0721     		movs	r1, #7
 1233 06e4 2046     		mov	r0, r4
 1234 06e6 FFF7FEFF 		bl	mcp23017_digitalWrite
 1235              	.LVL126:
 1236              		.loc 1 274 0
 1237 06ea 2846     		mov	r0, r5
 1238 06ec 38BD     		pop	{r3, r4, r5, pc}
 1239              	.LVL127:
 1240              	.L56:
 1241              		.loc 1 188 0
 1242 06ee 6C4C     		ldr	r4, .L62
 1243 06f0 0123     		movs	r3, #1
 1244 06f2 0822     		movs	r2, #8
 1245 06f4 0721     		movs	r1, #7
 1246 06f6 2046     		mov	r0, r4
 1247              	.LVL128:
 1248 06f8 FFF7FEFF 		bl	mcp23017_digitalWrite
ARM GAS  C:\Users\RAKIBU~1\AppData\Local\Temp\cc76R1kY.s 			page 23


 1249              	.LVL129:
 1250              		.loc 1 189 0
 1251 06fc 0023     		movs	r3, #0
 1252 06fe 0922     		movs	r2, #9
 1253 0700 0721     		movs	r1, #7
 1254 0702 2046     		mov	r0, r4
 1255 0704 FFF7FEFF 		bl	mcp23017_digitalWrite
 1256              	.LVL130:
 1257              		.loc 1 191 0
 1258 0708 0123     		movs	r3, #1
 1259 070a 0722     		movs	r2, #7
 1260 070c 1146     		mov	r1, r2
 1261 070e 2046     		mov	r0, r4
 1262 0710 FFF7FEFF 		bl	mcp23017_digitalWrite
 1263              	.LVL131:
 1264              		.loc 1 192 0
 1265 0714 0023     		movs	r3, #0
 1266 0716 0622     		movs	r2, #6
 1267 0718 0721     		movs	r1, #7
 1268 071a 2046     		mov	r0, r4
 1269 071c FFF7FEFF 		bl	mcp23017_digitalWrite
 1270              	.LVL132:
 1271              		.loc 1 193 0
 1272 0720 604B     		ldr	r3, .L62+4
 1273 0722 83F85950 		strb	r5, [r3, #89]
 1274              		.loc 1 194 0
 1275 0726 AAE7     		b	.L53
 1276              	.LVL133:
 1277              	.L57:
 1278              		.loc 1 200 0
 1279 0728 5D4C     		ldr	r4, .L62
 1280 072a 0023     		movs	r3, #0
 1281 072c 0822     		movs	r2, #8
 1282 072e 0721     		movs	r1, #7
 1283 0730 2046     		mov	r0, r4
 1284              	.LVL134:
 1285 0732 FFF7FEFF 		bl	mcp23017_digitalWrite
 1286              	.LVL135:
 1287              		.loc 1 201 0
 1288 0736 0123     		movs	r3, #1
 1289 0738 0922     		movs	r2, #9
 1290 073a 0721     		movs	r1, #7
 1291 073c 2046     		mov	r0, r4
 1292 073e FFF7FEFF 		bl	mcp23017_digitalWrite
 1293              	.LVL136:
 1294              		.loc 1 203 0
 1295 0742 0123     		movs	r3, #1
 1296 0744 0722     		movs	r2, #7
 1297 0746 1146     		mov	r1, r2
 1298 0748 2046     		mov	r0, r4
 1299 074a FFF7FEFF 		bl	mcp23017_digitalWrite
 1300              	.LVL137:
 1301              		.loc 1 204 0
 1302 074e 0023     		movs	r3, #0
 1303 0750 0622     		movs	r2, #6
 1304 0752 0721     		movs	r1, #7
 1305 0754 2046     		mov	r0, r4
ARM GAS  C:\Users\RAKIBU~1\AppData\Local\Temp\cc76R1kY.s 			page 24


 1306 0756 FFF7FEFF 		bl	mcp23017_digitalWrite
 1307              	.LVL138:
 1308              		.loc 1 205 0
 1309 075a 524B     		ldr	r3, .L62+4
 1310 075c 83F85950 		strb	r5, [r3, #89]
 1311              		.loc 1 206 0
 1312 0760 8DE7     		b	.L53
 1313              	.LVL139:
 1314              	.L58:
 1315              		.loc 1 210 0
 1316 0762 4F4C     		ldr	r4, .L62
 1317 0764 0123     		movs	r3, #1
 1318 0766 0E22     		movs	r2, #14
 1319 0768 0721     		movs	r1, #7
 1320 076a 2046     		mov	r0, r4
 1321              	.LVL140:
 1322 076c FFF7FEFF 		bl	mcp23017_digitalWrite
 1323              	.LVL141:
 1324              		.loc 1 211 0
 1325 0770 0023     		movs	r3, #0
 1326 0772 0F22     		movs	r2, #15
 1327 0774 0721     		movs	r1, #7
 1328 0776 2046     		mov	r0, r4
 1329 0778 FFF7FEFF 		bl	mcp23017_digitalWrite
 1330              	.LVL142:
 1331              		.loc 1 213 0
 1332 077c 0023     		movs	r3, #0
 1333 077e 0B22     		movs	r2, #11
 1334 0780 0721     		movs	r1, #7
 1335 0782 2046     		mov	r0, r4
 1336 0784 FFF7FEFF 		bl	mcp23017_digitalWrite
 1337              	.LVL143:
 1338              		.loc 1 214 0
 1339 0788 0123     		movs	r3, #1
 1340 078a 0A22     		movs	r2, #10
 1341 078c 0721     		movs	r1, #7
 1342 078e 2046     		mov	r0, r4
 1343 0790 FFF7FEFF 		bl	mcp23017_digitalWrite
 1344              	.LVL144:
 1345              		.loc 1 216 0
 1346 0794 0023     		movs	r3, #0
 1347 0796 0822     		movs	r2, #8
 1348 0798 0721     		movs	r1, #7
 1349 079a 2046     		mov	r0, r4
 1350 079c FFF7FEFF 		bl	mcp23017_digitalWrite
 1351              	.LVL145:
 1352              		.loc 1 217 0
 1353 07a0 0123     		movs	r3, #1
 1354 07a2 0922     		movs	r2, #9
 1355 07a4 0721     		movs	r1, #7
 1356 07a6 2046     		mov	r0, r4
 1357 07a8 FFF7FEFF 		bl	mcp23017_digitalWrite
 1358              	.LVL146:
 1359              		.loc 1 219 0
 1360 07ac 0023     		movs	r3, #0
 1361 07ae 0722     		movs	r2, #7
 1362 07b0 1146     		mov	r1, r2
ARM GAS  C:\Users\RAKIBU~1\AppData\Local\Temp\cc76R1kY.s 			page 25


 1363 07b2 2046     		mov	r0, r4
 1364 07b4 FFF7FEFF 		bl	mcp23017_digitalWrite
 1365              	.LVL147:
 1366              		.loc 1 220 0
 1367 07b8 0123     		movs	r3, #1
 1368 07ba 0622     		movs	r2, #6
 1369 07bc 0721     		movs	r1, #7
 1370 07be 2046     		mov	r0, r4
 1371 07c0 FFF7FEFF 		bl	mcp23017_digitalWrite
 1372              	.LVL148:
 1373              		.loc 1 221 0
 1374 07c4 374B     		ldr	r3, .L62+4
 1375 07c6 83F85950 		strb	r5, [r3, #89]
 1376              		.loc 1 222 0
 1377 07ca 58E7     		b	.L53
 1378              	.LVL149:
 1379              	.L54:
 1380              		.loc 1 226 0
 1381 07cc 344C     		ldr	r4, .L62
 1382 07ce 0023     		movs	r3, #0
 1383 07d0 0E22     		movs	r2, #14
 1384 07d2 0721     		movs	r1, #7
 1385 07d4 2046     		mov	r0, r4
 1386              	.LVL150:
 1387 07d6 FFF7FEFF 		bl	mcp23017_digitalWrite
 1388              	.LVL151:
 1389              		.loc 1 227 0
 1390 07da 0123     		movs	r3, #1
 1391 07dc 0F22     		movs	r2, #15
 1392 07de 0721     		movs	r1, #7
 1393 07e0 2046     		mov	r0, r4
 1394 07e2 FFF7FEFF 		bl	mcp23017_digitalWrite
 1395              	.LVL152:
 1396              		.loc 1 229 0
 1397 07e6 0023     		movs	r3, #0
 1398 07e8 0B22     		movs	r2, #11
 1399 07ea 0721     		movs	r1, #7
 1400 07ec 2046     		mov	r0, r4
 1401 07ee FFF7FEFF 		bl	mcp23017_digitalWrite
 1402              	.LVL153:
 1403              		.loc 1 230 0
 1404 07f2 0123     		movs	r3, #1
 1405 07f4 0A22     		movs	r2, #10
 1406 07f6 0721     		movs	r1, #7
 1407 07f8 2046     		mov	r0, r4
 1408 07fa FFF7FEFF 		bl	mcp23017_digitalWrite
 1409              	.LVL154:
 1410              		.loc 1 232 0
 1411 07fe 0023     		movs	r3, #0
 1412 0800 0822     		movs	r2, #8
 1413 0802 0721     		movs	r1, #7
 1414 0804 2046     		mov	r0, r4
 1415 0806 FFF7FEFF 		bl	mcp23017_digitalWrite
 1416              	.LVL155:
 1417              		.loc 1 233 0
 1418 080a 0123     		movs	r3, #1
 1419 080c 0922     		movs	r2, #9
ARM GAS  C:\Users\RAKIBU~1\AppData\Local\Temp\cc76R1kY.s 			page 26


 1420 080e 0721     		movs	r1, #7
 1421 0810 2046     		mov	r0, r4
 1422 0812 FFF7FEFF 		bl	mcp23017_digitalWrite
 1423              	.LVL156:
 1424              		.loc 1 235 0
 1425 0816 0023     		movs	r3, #0
 1426 0818 0722     		movs	r2, #7
 1427 081a 1146     		mov	r1, r2
 1428 081c 2046     		mov	r0, r4
 1429 081e FFF7FEFF 		bl	mcp23017_digitalWrite
 1430              	.LVL157:
 1431              		.loc 1 236 0
 1432 0822 0123     		movs	r3, #1
 1433 0824 0622     		movs	r2, #6
 1434 0826 0721     		movs	r1, #7
 1435 0828 2046     		mov	r0, r4
 1436 082a FFF7FEFF 		bl	mcp23017_digitalWrite
 1437              	.LVL158:
 1438              		.loc 1 237 0
 1439 082e 1D4B     		ldr	r3, .L62+4
 1440 0830 83F85950 		strb	r5, [r3, #89]
 1441              		.loc 1 238 0
 1442 0834 23E7     		b	.L53
 1443              	.LVL159:
 1444              	.L60:
 1445              		.loc 1 242 0
 1446 0836 1A4C     		ldr	r4, .L62
 1447 0838 0123     		movs	r3, #1
 1448 083a 0E22     		movs	r2, #14
 1449 083c 0721     		movs	r1, #7
 1450 083e 2046     		mov	r0, r4
 1451              	.LVL160:
 1452 0840 FFF7FEFF 		bl	mcp23017_digitalWrite
 1453              	.LVL161:
 1454              		.loc 1 243 0
 1455 0844 0023     		movs	r3, #0
 1456 0846 0F22     		movs	r2, #15
 1457 0848 0721     		movs	r1, #7
 1458 084a 2046     		mov	r0, r4
 1459 084c FFF7FEFF 		bl	mcp23017_digitalWrite
 1460              	.LVL162:
 1461              		.loc 1 245 0
 1462 0850 0023     		movs	r3, #0
 1463 0852 0B22     		movs	r2, #11
 1464 0854 0721     		movs	r1, #7
 1465 0856 2046     		mov	r0, r4
 1466 0858 FFF7FEFF 		bl	mcp23017_digitalWrite
 1467              	.LVL163:
 1468              		.loc 1 246 0
 1469 085c 0123     		movs	r3, #1
 1470 085e 0A22     		movs	r2, #10
 1471 0860 0721     		movs	r1, #7
 1472 0862 2046     		mov	r0, r4
 1473 0864 FFF7FEFF 		bl	mcp23017_digitalWrite
 1474              	.LVL164:
 1475              		.loc 1 248 0
 1476 0868 0023     		movs	r3, #0
ARM GAS  C:\Users\RAKIBU~1\AppData\Local\Temp\cc76R1kY.s 			page 27


 1477 086a 0822     		movs	r2, #8
 1478 086c 0721     		movs	r1, #7
 1479 086e 2046     		mov	r0, r4
 1480 0870 FFF7FEFF 		bl	mcp23017_digitalWrite
 1481              	.LVL165:
 1482              		.loc 1 249 0
 1483 0874 0123     		movs	r3, #1
 1484 0876 0922     		movs	r2, #9
 1485 0878 0721     		movs	r1, #7
 1486 087a 2046     		mov	r0, r4
 1487 087c FFF7FEFF 		bl	mcp23017_digitalWrite
 1488              	.LVL166:
 1489              		.loc 1 251 0
 1490 0880 0123     		movs	r3, #1
 1491 0882 0722     		movs	r2, #7
 1492 0884 1146     		mov	r1, r2
 1493 0886 2046     		mov	r0, r4
 1494 0888 FFF7FEFF 		bl	mcp23017_digitalWrite
 1495              	.LVL167:
 1496              		.loc 1 252 0
 1497 088c 0023     		movs	r3, #0
 1498 088e 0622     		movs	r2, #6
 1499 0890 0721     		movs	r1, #7
 1500 0892 2046     		mov	r0, r4
 1501 0894 FFF7FEFF 		bl	mcp23017_digitalWrite
 1502              	.LVL168:
 1503              		.loc 1 253 0
 1504 0898 024B     		ldr	r3, .L62+4
 1505 089a 83F85950 		strb	r5, [r3, #89]
 1506              		.loc 1 254 0
 1507 089e EEE6     		b	.L53
 1508              	.L63:
 1509              		.align	2
 1510              	.L62:
 1511 08a0 28000000 		.word	.LANCHOR1+40
 1512 08a4 00000000 		.word	.LANCHOR2
 1513              		.cfi_endproc
 1514              	.LFE331:
 1515              		.size	setRelayState, .-setRelayState
 1516              		.align	1
 1517 08a8 AFF30080 		.p2align 4,,15
 1517      AFF30080 
 1518              		.global	cmd_adc
 1519              		.syntax unified
 1520              		.thumb
 1521              		.thumb_func
 1522              		.fpu softvfp
 1523              		.type	cmd_adc, %function
 1524              	cmd_adc:
 1525              	.LFB334:
 1526              		.loc 1 526 0
 1527              		.cfi_startproc
 1528              		@ args = 0, pretend = 0, frame = 0
 1529              		@ frame_needed = 0, uses_anonymous_args = 0
 1530              	.LVL169:
 1531 08b0 08B5     		push	{r3, lr}
 1532              		.cfi_def_cfa_offset 8
ARM GAS  C:\Users\RAKIBU~1\AppData\Local\Temp\cc76R1kY.s 			page 28


 1533              		.cfi_offset 3, -8
 1534              		.cfi_offset 14, -4
 1535              		.loc 1 528 0
 1536 08b2 094B     		ldr	r3, .L69
 1537 08b4 5B7A     		ldrb	r3, [r3, #9]	@ zero_extendqisi2
 1538 08b6 DBB2     		uxtb	r3, r3
 1539 08b8 042B     		cmp	r3, #4
 1540 08ba 06D0     		beq	.L68
 1541              		.loc 1 535 0
 1542 08bc 064B     		ldr	r3, .L69
 1543 08be 0222     		movs	r2, #2
 1544 08c0 5A72     		strb	r2, [r3, #9]
 1545              		.loc 1 536 0
 1546 08c2 0649     		ldr	r1, .L69+4
 1547 08c4 FFF7FEFF 		bl	chprintf
 1548              	.LVL170:
 1549              	.L64:
 1550              		.loc 1 538 0
 1551 08c8 08BD     		pop	{r3, pc}
 1552              	.LVL171:
 1553              	.L68:
 1554              		.loc 1 530 0
 1555 08ca 034B     		ldr	r3, .L69
 1556 08cc 0522     		movs	r2, #5
 1557 08ce 5A72     		strb	r2, [r3, #9]
 1558              		.loc 1 531 0
 1559 08d0 0349     		ldr	r1, .L69+8
 1560 08d2 FFF7FEFF 		bl	chprintf
 1561              	.LVL172:
 1562 08d6 F7E7     		b	.L64
 1563              	.L70:
 1564              		.align	2
 1565              	.L69:
 1566 08d8 00000000 		.word	.LANCHOR2
 1567 08dc B4000000 		.word	.LC10
 1568 08e0 98000000 		.word	.LC9
 1569              		.cfi_endproc
 1570              	.LFE334:
 1571              		.size	cmd_adc, .-cmd_adc
 1572              		.align	1
 1573 08e4 AFF30080 		.p2align 4,,15
 1573      AFF30080 
 1573      AFF30080 
 1574              		.global	xbee_setup
 1575              		.syntax unified
 1576              		.thumb
 1577              		.thumb_func
 1578              		.fpu softvfp
 1579              		.type	xbee_setup, %function
 1580              	xbee_setup:
 1581              	.LFB335:
 1582              		.loc 1 602 0
 1583              		.cfi_startproc
 1584              		@ args = 0, pretend = 0, frame = 0
 1585              		@ frame_needed = 0, uses_anonymous_args = 0
 1586 08f0 38B5     		push	{r3, r4, r5, lr}
 1587              		.cfi_def_cfa_offset 16
ARM GAS  C:\Users\RAKIBU~1\AppData\Local\Temp\cc76R1kY.s 			page 29


 1588              		.cfi_offset 3, -16
 1589              		.cfi_offset 4, -12
 1590              		.cfi_offset 5, -8
 1591              		.cfi_offset 14, -4
 1592              		.loc 1 603 0
 1593 08f2 0F4C     		ldr	r4, .L73
 1594 08f4 40F28232 		movw	r2, #898
 1595 08f8 2021     		movs	r1, #32
 1596 08fa 2046     		mov	r0, r4
 1597 08fc FFF7FEFF 		bl	_pal_lld_setgroupmode
 1598              	.LVL173:
 1599              		.loc 1 604 0
 1600 0900 40F28232 		movw	r2, #898
 1601 0904 4021     		movs	r1, #64
 1602 0906 2046     		mov	r0, r4
 1603 0908 FFF7FEFF 		bl	_pal_lld_setgroupmode
 1604              	.LVL174:
 1605              		.loc 1 605 0
 1606 090c 094C     		ldr	r4, .L73+4
 1607 090e 0A49     		ldr	r1, .L73+8
 1608 0910 2046     		mov	r0, r4
 1609 0912 FFF7FEFF 		bl	sdStart
 1610              	.LVL175:
 1611              		.loc 1 606 0
 1612 0916 094D     		ldr	r5, .L73+12
 1613 0918 0949     		ldr	r1, .L73+16
 1614 091a 2846     		mov	r0, r5
 1615 091c FFF7FEFF 		bl	chprintf
 1616              	.LVL176:
 1617              		.loc 1 607 0
 1618 0920 2946     		mov	r1, r5
 1619 0922 2046     		mov	r0, r4
 1620 0924 FFF7FEFF 		bl	xbee_init
 1621              	.LVL177:
 1622 0928 064B     		ldr	r3, .L73+20
 1623 092a 1860     		str	r0, [r3]
 1624              		.loc 1 609 0
 1625 092c 38BD     		pop	{r3, r4, r5, pc}
 1626              	.L74:
 1627 092e 00BF     		.align	2
 1628              	.L73:
 1629 0930 000C0240 		.word	1073875968
 1630 0934 00000000 		.word	SD2
 1631 0938 2C000000 		.word	.LANCHOR1+44
 1632 093c 00000000 		.word	SD6
 1633 0940 D4000000 		.word	.LC11
 1634 0944 00000000 		.word	xbee_mbx
 1635              		.cfi_endproc
 1636              	.LFE335:
 1637              		.size	xbee_setup, .-xbee_setup
 1638              		.align	1
 1639 0948 AFF30080 		.p2align 4,,15
 1639      AFF30080 
 1640              		.global	Vector58
 1641              		.syntax unified
 1642              		.thumb
 1643              		.thumb_func
ARM GAS  C:\Users\RAKIBU~1\AppData\Local\Temp\cc76R1kY.s 			page 30


 1644              		.fpu softvfp
 1645              		.type	Vector58, %function
 1646              	Vector58:
 1647              	.LFB337:
 1648              		.loc 1 656 0
 1649              		.cfi_startproc
 1650              		@ args = 0, pretend = 0, frame = 0
 1651              		@ frame_needed = 0, uses_anonymous_args = 0
 1652              		@ link register save eliminated.
 1653              		.loc 1 660 0
 1654 0950 304B     		ldr	r3, .L83
 1655 0952 5A69     		ldr	r2, [r3, #20]
 1656              	.LVL178:
 1657              		.loc 1 661 0
 1658 0954 1968     		ldr	r1, [r3]
 1659 0956 01F00101 		and	r1, r1, #1
 1660 095a 0A40     		ands	r2, r2, r1
 1661              	.LVL179:
 1662              		.loc 1 662 0
 1663 095c 5A61     		str	r2, [r3, #20]
 1664              		.loc 1 663 0
 1665 095e 2E4B     		ldr	r3, .L83+4
 1666 0960 DA6D     		ldr	r2, [r3, #92]
 1667              	.LVL180:
 1668 0962 0132     		adds	r2, r2, #1
 1669 0964 DA65     		str	r2, [r3, #92]
 1670              	.LVL181:
 1671              		.loc 1 666 0
 1672 0966 1B78     		ldrb	r3, [r3]	@ zero_extendqisi2
 1673 0968 002B     		cmp	r3, #0
 1674 096a 52D0     		beq	.L80
 1675              		.loc 1 666 0 is_stmt 0 discriminator 1
 1676 096c 2B4B     		ldr	r3, .L83+8
 1677 096e 1B69     		ldr	r3, [r3, #16]
 1678 0970 13F0010F 		tst	r3, #1
 1679 0974 4DD0     		beq	.L80
 1680              		.loc 1 656 0 is_stmt 1
 1681 0976 10B4     		push	{r4}
 1682              		.cfi_def_cfa_offset 4
 1683              		.cfi_offset 4, -4
 1684              		.loc 1 668 0
 1685 0978 294B     		ldr	r3, .L83+12
 1686 097a DA68     		ldr	r2, [r3, #12]
 1687 097c 536A     		ldr	r3, [r2, #36]
 1688 097e 2949     		ldr	r1, .L83+16
 1689 0980 0B60     		str	r3, [r1]
 1690              		.loc 1 669 0
 1691 0982 0021     		movs	r1, #0
 1692 0984 5162     		str	r1, [r2, #36]
 1693              		.loc 1 670 0
 1694 0986 D06A     		ldr	r0, [r2, #44]
 1695 0988 2749     		ldr	r1, .L83+20
 1696 098a 0860     		str	r0, [r1]
 1697              		.loc 1 673 0
 1698 098c 2749     		ldr	r1, .L83+24
 1699 098e A1FB0041 		umull	r4, r1, r1, r0
 1700 0992 B3EBD10F 		cmp	r3, r1, lsr #3
ARM GAS  C:\Users\RAKIBU~1\AppData\Local\Temp\cc76R1kY.s 			page 31


 1701 0996 1ED2     		bcs	.L77
 1702              		.loc 1 676 0
 1703 0998 1F49     		ldr	r1, .L83+4
 1704 099a 4B60     		str	r3, [r1, #4]
 1705              		.loc 1 677 0
 1706 099c 1169     		ldr	r1, [r2, #16]
 1707 099e 11F0010F 		tst	r1, #1
 1708 09a2 0AD0     		beq	.L78
 1709              		.loc 1 680 0
 1710 09a4 2249     		ldr	r1, .L83+28
 1711 09a6 81FB0341 		smull	r4, r1, r1, r3
 1712 09aa DB17     		asrs	r3, r3, #31
 1713 09ac C3EB6101 		rsb	r1, r3, r1, asr #1
 1714 09b0 0B18     		adds	r3, r1, r0
 1715 09b2 0133     		adds	r3, r3, #1
 1716 09b4 D362     		str	r3, [r2, #44]
 1717              	.L75:
 1718              		.loc 1 708 0
 1719 09b6 10BC     		pop	{r4}
 1720              		.cfi_remember_state
 1721              		.cfi_restore 4
 1722              		.cfi_def_cfa_offset 0
 1723 09b8 7047     		bx	lr
 1724              	.L78:
 1725              		.cfi_restore_state
 1726              		.loc 1 684 0
 1727 09ba 1D4C     		ldr	r4, .L83+28
 1728 09bc 84FB0314 		smull	r1, r4, r4, r3
 1729 09c0 D917     		asrs	r1, r3, #31
 1730 09c2 C1EB6401 		rsb	r1, r1, r4, asr #1
 1731 09c6 0B18     		adds	r3, r1, r0
 1732 09c8 0133     		adds	r3, r3, #1
 1733 09ca D362     		str	r3, [r2, #44]
 1734              		.loc 1 685 0
 1735 09cc 1369     		ldr	r3, [r2, #16]
 1736 09ce 23F00103 		bic	r3, r3, #1
 1737 09d2 1361     		str	r3, [r2, #16]
 1738 09d4 EFE7     		b	.L75
 1739              	.L77:
 1740              		.loc 1 688 0
 1741 09d6 00EBC001 		add	r1, r0, r0, lsl #3
 1742 09da 144C     		ldr	r4, .L83+24
 1743 09dc A4FB0141 		umull	r4, r1, r4, r1
 1744 09e0 B3EBD10F 		cmp	r3, r1, lsr #3
 1745 09e4 E7D9     		bls	.L75
 1746              		.loc 1 691 0
 1747 09e6 C31A     		subs	r3, r0, r3
 1748 09e8 0B49     		ldr	r1, .L83+4
 1749 09ea 4B60     		str	r3, [r1, #4]
 1750              		.loc 1 696 0
 1751 09ec 1049     		ldr	r1, .L83+28
 1752 09ee 81FB0341 		smull	r4, r1, r1, r3
 1753 09f2 DB17     		asrs	r3, r3, #31
 1754 09f4 C3EB6103 		rsb	r3, r3, r1, asr #1
 1755 09f8 C31A     		subs	r3, r0, r3
 1756 09fa 013B     		subs	r3, r3, #1
 1757 09fc D362     		str	r3, [r2, #44]
ARM GAS  C:\Users\RAKIBU~1\AppData\Local\Temp\cc76R1kY.s 			page 32


 1758              		.loc 1 698 0
 1759 09fe 1369     		ldr	r3, [r2, #16]
 1760 0a00 13F0010F 		tst	r3, #1
 1761 0a04 D7D1     		bne	.L75
 1762              		.loc 1 700 0
 1763 0a06 0B4A     		ldr	r2, .L83+32
 1764 0a08 1388     		ldrh	r3, [r2]
 1765 0a0a 0133     		adds	r3, r3, #1
 1766 0a0c 9BB2     		uxth	r3, r3
 1767 0a0e 1380     		strh	r3, [r2]	@ movhi
 1768              		.loc 1 708 0
 1769 0a10 D1E7     		b	.L75
 1770              	.L80:
 1771              		.cfi_def_cfa_offset 0
 1772              		.cfi_restore 4
 1773 0a12 7047     		bx	lr
 1774              	.L84:
 1775              		.align	2
 1776              	.L83:
 1777 0a14 003C0140 		.word	1073822720
 1778 0a18 00000000 		.word	.LANCHOR2
 1779 0a1c 00100240 		.word	1073876992
 1780 0a20 00000000 		.word	GPTD5
 1781 0a24 00000000 		.word	gpt_cnt
 1782 0a28 00000000 		.word	gpt_last_target
 1783 0a2c CDCCCCCC 		.word	-858993459
 1784 0a30 67666666 		.word	1717986919
 1785 0a34 00000000 		.word	.LANCHOR0
 1786              		.cfi_endproc
 1787              	.LFE337:
 1788              		.size	Vector58, .-Vector58
 1789              		.align	1
 1790 0a38 AFF30080 		.p2align 4,,15
 1790      AFF30080 
 1791              		.global	VectorE0
 1792              		.syntax unified
 1793              		.thumb
 1794              		.thumb_func
 1795              		.fpu softvfp
 1796              		.type	VectorE0, %function
 1797              	VectorE0:
 1798              	.LFB339:
 1799              		.loc 1 795 0
 1800              		.cfi_startproc
 1801              		@ args = 0, pretend = 0, frame = 0
 1802              		@ frame_needed = 0, uses_anonymous_args = 0
 1803              		@ link register save eliminated.
 1804              		.loc 1 802 0
 1805 0a40 384B     		ldr	r3, .L93
 1806 0a42 5A69     		ldr	r2, [r3, #20]
 1807              	.LVL182:
 1808              		.loc 1 803 0
 1809 0a44 1968     		ldr	r1, [r3]
 1810 0a46 01F47C41 		and	r1, r1, #64512
 1811 0a4a 0A40     		ands	r2, r2, r1
 1812              	.LVL183:
 1813              		.loc 1 805 0
ARM GAS  C:\Users\RAKIBU~1\AppData\Local\Temp\cc76R1kY.s 			page 33


 1814 0a4c 5A61     		str	r2, [r3, #20]
 1815              		.loc 1 806 0
 1816 0a4e 0023     		movs	r3, #0
 1817 0a50 354A     		ldr	r2, .L93+4
 1818              	.LVL184:
 1819 0a52 1360     		str	r3, [r2]
 1820              	.LVL185:
 1821              		.loc 1 807 0
 1822 0a54 354A     		ldr	r2, .L93+8
 1823 0a56 1370     		strb	r3, [r2]
 1824              		.loc 1 808 0
 1825 0a58 354B     		ldr	r3, .L93+12
 1826 0a5a DB69     		ldr	r3, [r3, #28]
 1827 0a5c FF22     		movs	r2, #255
 1828 0a5e DA60     		str	r2, [r3, #12]
 1829              		.loc 1 809 0
 1830 0a60 344A     		ldr	r2, .L93+16
 1831 0a62 116E     		ldr	r1, [r2, #96]
 1832 0a64 0131     		adds	r1, r1, #1
 1833 0a66 344B     		ldr	r3, .L93+20
 1834 0a68 A3FB0103 		umull	r0, r3, r3, r1
 1835 0a6c 5B09     		lsrs	r3, r3, #5
 1836 0a6e 03EB8303 		add	r3, r3, r3, lsl #2
 1837 0a72 D800     		lsls	r0, r3, #3
 1838 0a74 0B1A     		subs	r3, r1, r0
 1839 0a76 1366     		str	r3, [r2, #96]
 1840              		.loc 1 810 0
 1841 0a78 304B     		ldr	r3, .L93+24
 1842 0a7a D968     		ldr	r1, [r3, #12]
 1843 0a7c 136E     		ldr	r3, [r2, #96]
 1844 0a7e 486A     		ldr	r0, [r1, #36]
 1845 0a80 1B01     		lsls	r3, r3, #4
 1846 0a82 2F49     		ldr	r1, .L93+28
 1847 0a84 C850     		str	r0, [r1, r3]
 1848              		.loc 1 812 0
 1849 0a86 516E     		ldr	r1, [r2, #100]
 1850 0a88 D36D     		ldr	r3, [r2, #92]
 1851 0a8a 9942     		cmp	r1, r3
 1852 0a8c 33D0     		beq	.L86
 1853              		.loc 1 814 0
 1854 0a8e 536E     		ldr	r3, [r2, #100]
 1855 0a90 0133     		adds	r3, r3, #1
 1856 0a92 D26D     		ldr	r2, [r2, #92]
 1857 0a94 9342     		cmp	r3, r2
 1858 0a96 03D0     		beq	.L87
 1859              		.loc 1 816 0
 1860 0a98 264A     		ldr	r2, .L93+16
 1861 0a9a 536E     		ldr	r3, [r2, #100]
 1862 0a9c 0133     		adds	r3, r3, #1
 1863 0a9e D365     		str	r3, [r2, #92]
 1864              	.L87:
 1865              		.loc 1 818 0
 1866 0aa0 244B     		ldr	r3, .L93+16
 1867 0aa2 DA6D     		ldr	r2, [r3, #92]
 1868 0aa4 5A66     		str	r2, [r3, #100]
 1869              		.loc 1 819 0
 1870 0aa6 1A6E     		ldr	r2, [r3, #96]
ARM GAS  C:\Users\RAKIBU~1\AppData\Local\Temp\cc76R1kY.s 			page 34


 1871 0aa8 254B     		ldr	r3, .L93+28
 1872 0aaa 03EB0213 		add	r3, r3, r2, lsl #4
 1873 0aae 0122     		movs	r2, #1
 1874 0ab0 1A73     		strb	r2, [r3, #12]
 1875              	.L88:
 1876              		.loc 1 827 0
 1877 0ab2 244B     		ldr	r3, .L93+32
 1878 0ab4 1A88     		ldrh	r2, [r3]
 1879 0ab6 92B2     		uxth	r2, r2
 1880 0ab8 1B8D     		ldrh	r3, [r3, #40]
 1881 0aba 9BB2     		uxth	r3, r3
 1882 0abc 9A42     		cmp	r2, r3
 1883 0abe 22D0     		beq	.L89
 1884              		.loc 1 836 0
 1885 0ac0 204B     		ldr	r3, .L93+32
 1886 0ac2 1A88     		ldrh	r2, [r3]
 1887 0ac4 92B2     		uxth	r2, r2
 1888 0ac6 1A85     		strh	r2, [r3, #40]	@ movhi
 1889              		.loc 1 837 0
 1890 0ac8 1A88     		ldrh	r2, [r3]
 1891 0aca 92B2     		uxth	r2, r2
 1892 0acc 194B     		ldr	r3, .L93+16
 1893 0ace 196E     		ldr	r1, [r3, #96]
 1894 0ad0 1B4B     		ldr	r3, .L93+28
 1895 0ad2 03EB0113 		add	r3, r3, r1, lsl #4
 1896 0ad6 9A60     		str	r2, [r3, #8]
 1897              	.L90:
 1898              		.loc 1 852 0
 1899 0ad8 1649     		ldr	r1, .L93+16
 1900 0ada 0A6E     		ldr	r2, [r1, #96]
 1901 0adc 0132     		adds	r2, r2, #1
 1902 0ade 164B     		ldr	r3, .L93+20
 1903 0ae0 A3FB0203 		umull	r0, r3, r3, r2
 1904 0ae4 5B09     		lsrs	r3, r3, #5
 1905 0ae6 03EB8303 		add	r3, r3, r3, lsl #2
 1906 0aea D800     		lsls	r0, r3, #3
 1907 0aec 131A     		subs	r3, r2, r0
 1908 0aee 8A6E     		ldr	r2, [r1, #104]
 1909 0af0 9342     		cmp	r3, r2
 1910 0af2 10D0     		beq	.L92
 1911              	.L85:
 1912              		.loc 1 858 0
 1913 0af4 7047     		bx	lr
 1914              	.L86:
 1915              		.loc 1 823 0
 1916 0af6 0F4B     		ldr	r3, .L93+16
 1917 0af8 1A6E     		ldr	r2, [r3, #96]
 1918 0afa 114B     		ldr	r3, .L93+28
 1919 0afc 03EB0213 		add	r3, r3, r2, lsl #4
 1920 0b00 0022     		movs	r2, #0
 1921 0b02 1A73     		strb	r2, [r3, #12]
 1922 0b04 D5E7     		b	.L88
 1923              	.L89:
 1924              		.loc 1 848 0
 1925 0b06 0B4B     		ldr	r3, .L93+16
 1926 0b08 1A6E     		ldr	r2, [r3, #96]
 1927 0b0a 0D4B     		ldr	r3, .L93+28
ARM GAS  C:\Users\RAKIBU~1\AppData\Local\Temp\cc76R1kY.s 			page 35


 1928 0b0c 03EB0213 		add	r3, r3, r2, lsl #4
 1929 0b10 0022     		movs	r2, #0
 1930 0b12 9A60     		str	r2, [r3, #8]
 1931 0b14 E0E7     		b	.L90
 1932              	.L92:
 1933              		.loc 1 854 0
 1934 0b16 B1F86C30 		ldrh	r3, [r1, #108]
 1935 0b1a 0133     		adds	r3, r3, #1
 1936 0b1c 9BB2     		uxth	r3, r3
 1937 0b1e A1F86C30 		strh	r3, [r1, #108]	@ movhi
 1938              		.loc 1 858 0
 1939 0b22 E7E7     		b	.L85
 1940              	.L94:
 1941              		.align	2
 1942              	.L93:
 1943 0b24 003C0140 		.word	1073822720
 1944 0b28 00000000 		.word	tmp_data_value
 1945 0b2c 00000000 		.word	byte_index
 1946 0b30 00000000 		.word	SPID1
 1947 0b34 00000000 		.word	.LANCHOR2
 1948 0b38 CDCCCCCC 		.word	-858993459
 1949 0b3c 00000000 		.word	GPTD5
 1950 0b40 00000000 		.word	raw_sample_buffer
 1951 0b44 00000000 		.word	.LANCHOR0
 1952              		.cfi_endproc
 1953              	.LFE339:
 1954              		.size	VectorE0, .-VectorE0
 1955              		.global	__aeabi_ldivmod
 1956              		.align	1
 1957 0b48 AFF30080 		.p2align 4,,15
 1957      AFF30080 
 1958              		.global	PendSV_Handler
 1959              		.syntax unified
 1960              		.thumb
 1961              		.thumb_func
 1962              		.fpu softvfp
 1963              		.type	PendSV_Handler, %function
 1964              	PendSV_Handler:
 1965              	.LFB340:
 1966              		.loc 1 893 0
 1967              		.cfi_startproc
 1968              		@ args = 0, pretend = 0, frame = 0
 1969              		@ frame_needed = 0, uses_anonymous_args = 0
 1970 0b50 2DE9F84F 		push	{r3, r4, r5, r6, r7, r8, r9, r10, fp, lr}
 1971              		.cfi_def_cfa_offset 40
 1972              		.cfi_offset 3, -40
 1973              		.cfi_offset 4, -36
 1974              		.cfi_offset 5, -32
 1975              		.cfi_offset 6, -28
 1976              		.cfi_offset 7, -24
 1977              		.cfi_offset 8, -20
 1978              		.cfi_offset 9, -16
 1979              		.cfi_offset 10, -12
 1980              		.cfi_offset 11, -8
 1981              		.cfi_offset 14, -4
 1982              		.loc 1 895 0
 1983 0b54 FFF7FEFF 		bl	_stats_increase_irq
ARM GAS  C:\Users\RAKIBU~1\AppData\Local\Temp\cc76R1kY.s 			page 36


 1984              	.LVL186:
 1985 0b58 0A48     		ldr	r0, .L126
 1986 0b5a FFF7FEFF 		bl	_trace_isr_enter
 1987              	.LVL187:
 1988 0b5e FFF7FEFF 		bl	_dbg_check_enter_isr
 1989              	.LVL188:
 1990              		.loc 1 897 0
 1991 0b62 094B     		ldr	r3, .L126+4
 1992 0b64 DB68     		ldr	r3, [r3, #12]
 1993 0b66 DE6A     		ldr	r6, [r3, #44]
 1994 0b68 0136     		adds	r6, r6, #1
 1995              	.LVL189:
 1996              		.loc 1 901 0
 1997 0b6a 084B     		ldr	r3, .L126+8
 1998 0b6c 9B6E     		ldr	r3, [r3, #104]
 1999 0b6e 1433     		adds	r3, r3, #20
 2000 0b70 074F     		ldr	r7, .L126+12
 2001 0b72 A7FB0327 		umull	r2, r7, r7, r3
 2002 0b76 7F09     		lsrs	r7, r7, #5
 2003 0b78 07EB8707 		add	r7, r7, r7, lsl #2
 2004 0b7c FA00     		lsls	r2, r7, #3
 2005 0b7e 9F1A     		subs	r7, r3, r2
 2006              	.LVL190:
 2007              		.loc 1 902 0
 2008 0b80 3DE1     		b	.L96
 2009              	.L127:
 2010 0b82 00BF     		.align	2
 2011              	.L126:
 2012 0b84 38000000 		.word	.LANCHOR1+56
 2013 0b88 00000000 		.word	GPTD5
 2014 0b8c 00000000 		.word	.LANCHOR2
 2015 0b90 CDCCCCCC 		.word	-858993459
 2016              	.LVL191:
 2017              	.L100:
 2018              	.LBB225:
 2019              	.LBB226:
 2020              		.loc 1 929 0 discriminator 3
 2021 0b94 6218     		adds	r2, r4, r1
 2022 0b96 C248     		ldr	r0, .L128
 2023 0b98 80FB0230 		smull	r3, r0, r0, r2
 2024 0b9c D317     		asrs	r3, r2, #31
 2025 0b9e C3EBE003 		rsb	r3, r3, r0, asr #3
 2026 0ba2 03EB8303 		add	r3, r3, r3, lsl #2
 2027 0ba6 9800     		lsls	r0, r3, #2
 2028 0ba8 131A     		subs	r3, r2, r0
 2029 0baa BE4A     		ldr	r2, .L128+4
 2030 0bac 52F82320 		ldr	r2, [r2, r3, lsl #2]
 2031 0bb0 4FEAE279 		asr	r9, r2, #31
 2032 0bb4 BC4B     		ldr	r3, .L128+8
 2033 0bb6 03EB8103 		add	r3, r3, r1, lsl #2
 2034 0bba 9B6C     		ldr	r3, [r3, #72]
 2035 0bbc 4FEAE37B 		asr	fp, r3, #31
 2036 0bc0 02FB0BF0 		mul	r0, r2, fp
 2037 0bc4 03FB0900 		mla	r0, r3, r9, r0
 2038 0bc8 A2FB03AB 		umull	r10, fp, r2, r3
 2039 0bcc 8344     		add	fp, fp, r0
 2040 0bce B748     		ldr	r0, .L128+12
ARM GAS  C:\Users\RAKIBU~1\AppData\Local\Temp\cc76R1kY.s 			page 37


 2041 0bd0 D0E90089 		ldrd	r8, [r0]
 2042 0bd4 1AEB0802 		adds	r2, r10, r8
 2043 0bd8 4BEB0903 		adc	r3, fp, r9
 2044 0bdc C0E90023 		strd	r2, [r0]
 2045              		.loc 1 927 0 discriminator 3
 2046 0be0 0131     		adds	r1, r1, #1
 2047              	.LVL192:
 2048              	.L99:
 2049              		.loc 1 927 0 is_stmt 0 discriminator 1
 2050 0be2 1329     		cmp	r1, #19
 2051 0be4 D6DD     		ble	.L100
 2052              	.LBE226:
 2053              		.loc 1 934 0 is_stmt 1
 2054 0be6 B14D     		ldr	r5, .L128+12
 2055 0be8 B14A     		ldr	r2, .L128+16
 2056 0bea 0023     		movs	r3, #0
 2057 0bec D5E90001 		ldrd	r0, [r5]
 2058 0bf0 FFF7FEFF 		bl	__aeabi_ldivmod
 2059              	.LVL193:
 2060 0bf4 C5E90001 		strd	r0, [r5]
 2061              		.loc 1 937 0
 2062 0bf8 0A34     		adds	r4, r4, #10
 2063 0bfa A94B     		ldr	r3, .L128
 2064 0bfc 83FB0423 		smull	r2, r3, r3, r4
 2065 0c00 DB10     		asrs	r3, r3, #3
 2066 0c02 03EB8303 		add	r3, r3, r3, lsl #2
 2067 0c06 9A00     		lsls	r2, r3, #2
 2068 0c08 A31A     		subs	r3, r4, r2
 2069 0c0a AA4A     		ldr	r2, .L128+20
 2070 0c0c 52F82340 		ldr	r4, [r2, r3, lsl #2]
 2071 0c10 E517     		asrs	r5, r4, #31
 2072              	.LVL194:
 2073              		.loc 1 940 0
 2074 0c12 A94A     		ldr	r2, .L128+24
 2075 0c14 D35C     		ldrb	r3, [r2, r3]	@ zero_extendqisi2
 2076 0c16 ABB3     		cbz	r3, .L101
 2077              		.loc 1 943 0
 2078 0c18 A84B     		ldr	r3, .L128+28
 2079 0c1a 9A69     		ldr	r2, [r3, #24]
 2080 0c1c A849     		ldr	r1, .L128+32
 2081 0c1e C86A     		ldr	r0, [r1, #44]
 2082 0c20 1118     		adds	r1, r2, r0
 2083 0c22 D3F810C0 		ldr	ip, [r3, #16]
 2084 0c26 B1FBFCF2 		udiv	r2, r1, ip
 2085 0c2a 0CFB1212 		mls	r2, ip, r2, r1
 2086 0c2e 0832     		adds	r2, r2, #8
 2087 0c30 03EB8203 		add	r3, r3, r2, lsl #2
 2088 0c34 5B68     		ldr	r3, [r3, #4]
 2089 0c36 03F07F43 		and	r3, r3, #-16777216
 2090 0c3a B3F1034F 		cmp	r3, #-2097152000
 2091 0c3e 00F05381 		beq	.L119
 2092              		.loc 1 949 0
 2093 0c42 9E4B     		ldr	r3, .L128+28
 2094 0c44 9A69     		ldr	r2, [r3, #24]
 2095 0c46 1044     		add	r0, r0, r2
 2096 0c48 1969     		ldr	r1, [r3, #16]
 2097 0c4a B0FBF1F2 		udiv	r2, r0, r1
ARM GAS  C:\Users\RAKIBU~1\AppData\Local\Temp\cc76R1kY.s 			page 38


 2098 0c4e 01FB1200 		mls	r0, r1, r2, r0
 2099 0c52 00F10802 		add	r2, r0, #8
 2100 0c56 03EB8203 		add	r3, r3, r2, lsl #2
 2101 0c5a 4FF00242 		mov	r2, #-2113929216
 2102 0c5e 5A60     		str	r2, [r3, #4]
 2103              	.L103:
 2104              	.LVL195:
 2105              	.LBB227:
 2106              	.LBB228:
 2107              	.LBB229:
 2108              	.LBB230:
 2109              	.LBB231:
 2110              	.LBB232:
 2111              		.loc 3 493 0
 2112 0c60 2023     		movs	r3, #32
 2113              		.syntax unified
 2114              	@ 493 "../../../ChibiOSRepo/chibios191/os/common/ext/ARM/CMSIS/Core/Include/cmsis_gcc.h" 1
 2115 0c62 83F31188 		MSR basepri, r3
 2116              	@ 0 "" 2
 2117              	.LVL196:
 2118              		.thumb
 2119              		.syntax unified
 2120              	.LBE232:
 2121              	.LBE231:
 2122              	.LBE230:
 2123              	.LBE229:
 2124              		.loc 2 396 0
 2125 0c66 FFF7FEFF 		bl	_stats_start_measure_crit_isr
 2126              	.LVL197:
 2127              		.loc 2 397 0
 2128 0c6a FFF7FEFF 		bl	_dbg_check_lock_from_isr
 2129              	.LVL198:
 2130              	.LBE228:
 2131              	.LBE227:
 2132              		.loc 1 954 0
 2133 0c6e 0121     		movs	r1, #1
 2134 0c70 9448     		ldr	r0, .L128+36
 2135 0c72 FFF7FEFF 		bl	chEvtBroadcastFlagsI
 2136              	.LVL199:
 2137              	.LBB233:
 2138              	.LBB234:
 2139              		.loc 2 415 0
 2140 0c76 FFF7FEFF 		bl	_dbg_check_unlock_from_isr
 2141              	.LVL200:
 2142              		.loc 2 416 0
 2143 0c7a FFF7FEFF 		bl	_stats_stop_measure_crit_isr
 2144              	.LVL201:
 2145              	.LBB235:
 2146              	.LBB236:
 2147              	.LBB237:
 2148              	.LBB238:
 2149              		.loc 3 493 0
 2150 0c7e 0023     		movs	r3, #0
 2151              		.syntax unified
 2152              	@ 493 "../../../ChibiOSRepo/chibios191/os/common/ext/ARM/CMSIS/Core/Include/cmsis_gcc.h" 1
 2153 0c80 83F31188 		MSR basepri, r3
 2154              	@ 0 "" 2
ARM GAS  C:\Users\RAKIBU~1\AppData\Local\Temp\cc76R1kY.s 			page 39


 2155              	.LVL202:
 2156              		.thumb
 2157              		.syntax unified
 2158              	.L101:
 2159              	.LBE238:
 2160              	.LBE237:
 2161              	.LBE236:
 2162              	.LBE235:
 2163              	.LBE234:
 2164              	.LBE233:
 2165              		.loc 1 958 0
 2166 0c84 904B     		ldr	r3, .L128+40
 2167 0c86 B3F86E20 		ldrh	r2, [r3, #110]
 2168 0c8a 0A32     		adds	r2, r2, #10
 2169 0c8c 844B     		ldr	r3, .L128
 2170 0c8e 83FB0213 		smull	r1, r3, r3, r2
 2171 0c92 DB10     		asrs	r3, r3, #3
 2172 0c94 03EB8303 		add	r3, r3, r3, lsl #2
 2173 0c98 9900     		lsls	r1, r3, #2
 2174 0c9a 531A     		subs	r3, r2, r1
 2175 0c9c 8B4A     		ldr	r2, .L128+44
 2176 0c9e 52F82320 		ldr	r2, [r2, r3, lsl #2]
 2177 0ca2 002A     		cmp	r2, #0
 2178 0ca4 63D0     		beq	.L104
 2179              		.loc 1 962 0
 2180 0ca6 854A     		ldr	r2, .L128+28
 2181 0ca8 9169     		ldr	r1, [r2, #24]
 2182 0caa 8548     		ldr	r0, .L128+32
 2183 0cac C06A     		ldr	r0, [r0, #44]
 2184 0cae 01EB000C 		add	ip, r1, r0
 2185 0cb2 D2F810E0 		ldr	lr, [r2, #16]
 2186 0cb6 BCFBFEF1 		udiv	r1, ip, lr
 2187 0cba 0EFB11C1 		mls	r1, lr, r1, ip
 2188 0cbe 0831     		adds	r1, r1, #8
 2189 0cc0 02EB8102 		add	r2, r2, r1, lsl #2
 2190 0cc4 5268     		ldr	r2, [r2, #4]
 2191 0cc6 B2F1024F 		cmp	r2, #-2113929216
 2192 0cca 00F01D81 		beq	.L120
 2193              		.loc 1 973 0
 2194 0cce 7B4A     		ldr	r2, .L128+28
 2195 0cd0 9169     		ldr	r1, [r2, #24]
 2196 0cd2 00EB010C 		add	ip, r0, r1
 2197 0cd6 D2F810E0 		ldr	lr, [r2, #16]
 2198 0cda BCFBFEF1 		udiv	r1, ip, lr
 2199 0cde 0EFB11C1 		mls	r1, lr, r1, ip
 2200 0ce2 0831     		adds	r1, r1, #8
 2201 0ce4 02EB8102 		add	r2, r2, r1, lsl #2
 2202 0ce8 5268     		ldr	r2, [r2, #4]
 2203 0cea 02F07F42 		and	r2, r2, #-16777216
 2204 0cee B2F1034F 		cmp	r2, #-2097152000
 2205 0cf2 00F04481 		beq	.L121
 2206              		.loc 1 979 0
 2207 0cf6 754A     		ldr	r2, .L128+44
 2208 0cf8 52F823C0 		ldr	ip, [r2, r3, lsl #2]
 2209 0cfc 6F4A     		ldr	r2, .L128+28
 2210 0cfe 9169     		ldr	r1, [r2, #24]
 2211 0d00 0844     		add	r0, r0, r1
ARM GAS  C:\Users\RAKIBU~1\AppData\Local\Temp\cc76R1kY.s 			page 40


 2212 0d02 D2F810E0 		ldr	lr, [r2, #16]
 2213 0d06 B0FBFEF1 		udiv	r1, r0, lr
 2214 0d0a 0EFB1100 		mls	r0, lr, r1, r0
 2215 0d0e 0CF1034C 		add	ip, ip, #-2097152000
 2216 0d12 00F10801 		add	r1, r0, #8
 2217 0d16 02EB8102 		add	r2, r2, r1, lsl #2
 2218 0d1a C2F804C0 		str	ip, [r2, #4]
 2219              	.L107:
 2220              		.loc 1 982 0
 2221 0d1e 6B4A     		ldr	r2, .L128+44
 2222 0d20 52F82310 		ldr	r1, [r2, r3, lsl #2]
 2223 0d24 684A     		ldr	r2, .L128+40
 2224 0d26 926F     		ldr	r2, [r2, #120]
 2225 0d28 0132     		adds	r2, r2, #1
 2226 0d2a 9142     		cmp	r1, r2
 2227 0d2c 03D0     		beq	.L109
 2228              		.loc 1 984 0
 2229 0d2e 6649     		ldr	r1, .L128+40
 2230 0d30 CA6F     		ldr	r2, [r1, #124]
 2231 0d32 0132     		adds	r2, r2, #1
 2232 0d34 CA67     		str	r2, [r1, #124]
 2233              	.L109:
 2234              		.loc 1 986 0
 2235 0d36 654A     		ldr	r2, .L128+44
 2236 0d38 52F82300 		ldr	r0, [r2, r3, lsl #2]
 2237 0d3c 6249     		ldr	r1, .L128+40
 2238 0d3e 8867     		str	r0, [r1, #120]
 2239              		.loc 1 988 0
 2240 0d40 52F82330 		ldr	r3, [r2, r3, lsl #2]
 2241 0d44 9BB2     		uxth	r3, r3
 2242 0d46 5E4A     		ldr	r2, .L128+32
 2243 0d48 1385     		strh	r3, [r2, #40]	@ movhi
 2244              	.LVL203:
 2245              	.LBB239:
 2246              	.LBB240:
 2247              	.LBB241:
 2248              	.LBB242:
 2249              	.LBB243:
 2250              	.LBB244:
 2251              		.loc 3 493 0
 2252 0d4a 2023     		movs	r3, #32
 2253              		.syntax unified
 2254              	@ 493 "../../../ChibiOSRepo/chibios191/os/common/ext/ARM/CMSIS/Core/Include/cmsis_gcc.h" 1
 2255 0d4c 83F31188 		MSR basepri, r3
 2256              	@ 0 "" 2
 2257              	.LVL204:
 2258              		.thumb
 2259              		.syntax unified
 2260              	.LBE244:
 2261              	.LBE243:
 2262              	.LBE242:
 2263              	.LBE241:
 2264              		.loc 2 396 0
 2265 0d50 FFF7FEFF 		bl	_stats_start_measure_crit_isr
 2266              	.LVL205:
 2267              		.loc 2 397 0
 2268 0d54 FFF7FEFF 		bl	_dbg_check_lock_from_isr
ARM GAS  C:\Users\RAKIBU~1\AppData\Local\Temp\cc76R1kY.s 			page 41


 2269              	.LVL206:
 2270              	.LBE240:
 2271              	.LBE239:
 2272              		.loc 1 994 0
 2273 0d58 0221     		movs	r1, #2
 2274 0d5a 5D48     		ldr	r0, .L128+48
 2275 0d5c FFF7FEFF 		bl	chEvtBroadcastFlagsI
 2276              	.LVL207:
 2277              	.LBB245:
 2278              	.LBB246:
 2279              		.loc 2 415 0
 2280 0d60 FFF7FEFF 		bl	_dbg_check_unlock_from_isr
 2281              	.LVL208:
 2282              		.loc 2 416 0
 2283 0d64 FFF7FEFF 		bl	_stats_stop_measure_crit_isr
 2284              	.LVL209:
 2285              	.LBB247:
 2286              	.LBB248:
 2287              	.LBB249:
 2288              	.LBB250:
 2289              		.loc 3 493 0
 2290 0d68 0023     		movs	r3, #0
 2291              		.syntax unified
 2292              	@ 493 "../../../ChibiOSRepo/chibios191/os/common/ext/ARM/CMSIS/Core/Include/cmsis_gcc.h" 1
 2293 0d6a 83F31188 		MSR basepri, r3
 2294              	@ 0 "" 2
 2295              	.LVL210:
 2296              		.thumb
 2297              		.syntax unified
 2298              	.L104:
 2299              	.LBE250:
 2300              	.LBE249:
 2301              	.LBE248:
 2302              	.LBE247:
 2303              	.LBE246:
 2304              	.LBE245:
 2305              		.loc 1 998 0
 2306 0d6e 594A     		ldr	r2, .L128+52
 2307 0d70 A2FB0632 		umull	r3, r2, r2, r6
 2308 0d74 120B     		lsrs	r2, r2, #12
 2309 0d76 0023     		movs	r3, #0
 2310 0d78 AB42     		cmp	r3, r5
 2311 0d7a 08BF     		it	eq
 2312 0d7c A242     		cmpeq	r2, r4
 2313 0d7e 06D3     		bcc	.L110
 2314              		.loc 1 1000 0
 2315 0d80 514B     		ldr	r3, .L128+40
 2316 0d82 0022     		movs	r2, #0
 2317 0d84 C3F88020 		str	r2, [r3, #128]
 2318              		.loc 1 1002 0
 2319 0d88 A419     		adds	r4, r4, r6
 2320              	.LVL211:
 2321 0d8a 45F10005 		adc	r5, r5, #0
 2322              	.LVL212:
 2323              	.L110:
 2324              		.loc 1 1005 0
 2325 0d8e 4E4B     		ldr	r3, .L128+40
ARM GAS  C:\Users\RAKIBU~1\AppData\Local\Temp\cc76R1kY.s 			page 42


 2326 0d90 D3F88000 		ldr	r0, [r3, #128]
 2327 0d94 B046     		mov	r8, r6
 2328 0d96 4FF00009 		mov	r9, #0
 2329 0d9a 4FF49642 		mov	r2, #19200
 2330 0d9e 0023     		movs	r3, #0
 2331 0da0 A0FB0601 		umull	r0, r1, r0, r6
 2332 0da4 FFF7FEFF 		bl	__aeabi_uldivmod
 2333              	.LVL213:
 2334              		.loc 1 1009 0
 2335 0da8 4D45     		cmp	r5, r9
 2336 0daa 08BF     		it	eq
 2337 0dac B442     		cmpeq	r4, r6
 2338 0dae 02D3     		bcc	.L111
 2339              		.loc 1 1011 0
 2340 0db0 8019     		adds	r0, r0, r6
 2341              	.LVL214:
 2342 0db2 41EB0901 		adc	r1, r1, r9
 2343              	.LVL215:
 2344              	.L111:
 2345              		.loc 1 1015 0
 2346 0db6 A942     		cmp	r1, r5
 2347 0db8 08BF     		it	eq
 2348 0dba A042     		cmpeq	r0, r4
 2349 0dbc 06D2     		bcs	.L112
 2350              		.loc 1 1019 0
 2351 0dbe 424B     		ldr	r3, .L128+40
 2352 0dc0 B3F86E30 		ldrh	r3, [r3, #110]
 2353 0dc4 13F0010F 		tst	r3, #1
 2354 0dc8 00F0ED80 		beq	.L122
 2355              	.LVL216:
 2356              	.L112:
 2357              		.loc 1 1051 0
 2358 0dcc DFF8F8A0 		ldr	r10, .L128+40
 2359 0dd0 CAE92245 		strd	r4, [r10, #136]
 2360              		.loc 1 1052 0
 2361 0dd4 4246     		mov	r2, r8
 2362 0dd6 4B46     		mov	r3, r9
 2363 0dd8 2046     		mov	r0, r4
 2364 0dda 2946     		mov	r1, r5
 2365 0ddc FFF7FEFF 		bl	__aeabi_uldivmod
 2366              	.LVL217:
 2367 0de0 CAE92423 		strd	r2, [r10, #144]
 2368              		.loc 1 1053 0
 2369 0de4 BAF86E20 		ldrh	r2, [r10, #110]
 2370 0de8 0132     		adds	r2, r2, #1
 2371 0dea 2D4B     		ldr	r3, .L128
 2372 0dec 83FB0213 		smull	r1, r3, r3, r2
 2373 0df0 DB10     		asrs	r3, r3, #3
 2374 0df2 03EB8303 		add	r3, r3, r3, lsl #2
 2375 0df6 9900     		lsls	r1, r3, #2
 2376 0df8 531A     		subs	r3, r2, r1
 2377 0dfa AAF86E30 		strh	r3, [r10, #110]	@ movhi
 2378              	.LVL218:
 2379              	.L96:
 2380              	.LBE225:
 2381              		.loc 1 902 0
 2382 0dfe 324B     		ldr	r3, .L128+40
ARM GAS  C:\Users\RAKIBU~1\AppData\Local\Temp\cc76R1kY.s 			page 43


 2383 0e00 9A6E     		ldr	r2, [r3, #104]
 2384 0e02 FBB2     		uxtb	r3, r7
 2385 0e04 9A42     		cmp	r2, r3
 2386 0e06 00F02C81 		beq	.L123
 2387              	.LBB252:
 2388              		.loc 1 905 0
 2389 0e0a 2F4A     		ldr	r2, .L128+40
 2390 0e0c 916E     		ldr	r1, [r2, #104]
 2391 0e0e B2F86E40 		ldrh	r4, [r2, #110]
 2392 0e12 314B     		ldr	r3, .L128+56
 2393 0e14 03EB0111 		add	r1, r3, r1, lsl #4
 2394 0e18 4868     		ldr	r0, [r1, #4]
 2395 0e1a 2249     		ldr	r1, .L128+4
 2396 0e1c 41F82400 		str	r0, [r1, r4, lsl #2]
 2397              		.loc 1 906 0
 2398 0e20 916E     		ldr	r1, [r2, #104]
 2399 0e22 0901     		lsls	r1, r1, #4
 2400 0e24 5858     		ldr	r0, [r3, r1]
 2401 0e26 2349     		ldr	r1, .L128+20
 2402 0e28 41F82400 		str	r0, [r1, r4, lsl #2]
 2403              		.loc 1 907 0
 2404 0e2c 916E     		ldr	r1, [r2, #104]
 2405 0e2e 03EB0111 		add	r1, r3, r1, lsl #4
 2406 0e32 8868     		ldr	r0, [r1, #8]
 2407 0e34 2549     		ldr	r1, .L128+44
 2408 0e36 41F82400 		str	r0, [r1, r4, lsl #2]
 2409              		.loc 1 908 0
 2410 0e3a 916E     		ldr	r1, [r2, #104]
 2411 0e3c 03EB0111 		add	r1, r3, r1, lsl #4
 2412 0e40 097B     		ldrb	r1, [r1, #12]	@ zero_extendqisi2
 2413 0e42 C9B2     		uxtb	r1, r1
 2414 0e44 1C48     		ldr	r0, .L128+24
 2415 0e46 0155     		strb	r1, [r0, r4]
 2416              		.loc 1 911 0
 2417 0e48 916E     		ldr	r1, [r2, #104]
 2418 0e4a 03EB0113 		add	r3, r3, r1, lsl #4
 2419 0e4e 5968     		ldr	r1, [r3, #4]
 2420 0e50 136F     		ldr	r3, [r2, #112]
 2421 0e52 9942     		cmp	r1, r3
 2422 0e54 05DA     		bge	.L97
 2423              		.loc 1 913 0
 2424 0e56 916E     		ldr	r1, [r2, #104]
 2425 0e58 1F4B     		ldr	r3, .L128+56
 2426 0e5a 03EB0113 		add	r3, r3, r1, lsl #4
 2427 0e5e 5B68     		ldr	r3, [r3, #4]
 2428 0e60 1367     		str	r3, [r2, #112]
 2429              	.L97:
 2430              		.loc 1 915 0
 2431 0e62 194A     		ldr	r2, .L128+40
 2432 0e64 916E     		ldr	r1, [r2, #104]
 2433 0e66 1C4B     		ldr	r3, .L128+56
 2434 0e68 03EB0113 		add	r3, r3, r1, lsl #4
 2435 0e6c 5968     		ldr	r1, [r3, #4]
 2436 0e6e 536F     		ldr	r3, [r2, #116]
 2437 0e70 9942     		cmp	r1, r3
 2438 0e72 05DD     		ble	.L98
 2439              		.loc 1 917 0
ARM GAS  C:\Users\RAKIBU~1\AppData\Local\Temp\cc76R1kY.s 			page 44


 2440 0e74 916E     		ldr	r1, [r2, #104]
 2441 0e76 184B     		ldr	r3, .L128+56
 2442 0e78 03EB0113 		add	r3, r3, r1, lsl #4
 2443 0e7c 5B68     		ldr	r3, [r3, #4]
 2444 0e7e 5367     		str	r3, [r2, #116]
 2445              	.L98:
 2446              		.loc 1 920 0
 2447 0e80 1149     		ldr	r1, .L128+40
 2448 0e82 8A6E     		ldr	r2, [r1, #104]
 2449 0e84 0132     		adds	r2, r2, #1
 2450 0e86 154B     		ldr	r3, .L128+60
 2451 0e88 A3FB0203 		umull	r0, r3, r3, r2
 2452 0e8c 5B09     		lsrs	r3, r3, #5
 2453 0e8e 03EB8303 		add	r3, r3, r3, lsl #2
 2454 0e92 D800     		lsls	r0, r3, #3
 2455 0e94 131A     		subs	r3, r2, r0
 2456 0e96 8B66     		str	r3, [r1, #104]
 2457              		.loc 1 923 0
 2458 0e98 044B     		ldr	r3, .L128+12
 2459 0e9a 0020     		movs	r0, #0
 2460 0e9c 0021     		movs	r1, #0
 2461 0e9e 1FE0     		b	.L129
 2462              	.L130:
 2463              		.align	2
 2464              	.L128:
 2465 0ea0 67666666 		.word	1717986919
 2466 0ea4 00000000 		.word	fir_adc_buffer
 2467 0ea8 00000000 		.word	.LANCHOR1
 2468 0eac 00000000 		.word	fir_adcValue
 2469 0eb0 484C0F00 		.word	1002568
 2470 0eb4 00000000 		.word	fir_cnt_buffer
 2471 0eb8 00000000 		.word	fir_pps_buffer
 2472 0ebc 00000000 		.word	adcBuffer
 2473 0ec0 00000000 		.word	.LANCHOR0
 2474 0ec4 00000000 		.word	evtPPS
 2475 0ec8 00000000 		.word	.LANCHOR2
 2476 0ecc 00000000 		.word	fir_sindex_buffer
 2477 0ed0 00000000 		.word	evtSindex
 2478 0ed4 B5814E1B 		.word	458129845
 2479 0ed8 00000000 		.word	raw_sample_buffer
 2480 0edc CDCCCCCC 		.word	-858993459
 2481              	.L129:
 2482 0ee0 C3E90001 		strd	r0, [r3]
 2483              	.LVL219:
 2484              	.LBB251:
 2485              		.loc 1 927 0
 2486 0ee4 0021     		movs	r1, #0
 2487 0ee6 7CE6     		b	.L99
 2488              	.LVL220:
 2489              	.L119:
 2490              	.LBE251:
 2491              		.loc 1 945 0
 2492 0ee8 624A     		ldr	r2, .L131
 2493 0eea 9369     		ldr	r3, [r2, #24]
 2494 0eec 0344     		add	r3, r3, r0
 2495 0eee 0133     		adds	r3, r3, #1
 2496 0ef0 1069     		ldr	r0, [r2, #16]
ARM GAS  C:\Users\RAKIBU~1\AppData\Local\Temp\cc76R1kY.s 			page 45


 2497 0ef2 B3FBF0F1 		udiv	r1, r3, r0
 2498 0ef6 00FB1133 		mls	r3, r0, r1, r3
 2499 0efa 0833     		adds	r3, r3, #8
 2500 0efc 02EB8302 		add	r2, r2, r3, lsl #2
 2501 0f00 4FF00243 		mov	r3, #-2113929216
 2502 0f04 5360     		str	r3, [r2, #4]
 2503 0f06 ABE6     		b	.L103
 2504              	.L120:
 2505              		.loc 1 964 0
 2506 0f08 5A49     		ldr	r1, .L131
 2507 0f0a 8A69     		ldr	r2, [r1, #24]
 2508 0f0c 0244     		add	r2, r2, r0
 2509 0f0e 0132     		adds	r2, r2, #1
 2510 0f10 D1F810E0 		ldr	lr, [r1, #16]
 2511 0f14 B2FBFEFC 		udiv	ip, r2, lr
 2512 0f18 0EFB1C22 		mls	r2, lr, ip, r2
 2513 0f1c 0832     		adds	r2, r2, #8
 2514 0f1e 01EB8201 		add	r1, r1, r2, lsl #2
 2515 0f22 4A68     		ldr	r2, [r1, #4]
 2516 0f24 02F07F42 		and	r2, r2, #-16777216
 2517 0f28 B2F1034F 		cmp	r2, #-2097152000
 2518 0f2c 13D0     		beq	.L124
 2519              		.loc 1 970 0
 2520 0f2e 524A     		ldr	r2, .L131+4
 2521 0f30 52F823C0 		ldr	ip, [r2, r3, lsl #2]
 2522 0f34 4F49     		ldr	r1, .L131
 2523 0f36 8A69     		ldr	r2, [r1, #24]
 2524 0f38 0244     		add	r2, r2, r0
 2525 0f3a 0132     		adds	r2, r2, #1
 2526 0f3c D1F810E0 		ldr	lr, [r1, #16]
 2527 0f40 B2FBFEF0 		udiv	r0, r2, lr
 2528 0f44 0EFB1022 		mls	r2, lr, r0, r2
 2529 0f48 0CF10340 		add	r0, ip, #-2097152000
 2530 0f4c 0832     		adds	r2, r2, #8
 2531 0f4e 01EB8201 		add	r1, r1, r2, lsl #2
 2532 0f52 4860     		str	r0, [r1, #4]
 2533 0f54 E3E6     		b	.L107
 2534              	.L124:
 2535              		.loc 1 966 0
 2536 0f56 484A     		ldr	r2, .L131+4
 2537 0f58 52F823C0 		ldr	ip, [r2, r3, lsl #2]
 2538 0f5c 4549     		ldr	r1, .L131
 2539 0f5e 8A69     		ldr	r2, [r1, #24]
 2540 0f60 0244     		add	r2, r2, r0
 2541 0f62 0232     		adds	r2, r2, #2
 2542 0f64 D1F810E0 		ldr	lr, [r1, #16]
 2543 0f68 B2FBFEF0 		udiv	r0, r2, lr
 2544 0f6c 0EFB1022 		mls	r2, lr, r0, r2
 2545 0f70 0CF10340 		add	r0, ip, #-2097152000
 2546 0f74 0832     		adds	r2, r2, #8
 2547 0f76 01EB8201 		add	r1, r1, r2, lsl #2
 2548 0f7a 4860     		str	r0, [r1, #4]
 2549 0f7c CFE6     		b	.L107
 2550              	.L121:
 2551              		.loc 1 975 0
 2552 0f7e 3E4A     		ldr	r2, .L131+4
 2553 0f80 52F823C0 		ldr	ip, [r2, r3, lsl #2]
ARM GAS  C:\Users\RAKIBU~1\AppData\Local\Temp\cc76R1kY.s 			page 46


 2554 0f84 3B49     		ldr	r1, .L131
 2555 0f86 8A69     		ldr	r2, [r1, #24]
 2556 0f88 0244     		add	r2, r2, r0
 2557 0f8a 0132     		adds	r2, r2, #1
 2558 0f8c D1F810E0 		ldr	lr, [r1, #16]
 2559 0f90 B2FBFEF0 		udiv	r0, r2, lr
 2560 0f94 0EFB1022 		mls	r2, lr, r0, r2
 2561 0f98 0CF10340 		add	r0, ip, #-2097152000
 2562 0f9c 0832     		adds	r2, r2, #8
 2563 0f9e 01EB8201 		add	r1, r1, r2, lsl #2
 2564 0fa2 4860     		str	r0, [r1, #4]
 2565 0fa4 BBE6     		b	.L107
 2566              	.LVL221:
 2567              	.L122:
 2568              		.loc 1 1028 0
 2569 0fa6 354B     		ldr	r3, .L131+8
 2570 0fa8 D3E90001 		ldrd	r0, [r3]
 2571              	.LVL222:
 2572 0fac 314B     		ldr	r3, .L131
 2573 0fae 9A69     		ldr	r2, [r3, #24]
 2574 0fb0 0832     		adds	r2, r2, #8
 2575 0fb2 03EB8202 		add	r2, r3, r2, lsl #2
 2576 0fb6 5060     		str	r0, [r2, #4]
 2577              		.loc 1 1031 0
 2578 0fb8 9A69     		ldr	r2, [r3, #24]
 2579 0fba 0132     		adds	r2, r2, #1
 2580 0fbc 1869     		ldr	r0, [r3, #16]
 2581 0fbe 92FBF0F1 		sdiv	r1, r2, r0
 2582 0fc2 00FB1122 		mls	r2, r0, r1, r2
 2583 0fc6 9A61     		str	r2, [r3, #24]
 2584              		.loc 1 1033 0
 2585 0fc8 08E0     		b	.L113
 2586              	.L115:
 2587              		.loc 1 1035 0
 2588 0fca 2A4A     		ldr	r2, .L131
 2589 0fcc 9369     		ldr	r3, [r2, #24]
 2590 0fce 0133     		adds	r3, r3, #1
 2591 0fd0 1069     		ldr	r0, [r2, #16]
 2592 0fd2 93FBF0F1 		sdiv	r1, r3, r0
 2593 0fd6 00FB1133 		mls	r3, r0, r1, r3
 2594 0fda 9361     		str	r3, [r2, #24]
 2595              	.L113:
 2596              		.loc 1 1033 0
 2597 0fdc 254B     		ldr	r3, .L131
 2598 0fde 9A69     		ldr	r2, [r3, #24]
 2599 0fe0 0832     		adds	r2, r2, #8
 2600 0fe2 03EB8203 		add	r3, r3, r2, lsl #2
 2601 0fe6 5B68     		ldr	r3, [r3, #4]
 2602 0fe8 6BB1     		cbz	r3, .L114
 2603              		.loc 1 1033 0 is_stmt 0 discriminator 1
 2604 0fea 2249     		ldr	r1, .L131
 2605 0fec 8B69     		ldr	r3, [r1, #24]
 2606 0fee 244A     		ldr	r2, .L131+12
 2607 0ff0 D26A     		ldr	r2, [r2, #44]
 2608 0ff2 1344     		add	r3, r3, r2
 2609 0ff4 0233     		adds	r3, r3, #2
 2610 0ff6 0869     		ldr	r0, [r1, #16]
ARM GAS  C:\Users\RAKIBU~1\AppData\Local\Temp\cc76R1kY.s 			page 47


 2611 0ff8 B3FBF0F2 		udiv	r2, r3, r0
 2612 0ffc 00FB1233 		mls	r3, r0, r2, r3
 2613 1000 4A69     		ldr	r2, [r1, #20]
 2614 1002 9342     		cmp	r3, r2
 2615 1004 E1D1     		bne	.L115
 2616              	.L114:
 2617              		.loc 1 1039 0 is_stmt 1
 2618 1006 1B49     		ldr	r1, .L131
 2619 1008 8B69     		ldr	r3, [r1, #24]
 2620 100a 1D4A     		ldr	r2, .L131+12
 2621 100c D26A     		ldr	r2, [r2, #44]
 2622 100e 1344     		add	r3, r3, r2
 2623 1010 0233     		adds	r3, r3, #2
 2624 1012 0869     		ldr	r0, [r1, #16]
 2625 1014 B3FBF0F2 		udiv	r2, r3, r0
 2626 1018 00FB1233 		mls	r3, r0, r2, r3
 2627 101c 4A69     		ldr	r2, [r1, #20]
 2628 101e 9342     		cmp	r3, r2
 2629 1020 0BD0     		beq	.L125
 2630              	.L116:
 2631              		.loc 1 1048 0
 2632 1022 144A     		ldr	r2, .L131
 2633 1024 49F66443 		movw	r3, #40036
 2634 1028 0121     		movs	r1, #1
 2635 102a D154     		strb	r1, [r2, r3]
 2636              		.loc 1 1049 0
 2637 102c 154A     		ldr	r2, .L131+16
 2638 102e D2F88030 		ldr	r3, [r2, #128]
 2639 1032 0B44     		add	r3, r3, r1
 2640 1034 C2F88030 		str	r3, [r2, #128]
 2641 1038 C8E6     		b	.L112
 2642              	.L125:
 2643              		.loc 1 1043 0
 2644 103a 134A     		ldr	r2, .L131+20
 2645 103c 1368     		ldr	r3, [r2]
 2646 103e 0133     		adds	r3, r3, #1
 2647 1040 1360     		str	r3, [r2]
 2648              		.loc 1 1044 0
 2649 1042 0B46     		mov	r3, r1
 2650 1044 4A69     		ldr	r2, [r1, #20]
 2651 1046 0832     		adds	r2, r2, #8
 2652 1048 01EB8202 		add	r2, r1, r2, lsl #2
 2653 104c 0021     		movs	r1, #0
 2654 104e 5160     		str	r1, [r2, #4]
 2655              		.loc 1 1045 0
 2656 1050 5A69     		ldr	r2, [r3, #20]
 2657 1052 0132     		adds	r2, r2, #1
 2658 1054 1869     		ldr	r0, [r3, #16]
 2659 1056 92FBF0F1 		sdiv	r1, r2, r0
 2660 105a 00FB1122 		mls	r2, r0, r1, r2
 2661 105e 5A61     		str	r2, [r3, #20]
 2662 1060 DFE7     		b	.L116
 2663              	.LVL223:
 2664              	.L123:
 2665              	.LBE252:
 2666              		.loc 1 1062 0
 2667 1062 FFF7FEFF 		bl	_dbg_check_leave_isr
ARM GAS  C:\Users\RAKIBU~1\AppData\Local\Temp\cc76R1kY.s 			page 48


 2668              	.LVL224:
 2669 1066 0948     		ldr	r0, .L131+24
 2670 1068 FFF7FEFF 		bl	_trace_isr_leave
 2671              	.LVL225:
 2672 106c FFF7FEFF 		bl	_port_irq_epilogue
 2673              	.LVL226:
 2674              		.loc 1 1063 0
 2675 1070 BDE8F88F 		pop	{r3, r4, r5, r6, r7, r8, r9, r10, fp, pc}
 2676              	.LVL227:
 2677              	.L132:
 2678              		.align	2
 2679              	.L131:
 2680 1074 00000000 		.word	adcBuffer
 2681 1078 00000000 		.word	fir_sindex_buffer
 2682 107c 00000000 		.word	fir_adcValue
 2683 1080 00000000 		.word	.LANCHOR0
 2684 1084 00000000 		.word	.LANCHOR2
 2685 1088 00000000 		.word	buffer_overflows
 2686 108c 38000000 		.word	.LANCHOR1+56
 2687              		.cfi_endproc
 2688              	.LFE340:
 2689              		.size	PendSV_Handler, .-PendSV_Handler
 2690              		.align	1
 2691              		.p2align 4,,15
 2692              		.global	VectorCC
 2693              		.syntax unified
 2694              		.thumb
 2695              		.thumb_func
 2696              		.fpu softvfp
 2697              		.type	VectorCC, %function
 2698              	VectorCC:
 2699              	.LFB341:
 2700              		.loc 1 1086 0
 2701              		.cfi_startproc
 2702              		@ args = 0, pretend = 0, frame = 0
 2703              		@ frame_needed = 0, uses_anonymous_args = 0
 2704              		@ link register save eliminated.
 2705              		.loc 1 1088 0
 2706 1090 224A     		ldr	r2, .L137
 2707 1092 1168     		ldr	r1, [r2]
 2708 1094 224B     		ldr	r3, .L137+4
 2709 1096 D869     		ldr	r0, [r3, #28]
 2710 1098 C368     		ldr	r3, [r0, #12]
 2711 109a 03EB0143 		add	r3, r3, r1, lsl #16
 2712 109e 1360     		str	r3, [r2]
 2713              		.loc 1 1089 0
 2714 10a0 2049     		ldr	r1, .L137+8
 2715 10a2 0B78     		ldrb	r3, [r1]	@ zero_extendqisi2
 2716 10a4 DBB2     		uxtb	r3, r3
 2717 10a6 5A1C     		adds	r2, r3, #1
 2718 10a8 D2B2     		uxtb	r2, r2
 2719 10aa 0A70     		strb	r2, [r1]
 2720 10ac 002B     		cmp	r3, #0
 2721 10ae 31D0     		beq	.L134
 2722              		.loc 1 1091 0
 2723 10b0 1D4A     		ldr	r2, .L137+12
 2724 10b2 106E     		ldr	r0, [r2, #96]
ARM GAS  C:\Users\RAKIBU~1\AppData\Local\Temp\cc76R1kY.s 			page 49


 2725 10b4 194B     		ldr	r3, .L137
 2726 10b6 1968     		ldr	r1, [r3]
 2727 10b8 1C4B     		ldr	r3, .L137+16
 2728 10ba 03EB0013 		add	r3, r3, r0, lsl #4
 2729 10be 5960     		str	r1, [r3, #4]
 2730              		.loc 1 1094 0
 2731 10c0 126E     		ldr	r2, [r2, #96]
 2732 10c2 0132     		adds	r2, r2, #1
 2733 10c4 1A4B     		ldr	r3, .L137+20
 2734 10c6 A3FB0213 		umull	r1, r3, r3, r2
 2735 10ca 1B09     		lsrs	r3, r3, #4
 2736 10cc 03EB8303 		add	r3, r3, r3, lsl #2
 2737 10d0 9900     		lsls	r1, r3, #2
 2738 10d2 8A42     		cmp	r2, r1
 2739 10d4 10D1     		bne	.L135
 2740              		.loc 1 1096 0
 2741 10d6 174A     		ldr	r2, .L137+24
 2742 10d8 5368     		ldr	r3, [r2, #4]
 2743 10da 43F08053 		orr	r3, r3, #268435456
 2744 10de 5360     		str	r3, [r2, #4]
 2745              		.loc 1 1097 0
 2746 10e0 1149     		ldr	r1, .L137+12
 2747 10e2 0A6E     		ldr	r2, [r1, #96]
 2748 10e4 1532     		adds	r2, r2, #21
 2749 10e6 124B     		ldr	r3, .L137+20
 2750 10e8 A3FB0203 		umull	r0, r3, r3, r2
 2751 10ec 5B09     		lsrs	r3, r3, #5
 2752 10ee 03EB8303 		add	r3, r3, r3, lsl #2
 2753 10f2 D800     		lsls	r0, r3, #3
 2754 10f4 131A     		subs	r3, r2, r0
 2755 10f6 8B66     		str	r3, [r1, #104]
 2756              	.L135:
 2757              		.loc 1 1101 0
 2758 10f8 0F4B     		ldr	r3, .L137+28
 2759 10fa 1B69     		ldr	r3, [r3, #16]
 2760 10fc 13F4004F 		tst	r3, #32768
 2761 1100 0AD1     		bne	.L133
 2762              		.loc 1 1104 0
 2763 1102 094B     		ldr	r3, .L137+12
 2764 1104 0122     		movs	r2, #1
 2765 1106 83F89820 		strb	r2, [r3, #152]
 2766              		.loc 1 1105 0
 2767 110a 0C4A     		ldr	r2, .L137+32
 2768 110c 1368     		ldr	r3, [r2]
 2769 110e 0133     		adds	r3, r3, #1
 2770 1110 1360     		str	r3, [r2]
 2771 1112 7047     		bx	lr
 2772              	.L134:
 2773              		.loc 1 1110 0
 2774 1114 FF23     		movs	r3, #255
 2775 1116 C360     		str	r3, [r0, #12]
 2776              	.L133:
 2777              		.loc 1 1113 0
 2778 1118 7047     		bx	lr
 2779              	.L138:
 2780 111a 00BF     		.align	2
 2781              	.L137:
ARM GAS  C:\Users\RAKIBU~1\AppData\Local\Temp\cc76R1kY.s 			page 50


 2782 111c 00000000 		.word	tmp_data_value
 2783 1120 00000000 		.word	SPID1
 2784 1124 00000000 		.word	byte_index
 2785 1128 00000000 		.word	.LANCHOR2
 2786 112c 00000000 		.word	raw_sample_buffer
 2787 1130 CDCCCCCC 		.word	-858993459
 2788 1134 00ED00E0 		.word	-536810240
 2789 1138 00100240 		.word	1073876992
 2790 113c 00000000 		.word	missed_sample_cnt
 2791              		.cfi_endproc
 2792              	.LFE341:
 2793              		.size	VectorCC, .-VectorCC
 2794              		.align	1
 2795              		.p2align 4,,15
 2796              		.global	spi1_custom_start
 2797              		.syntax unified
 2798              		.thumb
 2799              		.thumb_func
 2800              		.fpu softvfp
 2801              		.type	spi1_custom_start, %function
 2802              	spi1_custom_start:
 2803              	.LFB342:
 2804              		.loc 1 1119 0
 2805              		.cfi_startproc
 2806              		@ args = 0, pretend = 0, frame = 0
 2807              		@ frame_needed = 0, uses_anonymous_args = 0
 2808              		@ link register save eliminated.
 2809              	.LVL228:
 2810              		.loc 1 1120 0
 2811 1140 4160     		str	r1, [r0, #4]
 2812              		.loc 1 1122 0
 2813 1142 134B     		ldr	r3, .L140
 2814 1144 5A6C     		ldr	r2, [r3, #68]
 2815 1146 42F48052 		orr	r2, r2, #4096
 2816 114a 5A64     		str	r2, [r3, #68]
 2817 114c 5A6E     		ldr	r2, [r3, #100]
 2818 114e 42F48052 		orr	r2, r2, #4096
 2819 1152 5A66     		str	r2, [r3, #100]
 2820 1154 5B6E     		ldr	r3, [r3, #100]
 2821              		.loc 1 1124 0
 2822 1156 C269     		ldr	r2, [r0, #28]
 2823 1158 1368     		ldr	r3, [r2]
 2824 115a 23F04003 		bic	r3, r3, #64
 2825 115e 1360     		str	r3, [r2]
 2826              		.loc 1 1125 0
 2827 1160 4368     		ldr	r3, [r0, #4]
 2828 1162 1B8A     		ldrh	r3, [r3, #16]
 2829 1164 C269     		ldr	r2, [r0, #28]
 2830              		.loc 1 1126 0
 2831 1166 43F43063 		orr	r3, r3, #2816
 2832 116a 43F00403 		orr	r3, r3, #4
 2833              		.loc 1 1125 0
 2834 116e 1360     		str	r3, [r2]
 2835              		.loc 1 1127 0
 2836 1170 C269     		ldr	r2, [r0, #28]
 2837 1172 5368     		ldr	r3, [r2, #4]
 2838 1174 23F00303 		bic	r3, r3, #3
ARM GAS  C:\Users\RAKIBU~1\AppData\Local\Temp\cc76R1kY.s 			page 51


 2839 1178 5360     		str	r3, [r2, #4]
 2840              		.loc 1 1128 0
 2841 117a C269     		ldr	r2, [r0, #28]
 2842 117c 5368     		ldr	r3, [r2, #4]
 2843 117e 43F04003 		orr	r3, r3, #64
 2844 1182 5360     		str	r3, [r2, #4]
 2845              		.loc 1 1129 0
 2846 1184 C269     		ldr	r2, [r0, #28]
 2847 1186 1368     		ldr	r3, [r2]
 2848 1188 43F04003 		orr	r3, r3, #64
 2849 118c 1360     		str	r3, [r2]
 2850              		.loc 1 1131 0
 2851 118e 7047     		bx	lr
 2852              	.L141:
 2853              		.align	2
 2854              	.L140:
 2855 1190 00380240 		.word	1073887232
 2856              		.cfi_endproc
 2857              	.LFE342:
 2858              		.size	spi1_custom_start, .-spi1_custom_start
 2859              		.align	1
 2860 1194 AFF30080 		.p2align 4,,15
 2860      AFF30080 
 2860      AFF30080 
 2861              		.global	ads1282_init
 2862              		.syntax unified
 2863              		.thumb
 2864              		.thumb_func
 2865              		.fpu softvfp
 2866              		.type	ads1282_init, %function
 2867              	ads1282_init:
 2868              	.LFB343:
 2869              		.loc 1 1148 0
 2870              		.cfi_startproc
 2871              		@ args = 0, pretend = 0, frame = 0
 2872              		@ frame_needed = 0, uses_anonymous_args = 0
 2873 11a0 2DE9F843 		push	{r3, r4, r5, r6, r7, r8, r9, lr}
 2874              		.cfi_def_cfa_offset 32
 2875              		.cfi_offset 3, -32
 2876              		.cfi_offset 4, -28
 2877              		.cfi_offset 5, -24
 2878              		.cfi_offset 6, -20
 2879              		.cfi_offset 7, -16
 2880              		.cfi_offset 8, -12
 2881              		.cfi_offset 9, -8
 2882              		.cfi_offset 14, -4
 2883              		.loc 1 1152 0
 2884 11a4 4C4F     		ldr	r7, .L144
 2885 11a6 40F29A22 		movw	r2, #666
 2886 11aa 2021     		movs	r1, #32
 2887 11ac 3846     		mov	r0, r7
 2888 11ae FFF7FEFF 		bl	_pal_lld_setgroupmode
 2889              	.LVL229:
 2890              		.loc 1 1153 0
 2891 11b2 4A4C     		ldr	r4, .L144+4
 2892 11b4 40F29A22 		movw	r2, #666
 2893 11b8 4021     		movs	r1, #64
ARM GAS  C:\Users\RAKIBU~1\AppData\Local\Temp\cc76R1kY.s 			page 52


 2894 11ba 2046     		mov	r0, r4
 2895 11bc FFF7FEFF 		bl	_pal_lld_setgroupmode
 2896              	.LVL230:
 2897              		.loc 1 1154 0
 2898 11c0 40F29A22 		movw	r2, #666
 2899 11c4 2021     		movs	r1, #32
 2900 11c6 2046     		mov	r0, r4
 2901 11c8 FFF7FEFF 		bl	_pal_lld_setgroupmode
 2902              	.LVL231:
 2903              		.loc 1 1155 0
 2904 11cc 1922     		movs	r2, #25
 2905 11ce 1021     		movs	r1, #16
 2906 11d0 2046     		mov	r0, r4
 2907 11d2 FFF7FEFF 		bl	_pal_lld_setgroupmode
 2908              	.LVL232:
 2909              		.loc 1 1157 0
 2910 11d6 DFF81891 		ldr	r9, .L144+24
 2911 11da 414D     		ldr	r5, .L144+8
 2912 11dc 4946     		mov	r1, r9
 2913 11de 2846     		mov	r0, r5
 2914 11e0 FFF7FEFF 		bl	spiStart
 2915              	.LVL233:
 2916              		.loc 1 1162 0
 2917 11e4 3F48     		ldr	r0, .L144+12
 2918 11e6 0021     		movs	r1, #0
 2919 11e8 FFF7FEFF 		bl	chThdSleep
 2920              	.LVL234:
 2921              		.loc 1 1163 0
 2922 11ec 3E4C     		ldr	r4, .L144+16
 2923 11ee 4FF00008 		mov	r8, #0
 2924 11f2 84F80080 		strb	r8, [r4]
 2925              		.loc 1 1164 0
 2926 11f6 2246     		mov	r2, r4
 2927 11f8 0121     		movs	r1, #1
 2928 11fa 2846     		mov	r0, r5
 2929 11fc FFF7FEFF 		bl	spiSend
 2930              	.LVL235:
 2931              		.loc 1 1165 0
 2932 1200 6420     		movs	r0, #100
 2933 1202 0021     		movs	r1, #0
 2934 1204 FFF7FEFF 		bl	chThdSleep
 2935              	.LVL236:
 2936              		.loc 1 1166 0
 2937 1208 0623     		movs	r3, #6
 2938 120a 2370     		strb	r3, [r4]
 2939              		.loc 1 1167 0
 2940 120c 2246     		mov	r2, r4
 2941 120e 0121     		movs	r1, #1
 2942 1210 2846     		mov	r0, r5
 2943 1212 FFF7FEFF 		bl	spiSend
 2944              	.LVL237:
 2945              		.loc 1 1168 0
 2946 1216 6420     		movs	r0, #100
 2947 1218 0021     		movs	r1, #0
 2948 121a FFF7FEFF 		bl	chThdSleep
 2949              	.LVL238:
 2950              		.loc 1 1169 0
ARM GAS  C:\Users\RAKIBU~1\AppData\Local\Temp\cc76R1kY.s 			page 53


 2951 121e 1123     		movs	r3, #17
 2952 1220 2370     		strb	r3, [r4]
 2953              		.loc 1 1170 0
 2954 1222 2246     		mov	r2, r4
 2955 1224 0121     		movs	r1, #1
 2956 1226 2846     		mov	r0, r5
 2957 1228 FFF7FEFF 		bl	spiSend
 2958              	.LVL239:
 2959              		.loc 1 1171 0
 2960 122c 6420     		movs	r0, #100
 2961 122e 0021     		movs	r1, #0
 2962 1230 FFF7FEFF 		bl	chThdSleep
 2963              	.LVL240:
 2964              		.loc 1 1172 0
 2965 1234 4123     		movs	r3, #65
 2966 1236 2370     		strb	r3, [r4]
 2967              		.loc 1 1173 0
 2968 1238 2246     		mov	r2, r4
 2969 123a 0121     		movs	r1, #1
 2970 123c 2846     		mov	r0, r5
 2971 123e FFF7FEFF 		bl	spiSend
 2972              	.LVL241:
 2973              		.loc 1 1174 0
 2974 1242 6420     		movs	r0, #100
 2975 1244 0021     		movs	r1, #0
 2976 1246 FFF7FEFF 		bl	chThdSleep
 2977              	.LVL242:
 2978              		.loc 1 1175 0
 2979 124a 0126     		movs	r6, #1
 2980 124c 2670     		strb	r6, [r4]
 2981              		.loc 1 1176 0
 2982 124e 2246     		mov	r2, r4
 2983 1250 3146     		mov	r1, r6
 2984 1252 2846     		mov	r0, r5
 2985 1254 FFF7FEFF 		bl	spiSend
 2986              	.LVL243:
 2987              		.loc 1 1177 0
 2988 1258 6420     		movs	r0, #100
 2989 125a 0021     		movs	r1, #0
 2990 125c FFF7FEFF 		bl	chThdSleep
 2991              	.LVL244:
 2992              		.loc 1 1179 0
 2993 1260 5123     		movs	r3, #81
 2994 1262 2370     		strb	r3, [r4]
 2995              		.loc 1 1180 0
 2996 1264 2246     		mov	r2, r4
 2997 1266 3146     		mov	r1, r6
 2998 1268 2846     		mov	r0, r5
 2999 126a FFF7FEFF 		bl	spiSend
 3000              	.LVL245:
 3001              		.loc 1 1181 0
 3002 126e 6420     		movs	r0, #100
 3003 1270 0021     		movs	r1, #0
 3004 1272 FFF7FEFF 		bl	chThdSleep
 3005              	.LVL246:
 3006              		.loc 1 1182 0
 3007 1276 84F80080 		strb	r8, [r4]
ARM GAS  C:\Users\RAKIBU~1\AppData\Local\Temp\cc76R1kY.s 			page 54


 3008              		.loc 1 1183 0
 3009 127a 2246     		mov	r2, r4
 3010 127c 3146     		mov	r1, r6
 3011 127e 2846     		mov	r0, r5
 3012 1280 FFF7FEFF 		bl	spiSend
 3013              	.LVL247:
 3014              		.loc 1 1184 0
 3015 1284 6420     		movs	r0, #100
 3016 1286 0021     		movs	r1, #0
 3017 1288 FFF7FEFF 		bl	chThdSleep
 3018              	.LVL248:
 3019              		.loc 1 1185 0
 3020 128c 1023     		movs	r3, #16
 3021 128e 2370     		strb	r3, [r4]
 3022              		.loc 1 1186 0
 3023 1290 2246     		mov	r2, r4
 3024 1292 3146     		mov	r1, r6
 3025 1294 2846     		mov	r0, r5
 3026 1296 FFF7FEFF 		bl	spiSend
 3027              	.LVL249:
 3028              		.loc 1 1187 0
 3029 129a 6420     		movs	r0, #100
 3030 129c 0021     		movs	r1, #0
 3031 129e FFF7FEFF 		bl	chThdSleep
 3032              	.LVL250:
 3033              		.loc 1 1188 0
 3034 12a2 84F80080 		strb	r8, [r4]
 3035              		.loc 1 1189 0
 3036 12a6 2246     		mov	r2, r4
 3037 12a8 3146     		mov	r1, r6
 3038 12aa 2846     		mov	r0, r5
 3039 12ac FFF7FEFF 		bl	spiSend
 3040              	.LVL251:
 3041              		.loc 1 1192 0
 3042 12b0 1922     		movs	r2, #25
 3043 12b2 2021     		movs	r1, #32
 3044 12b4 3846     		mov	r0, r7
 3045 12b6 FFF7FEFF 		bl	_pal_lld_setgroupmode
 3046              	.LVL252:
 3047              		.loc 1 1193 0
 3048 12ba 2023     		movs	r3, #32
 3049 12bc 7B83     		strh	r3, [r7, #26]	@ movhi
 3050              		.loc 1 1194 0
 3051 12be 0B4B     		ldr	r3, .L144+20
 3052 12c0 83F89960 		strb	r6, [r3, #153]
 3053              		.loc 1 1197 0
 3054 12c4 2846     		mov	r0, r5
 3055 12c6 FFF7FEFF 		bl	spiStop
 3056              	.LVL253:
 3057              		.loc 1 1199 0
 3058 12ca 4946     		mov	r1, r9
 3059 12cc 2846     		mov	r0, r5
 3060 12ce FFF7FEFF 		bl	spi1_custom_start
 3061              	.LVL254:
 3062              		.loc 1 1203 0
 3063 12d2 3046     		mov	r0, r6
 3064 12d4 BDE8F883 		pop	{r3, r4, r5, r6, r7, r8, r9, pc}
ARM GAS  C:\Users\RAKIBU~1\AppData\Local\Temp\cc76R1kY.s 			page 55


 3065              	.L145:
 3066              		.align	2
 3067              	.L144:
 3068 12d8 00040240 		.word	1073873920
 3069 12dc 00000240 		.word	1073872896
 3070 12e0 00000000 		.word	SPID1
 3071 12e4 A0860100 		.word	100000
 3072 12e8 00000000 		.word	txbuf
 3073 12ec 00000000 		.word	.LANCHOR2
 3074 12f0 98000000 		.word	.LANCHOR1+152
 3075              		.cfi_endproc
 3076              	.LFE343:
 3077              		.size	ads1282_init, .-ads1282_init
 3078              		.align	1
 3079 12f4 AFF30080 		.p2align 4,,15
 3079      AFF30080 
 3079      AFF30080 
 3080              		.global	init_adc
 3081              		.syntax unified
 3082              		.thumb
 3083              		.thumb_func
 3084              		.fpu softvfp
 3085              		.type	init_adc, %function
 3086              	init_adc:
 3087              	.LFB344:
 3088              		.loc 1 1210 0
 3089              		.cfi_startproc
 3090              		@ args = 0, pretend = 0, frame = 0
 3091              		@ frame_needed = 0, uses_anonymous_args = 0
 3092 1300 38B5     		push	{r3, r4, r5, lr}
 3093              		.cfi_def_cfa_offset 16
 3094              		.cfi_offset 3, -16
 3095              		.cfi_offset 4, -12
 3096              		.cfi_offset 5, -8
 3097              		.cfi_offset 14, -4
 3098              		.loc 1 1217 0
 3099 1302 2C4C     		ldr	r4, .L150
 3100 1304 2046     		mov	r0, r4
 3101 1306 FFF7FEFF 		bl	chMtxObjectInit
 3102              	.LVL255:
 3103              		.loc 1 1218 0
 3104 130a FFF7FEFF 		bl	ads1282_init
 3105              	.LVL256:
 3106              		.loc 1 1220 0
 3107 130e 2A4D     		ldr	r5, .L150+4
 3108 1310 2A49     		ldr	r1, .L150+8
 3109 1312 2846     		mov	r0, r5
 3110 1314 FFF7FEFF 		bl	chprintf
 3111              	.LVL257:
 3112              		.loc 1 1222 0
 3113 1318 294A     		ldr	r2, .L150+12
 3114 131a 0023     		movs	r3, #0
 3115 131c 2949     		ldr	r1, .L150+16
 3116 131e 2846     		mov	r0, r5
 3117 1320 FFF7FEFF 		bl	chprintf
 3118              	.LVL258:
 3119              		.loc 1 1224 0
ARM GAS  C:\Users\RAKIBU~1\AppData\Local\Temp\cc76R1kY.s 			page 56


 3120 1324 2046     		mov	r0, r4
 3121 1326 FFF7FEFF 		bl	chMtxLock
 3122              	.LVL259:
 3123              		.loc 1 1225 0
 3124 132a 42F21073 		movw	r3, #10000
 3125 132e 2361     		str	r3, [r4, #16]
 3126              		.loc 1 1226 0
 3127 1330 0123     		movs	r3, #1
 3128 1332 A361     		str	r3, [r4, #24]
 3129              		.loc 1 1227 0
 3130 1334 0025     		movs	r5, #0
 3131 1336 6561     		str	r5, [r4, #20]
 3132              		.loc 1 1228 0
 3133 1338 4FF0FF32 		mov	r2, #-1
 3134 133c E261     		str	r2, [r4, #28]
 3135              		.loc 1 1229 0
 3136 133e 2262     		str	r2, [r4, #32]
 3137              		.loc 1 1230 0
 3138 1340 49F66442 		movw	r2, #40036
 3139 1344 A354     		strb	r3, [r4, r2]
 3140              		.loc 1 1231 0
 3141 1346 2046     		mov	r0, r4
 3142 1348 FFF7FEFF 		bl	chMtxUnlock
 3143              	.LVL260:
 3144              		.loc 1 1233 0
 3145 134c 1E4B     		ldr	r3, .L150+20
 3146 134e 1D60     		str	r5, [r3]
 3147              		.loc 1 1234 0
 3148 1350 1E4B     		ldr	r3, .L150+24
 3149 1352 1D60     		str	r5, [r3]
 3150              		.loc 1 1243 0
 3151 1354 2946     		mov	r1, r5
 3152 1356 2320     		movs	r0, #35
 3153 1358 FFF7FEFF 		bl	nvicEnableVector
 3154              	.LVL261:
 3155              		.loc 1 1247 0
 3156 135c 0421     		movs	r1, #4
 3157 135e 6FF00100 		mvn	r0, #1
 3158 1362 FFF7FEFF 		bl	nvicEnableVector
 3159              	.LVL262:
 3160              		.loc 1 1248 0
 3161 1366 0421     		movs	r1, #4
 3162 1368 0A20     		movs	r0, #10
 3163 136a FFF7FEFF 		bl	nvicSetSystemHandlerPriority
 3164              	.LVL263:
 3165              	.LBB266:
 3166              	.LBB267:
 3167              	.LBB268:
 3168              	.LBB269:
 3169              	.LBB270:
 3170              	.LBB271:
 3171              		.loc 3 493 0
 3172 136e 2023     		movs	r3, #32
 3173              		.syntax unified
 3174              	@ 493 "../../../ChibiOSRepo/chibios191/os/common/ext/ARM/CMSIS/Core/Include/cmsis_gcc.h" 1
 3175 1370 83F31188 		MSR basepri, r3
 3176              	@ 0 "" 2
ARM GAS  C:\Users\RAKIBU~1\AppData\Local\Temp\cc76R1kY.s 			page 57


 3177              	.LVL264:
 3178              		.thumb
 3179              		.syntax unified
 3180              	.LBE271:
 3181              	.LBE270:
 3182              	.LBE269:
 3183              		.loc 2 356 0
 3184 1374 FFF7FEFF 		bl	_stats_start_measure_crit_thd
 3185              	.LVL265:
 3186              		.loc 2 357 0
 3187 1378 FFF7FEFF 		bl	_dbg_check_lock
 3188              	.LVL266:
 3189              	.LBE268:
 3190              	.LBE267:
 3191              	.LBE266:
 3192              		.loc 1 1252 0
 3193 137c 0222     		movs	r2, #2
 3194 137e 0F21     		movs	r1, #15
 3195 1380 1348     		ldr	r0, .L150+28
 3196 1382 FFF7FEFF 		bl	_pal_lld_enablepadevent
 3197              	.LVL267:
 3198              	.LBB272:
 3199              	.LBB273:
 3200              	.LBB274:
 3201              		.loc 2 367 0
 3202 1386 FFF7FEFF 		bl	_dbg_check_unlock
 3203              	.LVL268:
 3204              		.loc 2 368 0
 3205 138a FFF7FEFF 		bl	_stats_stop_measure_crit_thd
 3206              	.LVL269:
 3207              		.loc 2 374 0
 3208 138e 114B     		ldr	r3, .L150+32
 3209 1390 1A68     		ldr	r2, [r3]
 3210 1392 9A42     		cmp	r2, r3
 3211 1394 04D0     		beq	.L147
 3212 1396 9B69     		ldr	r3, [r3, #24]
 3213 1398 9968     		ldr	r1, [r3, #8]
 3214 139a 9368     		ldr	r3, [r2, #8]
 3215 139c 9942     		cmp	r1, r3
 3216 139e 04D3     		bcc	.L149
 3217              	.L147:
 3218              	.LVL270:
 3219              	.LBB275:
 3220              	.LBB276:
 3221              	.LBB277:
 3222              		.loc 3 493 0
 3223 13a0 0023     		movs	r3, #0
 3224              		.syntax unified
 3225              	@ 493 "../../../ChibiOSRepo/chibios191/os/common/ext/ARM/CMSIS/Core/Include/cmsis_gcc.h" 1
 3226 13a2 83F31188 		MSR basepri, r3
 3227              	@ 0 "" 2
 3228              	.LVL271:
 3229              		.thumb
 3230              		.syntax unified
 3231              	.LBE277:
 3232              	.LBE276:
 3233              	.LBE275:
ARM GAS  C:\Users\RAKIBU~1\AppData\Local\Temp\cc76R1kY.s 			page 58


 3234              	.LBE274:
 3235              	.LBE273:
 3236              	.LBE272:
 3237              		.loc 1 1258 0
 3238 13a6 0120     		movs	r0, #1
 3239 13a8 38BD     		pop	{r3, r4, r5, pc}
 3240              	.L149:
 3241              	.LBB280:
 3242              	.LBB279:
 3243              	.LBB278:
 3244              		.loc 2 374 0
 3245 13aa 0B48     		ldr	r0, .L150+36
 3246 13ac FFF7FEFF 		bl	chSysHalt
 3247              	.LVL272:
 3248 13b0 F6E7     		b	.L147
 3249              	.L151:
 3250 13b2 00BF     		.align	2
 3251              	.L150:
 3252 13b4 00000000 		.word	adcBuffer
 3253 13b8 00000000 		.word	SD6
 3254 13bc EC000000 		.word	.LC12
 3255 13c0 A0860100 		.word	100000
 3256 13c4 FC000000 		.word	.LC13
 3257 13c8 00000000 		.word	missed_sample_cnt
 3258 13cc 00000000 		.word	buffer_overflows
 3259 13d0 00100240 		.word	1073876992
 3260 13d4 00000000 		.word	ch
 3261 13d8 00000000 		.word	.LANCHOR1
 3262              	.LBE278:
 3263              	.LBE279:
 3264              	.LBE280:
 3265              		.cfi_endproc
 3266              	.LFE344:
 3267              		.size	init_adc, .-init_adc
 3268              		.align	1
 3269 13dc AFF30080 		.p2align 4,,15
 3270              		.global	new_filename
 3271              		.syntax unified
 3272              		.thumb
 3273              		.thumb_func
 3274              		.fpu softvfp
 3275              		.type	new_filename, %function
 3276              	new_filename:
 3277              	.LFB345:
 3278              		.loc 1 1266 0
 3279              		.cfi_startproc
 3280              		@ args = 0, pretend = 0, frame = 8
 3281              		@ frame_needed = 0, uses_anonymous_args = 0
 3282 13e0 10B5     		push	{r4, lr}
 3283              		.cfi_def_cfa_offset 8
 3284              		.cfi_offset 4, -8
 3285              		.cfi_offset 14, -4
 3286 13e2 82B0     		sub	sp, sp, #8
 3287              		.cfi_def_cfa_offset 16
 3288              		.loc 1 1268 0
 3289 13e4 194B     		ldr	r3, .L154
 3290 13e6 93E80300 		ldm	r3, {r0, r1}
ARM GAS  C:\Users\RAKIBU~1\AppData\Local\Temp\cc76R1kY.s 			page 59


 3291 13ea 0090     		str	r0, [sp]
 3292 13ec ADF80410 		strh	r1, [sp, #4]	@ movhi
 3293 13f0 090C     		lsrs	r1, r1, #16
 3294 13f2 8DF80610 		strb	r1, [sp, #6]
 3295              		.loc 1 1272 0
 3296 13f6 164C     		ldr	r4, .L154+4
 3297 13f8 164A     		ldr	r2, .L154+8
 3298 13fa 136A     		ldr	r3, [r2, #32]
 3299 13fc 2386     		strh	r3, [r4, #48]	@ movhi
 3300 13fe 1B0C     		lsrs	r3, r3, #16
 3301 1400 84F83230 		strb	r3, [r4, #50]
 3302              		.loc 1 1273 0
 3303 1404 0023     		movs	r3, #0
 3304 1406 84F83330 		strb	r3, [r4, #51]
 3305              		.loc 1 1274 0
 3306 140a D2F82330 		ldr	r3, [r2, #35]	@ unaligned
 3307 140e 591C     		adds	r1, r3, #1
 3308 1410 C2F82310 		str	r1, [r2, #35]	@ unaligned
 3309 1414 104A     		ldr	r2, .L154+12
 3310 1416 0621     		movs	r1, #6
 3311 1418 6846     		mov	r0, sp
 3312 141a FFF7FEFF 		bl	chsnprintf
 3313              	.LVL273:
 3314              		.loc 1 1275 0
 3315 141e 3034     		adds	r4, r4, #48
 3316 1420 6946     		mov	r1, sp
 3317 1422 2046     		mov	r0, r4
 3318 1424 FFF7FEFF 		bl	strcat
 3319              	.LVL274:
 3320              		.loc 1 1276 0
 3321 1428 2046     		mov	r0, r4
 3322 142a FFF7FEFF 		bl	strlen
 3323              	.LVL275:
 3324 142e 0246     		mov	r2, r0
 3325 1430 2118     		adds	r1, r4, r0
 3326 1432 0A4B     		ldr	r3, .L154+16
 3327 1434 1868     		ldr	r0, [r3]
 3328 1436 A050     		str	r0, [r4, r2]	@ unaligned
 3329 1438 1B79     		ldrb	r3, [r3, #4]	@ zero_extendqisi2
 3330 143a 0B71     		strb	r3, [r1, #4]
 3331              		.loc 1 1278 0
 3332 143c 2246     		mov	r2, r4
 3333 143e 0849     		ldr	r1, .L154+20
 3334 1440 0848     		ldr	r0, .L154+24
 3335 1442 FFF7FEFF 		bl	chprintf
 3336              	.LVL276:
 3337              		.loc 1 1281 0
 3338 1446 2046     		mov	r0, r4
 3339 1448 02B0     		add	sp, sp, #8
 3340              		.cfi_def_cfa_offset 8
 3341              		@ sp needed
 3342 144a 10BD     		pop	{r4, pc}
 3343              	.L155:
 3344              		.align	2
 3345              	.L154:
 3346 144c 50010000 		.word	.LC14
 3347 1450 00000000 		.word	.LANCHOR0
ARM GAS  C:\Users\RAKIBU~1\AppData\Local\Temp\cc76R1kY.s 			page 60


 3348 1454 00000000 		.word	.LANCHOR2
 3349 1458 28010000 		.word	.LC15
 3350 145c 2C010000 		.word	.LC16
 3351 1460 34010000 		.word	.LC17
 3352 1464 00000000 		.word	SD6
 3353              		.cfi_endproc
 3354              	.LFE345:
 3355              		.size	new_filename, .-new_filename
 3356              		.align	1
 3357 1468 AFF30080 		.p2align 4,,15
 3357      AFF30080 
 3358              		.global	new_logfile
 3359              		.syntax unified
 3360              		.thumb
 3361              		.thumb_func
 3362              		.fpu softvfp
 3363              		.type	new_logfile, %function
 3364              	new_logfile:
 3365              	.LFB346:
 3366              		.loc 1 1289 0
 3367              		.cfi_startproc
 3368              		@ args = 0, pretend = 0, frame = 0
 3369              		@ frame_needed = 0, uses_anonymous_args = 0
 3370              	.LVL277:
 3371 1470 F8B5     		push	{r3, r4, r5, r6, r7, lr}
 3372              		.cfi_def_cfa_offset 24
 3373              		.cfi_offset 3, -24
 3374              		.cfi_offset 4, -20
 3375              		.cfi_offset 5, -16
 3376              		.cfi_offset 6, -12
 3377              		.cfi_offset 7, -8
 3378              		.cfi_offset 14, -4
 3379 1472 0746     		mov	r7, r0
 3380 1474 0E46     		mov	r6, r1
 3381              		.loc 1 1296 0
 3382 1476 FFF7FEFF 		bl	new_filename
 3383              	.LVL278:
 3384 147a 0546     		mov	r5, r0
 3385              	.LVL279:
 3386              		.loc 1 1297 0
 3387 147c 0622     		movs	r2, #6
 3388 147e 0146     		mov	r1, r0
 3389 1480 3046     		mov	r0, r6
 3390              	.LVL280:
 3391 1482 FFF7FEFF 		bl	f_open
 3392              	.LVL281:
 3393 1486 0446     		mov	r4, r0
 3394              	.LVL282:
 3395              		.loc 1 1299 0
 3396 1488 08E0     		b	.L157
 3397              	.L158:
 3398              		.loc 1 1302 0
 3399 148a FFF7FEFF 		bl	new_filename
 3400              	.LVL283:
 3401 148e 0546     		mov	r5, r0
 3402              	.LVL284:
 3403              		.loc 1 1303 0
ARM GAS  C:\Users\RAKIBU~1\AppData\Local\Temp\cc76R1kY.s 			page 61


 3404 1490 0622     		movs	r2, #6
 3405 1492 0146     		mov	r1, r0
 3406 1494 3046     		mov	r0, r6
 3407              	.LVL285:
 3408 1496 FFF7FEFF 		bl	f_open
 3409              	.LVL286:
 3410 149a 0446     		mov	r4, r0
 3411              	.LVL287:
 3412              	.L157:
 3413              		.loc 1 1299 0
 3414 149c 082C     		cmp	r4, #8
 3415 149e F4D0     		beq	.L158
 3416              		.loc 1 1307 0
 3417 14a0 94B9     		cbnz	r4, .L162
 3418              		.loc 1 1315 0
 3419 14a2 2A46     		mov	r2, r5
 3420 14a4 1049     		ldr	r1, .L163
 3421 14a6 3846     		mov	r0, r7
 3422 14a8 FFF7FEFF 		bl	chprintf
 3423              	.LVL288:
 3424              		.loc 1 1316 0
 3425 14ac 2B46     		mov	r3, r5
 3426 14ae 0F4A     		ldr	r2, .L163+4
 3427 14b0 6421     		movs	r1, #100
 3428 14b2 0F48     		ldr	r0, .L163+8
 3429 14b4 FFF7FEFF 		bl	chsnprintf
 3430              	.LVL289:
 3431              		.loc 1 1317 0
 3432 14b8 0E4B     		ldr	r3, .L163+12
 3433 14ba 0122     		movs	r2, #1
 3434 14bc 83F89A20 		strb	r2, [r3, #154]
 3435              		.loc 1 1319 0
 3436 14c0 FFF7FEFF 		bl	write_config_eeprom
 3437              	.LVL290:
 3438              	.L160:
 3439              		.loc 1 1323 0
 3440 14c4 2046     		mov	r0, r4
 3441 14c6 F8BD     		pop	{r3, r4, r5, r6, r7, pc}
 3442              	.LVL291:
 3443              	.L162:
 3444              		.loc 1 1309 0
 3445 14c8 2246     		mov	r2, r4
 3446 14ca 0B49     		ldr	r1, .L163+16
 3447 14cc 3846     		mov	r0, r7
 3448 14ce FFF7FEFF 		bl	chprintf
 3449              	.LVL292:
 3450              		.loc 1 1310 0
 3451 14d2 2346     		mov	r3, r4
 3452 14d4 094A     		ldr	r2, .L163+20
 3453 14d6 6421     		movs	r1, #100
 3454 14d8 0548     		ldr	r0, .L163+8
 3455 14da FFF7FEFF 		bl	chsnprintf
 3456              	.LVL293:
 3457              		.loc 1 1311 0
 3458 14de 054B     		ldr	r3, .L163+12
 3459 14e0 0122     		movs	r2, #1
 3460 14e2 83F89A20 		strb	r2, [r3, #154]
ARM GAS  C:\Users\RAKIBU~1\AppData\Local\Temp\cc76R1kY.s 			page 62


 3461 14e6 EDE7     		b	.L160
 3462              	.L164:
 3463              		.align	2
 3464              	.L163:
 3465 14e8 84010000 		.word	.LC20
 3466 14ec 98010000 		.word	.LC21
 3467 14f0 00000000 		.word	message_buffer
 3468 14f4 00000000 		.word	.LANCHOR2
 3469 14f8 58010000 		.word	.LC18
 3470 14fc 70010000 		.word	.LC19
 3471              		.cfi_endproc
 3472              	.LFE346:
 3473              		.size	new_logfile, .-new_logfile
 3474              		.align	1
 3475              		.p2align 4,,15
 3476              		.global	format_data
 3477              		.syntax unified
 3478              		.thumb
 3479              		.thumb_func
 3480              		.fpu softvfp
 3481              		.type	format_data, %function
 3482              	format_data:
 3483              	.LFB347:
 3484              		.loc 1 1329 0
 3485              		.cfi_startproc
 3486              		@ args = 0, pretend = 0, frame = 0
 3487              		@ frame_needed = 0, uses_anonymous_args = 0
 3488              	.LVL294:
 3489 1500 38B5     		push	{r3, r4, r5, lr}
 3490              		.cfi_def_cfa_offset 16
 3491              		.cfi_offset 3, -16
 3492              		.cfi_offset 4, -12
 3493              		.cfi_offset 5, -8
 3494              		.cfi_offset 14, -4
 3495 1502 0546     		mov	r5, r0
 3496 1504 1446     		mov	r4, r2
 3497              	.LVL295:
 3498              		.loc 1 1332 0
 3499 1506 40F8043B 		str	r3, [r0], #4	@ unaligned
 3500              	.LVL296:
 3501              		.loc 1 1334 0
 3502 150a FFF7FEFF 		bl	memcpy
 3503              	.LVL297:
 3504              		.loc 1 1335 0
 3505 150e 201D     		adds	r0, r4, #4
 3506              	.LVL298:
 3507              		.loc 1 1336 0
 3508 1510 02E0     		b	.L166
 3509              	.L167:
 3510              	.LVL299:
 3511              		.loc 1 1338 0
 3512 1512 2023     		movs	r3, #32
 3513 1514 2B54     		strb	r3, [r5, r0]
 3514 1516 0130     		adds	r0, r0, #1
 3515              	.LVL300:
 3516              	.L166:
 3517              		.loc 1 1336 0
ARM GAS  C:\Users\RAKIBU~1\AppData\Local\Temp\cc76R1kY.s 			page 63


 3518 1518 10F0030F 		tst	r0, #3
 3519 151c F9D1     		bne	.L167
 3520              		.loc 1 1340 0
 3521 151e 4FF00043 		mov	r3, #-2147483648
 3522 1522 2B50     		str	r3, [r5, r0]	@ unaligned
 3523              	.LVL301:
 3524              		.loc 1 1343 0
 3525 1524 0430     		adds	r0, r0, #4
 3526              	.LVL302:
 3527 1526 38BD     		pop	{r3, r4, r5, pc}
 3528              		.cfi_endproc
 3529              	.LFE347:
 3530              		.size	format_data, .-format_data
 3531              		.align	1
 3532 1528 AFF30080 		.p2align 4,,15
 3532      AFF30080 
 3533              		.global	set_pga
 3534              		.syntax unified
 3535              		.thumb
 3536              		.thumb_func
 3537              		.fpu softvfp
 3538              		.type	set_pga, %function
 3539              	set_pga:
 3540              	.LFB348:
 3541              		.loc 1 1348 0
 3542              		.cfi_startproc
 3543              		@ args = 0, pretend = 0, frame = 0
 3544              		@ frame_needed = 0, uses_anonymous_args = 0
 3545              		@ link register save eliminated.
 3546              	.LVL303:
 3547              		.loc 1 1352 0
 3548 1530 48B1     		cbz	r0, .L172
 3549              		.loc 1 1360 0
 3550 1532 084A     		ldr	r2, .L173
 3551 1534 0421     		movs	r1, #4
 3552 1536 1183     		strh	r1, [r2, #24]	@ movhi
 3553              		.loc 1 1361 0
 3554 1538 074A     		ldr	r2, .L173+4
 3555 153a 82F89B00 		strb	r0, [r2, #155]
 3556              	.L171:
 3557              		.loc 1 1364 0
 3558 153e 064B     		ldr	r3, .L173+4
 3559 1540 93F89B00 		ldrb	r0, [r3, #155]	@ zero_extendqisi2
 3560              	.LVL304:
 3561              		.loc 1 1366 0
 3562 1544 7047     		bx	lr
 3563              	.LVL305:
 3564              	.L172:
 3565              		.loc 1 1354 0
 3566 1546 034A     		ldr	r2, .L173
 3567 1548 0421     		movs	r1, #4
 3568 154a 5183     		strh	r1, [r2, #26]	@ movhi
 3569              		.loc 1 1355 0
 3570 154c 024A     		ldr	r2, .L173+4
 3571 154e 82F89B00 		strb	r0, [r2, #155]
 3572 1552 F4E7     		b	.L171
 3573              	.L174:
ARM GAS  C:\Users\RAKIBU~1\AppData\Local\Temp\cc76R1kY.s 			page 64


 3574              		.align	2
 3575              	.L173:
 3576 1554 00100240 		.word	1073876992
 3577 1558 00000000 		.word	.LANCHOR2
 3578              		.cfi_endproc
 3579              	.LFE348:
 3580              		.size	set_pga, .-set_pga
 3581              		.align	1
 3582 155c AFF30080 		.p2align 4,,15
 3583              		.syntax unified
 3584              		.thumb
 3585              		.thumb_func
 3586              		.fpu softvfp
 3587              		.type	logger_thread, %function
 3588              	logger_thread:
 3589              	.LFB349:
 3590              		.loc 1 1388 0
 3591              		.cfi_startproc
 3592              		@ args = 0, pretend = 0, frame = 648
 3593              		@ frame_needed = 0, uses_anonymous_args = 0
 3594              	.LVL306:
 3595 1560 2DE9F04F 		push	{r4, r5, r6, r7, r8, r9, r10, fp, lr}
 3596              		.cfi_def_cfa_offset 36
 3597              		.cfi_offset 4, -36
 3598              		.cfi_offset 5, -32
 3599              		.cfi_offset 6, -28
 3600              		.cfi_offset 7, -24
 3601              		.cfi_offset 8, -20
 3602              		.cfi_offset 9, -16
 3603              		.cfi_offset 10, -12
 3604              		.cfi_offset 11, -8
 3605              		.cfi_offset 14, -4
 3606 1564 ADF5257D 		sub	sp, sp, #660
 3607              		.cfi_def_cfa_offset 696
 3608              	.LVL307:
 3609              	.LBB361:
 3610              	.LBB362:
 3611              		.loc 4 136 0
 3612 1568 934B     		ldr	r3, .L260
 3613 156a 9B69     		ldr	r3, [r3, #24]
 3614 156c 934A     		ldr	r2, .L260+4
 3615 156e 9A61     		str	r2, [r3, #24]
 3616              	.LVL308:
 3617              	.LBE362:
 3618              	.LBE361:
 3619              		.loc 1 1416 0
 3620 1570 1922     		movs	r2, #25
 3621 1572 0421     		movs	r1, #4
 3622 1574 9248     		ldr	r0, .L260+8
 3623              	.LVL309:
 3624 1576 FFF7FEFF 		bl	_pal_lld_setgroupmode
 3625              	.LVL310:
 3626              		.loc 1 1417 0
 3627 157a 0020     		movs	r0, #0
 3628 157c FFF7FEFF 		bl	set_pga
 3629              	.LVL311:
 3630              		.loc 1 1422 0
ARM GAS  C:\Users\RAKIBU~1\AppData\Local\Temp\cc76R1kY.s 			page 65


 3631 1580 9048     		ldr	r0, .L260+12
 3632 1582 FFF7FEFF 		bl	sdcConnect
 3633              	.LVL312:
 3634 1586 0446     		mov	r4, r0
 3635              	.LVL313:
 3636              	.LBB363:
 3637              	.LBB364:
 3638              	.LBB365:
 3639              		.loc 6 194 0
 3640 1588 4FF0FF33 		mov	r3, #-1
 3641 158c 0222     		movs	r2, #2
 3642 158e 07A9     		add	r1, sp, #28
 3643              	.LVL314:
 3644 1590 8D48     		ldr	r0, .L260+16
 3645 1592 FFF7FEFF 		bl	chEvtRegisterMaskWithFlags
 3646              	.LVL315:
 3647              	.LBE365:
 3648              	.LBE364:
 3649              	.LBE363:
 3650              		.loc 1 1428 0
 3651 1596 64B3     		cbz	r4, .L176
 3652              		.loc 1 1430 0
 3653 1598 2246     		mov	r2, r4
 3654 159a 8C49     		ldr	r1, .L260+20
 3655 159c 8C48     		ldr	r0, .L260+24
 3656 159e FFF7FEFF 		bl	chprintf
 3657              	.LVL316:
 3658              		.loc 1 1431 0
 3659 15a2 2346     		mov	r3, r4
 3660 15a4 8B4A     		ldr	r2, .L260+28
 3661 15a6 6421     		movs	r1, #100
 3662 15a8 8B48     		ldr	r0, .L260+32
 3663 15aa FFF7FEFF 		bl	chsnprintf
 3664              	.LVL317:
 3665              		.loc 1 1432 0
 3666 15ae 8B4B     		ldr	r3, .L260+36
 3667 15b0 0122     		movs	r2, #1
 3668 15b2 83F89A20 		strb	r2, [r3, #154]
 3669              	.L177:
 3670              		.loc 1 1439 0
 3671 15b6 0122     		movs	r2, #1
 3672 15b8 8949     		ldr	r1, .L260+40
 3673 15ba 8A48     		ldr	r0, .L260+44
 3674 15bc FFF7FEFF 		bl	f_mount
 3675              	.LVL318:
 3676              		.loc 1 1440 0
 3677 15c0 0746     		mov	r7, r0
 3678 15c2 D8B1     		cbz	r0, .L178
 3679              		.loc 1 1442 0
 3680 15c4 0246     		mov	r2, r0
 3681 15c6 8849     		ldr	r1, .L260+48
 3682 15c8 8148     		ldr	r0, .L260+24
 3683              	.LVL319:
 3684 15ca FFF7FEFF 		bl	chprintf
 3685              	.LVL320:
 3686              		.loc 1 1443 0
 3687 15ce 3B46     		mov	r3, r7
ARM GAS  C:\Users\RAKIBU~1\AppData\Local\Temp\cc76R1kY.s 			page 66


 3688 15d0 864A     		ldr	r2, .L260+52
 3689 15d2 6421     		movs	r1, #100
 3690 15d4 8048     		ldr	r0, .L260+32
 3691 15d6 FFF7FEFF 		bl	chsnprintf
 3692              	.LVL321:
 3693              		.loc 1 1444 0
 3694 15da 804B     		ldr	r3, .L260+36
 3695 15dc 0122     		movs	r2, #1
 3696 15de 83F89A20 		strb	r2, [r3, #154]
 3697              	.L179:
 3698              		.loc 1 1388 0
 3699 15e2 0025     		movs	r5, #0
 3700 15e4 0395     		str	r5, [sp, #12]
 3701 15e6 A946     		mov	r9, r5
 3702 15e8 0595     		str	r5, [sp, #20]
 3703 15ea 0495     		str	r5, [sp, #16]
 3704 15ec AB46     		mov	fp, r5
 3705 15ee 2E46     		mov	r6, r5
 3706 15f0 ACE3     		b	.L223
 3707              	.LVL322:
 3708              	.L176:
 3709              		.loc 1 1436 0
 3710 15f2 7F49     		ldr	r1, .L260+56
 3711 15f4 7648     		ldr	r0, .L260+24
 3712 15f6 FFF7FEFF 		bl	chprintf
 3713              	.LVL323:
 3714 15fa DCE7     		b	.L177
 3715              	.LVL324:
 3716              	.L178:
 3717              		.loc 1 1449 0
 3718 15fc 7D49     		ldr	r1, .L260+60
 3719 15fe 7448     		ldr	r0, .L260+24
 3720              	.LVL325:
 3721 1600 FFF7FEFF 		bl	chprintf
 3722              	.LVL326:
 3723 1604 EDE7     		b	.L179
 3724              	.LVL327:
 3725              	.L257:
 3726              		.loc 1 1457 0
 3727 1606 724C     		ldr	r4, .L260+24
 3728 1608 7B49     		ldr	r1, .L260+64
 3729 160a 2046     		mov	r0, r4
 3730 160c FFF7FEFF 		bl	chprintf
 3731              	.LVL328:
 3732              		.loc 1 1458 0
 3733 1610 7A4B     		ldr	r3, .L260+68
 3734 1612 1A68     		ldr	r2, [r3]
 3735 1614 7A4B     		ldr	r3, .L260+72
 3736 1616 1B68     		ldr	r3, [r3]
 3737 1618 7A49     		ldr	r1, .L260+76
 3738 161a 2046     		mov	r0, r4
 3739 161c FFF7FEFF 		bl	chprintf
 3740              	.LVL329:
 3741              		.loc 1 1459 0
 3742 1620 6E4B     		ldr	r3, .L260+36
 3743 1622 0022     		movs	r2, #0
 3744 1624 83F89820 		strb	r2, [r3, #152]
ARM GAS  C:\Users\RAKIBU~1\AppData\Local\Temp\cc76R1kY.s 			page 67


 3745 1628 99E3     		b	.L180
 3746              	.L258:
 3747              		.loc 1 1463 0
 3748 162a 6C4C     		ldr	r4, .L260+36
 3749 162c B4F86C20 		ldrh	r2, [r4, #108]
 3750 1630 7549     		ldr	r1, .L260+80
 3751 1632 6748     		ldr	r0, .L260+24
 3752 1634 FFF7FEFF 		bl	chprintf
 3753              	.LVL330:
 3754              		.loc 1 1464 0
 3755 1638 B4F86C30 		ldrh	r3, [r4, #108]
 3756 163c 059A     		ldr	r2, [sp, #20]
 3757 163e 1A44     		add	r2, r2, r3
 3758 1640 0592     		str	r2, [sp, #20]
 3759              	.LVL331:
 3760              		.loc 1 1465 0
 3761 1642 0023     		movs	r3, #0
 3762 1644 A4F86C30 		strh	r3, [r4, #108]	@ movhi
 3763 1648 90E3     		b	.L181
 3764              	.LVL332:
 3765              	.L259:
 3766              	.LBB366:
 3767              	.LBB367:
 3768              		.loc 1 1480 0
 3769 164a 0120     		movs	r0, #1
 3770 164c FFF7FEFF 		bl	set_pga
 3771              	.LVL333:
 3772              		.loc 1 1483 0
 3773 1650 4FF00443 		mov	r3, #-2080374784
 3774 1654 4AF80630 		str	r3, [r10, r6]	@ unaligned
 3775              		.loc 1 1484 0
 3776 1658 321D     		adds	r2, r6, #4
 3777              	.LVL334:
 3778              		.loc 1 1485 0
 3779 165a 604B     		ldr	r3, .L260+36
 3780 165c 5B6B     		ldr	r3, [r3, #52]
 3781 165e 5B08     		lsrs	r3, r3, #1
 3782              	.LVL335:
 3783              		.loc 1 1486 0
 3784 1660 4AF80230 		str	r3, [r10, r2]	@ unaligned
 3785              		.loc 1 1487 0
 3786 1664 06F10803 		add	r3, r6, #8
 3787              	.LVL336:
 3788              		.loc 1 1489 0
 3789 1668 4FF00042 		mov	r2, #-2147483648
 3790 166c 4AF80320 		str	r2, [r10, r3]	@ unaligned
 3791              		.loc 1 1490 0
 3792 1670 0C36     		adds	r6, r6, #12
 3793              	.LVL337:
 3794 1672 ADE3     		b	.L184
 3795              	.L186:
 3796              	.LBE367:
 3797              		.loc 1 1496 0
 3798 1674 0120     		movs	r0, #1
 3799 1676 FFF7FEFF 		bl	set_pga
 3800              	.LVL338:
 3801 167a A9E3     		b	.L184
ARM GAS  C:\Users\RAKIBU~1\AppData\Local\Temp\cc76R1kY.s 			page 68


 3802              	.L187:
 3803              		.loc 1 1512 0
 3804 167c 634A     		ldr	r2, .L260+84
 3805 167e 6421     		movs	r1, #100
 3806 1680 5548     		ldr	r0, .L260+32
 3807 1682 FFF7FEFF 		bl	chsnprintf
 3808              	.LVL339:
 3809              		.loc 1 1513 0
 3810 1686 554B     		ldr	r3, .L260+36
 3811 1688 0122     		movs	r2, #1
 3812 168a 83F89A20 		strb	r2, [r3, #154]
 3813              		.loc 1 1514 0
 3814 168e 1420     		movs	r0, #20
 3815 1690 0021     		movs	r1, #0
 3816 1692 FFF7FEFF 		bl	chThdSleep
 3817              	.LVL340:
 3818              	.L189:
 3819              		.loc 1 1516 0
 3820 1696 514B     		ldr	r3, .L260+36
 3821 1698 0022     		movs	r2, #0
 3822 169a 5A67     		str	r2, [r3, #116]
 3823              		.loc 1 1517 0
 3824 169c 1A67     		str	r2, [r3, #112]
 3825              	.LVL341:
 3826              	.L183:
 3827              	.LBE366:
 3828              		.loc 1 1520 0
 3829 169e 4F4B     		ldr	r3, .L260+36
 3830 16a0 5B7A     		ldrb	r3, [r3, #9]	@ zero_extendqisi2
 3831 16a2 DBB2     		uxtb	r3, r3
 3832 16a4 022B     		cmp	r3, #2
 3833 16a6 08D0     		beq	.L228
 3834              		.loc 1 1569 0
 3835 16a8 4C4B     		ldr	r3, .L260+36
 3836 16aa 5B7A     		ldrb	r3, [r3, #9]	@ zero_extendqisi2
 3837 16ac DBB2     		uxtb	r3, r3
 3838 16ae 052B     		cmp	r3, #5
 3839 16b0 64D0     		beq	.L229
 3840 16b2 CDF808B0 		str	fp, [sp, #8]
 3841 16b6 4C46     		mov	r4, r9
 3842 16b8 CBE1     		b	.L221
 3843              	.L228:
 3844              	.LBB368:
 3845              		.loc 1 1523 0
 3846 16ba 0CA9     		add	r1, sp, #48
 3847 16bc 4448     		ldr	r0, .L260+24
 3848 16be FFF7FEFF 		bl	new_logfile
 3849              	.LVL342:
 3850              		.loc 1 1524 0
 3851 16c2 534B     		ldr	r3, .L260+88
 3852 16c4 0122     		movs	r2, #1
 3853 16c6 1A80     		strh	r2, [r3]	@ movhi
 3854              		.loc 1 1525 0
 3855 16c8 1A85     		strh	r2, [r3, #40]	@ movhi
 3856              	.LVL343:
 3857              		.loc 1 1529 0
 3858 16ca 444B     		ldr	r3, .L260+36
ARM GAS  C:\Users\RAKIBU~1\AppData\Local\Temp\cc76R1kY.s 			page 69


 3859 16cc 0022     		movs	r2, #0
 3860 16ce 1A67     		str	r2, [r3, #112]
 3861              		.loc 1 1530 0
 3862 16d0 5A67     		str	r2, [r3, #116]
 3863              		.loc 1 1531 0
 3864 16d2 0446     		mov	r4, r0
 3865 16d4 0028     		cmp	r0, #0
 3866 16d6 3AD1     		bne	.L191
 3867              	.LVL344:
 3868              	.LBB369:
 3869              		.loc 1 1537 0
 3870 16d8 93F89B20 		ldrb	r2, [r3, #155]	@ zero_extendqisi2
 3871 16dc 0432     		adds	r2, r2, #4
 3872 16de 03EB8202 		add	r2, r3, r2, lsl #2
 3873 16e2 126A     		ldr	r2, [r2, #32]
 3874 16e4 5208     		lsrs	r2, r2, #1
 3875              	.LVL345:
 3876              		.loc 1 1538 0
 3877 16e6 C3F81C23 		str	r2, [r3, #796]
 3878              	.LVL346:
 3879              		.loc 1 1543 0
 3880 16ea 4FF00442 		mov	r2, #-2080374784
 3881 16ee C3F82023 		str	r2, [r3, #800]
 3882              	.LVL347:
 3883              		.loc 1 1545 0
 3884 16f2 93F89B20 		ldrb	r2, [r3, #155]	@ zero_extendqisi2
 3885 16f6 0432     		adds	r2, r2, #4
 3886 16f8 03EB8202 		add	r2, r3, r2, lsl #2
 3887 16fc 126A     		ldr	r2, [r2, #32]
 3888 16fe 5208     		lsrs	r2, r2, #1
 3889              	.LVL348:
 3890              		.loc 1 1546 0
 3891 1700 C3F82423 		str	r2, [r3, #804]
 3892              	.LVL349:
 3893              		.loc 1 1549 0
 3894 1704 4FF00042 		mov	r2, #-2147483648
 3895 1708 C3F82823 		str	r2, [r3, #808]
 3896              	.LVL350:
 3897              		.loc 1 1552 0
 3898 170c 414B     		ldr	r3, .L260+92
 3899 170e 9A69     		ldr	r2, [r3, #24]
 3900 1710 5A61     		str	r2, [r3, #20]
 3901              	.LVL351:
 3902              		.loc 1 1554 0
 3903 1712 0021     		movs	r1, #0
 3904              	.LVL352:
 3905              	.L192:
 3906              		.loc 1 1554 0 is_stmt 0 discriminator 1
 3907 1714 3F4B     		ldr	r3, .L260+92
 3908 1716 1B69     		ldr	r3, [r3, #16]
 3909 1718 8B42     		cmp	r3, r1
 3910 171a 08D9     		bls	.L230
 3911              		.loc 1 1556 0 is_stmt 1 discriminator 3
 3912 171c 01F10802 		add	r2, r1, #8
 3913 1720 3C4B     		ldr	r3, .L260+92
 3914 1722 03EB8203 		add	r3, r3, r2, lsl #2
 3915 1726 0022     		movs	r2, #0
ARM GAS  C:\Users\RAKIBU~1\AppData\Local\Temp\cc76R1kY.s 			page 70


 3916 1728 5A60     		str	r2, [r3, #4]
 3917              		.loc 1 1554 0 discriminator 3
 3918 172a 0131     		adds	r1, r1, #1
 3919              	.LVL353:
 3920 172c F2E7     		b	.L192
 3921              	.L230:
 3922              		.loc 1 1558 0
 3923 172e 0023     		movs	r3, #0
 3924 1730 3849     		ldr	r1, .L260+92
 3925              	.LVL354:
 3926 1732 49F66442 		movw	r2, #40036
 3927 1736 8B54     		strb	r3, [r1, r2]
 3928              		.loc 1 1559 0
 3929 1738 284A     		ldr	r2, .L260+36
 3930 173a 0321     		movs	r1, #3
 3931 173c 5172     		strb	r1, [r2, #9]
 3932              	.LVL355:
 3933              	.LBE369:
 3934              		.loc 1 1526 0
 3935 173e 1D46     		mov	r5, r3
 3936              		.loc 1 1528 0
 3937 1740 0493     		str	r3, [sp, #16]
 3938              	.LBB370:
 3939              		.loc 1 1534 0
 3940 1742 02F5477A 		add	r10, r2, #796
 3941              		.loc 1 1550 0
 3942 1746 1026     		movs	r6, #16
 3943 1748 0293     		str	r3, [sp, #8]
 3944 174a 4C46     		mov	r4, r9
 3945              	.LBE370:
 3946 174c 81E1     		b	.L221
 3947              	.LVL356:
 3948              	.L191:
 3949              		.loc 1 1563 0
 3950 174e 234D     		ldr	r5, .L260+36
 3951 1750 4FF00108 		mov	r8, #1
 3952 1754 85F80980 		strb	r8, [r5, #9]
 3953              		.loc 1 1564 0
 3954 1758 0246     		mov	r2, r0
 3955 175a 2F49     		ldr	r1, .L260+96
 3956 175c 1C48     		ldr	r0, .L260+24
 3957              	.LVL357:
 3958 175e FFF7FEFF 		bl	chprintf
 3959              	.LVL358:
 3960              		.loc 1 1565 0
 3961 1762 2346     		mov	r3, r4
 3962 1764 2D4A     		ldr	r2, .L260+100
 3963 1766 6421     		movs	r1, #100
 3964 1768 1B48     		ldr	r0, .L260+32
 3965 176a FFF7FEFF 		bl	chsnprintf
 3966              	.LVL359:
 3967              		.loc 1 1566 0
 3968 176e 85F89A80 		strb	r8, [r5, #154]
 3969              		.loc 1 1526 0
 3970 1772 0025     		movs	r5, #0
 3971              		.loc 1 1528 0
 3972 1774 0495     		str	r5, [sp, #16]
ARM GAS  C:\Users\RAKIBU~1\AppData\Local\Temp\cc76R1kY.s 			page 71


 3973 1776 0295     		str	r5, [sp, #8]
 3974 1778 4C46     		mov	r4, r9
 3975 177a 6AE1     		b	.L221
 3976              	.LVL360:
 3977              	.L229:
 3978              	.LBE368:
 3979              		.loc 1 1571 0
 3980 177c 2849     		ldr	r1, .L260+104
 3981 177e 1448     		ldr	r0, .L260+24
 3982 1780 FFF7FEFF 		bl	chprintf
 3983              	.LVL361:
 3984              		.loc 1 1573 0
 3985 1784 4EB9     		cbnz	r6, .L231
 3986              	.L195:
 3987              		.loc 1 1577 0
 3988 1786 0CA8     		add	r0, sp, #48
 3989 1788 FFF7FEFF 		bl	f_close
 3990              	.LVL362:
 3991              		.loc 1 1578 0
 3992 178c 134B     		ldr	r3, .L260+36
 3993 178e 0122     		movs	r2, #1
 3994 1790 5A72     		strb	r2, [r3, #9]
 3995 1792 CDF808B0 		str	fp, [sp, #8]
 3996 1796 4C46     		mov	r4, r9
 3997 1798 5BE1     		b	.L221
 3998              	.L231:
 3999              		.loc 1 1575 0
 4000 179a A3AB     		add	r3, sp, #652
 4001 179c 3246     		mov	r2, r6
 4002 179e 5146     		mov	r1, r10
 4003 17a0 0CA8     		add	r0, sp, #48
 4004 17a2 FFF7FEFF 		bl	f_write
 4005              	.LVL363:
 4006 17a6 0746     		mov	r7, r0
 4007              	.LVL364:
 4008 17a8 EDE7     		b	.L195
 4009              	.LVL365:
 4010              	.L247:
 4011              	.LBB371:
 4012              		.loc 1 1592 0
 4013 17aa 1A4A     		ldr	r2, .L260+92
 4014 17ac 1269     		ldr	r2, [r2, #16]
 4015 17ae 1344     		add	r3, r3, r2
 4016 17b0 0A4A     		ldr	r2, .L260+36
 4017 17b2 C2F8D837 		str	r3, [r2, #2008]
 4018 17b6 69E1     		b	.L196
 4019              	.L261:
 4020              		.align	2
 4021              	.L260:
 4022 17b8 00000000 		.word	ch
 4023 17bc A8010000 		.word	.LC22
 4024 17c0 00100240 		.word	1073876992
 4025 17c4 00000000 		.word	SDCD1
 4026 17c8 00000000 		.word	evtGPS
 4027 17cc B0010000 		.word	.LC23
 4028 17d0 00000000 		.word	SD6
 4029 17d4 D0010000 		.word	.LC24
ARM GAS  C:\Users\RAKIBU~1\AppData\Local\Temp\cc76R1kY.s 			page 72


 4030 17d8 00000000 		.word	message_buffer
 4031 17dc 00000000 		.word	.LANCHOR2
 4032 17e0 04020000 		.word	.LC26
 4033 17e4 9C050000 		.word	.LANCHOR2+1436
 4034 17e8 08020000 		.word	.LC27
 4035 17ec 24020000 		.word	.LC28
 4036 17f0 EC010000 		.word	.LC25
 4037 17f4 3C020000 		.word	.LC29
 4038 17f8 50020000 		.word	.LC30
 4039 17fc 00000000 		.word	missed_sample_cnt
 4040 1800 00000000 		.word	buffer_overflows
 4041 1804 68020000 		.word	.LC31
 4042 1808 94020000 		.word	.LC32
 4043 180c D4020000 		.word	.LC34
 4044 1810 00000000 		.word	.LANCHOR0
 4045 1814 00000000 		.word	adcBuffer
 4046 1818 EC020000 		.word	.LC35
 4047 181c 08030000 		.word	.LC36
 4048 1820 20030000 		.word	.LC37
 4049              	.L248:
 4050              		.loc 1 1600 0
 4051 1824 AE4A     		ldr	r2, .L262
 4052 1826 49F66443 		movw	r3, #40036
 4053 182a 0021     		movs	r1, #0
 4054 182c D154     		strb	r1, [r2, r3]
 4055              		.loc 1 1601 0
 4056 182e AD4B     		ldr	r3, .L262+4
 4057 1830 5B7A     		ldrb	r3, [r3, #9]	@ zero_extendqisi2
 4058 1832 DBB2     		uxtb	r3, r3
 4059 1834 042B     		cmp	r3, #4
 4060 1836 40F03B81 		bne	.L197
 4061              		.loc 1 1604 0
 4062 183a AA4B     		ldr	r3, .L262+4
 4063 183c 0122     		movs	r2, #1
 4064 183e 83F8D427 		strb	r2, [r3, #2004]
 4065              	.LVL366:
 4066              	.LBB372:
 4067              	.LBB373:
 4068              	.LBB374:
 4069              	.LBB375:
 4070              	.LBB376:
 4071              	.LBB377:
 4072              	.LBB378:
 4073              		.loc 3 493 0
 4074 1842 2023     		movs	r3, #32
 4075              		.syntax unified
 4076              	@ 493 "../../../ChibiOSRepo/chibios191/os/common/ext/ARM/CMSIS/Core/Include/cmsis_gcc.h" 1
 4077 1844 83F31188 		MSR basepri, r3
 4078              	@ 0 "" 2
 4079              	.LVL367:
 4080              		.thumb
 4081              		.syntax unified
 4082              	.LBE378:
 4083              	.LBE377:
 4084              	.LBE376:
 4085              		.loc 2 356 0
 4086 1848 FFF7FEFF 		bl	_stats_start_measure_crit_thd
ARM GAS  C:\Users\RAKIBU~1\AppData\Local\Temp\cc76R1kY.s 			page 73


 4087              	.LVL368:
 4088              		.loc 2 357 0
 4089 184c FFF7FEFF 		bl	_dbg_check_lock
 4090              	.LVL369:
 4091              	.LBE375:
 4092              	.LBE374:
 4093              	.LBB379:
 4094              	.LBB380:
 4095              	.LBB381:
 4096              	.LBB382:
 4097              		.file 8 "../../../ChibiOSRepo/chibios191/os/hal/ports/STM32/LLD/TIMv1/hal_st_lld.h"
 4098              		.loc 8 147 0
 4099 1850 4FF08043 		mov	r3, #1073741824
 4100 1854 D3F82490 		ldr	r9, [r3, #36]
 4101              	.LBE382:
 4102              	.LBE381:
 4103              	.LBE380:
 4104              	.LBE379:
 4105              	.LBB383:
 4106              	.LBB384:
 4107              		.loc 2 367 0
 4108 1858 FFF7FEFF 		bl	_dbg_check_unlock
 4109              	.LVL370:
 4110              		.loc 2 368 0
 4111 185c FFF7FEFF 		bl	_stats_stop_measure_crit_thd
 4112              	.LVL371:
 4113              		.loc 2 374 0
 4114 1860 A14B     		ldr	r3, .L262+8
 4115 1862 1A68     		ldr	r2, [r3]
 4116 1864 9A42     		cmp	r2, r3
 4117 1866 04D0     		beq	.L198
 4118 1868 9B69     		ldr	r3, [r3, #24]
 4119 186a 9968     		ldr	r1, [r3, #8]
 4120 186c 9368     		ldr	r3, [r2, #8]
 4121 186e 9942     		cmp	r1, r3
 4122 1870 65D3     		bcc	.L232
 4123              	.L198:
 4124              	.LVL372:
 4125              	.LBB385:
 4126              	.LBB386:
 4127              	.LBB387:
 4128              		.loc 3 493 0
 4129 1872 0023     		movs	r3, #0
 4130              		.syntax unified
 4131              	@ 493 "../../../ChibiOSRepo/chibios191/os/common/ext/ARM/CMSIS/Core/Include/cmsis_gcc.h" 1
 4132 1874 83F31188 		MSR basepri, r3
 4133              	@ 0 "" 2
 4134              	.LVL373:
 4135              		.thumb
 4136              		.syntax unified
 4137              	.LBE387:
 4138              	.LBE386:
 4139              	.LBE385:
 4140              	.LBE384:
 4141              	.LBE383:
 4142              	.LBE373:
 4143              	.LBE372:
ARM GAS  C:\Users\RAKIBU~1\AppData\Local\Temp\cc76R1kY.s 			page 74


 4144              		.loc 1 1606 0
 4145 1878 022C     		cmp	r4, #2
 4146 187a 64D8     		bhi	.L233
 4147              	.L199:
 4148              	.LVL374:
 4149              	.LBB391:
 4150              	.LBB392:
 4151              	.LBB393:
 4152              	.LBB394:
 4153              	.LBB395:
 4154              	.LBB396:
 4155              	.LBB397:
 4156              		.loc 3 493 0
 4157 187c 2023     		movs	r3, #32
 4158              		.syntax unified
 4159              	@ 493 "../../../ChibiOSRepo/chibios191/os/common/ext/ARM/CMSIS/Core/Include/cmsis_gcc.h" 1
 4160 187e 83F31188 		MSR basepri, r3
 4161              	@ 0 "" 2
 4162              	.LVL375:
 4163              		.thumb
 4164              		.syntax unified
 4165              	.LBE397:
 4166              	.LBE396:
 4167              	.LBE395:
 4168              		.loc 2 356 0
 4169 1882 FFF7FEFF 		bl	_stats_start_measure_crit_thd
 4170              	.LVL376:
 4171              		.loc 2 357 0
 4172 1886 FFF7FEFF 		bl	_dbg_check_lock
 4173              	.LVL377:
 4174              	.LBE394:
 4175              	.LBE393:
 4176              	.LBB398:
 4177              	.LBB399:
 4178              	.LBB400:
 4179              	.LBB401:
 4180              		.loc 8 147 0
 4181 188a 4FF08043 		mov	r3, #1073741824
 4182 188e 5C6A     		ldr	r4, [r3, #36]
 4183              	.LVL378:
 4184              	.LBE401:
 4185              	.LBE400:
 4186              	.LBE399:
 4187              	.LBE398:
 4188              	.LBB402:
 4189              	.LBB403:
 4190              		.loc 2 367 0
 4191 1890 FFF7FEFF 		bl	_dbg_check_unlock
 4192              	.LVL379:
 4193              		.loc 2 368 0
 4194 1894 FFF7FEFF 		bl	_stats_stop_measure_crit_thd
 4195              	.LVL380:
 4196              		.loc 2 374 0
 4197 1898 934B     		ldr	r3, .L262+8
 4198 189a 1A68     		ldr	r2, [r3]
 4199 189c 9A42     		cmp	r2, r3
 4200 189e 04D0     		beq	.L200
ARM GAS  C:\Users\RAKIBU~1\AppData\Local\Temp\cc76R1kY.s 			page 75


 4201 18a0 9B69     		ldr	r3, [r3, #24]
 4202 18a2 9968     		ldr	r1, [r3, #8]
 4203 18a4 9368     		ldr	r3, [r2, #8]
 4204 18a6 9942     		cmp	r1, r3
 4205 18a8 52D3     		bcc	.L234
 4206              	.L200:
 4207              	.LVL381:
 4208              	.LBB404:
 4209              	.LBB405:
 4210              	.LBB406:
 4211              		.loc 3 493 0
 4212 18aa 0023     		movs	r3, #0
 4213              		.syntax unified
 4214              	@ 493 "../../../ChibiOSRepo/chibios191/os/common/ext/ARM/CMSIS/Core/Include/cmsis_gcc.h" 1
 4215 18ac 83F31188 		MSR basepri, r3
 4216              	@ 0 "" 2
 4217              	.LVL382:
 4218              		.thumb
 4219              		.syntax unified
 4220              	.LBE406:
 4221              	.LBE405:
 4222              	.LBE404:
 4223              	.LBE403:
 4224              	.LBE402:
 4225              	.LBE392:
 4226              	.LBE391:
 4227              	.LBB410:
 4228              	.LBB411:
 4229              		.loc 7 463 0
 4230 18b0 A4EB0904 		sub	r4, r4, r9
 4231 18b4 2246     		mov	r2, r4
 4232 18b6 0023     		movs	r3, #0
 4233              	.LVL383:
 4234              	.LBE411:
 4235              	.LBE410:
 4236              		.loc 1 1611 0
 4237 18b8 6001     		lsls	r0, r4, #5
 4238 18ba E10E     		lsrs	r1, r4, #27
 4239 18bc 001B     		subs	r0, r0, r4
 4240 18be 61EB0301 		sbc	r1, r1, r3
 4241 18c2 8C00     		lsls	r4, r1, #2
 4242 18c4 44EA9074 		orr	r4, r4, r0, lsr #30
 4243 18c8 4FEA800C 		lsl	ip, r0, #2
 4244 18cc 1CEB0200 		adds	r0, ip, r2
 4245 18d0 44EB0301 		adc	r1, r4, r3
 4246 18d4 CB00     		lsls	r3, r1, #3
 4247 18d6 43EA5073 		orr	r3, r3, r0, lsr #29
 4248 18da C200     		lsls	r2, r0, #3
 4249              	.LVL384:
 4250 18dc 1046     		mov	r0, r2
 4251 18de 1946     		mov	r1, r3
 4252 18e0 824A     		ldr	r2, .L262+12
 4253 18e2 0023     		movs	r3, #0
 4254 18e4 DFF834B2 		ldr	fp, .L262+60
 4255 18e8 4FF0000C 		mov	ip, #0
 4256 18ec 1BEB000B 		adds	fp, fp, r0
 4257 18f0 4CEB010C 		adc	ip, ip, r1
ARM GAS  C:\Users\RAKIBU~1\AppData\Local\Temp\cc76R1kY.s 			page 76


 4258 18f4 5846     		mov	r0, fp
 4259 18f6 6146     		mov	r1, ip
 4260 18f8 FFF7FEFF 		bl	__aeabi_uldivmod
 4261              	.LVL385:
 4262 18fc 0446     		mov	r4, r0
 4263 18fe 0A28     		cmp	r0, #10
 4264 1900 2AD8     		bhi	.L235
 4265              	.L201:
 4266              		.loc 1 1613 0
 4267 1902 784B     		ldr	r3, .L262+4
 4268 1904 D3F8E037 		ldr	r3, [r3, #2016]
 4269 1908 9C42     		cmp	r4, r3
 4270 190a 02D9     		bls	.L202
 4271              		.loc 1 1614 0
 4272 190c 754B     		ldr	r3, .L262+4
 4273 190e C3F8E047 		str	r4, [r3, #2016]
 4274              	.L202:
 4275              		.loc 1 1616 0
 4276 1912 774B     		ldr	r3, .L262+16
 4277 1914 1B68     		ldr	r3, [r3]
 4278 1916 2BBB     		cbnz	r3, .L236
 4279              	.L203:
 4280              		.loc 1 1622 0
 4281 1918 714A     		ldr	r2, .L262
 4282 191a 5369     		ldr	r3, [r2, #20]
 4283 191c 9269     		ldr	r2, [r2, #24]
 4284 191e 9B1A     		subs	r3, r3, r2
 4285 1920 704A     		ldr	r2, .L262+4
 4286 1922 C2F8D837 		str	r3, [r2, #2008]
 4287              		.loc 1 1623 0
 4288 1926 002B     		cmp	r3, #0
 4289 1928 29DD     		ble	.L237
 4290              	.L204:
 4291              		.loc 1 1627 0
 4292 192a 6D4B     		ldr	r3, .L262
 4293 192c 9A69     		ldr	r2, [r3, #24]
 4294 192e 6D4B     		ldr	r3, .L262+4
 4295 1930 C3F8DC27 		str	r2, [r3, #2012]
 4296              		.loc 1 1629 0
 4297 1934 0222     		movs	r2, #2
 4298 1936 83F8D427 		strb	r2, [r3, #2004]
 4299              		.loc 1 1610 0
 4300 193a 0024     		movs	r4, #0
 4301 193c B8E0     		b	.L197
 4302              	.LVL386:
 4303              	.L232:
 4304              	.LBB412:
 4305              	.LBB390:
 4306              	.LBB389:
 4307              	.LBB388:
 4308              		.loc 2 374 0
 4309 193e 6D48     		ldr	r0, .L262+20
 4310 1940 FFF7FEFF 		bl	chSysHalt
 4311              	.LVL387:
 4312 1944 95E7     		b	.L198
 4313              	.L233:
 4314              	.LBE388:
ARM GAS  C:\Users\RAKIBU~1\AppData\Local\Temp\cc76R1kY.s 			page 77


 4315              	.LBE389:
 4316              	.LBE390:
 4317              	.LBE412:
 4318              		.loc 1 1607 0
 4319 1946 0CA8     		add	r0, sp, #48
 4320 1948 FFF7FEFF 		bl	f_sync
 4321              	.LVL388:
 4322 194c 0746     		mov	r7, r0
 4323              	.LVL389:
 4324 194e 95E7     		b	.L199
 4325              	.LVL390:
 4326              	.L234:
 4327              	.LBB413:
 4328              	.LBB409:
 4329              	.LBB408:
 4330              	.LBB407:
 4331              		.loc 2 374 0
 4332 1950 6848     		ldr	r0, .L262+20
 4333 1952 FFF7FEFF 		bl	chSysHalt
 4334              	.LVL391:
 4335 1956 A8E7     		b	.L200
 4336              	.LVL392:
 4337              	.L235:
 4338              	.LBE407:
 4339              	.LBE408:
 4340              	.LBE409:
 4341              	.LBE413:
 4342              		.loc 1 1612 0
 4343 1958 0246     		mov	r2, r0
 4344 195a 6749     		ldr	r1, .L262+24
 4345 195c 6748     		ldr	r0, .L262+28
 4346 195e FFF7FEFF 		bl	chprintf
 4347              	.LVL393:
 4348 1962 CEE7     		b	.L201
 4349              	.L236:
 4350              		.loc 1 1618 0
 4351 1964 624C     		ldr	r4, .L262+16
 4352 1966 2268     		ldr	r2, [r4]
 4353 1968 6549     		ldr	r1, .L262+32
 4354 196a 6448     		ldr	r0, .L262+28
 4355 196c FFF7FEFF 		bl	chprintf
 4356              	.LVL394:
 4357              		.loc 1 1619 0
 4358 1970 2368     		ldr	r3, [r4]
 4359 1972 049A     		ldr	r2, [sp, #16]
 4360 1974 1A44     		add	r2, r2, r3
 4361 1976 0492     		str	r2, [sp, #16]
 4362              	.LVL395:
 4363              		.loc 1 1620 0
 4364 1978 0023     		movs	r3, #0
 4365 197a 2360     		str	r3, [r4]
 4366 197c CCE7     		b	.L203
 4367              	.LVL396:
 4368              	.L237:
 4369              		.loc 1 1625 0
 4370 197e 584A     		ldr	r2, .L262
 4371 1980 1269     		ldr	r2, [r2, #16]
ARM GAS  C:\Users\RAKIBU~1\AppData\Local\Temp\cc76R1kY.s 			page 78


 4372 1982 1344     		add	r3, r3, r2
 4373 1984 574A     		ldr	r2, .L262+4
 4374 1986 C2F8D837 		str	r3, [r2, #2008]
 4375 198a CEE7     		b	.L204
 4376              	.LVL397:
 4377              	.L249:
 4378              		.loc 1 1645 0
 4379 198c 554B     		ldr	r3, .L262+4
 4380 198e 5B7A     		ldrb	r3, [r3, #9]	@ zero_extendqisi2
 4381 1990 DBB2     		uxtb	r3, r3
 4382 1992 032B     		cmp	r3, #3
 4383 1994 0DD0     		beq	.L238
 4384              	.L206:
 4385              		.loc 1 1649 0
 4386 1996 534B     		ldr	r3, .L262+4
 4387 1998 5B7A     		ldrb	r3, [r3, #9]	@ zero_extendqisi2
 4388 199a DBB2     		uxtb	r3, r3
 4389 199c 042B     		cmp	r3, #4
 4390 199e 0CD0     		beq	.L239
 4391              	.L207:
 4392              		.loc 1 1656 0
 4393 19a0 28F07F48 		bic	r8, r8, #-16777216
 4394 19a4 039A     		ldr	r2, [sp, #12]
 4395              	.LVL398:
 4396 19a6 531C     		adds	r3, r2, #1
 4397 19a8 9845     		cmp	r8, r3
 4398 19aa 0BD1     		bne	.L240
 4399              		.loc 1 1658 0
 4400 19ac CDF80C80 		str	r8, [sp, #12]
 4401              	.LVL399:
 4402 19b0 36E0     		b	.L208
 4403              	.LVL400:
 4404              	.L238:
 4405              		.loc 1 1647 0
 4406 19b2 4C4B     		ldr	r3, .L262+4
 4407 19b4 0421     		movs	r1, #4
 4408 19b6 5972     		strb	r1, [r3, #9]
 4409 19b8 EDE7     		b	.L206
 4410              	.L239:
 4411              		.loc 1 1651 0
 4412 19ba 4AF80620 		str	r2, [r10, r6]	@ unaligned
 4413              		.loc 1 1652 0
 4414 19be 0436     		adds	r6, r6, #4
 4415              	.LVL401:
 4416              		.loc 1 1653 0
 4417 19c0 0134     		adds	r4, r4, #1
 4418              	.LVL402:
 4419 19c2 EDE7     		b	.L207
 4420              	.LVL403:
 4421              	.L240:
 4422              		.loc 1 1657 0
 4423 19c4 1346     		mov	r3, r2
 4424 19c6 4246     		mov	r2, r8
 4425 19c8 4E49     		ldr	r1, .L262+36
 4426 19ca 4C48     		ldr	r0, .L262+28
 4427 19cc FFF7FEFF 		bl	chprintf
 4428              	.LVL404:
ARM GAS  C:\Users\RAKIBU~1\AppData\Local\Temp\cc76R1kY.s 			page 79


 4429              		.loc 1 1658 0
 4430 19d0 CDF80C80 		str	r8, [sp, #12]
 4431              	.LVL405:
 4432 19d4 24E0     		b	.L208
 4433              	.LVL406:
 4434              	.L250:
 4435              		.loc 1 1673 0
 4436 19d6 434B     		ldr	r3, .L262+4
 4437 19d8 5B7A     		ldrb	r3, [r3, #9]	@ zero_extendqisi2
 4438 19da DBB2     		uxtb	r3, r3
 4439 19dc 042B     		cmp	r3, #4
 4440 19de 7BD0     		beq	.L241
 4441              	.L210:
 4442              		.loc 1 1685 0
 4443 19e0 494B     		ldr	r3, .L262+40
 4444 19e2 1B88     		ldrh	r3, [r3]
 4445 19e4 DFF81481 		ldr	r8, .L262+28
 4446 19e8 2A46     		mov	r2, r5
 4447              	.LVL407:
 4448 19ea 4849     		ldr	r1, .L262+44
 4449 19ec 4046     		mov	r0, r8
 4450 19ee FFF7FEFF 		bl	chprintf
 4451              	.LVL408:
 4452              		.loc 1 1686 0
 4453 19f2 3C4B     		ldr	r3, .L262+4
 4454 19f4 D3F8E027 		ldr	r2, [r3, #2016]
 4455 19f8 4549     		ldr	r1, .L262+48
 4456 19fa 4046     		mov	r0, r8
 4457 19fc FFF7FEFF 		bl	chprintf
 4458              	.LVL409:
 4459              		.loc 1 1687 0
 4460 1a00 049B     		ldr	r3, [sp, #16]
 4461 1a02 0093     		str	r3, [sp]
 4462 1a04 059B     		ldr	r3, [sp, #20]
 4463 1a06 029D     		ldr	r5, [sp, #8]
 4464              	.LVL410:
 4465 1a08 2A46     		mov	r2, r5
 4466 1a0a 4249     		ldr	r1, .L262+52
 4467 1a0c 4046     		mov	r0, r8
 4468 1a0e FFF7FEFF 		bl	chprintf
 4469              	.LVL411:
 4470              		.loc 1 1690 0
 4471 1a12 414B     		ldr	r3, .L262+56
 4472 1a14 1A68     		ldr	r2, [r3]
 4473 1a16 2946     		mov	r1, r5
 4474 1a18 1144     		add	r1, r1, r2
 4475 1a1a 0291     		str	r1, [sp, #8]
 4476              	.LVL412:
 4477              		.loc 1 1691 0
 4478 1a1c 0025     		movs	r5, #0
 4479 1a1e 1D60     		str	r5, [r3]
 4480              	.LVL413:
 4481              	.L208:
 4482              		.loc 1 1722 0
 4483 1a20 304B     		ldr	r3, .L262+4
 4484 1a22 0422     		movs	r2, #4
 4485 1a24 83F8D427 		strb	r2, [r3, #2004]
ARM GAS  C:\Users\RAKIBU~1\AppData\Local\Temp\cc76R1kY.s 			page 80


 4486              		.loc 1 1724 0
 4487 1a28 07A8     		add	r0, sp, #28
 4488 1a2a FFF7FEFF 		bl	chEvtGetAndClearFlags
 4489              	.LVL414:
 4490              		.loc 1 1725 0
 4491 1a2e 8046     		mov	r8, r0
 4492 1a30 30B1     		cbz	r0, .L211
 4493              		.loc 1 1727 0
 4494 1a32 10F0010F 		tst	r0, #1
 4495 1a36 73D1     		bne	.L242
 4496              	.LVL415:
 4497              	.L212:
 4498              		.loc 1 1737 0
 4499 1a38 18F0020F 		tst	r8, #2
 4500 1a3c 40F08F80 		bne	.L243
 4501              	.LVL416:
 4502              	.L211:
 4503              		.loc 1 1749 0
 4504 1a40 284B     		ldr	r3, .L262+4
 4505 1a42 5B7A     		ldrb	r3, [r3, #9]	@ zero_extendqisi2
 4506 1a44 DBB2     		uxtb	r3, r3
 4507 1a46 042B     		cmp	r3, #4
 4508 1a48 00F0AB80 		beq	.L244
 4509              	.LVL417:
 4510              	.L213:
 4511              		.loc 1 1787 0
 4512 1a4c 002F     		cmp	r7, #0
 4513 1a4e 40F05F81 		bne	.L245
 4514              	.LVL418:
 4515              	.L221:
 4516              	.LBE371:
 4517              		.loc 1 1581 0
 4518 1a52 234A     		ldr	r2, .L262
 4519 1a54 49F66443 		movw	r3, #40036
 4520 1a58 D35C     		ldrb	r3, [r2, r3]	@ zero_extendqisi2
 4521 1a5a 002B     		cmp	r3, #0
 4522 1a5c 00F06B81 		beq	.L246
 4523              	.LBB458:
 4524              		.loc 1 1584 0
 4525 1a60 1F4B     		ldr	r3, .L262
 4526 1a62 5A69     		ldr	r2, [r3, #20]
 4527 1a64 0832     		adds	r2, r2, #8
 4528 1a66 03EB8202 		add	r2, r3, r2, lsl #2
 4529 1a6a D2F80480 		ldr	r8, [r2, #4]
 4530              	.LVL419:
 4531              		.loc 1 1587 0
 4532 1a6e 5A69     		ldr	r2, [r3, #20]
 4533 1a70 0832     		adds	r2, r2, #8
 4534 1a72 03EB8202 		add	r2, r3, r2, lsl #2
 4535 1a76 0021     		movs	r1, #0
 4536 1a78 5160     		str	r1, [r2, #4]
 4537              		.loc 1 1589 0
 4538 1a7a 5A69     		ldr	r2, [r3, #20]
 4539 1a7c 9B69     		ldr	r3, [r3, #24]
 4540 1a7e D31A     		subs	r3, r2, r3
 4541 1a80 184A     		ldr	r2, .L262+4
 4542 1a82 C2F8D837 		str	r3, [r2, #2008]
ARM GAS  C:\Users\RAKIBU~1\AppData\Local\Temp\cc76R1kY.s 			page 81


 4543              		.loc 1 1590 0
 4544 1a86 8B42     		cmp	r3, r1
 4545 1a88 7FF78FAE 		ble	.L247
 4546              	.L196:
 4547              		.loc 1 1594 0
 4548 1a8c 144B     		ldr	r3, .L262
 4549 1a8e 9969     		ldr	r1, [r3, #24]
 4550 1a90 144A     		ldr	r2, .L262+4
 4551 1a92 C2F8DC17 		str	r1, [r2, #2012]
 4552              		.loc 1 1597 0
 4553 1a96 5A69     		ldr	r2, [r3, #20]
 4554 1a98 0132     		adds	r2, r2, #1
 4555 1a9a 1869     		ldr	r0, [r3, #16]
 4556 1a9c 92FBF0F1 		sdiv	r1, r2, r0
 4557 1aa0 00FB1122 		mls	r2, r0, r1, r2
 4558 1aa4 5A61     		str	r2, [r3, #20]
 4559              		.loc 1 1598 0
 4560 1aa6 5A69     		ldr	r2, [r3, #20]
 4561 1aa8 9B69     		ldr	r3, [r3, #24]
 4562 1aaa 9A42     		cmp	r2, r3
 4563 1aac 3FF4BAAE 		beq	.L248
 4564              	.LVL420:
 4565              	.L197:
 4566              		.loc 1 1636 0
 4567 1ab0 4246     		mov	r2, r8
 4568 1ab2 08F07F43 		and	r3, r8, #-16777216
 4569 1ab6 B3F1034F 		cmp	r3, #-2097152000
 4570 1aba 3FF467AF 		beq	.L249
 4571              	.LVL421:
 4572              		.loc 1 1664 0
 4573 1abe B8F1024F 		cmp	r8, #-2113929216
 4574 1ac2 88D0     		beq	.L250
 4575              		.loc 1 1701 0
 4576 1ac4 0135     		adds	r5, r5, #1
 4577              	.LVL422:
 4578              		.loc 1 1703 0
 4579 1ac6 074B     		ldr	r3, .L262+4
 4580 1ac8 5B7A     		ldrb	r3, [r3, #9]	@ zero_extendqisi2
 4581 1aca DBB2     		uxtb	r3, r3
 4582 1acc 042B     		cmp	r3, #4
 4583 1ace A7D1     		bne	.L208
 4584              		.loc 1 1712 0
 4585 1ad0 4AF80680 		str	r8, [r10, r6]	@ unaligned
 4586              		.loc 1 1713 0
 4587 1ad4 0436     		adds	r6, r6, #4
 4588              	.LVL423:
 4589 1ad6 A3E7     		b	.L208
 4590              	.L241:
 4591              		.loc 1 1677 0
 4592 1ad8 4AF80680 		str	r8, [r10, r6]	@ unaligned
 4593              		.loc 1 1678 0
 4594 1adc 0436     		adds	r6, r6, #4
 4595              	.LVL424:
 4596 1ade 7FE7     		b	.L210
 4597              	.L263:
 4598              		.align	2
 4599              	.L262:
ARM GAS  C:\Users\RAKIBU~1\AppData\Local\Temp\cc76R1kY.s 			page 82


 4600 1ae0 00000000 		.word	adcBuffer
 4601 1ae4 00000000 		.word	.LANCHOR2
 4602 1ae8 00000000 		.word	ch
 4603 1aec A0860100 		.word	100000
 4604 1af0 00000000 		.word	buffer_overflows
 4605 1af4 00000000 		.word	.LANCHOR1
 4606 1af8 34030000 		.word	.LC38
 4607 1afc 00000000 		.word	SD6
 4608 1b00 4C030000 		.word	.LC39
 4609 1b04 64030000 		.word	.LC40
 4610 1b08 00000000 		.word	.LANCHOR0
 4611 1b0c 7C030000 		.word	.LC41
 4612 1b10 A4030000 		.word	.LC42
 4613 1b14 C0030000 		.word	.LC43
 4614 1b18 00000000 		.word	missed_sample_cnt
 4615 1b1c 9F860100 		.word	99999
 4616              	.LVL425:
 4617              	.L242:
 4618              		.loc 1 1729 0
 4619 1b20 BB4A     		ldr	r2, .L264
 4620 1b22 BC49     		ldr	r1, .L264+4
 4621 1b24 BC48     		ldr	r0, .L264+8
 4622              	.LVL426:
 4623 1b26 FFF7FEFF 		bl	chprintf
 4624              	.LVL427:
 4625              		.loc 1 1730 0
 4626 1b2a BC4B     		ldr	r3, .L264+12
 4627 1b2c 5B7A     		ldrb	r3, [r3, #9]	@ zero_extendqisi2
 4628 1b2e DBB2     		uxtb	r3, r3
 4629 1b30 042B     		cmp	r3, #4
 4630 1b32 81D1     		bne	.L212
 4631              	.LBB414:
 4632              		.loc 1 1732 0
 4633 1b34 DFF8D892 		ldr	r9, .L264
 4634 1b38 4846     		mov	r0, r9
 4635 1b3a FFF7FEFF 		bl	strlen
 4636              	.LVL428:
 4637 1b3e 4FF00143 		mov	r3, #-2130706432
 4638 1b42 0246     		mov	r2, r0
 4639 1b44 4946     		mov	r1, r9
 4640 1b46 B648     		ldr	r0, .L264+16
 4641 1b48 FFF7FEFF 		bl	format_data
 4642              	.LVL429:
 4643 1b4c 8146     		mov	r9, r0
 4644              	.LVL430:
 4645              		.loc 1 1733 0
 4646 1b4e 0246     		mov	r2, r0
 4647 1b50 B349     		ldr	r1, .L264+16
 4648 1b52 0AEB0600 		add	r0, r10, r6
 4649              	.LVL431:
 4650 1b56 FFF7FEFF 		bl	memcpy
 4651              	.LVL432:
 4652              		.loc 1 1734 0
 4653 1b5a 4E44     		add	r6, r6, r9
 4654              	.LVL433:
 4655 1b5c 6CE7     		b	.L212
 4656              	.LVL434:
ARM GAS  C:\Users\RAKIBU~1\AppData\Local\Temp\cc76R1kY.s 			page 83


 4657              	.L243:
 4658              	.LBE414:
 4659              		.loc 1 1739 0
 4660 1b5e B14A     		ldr	r2, .L264+20
 4661 1b60 AC49     		ldr	r1, .L264+4
 4662 1b62 AD48     		ldr	r0, .L264+8
 4663 1b64 FFF7FEFF 		bl	chprintf
 4664              	.LVL435:
 4665              		.loc 1 1740 0
 4666 1b68 AC4B     		ldr	r3, .L264+12
 4667 1b6a 5B7A     		ldrb	r3, [r3, #9]	@ zero_extendqisi2
 4668 1b6c DBB2     		uxtb	r3, r3
 4669 1b6e 042B     		cmp	r3, #4
 4670 1b70 7FF466AF 		bne	.L211
 4671              	.LBB415:
 4672              		.loc 1 1742 0
 4673 1b74 DFF8AC82 		ldr	r8, .L264+20
 4674              	.LVL436:
 4675 1b78 4046     		mov	r0, r8
 4676 1b7a FFF7FEFF 		bl	strlen
 4677              	.LVL437:
 4678 1b7e DFF8A092 		ldr	r9, .L264+16
 4679 1b82 4FF00143 		mov	r3, #-2130706432
 4680 1b86 0246     		mov	r2, r0
 4681 1b88 4146     		mov	r1, r8
 4682 1b8a 4846     		mov	r0, r9
 4683 1b8c FFF7FEFF 		bl	format_data
 4684              	.LVL438:
 4685 1b90 8046     		mov	r8, r0
 4686              	.LVL439:
 4687              		.loc 1 1743 0
 4688 1b92 0246     		mov	r2, r0
 4689 1b94 4946     		mov	r1, r9
 4690 1b96 0AEB0600 		add	r0, r10, r6
 4691              	.LVL440:
 4692 1b9a FFF7FEFF 		bl	memcpy
 4693              	.LVL441:
 4694              		.loc 1 1744 0
 4695 1b9e 4644     		add	r6, r6, r8
 4696              	.LVL442:
 4697 1ba0 4EE7     		b	.L211
 4698              	.LVL443:
 4699              	.L244:
 4700              	.LBE415:
 4701              		.loc 1 1751 0
 4702 1ba2 B6F5007F 		cmp	r6, #512
 4703 1ba6 FFF451AF 		bcc	.L213
 4704              	.LVL444:
 4705              	.LBB416:
 4706              	.LBB417:
 4707              	.LBB418:
 4708              	.LBB419:
 4709              	.LBB420:
 4710              	.LBB421:
 4711              	.LBB422:
 4712              		.loc 3 493 0
 4713 1baa 2023     		movs	r3, #32
ARM GAS  C:\Users\RAKIBU~1\AppData\Local\Temp\cc76R1kY.s 			page 84


 4714              		.syntax unified
 4715              	@ 493 "../../../ChibiOSRepo/chibios191/os/common/ext/ARM/CMSIS/Core/Include/cmsis_gcc.h" 1
 4716 1bac 83F31188 		MSR basepri, r3
 4717              	@ 0 "" 2
 4718              	.LVL445:
 4719              		.thumb
 4720              		.syntax unified
 4721              	.LBE422:
 4722              	.LBE421:
 4723              	.LBE420:
 4724              		.loc 2 356 0
 4725 1bb0 FFF7FEFF 		bl	_stats_start_measure_crit_thd
 4726              	.LVL446:
 4727              		.loc 2 357 0
 4728 1bb4 FFF7FEFF 		bl	_dbg_check_lock
 4729              	.LVL447:
 4730              	.LBE419:
 4731              	.LBE418:
 4732              	.LBB423:
 4733              	.LBB424:
 4734              	.LBB425:
 4735              	.LBB426:
 4736              		.loc 8 147 0
 4737 1bb8 4FF08043 		mov	r3, #1073741824
 4738 1bbc D3F82480 		ldr	r8, [r3, #36]
 4739              	.LBE426:
 4740              	.LBE425:
 4741              	.LBE424:
 4742              	.LBE423:
 4743              	.LBB427:
 4744              	.LBB428:
 4745              		.loc 2 367 0
 4746 1bc0 FFF7FEFF 		bl	_dbg_check_unlock
 4747              	.LVL448:
 4748              		.loc 2 368 0
 4749 1bc4 FFF7FEFF 		bl	_stats_stop_measure_crit_thd
 4750              	.LVL449:
 4751              		.loc 2 374 0
 4752 1bc8 974B     		ldr	r3, .L264+24
 4753 1bca 1A68     		ldr	r2, [r3]
 4754 1bcc 9A42     		cmp	r2, r3
 4755 1bce 04D0     		beq	.L214
 4756 1bd0 9B69     		ldr	r3, [r3, #24]
 4757 1bd2 9968     		ldr	r1, [r3, #8]
 4758 1bd4 9368     		ldr	r3, [r2, #8]
 4759 1bd6 9942     		cmp	r1, r3
 4760 1bd8 6DD3     		bcc	.L251
 4761              	.L214:
 4762              	.LVL450:
 4763              	.LBB429:
 4764              	.LBB430:
 4765              	.LBB431:
 4766              		.loc 3 493 0
 4767 1bda 0023     		movs	r3, #0
 4768              		.syntax unified
 4769              	@ 493 "../../../ChibiOSRepo/chibios191/os/common/ext/ARM/CMSIS/Core/Include/cmsis_gcc.h" 1
 4770 1bdc 83F31188 		MSR basepri, r3
ARM GAS  C:\Users\RAKIBU~1\AppData\Local\Temp\cc76R1kY.s 			page 85


 4771              	@ 0 "" 2
 4772              	.LVL451:
 4773              		.thumb
 4774              		.syntax unified
 4775              	.LBE431:
 4776              	.LBE430:
 4777              	.LBE429:
 4778              	.LBE428:
 4779              	.LBE427:
 4780              	.LBE417:
 4781              	.LBE416:
 4782              		.loc 1 1755 0
 4783 1be0 8E4B     		ldr	r3, .L264+12
 4784 1be2 0522     		movs	r2, #5
 4785 1be4 83F8D427 		strb	r2, [r3, #2004]
 4786              		.loc 1 1756 0
 4787 1be8 A3AB     		add	r3, sp, #652
 4788 1bea 3246     		mov	r2, r6
 4789 1bec 5146     		mov	r1, r10
 4790 1bee 0CA8     		add	r0, sp, #48
 4791 1bf0 FFF7FEFF 		bl	f_write
 4792              	.LVL452:
 4793 1bf4 0746     		mov	r7, r0
 4794              	.LVL453:
 4795              	.LBB435:
 4796              	.LBB436:
 4797              	.LBB437:
 4798              	.LBB438:
 4799              	.LBB439:
 4800              	.LBB440:
 4801              	.LBB441:
 4802              		.loc 3 493 0
 4803 1bf6 2023     		movs	r3, #32
 4804              		.syntax unified
 4805              	@ 493 "../../../ChibiOSRepo/chibios191/os/common/ext/ARM/CMSIS/Core/Include/cmsis_gcc.h" 1
 4806 1bf8 83F31188 		MSR basepri, r3
 4807              	@ 0 "" 2
 4808              	.LVL454:
 4809              		.thumb
 4810              		.syntax unified
 4811              	.LBE441:
 4812              	.LBE440:
 4813              	.LBE439:
 4814              		.loc 2 356 0
 4815 1bfc FFF7FEFF 		bl	_stats_start_measure_crit_thd
 4816              	.LVL455:
 4817              		.loc 2 357 0
 4818 1c00 FFF7FEFF 		bl	_dbg_check_lock
 4819              	.LVL456:
 4820              	.LBE438:
 4821              	.LBE437:
 4822              	.LBB442:
 4823              	.LBB443:
 4824              	.LBB444:
 4825              	.LBB445:
 4826              		.loc 8 147 0
 4827 1c04 4FF08043 		mov	r3, #1073741824
ARM GAS  C:\Users\RAKIBU~1\AppData\Local\Temp\cc76R1kY.s 			page 86


 4828 1c08 5E6A     		ldr	r6, [r3, #36]
 4829              	.LVL457:
 4830              	.LBE445:
 4831              	.LBE444:
 4832              	.LBE443:
 4833              	.LBE442:
 4834              	.LBB446:
 4835              	.LBB447:
 4836              		.loc 2 367 0
 4837 1c0a FFF7FEFF 		bl	_dbg_check_unlock
 4838              	.LVL458:
 4839              		.loc 2 368 0
 4840 1c0e FFF7FEFF 		bl	_stats_stop_measure_crit_thd
 4841              	.LVL459:
 4842              		.loc 2 374 0
 4843 1c12 854B     		ldr	r3, .L264+24
 4844 1c14 1A68     		ldr	r2, [r3]
 4845 1c16 9A42     		cmp	r2, r3
 4846 1c18 04D0     		beq	.L215
 4847 1c1a 9B69     		ldr	r3, [r3, #24]
 4848 1c1c 9968     		ldr	r1, [r3, #8]
 4849 1c1e 9368     		ldr	r3, [r2, #8]
 4850 1c20 9942     		cmp	r1, r3
 4851 1c22 4CD3     		bcc	.L252
 4852              	.L215:
 4853              	.LVL460:
 4854              	.LBB448:
 4855              	.LBB449:
 4856              	.LBB450:
 4857              		.loc 3 493 0
 4858 1c24 0023     		movs	r3, #0
 4859              		.syntax unified
 4860              	@ 493 "../../../ChibiOSRepo/chibios191/os/common/ext/ARM/CMSIS/Core/Include/cmsis_gcc.h" 1
 4861 1c26 83F31188 		MSR basepri, r3
 4862              	@ 0 "" 2
 4863              	.LVL461:
 4864              		.thumb
 4865              		.syntax unified
 4866              	.LBE450:
 4867              	.LBE449:
 4868              	.LBE448:
 4869              	.LBE447:
 4870              	.LBE446:
 4871              	.LBE436:
 4872              	.LBE435:
 4873              	.LBB454:
 4874              	.LBB455:
 4875              		.loc 7 463 0
 4876 1c2a A6EB0806 		sub	r6, r6, r8
 4877 1c2e 3246     		mov	r2, r6
 4878 1c30 0023     		movs	r3, #0
 4879              	.LVL462:
 4880              	.LBE455:
 4881              	.LBE454:
 4882              		.loc 1 1758 0
 4883 1c32 7001     		lsls	r0, r6, #5
 4884 1c34 F10E     		lsrs	r1, r6, #27
ARM GAS  C:\Users\RAKIBU~1\AppData\Local\Temp\cc76R1kY.s 			page 87


 4885 1c36 801B     		subs	r0, r0, r6
 4886 1c38 61EB0301 		sbc	r1, r1, r3
 4887 1c3c 8E00     		lsls	r6, r1, #2
 4888 1c3e 46EA9076 		orr	r6, r6, r0, lsr #30
 4889 1c42 4FEA800C 		lsl	ip, r0, #2
 4890 1c46 1CEB020B 		adds	fp, ip, r2
 4891 1c4a 46EB030C 		adc	ip, r6, r3
 4892 1c4e 4FEACC03 		lsl	r3, ip, #3
 4893 1c52 43EA5B73 		orr	r3, r3, fp, lsr #29
 4894 1c56 4FEACB02 		lsl	r2, fp, #3
 4895              	.LVL463:
 4896 1c5a 9346     		mov	fp, r2
 4897 1c5c 9C46     		mov	ip, r3
 4898 1c5e 734A     		ldr	r2, .L264+28
 4899 1c60 0023     		movs	r3, #0
 4900 1c62 DFF8F481 		ldr	r8, .L264+72
 4901 1c66 4FF00009 		mov	r9, #0
 4902 1c6a 1BEB0800 		adds	r0, fp, r8
 4903 1c6e 4CEB0901 		adc	r1, ip, r9
 4904 1c72 FFF7FEFF 		bl	__aeabi_uldivmod
 4905              	.LVL464:
 4906 1c76 0646     		mov	r6, r0
 4907 1c78 0A28     		cmp	r0, #10
 4908 1c7a 24D8     		bhi	.L253
 4909              	.L216:
 4910              		.loc 1 1764 0
 4911 1c7c 6C4B     		ldr	r3, .L264+32
 4912 1c7e 1B68     		ldr	r3, [r3]
 4913 1c80 7BBB     		cbnz	r3, .L254
 4914              	.L217:
 4915              		.loc 1 1771 0
 4916 1c82 664B     		ldr	r3, .L264+12
 4917 1c84 0622     		movs	r2, #6
 4918 1c86 83F8D427 		strb	r2, [r3, #2004]
 4919              	.LVL465:
 4920              		.loc 1 1773 0
 4921 1c8a 03F54773 		add	r3, r3, #796
 4922 1c8e 9A45     		cmp	r10, r3
 4923 1c90 34D0     		beq	.L255
 4924              		.loc 1 1776 0
 4925 1c92 DFF8C8A1 		ldr	r10, .L264+76
 4926              	.LVL466:
 4927              	.L218:
 4928              		.loc 1 1778 0
 4929 1c96 674A     		ldr	r2, .L264+36
 4930 1c98 5369     		ldr	r3, [r2, #20]
 4931 1c9a 9269     		ldr	r2, [r2, #24]
 4932 1c9c 9B1A     		subs	r3, r3, r2
 4933 1c9e 5F4A     		ldr	r2, .L264+12
 4934 1ca0 C2F8D837 		str	r3, [r2, #2008]
 4935              		.loc 1 1779 0
 4936 1ca4 002B     		cmp	r3, #0
 4937 1ca6 2CDD     		ble	.L256
 4938              	.L219:
 4939              		.loc 1 1783 0
 4940 1ca8 624B     		ldr	r3, .L264+36
 4941 1caa 9A69     		ldr	r2, [r3, #24]
ARM GAS  C:\Users\RAKIBU~1\AppData\Local\Temp\cc76R1kY.s 			page 88


 4942 1cac 5B4B     		ldr	r3, .L264+12
 4943 1cae C3F8DC27 		str	r2, [r3, #2012]
 4944              		.loc 1 1772 0
 4945 1cb2 0026     		movs	r6, #0
 4946 1cb4 CAE6     		b	.L213
 4947              	.LVL467:
 4948              	.L251:
 4949              	.LBB456:
 4950              	.LBB434:
 4951              	.LBB433:
 4952              	.LBB432:
 4953              		.loc 2 374 0
 4954 1cb6 6048     		ldr	r0, .L264+40
 4955 1cb8 FFF7FEFF 		bl	chSysHalt
 4956              	.LVL468:
 4957 1cbc 8DE7     		b	.L214
 4958              	.LVL469:
 4959              	.L252:
 4960              	.LBE432:
 4961              	.LBE433:
 4962              	.LBE434:
 4963              	.LBE456:
 4964              	.LBB457:
 4965              	.LBB453:
 4966              	.LBB452:
 4967              	.LBB451:
 4968 1cbe 5E48     		ldr	r0, .L264+40
 4969 1cc0 FFF7FEFF 		bl	chSysHalt
 4970              	.LVL470:
 4971 1cc4 AEE7     		b	.L215
 4972              	.L253:
 4973              	.LBE451:
 4974              	.LBE452:
 4975              	.LBE453:
 4976              	.LBE457:
 4977              		.loc 1 1760 0
 4978 1cc6 0246     		mov	r2, r0
 4979 1cc8 5C49     		ldr	r1, .L264+44
 4980 1cca 5348     		ldr	r0, .L264+8
 4981 1ccc FFF7FEFF 		bl	chprintf
 4982              	.LVL471:
 4983              		.loc 1 1761 0
 4984 1cd0 524B     		ldr	r3, .L264+12
 4985 1cd2 D3F8E037 		ldr	r3, [r3, #2016]
 4986 1cd6 9E42     		cmp	r6, r3
 4987 1cd8 D0D9     		bls	.L216
 4988              		.loc 1 1762 0
 4989 1cda 504B     		ldr	r3, .L264+12
 4990 1cdc C3F8E067 		str	r6, [r3, #2016]
 4991 1ce0 CCE7     		b	.L216
 4992              	.L254:
 4993              		.loc 1 1766 0
 4994 1ce2 534E     		ldr	r6, .L264+32
 4995 1ce4 3268     		ldr	r2, [r6]
 4996 1ce6 5649     		ldr	r1, .L264+48
 4997 1ce8 4B48     		ldr	r0, .L264+8
 4998 1cea FFF7FEFF 		bl	chprintf
ARM GAS  C:\Users\RAKIBU~1\AppData\Local\Temp\cc76R1kY.s 			page 89


 4999              	.LVL472:
 5000              		.loc 1 1767 0
 5001 1cee 3368     		ldr	r3, [r6]
 5002 1cf0 049A     		ldr	r2, [sp, #16]
 5003 1cf2 1A44     		add	r2, r2, r3
 5004 1cf4 0492     		str	r2, [sp, #16]
 5005              	.LVL473:
 5006              		.loc 1 1768 0
 5007 1cf6 0023     		movs	r3, #0
 5008 1cf8 3360     		str	r3, [r6]
 5009 1cfa C2E7     		b	.L217
 5010              	.LVL474:
 5011              	.L255:
 5012              		.loc 1 1774 0
 5013 1cfc A3F5207A 		sub	r10, r3, #640
 5014              	.LVL475:
 5015 1d00 C9E7     		b	.L218
 5016              	.LVL476:
 5017              	.L256:
 5018              		.loc 1 1781 0
 5019 1d02 4C4A     		ldr	r2, .L264+36
 5020 1d04 1269     		ldr	r2, [r2, #16]
 5021 1d06 1344     		add	r3, r3, r2
 5022 1d08 444A     		ldr	r2, .L264+12
 5023 1d0a C2F8D837 		str	r3, [r2, #2008]
 5024 1d0e CBE7     		b	.L219
 5025              	.LVL477:
 5026              	.L245:
 5027              		.loc 1 1789 0
 5028 1d10 DFF84C81 		ldr	r8, .L264+80
 5029 1d14 3A46     		mov	r2, r7
 5030 1d16 4146     		mov	r1, r8
 5031 1d18 3F48     		ldr	r0, .L264+8
 5032 1d1a FFF7FEFF 		bl	chprintf
 5033              	.LVL478:
 5034              		.loc 1 1790 0
 5035 1d1e 3B46     		mov	r3, r7
 5036 1d20 4246     		mov	r2, r8
 5037 1d22 6421     		movs	r1, #100
 5038 1d24 4748     		ldr	r0, .L264+52
 5039 1d26 FFF7FEFF 		bl	chsnprintf
 5040              	.LVL479:
 5041              		.loc 1 1791 0
 5042 1d2a 3C4B     		ldr	r3, .L264+12
 5043 1d2c 0122     		movs	r2, #1
 5044 1d2e 83F89A20 		strb	r2, [r3, #154]
 5045              		.loc 1 1792 0
 5046 1d32 5A72     		strb	r2, [r3, #9]
 5047 1d34 8DE6     		b	.L221
 5048              	.L246:
 5049 1d36 DDF808B0 		ldr	fp, [sp, #8]
 5050 1d3a A146     		mov	r9, r4
 5051              	.LBE458:
 5052              		.loc 1 1797 0
 5053 1d3c 374B     		ldr	r3, .L264+12
 5054 1d3e 0722     		movs	r2, #7
 5055 1d40 83F8D427 		strb	r2, [r3, #2004]
ARM GAS  C:\Users\RAKIBU~1\AppData\Local\Temp\cc76R1kY.s 			page 90


 5056              		.loc 1 1798 0
 5057 1d44 1420     		movs	r0, #20
 5058 1d46 0021     		movs	r1, #0
 5059 1d48 FFF7FEFF 		bl	chThdSleep
 5060              	.LVL480:
 5061              	.L223:
 5062              		.loc 1 1454 0
 5063 1d4c 334B     		ldr	r3, .L264+12
 5064 1d4e 0022     		movs	r2, #0
 5065 1d50 83F8D427 		strb	r2, [r3, #2004]
 5066              		.loc 1 1455 0
 5067 1d54 93F89830 		ldrb	r3, [r3, #152]	@ zero_extendqisi2
 5068 1d58 002B     		cmp	r3, #0
 5069 1d5a 7FF454AC 		bne	.L257
 5070              	.L180:
 5071              		.loc 1 1461 0
 5072 1d5e 2F4B     		ldr	r3, .L264+12
 5073 1d60 B3F86C30 		ldrh	r3, [r3, #108]
 5074 1d64 9BB2     		uxth	r3, r3
 5075 1d66 002B     		cmp	r3, #0
 5076 1d68 7FF45FAC 		bne	.L258
 5077              	.L181:
 5078              		.loc 1 1469 0
 5079 1d6c 2B4B     		ldr	r3, .L264+12
 5080 1d6e 1B6F     		ldr	r3, [r3, #112]
 5081 1d70 002B     		cmp	r3, #0
 5082 1d72 B8BF     		it	lt
 5083 1d74 5B42     		rsblt	r3, r3, #0
 5084 1d76 344A     		ldr	r2, .L264+56
 5085 1d78 9342     		cmp	r3, r2
 5086 1d7a 05DC     		bgt	.L182
 5087              		.loc 1 1469 0 is_stmt 0 discriminator 2
 5088 1d7c 274B     		ldr	r3, .L264+12
 5089 1d7e 5A6F     		ldr	r2, [r3, #116]
 5090 1d80 314B     		ldr	r3, .L264+56
 5091 1d82 9A42     		cmp	r2, r3
 5092 1d84 7FF78BAC 		ble	.L183
 5093              	.L182:
 5094              		.loc 1 1469 0 discriminator 3
 5095 1d88 244B     		ldr	r3, .L264+12
 5096 1d8a 5B7A     		ldrb	r3, [r3, #9]	@ zero_extendqisi2
 5097 1d8c 002B     		cmp	r3, #0
 5098 1d8e 3FF486AC 		beq	.L183
 5099              	.LBB459:
 5100              		.loc 1 1472 0 is_stmt 1
 5101 1d92 224B     		ldr	r3, .L264+12
 5102 1d94 93F89B40 		ldrb	r4, [r3, #155]	@ zero_extendqisi2
 5103 1d98 E4B2     		uxtb	r4, r4
 5104              	.LVL481:
 5105              		.loc 1 1474 0
 5106 1d9a 2C4B     		ldr	r3, .L264+60
 5107 1d9c 93F83C30 		ldrb	r3, [r3, #60]	@ zero_extendqisi2
 5108 1da0 B3B1     		cbz	r3, .L184
 5109              		.loc 1 1474 0 is_stmt 0 discriminator 1
 5110 1da2 1E4B     		ldr	r3, .L264+12
 5111 1da4 93F89B30 		ldrb	r3, [r3, #155]	@ zero_extendqisi2
 5112 1da8 DBB2     		uxtb	r3, r3
ARM GAS  C:\Users\RAKIBU~1\AppData\Local\Temp\cc76R1kY.s 			page 91


 5113 1daa 012B     		cmp	r3, #1
 5114 1dac 10D0     		beq	.L184
 5115              		.loc 1 1476 0 is_stmt 1
 5116 1dae 1B4B     		ldr	r3, .L264+12
 5117 1db0 5B7A     		ldrb	r3, [r3, #9]	@ zero_extendqisi2
 5118 1db2 DBB2     		uxtb	r3, r3
 5119 1db4 032B     		cmp	r3, #3
 5120 1db6 05D0     		beq	.L185
 5121              		.loc 1 1476 0 is_stmt 0 discriminator 1
 5122 1db8 184B     		ldr	r3, .L264+12
 5123 1dba 5B7A     		ldrb	r3, [r3, #9]	@ zero_extendqisi2
 5124 1dbc DBB2     		uxtb	r3, r3
 5125 1dbe 042B     		cmp	r3, #4
 5126 1dc0 7FF458AC 		bne	.L186
 5127              	.L185:
 5128              		.loc 1 1478 0 is_stmt 1
 5129 1dc4 214B     		ldr	r3, .L264+60
 5130 1dc6 1B88     		ldrh	r3, [r3]
 5131 1dc8 9BB2     		uxth	r3, r3
 5132 1dca 1D2B     		cmp	r3, #29
 5133 1dcc 7FF63DAC 		bls	.L259
 5134              	.L184:
 5135              		.loc 1 1500 0
 5136 1dd0 124B     		ldr	r3, .L264+12
 5137 1dd2 93F89B30 		ldrb	r3, [r3, #155]	@ zero_extendqisi2
 5138 1dd6 DBB2     		uxtb	r3, r3
 5139 1dd8 A342     		cmp	r3, r4
 5140 1dda 7FF44FAC 		bne	.L187
 5141              		.loc 1 1503 0
 5142 1dde 0F4B     		ldr	r3, .L264+12
 5143 1de0 1B6F     		ldr	r3, [r3, #112]
 5144 1de2 002B     		cmp	r3, #0
 5145 1de4 B8BF     		it	lt
 5146 1de6 5B42     		rsblt	r3, r3, #0
 5147 1de8 194A     		ldr	r2, .L264+64
 5148 1dea 9342     		cmp	r3, r2
 5149 1dec 05DC     		bgt	.L188
 5150              		.loc 1 1503 0 is_stmt 0 discriminator 1
 5151 1dee 0B4B     		ldr	r3, .L264+12
 5152 1df0 5A6F     		ldr	r2, [r3, #116]
 5153 1df2 174B     		ldr	r3, .L264+64
 5154 1df4 9A42     		cmp	r2, r3
 5155 1df6 7FF74EAC 		ble	.L189
 5156              	.L188:
 5157              		.loc 1 1505 0 is_stmt 1
 5158 1dfa 164A     		ldr	r2, .L264+68
 5159 1dfc 6421     		movs	r1, #100
 5160 1dfe 1148     		ldr	r0, .L264+52
 5161 1e00 FFF7FEFF 		bl	chsnprintf
 5162              	.LVL482:
 5163              		.loc 1 1506 0
 5164 1e04 054B     		ldr	r3, .L264+12
 5165 1e06 0122     		movs	r2, #1
 5166 1e08 83F89A20 		strb	r2, [r3, #154]
 5167 1e0c 43E4     		b	.L189
 5168              	.L265:
 5169 1e0e 00BF     		.align	2
ARM GAS  C:\Users\RAKIBU~1\AppData\Local\Temp\cc76R1kY.s 			page 92


 5170              	.L264:
 5171 1e10 00000000 		.word	global_GPRMC
 5172 1e14 F8030000 		.word	.LC44
 5173 1e18 00000000 		.word	SD6
 5174 1e1c 00000000 		.word	.LANCHOR2
 5175 1e20 E4070000 		.word	.LANCHOR2+2020
 5176 1e24 00000000 		.word	global_GPGGA
 5177 1e28 00000000 		.word	ch
 5178 1e2c A0860100 		.word	100000
 5179 1e30 00000000 		.word	buffer_overflows
 5180 1e34 00000000 		.word	adcBuffer
 5181 1e38 00000000 		.word	.LANCHOR1
 5182 1e3c 00040000 		.word	.LC45
 5183 1e40 4C030000 		.word	.LC39
 5184 1e44 00000000 		.word	message_buffer
 5185 1e48 00C2EB0B 		.word	200000000
 5186 1e4c 00000000 		.word	.LANCHOR0
 5187 1e50 00CA9A3B 		.word	1000000000
 5188 1e54 B8020000 		.word	.LC33
 5189 1e58 9F860100 		.word	99999
 5190 1e5c 1C030000 		.word	.LANCHOR2+796
 5191 1e60 18040000 		.word	.LC46
 5192              	.LBE459:
 5193              		.cfi_endproc
 5194              	.LFE349:
 5195              		.size	logger_thread, .-logger_thread
 5196              		.align	1
 5197 1e64 AFF30080 		.p2align 4,,15
 5197      AFF30080 
 5197      AFF30080 
 5198              		.global	check_node_state
 5199              		.syntax unified
 5200              		.thumb
 5201              		.thumb_func
 5202              		.fpu softvfp
 5203              		.type	check_node_state, %function
 5204              	check_node_state:
 5205              	.LFB350:
 5206              		.loc 1 1808 0
 5207              		.cfi_startproc
 5208              		@ args = 0, pretend = 0, frame = 0
 5209              		@ frame_needed = 0, uses_anonymous_args = 0
 5210              		@ link register save eliminated.
 5211              	.LVL483:
 5212              		.loc 1 1809 0
 5213 1e70 054B     		ldr	r3, .L270
 5214 1e72 1B7A     		ldrb	r3, [r3, #8]	@ zero_extendqisi2
 5215 1e74 DBB2     		uxtb	r3, r3
 5216              	.LVL484:
 5217              		.loc 1 1811 0
 5218 1e76 10F0080F 		tst	r0, #8
 5219 1e7a 02D1     		bne	.L269
 5220              		.loc 1 1817 0
 5221 1e7c 03F0F700 		and	r0, r3, #247
 5222              	.LVL485:
 5223              		.loc 1 1821 0
 5224 1e80 7047     		bx	lr
ARM GAS  C:\Users\RAKIBU~1\AppData\Local\Temp\cc76R1kY.s 			page 93


 5225              	.LVL486:
 5226              	.L269:
 5227              		.loc 1 1813 0
 5228 1e82 43F00800 		orr	r0, r3, #8
 5229              	.LVL487:
 5230 1e86 7047     		bx	lr
 5231              	.L271:
 5232              		.align	2
 5233              	.L270:
 5234 1e88 00000000 		.word	.LANCHOR2
 5235              		.cfi_endproc
 5236              	.LFE350:
 5237              		.size	check_node_state, .-check_node_state
 5238              		.align	1
 5239 1e8c AFF30080 		.p2align 4,,15
 5240              		.global	check_valid_relay
 5241              		.syntax unified
 5242              		.thumb
 5243              		.thumb_func
 5244              		.fpu softvfp
 5245              		.type	check_valid_relay, %function
 5246              	check_valid_relay:
 5247              	.LFB351:
 5248              		.loc 1 1827 0
 5249              		.cfi_startproc
 5250              		@ args = 0, pretend = 0, frame = 0
 5251              		@ frame_needed = 0, uses_anonymous_args = 0
 5252              		@ link register save eliminated.
 5253              	.LVL488:
 5254              		.loc 1 1829 0
 5255 1e90 4128     		cmp	r0, #65
 5256 1e92 01D0     		beq	.L276
 5257              		.loc 1 1833 0
 5258 1e94 0120     		movs	r0, #1
 5259              	.LVL489:
 5260 1e96 7047     		bx	lr
 5261              	.LVL490:
 5262              	.L276:
 5263              		.loc 1 1829 0 discriminator 1
 5264 1e98 044B     		ldr	r3, .L277
 5265 1e9a 1B7A     		ldrb	r3, [r3, #8]	@ zero_extendqisi2
 5266 1e9c 13F0080F 		tst	r3, #8
 5267 1ea0 01D0     		beq	.L275
 5268              		.loc 1 1833 0
 5269 1ea2 0120     		movs	r0, #1
 5270              	.LVL491:
 5271 1ea4 7047     		bx	lr
 5272              	.LVL492:
 5273              	.L275:
 5274              		.loc 1 1831 0
 5275 1ea6 0020     		movs	r0, #0
 5276              	.LVL493:
 5277              		.loc 1 1834 0
 5278 1ea8 7047     		bx	lr
 5279              	.L278:
 5280 1eaa 00BF     		.align	2
 5281              	.L277:
ARM GAS  C:\Users\RAKIBU~1\AppData\Local\Temp\cc76R1kY.s 			page 94


 5282 1eac 00000000 		.word	.LANCHOR2
 5283              		.cfi_endproc
 5284              	.LFE351:
 5285              		.size	check_valid_relay, .-check_valid_relay
 5286              		.align	1
 5287              		.p2align 4,,15
 5288              		.global	run_cmd
 5289              		.syntax unified
 5290              		.thumb
 5291              		.thumb_func
 5292              		.fpu softvfp
 5293              		.type	run_cmd, %function
 5294              	run_cmd:
 5295              	.LFB352:
 5296              		.loc 1 1843 0
 5297              		.cfi_startproc
 5298              		@ args = 0, pretend = 0, frame = 8
 5299              		@ frame_needed = 0, uses_anonymous_args = 0
 5300              	.LVL494:
 5301 1eb0 2DE9F047 		push	{r4, r5, r6, r7, r8, r9, r10, lr}
 5302              		.cfi_def_cfa_offset 32
 5303              		.cfi_offset 4, -32
 5304              		.cfi_offset 5, -28
 5305              		.cfi_offset 6, -24
 5306              		.cfi_offset 7, -20
 5307              		.cfi_offset 8, -16
 5308              		.cfi_offset 9, -12
 5309              		.cfi_offset 10, -8
 5310              		.cfi_offset 14, -4
 5311 1eb4 84B0     		sub	sp, sp, #16
 5312              		.cfi_def_cfa_offset 48
 5313 1eb6 0646     		mov	r6, r0
 5314 1eb8 0D46     		mov	r5, r1
 5315              		.loc 1 1845 0
 5316 1eba 01F1A008 		add	r8, r1, #160
 5317 1ebe 0022     		movs	r2, #0
 5318 1ec0 0023     		movs	r3, #0
 5319 1ec2 03A9     		add	r1, sp, #12
 5320              	.LVL495:
 5321 1ec4 4046     		mov	r0, r8
 5322              	.LVL496:
 5323 1ec6 FFF7FEFF 		bl	chMBFetchTimeout
 5324              	.LVL497:
 5325              		.loc 1 1846 0
 5326 1eca 0746     		mov	r7, r0
 5327 1ecc 0028     		cmp	r0, #0
 5328 1ece 3DD1     		bne	.L299
 5329              		.loc 1 1852 0
 5330 1ed0 5E22     		movs	r2, #94
 5331 1ed2 3146     		mov	r1, r6
 5332 1ed4 0398     		ldr	r0, [sp, #12]
 5333              	.LVL498:
 5334 1ed6 FFF7FEFF 		bl	memcpy
 5335              	.LVL499:
 5336              		.loc 1 1853 0
 5337 1eda 039C     		ldr	r4, [sp, #12]
 5338 1edc 0023     		movs	r3, #0
ARM GAS  C:\Users\RAKIBU~1\AppData\Local\Temp\cc76R1kY.s 			page 95


 5339 1ede A381     		strh	r3, [r4, #12]	@ movhi
 5340              		.loc 1 1855 0
 5341 1ee0 B37B     		ldrb	r3, [r6, #14]	@ zero_extendqisi2
 5342 1ee2 453B     		subs	r3, r3, #69
 5343 1ee4 2E2B     		cmp	r3, #46
 5344 1ee6 00F28182 		bhi	.L282
 5345 1eea DFE813F0 		tbh	[pc, r3, lsl #1]
 5346              	.L284:
 5347 1eee C101     		.2byte	(.L283-.L284)/2
 5348 1ef0 7F02     		.2byte	(.L282-.L284)/2
 5349 1ef2 7F02     		.2byte	(.L282-.L284)/2
 5350 1ef4 7F02     		.2byte	(.L282-.L284)/2
 5351 1ef6 6E01     		.2byte	(.L285-.L284)/2
 5352 1ef8 7F02     		.2byte	(.L282-.L284)/2
 5353 1efa 7F02     		.2byte	(.L282-.L284)/2
 5354 1efc 7F02     		.2byte	(.L282-.L284)/2
 5355 1efe 7F02     		.2byte	(.L282-.L284)/2
 5356 1f00 7F02     		.2byte	(.L282-.L284)/2
 5357 1f02 7F02     		.2byte	(.L282-.L284)/2
 5358 1f04 7F02     		.2byte	(.L282-.L284)/2
 5359 1f06 7F02     		.2byte	(.L282-.L284)/2
 5360 1f08 7F02     		.2byte	(.L282-.L284)/2
 5361 1f0a A601     		.2byte	(.L286-.L284)/2
 5362 1f0c 7F02     		.2byte	(.L282-.L284)/2
 5363 1f0e 7F02     		.2byte	(.L282-.L284)/2
 5364 1f10 7F02     		.2byte	(.L282-.L284)/2
 5365 1f12 7F02     		.2byte	(.L282-.L284)/2
 5366 1f14 7F02     		.2byte	(.L282-.L284)/2
 5367 1f16 ED01     		.2byte	(.L287-.L284)/2
 5368 1f18 7F02     		.2byte	(.L282-.L284)/2
 5369 1f1a 7F02     		.2byte	(.L282-.L284)/2
 5370 1f1c 7F02     		.2byte	(.L282-.L284)/2
 5371 1f1e 7F02     		.2byte	(.L282-.L284)/2
 5372 1f20 7F02     		.2byte	(.L282-.L284)/2
 5373 1f22 7F02     		.2byte	(.L282-.L284)/2
 5374 1f24 7F02     		.2byte	(.L282-.L284)/2
 5375 1f26 7F02     		.2byte	(.L282-.L284)/2
 5376 1f28 7F02     		.2byte	(.L282-.L284)/2
 5377 1f2a 7F02     		.2byte	(.L282-.L284)/2
 5378 1f2c 7F02     		.2byte	(.L282-.L284)/2
 5379 1f2e 7F02     		.2byte	(.L282-.L284)/2
 5380 1f30 7F02     		.2byte	(.L282-.L284)/2
 5381 1f32 7F02     		.2byte	(.L282-.L284)/2
 5382 1f34 7F02     		.2byte	(.L282-.L284)/2
 5383 1f36 6400     		.2byte	(.L288-.L284)/2
 5384 1f38 7F02     		.2byte	(.L282-.L284)/2
 5385 1f3a 7F02     		.2byte	(.L282-.L284)/2
 5386 1f3c F501     		.2byte	(.L289-.L284)/2
 5387 1f3e 6502     		.2byte	(.L290-.L284)/2
 5388 1f40 3902     		.2byte	(.L291-.L284)/2
 5389 1f42 7F02     		.2byte	(.L282-.L284)/2
 5390 1f44 7F02     		.2byte	(.L282-.L284)/2
 5391 1f46 7F02     		.2byte	(.L282-.L284)/2
 5392 1f48 7F02     		.2byte	(.L282-.L284)/2
 5393 1f4a 3700     		.2byte	(.L292-.L284)/2
 5394              	.LVL500:
 5395              		.p2align 1
ARM GAS  C:\Users\RAKIBU~1\AppData\Local\Temp\cc76R1kY.s 			page 96


 5396              	.L299:
 5397              		.loc 1 1848 0
 5398 1f4c CD49     		ldr	r1, .L304
 5399 1f4e CE48     		ldr	r0, .L304+4
 5400              	.LVL501:
 5401 1f50 FFF7FEFF 		bl	chprintf
 5402              	.LVL502:
 5403              	.L279:
 5404              		.loc 1 2036 0
 5405 1f54 3846     		mov	r0, r7
 5406 1f56 04B0     		add	sp, sp, #16
 5407              		.cfi_remember_state
 5408              		.cfi_def_cfa_offset 32
 5409              		@ sp needed
 5410 1f58 BDE8F087 		pop	{r4, r5, r6, r7, r8, r9, r10, pc}
 5411              	.LVL503:
 5412              	.L292:
 5413              		.cfi_restore_state
 5414              	.LBB460:
 5415              		.loc 1 1860 0
 5416 1f5c B389     		ldrh	r3, [r6, #12]
 5417 1f5e 9BB2     		uxth	r3, r3
 5418 1f60 012B     		cmp	r3, #1
 5419 1f62 1CD8     		bhi	.L300
 5420              		.loc 1 1867 0
 5421 1f64 0023     		movs	r3, #0
 5422 1f66 E373     		strb	r3, [r4, #15]
 5423              		.loc 1 1868 0
 5424 1f68 04F10E00 		add	r0, r4, #14
 5425 1f6c FFF7FEFF 		bl	strlen
 5426              	.LVL504:
 5427 1f70 C64B     		ldr	r3, .L304+8
 5428 1f72 1B7A     		ldrb	r3, [r3, #8]	@ zero_extendqisi2
 5429 1f74 0830     		adds	r0, r0, #8
 5430 1f76 2044     		add	r0, r0, r4
 5431 1f78 C54A     		ldr	r2, .L304+12
 5432 1f7a 0621     		movs	r1, #6
 5433 1f7c 0844     		add	r0, r0, r1
 5434 1f7e FFF7FEFF 		bl	chsnprintf
 5435              	.LVL505:
 5436              		.loc 1 1869 0
 5437 1f82 039C     		ldr	r4, [sp, #12]
 5438 1f84 04F10E00 		add	r0, r4, #14
 5439 1f88 FFF7FEFF 		bl	strlen
 5440              	.LVL506:
 5441 1f8c A081     		strh	r0, [r4, #12]	@ movhi
 5442              		.loc 1 1870 0
 5443 1f8e 0022     		movs	r2, #0
 5444 1f90 0023     		movs	r3, #0
 5445 1f92 2146     		mov	r1, r4
 5446 1f94 05F17800 		add	r0, r5, #120
 5447 1f98 FFF7FEFF 		bl	chMBPostTimeout
 5448              	.LVL507:
 5449              		.loc 1 1871 0
 5450 1f9c DAE7     		b	.L279
 5451              	.L300:
 5452              		.loc 1 1862 0
ARM GAS  C:\Users\RAKIBU~1\AppData\Local\Temp\cc76R1kY.s 			page 97


 5453 1f9e 1022     		movs	r2, #16
 5454 1fa0 0021     		movs	r1, #0
 5455 1fa2 06F10F00 		add	r0, r6, #15
 5456 1fa6 FFF7FEFF 		bl	strtoul
 5457              	.LVL508:
 5458 1faa C0B2     		uxtb	r0, r0
 5459 1fac FFF7FEFF 		bl	check_node_state
 5460              	.LVL509:
 5461 1fb0 B64B     		ldr	r3, .L304+8
 5462 1fb2 1872     		strb	r0, [r3, #8]
 5463              		.loc 1 1873 0
 5464 1fb4 1AE2     		b	.L282
 5465              	.L288:
 5466              		.loc 1 1876 0
 5467 1fb6 3B23     		movs	r3, #59
 5468 1fb8 E373     		strb	r3, [r4, #15]
 5469              		.loc 1 1877 0
 5470 1fba 4923     		movs	r3, #73
 5471 1fbc 2374     		strb	r3, [r4, #16]
 5472              		.loc 1 1878 0
 5473 1fbe DFF8CC92 		ldr	r9, .L304+8
 5474 1fc2 99F82030 		ldrb	r3, [r9, #32]	@ zero_extendqisi2
 5475 1fc6 6374     		strb	r3, [r4, #17]
 5476              		.loc 1 1879 0
 5477 1fc8 99F82130 		ldrb	r3, [r9, #33]	@ zero_extendqisi2
 5478 1fcc A374     		strb	r3, [r4, #18]
 5479              		.loc 1 1880 0
 5480 1fce 0023     		movs	r3, #0
 5481 1fd0 E374     		strb	r3, [r4, #19]
 5482              		.loc 1 1882 0
 5483 1fd2 04F10E00 		add	r0, r4, #14
 5484 1fd6 FFF7FEFF 		bl	strlen
 5485              	.LVL510:
 5486 1fda DFF8E4A2 		ldr	r10, .L304+60
 5487 1fde 0830     		adds	r0, r0, #8
 5488 1fe0 2044     		add	r0, r0, r4
 5489 1fe2 AC4B     		ldr	r3, .L304+16
 5490 1fe4 0093     		str	r3, [sp]
 5491 1fe6 AC4B     		ldr	r3, .L304+20
 5492 1fe8 5246     		mov	r2, r10
 5493 1fea 6421     		movs	r1, #100
 5494 1fec 0630     		adds	r0, r0, #6
 5495 1fee FFF7FEFF 		bl	chsnprintf
 5496              	.LVL511:
 5497              		.loc 1 1883 0
 5498 1ff2 039C     		ldr	r4, [sp, #12]
 5499 1ff4 04F10E00 		add	r0, r4, #14
 5500 1ff8 FFF7FEFF 		bl	strlen
 5501              	.LVL512:
 5502 1ffc 0830     		adds	r0, r0, #8
 5503 1ffe 2044     		add	r0, r0, r4
 5504 2000 A64B     		ldr	r3, .L304+24
 5505 2002 0093     		str	r3, [sp]
 5506 2004 A64B     		ldr	r3, .L304+28
 5507 2006 5246     		mov	r2, r10
 5508 2008 6421     		movs	r1, #100
 5509 200a 0630     		adds	r0, r0, #6
ARM GAS  C:\Users\RAKIBU~1\AppData\Local\Temp\cc76R1kY.s 			page 98


 5510 200c FFF7FEFF 		bl	chsnprintf
 5511              	.LVL513:
 5512              		.loc 1 1884 0
 5513 2010 039C     		ldr	r4, [sp, #12]
 5514 2012 04F10E00 		add	r0, r4, #14
 5515 2016 FFF7FEFF 		bl	strlen
 5516              	.LVL514:
 5517 201a 99F82F30 		ldrb	r3, [r9, #47]	@ zero_extendqisi2
 5518 201e 0830     		adds	r0, r0, #8
 5519 2020 2044     		add	r0, r0, r4
 5520 2022 0093     		str	r3, [sp]
 5521 2024 5523     		movs	r3, #85
 5522 2026 9F4A     		ldr	r2, .L304+32
 5523 2028 6421     		movs	r1, #100
 5524 202a 0630     		adds	r0, r0, #6
 5525 202c FFF7FEFF 		bl	chsnprintf
 5526              	.LVL515:
 5527              		.loc 1 1885 0
 5528 2030 039C     		ldr	r4, [sp, #12]
 5529 2032 04F10E00 		add	r0, r4, #14
 5530 2036 FFF7FEFF 		bl	strlen
 5531              	.LVL516:
 5532 203a 0830     		adds	r0, r0, #8
 5533 203c 2044     		add	r0, r0, r4
 5534 203e 4FF49643 		mov	r3, #19200
 5535 2042 0093     		str	r3, [sp]
 5536 2044 6623     		movs	r3, #102
 5537 2046 984A     		ldr	r2, .L304+36
 5538 2048 6421     		movs	r1, #100
 5539 204a 0630     		adds	r0, r0, #6
 5540 204c FFF7FEFF 		bl	chsnprintf
 5541              	.LVL517:
 5542              		.loc 1 1886 0
 5543 2050 039C     		ldr	r4, [sp, #12]
 5544 2052 04F10E00 		add	r0, r4, #14
 5545 2056 FFF7FEFF 		bl	strlen
 5546              	.LVL518:
 5547 205a DFF85CA2 		ldr	r10, .L304+52
 5548 205e 0830     		adds	r0, r0, #8
 5549 2060 2044     		add	r0, r0, r4
 5550 2062 4FF4FA63 		mov	r3, #2000
 5551 2066 0093     		str	r3, [sp]
 5552 2068 5423     		movs	r3, #84
 5553 206a 5246     		mov	r2, r10
 5554 206c 6421     		movs	r1, #100
 5555 206e 0630     		adds	r0, r0, #6
 5556 2070 FFF7FEFF 		bl	chsnprintf
 5557              	.LVL519:
 5558              		.loc 1 1887 0
 5559 2074 039C     		ldr	r4, [sp, #12]
 5560 2076 04F10E00 		add	r0, r4, #14
 5561 207a FFF7FEFF 		bl	strlen
 5562              	.LVL520:
 5563 207e 99F86438 		ldrb	r3, [r9, #2148]	@ zero_extendqisi2
 5564 2082 0830     		adds	r0, r0, #8
 5565 2084 2044     		add	r0, r0, r4
 5566 2086 0093     		str	r3, [sp]
ARM GAS  C:\Users\RAKIBU~1\AppData\Local\Temp\cc76R1kY.s 			page 99


 5567 2088 6223     		movs	r3, #98
 5568 208a 5246     		mov	r2, r10
 5569 208c 6421     		movs	r1, #100
 5570 208e 0630     		adds	r0, r0, #6
 5571 2090 FFF7FEFF 		bl	chsnprintf
 5572              	.LVL521:
 5573              		.loc 1 1888 0
 5574 2094 DDF80C90 		ldr	r9, [sp, #12]
 5575 2098 09F10E00 		add	r0, r9, #14
 5576 209c FFF7FEFF 		bl	strlen
 5577              	.LVL522:
 5578 20a0 824C     		ldr	r4, .L304+40
 5579 20a2 637B     		ldrb	r3, [r4, #13]	@ zero_extendqisi2
 5580 20a4 0830     		adds	r0, r0, #8
 5581 20a6 4844     		add	r0, r0, r9
 5582 20a8 0193     		str	r3, [sp, #4]
 5583 20aa 631C     		adds	r3, r4, #1
 5584 20ac 0093     		str	r3, [sp]
 5585 20ae 4723     		movs	r3, #71
 5586 20b0 7F4A     		ldr	r2, .L304+44
 5587 20b2 6421     		movs	r1, #100
 5588 20b4 0630     		adds	r0, r0, #6
 5589 20b6 FFF7FEFF 		bl	chsnprintf
 5590              	.LVL523:
 5591              		.loc 1 1889 0
 5592 20ba DDF80C90 		ldr	r9, [sp, #12]
 5593 20be 09F10E00 		add	r0, r9, #14
 5594 20c2 FFF7FEFF 		bl	strlen
 5595              	.LVL524:
 5596 20c6 A37E     		ldrb	r3, [r4, #26]	@ zero_extendqisi2
 5597 20c8 0830     		adds	r0, r0, #8
 5598 20ca 4844     		add	r0, r0, r9
 5599 20cc 04F11B02 		add	r2, r4, #27
 5600 20d0 0192     		str	r2, [sp, #4]
 5601 20d2 0093     		str	r3, [sp]
 5602 20d4 04F10E03 		add	r3, r4, #14
 5603 20d8 764A     		ldr	r2, .L304+48
 5604 20da 6421     		movs	r1, #100
 5605 20dc 0630     		adds	r0, r0, #6
 5606 20de FFF7FEFF 		bl	chsnprintf
 5607              	.LVL525:
 5608              		.loc 1 1890 0
 5609 20e2 04AC     		add	r4, sp, #16
 5610 20e4 54F8049D 		ldr	r9, [r4, #-4]!
 5611 20e8 09F10E00 		add	r0, r9, #14
 5612 20ec FFF7FEFF 		bl	strlen
 5613              	.LVL526:
 5614 20f0 A9F80C00 		strh	r0, [r9, #12]	@ movhi
 5615              		.loc 1 1891 0
 5616 20f4 7835     		adds	r5, r5, #120
 5617              	.LVL527:
 5618 20f6 0022     		movs	r2, #0
 5619 20f8 0023     		movs	r3, #0
 5620 20fa 4946     		mov	r1, r9
 5621 20fc 2846     		mov	r0, r5
 5622 20fe FFF7FEFF 		bl	chMBPostTimeout
 5623              	.LVL528:
ARM GAS  C:\Users\RAKIBU~1\AppData\Local\Temp\cc76R1kY.s 			page 100


 5624              		.loc 1 1893 0
 5625 2102 0022     		movs	r2, #0
 5626 2104 0023     		movs	r3, #0
 5627 2106 2146     		mov	r1, r4
 5628 2108 4046     		mov	r0, r8
 5629 210a FFF7FEFF 		bl	chMBFetchTimeout
 5630              	.LVL529:
 5631              		.loc 1 1894 0
 5632 210e 8046     		mov	r8, r0
 5633 2110 20B1     		cbz	r0, .L294
 5634              		.loc 1 1896 0
 5635 2112 5C49     		ldr	r1, .L304
 5636 2114 5C48     		ldr	r0, .L304+4
 5637              	.LVL530:
 5638 2116 FFF7FEFF 		bl	chprintf
 5639              	.LVL531:
 5640              		.loc 1 1897 0
 5641 211a 1BE7     		b	.L279
 5642              	.LVL532:
 5643              	.L294:
 5644              		.loc 1 1899 0
 5645 211c 5E22     		movs	r2, #94
 5646 211e 3146     		mov	r1, r6
 5647 2120 0398     		ldr	r0, [sp, #12]
 5648              	.LVL533:
 5649 2122 FFF7FEFF 		bl	memcpy
 5650              	.LVL534:
 5651              		.loc 1 1900 0
 5652 2126 039C     		ldr	r4, [sp, #12]
 5653 2128 0023     		movs	r3, #0
 5654 212a A381     		strh	r3, [r4, #12]	@ movhi
 5655              		.loc 1 1901 0
 5656 212c E373     		strb	r3, [r4, #15]
 5657              		.loc 1 1902 0
 5658 212e 04F10E00 		add	r0, r4, #14
 5659 2132 FFF7FEFF 		bl	strlen
 5660              	.LVL535:
 5661 2136 554E     		ldr	r6, .L304+8
 5662              	.LVL536:
 5663 2138 D6F85130 		ldr	r3, [r6, #81]	@ unaligned
 5664 213c 5E4F     		ldr	r7, .L304+52
 5665              	.LVL537:
 5666 213e 0830     		adds	r0, r0, #8
 5667 2140 2044     		add	r0, r0, r4
 5668 2142 0093     		str	r3, [sp]
 5669 2144 6C23     		movs	r3, #108
 5670 2146 3A46     		mov	r2, r7
 5671 2148 6421     		movs	r1, #100
 5672 214a 0630     		adds	r0, r0, #6
 5673 214c FFF7FEFF 		bl	chsnprintf
 5674              	.LVL538:
 5675              		.loc 1 1903 0
 5676 2150 039C     		ldr	r4, [sp, #12]
 5677 2152 04F10E00 		add	r0, r4, #14
 5678 2156 FFF7FEFF 		bl	strlen
 5679              	.LVL539:
 5680 215a D6F85530 		ldr	r3, [r6, #85]	@ unaligned
ARM GAS  C:\Users\RAKIBU~1\AppData\Local\Temp\cc76R1kY.s 			page 101


 5681 215e 0830     		adds	r0, r0, #8
 5682 2160 2044     		add	r0, r0, r4
 5683 2162 0093     		str	r3, [sp]
 5684 2164 6E23     		movs	r3, #110
 5685 2166 3A46     		mov	r2, r7
 5686 2168 6421     		movs	r1, #100
 5687 216a 0630     		adds	r0, r0, #6
 5688 216c FFF7FEFF 		bl	chsnprintf
 5689              	.LVL540:
 5690              		.loc 1 1904 0
 5691 2170 039C     		ldr	r4, [sp, #12]
 5692 2172 04F10E00 		add	r0, r4, #14
 5693 2176 FFF7FEFF 		bl	strlen
 5694              	.LVL541:
 5695 217a 337A     		ldrb	r3, [r6, #8]	@ zero_extendqisi2
 5696 217c 0830     		adds	r0, r0, #8
 5697 217e 2044     		add	r0, r0, r4
 5698 2180 0093     		str	r3, [sp]
 5699 2182 7323     		movs	r3, #115
 5700 2184 4D4A     		ldr	r2, .L304+56
 5701 2186 6421     		movs	r1, #100
 5702 2188 0630     		adds	r0, r0, #6
 5703 218a FFF7FEFF 		bl	chsnprintf
 5704              	.LVL542:
 5705              		.loc 1 1905 0
 5706 218e 039C     		ldr	r4, [sp, #12]
 5707 2190 04F10E00 		add	r0, r4, #14
 5708 2194 FFF7FEFF 		bl	strlen
 5709              	.LVL543:
 5710 2198 96F85930 		ldrb	r3, [r6, #89]	@ zero_extendqisi2
 5711 219c 0830     		adds	r0, r0, #8
 5712 219e 2044     		add	r0, r0, r4
 5713 21a0 0093     		str	r3, [sp]
 5714 21a2 5923     		movs	r3, #89
 5715 21a4 3F4A     		ldr	r2, .L304+32
 5716 21a6 6421     		movs	r1, #100
 5717 21a8 0630     		adds	r0, r0, #6
 5718 21aa FFF7FEFF 		bl	chsnprintf
 5719              	.LVL544:
 5720              		.loc 1 1906 0
 5721 21ae 039C     		ldr	r4, [sp, #12]
 5722 21b0 04F10E00 		add	r0, r4, #14
 5723 21b4 FFF7FEFF 		bl	strlen
 5724              	.LVL545:
 5725 21b8 A081     		strh	r0, [r4, #12]	@ movhi
 5726              		.loc 1 1907 0
 5727 21ba 0022     		movs	r2, #0
 5728 21bc 0023     		movs	r3, #0
 5729 21be 2146     		mov	r1, r4
 5730 21c0 2846     		mov	r0, r5
 5731 21c2 FFF7FEFF 		bl	chMBPostTimeout
 5732              	.LVL546:
 5733              		.loc 1 1908 0
 5734 21c6 4746     		mov	r7, r8
 5735 21c8 C4E6     		b	.L279
 5736              	.LVL547:
 5737              	.L285:
ARM GAS  C:\Users\RAKIBU~1\AppData\Local\Temp\cc76R1kY.s 			page 102


 5738              		.loc 1 1912 0
 5739 21ca 3B23     		movs	r3, #59
 5740 21cc E373     		strb	r3, [r4, #15]
 5741              		.loc 1 1913 0
 5742 21ce 4923     		movs	r3, #73
 5743 21d0 2374     		strb	r3, [r4, #16]
 5744              		.loc 1 1914 0
 5745 21d2 2E4B     		ldr	r3, .L304+8
 5746 21d4 93F82020 		ldrb	r2, [r3, #32]	@ zero_extendqisi2
 5747 21d8 6274     		strb	r2, [r4, #17]
 5748              		.loc 1 1915 0
 5749 21da 93F82120 		ldrb	r2, [r3, #33]	@ zero_extendqisi2
 5750 21de A274     		strb	r2, [r4, #18]
 5751              		.loc 1 1916 0
 5752 21e0 93F82230 		ldrb	r3, [r3, #34]	@ zero_extendqisi2
 5753 21e4 E374     		strb	r3, [r4, #19]
 5754              		.loc 1 1917 0
 5755 21e6 0023     		movs	r3, #0
 5756 21e8 2375     		strb	r3, [r4, #20]
 5757              		.loc 1 1918 0
 5758 21ea 2046     		mov	r0, r4
 5759 21ec FFF7FEFF 		bl	strlen
 5760              	.LVL548:
 5761 21f0 2044     		add	r0, r0, r4
 5762 21f2 807B     		ldrb	r0, [r0, #14]	@ zero_extendqisi2
 5763 21f4 324E     		ldr	r6, .L304+60
 5764              	.LVL549:
 5765 21f6 274B     		ldr	r3, .L304+16
 5766 21f8 0093     		str	r3, [sp]
 5767 21fa 274B     		ldr	r3, .L304+20
 5768 21fc 3246     		mov	r2, r6
 5769 21fe 6421     		movs	r1, #100
 5770 2200 FFF7FEFF 		bl	chsnprintf
 5771              	.LVL550:
 5772              		.loc 1 1919 0
 5773 2204 039C     		ldr	r4, [sp, #12]
 5774 2206 2046     		mov	r0, r4
 5775 2208 FFF7FEFF 		bl	strlen
 5776              	.LVL551:
 5777 220c 2044     		add	r0, r0, r4
 5778 220e 807B     		ldrb	r0, [r0, #14]	@ zero_extendqisi2
 5779 2210 224B     		ldr	r3, .L304+24
 5780 2212 0093     		str	r3, [sp]
 5781 2214 224B     		ldr	r3, .L304+28
 5782 2216 3246     		mov	r2, r6
 5783 2218 6421     		movs	r1, #100
 5784 221a FFF7FEFF 		bl	chsnprintf
 5785              	.LVL552:
 5786              		.loc 1 1920 0
 5787 221e 039C     		ldr	r4, [sp, #12]
 5788 2220 04F10E00 		add	r0, r4, #14
 5789 2224 FFF7FEFF 		bl	strlen
 5790              	.LVL553:
 5791 2228 A081     		strh	r0, [r4, #12]	@ movhi
 5792              		.loc 1 1921 0
 5793 222a 0022     		movs	r2, #0
 5794 222c 0023     		movs	r3, #0
ARM GAS  C:\Users\RAKIBU~1\AppData\Local\Temp\cc76R1kY.s 			page 103


 5795 222e 2146     		mov	r1, r4
 5796 2230 05F17800 		add	r0, r5, #120
 5797 2234 FFF7FEFF 		bl	chMBPostTimeout
 5798              	.LVL554:
 5799              		.loc 1 1922 0
 5800 2238 8CE6     		b	.L279
 5801              	.LVL555:
 5802              	.L286:
 5803              		.loc 1 1926 0
 5804 223a B389     		ldrh	r3, [r6, #12]
 5805 223c 9BB2     		uxth	r3, r3
 5806 223e 0B2B     		cmp	r3, #11
 5807 2240 40F2D480 		bls	.L282
 5808              		.loc 1 1929 0
 5809 2244 114B     		ldr	r3, .L304+8
 5810 2246 1B7A     		ldrb	r3, [r3, #8]	@ zero_extendqisi2
 5811 2248 13F0080F 		tst	r3, #8
 5812 224c 00F0CE80 		beq	.L282
 5813              		.loc 1 1929 0 is_stmt 0 discriminator 1
 5814 2250 0E4B     		ldr	r3, .L304+8
 5815 2252 5B7A     		ldrb	r3, [r3, #9]	@ zero_extendqisi2
 5816 2254 DBB2     		uxtb	r3, r3
 5817 2256 012B     		cmp	r3, #1
 5818 2258 40F0C880 		bne	.L282
 5819              		.loc 1 1931 0 is_stmt 1
 5820 225c 194B     		ldr	r3, .L304+64
 5821 225e 56F8142F 		ldr	r2, [r6, #20]!	@ unaligned
 5822              	.LVL556:
 5823 2262 1A60     		str	r2, [r3]	@ unaligned
 5824 2264 B288     		ldrh	r2, [r6, #4]	@ unaligned
 5825 2266 9A80     		strh	r2, [r3, #4]	@ unaligned
 5826              		.loc 1 1932 0
 5827 2268 084B     		ldr	r3, .L304+8
 5828 226a 0222     		movs	r2, #2
 5829 226c 5A72     		strb	r2, [r3, #9]
 5830 226e BDE0     		b	.L282
 5831              	.LVL557:
 5832              	.L283:
 5833              		.loc 1 1942 0
 5834 2270 064B     		ldr	r3, .L304+8
 5835 2272 5B7A     		ldrb	r3, [r3, #9]	@ zero_extendqisi2
 5836 2274 DBB2     		uxtb	r3, r3
 5837 2276 012B     		cmp	r3, #1
 5838 2278 40F2B880 		bls	.L282
 5839              		.loc 1 1944 0
 5840 227c 034B     		ldr	r3, .L304+8
 5841 227e 0522     		movs	r2, #5
 5842 2280 5A72     		strb	r2, [r3, #9]
 5843 2282 B3E0     		b	.L282
 5844              	.L305:
 5845              		.align	2
 5846              	.L304:
 5847 2284 38040000 		.word	.LC47
 5848 2288 00000000 		.word	SD6
 5849 228c 00000000 		.word	.LANCHOR2
 5850 2290 5C040000 		.word	.LC48
 5851 2294 70040000 		.word	.LC51
ARM GAS  C:\Users\RAKIBU~1\AppData\Local\Temp\cc76R1kY.s 			page 104


 5852 2298 64040000 		.word	.LC49
 5853 229c 80040000 		.word	.LC53
 5854 22a0 78040000 		.word	.LC52
 5855 22a4 88040000 		.word	.LC54
 5856 22a8 90040000 		.word	.LC55
 5857 22ac 00000000 		.word	gps_data
 5858 22b0 A0040000 		.word	.LC57
 5859 22b4 AC040000 		.word	.LC58
 5860 22b8 98040000 		.word	.LC56
 5861 22bc B8040000 		.word	.LC59
 5862 22c0 68040000 		.word	.LC50
 5863 22c4 00000000 		.word	mem_value
 5864              	.L287:
 5865              		.loc 1 1951 0
 5866 22c8 B389     		ldrh	r3, [r6, #12]
 5867 22ca 9BB2     		uxth	r3, r3
 5868 22cc 012B     		cmp	r3, #1
 5869 22ce 2AD9     		bls	.L295
 5870              		.loc 1 1953 0
 5871 22d0 F07B     		ldrb	r0, [r6, #15]	@ zero_extendqisi2
 5872 22d2 FFF7FEFF 		bl	check_valid_relay
 5873              	.LVL558:
 5874 22d6 10BB     		cbnz	r0, .L301
 5875              	.L289:
 5876              		.loc 1 1992 0
 5877 22d8 B389     		ldrh	r3, [r6, #12]
 5878 22da 9BB2     		uxth	r3, r3
 5879 22dc 012B     		cmp	r3, #1
 5880 22de 35D8     		bhi	.L302
 5881              		.loc 1 2000 0
 5882 22e0 039C     		ldr	r4, [sp, #12]
 5883 22e2 0023     		movs	r3, #0
 5884 22e4 E373     		strb	r3, [r4, #15]
 5885              		.loc 1 2001 0
 5886 22e6 04F10E00 		add	r0, r4, #14
 5887 22ea FFF7FEFF 		bl	strlen
 5888              	.LVL559:
 5889 22ee 454B     		ldr	r3, .L306
 5890 22f0 D3F85130 		ldr	r3, [r3, #81]	@ unaligned
 5891 22f4 0830     		adds	r0, r0, #8
 5892 22f6 2044     		add	r0, r0, r4
 5893 22f8 434A     		ldr	r2, .L306+4
 5894 22fa 6421     		movs	r1, #100
 5895 22fc 0630     		adds	r0, r0, #6
 5896 22fe FFF7FEFF 		bl	chsnprintf
 5897              	.LVL560:
 5898              		.loc 1 2002 0
 5899 2302 039C     		ldr	r4, [sp, #12]
 5900 2304 04F10E00 		add	r0, r4, #14
 5901 2308 FFF7FEFF 		bl	strlen
 5902              	.LVL561:
 5903 230c A081     		strh	r0, [r4, #12]	@ movhi
 5904              		.loc 1 2003 0
 5905 230e 0022     		movs	r2, #0
 5906 2310 0023     		movs	r3, #0
 5907 2312 2146     		mov	r1, r4
 5908 2314 05F17800 		add	r0, r5, #120
ARM GAS  C:\Users\RAKIBU~1\AppData\Local\Temp\cc76R1kY.s 			page 105


 5909 2318 FFF7FEFF 		bl	chMBPostTimeout
 5910              	.LVL562:
 5911              		.loc 1 2004 0
 5912 231c 1AE6     		b	.L279
 5913              	.L301:
 5914              		.loc 1 1955 0
 5915 231e F07B     		ldrb	r0, [r6, #15]	@ zero_extendqisi2
 5916 2320 FFF7FEFF 		bl	setRelayState
 5917              	.LVL563:
 5918 2324 D8E7     		b	.L289
 5919              	.L295:
 5920              		.loc 1 1961 0
 5921 2326 374B     		ldr	r3, .L306
 5922 2328 93F85930 		ldrb	r3, [r3, #89]	@ zero_extendqisi2
 5923 232c E373     		strb	r3, [r4, #15]
 5924              		.loc 1 1962 0
 5925 232e 0023     		movs	r3, #0
 5926 2330 2374     		strb	r3, [r4, #16]
 5927              		.loc 1 1963 0
 5928 2332 04F10E00 		add	r0, r4, #14
 5929 2336 FFF7FEFF 		bl	strlen
 5930              	.LVL564:
 5931 233a A081     		strh	r0, [r4, #12]	@ movhi
 5932              		.loc 1 1964 0
 5933 233c 0022     		movs	r2, #0
 5934 233e 0023     		movs	r3, #0
 5935 2340 2146     		mov	r1, r4
 5936 2342 05F17800 		add	r0, r5, #120
 5937 2346 FFF7FEFF 		bl	chMBPostTimeout
 5938              	.LVL565:
 5939              		.loc 1 1965 0
 5940 234a 03E6     		b	.L279
 5941              	.L302:
 5942              		.loc 1 1994 0
 5943 234c 0A22     		movs	r2, #10
 5944 234e 0021     		movs	r1, #0
 5945 2350 06F10F00 		add	r0, r6, #15
 5946 2354 FFF7FEFF 		bl	strtoul
 5947              	.LVL566:
 5948 2358 2A4B     		ldr	r3, .L306
 5949 235a C3F85100 		str	r0, [r3, #81]	@ unaligned
 5950              		.loc 1 2006 0
 5951 235e 45E0     		b	.L282
 5952              	.L291:
 5953              		.loc 1 2010 0
 5954 2360 B389     		ldrh	r3, [r6, #12]
 5955 2362 9BB2     		uxth	r3, r3
 5956 2364 012B     		cmp	r3, #1
 5957 2366 1DD8     		bhi	.L303
 5958              		.loc 1 2018 0
 5959 2368 0023     		movs	r3, #0
 5960 236a E373     		strb	r3, [r4, #15]
 5961              		.loc 1 2019 0
 5962 236c 04F10E00 		add	r0, r4, #14
 5963 2370 FFF7FEFF 		bl	strlen
 5964              	.LVL567:
 5965 2374 234B     		ldr	r3, .L306
ARM GAS  C:\Users\RAKIBU~1\AppData\Local\Temp\cc76R1kY.s 			page 106


 5966 2376 D3F85530 		ldr	r3, [r3, #85]	@ unaligned
 5967 237a 0830     		adds	r0, r0, #8
 5968 237c 2044     		add	r0, r0, r4
 5969 237e 224A     		ldr	r2, .L306+4
 5970 2380 6421     		movs	r1, #100
 5971 2382 0630     		adds	r0, r0, #6
 5972 2384 FFF7FEFF 		bl	chsnprintf
 5973              	.LVL568:
 5974              		.loc 1 2020 0
 5975 2388 039C     		ldr	r4, [sp, #12]
 5976 238a 04F10E00 		add	r0, r4, #14
 5977 238e FFF7FEFF 		bl	strlen
 5978              	.LVL569:
 5979 2392 A081     		strh	r0, [r4, #12]	@ movhi
 5980              		.loc 1 2021 0
 5981 2394 0022     		movs	r2, #0
 5982 2396 0023     		movs	r3, #0
 5983 2398 2146     		mov	r1, r4
 5984 239a 05F17800 		add	r0, r5, #120
 5985 239e FFF7FEFF 		bl	chMBPostTimeout
 5986              	.LVL570:
 5987              		.loc 1 2022 0
 5988 23a2 D7E5     		b	.L279
 5989              	.L303:
 5990              		.loc 1 2012 0
 5991 23a4 0A22     		movs	r2, #10
 5992 23a6 0021     		movs	r1, #0
 5993 23a8 06F10F00 		add	r0, r6, #15
 5994 23ac FFF7FEFF 		bl	strtoul
 5995              	.LVL571:
 5996 23b0 144B     		ldr	r3, .L306
 5997 23b2 C3F85500 		str	r0, [r3, #85]	@ unaligned
 5998              		.loc 1 2024 0
 5999 23b6 19E0     		b	.L282
 6000              	.L290:
 6001              		.loc 1 2027 0
 6002 23b8 3023     		movs	r3, #48
 6003 23ba E373     		strb	r3, [r4, #15]
 6004              		.loc 1 2028 0
 6005 23bc 2046     		mov	r0, r4
 6006 23be FFF7FEFF 		bl	strlen
 6007              	.LVL572:
 6008 23c2 0830     		adds	r0, r0, #8
 6009 23c4 2044     		add	r0, r0, r4
 6010 23c6 114B     		ldr	r3, .L306+8
 6011 23c8 114A     		ldr	r2, .L306+12
 6012 23ca 6421     		movs	r1, #100
 6013 23cc 0630     		adds	r0, r0, #6
 6014 23ce FFF7FEFF 		bl	chsnprintf
 6015              	.LVL573:
 6016              		.loc 1 2029 0
 6017 23d2 039C     		ldr	r4, [sp, #12]
 6018 23d4 04F10E00 		add	r0, r4, #14
 6019 23d8 FFF7FEFF 		bl	strlen
 6020              	.LVL574:
 6021 23dc A081     		strh	r0, [r4, #12]	@ movhi
 6022              		.loc 1 2030 0
ARM GAS  C:\Users\RAKIBU~1\AppData\Local\Temp\cc76R1kY.s 			page 107


 6023 23de 0022     		movs	r2, #0
 6024 23e0 0023     		movs	r3, #0
 6025 23e2 2146     		mov	r1, r4
 6026 23e4 05F17800 		add	r0, r5, #120
 6027 23e8 FFF7FEFF 		bl	chMBPostTimeout
 6028              	.LVL575:
 6029              	.L282:
 6030              	.LBE460:
 6031              		.loc 1 2034 0
 6032 23ec 094B     		ldr	r3, .L306+16
 6033 23ee 1868     		ldr	r0, [r3]
 6034 23f0 0022     		movs	r2, #0
 6035 23f2 0023     		movs	r3, #0
 6036 23f4 0399     		ldr	r1, [sp, #12]
 6037 23f6 A030     		adds	r0, r0, #160
 6038 23f8 FFF7FEFF 		bl	chMBPostTimeout
 6039              	.LVL576:
 6040              		.loc 1 2035 0
 6041 23fc 4FF0FF37 		mov	r7, #-1
 6042              	.LVL577:
 6043 2400 A8E5     		b	.L279
 6044              	.L307:
 6045 2402 00BF     		.align	2
 6046              	.L306:
 6047 2404 00000000 		.word	.LANCHOR2
 6048 2408 C0040000 		.word	.LC60
 6049 240c 00000000 		.word	message_buffer
 6050 2410 C4040000 		.word	.LC61
 6051 2414 00000000 		.word	xbee_mbx
 6052              		.cfi_endproc
 6053              	.LFE352:
 6054              		.size	run_cmd, .-run_cmd
 6055              		.align	1
 6056 2418 AFF30080 		.p2align 4,,15
 6056      AFF30080 
 6057              		.global	button_hw_init
 6058              		.syntax unified
 6059              		.thumb
 6060              		.thumb_func
 6061              		.fpu softvfp
 6062              		.type	button_hw_init, %function
 6063              	button_hw_init:
 6064              	.LFB354:
 6065              		.loc 1 2223 0
 6066              		.cfi_startproc
 6067              		@ args = 0, pretend = 0, frame = 0
 6068              		@ frame_needed = 0, uses_anonymous_args = 0
 6069 2420 10B5     		push	{r4, lr}
 6070              		.cfi_def_cfa_offset 8
 6071              		.cfi_offset 4, -8
 6072              		.cfi_offset 14, -4
 6073              		.loc 1 2224 0
 6074 2422 064C     		ldr	r4, .L310
 6075 2424 3822     		movs	r2, #56
 6076 2426 1021     		movs	r1, #16
 6077 2428 2046     		mov	r0, r4
 6078 242a FFF7FEFF 		bl	_pal_lld_setgroupmode
ARM GAS  C:\Users\RAKIBU~1\AppData\Local\Temp\cc76R1kY.s 			page 108


 6079              	.LVL578:
 6080              		.loc 1 2225 0
 6081 242e 3822     		movs	r2, #56
 6082 2430 2021     		movs	r1, #32
 6083 2432 2046     		mov	r0, r4
 6084 2434 FFF7FEFF 		bl	_pal_lld_setgroupmode
 6085              	.LVL579:
 6086              		.loc 1 2227 0
 6087 2438 10BD     		pop	{r4, pc}
 6088              	.L311:
 6089 243a 00BF     		.align	2
 6090              	.L310:
 6091 243c 00100240 		.word	1073876992
 6092              		.cfi_endproc
 6093              	.LFE354:
 6094              		.size	button_hw_init, .-button_hw_init
 6095              		.align	1
 6096              		.p2align 4,,15
 6097              		.global	read_buttons
 6098              		.syntax unified
 6099              		.thumb
 6100              		.thumb_func
 6101              		.fpu softvfp
 6102              		.type	read_buttons, %function
 6103              	read_buttons:
 6104              	.LFB355:
 6105              		.loc 1 2241 0
 6106              		.cfi_startproc
 6107              		@ args = 0, pretend = 0, frame = 0
 6108              		@ frame_needed = 0, uses_anonymous_args = 0
 6109 2440 08B5     		push	{r3, lr}
 6110              		.cfi_def_cfa_offset 8
 6111              		.cfi_offset 3, -8
 6112              		.cfi_offset 14, -4
 6113              		.loc 1 2253 0
 6114 2442 2F4B     		ldr	r3, .L326
 6115 2444 1B69     		ldr	r3, [r3, #16]
 6116 2446 13F0100F 		tst	r3, #16
 6117 244a 23D1     		bne	.L313
 6118              		.loc 1 2255 0
 6119 244c 2D4A     		ldr	r2, .L326+4
 6120 244e D2F86838 		ldr	r3, [r2, #2152]
 6121 2452 0133     		adds	r3, r3, #1
 6122 2454 C2F86838 		str	r3, [r2, #2152]
 6123              		.loc 1 2257 0
 6124 2458 312B     		cmp	r3, #49
 6125 245a 06D8     		bhi	.L322
 6126              		.loc 1 2263 0
 6127 245c 022B     		cmp	r3, #2
 6128 245e 10D0     		beq	.L323
 6129              		.loc 1 2270 0
 6130 2460 284B     		ldr	r3, .L326+4
 6131 2462 0022     		movs	r2, #0
 6132 2464 83F86C28 		strb	r2, [r3, #2156]
 6133 2468 1AE0     		b	.L315
 6134              	.L322:
 6135              		.loc 1 2259 0
ARM GAS  C:\Users\RAKIBU~1\AppData\Local\Temp\cc76R1kY.s 			page 109


 6136 246a 1346     		mov	r3, r2
 6137 246c 0222     		movs	r2, #2
 6138 246e 83F86C28 		strb	r2, [r3, #2156]
 6139              		.loc 1 2260 0
 6140 2472 3222     		movs	r2, #50
 6141 2474 C3F86828 		str	r2, [r3, #2152]
 6142              		.loc 1 2261 0
 6143 2478 2349     		ldr	r1, .L326+8
 6144 247a 2448     		ldr	r0, .L326+12
 6145 247c FFF7FEFF 		bl	chprintf
 6146              	.LVL580:
 6147 2480 0EE0     		b	.L315
 6148              	.L323:
 6149              		.loc 1 2265 0
 6150 2482 204B     		ldr	r3, .L326+4
 6151 2484 0122     		movs	r2, #1
 6152 2486 83F86C28 		strb	r2, [r3, #2156]
 6153              		.loc 1 2266 0
 6154 248a 2149     		ldr	r1, .L326+16
 6155 248c 1F48     		ldr	r0, .L326+12
 6156 248e FFF7FEFF 		bl	chprintf
 6157              	.LVL581:
 6158 2492 05E0     		b	.L315
 6159              	.L313:
 6160              		.loc 1 2276 0
 6161 2494 1B4B     		ldr	r3, .L326+4
 6162 2496 0022     		movs	r2, #0
 6163 2498 C3F86828 		str	r2, [r3, #2152]
 6164              		.loc 1 2277 0
 6165 249c 83F86C28 		strb	r2, [r3, #2156]
 6166              	.L315:
 6167              		.loc 1 2279 0
 6168 24a0 174B     		ldr	r3, .L326
 6169 24a2 1B69     		ldr	r3, [r3, #16]
 6170 24a4 13F0200F 		tst	r3, #32
 6171 24a8 23D1     		bne	.L317
 6172              		.loc 1 2281 0
 6173 24aa 164A     		ldr	r2, .L326+4
 6174 24ac D2F87038 		ldr	r3, [r2, #2160]
 6175 24b0 0133     		adds	r3, r3, #1
 6176 24b2 C2F87038 		str	r3, [r2, #2160]
 6177              		.loc 1 2283 0
 6178 24b6 312B     		cmp	r3, #49
 6179 24b8 06D8     		bhi	.L324
 6180              		.loc 1 2289 0
 6181 24ba 012B     		cmp	r3, #1
 6182 24bc 10D8     		bhi	.L325
 6183              		.loc 1 2296 0
 6184 24be 114B     		ldr	r3, .L326+4
 6185 24c0 0022     		movs	r2, #0
 6186 24c2 83F87428 		strb	r2, [r3, #2164]
 6187 24c6 1AE0     		b	.L312
 6188              	.L324:
 6189              		.loc 1 2285 0
 6190 24c8 1346     		mov	r3, r2
 6191 24ca 0222     		movs	r2, #2
 6192 24cc 83F87428 		strb	r2, [r3, #2164]
ARM GAS  C:\Users\RAKIBU~1\AppData\Local\Temp\cc76R1kY.s 			page 110


 6193              		.loc 1 2286 0
 6194 24d0 3222     		movs	r2, #50
 6195 24d2 C3F87028 		str	r2, [r3, #2160]
 6196              		.loc 1 2287 0
 6197 24d6 0F49     		ldr	r1, .L326+20
 6198 24d8 0C48     		ldr	r0, .L326+12
 6199 24da FFF7FEFF 		bl	chprintf
 6200              	.LVL582:
 6201 24de 0EE0     		b	.L312
 6202              	.L325:
 6203              		.loc 1 2291 0
 6204 24e0 084B     		ldr	r3, .L326+4
 6205 24e2 0122     		movs	r2, #1
 6206 24e4 83F87428 		strb	r2, [r3, #2164]
 6207              		.loc 1 2292 0
 6208 24e8 0B49     		ldr	r1, .L326+24
 6209 24ea 0848     		ldr	r0, .L326+12
 6210 24ec FFF7FEFF 		bl	chprintf
 6211              	.LVL583:
 6212 24f0 05E0     		b	.L312
 6213              	.L317:
 6214              		.loc 1 2301 0
 6215 24f2 044B     		ldr	r3, .L326+4
 6216 24f4 0022     		movs	r2, #0
 6217 24f6 C3F87028 		str	r2, [r3, #2160]
 6218              		.loc 1 2302 0
 6219 24fa 83F87428 		strb	r2, [r3, #2164]
 6220              	.L312:
 6221              		.loc 1 2343 0
 6222 24fe 08BD     		pop	{r3, pc}
 6223              	.L327:
 6224              		.align	2
 6225              	.L326:
 6226 2500 00100240 		.word	1073876992
 6227 2504 00000000 		.word	.LANCHOR2
 6228 2508 C8040000 		.word	.LC62
 6229 250c 00000000 		.word	SD6
 6230 2510 E0040000 		.word	.LC63
 6231 2514 F8040000 		.word	.LC64
 6232 2518 0C050000 		.word	.LC65
 6233              		.cfi_endproc
 6234              	.LFE355:
 6235              		.size	read_buttons, .-read_buttons
 6236              		.align	1
 6237 251c AFF30080 		.p2align 4,,15
 6238              		.syntax unified
 6239              		.thumb
 6240              		.thumb_func
 6241              		.fpu softvfp
 6242              		.type	ctl_thread, %function
 6243              	ctl_thread:
 6244              	.LFB353:
 6245              		.loc 1 2045 0
 6246              		.cfi_startproc
 6247              		@ args = 0, pretend = 0, frame = 8
 6248              		@ frame_needed = 0, uses_anonymous_args = 0
 6249              	.LVL584:
ARM GAS  C:\Users\RAKIBU~1\AppData\Local\Temp\cc76R1kY.s 			page 111


 6250 2520 70B5     		push	{r4, r5, r6, lr}
 6251              		.cfi_def_cfa_offset 16
 6252              		.cfi_offset 4, -16
 6253              		.cfi_offset 5, -12
 6254              		.cfi_offset 6, -8
 6255              		.cfi_offset 14, -4
 6256 2522 82B0     		sub	sp, sp, #8
 6257              		.cfi_def_cfa_offset 24
 6258              		.loc 1 2046 0
 6259 2524 8C49     		ldr	r1, .L355
 6260 2526 8D48     		ldr	r0, .L355+4
 6261              	.LVL585:
 6262 2528 FFF7FEFF 		bl	chprintf
 6263              	.LVL586:
 6264              		.loc 1 2050 0
 6265 252c FFF7FEFF 		bl	button_hw_init
 6266              	.LVL587:
 6267              		.loc 1 2052 0
 6268 2530 FFF7FEFF 		bl	xbee_setup
 6269              	.LVL588:
 6270              		.loc 1 2054 0
 6271 2534 4F20     		movs	r0, #79
 6272 2536 FFF7FEFF 		bl	setRelayState
 6273              	.LVL589:
 6274 253a 894B     		ldr	r3, .L355+8
 6275 253c 83F85900 		strb	r0, [r3, #89]
 6276              		.loc 1 2055 0
 6277 2540 93F85950 		ldrb	r5, [r3, #89]	@ zero_extendqisi2
 6278 2544 EDB2     		uxtb	r5, r5
 6279              	.LVL590:
 6280 2546 86E0     		b	.L345
 6281              	.LVL591:
 6282              	.L351:
 6283              	.LBB461:
 6284              		.loc 1 2067 0
 6285 2548 844E     		ldr	r6, .L355+4
 6286 254a 8649     		ldr	r1, .L355+12
 6287 254c 3046     		mov	r0, r6
 6288              	.LVL592:
 6289 254e FFF7FEFF 		bl	chprintf
 6290              	.LVL593:
 6291              		.loc 1 2068 0
 6292 2552 019B     		ldr	r3, [sp, #4]
 6293 2554 9A7B     		ldrb	r2, [r3, #14]	@ zero_extendqisi2
 6294 2556 8449     		ldr	r1, .L355+16
 6295 2558 3046     		mov	r0, r6
 6296 255a FFF7FEFF 		bl	chprintf
 6297              	.LVL594:
 6298              		.loc 1 2069 0
 6299 255e 019E     		ldr	r6, [sp, #4]
 6300 2560 5E22     		movs	r2, #94
 6301 2562 3146     		mov	r1, r6
 6302 2564 8148     		ldr	r0, .L355+20
 6303 2566 FFF7FEFF 		bl	memcpy
 6304              	.LVL595:
 6305              		.loc 1 2072 0
 6306 256a 814B     		ldr	r3, .L355+24
ARM GAS  C:\Users\RAKIBU~1\AppData\Local\Temp\cc76R1kY.s 			page 112


 6307 256c 1968     		ldr	r1, [r3]
 6308 256e 3046     		mov	r0, r6
 6309 2570 FFF7FEFF 		bl	run_cmd
 6310              	.LVL596:
 6311 2574 40B1     		cbz	r0, .L347
 6312              	.L330:
 6313              		.loc 1 2078 0
 6314 2576 7E4B     		ldr	r3, .L355+24
 6315 2578 1868     		ldr	r0, [r3]
 6316 257a 0022     		movs	r2, #0
 6317 257c 0023     		movs	r3, #0
 6318 257e 0199     		ldr	r1, [sp, #4]
 6319 2580 2830     		adds	r0, r0, #40
 6320 2582 FFF7FEFF 		bl	chMBPostTimeout
 6321              	.LVL597:
 6322 2586 72E0     		b	.L329
 6323              	.L347:
 6324              		.loc 1 2074 0
 6325 2588 FFF7FEFF 		bl	xbee_send_packet
 6326              	.LVL598:
 6327 258c F3E7     		b	.L330
 6328              	.L352:
 6329              		.loc 1 2086 0
 6330 258e 744B     		ldr	r3, .L355+8
 6331 2590 1B7A     		ldrb	r3, [r3, #8]	@ zero_extendqisi2
 6332 2592 13F0080F 		tst	r3, #8
 6333 2596 05D1     		bne	.L332
 6334              		.loc 1 2088 0
 6335 2598 714A     		ldr	r2, .L355+8
 6336 259a 137A     		ldrb	r3, [r2, #8]	@ zero_extendqisi2
 6337 259c 43F00803 		orr	r3, r3, #8
 6338 25a0 1372     		strb	r3, [r2, #8]
 6339 25a2 6CE0     		b	.L331
 6340              	.L332:
 6341              		.loc 1 2093 0
 6342 25a4 6E4B     		ldr	r3, .L355+8
 6343 25a6 1B7A     		ldrb	r3, [r3, #8]	@ zero_extendqisi2
 6344 25a8 13F0080F 		tst	r3, #8
 6345 25ac 67D0     		beq	.L331
 6346              		.loc 1 2096 0
 6347 25ae 6C4A     		ldr	r2, .L355+8
 6348 25b0 137A     		ldrb	r3, [r2, #8]	@ zero_extendqisi2
 6349 25b2 03F0F703 		and	r3, r3, #247
 6350 25b6 1372     		strb	r3, [r2, #8]
 6351 25b8 61E0     		b	.L331
 6352              	.L353:
 6353              		.loc 1 2115 0
 6354 25ba 694B     		ldr	r3, .L355+8
 6355 25bc 5B7A     		ldrb	r3, [r3, #9]	@ zero_extendqisi2
 6356 25be DBB2     		uxtb	r3, r3
 6357 25c0 012B     		cmp	r3, #1
 6358 25c2 62D1     		bne	.L333
 6359              		.loc 1 2117 0
 6360 25c4 4120     		movs	r0, #65
 6361 25c6 FFF7FEFF 		bl	setRelayState
 6362              	.LVL599:
 6363 25ca 654B     		ldr	r3, .L355+8
ARM GAS  C:\Users\RAKIBU~1\AppData\Local\Temp\cc76R1kY.s 			page 113


 6364 25cc 83F85900 		strb	r0, [r3, #89]
 6365              		.loc 1 2118 0
 6366 25d0 0222     		movs	r2, #2
 6367 25d2 5A72     		strb	r2, [r3, #9]
 6368 25d4 59E0     		b	.L333
 6369              	.L334:
 6370              		.loc 1 2131 0
 6371 25d6 624A     		ldr	r2, .L355+8
 6372 25d8 137A     		ldrb	r3, [r2, #8]	@ zero_extendqisi2
 6373 25da 03F0FE03 		and	r3, r3, #254
 6374 25de 1372     		strb	r3, [r2, #8]
 6375 25e0 5DE0     		b	.L335
 6376              	.L354:
 6377              		.loc 1 2138 0
 6378 25e2 5F4A     		ldr	r2, .L355+8
 6379 25e4 137A     		ldrb	r3, [r2, #8]	@ zero_extendqisi2
 6380 25e6 43F01003 		orr	r3, r3, #16
 6381 25ea 1372     		strb	r3, [r2, #8]
 6382 25ec 61E0     		b	.L337
 6383              	.LVL600:
 6384              	.L340:
 6385              		.loc 1 2167 0
 6386 25ee 4F20     		movs	r0, #79
 6387 25f0 FFF7FEFF 		bl	setRelayState
 6388              	.LVL601:
 6389 25f4 5A4B     		ldr	r3, .L355+8
 6390 25f6 83F85900 		strb	r0, [r3, #89]
 6391              		.loc 1 2169 0
 6392 25fa 5B7A     		ldrb	r3, [r3, #9]	@ zero_extendqisi2
 6393 25fc DBB2     		uxtb	r3, r3
 6394 25fe 042B     		cmp	r3, #4
 6395 2600 00F08380 		beq	.L348
 6396              		.loc 1 2175 0
 6397 2604 564B     		ldr	r3, .L355+8
 6398 2606 0022     		movs	r2, #0
 6399 2608 5A72     		strb	r2, [r3, #9]
 6400              	.L342:
 6401              		.loc 1 2178 0
 6402 260a 0023     		movs	r3, #0
 6403 260c 0C22     		movs	r2, #12
 6404 260e 0721     		movs	r1, #7
 6405 2610 5848     		ldr	r0, .L355+28
 6406 2612 FFF7FEFF 		bl	mcp23017_digitalWrite
 6407              	.LVL602:
 6408              	.L339:
 6409              		.loc 1 2184 0
 6410 2616 5548     		ldr	r0, .L355+20
 6411 2618 7323     		movs	r3, #115
 6412 261a 8373     		strb	r3, [r0, #14]
 6413              		.loc 1 2185 0
 6414 261c 0023     		movs	r3, #0
 6415 261e C373     		strb	r3, [r0, #15]
 6416              		.loc 1 2186 0
 6417 2620 0123     		movs	r3, #1
 6418 2622 8381     		strh	r3, [r0, #12]	@ movhi
 6419              		.loc 1 2187 0
 6420 2624 524B     		ldr	r3, .L355+24
ARM GAS  C:\Users\RAKIBU~1\AppData\Local\Temp\cc76R1kY.s 			page 114


 6421 2626 1968     		ldr	r1, [r3]
 6422 2628 FFF7FEFF 		bl	run_cmd
 6423              	.LVL603:
 6424              		.loc 1 2188 0
 6425 262c FFF7FEFF 		bl	xbee_send_packet
 6426              	.LVL604:
 6427              		.loc 1 2189 0
 6428 2630 4B4B     		ldr	r3, .L355+8
 6429 2632 1C7A     		ldrb	r4, [r3, #8]	@ zero_extendqisi2
 6430 2634 E4B2     		uxtb	r4, r4
 6431              	.LVL605:
 6432              	.L338:
 6433              		.loc 1 2191 0
 6434 2636 4A4B     		ldr	r3, .L355+8
 6435 2638 93F85930 		ldrb	r3, [r3, #89]	@ zero_extendqisi2
 6436 263c DBB2     		uxtb	r3, r3
 6437 263e AB42     		cmp	r3, r5
 6438 2640 67D1     		bne	.L349
 6439              	.L343:
 6440              		.loc 1 2202 0
 6441 2642 474B     		ldr	r3, .L355+8
 6442 2644 93F89A30 		ldrb	r3, [r3, #154]	@ zero_extendqisi2
 6443 2648 002B     		cmp	r3, #0
 6444 264a 74D1     		bne	.L350
 6445              	.L344:
 6446              		.loc 1 2212 0
 6447 264c 4FF4FA60 		mov	r0, #2000
 6448 2650 0021     		movs	r1, #0
 6449 2652 FFF7FEFF 		bl	chThdSleep
 6450              	.LVL606:
 6451              	.L345:
 6452              		.loc 1 2061 0
 6453 2656 FFF7FEFF 		bl	xbee_com_parse
 6454              	.LVL607:
 6455              		.loc 1 2063 0
 6456 265a 0022     		movs	r2, #0
 6457 265c 0023     		movs	r3, #0
 6458 265e 01A9     		add	r1, sp, #4
 6459 2660 4348     		ldr	r0, .L355+24
 6460 2662 0068     		ldr	r0, [r0]
 6461 2664 FFF7FEFF 		bl	chMBFetchTimeout
 6462              	.LVL608:
 6463              		.loc 1 2064 0
 6464 2668 0028     		cmp	r0, #0
 6465 266a 3FF46DAF 		beq	.L351
 6466              	.LVL609:
 6467              	.L329:
 6468              		.loc 1 2082 0
 6469 266e FFF7FEFF 		bl	read_buttons
 6470              	.LVL610:
 6471              		.loc 1 2084 0
 6472 2672 3B4B     		ldr	r3, .L355+8
 6473 2674 93F86C38 		ldrb	r3, [r3, #2156]	@ zero_extendqisi2
 6474 2678 DBB2     		uxtb	r3, r3
 6475 267a 012B     		cmp	r3, #1
 6476 267c 87D0     		beq	.L352
 6477              	.L331:
ARM GAS  C:\Users\RAKIBU~1\AppData\Local\Temp\cc76R1kY.s 			page 115


 6478              		.loc 1 2113 0
 6479 267e 384B     		ldr	r3, .L355+8
 6480 2680 93F86C38 		ldrb	r3, [r3, #2156]	@ zero_extendqisi2
 6481 2684 DBB2     		uxtb	r3, r3
 6482 2686 022B     		cmp	r3, #2
 6483 2688 97D0     		beq	.L353
 6484              	.L333:
 6485              		.loc 1 2125 0
 6486 268a 354B     		ldr	r3, .L355+8
 6487 268c 93F87538 		ldrb	r3, [r3, #2165]	@ zero_extendqisi2
 6488 2690 002B     		cmp	r3, #0
 6489 2692 A0D0     		beq	.L334
 6490              		.loc 1 2127 0
 6491 2694 324A     		ldr	r2, .L355+8
 6492 2696 137A     		ldrb	r3, [r2, #8]	@ zero_extendqisi2
 6493 2698 43F00103 		orr	r3, r3, #1
 6494 269c 1372     		strb	r3, [r2, #8]
 6495              	.L335:
 6496              		.loc 1 2136 0
 6497 269e 304B     		ldr	r3, .L355+8
 6498 26a0 5B7A     		ldrb	r3, [r3, #9]	@ zero_extendqisi2
 6499 26a2 DBB2     		uxtb	r3, r3
 6500 26a4 042B     		cmp	r3, #4
 6501 26a6 9CD0     		beq	.L354
 6502              		.loc 1 2142 0
 6503 26a8 2D4A     		ldr	r2, .L355+8
 6504 26aa 137A     		ldrb	r3, [r2, #8]	@ zero_extendqisi2
 6505 26ac 03F0EF03 		and	r3, r3, #239
 6506 26b0 1372     		strb	r3, [r2, #8]
 6507              	.L337:
 6508              		.loc 1 2148 0
 6509 26b2 2B4B     		ldr	r3, .L355+8
 6510 26b4 1B7A     		ldrb	r3, [r3, #8]	@ zero_extendqisi2
 6511 26b6 DBB2     		uxtb	r3, r3
 6512 26b8 A342     		cmp	r3, r4
 6513 26ba BCD0     		beq	.L338
 6514              		.loc 1 2151 0
 6515 26bc 284B     		ldr	r3, .L355+8
 6516 26be 1B7A     		ldrb	r3, [r3, #8]	@ zero_extendqisi2
 6517 26c0 5C40     		eors	r4, r4, r3
 6518              	.LVL611:
 6519 26c2 14F0080F 		tst	r4, #8
 6520 26c6 A6D0     		beq	.L339
 6521              		.loc 1 2153 0
 6522 26c8 254B     		ldr	r3, .L355+8
 6523 26ca 1B7A     		ldrb	r3, [r3, #8]	@ zero_extendqisi2
 6524 26cc 13F0080F 		tst	r3, #8
 6525 26d0 8DD0     		beq	.L340
 6526              		.loc 1 2155 0
 6527 26d2 4120     		movs	r0, #65
 6528 26d4 FFF7FEFF 		bl	setRelayState
 6529              	.LVL612:
 6530 26d8 214C     		ldr	r4, .L355+8
 6531 26da 84F85900 		strb	r0, [r4, #89]
 6532              		.loc 1 2156 0
 6533 26de 0123     		movs	r3, #1
 6534 26e0 0C22     		movs	r2, #12
ARM GAS  C:\Users\RAKIBU~1\AppData\Local\Temp\cc76R1kY.s 			page 116


 6535 26e2 0721     		movs	r1, #7
 6536 26e4 2348     		ldr	r0, .L355+28
 6537 26e6 FFF7FEFF 		bl	mcp23017_digitalWrite
 6538              	.LVL613:
 6539              		.loc 1 2157 0
 6540 26ea 0020     		movs	r0, #0
 6541 26ec FFF7FEFF 		bl	set_pga
 6542              	.LVL614:
 6543              		.loc 1 2158 0
 6544 26f0 0026     		movs	r6, #0
 6545 26f2 2667     		str	r6, [r4, #112]
 6546              		.loc 1 2159 0
 6547 26f4 6667     		str	r6, [r4, #116]
 6548              		.loc 1 2160 0
 6549 26f6 4FF4FA60 		mov	r0, #2000
 6550 26fa 0021     		movs	r1, #0
 6551 26fc FFF7FEFF 		bl	chThdSleep
 6552              	.LVL615:
 6553              		.loc 1 2161 0
 6554 2700 2667     		str	r6, [r4, #112]
 6555              		.loc 1 2162 0
 6556 2702 6667     		str	r6, [r4, #116]
 6557              		.loc 1 2163 0
 6558 2704 0123     		movs	r3, #1
 6559 2706 6372     		strb	r3, [r4, #9]
 6560 2708 85E7     		b	.L339
 6561              	.L348:
 6562              		.loc 1 2171 0
 6563 270a 154B     		ldr	r3, .L355+8
 6564 270c 0522     		movs	r2, #5
 6565 270e 5A72     		strb	r2, [r3, #9]
 6566 2710 7BE7     		b	.L342
 6567              	.LVL616:
 6568              	.L349:
 6569              		.loc 1 2194 0
 6570 2712 1648     		ldr	r0, .L355+20
 6571 2714 5923     		movs	r3, #89
 6572 2716 8373     		strb	r3, [r0, #14]
 6573              		.loc 1 2195 0
 6574 2718 0023     		movs	r3, #0
 6575 271a C373     		strb	r3, [r0, #15]
 6576              		.loc 1 2196 0
 6577 271c 0123     		movs	r3, #1
 6578 271e 8381     		strh	r3, [r0, #12]	@ movhi
 6579              		.loc 1 2197 0
 6580 2720 134B     		ldr	r3, .L355+24
 6581 2722 1968     		ldr	r1, [r3]
 6582 2724 FFF7FEFF 		bl	run_cmd
 6583              	.LVL617:
 6584              		.loc 1 2198 0
 6585 2728 FFF7FEFF 		bl	xbee_send_packet
 6586              	.LVL618:
 6587              		.loc 1 2199 0
 6588 272c 0C4B     		ldr	r3, .L355+8
 6589 272e 93F85950 		ldrb	r5, [r3, #89]	@ zero_extendqisi2
 6590              	.LVL619:
 6591 2732 EDB2     		uxtb	r5, r5
ARM GAS  C:\Users\RAKIBU~1\AppData\Local\Temp\cc76R1kY.s 			page 117


 6592              	.LVL620:
 6593 2734 85E7     		b	.L343
 6594              	.L350:
 6595              		.loc 1 2205 0
 6596 2736 0D48     		ldr	r0, .L355+20
 6597 2738 6D23     		movs	r3, #109
 6598 273a 8373     		strb	r3, [r0, #14]
 6599              		.loc 1 2206 0
 6600 273c 0026     		movs	r6, #0
 6601 273e C673     		strb	r6, [r0, #15]
 6602              		.loc 1 2207 0
 6603 2740 0123     		movs	r3, #1
 6604 2742 8381     		strh	r3, [r0, #12]	@ movhi
 6605              		.loc 1 2208 0
 6606 2744 0A4B     		ldr	r3, .L355+24
 6607 2746 1968     		ldr	r1, [r3]
 6608 2748 FFF7FEFF 		bl	run_cmd
 6609              	.LVL621:
 6610              		.loc 1 2209 0
 6611 274c FFF7FEFF 		bl	xbee_send_packet
 6612              	.LVL622:
 6613              		.loc 1 2210 0
 6614 2750 034B     		ldr	r3, .L355+8
 6615 2752 83F89A60 		strb	r6, [r3, #154]
 6616 2756 79E7     		b	.L344
 6617              	.L356:
 6618              		.align	2
 6619              	.L355:
 6620 2758 24050000 		.word	.LC66
 6621 275c 00000000 		.word	SD6
 6622 2760 00000000 		.word	.LANCHOR2
 6623 2764 3C050000 		.word	.LC67
 6624 2768 58050000 		.word	.LC68
 6625 276c 00000000 		.word	tx_packet
 6626 2770 00000000 		.word	xbee_mbx
 6627 2774 28000000 		.word	.LANCHOR1+40
 6628              	.LBE461:
 6629              		.cfi_endproc
 6630              	.LFE353:
 6631              		.size	ctl_thread, .-ctl_thread
 6632              		.align	1
 6633 2778 AFF30080 		.p2align 4,,15
 6633      AFF30080 
 6634              		.global	init_i2c
 6635              		.syntax unified
 6636              		.thumb
 6637              		.thumb_func
 6638              		.fpu softvfp
 6639              		.type	init_i2c, %function
 6640              	init_i2c:
 6641              	.LFB356:
 6642              		.loc 1 2350 0
 6643              		.cfi_startproc
 6644              		@ args = 0, pretend = 0, frame = 0
 6645              		@ frame_needed = 0, uses_anonymous_args = 0
 6646 2780 10B5     		push	{r4, lr}
 6647              		.cfi_def_cfa_offset 8
ARM GAS  C:\Users\RAKIBU~1\AppData\Local\Temp\cc76R1kY.s 			page 118


 6648              		.cfi_offset 4, -8
 6649              		.cfi_offset 14, -4
 6650              		.loc 1 2353 0
 6651 2782 104C     		ldr	r4, .L359
 6652 2784 40F21E22 		movw	r2, #542
 6653 2788 4FF48071 		mov	r1, #256
 6654 278c 2046     		mov	r0, r4
 6655 278e FFF7FEFF 		bl	_pal_lld_setgroupmode
 6656              	.LVL623:
 6657              		.loc 1 2354 0
 6658 2792 40F21E22 		movw	r2, #542
 6659 2796 4FF40071 		mov	r1, #512
 6660 279a 2046     		mov	r0, r4
 6661 279c FFF7FEFF 		bl	_pal_lld_setgroupmode
 6662              	.LVL624:
 6663              		.loc 1 2355 0
 6664 27a0 1922     		movs	r2, #25
 6665 27a2 0221     		movs	r1, #2
 6666 27a4 0848     		ldr	r0, .L359+4
 6667 27a6 FFF7FEFF 		bl	_pal_lld_setgroupmode
 6668              	.LVL625:
 6669              		.loc 1 2357 0
 6670 27aa 084C     		ldr	r4, .L359+8
 6671 27ac 2046     		mov	r0, r4
 6672 27ae FFF7FEFF 		bl	i2cAcquireBus
 6673              	.LVL626:
 6674              		.loc 1 2360 0
 6675 27b2 0749     		ldr	r1, .L359+12
 6676 27b4 2046     		mov	r0, r4
 6677 27b6 FFF7FEFF 		bl	i2cStart
 6678              	.LVL627:
 6679              		.loc 1 2363 0
 6680 27ba 2046     		mov	r0, r4
 6681 27bc FFF7FEFF 		bl	i2cReleaseBus
 6682              	.LVL628:
 6683              		.loc 1 2365 0
 6684 27c0 10BD     		pop	{r4, pc}
 6685              	.L360:
 6686 27c2 00BF     		.align	2
 6687              	.L359:
 6688 27c4 00040240 		.word	1073873920
 6689 27c8 00100240 		.word	1073876992
 6690 27cc 00000000 		.word	I2CD1
 6691 27d0 40000000 		.word	.LANCHOR0+64
 6692              		.cfi_endproc
 6693              	.LFE356:
 6694              		.size	init_i2c, .-init_i2c
 6695              		.align	1
 6696 27d4 AFF30080 		.p2align 4,,15
 6696      AFF30080 
 6696      AFF30080 
 6697              		.global	main
 6698              		.syntax unified
 6699              		.thumb
 6700              		.thumb_func
 6701              		.fpu softvfp
 6702              		.type	main, %function
