ARM GAS  C:\Users\RAKIBU~1\AppData\Local\Temp\cc5tbduv.s 			page 1


   1              		.cpu cortex-m4
   2              		.eabi_attribute 20, 1
   3              		.eabi_attribute 21, 1
   4              		.eabi_attribute 23, 3
   5              		.eabi_attribute 24, 1
   6              		.eabi_attribute 25, 1
   7              		.eabi_attribute 26, 1
   8              		.eabi_attribute 30, 1
   9              		.eabi_attribute 34, 1
  10              		.eabi_attribute 18, 4
  11              		.file	"syscalls.c"
  12              		.text
  13              	.Ltext0:
  14              		.cfi_sections	.debug_frame
  15              		.align	1
  16              		.p2align 4,,15
  17              		.global	_read_r
  18              		.syntax unified
  19              		.thumb
  20              		.thumb_func
  21              		.fpu softvfp
  22              		.type	_read_r, %function
  23              	_read_r:
  24              	.LFB295:
  25              		.file 1 "../../../ChibiOSRepo/chibios191/os/various/syscalls.c"
  26              		.loc 1 72 0
  27              		.cfi_startproc
  28              		@ args = 0, pretend = 0, frame = 0
  29              		@ frame_needed = 0, uses_anonymous_args = 0
  30              		@ link register save eliminated.
  31              	.LVL0:
  32              		.loc 1 85 0
  33 0000 1623     		movs	r3, #22
  34              	.LVL1:
  35 0002 0360     		str	r3, [r0]
  36              		.loc 1 88 0
  37 0004 4FF0FF30 		mov	r0, #-1
  38              	.LVL2:
  39 0008 7047     		bx	lr
  40              		.cfi_endproc
  41              	.LFE295:
  42              		.size	_read_r, .-_read_r
  43              		.align	1
  44 000a 00BFAFF3 		.p2align 4,,15
  44      0080
  45              		.global	_lseek_r
  46              		.syntax unified
  47              		.thumb
  48              		.thumb_func
  49              		.fpu softvfp
  50              		.type	_lseek_r, %function
  51              	_lseek_r:
  52              	.LFB296:
  53              		.loc 1 94 0
  54              		.cfi_startproc
  55              		@ args = 0, pretend = 0, frame = 0
  56              		@ frame_needed = 0, uses_anonymous_args = 0
ARM GAS  C:\Users\RAKIBU~1\AppData\Local\Temp\cc5tbduv.s 			page 2


  57              		@ link register save eliminated.
  58              	.LVL3:
  59              		.loc 1 101 0
  60 0010 0020     		movs	r0, #0
  61              	.LVL4:
  62 0012 7047     		bx	lr
  63              		.cfi_endproc
  64              	.LFE296:
  65              		.size	_lseek_r, .-_lseek_r
  66              		.align	1
  67 0014 AFF30080 		.p2align 4,,15
  67      AFF30080 
  67      AFF30080 
  68              		.global	_write_r
  69              		.syntax unified
  70              		.thumb
  71              		.thumb_func
  72              		.fpu softvfp
  73              		.type	_write_r, %function
  74              	_write_r:
  75              	.LFB297:
  76              		.loc 1 107 0
  77              		.cfi_startproc
  78              		@ args = 0, pretend = 0, frame = 0
  79              		@ frame_needed = 0, uses_anonymous_args = 0
  80              		@ link register save eliminated.
  81              	.LVL5:
  82              		.loc 1 119 0
  83 0020 1846     		mov	r0, r3
  84              	.LVL6:
  85 0022 7047     		bx	lr
  86              		.cfi_endproc
  87              	.LFE297:
  88              		.size	_write_r, .-_write_r
  89              		.align	1
  90 0024 AFF30080 		.p2align 4,,15
  90      AFF30080 
  90      AFF30080 
  91              		.global	_close_r
  92              		.syntax unified
  93              		.thumb
  94              		.thumb_func
  95              		.fpu softvfp
  96              		.type	_close_r, %function
  97              	_close_r:
  98              	.LFB298:
  99              		.loc 1 125 0
 100              		.cfi_startproc
 101              		@ args = 0, pretend = 0, frame = 0
 102              		@ frame_needed = 0, uses_anonymous_args = 0
 103              		@ link register save eliminated.
 104              	.LVL7:
 105              		.loc 1 130 0
 106 0030 0020     		movs	r0, #0
 107              	.LVL8:
 108 0032 7047     		bx	lr
 109              		.cfi_endproc
ARM GAS  C:\Users\RAKIBU~1\AppData\Local\Temp\cc5tbduv.s 			page 3


 110              	.LFE298:
 111              		.size	_close_r, .-_close_r
 112              		.align	1
 113 0034 AFF30080 		.p2align 4,,15
 113      AFF30080 
 113      AFF30080 
 114              		.global	_sbrk_r
 115              		.syntax unified
 116              		.thumb
 117              		.thumb_func
 118              		.fpu softvfp
 119              		.type	_sbrk_r, %function
 120              	_sbrk_r:
 121              	.LFB299:
 122              		.loc 1 136 0
 123              		.cfi_startproc
 124              		@ args = 0, pretend = 0, frame = 0
 125              		@ frame_needed = 0, uses_anonymous_args = 0
 126              	.LVL9:
 127 0040 38B5     		push	{r3, r4, r5, lr}
 128              		.cfi_def_cfa_offset 16
 129              		.cfi_offset 3, -16
 130              		.cfi_offset 4, -12
 131              		.cfi_offset 5, -8
 132              		.cfi_offset 14, -4
 133 0042 0546     		mov	r5, r0
 134              		.loc 1 140 0
 135 0044 0C1E     		subs	r4, r1, #0
 136 0046 08DB     		blt	.L9
 137              	.LVL10:
 138              	.L6:
 139              	.LBB4:
 140              	.LBB5:
 141              		.file 2 "../../../ChibiOSRepo/chibios191/os/oslib/include/chmemcore.h"
 142              		.loc 2 191 0
 143 0048 0022     		movs	r2, #0
 144 004a 0421     		movs	r1, #4
 145 004c 2046     		mov	r0, r4
 146 004e FFF7FEFF 		bl	chCoreAllocAlignedWithOffset
 147              	.LVL11:
 148              	.LBE5:
 149              	.LBE4:
 150              		.loc 1 143 0
 151 0052 0346     		mov	r3, r0
 152 0054 28B1     		cbz	r0, .L10
 153              	.L5:
 154              		.loc 1 153 0
 155 0056 1846     		mov	r0, r3
 156 0058 38BD     		pop	{r3, r4, r5, pc}
 157              	.LVL12:
 158              	.L9:
 159              		.loc 1 140 0 discriminator 2
 160 005a 0448     		ldr	r0, .L11
 161              	.LVL13:
 162 005c FFF7FEFF 		bl	chSysHalt
 163              	.LVL14:
 164 0060 F2E7     		b	.L6
ARM GAS  C:\Users\RAKIBU~1\AppData\Local\Temp\cc5tbduv.s 			page 4


 165              	.L10:
 166              		.loc 1 144 0
 167 0062 0C23     		movs	r3, #12
 168 0064 2B60     		str	r3, [r5]
 169              		.loc 1 145 0
 170 0066 4FF0FF33 		mov	r3, #-1
 171 006a F4E7     		b	.L5
 172              	.L12:
 173              		.align	2
 174              	.L11:
 175 006c 00000000 		.word	.LANCHOR0
 176              		.cfi_endproc
 177              	.LFE299:
 178              		.size	_sbrk_r, .-_sbrk_r
 179              		.align	1
 180              		.p2align 4,,15
 181              		.global	_fstat_r
 182              		.syntax unified
 183              		.thumb
 184              		.thumb_func
 185              		.fpu softvfp
 186              		.type	_fstat_r, %function
 187              	_fstat_r:
 188              	.LFB300:
 189              		.loc 1 159 0
 190              		.cfi_startproc
 191              		@ args = 0, pretend = 0, frame = 0
 192              		@ frame_needed = 0, uses_anonymous_args = 0
 193              	.LVL15:
 194 0070 10B5     		push	{r4, lr}
 195              		.cfi_def_cfa_offset 8
 196              		.cfi_offset 4, -8
 197              		.cfi_offset 14, -4
 198 0072 1446     		mov	r4, r2
 199              		.loc 1 163 0
 200 0074 5822     		movs	r2, #88
 201              	.LVL16:
 202 0076 0021     		movs	r1, #0
 203              	.LVL17:
 204 0078 2046     		mov	r0, r4
 205              	.LVL18:
 206 007a FFF7FEFF 		bl	memset
 207              	.LVL19:
 208              		.loc 1 164 0
 209 007e 4FF40053 		mov	r3, #8192
 210 0082 6360     		str	r3, [r4, #4]
 211              		.loc 1 166 0
 212 0084 0020     		movs	r0, #0
 213 0086 10BD     		pop	{r4, pc}
 214              		.cfi_endproc
 215              	.LFE300:
 216              		.size	_fstat_r, .-_fstat_r
 217              		.align	1
 218 0088 AFF30080 		.p2align 4,,15
 218      AFF30080 
 219              		.global	_isatty_r
 220              		.syntax unified
ARM GAS  C:\Users\RAKIBU~1\AppData\Local\Temp\cc5tbduv.s 			page 5


 221              		.thumb
 222              		.thumb_func
 223              		.fpu softvfp
 224              		.type	_isatty_r, %function
 225              	_isatty_r:
 226              	.LFB301:
 227              		.loc 1 172 0
 228              		.cfi_startproc
 229              		@ args = 0, pretend = 0, frame = 0
 230              		@ frame_needed = 0, uses_anonymous_args = 0
 231              		@ link register save eliminated.
 232              	.LVL20:
 233              		.loc 1 177 0
 234 0090 0120     		movs	r0, #1
 235              	.LVL21:
 236 0092 7047     		bx	lr
 237              		.cfi_endproc
 238              	.LFE301:
 239              		.size	_isatty_r, .-_isatty_r
 240              		.section	.rodata
 241              		.align	2
 242              		.set	.LANCHOR0,. + 0
 243              		.type	__func__.8186, %object
 244              		.size	__func__.8186, 8
 245              	__func__.8186:
 246 0000 5F736272 		.ascii	"_sbrk_r\000"
 246      6B5F7200 
 247              		.text
 248              	.Letext0:
 249              		.file 3 "c:\\chibistudio\\tools\\gnu tools arm embedded\\7.0 2017q4\\lib\\gcc\\arm-none-eabi\\7.2.
 250              		.file 4 "c:\\chibistudio\\tools\\gnu tools arm embedded\\7.0 2017q4\\arm-none-eabi\\include\\machi
 251              		.file 5 "c:\\chibistudio\\tools\\gnu tools arm embedded\\7.0 2017q4\\arm-none-eabi\\include\\sys\\
 252              		.file 6 "c:\\chibistudio\\tools\\gnu tools arm embedded\\7.0 2017q4\\arm-none-eabi\\include\\sys\\
 253              		.file 7 "c:\\chibistudio\\tools\\gnu tools arm embedded\\7.0 2017q4\\arm-none-eabi\\include\\sys\\
 254              		.file 8 "c:\\chibistudio\\tools\\gnu tools arm embedded\\7.0 2017q4\\arm-none-eabi\\include\\stdli
 255              		.file 9 "c:\\chibistudio\\tools\\gnu tools arm embedded\\7.0 2017q4\\arm-none-eabi\\include\\sys\\
 256              		.file 10 "c:\\chibistudio\\tools\\gnu tools arm embedded\\7.0 2017q4\\arm-none-eabi\\include\\sys\
 257              		.file 11 "c:\\chibistudio\\tools\\gnu tools arm embedded\\7.0 2017q4\\arm-none-eabi\\include\\sys\
 258              		.file 12 "c:\\chibistudio\\tools\\gnu tools arm embedded\\7.0 2017q4\\arm-none-eabi\\include\\sys\
 259              		.file 13 "c:\\chibistudio\\tools\\gnu tools arm embedded\\7.0 2017q4\\arm-none-eabi\\include\\time
 260              		.file 14 "c:\\chibistudio\\tools\\gnu tools arm embedded\\7.0 2017q4\\arm-none-eabi\\include\\sys\
 261              		.file 15 "../../../ChibiOSRepo/chibios191/os/common/ports/ARMCMx/compilers/GCC/chtypes.h"
 262              		.file 16 "../../../ChibiOSRepo/chibios191/os/rt/include/chsystypes.h"
 263              		.file 17 "../../../ChibiOSRepo/chibios191/os/rt/include/chschd.h"
 264              		.file 18 "../../../ChibiOSRepo/chibios191/os/rt/include/chtime.h"
 265              		.file 19 "../../../ChibiOSRepo/chibios191/os/common/ext/ARM/CMSIS/Core/Include/core_cm4.h"
 266              		.file 20 "../../../ChibiOSRepo/chibios191/os/common/ext/ST/STM32F4xx/system_stm32f4xx.h"
 267              		.file 21 "../../../ChibiOSRepo/chibios191/os/common/ports/ARMCMx/chcore.h"
 268              		.file 22 "../../../ChibiOSRepo/chibios191/os/common/ports/ARMCMx/chcore_v7m.h"
 269              		.file 23 "../../../ChibiOSRepo/chibios191/os/rt/include/chtrace.h"
 270              		.file 24 "../../../ChibiOSRepo/chibios191/os/rt/include/chtm.h"
 271              		.file 25 "../../../ChibiOSRepo/chibios191/os/rt/include/chstats.h"
 272              		.file 26 "../../../ChibiOSRepo/chibios191/os/rt/include/chsem.h"
 273              		.file 27 "../../../ChibiOSRepo/chibios191/os/rt/include/chmtx.h"
 274              		.file 28 "../../../ChibiOSRepo/chibios191/os/rt/include/chsys.h"
 275              		.file 29 "../../../ChibiOSRepo/chibios191/os/rt/include/chregistry.h"
 276              		.file 30 "../../../ChibiOSRepo/chibios191/os/oslib/include/chmempools.h"
ARM GAS  C:\Users\RAKIBU~1\AppData\Local\Temp\cc5tbduv.s 			page 6


 277              		.file 31 "../../../ChibiOSRepo/chibios191/os/oslib/include/chfactory.h"
 278              		.file 32 "../../../ChibiOSRepo/chibios191/os/rt/include/ch.h"
 279              		.file 33 "<built-in>"
 280              		.section	.debug_info,"",%progbits
 281              	.Ldebug_info0:
 282 0000 AA180000 		.4byte	0x18aa
 283 0004 0400     		.2byte	0x4
 284 0006 00000000 		.4byte	.Ldebug_abbrev0
 285 000a 04       		.byte	0x4
 286 000b 01       		.uleb128 0x1
 287 000c 37050000 		.4byte	.LASF338
 288 0010 0C       		.byte	0xc
 289 0011 77030000 		.4byte	.LASF339
 290 0015 810A0000 		.4byte	.LASF340
 291 0019 00000000 		.4byte	.Ltext0
 292 001d 94000000 		.4byte	.Letext0-.Ltext0
 293 0021 00000000 		.4byte	.Ldebug_line0
 294 0025 02       		.uleb128 0x2
 295 0026 08000000 		.4byte	.LASF4
 296 002a 03       		.byte	0x3
 297 002b D8       		.byte	0xd8
 298 002c 30000000 		.4byte	0x30
 299 0030 03       		.uleb128 0x3
 300 0031 04       		.byte	0x4
 301 0032 07       		.byte	0x7
 302 0033 17080000 		.4byte	.LASF0
 303 0037 04       		.uleb128 0x4
 304 0038 04       		.byte	0x4
 305 0039 05       		.byte	0x5
 306 003a 696E7400 		.ascii	"int\000"
 307 003e 03       		.uleb128 0x3
 308 003f 08       		.byte	0x8
 309 0040 05       		.byte	0x5
 310 0041 7D070000 		.4byte	.LASF1
 311 0045 03       		.uleb128 0x3
 312 0046 08       		.byte	0x8
 313 0047 04       		.byte	0x4
 314 0048 2E090000 		.4byte	.LASF2
 315 004c 03       		.uleb128 0x3
 316 004d 01       		.byte	0x1
 317 004e 06       		.byte	0x6
 318 004f 95020000 		.4byte	.LASF3
 319 0053 02       		.uleb128 0x2
 320 0054 A4010000 		.4byte	.LASF5
 321 0058 04       		.byte	0x4
 322 0059 2B       		.byte	0x2b
 323 005a 5E000000 		.4byte	0x5e
 324 005e 03       		.uleb128 0x3
 325 005f 01       		.byte	0x1
 326 0060 08       		.byte	0x8
 327 0061 04030000 		.4byte	.LASF6
 328 0065 03       		.uleb128 0x3
 329 0066 02       		.byte	0x2
 330 0067 05       		.byte	0x5
 331 0068 CF0B0000 		.4byte	.LASF7
 332 006c 02       		.uleb128 0x2
 333 006d F1030000 		.4byte	.LASF8
ARM GAS  C:\Users\RAKIBU~1\AppData\Local\Temp\cc5tbduv.s 			page 7


 334 0071 04       		.byte	0x4
 335 0072 39       		.byte	0x39
 336 0073 77000000 		.4byte	0x77
 337 0077 03       		.uleb128 0x3
 338 0078 02       		.byte	0x2
 339 0079 07       		.byte	0x7
 340 007a 2E0D0000 		.4byte	.LASF9
 341 007e 02       		.uleb128 0x2
 342 007f 7C0D0000 		.4byte	.LASF10
 343 0083 04       		.byte	0x4
 344 0084 4D       		.byte	0x4d
 345 0085 89000000 		.4byte	0x89
 346 0089 03       		.uleb128 0x3
 347 008a 04       		.byte	0x4
 348 008b 05       		.byte	0x5
 349 008c E8010000 		.4byte	.LASF11
 350 0090 02       		.uleb128 0x2
 351 0091 5F070000 		.4byte	.LASF12
 352 0095 04       		.byte	0x4
 353 0096 4F       		.byte	0x4f
 354 0097 9B000000 		.4byte	0x9b
 355 009b 03       		.uleb128 0x3
 356 009c 04       		.byte	0x4
 357 009d 07       		.byte	0x7
 358 009e F7050000 		.4byte	.LASF13
 359 00a2 02       		.uleb128 0x2
 360 00a3 D7050000 		.4byte	.LASF14
 361 00a7 04       		.byte	0x4
 362 00a8 69       		.byte	0x69
 363 00a9 AD000000 		.4byte	0xad
 364 00ad 03       		.uleb128 0x3
 365 00ae 08       		.byte	0x8
 366 00af 07       		.byte	0x7
 367 00b0 DC090000 		.4byte	.LASF15
 368 00b4 02       		.uleb128 0x2
 369 00b5 0C0C0000 		.4byte	.LASF16
 370 00b9 04       		.byte	0x4
 371 00ba C8       		.byte	0xc8
 372 00bb 3E000000 		.4byte	0x3e
 373 00bf 02       		.uleb128 0x2
 374 00c0 AC0C0000 		.4byte	.LASF17
 375 00c4 05       		.byte	0x5
 376 00c5 22       		.byte	0x22
 377 00c6 CA000000 		.4byte	0xca
 378 00ca 05       		.uleb128 0x5
 379 00cb 04       		.byte	0x4
 380 00cc D0000000 		.4byte	0xd0
 381 00d0 06       		.uleb128 0x6
 382 00d1 F3040000 		.4byte	.LASF133
 383 00d5 02       		.uleb128 0x2
 384 00d6 28070000 		.4byte	.LASF18
 385 00da 06       		.byte	0x6
 386 00db 1C       		.byte	0x1c
 387 00dc 89000000 		.4byte	0x89
 388 00e0 02       		.uleb128 0x2
 389 00e1 A8020000 		.4byte	.LASF19
 390 00e5 06       		.byte	0x6
ARM GAS  C:\Users\RAKIBU~1\AppData\Local\Temp\cc5tbduv.s 			page 8


 391 00e6 20       		.byte	0x20
 392 00e7 89000000 		.4byte	0x89
 393 00eb 02       		.uleb128 0x2
 394 00ec 1B0D0000 		.4byte	.LASF20
 395 00f0 06       		.byte	0x6
 396 00f1 2C       		.byte	0x2c
 397 00f2 89000000 		.4byte	0x89
 398 00f6 02       		.uleb128 0x2
 399 00f7 AE010000 		.4byte	.LASF21
 400 00fb 06       		.byte	0x6
 401 00fc 36       		.byte	0x36
 402 00fd 65000000 		.4byte	0x65
 403 0101 02       		.uleb128 0x2
 404 0102 C40C0000 		.4byte	.LASF22
 405 0106 06       		.byte	0x6
 406 0107 3A       		.byte	0x3a
 407 0108 77000000 		.4byte	0x77
 408 010c 02       		.uleb128 0x2
 409 010d E7000000 		.4byte	.LASF23
 410 0111 06       		.byte	0x6
 411 0112 3D       		.byte	0x3d
 412 0113 77000000 		.4byte	0x77
 413 0117 02       		.uleb128 0x2
 414 0118 57070000 		.4byte	.LASF24
 415 011c 06       		.byte	0x6
 416 011d 49       		.byte	0x49
 417 011e 77000000 		.4byte	0x77
 418 0122 02       		.uleb128 0x2
 419 0123 13040000 		.4byte	.LASF25
 420 0127 06       		.byte	0x6
 421 0128 58       		.byte	0x58
 422 0129 90000000 		.4byte	0x90
 423 012d 02       		.uleb128 0x2
 424 012e FC090000 		.4byte	.LASF26
 425 0132 06       		.byte	0x6
 426 0133 64       		.byte	0x64
 427 0134 EB000000 		.4byte	0xeb
 428 0138 02       		.uleb128 0x2
 429 0139 8E090000 		.4byte	.LASF27
 430 013d 06       		.byte	0x6
 431 013e 72       		.byte	0x72
 432 013f 89000000 		.4byte	0x89
 433 0143 07       		.uleb128 0x7
 434 0144 5C0B0000 		.4byte	.LASF28
 435 0148 03       		.byte	0x3
 436 0149 6501     		.2byte	0x165
 437 014b 30000000 		.4byte	0x30
 438 014f 08       		.uleb128 0x8
 439 0150 04       		.byte	0x4
 440 0151 06       		.byte	0x6
 441 0152 A6       		.byte	0xa6
 442 0153 6E010000 		.4byte	0x16e
 443 0157 09       		.uleb128 0x9
 444 0158 95010000 		.4byte	.LASF29
 445 015c 06       		.byte	0x6
 446 015d A8       		.byte	0xa8
 447 015e 43010000 		.4byte	0x143
ARM GAS  C:\Users\RAKIBU~1\AppData\Local\Temp\cc5tbduv.s 			page 9


 448 0162 09       		.uleb128 0x9
 449 0163 96090000 		.4byte	.LASF30
 450 0167 06       		.byte	0x6
 451 0168 A9       		.byte	0xa9
 452 0169 6E010000 		.4byte	0x16e
 453 016d 00       		.byte	0
 454 016e 0A       		.uleb128 0xa
 455 016f 5E000000 		.4byte	0x5e
 456 0173 7E010000 		.4byte	0x17e
 457 0177 0B       		.uleb128 0xb
 458 0178 30000000 		.4byte	0x30
 459 017c 03       		.byte	0x3
 460 017d 00       		.byte	0
 461 017e 0C       		.uleb128 0xc
 462 017f 08       		.byte	0x8
 463 0180 06       		.byte	0x6
 464 0181 A3       		.byte	0xa3
 465 0182 9F010000 		.4byte	0x19f
 466 0186 0D       		.uleb128 0xd
 467 0187 E7080000 		.4byte	.LASF31
 468 018b 06       		.byte	0x6
 469 018c A5       		.byte	0xa5
 470 018d 37000000 		.4byte	0x37
 471 0191 00       		.byte	0
 472 0192 0D       		.uleb128 0xd
 473 0193 2A000000 		.4byte	.LASF32
 474 0197 06       		.byte	0x6
 475 0198 AA       		.byte	0xaa
 476 0199 4F010000 		.4byte	0x14f
 477 019d 04       		.byte	0x4
 478 019e 00       		.byte	0
 479 019f 02       		.uleb128 0x2
 480 01a0 450B0000 		.4byte	.LASF33
 481 01a4 06       		.byte	0x6
 482 01a5 AB       		.byte	0xab
 483 01a6 7E010000 		.4byte	0x17e
 484 01aa 02       		.uleb128 0x2
 485 01ab 230B0000 		.4byte	.LASF34
 486 01af 06       		.byte	0x6
 487 01b0 AF       		.byte	0xaf
 488 01b1 BF000000 		.4byte	0xbf
 489 01b5 0E       		.uleb128 0xe
 490 01b6 04       		.byte	0x4
 491 01b7 02       		.uleb128 0x2
 492 01b8 AA0D0000 		.4byte	.LASF35
 493 01bc 06       		.byte	0x6
 494 01bd D2       		.byte	0xd2
 495 01be 77000000 		.4byte	0x77
 496 01c2 05       		.uleb128 0x5
 497 01c3 04       		.byte	0x4
 498 01c4 C8010000 		.4byte	0x1c8
 499 01c8 03       		.uleb128 0x3
 500 01c9 01       		.byte	0x1
 501 01ca 08       		.byte	0x8
 502 01cb D0030000 		.4byte	.LASF36
 503 01cf 0F       		.uleb128 0xf
 504 01d0 C8010000 		.4byte	0x1c8
ARM GAS  C:\Users\RAKIBU~1\AppData\Local\Temp\cc5tbduv.s 			page 10


 505 01d4 02       		.uleb128 0x2
 506 01d5 FC0C0000 		.4byte	.LASF37
 507 01d9 07       		.byte	0x7
 508 01da 16       		.byte	0x16
 509 01db 9B000000 		.4byte	0x9b
 510 01df 10       		.uleb128 0x10
 511 01e0 02070000 		.4byte	.LASF42
 512 01e4 18       		.byte	0x18
 513 01e5 07       		.byte	0x7
 514 01e6 2F       		.byte	0x2f
 515 01e7 32020000 		.4byte	0x232
 516 01eb 0D       		.uleb128 0xd
 517 01ec 710B0000 		.4byte	.LASF38
 518 01f0 07       		.byte	0x7
 519 01f1 31       		.byte	0x31
 520 01f2 32020000 		.4byte	0x232
 521 01f6 00       		.byte	0
 522 01f7 11       		.uleb128 0x11
 523 01f8 5F6B00   		.ascii	"_k\000"
 524 01fb 07       		.byte	0x7
 525 01fc 32       		.byte	0x32
 526 01fd 37000000 		.4byte	0x37
 527 0201 04       		.byte	0x4
 528 0202 0D       		.uleb128 0xd
 529 0203 1A070000 		.4byte	.LASF39
 530 0207 07       		.byte	0x7
 531 0208 32       		.byte	0x32
 532 0209 37000000 		.4byte	0x37
 533 020d 08       		.byte	0x8
 534 020e 0D       		.uleb128 0xd
 535 020f FC070000 		.4byte	.LASF40
 536 0213 07       		.byte	0x7
 537 0214 32       		.byte	0x32
 538 0215 37000000 		.4byte	0x37
 539 0219 0C       		.byte	0xc
 540 021a 0D       		.uleb128 0xd
 541 021b E0040000 		.4byte	.LASF41
 542 021f 07       		.byte	0x7
 543 0220 32       		.byte	0x32
 544 0221 37000000 		.4byte	0x37
 545 0225 10       		.byte	0x10
 546 0226 11       		.uleb128 0x11
 547 0227 5F7800   		.ascii	"_x\000"
 548 022a 07       		.byte	0x7
 549 022b 33       		.byte	0x33
 550 022c 38020000 		.4byte	0x238
 551 0230 14       		.byte	0x14
 552 0231 00       		.byte	0
 553 0232 05       		.uleb128 0x5
 554 0233 04       		.byte	0x4
 555 0234 DF010000 		.4byte	0x1df
 556 0238 0A       		.uleb128 0xa
 557 0239 D4010000 		.4byte	0x1d4
 558 023d 48020000 		.4byte	0x248
 559 0241 0B       		.uleb128 0xb
 560 0242 30000000 		.4byte	0x30
 561 0246 00       		.byte	0
ARM GAS  C:\Users\RAKIBU~1\AppData\Local\Temp\cc5tbduv.s 			page 11


 562 0247 00       		.byte	0
 563 0248 10       		.uleb128 0x10
 564 0249 F7000000 		.4byte	.LASF43
 565 024d 24       		.byte	0x24
 566 024e 07       		.byte	0x7
 567 024f 37       		.byte	0x37
 568 0250 C1020000 		.4byte	0x2c1
 569 0254 0D       		.uleb128 0xd
 570 0255 13010000 		.4byte	.LASF44
 571 0259 07       		.byte	0x7
 572 025a 39       		.byte	0x39
 573 025b 37000000 		.4byte	0x37
 574 025f 00       		.byte	0
 575 0260 0D       		.uleb128 0xd
 576 0261 D20D0000 		.4byte	.LASF45
 577 0265 07       		.byte	0x7
 578 0266 3A       		.byte	0x3a
 579 0267 37000000 		.4byte	0x37
 580 026b 04       		.byte	0x4
 581 026c 0D       		.uleb128 0xd
 582 026d 410D0000 		.4byte	.LASF46
 583 0271 07       		.byte	0x7
 584 0272 3B       		.byte	0x3b
 585 0273 37000000 		.4byte	0x37
 586 0277 08       		.byte	0x8
 587 0278 0D       		.uleb128 0xd
 588 0279 68080000 		.4byte	.LASF47
 589 027d 07       		.byte	0x7
 590 027e 3C       		.byte	0x3c
 591 027f 37000000 		.4byte	0x37
 592 0283 0C       		.byte	0xc
 593 0284 0D       		.uleb128 0xd
 594 0285 6C020000 		.4byte	.LASF48
 595 0289 07       		.byte	0x7
 596 028a 3D       		.byte	0x3d
 597 028b 37000000 		.4byte	0x37
 598 028f 10       		.byte	0x10
 599 0290 0D       		.uleb128 0xd
 600 0291 440C0000 		.4byte	.LASF49
 601 0295 07       		.byte	0x7
 602 0296 3E       		.byte	0x3e
 603 0297 37000000 		.4byte	0x37
 604 029b 14       		.byte	0x14
 605 029c 0D       		.uleb128 0xd
 606 029d 12090000 		.4byte	.LASF50
 607 02a1 07       		.byte	0x7
 608 02a2 3F       		.byte	0x3f
 609 02a3 37000000 		.4byte	0x37
 610 02a7 18       		.byte	0x18
 611 02a8 0D       		.uleb128 0xd
 612 02a9 3A090000 		.4byte	.LASF51
 613 02ad 07       		.byte	0x7
 614 02ae 40       		.byte	0x40
 615 02af 37000000 		.4byte	0x37
 616 02b3 1C       		.byte	0x1c
 617 02b4 0D       		.uleb128 0xd
 618 02b5 BC0D0000 		.4byte	.LASF52
ARM GAS  C:\Users\RAKIBU~1\AppData\Local\Temp\cc5tbduv.s 			page 12


 619 02b9 07       		.byte	0x7
 620 02ba 41       		.byte	0x41
 621 02bb 37000000 		.4byte	0x37
 622 02bf 20       		.byte	0x20
 623 02c0 00       		.byte	0
 624 02c1 12       		.uleb128 0x12
 625 02c2 C2010000 		.4byte	.LASF53
 626 02c6 0801     		.2byte	0x108
 627 02c8 07       		.byte	0x7
 628 02c9 4A       		.byte	0x4a
 629 02ca 01030000 		.4byte	0x301
 630 02ce 0D       		.uleb128 0xd
 631 02cf B40D0000 		.4byte	.LASF54
 632 02d3 07       		.byte	0x7
 633 02d4 4B       		.byte	0x4b
 634 02d5 01030000 		.4byte	0x301
 635 02d9 00       		.byte	0
 636 02da 0D       		.uleb128 0xd
 637 02db 0D0A0000 		.4byte	.LASF55
 638 02df 07       		.byte	0x7
 639 02e0 4C       		.byte	0x4c
 640 02e1 01030000 		.4byte	0x301
 641 02e5 80       		.byte	0x80
 642 02e6 13       		.uleb128 0x13
 643 02e7 030C0000 		.4byte	.LASF56
 644 02eb 07       		.byte	0x7
 645 02ec 4E       		.byte	0x4e
 646 02ed D4010000 		.4byte	0x1d4
 647 02f1 0001     		.2byte	0x100
 648 02f3 13       		.uleb128 0x13
 649 02f4 A40C0000 		.4byte	.LASF57
 650 02f8 07       		.byte	0x7
 651 02f9 51       		.byte	0x51
 652 02fa D4010000 		.4byte	0x1d4
 653 02fe 0401     		.2byte	0x104
 654 0300 00       		.byte	0
 655 0301 0A       		.uleb128 0xa
 656 0302 B5010000 		.4byte	0x1b5
 657 0306 11030000 		.4byte	0x311
 658 030a 0B       		.uleb128 0xb
 659 030b 30000000 		.4byte	0x30
 660 030f 1F       		.byte	0x1f
 661 0310 00       		.byte	0
 662 0311 12       		.uleb128 0x12
 663 0312 DF080000 		.4byte	.LASF58
 664 0316 9001     		.2byte	0x190
 665 0318 07       		.byte	0x7
 666 0319 5D       		.byte	0x5d
 667 031a 4F030000 		.4byte	0x34f
 668 031e 0D       		.uleb128 0xd
 669 031f 710B0000 		.4byte	.LASF38
 670 0323 07       		.byte	0x7
 671 0324 5E       		.byte	0x5e
 672 0325 4F030000 		.4byte	0x34f
 673 0329 00       		.byte	0
 674 032a 0D       		.uleb128 0xd
 675 032b 6F0C0000 		.4byte	.LASF59
ARM GAS  C:\Users\RAKIBU~1\AppData\Local\Temp\cc5tbduv.s 			page 13


 676 032f 07       		.byte	0x7
 677 0330 5F       		.byte	0x5f
 678 0331 37000000 		.4byte	0x37
 679 0335 04       		.byte	0x4
 680 0336 0D       		.uleb128 0xd
 681 0337 DC030000 		.4byte	.LASF60
 682 033b 07       		.byte	0x7
 683 033c 61       		.byte	0x61
 684 033d 55030000 		.4byte	0x355
 685 0341 08       		.byte	0x8
 686 0342 0D       		.uleb128 0xd
 687 0343 C2010000 		.4byte	.LASF53
 688 0347 07       		.byte	0x7
 689 0348 62       		.byte	0x62
 690 0349 C1020000 		.4byte	0x2c1
 691 034d 88       		.byte	0x88
 692 034e 00       		.byte	0
 693 034f 05       		.uleb128 0x5
 694 0350 04       		.byte	0x4
 695 0351 11030000 		.4byte	0x311
 696 0355 0A       		.uleb128 0xa
 697 0356 65030000 		.4byte	0x365
 698 035a 65030000 		.4byte	0x365
 699 035e 0B       		.uleb128 0xb
 700 035f 30000000 		.4byte	0x30
 701 0363 1F       		.byte	0x1f
 702 0364 00       		.byte	0
 703 0365 05       		.uleb128 0x5
 704 0366 04       		.byte	0x4
 705 0367 6B030000 		.4byte	0x36b
 706 036b 14       		.uleb128 0x14
 707 036c 10       		.uleb128 0x10
 708 036d 860C0000 		.4byte	.LASF61
 709 0371 08       		.byte	0x8
 710 0372 07       		.byte	0x7
 711 0373 75       		.byte	0x75
 712 0374 91030000 		.4byte	0x391
 713 0378 0D       		.uleb128 0xd
 714 0379 4F0A0000 		.4byte	.LASF62
 715 037d 07       		.byte	0x7
 716 037e 76       		.byte	0x76
 717 037f 91030000 		.4byte	0x391
 718 0383 00       		.byte	0
 719 0384 0D       		.uleb128 0xd
 720 0385 07020000 		.4byte	.LASF63
 721 0389 07       		.byte	0x7
 722 038a 77       		.byte	0x77
 723 038b 37000000 		.4byte	0x37
 724 038f 04       		.byte	0x4
 725 0390 00       		.byte	0
 726 0391 05       		.uleb128 0x5
 727 0392 04       		.byte	0x4
 728 0393 5E000000 		.4byte	0x5e
 729 0397 10       		.uleb128 0x10
 730 0398 14060000 		.4byte	.LASF64
 731 039c 68       		.byte	0x68
 732 039d 07       		.byte	0x7
ARM GAS  C:\Users\RAKIBU~1\AppData\Local\Temp\cc5tbduv.s 			page 14


 733 039e B5       		.byte	0xb5
 734 039f C1040000 		.4byte	0x4c1
 735 03a3 11       		.uleb128 0x11
 736 03a4 5F7000   		.ascii	"_p\000"
 737 03a7 07       		.byte	0x7
 738 03a8 B6       		.byte	0xb6
 739 03a9 91030000 		.4byte	0x391
 740 03ad 00       		.byte	0
 741 03ae 11       		.uleb128 0x11
 742 03af 5F7200   		.ascii	"_r\000"
 743 03b2 07       		.byte	0x7
 744 03b3 B7       		.byte	0xb7
 745 03b4 37000000 		.4byte	0x37
 746 03b8 04       		.byte	0x4
 747 03b9 11       		.uleb128 0x11
 748 03ba 5F7700   		.ascii	"_w\000"
 749 03bd 07       		.byte	0x7
 750 03be B8       		.byte	0xb8
 751 03bf 37000000 		.4byte	0x37
 752 03c3 08       		.byte	0x8
 753 03c4 0D       		.uleb128 0xd
 754 03c5 BE080000 		.4byte	.LASF65
 755 03c9 07       		.byte	0x7
 756 03ca B9       		.byte	0xb9
 757 03cb 65000000 		.4byte	0x65
 758 03cf 0C       		.byte	0xc
 759 03d0 0D       		.uleb128 0xd
 760 03d1 BC010000 		.4byte	.LASF66
 761 03d5 07       		.byte	0x7
 762 03d6 BA       		.byte	0xba
 763 03d7 65000000 		.4byte	0x65
 764 03db 0E       		.byte	0xe
 765 03dc 11       		.uleb128 0x11
 766 03dd 5F626600 		.ascii	"_bf\000"
 767 03e1 07       		.byte	0x7
 768 03e2 BB       		.byte	0xbb
 769 03e3 6C030000 		.4byte	0x36c
 770 03e7 10       		.byte	0x10
 771 03e8 0D       		.uleb128 0xd
 772 03e9 5A0C0000 		.4byte	.LASF67
 773 03ed 07       		.byte	0x7
 774 03ee BC       		.byte	0xbc
 775 03ef 37000000 		.4byte	0x37
 776 03f3 18       		.byte	0x18
 777 03f4 0D       		.uleb128 0xd
 778 03f5 B3040000 		.4byte	.LASF68
 779 03f9 07       		.byte	0x7
 780 03fa C3       		.byte	0xc3
 781 03fb B5010000 		.4byte	0x1b5
 782 03ff 1C       		.byte	0x1c
 783 0400 0D       		.uleb128 0xd
 784 0401 53000000 		.4byte	.LASF69
 785 0405 07       		.byte	0x7
 786 0406 C5       		.byte	0xc5
 787 0407 1C060000 		.4byte	0x61c
 788 040b 20       		.byte	0x20
 789 040c 0D       		.uleb128 0xd
ARM GAS  C:\Users\RAKIBU~1\AppData\Local\Temp\cc5tbduv.s 			page 15


 790 040d 8C000000 		.4byte	.LASF70
 791 0411 07       		.byte	0x7
 792 0412 C7       		.byte	0xc7
 793 0413 50060000 		.4byte	0x650
 794 0417 24       		.byte	0x24
 795 0418 0D       		.uleb128 0xd
 796 0419 79090000 		.4byte	.LASF71
 797 041d 07       		.byte	0x7
 798 041e CA       		.byte	0xca
 799 041f 74060000 		.4byte	0x674
 800 0423 28       		.byte	0x28
 801 0424 0D       		.uleb128 0xd
 802 0425 E1030000 		.4byte	.LASF72
 803 0429 07       		.byte	0x7
 804 042a CB       		.byte	0xcb
 805 042b 8E060000 		.4byte	0x68e
 806 042f 2C       		.byte	0x2c
 807 0430 11       		.uleb128 0x11
 808 0431 5F756200 		.ascii	"_ub\000"
 809 0435 07       		.byte	0x7
 810 0436 CE       		.byte	0xce
 811 0437 6C030000 		.4byte	0x36c
 812 043b 30       		.byte	0x30
 813 043c 11       		.uleb128 0x11
 814 043d 5F757000 		.ascii	"_up\000"
 815 0441 07       		.byte	0x7
 816 0442 CF       		.byte	0xcf
 817 0443 91030000 		.4byte	0x391
 818 0447 38       		.byte	0x38
 819 0448 11       		.uleb128 0x11
 820 0449 5F757200 		.ascii	"_ur\000"
 821 044d 07       		.byte	0x7
 822 044e D0       		.byte	0xd0
 823 044f 37000000 		.4byte	0x37
 824 0453 3C       		.byte	0x3c
 825 0454 0D       		.uleb128 0xd
 826 0455 86080000 		.4byte	.LASF73
 827 0459 07       		.byte	0x7
 828 045a D3       		.byte	0xd3
 829 045b 94060000 		.4byte	0x694
 830 045f 40       		.byte	0x40
 831 0460 0D       		.uleb128 0xd
 832 0461 0D010000 		.4byte	.LASF74
 833 0465 07       		.byte	0x7
 834 0466 D4       		.byte	0xd4
 835 0467 A4060000 		.4byte	0x6a4
 836 046b 43       		.byte	0x43
 837 046c 11       		.uleb128 0x11
 838 046d 5F6C6200 		.ascii	"_lb\000"
 839 0471 07       		.byte	0x7
 840 0472 D7       		.byte	0xd7
 841 0473 6C030000 		.4byte	0x36c
 842 0477 44       		.byte	0x44
 843 0478 0D       		.uleb128 0xd
 844 0479 460A0000 		.4byte	.LASF75
 845 047d 07       		.byte	0x7
 846 047e DA       		.byte	0xda
ARM GAS  C:\Users\RAKIBU~1\AppData\Local\Temp\cc5tbduv.s 			page 16


 847 047f 37000000 		.4byte	0x37
 848 0483 4C       		.byte	0x4c
 849 0484 0D       		.uleb128 0xd
 850 0485 0D050000 		.4byte	.LASF76
 851 0489 07       		.byte	0x7
 852 048a DB       		.byte	0xdb
 853 048b EB000000 		.4byte	0xeb
 854 048f 50       		.byte	0x50
 855 0490 0D       		.uleb128 0xd
 856 0491 770B0000 		.4byte	.LASF77
 857 0495 07       		.byte	0x7
 858 0496 DE       		.byte	0xde
 859 0497 DF040000 		.4byte	0x4df
 860 049b 54       		.byte	0x54
 861 049c 0D       		.uleb128 0xd
 862 049d 4A010000 		.4byte	.LASF78
 863 04a1 07       		.byte	0x7
 864 04a2 E2       		.byte	0xe2
 865 04a3 AA010000 		.4byte	0x1aa
 866 04a7 58       		.byte	0x58
 867 04a8 0D       		.uleb128 0xd
 868 04a9 A2080000 		.4byte	.LASF79
 869 04ad 07       		.byte	0x7
 870 04ae E4       		.byte	0xe4
 871 04af 9F010000 		.4byte	0x19f
 872 04b3 5C       		.byte	0x5c
 873 04b4 0D       		.uleb128 0xd
 874 04b5 27060000 		.4byte	.LASF80
 875 04b9 07       		.byte	0x7
 876 04ba E5       		.byte	0xe5
 877 04bb 37000000 		.4byte	0x37
 878 04bf 64       		.byte	0x64
 879 04c0 00       		.byte	0
 880 04c1 15       		.uleb128 0x15
 881 04c2 37000000 		.4byte	0x37
 882 04c6 DF040000 		.4byte	0x4df
 883 04ca 16       		.uleb128 0x16
 884 04cb DF040000 		.4byte	0x4df
 885 04cf 16       		.uleb128 0x16
 886 04d0 B5010000 		.4byte	0x1b5
 887 04d4 16       		.uleb128 0x16
 888 04d5 C2010000 		.4byte	0x1c2
 889 04d9 16       		.uleb128 0x16
 890 04da 37000000 		.4byte	0x37
 891 04de 00       		.byte	0
 892 04df 05       		.uleb128 0x5
 893 04e0 04       		.byte	0x4
 894 04e1 EA040000 		.4byte	0x4ea
 895 04e5 0F       		.uleb128 0xf
 896 04e6 DF040000 		.4byte	0x4df
 897 04ea 17       		.uleb128 0x17
 898 04eb 4E030000 		.4byte	.LASF81
 899 04ef 2804     		.2byte	0x428
 900 04f1 07       		.byte	0x7
 901 04f2 3902     		.2byte	0x239
 902 04f4 1C060000 		.4byte	0x61c
 903 04f8 18       		.uleb128 0x18
ARM GAS  C:\Users\RAKIBU~1\AppData\Local\Temp\cc5tbduv.s 			page 17


 904 04f9 86060000 		.4byte	.LASF82
 905 04fd 07       		.byte	0x7
 906 04fe 3B02     		.2byte	0x23b
 907 0500 37000000 		.4byte	0x37
 908 0504 00       		.byte	0
 909 0505 18       		.uleb128 0x18
 910 0506 0C040000 		.4byte	.LASF83
 911 050a 07       		.byte	0x7
 912 050b 4002     		.2byte	0x240
 913 050d FB060000 		.4byte	0x6fb
 914 0511 04       		.byte	0x4
 915 0512 18       		.uleb128 0x18
 916 0513 380A0000 		.4byte	.LASF84
 917 0517 07       		.byte	0x7
 918 0518 4002     		.2byte	0x240
 919 051a FB060000 		.4byte	0x6fb
 920 051e 08       		.byte	0x8
 921 051f 18       		.uleb128 0x18
 922 0520 8C080000 		.4byte	.LASF85
 923 0524 07       		.byte	0x7
 924 0525 4002     		.2byte	0x240
 925 0527 FB060000 		.4byte	0x6fb
 926 052b 0C       		.byte	0xc
 927 052c 18       		.uleb128 0x18
 928 052d 6A0C0000 		.4byte	.LASF86
 929 0531 07       		.byte	0x7
 930 0532 4202     		.2byte	0x242
 931 0534 37000000 		.4byte	0x37
 932 0538 10       		.byte	0x10
 933 0539 18       		.uleb128 0x18
 934 053a 6A070000 		.4byte	.LASF87
 935 053e 07       		.byte	0x7
 936 053f 4302     		.2byte	0x243
 937 0541 DD080000 		.4byte	0x8dd
 938 0545 14       		.byte	0x14
 939 0546 18       		.uleb128 0x18
 940 0547 35030000 		.4byte	.LASF88
 941 054b 07       		.byte	0x7
 942 054c 4602     		.2byte	0x246
 943 054e 37000000 		.4byte	0x37
 944 0552 30       		.byte	0x30
 945 0553 18       		.uleb128 0x18
 946 0554 F40C0000 		.4byte	.LASF89
 947 0558 07       		.byte	0x7
 948 0559 4702     		.2byte	0x247
 949 055b F2080000 		.4byte	0x8f2
 950 055f 34       		.byte	0x34
 951 0560 18       		.uleb128 0x18
 952 0561 1C060000 		.4byte	.LASF90
 953 0565 07       		.byte	0x7
 954 0566 4902     		.2byte	0x249
 955 0568 37000000 		.4byte	0x37
 956 056c 38       		.byte	0x38
 957 056d 18       		.uleb128 0x18
 958 056e 74000000 		.4byte	.LASF91
 959 0572 07       		.byte	0x7
 960 0573 4B02     		.2byte	0x24b
ARM GAS  C:\Users\RAKIBU~1\AppData\Local\Temp\cc5tbduv.s 			page 18


 961 0575 03090000 		.4byte	0x903
 962 0579 3C       		.byte	0x3c
 963 057a 18       		.uleb128 0x18
 964 057b 130D0000 		.4byte	.LASF92
 965 057f 07       		.byte	0x7
 966 0580 4E02     		.2byte	0x24e
 967 0582 32020000 		.4byte	0x232
 968 0586 40       		.byte	0x40
 969 0587 18       		.uleb128 0x18
 970 0588 FD010000 		.4byte	.LASF93
 971 058c 07       		.byte	0x7
 972 058d 4F02     		.2byte	0x24f
 973 058f 37000000 		.4byte	0x37
 974 0593 44       		.byte	0x44
 975 0594 18       		.uleb128 0x18
 976 0595 F2050000 		.4byte	.LASF94
 977 0599 07       		.byte	0x7
 978 059a 5002     		.2byte	0x250
 979 059c 32020000 		.4byte	0x232
 980 05a0 48       		.byte	0x48
 981 05a1 18       		.uleb128 0x18
 982 05a2 D3070000 		.4byte	.LASF95
 983 05a6 07       		.byte	0x7
 984 05a7 5102     		.2byte	0x251
 985 05a9 09090000 		.4byte	0x909
 986 05ad 4C       		.byte	0x4c
 987 05ae 18       		.uleb128 0x18
 988 05af A8000000 		.4byte	.LASF96
 989 05b3 07       		.byte	0x7
 990 05b4 5402     		.2byte	0x254
 991 05b6 37000000 		.4byte	0x37
 992 05ba 50       		.byte	0x50
 993 05bb 18       		.uleb128 0x18
 994 05bc 15050000 		.4byte	.LASF97
 995 05c0 07       		.byte	0x7
 996 05c1 5502     		.2byte	0x255
 997 05c3 C2010000 		.4byte	0x1c2
 998 05c7 54       		.byte	0x54
 999 05c8 18       		.uleb128 0x18
 1000 05c9 81080000 		.4byte	.LASF98
 1001 05cd 07       		.byte	0x7
 1002 05ce 7802     		.2byte	0x278
 1003 05d0 BB080000 		.4byte	0x8bb
 1004 05d4 58       		.byte	0x58
 1005 05d5 19       		.uleb128 0x19
 1006 05d6 DF080000 		.4byte	.LASF58
 1007 05da 07       		.byte	0x7
 1008 05db 7C02     		.2byte	0x27c
 1009 05dd 4F030000 		.4byte	0x34f
 1010 05e1 4801     		.2byte	0x148
 1011 05e3 19       		.uleb128 0x19
 1012 05e4 3E070000 		.4byte	.LASF99
 1013 05e8 07       		.byte	0x7
 1014 05e9 7D02     		.2byte	0x27d
 1015 05eb 11030000 		.4byte	0x311
 1016 05ef 4C01     		.2byte	0x14c
 1017 05f1 19       		.uleb128 0x19
ARM GAS  C:\Users\RAKIBU~1\AppData\Local\Temp\cc5tbduv.s 			page 19


 1018 05f2 FA040000 		.4byte	.LASF100
 1019 05f6 07       		.byte	0x7
 1020 05f7 8102     		.2byte	0x281
 1021 05f9 1A090000 		.4byte	0x91a
 1022 05fd DC02     		.2byte	0x2dc
 1023 05ff 19       		.uleb128 0x19
 1024 0600 B3070000 		.4byte	.LASF101
 1025 0604 07       		.byte	0x7
 1026 0605 8602     		.2byte	0x286
 1027 0607 C0060000 		.4byte	0x6c0
 1028 060b E002     		.2byte	0x2e0
 1029 060d 19       		.uleb128 0x19
 1030 060e 48000000 		.4byte	.LASF102
 1031 0612 07       		.byte	0x7
 1032 0613 8802     		.2byte	0x288
 1033 0615 26090000 		.4byte	0x926
 1034 0619 EC02     		.2byte	0x2ec
 1035 061b 00       		.byte	0
 1036 061c 05       		.uleb128 0x5
 1037 061d 04       		.byte	0x4
 1038 061e C1040000 		.4byte	0x4c1
 1039 0622 15       		.uleb128 0x15
 1040 0623 37000000 		.4byte	0x37
 1041 0627 40060000 		.4byte	0x640
 1042 062b 16       		.uleb128 0x16
 1043 062c DF040000 		.4byte	0x4df
 1044 0630 16       		.uleb128 0x16
 1045 0631 B5010000 		.4byte	0x1b5
 1046 0635 16       		.uleb128 0x16
 1047 0636 40060000 		.4byte	0x640
 1048 063a 16       		.uleb128 0x16
 1049 063b 37000000 		.4byte	0x37
 1050 063f 00       		.byte	0
 1051 0640 05       		.uleb128 0x5
 1052 0641 04       		.byte	0x4
 1053 0642 CF010000 		.4byte	0x1cf
 1054 0646 0F       		.uleb128 0xf
 1055 0647 40060000 		.4byte	0x640
 1056 064b 1A       		.uleb128 0x1a
 1057 064c 40060000 		.4byte	0x640
 1058 0650 05       		.uleb128 0x5
 1059 0651 04       		.byte	0x4
 1060 0652 22060000 		.4byte	0x622
 1061 0656 15       		.uleb128 0x15
 1062 0657 38010000 		.4byte	0x138
 1063 065b 74060000 		.4byte	0x674
 1064 065f 16       		.uleb128 0x16
 1065 0660 DF040000 		.4byte	0x4df
 1066 0664 16       		.uleb128 0x16
 1067 0665 B5010000 		.4byte	0x1b5
 1068 0669 16       		.uleb128 0x16
 1069 066a 38010000 		.4byte	0x138
 1070 066e 16       		.uleb128 0x16
 1071 066f 37000000 		.4byte	0x37
 1072 0673 00       		.byte	0
 1073 0674 05       		.uleb128 0x5
 1074 0675 04       		.byte	0x4
ARM GAS  C:\Users\RAKIBU~1\AppData\Local\Temp\cc5tbduv.s 			page 20


 1075 0676 56060000 		.4byte	0x656
 1076 067a 15       		.uleb128 0x15
 1077 067b 37000000 		.4byte	0x37
 1078 067f 8E060000 		.4byte	0x68e
 1079 0683 16       		.uleb128 0x16
 1080 0684 DF040000 		.4byte	0x4df
 1081 0688 16       		.uleb128 0x16
 1082 0689 B5010000 		.4byte	0x1b5
 1083 068d 00       		.byte	0
 1084 068e 05       		.uleb128 0x5
 1085 068f 04       		.byte	0x4
 1086 0690 7A060000 		.4byte	0x67a
 1087 0694 0A       		.uleb128 0xa
 1088 0695 5E000000 		.4byte	0x5e
 1089 0699 A4060000 		.4byte	0x6a4
 1090 069d 0B       		.uleb128 0xb
 1091 069e 30000000 		.4byte	0x30
 1092 06a2 02       		.byte	0x2
 1093 06a3 00       		.byte	0
 1094 06a4 0A       		.uleb128 0xa
 1095 06a5 5E000000 		.4byte	0x5e
 1096 06a9 B4060000 		.4byte	0x6b4
 1097 06ad 0B       		.uleb128 0xb
 1098 06ae 30000000 		.4byte	0x30
 1099 06b2 00       		.byte	0
 1100 06b3 00       		.byte	0
 1101 06b4 07       		.uleb128 0x7
 1102 06b5 340B0000 		.4byte	.LASF103
 1103 06b9 07       		.byte	0x7
 1104 06ba 1F01     		.2byte	0x11f
 1105 06bc 97030000 		.4byte	0x397
 1106 06c0 1B       		.uleb128 0x1b
 1107 06c1 E9070000 		.4byte	.LASF104
 1108 06c5 0C       		.byte	0xc
 1109 06c6 07       		.byte	0x7
 1110 06c7 2301     		.2byte	0x123
 1111 06c9 F5060000 		.4byte	0x6f5
 1112 06cd 18       		.uleb128 0x18
 1113 06ce 710B0000 		.4byte	.LASF38
 1114 06d2 07       		.byte	0x7
 1115 06d3 2501     		.2byte	0x125
 1116 06d5 F5060000 		.4byte	0x6f5
 1117 06d9 00       		.byte	0
 1118 06da 18       		.uleb128 0x18
 1119 06db 99070000 		.4byte	.LASF105
 1120 06df 07       		.byte	0x7
 1121 06e0 2601     		.2byte	0x126
 1122 06e2 37000000 		.4byte	0x37
 1123 06e6 04       		.byte	0x4
 1124 06e7 18       		.uleb128 0x18
 1125 06e8 DD070000 		.4byte	.LASF106
 1126 06ec 07       		.byte	0x7
 1127 06ed 2701     		.2byte	0x127
 1128 06ef FB060000 		.4byte	0x6fb
 1129 06f3 08       		.byte	0x8
 1130 06f4 00       		.byte	0
 1131 06f5 05       		.uleb128 0x5
ARM GAS  C:\Users\RAKIBU~1\AppData\Local\Temp\cc5tbduv.s 			page 21


 1132 06f6 04       		.byte	0x4
 1133 06f7 C0060000 		.4byte	0x6c0
 1134 06fb 05       		.uleb128 0x5
 1135 06fc 04       		.byte	0x4
 1136 06fd B4060000 		.4byte	0x6b4
 1137 0701 1B       		.uleb128 0x1b
 1138 0702 300A0000 		.4byte	.LASF107
 1139 0706 0E       		.byte	0xe
 1140 0707 07       		.byte	0x7
 1141 0708 3F01     		.2byte	0x13f
 1142 070a 36070000 		.4byte	0x736
 1143 070e 18       		.uleb128 0x18
 1144 070f 6A090000 		.4byte	.LASF108
 1145 0713 07       		.byte	0x7
 1146 0714 4001     		.2byte	0x140
 1147 0716 36070000 		.4byte	0x736
 1148 071a 00       		.byte	0
 1149 071b 18       		.uleb128 0x18
 1150 071c 64010000 		.4byte	.LASF109
 1151 0720 07       		.byte	0x7
 1152 0721 4101     		.2byte	0x141
 1153 0723 36070000 		.4byte	0x736
 1154 0727 06       		.byte	0x6
 1155 0728 18       		.uleb128 0x18
 1156 0729 290D0000 		.4byte	.LASF110
 1157 072d 07       		.byte	0x7
 1158 072e 4201     		.2byte	0x142
 1159 0730 77000000 		.4byte	0x77
 1160 0734 0C       		.byte	0xc
 1161 0735 00       		.byte	0
 1162 0736 0A       		.uleb128 0xa
 1163 0737 77000000 		.4byte	0x77
 1164 073b 46070000 		.4byte	0x746
 1165 073f 0B       		.uleb128 0xb
 1166 0740 30000000 		.4byte	0x30
 1167 0744 02       		.byte	0x2
 1168 0745 00       		.byte	0
 1169 0746 1C       		.uleb128 0x1c
 1170 0747 D0       		.byte	0xd0
 1171 0748 07       		.byte	0x7
 1172 0749 5902     		.2byte	0x259
 1173 074b 47080000 		.4byte	0x847
 1174 074f 18       		.uleb128 0x18
 1175 0750 7E020000 		.4byte	.LASF111
 1176 0754 07       		.byte	0x7
 1177 0755 5B02     		.2byte	0x25b
 1178 0757 30000000 		.4byte	0x30
 1179 075b 00       		.byte	0
 1180 075c 18       		.uleb128 0x18
 1181 075d 740A0000 		.4byte	.LASF112
 1182 0761 07       		.byte	0x7
 1183 0762 5C02     		.2byte	0x25c
 1184 0764 C2010000 		.4byte	0x1c2
 1185 0768 04       		.byte	0x4
 1186 0769 18       		.uleb128 0x18
 1187 076a 9B000000 		.4byte	.LASF113
 1188 076e 07       		.byte	0x7
ARM GAS  C:\Users\RAKIBU~1\AppData\Local\Temp\cc5tbduv.s 			page 22


 1189 076f 5D02     		.2byte	0x25d
 1190 0771 47080000 		.4byte	0x847
 1191 0775 08       		.byte	0x8
 1192 0776 18       		.uleb128 0x18
 1193 0777 23020000 		.4byte	.LASF114
 1194 077b 07       		.byte	0x7
 1195 077c 5E02     		.2byte	0x25e
 1196 077e 48020000 		.4byte	0x248
 1197 0782 24       		.byte	0x24
 1198 0783 18       		.uleb128 0x18
 1199 0784 C4070000 		.4byte	.LASF115
 1200 0788 07       		.byte	0x7
 1201 0789 5F02     		.2byte	0x25f
 1202 078b 37000000 		.4byte	0x37
 1203 078f 48       		.byte	0x48
 1204 0790 18       		.uleb128 0x18
 1205 0791 B3080000 		.4byte	.LASF116
 1206 0795 07       		.byte	0x7
 1207 0796 6002     		.2byte	0x260
 1208 0798 AD000000 		.4byte	0xad
 1209 079c 50       		.byte	0x50
 1210 079d 18       		.uleb128 0x18
 1211 079e 500B0000 		.4byte	.LASF117
 1212 07a2 07       		.byte	0x7
 1213 07a3 6102     		.2byte	0x261
 1214 07a5 01070000 		.4byte	0x701
 1215 07a9 58       		.byte	0x58
 1216 07aa 18       		.uleb128 0x18
 1217 07ab C20B0000 		.4byte	.LASF118
 1218 07af 07       		.byte	0x7
 1219 07b0 6202     		.2byte	0x262
 1220 07b2 9F010000 		.4byte	0x19f
 1221 07b6 68       		.byte	0x68
 1222 07b7 18       		.uleb128 0x18
 1223 07b8 BC090000 		.4byte	.LASF119
 1224 07bc 07       		.byte	0x7
 1225 07bd 6302     		.2byte	0x263
 1226 07bf 9F010000 		.4byte	0x19f
 1227 07c3 70       		.byte	0x70
 1228 07c4 18       		.uleb128 0x18
 1229 07c5 94080000 		.4byte	.LASF120
 1230 07c9 07       		.byte	0x7
 1231 07ca 6402     		.2byte	0x264
 1232 07cc 9F010000 		.4byte	0x19f
 1233 07d0 78       		.byte	0x78
 1234 07d1 18       		.uleb128 0x18
 1235 07d2 1C010000 		.4byte	.LASF121
 1236 07d6 07       		.byte	0x7
 1237 07d7 6502     		.2byte	0x265
 1238 07d9 57080000 		.4byte	0x857
 1239 07dd 80       		.byte	0x80
 1240 07de 18       		.uleb128 0x18
 1241 07df C4060000 		.4byte	.LASF122
 1242 07e3 07       		.byte	0x7
 1243 07e4 6602     		.2byte	0x266
 1244 07e6 67080000 		.4byte	0x867
 1245 07ea 88       		.byte	0x88
ARM GAS  C:\Users\RAKIBU~1\AppData\Local\Temp\cc5tbduv.s 			page 23


 1246 07eb 18       		.uleb128 0x18
 1247 07ec F20D0000 		.4byte	.LASF123
 1248 07f0 07       		.byte	0x7
 1249 07f1 6702     		.2byte	0x267
 1250 07f3 37000000 		.4byte	0x37
 1251 07f7 A0       		.byte	0xa0
 1252 07f8 18       		.uleb128 0x18
 1253 07f9 DA010000 		.4byte	.LASF124
 1254 07fd 07       		.byte	0x7
 1255 07fe 6802     		.2byte	0x268
 1256 0800 9F010000 		.4byte	0x19f
 1257 0804 A4       		.byte	0xa4
 1258 0805 18       		.uleb128 0x18
 1259 0806 000B0000 		.4byte	.LASF125
 1260 080a 07       		.byte	0x7
 1261 080b 6902     		.2byte	0x269
 1262 080d 9F010000 		.4byte	0x19f
 1263 0811 AC       		.byte	0xac
 1264 0812 18       		.uleb128 0x18
 1265 0813 610D0000 		.4byte	.LASF126
 1266 0817 07       		.byte	0x7
 1267 0818 6A02     		.2byte	0x26a
 1268 081a 9F010000 		.4byte	0x19f
 1269 081e B4       		.byte	0xb4
 1270 081f 18       		.uleb128 0x18
 1271 0820 59080000 		.4byte	.LASF127
 1272 0824 07       		.byte	0x7
 1273 0825 6B02     		.2byte	0x26b
 1274 0827 9F010000 		.4byte	0x19f
 1275 082b BC       		.byte	0xbc
 1276 082c 18       		.uleb128 0x18
 1277 082d FC000000 		.4byte	.LASF128
 1278 0831 07       		.byte	0x7
 1279 0832 6C02     		.2byte	0x26c
 1280 0834 9F010000 		.4byte	0x19f
 1281 0838 C4       		.byte	0xc4
 1282 0839 18       		.uleb128 0x18
 1283 083a 4B080000 		.4byte	.LASF129
 1284 083e 07       		.byte	0x7
 1285 083f 6D02     		.2byte	0x26d
 1286 0841 37000000 		.4byte	0x37
 1287 0845 CC       		.byte	0xcc
 1288 0846 00       		.byte	0
 1289 0847 0A       		.uleb128 0xa
 1290 0848 C8010000 		.4byte	0x1c8
 1291 084c 57080000 		.4byte	0x857
 1292 0850 0B       		.uleb128 0xb
 1293 0851 30000000 		.4byte	0x30
 1294 0855 19       		.byte	0x19
 1295 0856 00       		.byte	0
 1296 0857 0A       		.uleb128 0xa
 1297 0858 C8010000 		.4byte	0x1c8
 1298 085c 67080000 		.4byte	0x867
 1299 0860 0B       		.uleb128 0xb
 1300 0861 30000000 		.4byte	0x30
 1301 0865 07       		.byte	0x7
 1302 0866 00       		.byte	0
ARM GAS  C:\Users\RAKIBU~1\AppData\Local\Temp\cc5tbduv.s 			page 24


 1303 0867 0A       		.uleb128 0xa
 1304 0868 C8010000 		.4byte	0x1c8
 1305 086c 77080000 		.4byte	0x877
 1306 0870 0B       		.uleb128 0xb
 1307 0871 30000000 		.4byte	0x30
 1308 0875 17       		.byte	0x17
 1309 0876 00       		.byte	0
 1310 0877 1C       		.uleb128 0x1c
 1311 0878 F0       		.byte	0xf0
 1312 0879 07       		.byte	0x7
 1313 087a 7202     		.2byte	0x272
 1314 087c 9B080000 		.4byte	0x89b
 1315 0880 18       		.uleb128 0x18
 1316 0881 CC0C0000 		.4byte	.LASF130
 1317 0885 07       		.byte	0x7
 1318 0886 7502     		.2byte	0x275
 1319 0888 9B080000 		.4byte	0x89b
 1320 088c 00       		.byte	0
 1321 088d 18       		.uleb128 0x18
 1322 088e BB070000 		.4byte	.LASF131
 1323 0892 07       		.byte	0x7
 1324 0893 7602     		.2byte	0x276
 1325 0895 AB080000 		.4byte	0x8ab
 1326 0899 78       		.byte	0x78
 1327 089a 00       		.byte	0
 1328 089b 0A       		.uleb128 0xa
 1329 089c 91030000 		.4byte	0x391
 1330 08a0 AB080000 		.4byte	0x8ab
 1331 08a4 0B       		.uleb128 0xb
 1332 08a5 30000000 		.4byte	0x30
 1333 08a9 1D       		.byte	0x1d
 1334 08aa 00       		.byte	0
 1335 08ab 0A       		.uleb128 0xa
 1336 08ac 30000000 		.4byte	0x30
 1337 08b0 BB080000 		.4byte	0x8bb
 1338 08b4 0B       		.uleb128 0xb
 1339 08b5 30000000 		.4byte	0x30
 1340 08b9 1D       		.byte	0x1d
 1341 08ba 00       		.byte	0
 1342 08bb 1D       		.uleb128 0x1d
 1343 08bc F0       		.byte	0xf0
 1344 08bd 07       		.byte	0x7
 1345 08be 5702     		.2byte	0x257
 1346 08c0 DD080000 		.4byte	0x8dd
 1347 08c4 1E       		.uleb128 0x1e
 1348 08c5 4E030000 		.4byte	.LASF81
 1349 08c9 07       		.byte	0x7
 1350 08ca 6E02     		.2byte	0x26e
 1351 08cc 46070000 		.4byte	0x746
 1352 08d0 1E       		.uleb128 0x1e
 1353 08d1 EF000000 		.4byte	.LASF132
 1354 08d5 07       		.byte	0x7
 1355 08d6 7702     		.2byte	0x277
 1356 08d8 77080000 		.4byte	0x877
 1357 08dc 00       		.byte	0
 1358 08dd 0A       		.uleb128 0xa
 1359 08de C8010000 		.4byte	0x1c8
ARM GAS  C:\Users\RAKIBU~1\AppData\Local\Temp\cc5tbduv.s 			page 25


 1360 08e2 ED080000 		.4byte	0x8ed
 1361 08e6 0B       		.uleb128 0xb
 1362 08e7 30000000 		.4byte	0x30
 1363 08eb 18       		.byte	0x18
 1364 08ec 00       		.byte	0
 1365 08ed 06       		.uleb128 0x6
 1366 08ee 1F000000 		.4byte	.LASF134
 1367 08f2 05       		.uleb128 0x5
 1368 08f3 04       		.byte	0x4
 1369 08f4 ED080000 		.4byte	0x8ed
 1370 08f8 1F       		.uleb128 0x1f
 1371 08f9 03090000 		.4byte	0x903
 1372 08fd 16       		.uleb128 0x16
 1373 08fe DF040000 		.4byte	0x4df
 1374 0902 00       		.byte	0
 1375 0903 05       		.uleb128 0x5
 1376 0904 04       		.byte	0x4
 1377 0905 F8080000 		.4byte	0x8f8
 1378 0909 05       		.uleb128 0x5
 1379 090a 04       		.byte	0x4
 1380 090b 32020000 		.4byte	0x232
 1381 090f 1F       		.uleb128 0x1f
 1382 0910 1A090000 		.4byte	0x91a
 1383 0914 16       		.uleb128 0x16
 1384 0915 37000000 		.4byte	0x37
 1385 0919 00       		.byte	0
 1386 091a 05       		.uleb128 0x5
 1387 091b 04       		.byte	0x4
 1388 091c 20090000 		.4byte	0x920
 1389 0920 05       		.uleb128 0x5
 1390 0921 04       		.byte	0x4
 1391 0922 0F090000 		.4byte	0x90f
 1392 0926 0A       		.uleb128 0xa
 1393 0927 B4060000 		.4byte	0x6b4
 1394 092b 36090000 		.4byte	0x936
 1395 092f 0B       		.uleb128 0xb
 1396 0930 30000000 		.4byte	0x30
 1397 0934 02       		.byte	0x2
 1398 0935 00       		.byte	0
 1399 0936 20       		.uleb128 0x20
 1400 0937 F1010000 		.4byte	.LASF135
 1401 093b 07       		.byte	0x7
 1402 093c 0703     		.2byte	0x307
 1403 093e DF040000 		.4byte	0x4df
 1404 0942 20       		.uleb128 0x20
 1405 0943 55030000 		.4byte	.LASF136
 1406 0947 07       		.byte	0x7
 1407 0948 0803     		.2byte	0x308
 1408 094a E5040000 		.4byte	0x4e5
 1409 094e 21       		.uleb128 0x21
 1410 094f F90B0000 		.4byte	.LASF137
 1411 0953 08       		.byte	0x8
 1412 0954 63       		.byte	0x63
 1413 0955 C2010000 		.4byte	0x1c2
 1414 0959 0A       		.uleb128 0xa
 1415 095a 46060000 		.4byte	0x646
 1416 095e 64090000 		.4byte	0x964
ARM GAS  C:\Users\RAKIBU~1\AppData\Local\Temp\cc5tbduv.s 			page 26


 1417 0962 22       		.uleb128 0x22
 1418 0963 00       		.byte	0
 1419 0964 0F       		.uleb128 0xf
 1420 0965 59090000 		.4byte	0x959
 1421 0969 21       		.uleb128 0x21
 1422 096a 2C0C0000 		.4byte	.LASF138
 1423 096e 09       		.byte	0x9
 1424 096f 14       		.byte	0x14
 1425 0970 64090000 		.4byte	0x964
 1426 0974 21       		.uleb128 0x21
 1427 0975 D0010000 		.4byte	.LASF139
 1428 0979 09       		.byte	0x9
 1429 097a 15       		.byte	0x15
 1430 097b 37000000 		.4byte	0x37
 1431 097f 02       		.uleb128 0x2
 1432 0980 B4020000 		.4byte	.LASF140
 1433 0984 0A       		.byte	0xa
 1434 0985 18       		.byte	0x18
 1435 0986 53000000 		.4byte	0x53
 1436 098a 0F       		.uleb128 0xf
 1437 098b 7F090000 		.4byte	0x97f
 1438 098f 02       		.uleb128 0x2
 1439 0990 F3090000 		.4byte	.LASF141
 1440 0994 0A       		.byte	0xa
 1441 0995 24       		.byte	0x24
 1442 0996 6C000000 		.4byte	0x6c
 1443 099a 02       		.uleb128 0x2
 1444 099b 93000000 		.4byte	.LASF142
 1445 099f 0A       		.byte	0xa
 1446 09a0 2C       		.byte	0x2c
 1447 09a1 7E000000 		.4byte	0x7e
 1448 09a5 1A       		.uleb128 0x1a
 1449 09a6 9A090000 		.4byte	0x99a
 1450 09aa 02       		.uleb128 0x2
 1451 09ab 0A0D0000 		.4byte	.LASF143
 1452 09af 0A       		.byte	0xa
 1453 09b0 30       		.byte	0x30
 1454 09b1 90000000 		.4byte	0x90
 1455 09b5 02       		.uleb128 0x2
 1456 09b6 D90B0000 		.4byte	.LASF144
 1457 09ba 0A       		.byte	0xa
 1458 09bb 3C       		.byte	0x3c
 1459 09bc A2000000 		.4byte	0xa2
 1460 09c0 02       		.uleb128 0x2
 1461 09c1 26010000 		.4byte	.LASF145
 1462 09c5 0B       		.byte	0xb
 1463 09c6 28       		.byte	0x28
 1464 09c7 B4000000 		.4byte	0xb4
 1465 09cb 02       		.uleb128 0x2
 1466 09cc 2D080000 		.4byte	.LASF146
 1467 09d0 0C       		.byte	0xc
 1468 09d1 71       		.byte	0x71
 1469 09d2 D5000000 		.4byte	0xd5
 1470 09d6 02       		.uleb128 0x2
 1471 09d7 E00C0000 		.4byte	.LASF147
 1472 09db 0C       		.byte	0xc
 1473 09dc 76       		.byte	0x76
ARM GAS  C:\Users\RAKIBU~1\AppData\Local\Temp\cc5tbduv.s 			page 27


 1474 09dd E0000000 		.4byte	0xe0
 1475 09e1 02       		.uleb128 0x2
 1476 09e2 36080000 		.4byte	.LASF148
 1477 09e6 0C       		.byte	0xc
 1478 09e7 8B       		.byte	0x8b
 1479 09e8 C2010000 		.4byte	0x1c2
 1480 09ec 02       		.uleb128 0x2
 1481 09ed E2050000 		.4byte	.LASF149
 1482 09f1 0C       		.byte	0xc
 1483 09f2 9B       		.byte	0x9b
 1484 09f3 17010000 		.4byte	0x117
 1485 09f7 02       		.uleb128 0x2
 1486 09f8 F8080000 		.4byte	.LASF150
 1487 09fc 0C       		.byte	0xc
 1488 09fd AD       		.byte	0xad
 1489 09fe 2D010000 		.4byte	0x12d
 1490 0a02 02       		.uleb128 0x2
 1491 0a03 D9000000 		.4byte	.LASF151
 1492 0a07 0C       		.byte	0xc
 1493 0a08 B1       		.byte	0xb1
 1494 0a09 F6000000 		.4byte	0xf6
 1495 0a0d 02       		.uleb128 0x2
 1496 0a0e B6010000 		.4byte	.LASF152
 1497 0a12 0C       		.byte	0xc
 1498 0a13 B5       		.byte	0xb5
 1499 0a14 01010000 		.4byte	0x101
 1500 0a18 02       		.uleb128 0x2
 1501 0a19 CC0D0000 		.4byte	.LASF153
 1502 0a1d 0C       		.byte	0xc
 1503 0a1e B9       		.byte	0xb9
 1504 0a1f 0C010000 		.4byte	0x10c
 1505 0a23 02       		.uleb128 0x2
 1506 0a24 FE080000 		.4byte	.LASF154
 1507 0a28 0C       		.byte	0xc
 1508 0a29 CD       		.byte	0xcd
 1509 0a2a 22010000 		.4byte	0x122
 1510 0a2e 02       		.uleb128 0x2
 1511 0a2f DF000000 		.4byte	.LASF155
 1512 0a33 0C       		.byte	0xc
 1513 0a34 D2       		.byte	0xd2
 1514 0a35 B7010000 		.4byte	0x1b7
 1515 0a39 21       		.uleb128 0x21
 1516 0a3a 4A040000 		.4byte	.LASF156
 1517 0a3e 0D       		.byte	0xd
 1518 0a3f 9A       		.byte	0x9a
 1519 0a40 89000000 		.4byte	0x89
 1520 0a44 21       		.uleb128 0x21
 1521 0a45 40040000 		.4byte	.LASF157
 1522 0a49 0D       		.byte	0xd
 1523 0a4a 9B       		.byte	0x9b
 1524 0a4b 37000000 		.4byte	0x37
 1525 0a4f 0A       		.uleb128 0xa
 1526 0a50 C2010000 		.4byte	0x1c2
 1527 0a54 5F0A0000 		.4byte	0xa5f
 1528 0a58 0B       		.uleb128 0xb
 1529 0a59 30000000 		.4byte	0x30
 1530 0a5d 01       		.byte	0x1
ARM GAS  C:\Users\RAKIBU~1\AppData\Local\Temp\cc5tbduv.s 			page 28


 1531 0a5e 00       		.byte	0
 1532 0a5f 21       		.uleb128 0x21
 1533 0a60 A4040000 		.4byte	.LASF158
 1534 0a64 0D       		.byte	0xd
 1535 0a65 9E       		.byte	0x9e
 1536 0a66 4F0A0000 		.4byte	0xa4f
 1537 0a6a 10       		.uleb128 0x10
 1538 0a6b 47070000 		.4byte	.LASF159
 1539 0a6f 58       		.byte	0x58
 1540 0a70 0E       		.byte	0xe
 1541 0a71 1B       		.byte	0x1b
 1542 0a72 430B0000 		.4byte	0xb43
 1543 0a76 0D       		.uleb128 0xd
 1544 0a77 7F090000 		.4byte	.LASF160
 1545 0a7b 0E       		.byte	0xe
 1546 0a7c 1D       		.byte	0x1d
 1547 0a7d 020A0000 		.4byte	0xa02
 1548 0a81 00       		.byte	0
 1549 0a82 0D       		.uleb128 0xd
 1550 0a83 8E0D0000 		.4byte	.LASF161
 1551 0a87 0E       		.byte	0xe
 1552 0a88 1E       		.byte	0x1e
 1553 0a89 EC090000 		.4byte	0x9ec
 1554 0a8d 02       		.byte	0x2
 1555 0a8e 0D       		.uleb128 0xd
 1556 0a8f BC0C0000 		.4byte	.LASF162
 1557 0a93 0E       		.byte	0xe
 1558 0a94 1F       		.byte	0x1f
 1559 0a95 230A0000 		.4byte	0xa23
 1560 0a99 04       		.byte	0x4
 1561 0a9a 0D       		.uleb128 0xd
 1562 0a9b EF080000 		.4byte	.LASF163
 1563 0a9f 0E       		.byte	0xe
 1564 0aa0 20       		.byte	0x20
 1565 0aa1 2E0A0000 		.4byte	0xa2e
 1566 0aa5 08       		.byte	0x8
 1567 0aa6 0D       		.uleb128 0xd
 1568 0aa7 D7020000 		.4byte	.LASF164
 1569 0aab 0E       		.byte	0xe
 1570 0aac 21       		.byte	0x21
 1571 0aad 0D0A0000 		.4byte	0xa0d
 1572 0ab1 0A       		.byte	0xa
 1573 0ab2 0D       		.uleb128 0xd
 1574 0ab3 1D050000 		.4byte	.LASF165
 1575 0ab7 0E       		.byte	0xe
 1576 0ab8 22       		.byte	0x22
 1577 0ab9 180A0000 		.4byte	0xa18
 1578 0abd 0C       		.byte	0xc
 1579 0abe 0D       		.uleb128 0xd
 1580 0abf 1B030000 		.4byte	.LASF166
 1581 0ac3 0E       		.byte	0xe
 1582 0ac4 23       		.byte	0x23
 1583 0ac5 020A0000 		.4byte	0xa02
 1584 0ac9 0E       		.byte	0xe
 1585 0aca 0D       		.uleb128 0xd
 1586 0acb 2F060000 		.4byte	.LASF167
 1587 0acf 0E       		.byte	0xe
ARM GAS  C:\Users\RAKIBU~1\AppData\Local\Temp\cc5tbduv.s 			page 29


 1588 0ad0 24       		.byte	0x24
 1589 0ad1 F7090000 		.4byte	0x9f7
 1590 0ad5 10       		.byte	0x10
 1591 0ad6 0D       		.uleb128 0xd
 1592 0ad7 25090000 		.4byte	.LASF168
 1593 0adb 0E       		.byte	0xe
 1594 0adc 32       		.byte	0x32
 1595 0add C0090000 		.4byte	0x9c0
 1596 0ae1 18       		.byte	0x18
 1597 0ae2 0D       		.uleb128 0xd
 1598 0ae3 CD020000 		.4byte	.LASF169
 1599 0ae7 0E       		.byte	0xe
 1600 0ae8 33       		.byte	0x33
 1601 0ae9 89000000 		.4byte	0x89
 1602 0aed 20       		.byte	0x20
 1603 0aee 0D       		.uleb128 0xd
 1604 0aef 8B0B0000 		.4byte	.LASF170
 1605 0af3 0E       		.byte	0xe
 1606 0af4 34       		.byte	0x34
 1607 0af5 C0090000 		.4byte	0x9c0
 1608 0af9 28       		.byte	0x28
 1609 0afa 0D       		.uleb128 0xd
 1610 0afb BA060000 		.4byte	.LASF171
 1611 0aff 0E       		.byte	0xe
 1612 0b00 35       		.byte	0x35
 1613 0b01 89000000 		.4byte	0x89
 1614 0b05 30       		.byte	0x30
 1615 0b06 0D       		.uleb128 0xd
 1616 0b07 70040000 		.4byte	.LASF172
 1617 0b0b 0E       		.byte	0xe
 1618 0b0c 36       		.byte	0x36
 1619 0b0d C0090000 		.4byte	0x9c0
 1620 0b11 38       		.byte	0x38
 1621 0b12 0D       		.uleb128 0xd
 1622 0b13 DE020000 		.4byte	.LASF173
 1623 0b17 0E       		.byte	0xe
 1624 0b18 37       		.byte	0x37
 1625 0b19 89000000 		.4byte	0x89
 1626 0b1d 40       		.byte	0x40
 1627 0b1e 0D       		.uleb128 0xd
 1628 0b1f 4C070000 		.4byte	.LASF174
 1629 0b23 0E       		.byte	0xe
 1630 0b24 38       		.byte	0x38
 1631 0b25 D6090000 		.4byte	0x9d6
 1632 0b29 44       		.byte	0x44
 1633 0b2a 0D       		.uleb128 0xd
 1634 0b2b 61000000 		.4byte	.LASF175
 1635 0b2f 0E       		.byte	0xe
 1636 0b30 39       		.byte	0x39
 1637 0b31 CB090000 		.4byte	0x9cb
 1638 0b35 48       		.byte	0x48
 1639 0b36 0D       		.uleb128 0xd
 1640 0b37 E8020000 		.4byte	.LASF176
 1641 0b3b 0E       		.byte	0xe
 1642 0b3c 3A       		.byte	0x3a
 1643 0b3d 430B0000 		.4byte	0xb43
 1644 0b41 4C       		.byte	0x4c
ARM GAS  C:\Users\RAKIBU~1\AppData\Local\Temp\cc5tbduv.s 			page 30


 1645 0b42 00       		.byte	0
 1646 0b43 0A       		.uleb128 0xa
 1647 0b44 89000000 		.4byte	0x89
 1648 0b48 530B0000 		.4byte	0xb53
 1649 0b4c 0B       		.uleb128 0xb
 1650 0b4d 30000000 		.4byte	0x30
 1651 0b51 01       		.byte	0x1
 1652 0b52 00       		.byte	0
 1653 0b53 02       		.uleb128 0x2
 1654 0b54 3E080000 		.4byte	.LASF177
 1655 0b58 0F       		.byte	0xf
 1656 0b59 27       		.byte	0x27
 1657 0b5a AA090000 		.4byte	0x9aa
 1658 0b5e 02       		.uleb128 0x2
 1659 0b5f 3B020000 		.4byte	.LASF178
 1660 0b63 0F       		.byte	0xf
 1661 0b64 28       		.byte	0x28
 1662 0b65 B5090000 		.4byte	0x9b5
 1663 0b69 02       		.uleb128 0x2
 1664 0b6a 830B0000 		.4byte	.LASF179
 1665 0b6e 0F       		.byte	0xf
 1666 0b6f 2A       		.byte	0x2a
 1667 0b70 7F090000 		.4byte	0x97f
 1668 0b74 02       		.uleb128 0x2
 1669 0b75 32020000 		.4byte	.LASF180
 1670 0b79 0F       		.byte	0xf
 1671 0b7a 2B       		.byte	0x2b
 1672 0b7b 7F090000 		.4byte	0x97f
 1673 0b7f 02       		.uleb128 0x2
 1674 0b80 60040000 		.4byte	.LASF181
 1675 0b84 0F       		.byte	0xf
 1676 0b85 2C       		.byte	0x2c
 1677 0b86 7F090000 		.4byte	0x97f
 1678 0b8a 02       		.uleb128 0x2
 1679 0b8b 59000000 		.4byte	.LASF182
 1680 0b8f 0F       		.byte	0xf
 1681 0b90 2E       		.byte	0x2e
 1682 0b91 AA090000 		.4byte	0x9aa
 1683 0b95 02       		.uleb128 0x2
 1684 0b96 190A0000 		.4byte	.LASF183
 1685 0b9a 0F       		.byte	0xf
 1686 0b9b 2F       		.byte	0x2f
 1687 0b9c 9A090000 		.4byte	0x99a
 1688 0ba0 02       		.uleb128 0x2
 1689 0ba1 F2020000 		.4byte	.LASF184
 1690 0ba5 0F       		.byte	0xf
 1691 0ba6 31       		.byte	0x31
 1692 0ba7 AA090000 		.4byte	0x9aa
 1693 0bab 02       		.uleb128 0x2
 1694 0bac 87040000 		.4byte	.LASF185
 1695 0bb0 0F       		.byte	0xf
 1696 0bb1 33       		.byte	0x33
 1697 0bb2 9A090000 		.4byte	0x99a
 1698 0bb6 02       		.uleb128 0x2
 1699 0bb7 D9060000 		.4byte	.LASF186
 1700 0bbb 0F       		.byte	0xf
 1701 0bbc 34       		.byte	0x34
ARM GAS  C:\Users\RAKIBU~1\AppData\Local\Temp\cc5tbduv.s 			page 31


 1702 0bbd AA090000 		.4byte	0x9aa
 1703 0bc1 02       		.uleb128 0x2
 1704 0bc2 1C090000 		.4byte	.LASF187
 1705 0bc6 10       		.byte	0x10
 1706 0bc7 34       		.byte	0x34
 1707 0bc8 CC0B0000 		.4byte	0xbcc
 1708 0bcc 10       		.uleb128 0x10
 1709 0bcd 54060000 		.4byte	.LASF188
 1710 0bd1 60       		.byte	0x60
 1711 0bd2 11       		.byte	0x11
 1712 0bd3 8E       		.byte	0x8e
 1713 0bd4 B70C0000 		.4byte	0xcb7
 1714 0bd8 0D       		.uleb128 0xd
 1715 0bd9 5E0A0000 		.4byte	.LASF189
 1716 0bdd 11       		.byte	0x11
 1717 0bde 8F       		.byte	0x8f
 1718 0bdf EC0C0000 		.4byte	0xcec
 1719 0be3 00       		.byte	0
 1720 0be4 0D       		.uleb128 0xd
 1721 0be5 90010000 		.4byte	.LASF190
 1722 0be9 11       		.byte	0x11
 1723 0bea 90       		.byte	0x90
 1724 0beb 8A0B0000 		.4byte	0xb8a
 1725 0bef 08       		.byte	0x8
 1726 0bf0 11       		.uleb128 0x11
 1727 0bf1 63747800 		.ascii	"ctx\000"
 1728 0bf5 11       		.byte	0x11
 1729 0bf6 91       		.byte	0x91
 1730 0bf7 810F0000 		.4byte	0xf81
 1731 0bfb 0C       		.byte	0xc
 1732 0bfc 0D       		.uleb128 0xd
 1733 0bfd 040D0000 		.4byte	.LASF191
 1734 0c01 11       		.byte	0x11
 1735 0c02 93       		.byte	0x93
 1736 0c03 C20C0000 		.4byte	0xcc2
 1737 0c07 10       		.byte	0x10
 1738 0c08 0D       		.uleb128 0xd
 1739 0c09 B4060000 		.4byte	.LASF192
 1740 0c0d 11       		.byte	0x11
 1741 0c0e 94       		.byte	0x94
 1742 0c0f C20C0000 		.4byte	0xcc2
 1743 0c13 14       		.byte	0x14
 1744 0c14 0D       		.uleb128 0xd
 1745 0c15 AF0B0000 		.4byte	.LASF193
 1746 0c19 11       		.byte	0x11
 1747 0c1a 9B       		.byte	0x9b
 1748 0c1b 40060000 		.4byte	0x640
 1749 0c1f 18       		.byte	0x18
 1750 0c20 0D       		.uleb128 0xd
 1751 0c21 550B0000 		.4byte	.LASF194
 1752 0c25 11       		.byte	0x11
 1753 0c26 A4       		.byte	0xa4
 1754 0c27 E9120000 		.4byte	0x12e9
 1755 0c2b 1C       		.byte	0x1c
 1756 0c2c 0D       		.uleb128 0xd
 1757 0c2d 44010000 		.4byte	.LASF195
 1758 0c31 11       		.byte	0x11
ARM GAS  C:\Users\RAKIBU~1\AppData\Local\Temp\cc5tbduv.s 			page 32


 1759 0c32 A9       		.byte	0xa9
 1760 0c33 740B0000 		.4byte	0xb74
 1761 0c37 20       		.byte	0x20
 1762 0c38 0D       		.uleb128 0xd
 1763 0c39 25040000 		.4byte	.LASF196
 1764 0c3d 11       		.byte	0x11
 1765 0c3e AD       		.byte	0xad
 1766 0c3f 690B0000 		.4byte	0xb69
 1767 0c43 21       		.byte	0x21
 1768 0c44 0D       		.uleb128 0xd
 1769 0c45 46080000 		.4byte	.LASF197
 1770 0c49 11       		.byte	0x11
 1771 0c4a B2       		.byte	0xb2
 1772 0c4b 7F0B0000 		.4byte	0xb7f
 1773 0c4f 22       		.byte	0x22
 1774 0c50 23       		.uleb128 0x23
 1775 0c51 7500     		.ascii	"u\000"
 1776 0c53 11       		.byte	0x11
 1777 0c54 0301     		.2byte	0x103
 1778 0c56 1F120000 		.4byte	0x121f
 1779 0c5a 24       		.byte	0x24
 1780 0c5b 18       		.uleb128 0x18
 1781 0c5c 740C0000 		.4byte	.LASF198
 1782 0c60 11       		.byte	0x11
 1783 0c61 0801     		.2byte	0x108
 1784 0c63 C80C0000 		.4byte	0xcc8
 1785 0c67 28       		.byte	0x28
 1786 0c68 18       		.uleb128 0x18
 1787 0c69 F00B0000 		.4byte	.LASF199
 1788 0c6d 11       		.byte	0x11
 1789 0c6e 0E01     		.2byte	0x10e
 1790 0c70 EC0C0000 		.4byte	0xcec
 1791 0c74 2C       		.byte	0x2c
 1792 0c75 18       		.uleb128 0x18
 1793 0c76 640A0000 		.4byte	.LASF200
 1794 0c7a 11       		.byte	0x11
 1795 0c7b 1401     		.2byte	0x114
 1796 0c7d A00B0000 		.4byte	0xba0
 1797 0c81 34       		.byte	0x34
 1798 0c82 18       		.uleb128 0x18
 1799 0c83 75070000 		.4byte	.LASF201
 1800 0c87 11       		.byte	0x11
 1801 0c88 1B01     		.2byte	0x11b
 1802 0c8a E3120000 		.4byte	0x12e3
 1803 0c8e 38       		.byte	0x38
 1804 0c8f 18       		.uleb128 0x18
 1805 0c90 D0060000 		.4byte	.LASF202
 1806 0c94 11       		.byte	0x11
 1807 0c95 1F01     		.2byte	0x11f
 1808 0c97 8A0B0000 		.4byte	0xb8a
 1809 0c9b 3C       		.byte	0x3c
 1810 0c9c 18       		.uleb128 0x18
 1811 0c9d 54040000 		.4byte	.LASF203
 1812 0ca1 11       		.byte	0x11
 1813 0ca2 2601     		.2byte	0x126
 1814 0ca4 B5010000 		.4byte	0x1b5
 1815 0ca8 40       		.byte	0x40
ARM GAS  C:\Users\RAKIBU~1\AppData\Local\Temp\cc5tbduv.s 			page 33


 1816 0ca9 18       		.uleb128 0x18
 1817 0caa 59010000 		.4byte	.LASF204
 1818 0cae 11       		.byte	0x11
 1819 0caf 2C01     		.2byte	0x12c
 1820 0cb1 D0110000 		.4byte	0x11d0
 1821 0cb5 48       		.byte	0x48
 1822 0cb6 00       		.byte	0
 1823 0cb7 02       		.uleb128 0x2
 1824 0cb8 CC080000 		.4byte	.LASF205
 1825 0cbc 10       		.byte	0x10
 1826 0cbd 39       		.byte	0x39
 1827 0cbe C20C0000 		.4byte	0xcc2
 1828 0cc2 05       		.uleb128 0x5
 1829 0cc3 04       		.byte	0x4
 1830 0cc4 C10B0000 		.4byte	0xbc1
 1831 0cc8 02       		.uleb128 0x2
 1832 0cc9 54020000 		.4byte	.LASF206
 1833 0ccd 10       		.byte	0x10
 1834 0cce 3E       		.byte	0x3e
 1835 0ccf D30C0000 		.4byte	0xcd3
 1836 0cd3 10       		.uleb128 0x10
 1837 0cd4 0A070000 		.4byte	.LASF207
 1838 0cd8 04       		.byte	0x4
 1839 0cd9 11       		.byte	0x11
 1840 0cda 7C       		.byte	0x7c
 1841 0cdb EC0C0000 		.4byte	0xcec
 1842 0cdf 0D       		.uleb128 0xd
 1843 0ce0 C70D0000 		.4byte	.LASF208
 1844 0ce4 11       		.byte	0x11
 1845 0ce5 7D       		.byte	0x7d
 1846 0ce6 C20C0000 		.4byte	0xcc2
 1847 0cea 00       		.byte	0
 1848 0ceb 00       		.byte	0
 1849 0cec 02       		.uleb128 0x2
 1850 0ced 44020000 		.4byte	.LASF209
 1851 0cf1 10       		.byte	0x10
 1852 0cf2 45       		.byte	0x45
 1853 0cf3 F70C0000 		.4byte	0xcf7
 1854 0cf7 10       		.uleb128 0x10
 1855 0cf8 1F0A0000 		.4byte	.LASF210
 1856 0cfc 08       		.byte	0x8
 1857 0cfd 11       		.byte	0x11
 1858 0cfe 83       		.byte	0x83
 1859 0cff 1C0D0000 		.4byte	0xd1c
 1860 0d03 0D       		.uleb128 0xd
 1861 0d04 C70D0000 		.4byte	.LASF208
 1862 0d08 11       		.byte	0x11
 1863 0d09 84       		.byte	0x84
 1864 0d0a C20C0000 		.4byte	0xcc2
 1865 0d0e 00       		.byte	0
 1866 0d0f 0D       		.uleb128 0xd
 1867 0d10 720D0000 		.4byte	.LASF211
 1868 0d14 11       		.byte	0x11
 1869 0d15 85       		.byte	0x85
 1870 0d16 C20C0000 		.4byte	0xcc2
 1871 0d1a 04       		.byte	0x4
 1872 0d1b 00       		.byte	0
ARM GAS  C:\Users\RAKIBU~1\AppData\Local\Temp\cc5tbduv.s 			page 34


 1873 0d1c 02       		.uleb128 0x2
 1874 0d1d A7060000 		.4byte	.LASF212
 1875 0d21 10       		.byte	0x10
 1876 0d22 4C       		.byte	0x4c
 1877 0d23 270D0000 		.4byte	0xd27
 1878 0d27 1B       		.uleb128 0x1b
 1879 0d28 E5040000 		.4byte	.LASF213
 1880 0d2c 1C       		.byte	0x1c
 1881 0d2d 11       		.byte	0x11
 1882 0d2e 5E01     		.2byte	0x15e
 1883 0d30 830D0000 		.4byte	0xd83
 1884 0d34 18       		.uleb128 0x18
 1885 0d35 5E0A0000 		.4byte	.LASF189
 1886 0d39 11       		.byte	0x11
 1887 0d3a 5F01     		.2byte	0x15f
 1888 0d3c EC0C0000 		.4byte	0xcec
 1889 0d40 00       		.byte	0
 1890 0d41 18       		.uleb128 0x18
 1891 0d42 90010000 		.4byte	.LASF190
 1892 0d46 11       		.byte	0x11
 1893 0d47 6001     		.2byte	0x160
 1894 0d49 8A0B0000 		.4byte	0xb8a
 1895 0d4d 08       		.byte	0x8
 1896 0d4e 23       		.uleb128 0x23
 1897 0d4f 63747800 		.ascii	"ctx\000"
 1898 0d53 11       		.byte	0x11
 1899 0d54 6201     		.2byte	0x162
 1900 0d56 810F0000 		.4byte	0xf81
 1901 0d5a 0C       		.byte	0xc
 1902 0d5b 18       		.uleb128 0x18
 1903 0d5c 040D0000 		.4byte	.LASF191
 1904 0d60 11       		.byte	0x11
 1905 0d61 6501     		.2byte	0x165
 1906 0d63 C20C0000 		.4byte	0xcc2
 1907 0d67 10       		.byte	0x10
 1908 0d68 18       		.uleb128 0x18
 1909 0d69 B4060000 		.4byte	.LASF192
 1910 0d6d 11       		.byte	0x11
 1911 0d6e 6601     		.2byte	0x166
 1912 0d70 C20C0000 		.4byte	0xcc2
 1913 0d74 14       		.byte	0x14
 1914 0d75 18       		.uleb128 0x18
 1915 0d76 AB080000 		.4byte	.LASF214
 1916 0d7a 11       		.byte	0x11
 1917 0d7b 6901     		.2byte	0x169
 1918 0d7d C20C0000 		.4byte	0xcc2
 1919 0d81 18       		.byte	0x18
 1920 0d82 00       		.byte	0
 1921 0d83 02       		.uleb128 0x2
 1922 0d84 B0000000 		.4byte	.LASF215
 1923 0d88 10       		.byte	0x10
 1924 0d89 51       		.byte	0x51
 1925 0d8a 8E0D0000 		.4byte	0xd8e
 1926 0d8e 05       		.uleb128 0x5
 1927 0d8f 04       		.byte	0x4
 1928 0d90 940D0000 		.4byte	0xd94
 1929 0d94 1F       		.uleb128 0x1f
ARM GAS  C:\Users\RAKIBU~1\AppData\Local\Temp\cc5tbduv.s 			page 35


 1930 0d95 9F0D0000 		.4byte	0xd9f
 1931 0d99 16       		.uleb128 0x16
 1932 0d9a B5010000 		.4byte	0x1b5
 1933 0d9e 00       		.byte	0
 1934 0d9f 02       		.uleb128 0x2
 1935 0da0 97060000 		.4byte	.LASF216
 1936 0da4 10       		.byte	0x10
 1937 0da5 56       		.byte	0x56
 1938 0da6 AA0D0000 		.4byte	0xdaa
 1939 0daa 1B       		.uleb128 0x1b
 1940 0dab AB090000 		.4byte	.LASF217
 1941 0daf 18       		.byte	0x18
 1942 0db0 11       		.byte	0x11
 1943 0db1 3901     		.2byte	0x139
 1944 0db3 F90D0000 		.4byte	0xdf9
 1945 0db7 18       		.uleb128 0x18
 1946 0db8 C70D0000 		.4byte	.LASF208
 1947 0dbc 11       		.byte	0x11
 1948 0dbd 3A01     		.2byte	0x13a
 1949 0dbf EF120000 		.4byte	0x12ef
 1950 0dc3 00       		.byte	0
 1951 0dc4 18       		.uleb128 0x18
 1952 0dc5 720D0000 		.4byte	.LASF211
 1953 0dc9 11       		.byte	0x11
 1954 0dca 3B01     		.2byte	0x13b
 1955 0dcc EF120000 		.4byte	0x12ef
 1956 0dd0 04       		.byte	0x4
 1957 0dd1 18       		.uleb128 0x18
 1958 0dd2 400A0000 		.4byte	.LASF218
 1959 0dd6 11       		.byte	0x11
 1960 0dd7 3C01     		.2byte	0x13c
 1961 0dd9 090F0000 		.4byte	0xf09
 1962 0ddd 08       		.byte	0x8
 1963 0dde 18       		.uleb128 0x18
 1964 0ddf E20B0000 		.4byte	.LASF219
 1965 0de3 11       		.byte	0x11
 1966 0de4 3D01     		.2byte	0x13d
 1967 0de6 830D0000 		.4byte	0xd83
 1968 0dea 10       		.byte	0x10
 1969 0deb 23       		.uleb128 0x23
 1970 0dec 70617200 		.ascii	"par\000"
 1971 0df0 11       		.byte	0x11
 1972 0df1 3F01     		.2byte	0x13f
 1973 0df3 B5010000 		.4byte	0x1b5
 1974 0df7 14       		.byte	0x14
 1975 0df8 00       		.byte	0
 1976 0df9 02       		.uleb128 0x2
 1977 0dfa 5E060000 		.4byte	.LASF220
 1978 0dfe 10       		.byte	0x10
 1979 0dff 5B       		.byte	0x5b
 1980 0e00 040E0000 		.4byte	0xe04
 1981 0e04 1B       		.uleb128 0x1b
 1982 0e05 C2000000 		.4byte	.LASF221
 1983 0e09 18       		.byte	0x18
 1984 0e0a 11       		.byte	0x11
 1985 0e0b 4901     		.2byte	0x149
 1986 0e0d 460E0000 		.4byte	0xe46
ARM GAS  C:\Users\RAKIBU~1\AppData\Local\Temp\cc5tbduv.s 			page 36


 1987 0e11 18       		.uleb128 0x18
 1988 0e12 C70D0000 		.4byte	.LASF208
 1989 0e16 11       		.byte	0x11
 1990 0e17 4A01     		.2byte	0x14a
 1991 0e19 EF120000 		.4byte	0x12ef
 1992 0e1d 00       		.byte	0
 1993 0e1e 18       		.uleb128 0x18
 1994 0e1f 720D0000 		.4byte	.LASF211
 1995 0e23 11       		.byte	0x11
 1996 0e24 4C01     		.2byte	0x14c
 1997 0e26 EF120000 		.4byte	0x12ef
 1998 0e2a 04       		.byte	0x4
 1999 0e2b 18       		.uleb128 0x18
 2000 0e2c 400A0000 		.4byte	.LASF218
 2001 0e30 11       		.byte	0x11
 2002 0e31 4E01     		.2byte	0x14e
 2003 0e33 090F0000 		.4byte	0xf09
 2004 0e37 08       		.byte	0x8
 2005 0e38 18       		.uleb128 0x18
 2006 0e39 12030000 		.4byte	.LASF222
 2007 0e3d 11       		.byte	0x11
 2008 0e3e 5601     		.2byte	0x156
 2009 0e40 FE0E0000 		.4byte	0xefe
 2010 0e44 10       		.byte	0x10
 2011 0e45 00       		.byte	0
 2012 0e46 02       		.uleb128 0x2
 2013 0e47 68030000 		.4byte	.LASF223
 2014 0e4b 10       		.byte	0x10
 2015 0e4c 60       		.byte	0x60
 2016 0e4d 510E0000 		.4byte	0xe51
 2017 0e51 17       		.uleb128 0x17
 2018 0e52 1C0C0000 		.4byte	.LASF224
 2019 0e56 1408     		.2byte	0x814
 2020 0e58 11       		.byte	0x11
 2021 0e59 7001     		.2byte	0x170
 2022 0e5b 940E0000 		.4byte	0xe94
 2023 0e5f 18       		.uleb128 0x18
 2024 0e60 23030000 		.4byte	.LASF225
 2025 0e64 11       		.byte	0x11
 2026 0e65 7801     		.2byte	0x178
 2027 0e67 4B060000 		.4byte	0x64b
 2028 0e6b 00       		.byte	0
 2029 0e6c 18       		.uleb128 0x18
 2030 0e6d 86090000 		.4byte	.LASF226
 2031 0e71 11       		.byte	0x11
 2032 0e72 7D01     		.2byte	0x17d
 2033 0e74 AB0B0000 		.4byte	0xbab
 2034 0e78 04       		.byte	0x4
 2035 0e79 18       		.uleb128 0x18
 2036 0e7a 50010000 		.4byte	.LASF227
 2037 0e7e 11       		.byte	0x11
 2038 0e7f 8101     		.2byte	0x181
 2039 0e81 AB0B0000 		.4byte	0xbab
 2040 0e85 08       		.byte	0x8
 2041 0e86 18       		.uleb128 0x18
 2042 0e87 8D040000 		.4byte	.LASF228
 2043 0e8b 11       		.byte	0x11
ARM GAS  C:\Users\RAKIBU~1\AppData\Local\Temp\cc5tbduv.s 			page 37


 2044 0e8c 8701     		.2byte	0x187
 2045 0e8e 62110000 		.4byte	0x1162
 2046 0e92 0C       		.byte	0xc
 2047 0e93 00       		.byte	0
 2048 0e94 02       		.uleb128 0x2
 2049 0e95 4B0D0000 		.4byte	.LASF229
 2050 0e99 10       		.byte	0x10
 2051 0e9a 65       		.byte	0x65
 2052 0e9b 9F0E0000 		.4byte	0xe9f
 2053 0e9f 17       		.uleb128 0x17
 2054 0ea0 EA0C0000 		.4byte	.LASF230
 2055 0ea4 F008     		.2byte	0x8f0
 2056 0ea6 11       		.byte	0x11
 2057 0ea7 9001     		.2byte	0x190
 2058 0ea9 FE0E0000 		.4byte	0xefe
 2059 0ead 18       		.uleb128 0x18
 2060 0eae 7D0B0000 		.4byte	.LASF231
 2061 0eb2 11       		.byte	0x11
 2062 0eb3 9401     		.2byte	0x194
 2063 0eb5 1C0D0000 		.4byte	0xd1c
 2064 0eb9 00       		.byte	0
 2065 0eba 18       		.uleb128 0x18
 2066 0ebb 630C0000 		.4byte	.LASF232
 2067 0ebf 11       		.byte	0x11
 2068 0ec0 9801     		.2byte	0x198
 2069 0ec2 F90D0000 		.4byte	0xdf9
 2070 0ec6 20       		.byte	0x20
 2071 0ec7 23       		.uleb128 0x23
 2072 0ec8 64626700 		.ascii	"dbg\000"
 2073 0ecc 11       		.byte	0x11
 2074 0ecd 9C01     		.2byte	0x19c
 2075 0ecf 460E0000 		.4byte	0xe46
 2076 0ed3 38       		.byte	0x38
 2077 0ed4 19       		.uleb128 0x19
 2078 0ed5 180B0000 		.4byte	.LASF233
 2079 0ed9 11       		.byte	0x11
 2080 0eda A001     		.2byte	0x1a0
 2081 0edc C10B0000 		.4byte	0xbc1
 2082 0ee0 5008     		.2byte	0x850
 2083 0ee2 24       		.uleb128 0x24
 2084 0ee3 746D00   		.ascii	"tm\000"
 2085 0ee6 11       		.byte	0x11
 2086 0ee7 A501     		.2byte	0x1a5
 2087 0ee9 82110000 		.4byte	0x1182
 2088 0eed B008     		.2byte	0x8b0
 2089 0eef 19       		.uleb128 0x19
 2090 0ef0 CA090000 		.4byte	.LASF234
 2091 0ef4 11       		.byte	0x11
 2092 0ef5 AB01     		.2byte	0x1ab
 2093 0ef7 14120000 		.4byte	0x1214
 2094 0efb B808     		.2byte	0x8b8
 2095 0efd 00       		.byte	0
 2096 0efe 02       		.uleb128 0x2
 2097 0eff 32000000 		.4byte	.LASF235
 2098 0f03 12       		.byte	0x12
 2099 0f04 6D       		.byte	0x6d
 2100 0f05 AA090000 		.4byte	0x9aa
ARM GAS  C:\Users\RAKIBU~1\AppData\Local\Temp\cc5tbduv.s 			page 38


 2101 0f09 02       		.uleb128 0x2
 2102 0f0a 8B070000 		.4byte	.LASF236
 2103 0f0e 12       		.byte	0x12
 2104 0f0f 77       		.byte	0x77
 2105 0f10 B5090000 		.4byte	0x9b5
 2106 0f14 20       		.uleb128 0x20
 2107 0f15 EF070000 		.4byte	.LASF237
 2108 0f19 13       		.byte	0x13
 2109 0f1a 0408     		.2byte	0x804
 2110 0f1c A5090000 		.4byte	0x9a5
 2111 0f20 21       		.uleb128 0x21
 2112 0f21 37060000 		.4byte	.LASF238
 2113 0f25 14       		.byte	0x14
 2114 0f26 4C       		.byte	0x4c
 2115 0f27 AA090000 		.4byte	0x9aa
 2116 0f2b 0A       		.uleb128 0xa
 2117 0f2c 8A090000 		.4byte	0x98a
 2118 0f30 3B0F0000 		.4byte	0xf3b
 2119 0f34 0B       		.uleb128 0xb
 2120 0f35 30000000 		.4byte	0x30
 2121 0f39 0F       		.byte	0xf
 2122 0f3a 00       		.byte	0
 2123 0f3b 0F       		.uleb128 0xf
 2124 0f3c 2B0F0000 		.4byte	0xf2b
 2125 0f40 21       		.uleb128 0x21
 2126 0f41 9D090000 		.4byte	.LASF239
 2127 0f45 14       		.byte	0x14
 2128 0f46 4E       		.byte	0x4e
 2129 0f47 3B0F0000 		.4byte	0xf3b
 2130 0f4b 0A       		.uleb128 0xa
 2131 0f4c 8A090000 		.4byte	0x98a
 2132 0f50 5B0F0000 		.4byte	0xf5b
 2133 0f54 0B       		.uleb128 0xb
 2134 0f55 30000000 		.4byte	0x30
 2135 0f59 07       		.byte	0x7
 2136 0f5a 00       		.byte	0
 2137 0f5b 0F       		.uleb128 0xf
 2138 0f5c 4B0F0000 		.4byte	0xf4b
 2139 0f60 21       		.uleb128 0x21
 2140 0f61 B40B0000 		.4byte	.LASF240
 2141 0f65 14       		.byte	0x14
 2142 0f66 4F       		.byte	0x4f
 2143 0f67 5B0F0000 		.4byte	0xf5b
 2144 0f6b 02       		.uleb128 0x2
 2145 0f6c 63020000 		.4byte	.LASF241
 2146 0f70 15       		.byte	0x15
 2147 0f71 65       		.byte	0x65
 2148 0f72 B5010000 		.4byte	0x1b5
 2149 0f76 02       		.uleb128 0x2
 2150 0f77 35040000 		.4byte	.LASF242
 2151 0f7b 15       		.byte	0x15
 2152 0f7c 6D       		.byte	0x6d
 2153 0f7d B5090000 		.4byte	0x9b5
 2154 0f81 10       		.uleb128 0x10
 2155 0f82 D30C0000 		.4byte	.LASF243
 2156 0f86 04       		.byte	0x4
 2157 0f87 15       		.byte	0x15
ARM GAS  C:\Users\RAKIBU~1\AppData\Local\Temp\cc5tbduv.s 			page 39


 2158 0f88 89       		.byte	0x89
 2159 0f89 990F0000 		.4byte	0xf99
 2160 0f8d 11       		.uleb128 0x11
 2161 0f8e 737000   		.ascii	"sp\000"
 2162 0f91 15       		.byte	0x15
 2163 0f92 8A       		.byte	0x8a
 2164 0f93 15100000 		.4byte	0x1015
 2165 0f97 00       		.byte	0
 2166 0f98 00       		.byte	0
 2167 0f99 1B       		.uleb128 0x1b
 2168 0f9a 4C090000 		.4byte	.LASF244
 2169 0f9e 24       		.byte	0x24
 2170 0f9f 16       		.byte	0x16
 2171 0fa0 6001     		.2byte	0x160
 2172 0fa2 15100000 		.4byte	0x1015
 2173 0fa6 23       		.uleb128 0x23
 2174 0fa7 723400   		.ascii	"r4\000"
 2175 0faa 16       		.byte	0x16
 2176 0fab 7301     		.2byte	0x173
 2177 0fad 6B0F0000 		.4byte	0xf6b
 2178 0fb1 00       		.byte	0
 2179 0fb2 23       		.uleb128 0x23
 2180 0fb3 723500   		.ascii	"r5\000"
 2181 0fb6 16       		.byte	0x16
 2182 0fb7 7401     		.2byte	0x174
 2183 0fb9 6B0F0000 		.4byte	0xf6b
 2184 0fbd 04       		.byte	0x4
 2185 0fbe 23       		.uleb128 0x23
 2186 0fbf 723600   		.ascii	"r6\000"
 2187 0fc2 16       		.byte	0x16
 2188 0fc3 7501     		.2byte	0x175
 2189 0fc5 6B0F0000 		.4byte	0xf6b
 2190 0fc9 08       		.byte	0x8
 2191 0fca 23       		.uleb128 0x23
 2192 0fcb 723700   		.ascii	"r7\000"
 2193 0fce 16       		.byte	0x16
 2194 0fcf 7601     		.2byte	0x176
 2195 0fd1 6B0F0000 		.4byte	0xf6b
 2196 0fd5 0C       		.byte	0xc
 2197 0fd6 23       		.uleb128 0x23
 2198 0fd7 723800   		.ascii	"r8\000"
 2199 0fda 16       		.byte	0x16
 2200 0fdb 7701     		.2byte	0x177
 2201 0fdd 6B0F0000 		.4byte	0xf6b
 2202 0fe1 10       		.byte	0x10
 2203 0fe2 23       		.uleb128 0x23
 2204 0fe3 723900   		.ascii	"r9\000"
 2205 0fe6 16       		.byte	0x16
 2206 0fe7 7801     		.2byte	0x178
 2207 0fe9 6B0F0000 		.4byte	0xf6b
 2208 0fed 14       		.byte	0x14
 2209 0fee 23       		.uleb128 0x23
 2210 0fef 72313000 		.ascii	"r10\000"
 2211 0ff3 16       		.byte	0x16
 2212 0ff4 7901     		.2byte	0x179
 2213 0ff6 6B0F0000 		.4byte	0xf6b
 2214 0ffa 18       		.byte	0x18
ARM GAS  C:\Users\RAKIBU~1\AppData\Local\Temp\cc5tbduv.s 			page 40


 2215 0ffb 23       		.uleb128 0x23
 2216 0ffc 72313100 		.ascii	"r11\000"
 2217 1000 16       		.byte	0x16
 2218 1001 7A01     		.2byte	0x17a
 2219 1003 6B0F0000 		.4byte	0xf6b
 2220 1007 1C       		.byte	0x1c
 2221 1008 23       		.uleb128 0x23
 2222 1009 6C7200   		.ascii	"lr\000"
 2223 100c 16       		.byte	0x16
 2224 100d 7B01     		.2byte	0x17b
 2225 100f 6B0F0000 		.4byte	0xf6b
 2226 1013 20       		.byte	0x20
 2227 1014 00       		.byte	0
 2228 1015 05       		.uleb128 0x5
 2229 1016 04       		.byte	0x4
 2230 1017 990F0000 		.4byte	0xf99
 2231 101b 0C       		.uleb128 0xc
 2232 101c 08       		.byte	0x8
 2233 101d 17       		.byte	0x17
 2234 101e 7F       		.byte	0x7f
 2235 101f 3C100000 		.4byte	0x103c
 2236 1023 11       		.uleb128 0x11
 2237 1024 6E747000 		.ascii	"ntp\000"
 2238 1028 17       		.byte	0x17
 2239 1029 83       		.byte	0x83
 2240 102a C20C0000 		.4byte	0xcc2
 2241 102e 00       		.byte	0
 2242 102f 0D       		.uleb128 0xd
 2243 1030 FC030000 		.4byte	.LASF245
 2244 1034 17       		.byte	0x17
 2245 1035 87       		.byte	0x87
 2246 1036 B5010000 		.4byte	0x1b5
 2247 103a 04       		.byte	0x4
 2248 103b 00       		.byte	0
 2249 103c 0C       		.uleb128 0xc
 2250 103d 04       		.byte	0x4
 2251 103e 17       		.byte	0x17
 2252 103f 8C       		.byte	0x8c
 2253 1040 51100000 		.4byte	0x1051
 2254 1044 0D       		.uleb128 0xd
 2255 1045 AF0B0000 		.4byte	.LASF193
 2256 1049 17       		.byte	0x17
 2257 104a 90       		.byte	0x90
 2258 104b 40060000 		.4byte	0x640
 2259 104f 00       		.byte	0
 2260 1050 00       		.byte	0
 2261 1051 0C       		.uleb128 0xc
 2262 1052 04       		.byte	0x4
 2263 1053 17       		.byte	0x17
 2264 1054 95       		.byte	0x95
 2265 1055 66100000 		.4byte	0x1066
 2266 1059 0D       		.uleb128 0xd
 2267 105a 6D0A0000 		.4byte	.LASF246
 2268 105e 17       		.byte	0x17
 2269 105f 99       		.byte	0x99
 2270 1060 40060000 		.4byte	0x640
 2271 1064 00       		.byte	0
ARM GAS  C:\Users\RAKIBU~1\AppData\Local\Temp\cc5tbduv.s 			page 41


 2272 1065 00       		.byte	0
 2273 1066 0C       		.uleb128 0xc
 2274 1067 08       		.byte	0x8
 2275 1068 17       		.byte	0x17
 2276 1069 9E       		.byte	0x9e
 2277 106a 87100000 		.4byte	0x1087
 2278 106e 11       		.uleb128 0x11
 2279 106f 75703100 		.ascii	"up1\000"
 2280 1073 17       		.byte	0x17
 2281 1074 A2       		.byte	0xa2
 2282 1075 B5010000 		.4byte	0x1b5
 2283 1079 00       		.byte	0
 2284 107a 11       		.uleb128 0x11
 2285 107b 75703200 		.ascii	"up2\000"
 2286 107f 17       		.byte	0x17
 2287 1080 A6       		.byte	0xa6
 2288 1081 B5010000 		.4byte	0x1b5
 2289 1085 04       		.byte	0x4
 2290 1086 00       		.byte	0
 2291 1087 08       		.uleb128 0x8
 2292 1088 08       		.byte	0x8
 2293 1089 17       		.byte	0x17
 2294 108a 7B       		.byte	0x7b
 2295 108b BB100000 		.4byte	0x10bb
 2296 108f 25       		.uleb128 0x25
 2297 1090 737700   		.ascii	"sw\000"
 2298 1093 17       		.byte	0x17
 2299 1094 88       		.byte	0x88
 2300 1095 1B100000 		.4byte	0x101b
 2301 1099 25       		.uleb128 0x25
 2302 109a 69737200 		.ascii	"isr\000"
 2303 109e 17       		.byte	0x17
 2304 109f 91       		.byte	0x91
 2305 10a0 3C100000 		.4byte	0x103c
 2306 10a4 09       		.uleb128 0x9
 2307 10a5 3B0B0000 		.4byte	.LASF247
 2308 10a9 17       		.byte	0x17
 2309 10aa 9A       		.byte	0x9a
 2310 10ab 51100000 		.4byte	0x1051
 2311 10af 09       		.uleb128 0x9
 2312 10b0 87000000 		.4byte	.LASF248
 2313 10b4 17       		.byte	0x17
 2314 10b5 A7       		.byte	0xa7
 2315 10b6 66100000 		.4byte	0x1066
 2316 10ba 00       		.byte	0
 2317 10bb 0C       		.uleb128 0xc
 2318 10bc 10       		.byte	0x10
 2319 10bd 17       		.byte	0x17
 2320 10be 68       		.byte	0x68
 2321 10bf 07110000 		.4byte	0x1107
 2322 10c3 26       		.uleb128 0x26
 2323 10c4 5F010000 		.4byte	.LASF249
 2324 10c8 17       		.byte	0x17
 2325 10c9 6C       		.byte	0x6c
 2326 10ca AA090000 		.4byte	0x9aa
 2327 10ce 04       		.byte	0x4
 2328 10cf 03       		.byte	0x3
ARM GAS  C:\Users\RAKIBU~1\AppData\Local\Temp\cc5tbduv.s 			page 42


 2329 10d0 1D       		.byte	0x1d
 2330 10d1 00       		.byte	0
 2331 10d2 26       		.uleb128 0x26
 2332 10d3 44010000 		.4byte	.LASF195
 2333 10d7 17       		.byte	0x17
 2334 10d8 70       		.byte	0x70
 2335 10d9 AA090000 		.4byte	0x9aa
 2336 10dd 04       		.byte	0x4
 2337 10de 05       		.byte	0x5
 2338 10df 18       		.byte	0x18
 2339 10e0 00       		.byte	0
 2340 10e1 26       		.uleb128 0x26
 2341 10e2 3C010000 		.4byte	.LASF250
 2342 10e6 17       		.byte	0x17
 2343 10e7 76       		.byte	0x76
 2344 10e8 AA090000 		.4byte	0x9aa
 2345 10ec 04       		.byte	0x4
 2346 10ed 18       		.byte	0x18
 2347 10ee 00       		.byte	0
 2348 10ef 00       		.byte	0
 2349 10f0 0D       		.uleb128 0xd
 2350 10f1 770D0000 		.4byte	.LASF251
 2351 10f5 17       		.byte	0x17
 2352 10f6 7A       		.byte	0x7a
 2353 10f7 FE0E0000 		.4byte	0xefe
 2354 10fb 04       		.byte	0x4
 2355 10fc 11       		.uleb128 0x11
 2356 10fd 7500     		.ascii	"u\000"
 2357 10ff 17       		.byte	0x17
 2358 1100 A8       		.byte	0xa8
 2359 1101 87100000 		.4byte	0x1087
 2360 1105 08       		.byte	0x8
 2361 1106 00       		.byte	0
 2362 1107 02       		.uleb128 0x2
 2363 1108 BC020000 		.4byte	.LASF252
 2364 110c 17       		.byte	0x17
 2365 110d A9       		.byte	0xa9
 2366 110e BB100000 		.4byte	0x10bb
 2367 1112 27       		.uleb128 0x27
 2368 1113 0808     		.2byte	0x808
 2369 1115 17       		.byte	0x17
 2370 1116 AF       		.byte	0xaf
 2371 1117 4C110000 		.4byte	0x114c
 2372 111b 0D       		.uleb128 0xd
 2373 111c 940B0000 		.4byte	.LASF253
 2374 1120 17       		.byte	0x17
 2375 1121 B3       		.byte	0xb3
 2376 1122 8F090000 		.4byte	0x98f
 2377 1126 00       		.byte	0
 2378 1127 0D       		.uleb128 0xd
 2379 1128 D7090000 		.4byte	.LASF254
 2380 112c 17       		.byte	0x17
 2381 112d B7       		.byte	0xb7
 2382 112e 8F090000 		.4byte	0x98f
 2383 1132 02       		.byte	0x2
 2384 1133 11       		.uleb128 0x11
 2385 1134 70747200 		.ascii	"ptr\000"
ARM GAS  C:\Users\RAKIBU~1\AppData\Local\Temp\cc5tbduv.s 			page 43


 2386 1138 17       		.byte	0x17
 2387 1139 BB       		.byte	0xbb
 2388 113a 4C110000 		.4byte	0x114c
 2389 113e 04       		.byte	0x4
 2390 113f 0D       		.uleb128 0xd
 2391 1140 AC040000 		.4byte	.LASF255
 2392 1144 17       		.byte	0x17
 2393 1145 BF       		.byte	0xbf
 2394 1146 52110000 		.4byte	0x1152
 2395 114a 08       		.byte	0x8
 2396 114b 00       		.byte	0
 2397 114c 05       		.uleb128 0x5
 2398 114d 04       		.byte	0x4
 2399 114e 07110000 		.4byte	0x1107
 2400 1152 0A       		.uleb128 0xa
 2401 1153 07110000 		.4byte	0x1107
 2402 1157 62110000 		.4byte	0x1162
 2403 115b 0B       		.uleb128 0xb
 2404 115c 30000000 		.4byte	0x30
 2405 1160 7F       		.byte	0x7f
 2406 1161 00       		.byte	0
 2407 1162 02       		.uleb128 0x2
 2408 1163 BB040000 		.4byte	.LASF256
 2409 1167 17       		.byte	0x17
 2410 1168 C0       		.byte	0xc0
 2411 1169 12110000 		.4byte	0x1112
 2412 116d 0C       		.uleb128 0xc
 2413 116e 04       		.byte	0x4
 2414 116f 18       		.byte	0x18
 2415 1170 38       		.byte	0x38
 2416 1171 82110000 		.4byte	0x1182
 2417 1175 0D       		.uleb128 0xd
 2418 1176 C5080000 		.4byte	.LASF257
 2419 117a 18       		.byte	0x18
 2420 117b 3C       		.byte	0x3c
 2421 117c 530B0000 		.4byte	0xb53
 2422 1180 00       		.byte	0
 2423 1181 00       		.byte	0
 2424 1182 02       		.uleb128 0x2
 2425 1183 9E0B0000 		.4byte	.LASF258
 2426 1187 18       		.byte	0x18
 2427 1188 3D       		.byte	0x3d
 2428 1189 6D110000 		.4byte	0x116d
 2429 118d 0C       		.uleb128 0xc
 2430 118e 18       		.byte	0x18
 2431 118f 18       		.byte	0x18
 2432 1190 48       		.byte	0x48
 2433 1191 D0110000 		.4byte	0x11d0
 2434 1195 0D       		.uleb128 0xd
 2435 1196 400B0000 		.4byte	.LASF259
 2436 119a 18       		.byte	0x18
 2437 119b 49       		.byte	0x49
 2438 119c 530B0000 		.4byte	0xb53
 2439 11a0 00       		.byte	0
 2440 11a1 0D       		.uleb128 0xd
 2441 11a2 5A040000 		.4byte	.LASF260
 2442 11a6 18       		.byte	0x18
ARM GAS  C:\Users\RAKIBU~1\AppData\Local\Temp\cc5tbduv.s 			page 44


 2443 11a7 4A       		.byte	0x4a
 2444 11a8 530B0000 		.4byte	0xb53
 2445 11ac 04       		.byte	0x4
 2446 11ad 0D       		.uleb128 0xd
 2447 11ae 0F0E0000 		.4byte	.LASF261
 2448 11b2 18       		.byte	0x18
 2449 11b3 4B       		.byte	0x4b
 2450 11b4 530B0000 		.4byte	0xb53
 2451 11b8 08       		.byte	0x8
 2452 11b9 11       		.uleb128 0x11
 2453 11ba 6E00     		.ascii	"n\000"
 2454 11bc 18       		.byte	0x18
 2455 11bd 4C       		.byte	0x4c
 2456 11be B60B0000 		.4byte	0xbb6
 2457 11c2 0C       		.byte	0xc
 2458 11c3 0D       		.uleb128 0xd
 2459 11c4 24050000 		.4byte	.LASF262
 2460 11c8 18       		.byte	0x18
 2461 11c9 4D       		.byte	0x4d
 2462 11ca 5E0B0000 		.4byte	0xb5e
 2463 11ce 10       		.byte	0x10
 2464 11cf 00       		.byte	0
 2465 11d0 02       		.uleb128 0x2
 2466 11d1 73010000 		.4byte	.LASF263
 2467 11d5 18       		.byte	0x18
 2468 11d6 4E       		.byte	0x4e
 2469 11d7 8D110000 		.4byte	0x118d
 2470 11db 0C       		.uleb128 0xc
 2471 11dc 38       		.byte	0x38
 2472 11dd 19       		.byte	0x19
 2473 11de 38       		.byte	0x38
 2474 11df 14120000 		.4byte	0x1214
 2475 11e3 0D       		.uleb128 0xd
 2476 11e4 22070000 		.4byte	.LASF264
 2477 11e8 19       		.byte	0x19
 2478 11e9 39       		.byte	0x39
 2479 11ea B60B0000 		.4byte	0xbb6
 2480 11ee 00       		.byte	0
 2481 11ef 0D       		.uleb128 0xd
 2482 11f0 03040000 		.4byte	.LASF265
 2483 11f4 19       		.byte	0x19
 2484 11f5 3A       		.byte	0x3a
 2485 11f6 B60B0000 		.4byte	0xbb6
 2486 11fa 04       		.byte	0x4
 2487 11fb 0D       		.uleb128 0xd
 2488 11fc CC050000 		.4byte	.LASF266
 2489 1200 19       		.byte	0x19
 2490 1201 3B       		.byte	0x3b
 2491 1202 D0110000 		.4byte	0x11d0
 2492 1206 08       		.byte	0x8
 2493 1207 0D       		.uleb128 0xd
 2494 1208 0C080000 		.4byte	.LASF267
 2495 120c 19       		.byte	0x19
 2496 120d 3D       		.byte	0x3d
 2497 120e D0110000 		.4byte	0x11d0
 2498 1212 20       		.byte	0x20
 2499 1213 00       		.byte	0
ARM GAS  C:\Users\RAKIBU~1\AppData\Local\Temp\cc5tbduv.s 			page 45


 2500 1214 02       		.uleb128 0x2
 2501 1215 72080000 		.4byte	.LASF268
 2502 1219 19       		.byte	0x19
 2503 121a 3F       		.byte	0x3f
 2504 121b DB110000 		.4byte	0x11db
 2505 121f 08       		.uleb128 0x8
 2506 1220 04       		.byte	0x4
 2507 1221 11       		.byte	0x11
 2508 1222 C6       		.byte	0xc6
 2509 1223 81120000 		.4byte	0x1281
 2510 1227 09       		.uleb128 0x9
 2511 1228 220D0000 		.4byte	.LASF269
 2512 122c 11       		.byte	0x11
 2513 122d CD       		.byte	0xcd
 2514 122e 950B0000 		.4byte	0xb95
 2515 1232 09       		.uleb128 0x9
 2516 1233 9B010000 		.4byte	.LASF270
 2517 1237 11       		.byte	0x11
 2518 1238 D4       		.byte	0xd4
 2519 1239 950B0000 		.4byte	0xb95
 2520 123d 09       		.uleb128 0x9
 2521 123e FC030000 		.4byte	.LASF245
 2522 1242 11       		.byte	0x11
 2523 1243 DB       		.byte	0xdb
 2524 1244 B5010000 		.4byte	0x1b5
 2525 1248 09       		.uleb128 0x9
 2526 1249 FE020000 		.4byte	.LASF271
 2527 124d 11       		.byte	0x11
 2528 124e E2       		.byte	0xe2
 2529 124f 81120000 		.4byte	0x1281
 2530 1253 09       		.uleb128 0x9
 2531 1254 44090000 		.4byte	.LASF272
 2532 1258 11       		.byte	0x11
 2533 1259 E7       		.byte	0xe7
 2534 125a 950B0000 		.4byte	0xb95
 2535 125e 09       		.uleb128 0x9
 2536 125f 080E0000 		.4byte	.LASF273
 2537 1263 11       		.byte	0x11
 2538 1264 F0       		.byte	0xf0
 2539 1265 AC120000 		.4byte	0x12ac
 2540 1269 09       		.uleb128 0x9
 2541 126a D9040000 		.4byte	.LASF274
 2542 126e 11       		.byte	0x11
 2543 126f F9       		.byte	0xf9
 2544 1270 E3120000 		.4byte	0x12e3
 2545 1274 1E       		.uleb128 0x1e
 2546 1275 A1020000 		.4byte	.LASF275
 2547 1279 11       		.byte	0x11
 2548 127a 0101     		.2byte	0x101
 2549 127c A00B0000 		.4byte	0xba0
 2550 1280 00       		.byte	0
 2551 1281 05       		.uleb128 0x5
 2552 1282 04       		.byte	0x4
 2553 1283 B70C0000 		.4byte	0xcb7
 2554 1287 10       		.uleb128 0x10
 2555 1288 47060000 		.4byte	.LASF276
 2556 128c 0C       		.byte	0xc
ARM GAS  C:\Users\RAKIBU~1\AppData\Local\Temp\cc5tbduv.s 			page 46


 2557 128d 1A       		.byte	0x1a
 2558 128e 34       		.byte	0x34
 2559 128f AC120000 		.4byte	0x12ac
 2560 1293 0D       		.uleb128 0xd
 2561 1294 5E0A0000 		.4byte	.LASF189
 2562 1298 1A       		.byte	0x1a
 2563 1299 35       		.byte	0x35
 2564 129a EC0C0000 		.4byte	0xcec
 2565 129e 00       		.byte	0
 2566 129f 11       		.uleb128 0x11
 2567 12a0 636E7400 		.ascii	"cnt\000"
 2568 12a4 1A       		.byte	0x1a
 2569 12a5 37       		.byte	0x37
 2570 12a6 AB0B0000 		.4byte	0xbab
 2571 12aa 08       		.byte	0x8
 2572 12ab 00       		.byte	0
 2573 12ac 05       		.uleb128 0x5
 2574 12ad 04       		.byte	0x4
 2575 12ae 87120000 		.4byte	0x1287
 2576 12b2 10       		.uleb128 0x10
 2577 12b3 E70B0000 		.4byte	.LASF277
 2578 12b7 10       		.byte	0x10
 2579 12b8 1B       		.byte	0x1b
 2580 12b9 39       		.byte	0x39
 2581 12ba E3120000 		.4byte	0x12e3
 2582 12be 0D       		.uleb128 0xd
 2583 12bf 5E0A0000 		.4byte	.LASF189
 2584 12c3 1B       		.byte	0x1b
 2585 12c4 3A       		.byte	0x3a
 2586 12c5 EC0C0000 		.4byte	0xcec
 2587 12c9 00       		.byte	0
 2588 12ca 0D       		.uleb128 0xd
 2589 12cb 4D000000 		.4byte	.LASF278
 2590 12cf 1B       		.byte	0x1b
 2591 12d0 3C       		.byte	0x3c
 2592 12d1 C20C0000 		.4byte	0xcc2
 2593 12d5 08       		.byte	0x8
 2594 12d6 0D       		.uleb128 0xd
 2595 12d7 C70D0000 		.4byte	.LASF208
 2596 12db 1B       		.byte	0x1b
 2597 12dc 3E       		.byte	0x3e
 2598 12dd 2E140000 		.4byte	0x142e
 2599 12e1 0C       		.byte	0xc
 2600 12e2 00       		.byte	0
 2601 12e3 05       		.uleb128 0x5
 2602 12e4 04       		.byte	0x4
 2603 12e5 B2120000 		.4byte	0x12b2
 2604 12e9 05       		.uleb128 0x5
 2605 12ea 04       		.byte	0x4
 2606 12eb 760F0000 		.4byte	0xf76
 2607 12ef 05       		.uleb128 0x5
 2608 12f0 04       		.byte	0x4
 2609 12f1 9F0D0000 		.4byte	0xd9f
 2610 12f5 28       		.uleb128 0x28
 2611 12f6 636800   		.ascii	"ch\000"
 2612 12f9 11       		.byte	0x11
 2613 12fa C701     		.2byte	0x1c7
ARM GAS  C:\Users\RAKIBU~1\AppData\Local\Temp\cc5tbduv.s 			page 47


 2614 12fc 940E0000 		.4byte	0xe94
 2615 1300 0A       		.uleb128 0xa
 2616 1301 760F0000 		.4byte	0xf76
 2617 1305 0B130000 		.4byte	0x130b
 2618 1309 22       		.uleb128 0x22
 2619 130a 00       		.byte	0
 2620 130b 20       		.uleb128 0x20
 2621 130c 74060000 		.4byte	.LASF279
 2622 1310 1C       		.byte	0x1c
 2623 1311 1701     		.2byte	0x117
 2624 1313 00130000 		.4byte	0x1300
 2625 1317 0C       		.uleb128 0xc
 2626 1318 16       		.byte	0x16
 2627 1319 1D       		.byte	0x1d
 2628 131a 34       		.byte	0x34
 2629 131b F8130000 		.4byte	0x13f8
 2630 131f 0D       		.uleb128 0xd
 2631 1320 E70D0000 		.4byte	.LASF280
 2632 1324 1D       		.byte	0x1d
 2633 1325 35       		.byte	0x35
 2634 1326 F8130000 		.4byte	0x13f8
 2635 132a 00       		.byte	0
 2636 132b 0D       		.uleb128 0xd
 2637 132c 1E020000 		.4byte	.LASF281
 2638 1330 1D       		.byte	0x1d
 2639 1331 36       		.byte	0x36
 2640 1332 7F090000 		.4byte	0x97f
 2641 1336 04       		.byte	0x4
 2642 1337 0D       		.uleb128 0xd
 2643 1338 D7090000 		.4byte	.LASF254
 2644 133c 1D       		.byte	0x1d
 2645 133d 37       		.byte	0x37
 2646 133e 7F090000 		.4byte	0x97f
 2647 1342 05       		.byte	0x5
 2648 1343 0D       		.uleb128 0xd
 2649 1344 2C0B0000 		.4byte	.LASF282
 2650 1348 1D       		.byte	0x1d
 2651 1349 38       		.byte	0x38
 2652 134a 8F090000 		.4byte	0x98f
 2653 134e 06       		.byte	0x6
 2654 134f 0D       		.uleb128 0xd
 2655 1350 68040000 		.4byte	.LASF283
 2656 1354 1D       		.byte	0x1d
 2657 1355 39       		.byte	0x39
 2658 1356 7F090000 		.4byte	0x97f
 2659 135a 08       		.byte	0x8
 2660 135b 0D       		.uleb128 0xd
 2661 135c FF0D0000 		.4byte	.LASF284
 2662 1360 1D       		.byte	0x1d
 2663 1361 3A       		.byte	0x3a
 2664 1362 7F090000 		.4byte	0x97f
 2665 1366 09       		.byte	0x9
 2666 1367 0D       		.uleb128 0xd
 2667 1368 09060000 		.4byte	.LASF285
 2668 136c 1D       		.byte	0x1d
 2669 136d 3B       		.byte	0x3b
 2670 136e 7F090000 		.4byte	0x97f
ARM GAS  C:\Users\RAKIBU~1\AppData\Local\Temp\cc5tbduv.s 			page 48


 2671 1372 0A       		.byte	0xa
 2672 1373 0D       		.uleb128 0xd
 2673 1374 0F000000 		.4byte	.LASF286
 2674 1378 1D       		.byte	0x1d
 2675 1379 3C       		.byte	0x3c
 2676 137a 7F090000 		.4byte	0x97f
 2677 137e 0B       		.byte	0xb
 2678 137f 0D       		.uleb128 0xd
 2679 1380 00000000 		.4byte	.LASF287
 2680 1384 1D       		.byte	0x1d
 2681 1385 3D       		.byte	0x3d
 2682 1386 7F090000 		.4byte	0x97f
 2683 138a 0C       		.byte	0xc
 2684 138b 0D       		.uleb128 0xd
 2685 138c 02080000 		.4byte	.LASF288
 2686 1390 1D       		.byte	0x1d
 2687 1391 3E       		.byte	0x3e
 2688 1392 7F090000 		.4byte	0x97f
 2689 1396 0D       		.byte	0xd
 2690 1397 0D       		.uleb128 0xd
 2691 1398 86010000 		.4byte	.LASF289
 2692 139c 1D       		.byte	0x1d
 2693 139d 3F       		.byte	0x3f
 2694 139e 7F090000 		.4byte	0x97f
 2695 13a2 0E       		.byte	0xe
 2696 13a3 0D       		.uleb128 0xd
 2697 13a4 040A0000 		.4byte	.LASF290
 2698 13a8 1D       		.byte	0x1d
 2699 13a9 40       		.byte	0x40
 2700 13aa 7F090000 		.4byte	0x97f
 2701 13ae 0F       		.byte	0xf
 2702 13af 0D       		.uleb128 0xd
 2703 13b0 E0060000 		.4byte	.LASF291
 2704 13b4 1D       		.byte	0x1d
 2705 13b5 41       		.byte	0x41
 2706 13b6 7F090000 		.4byte	0x97f
 2707 13ba 10       		.byte	0x10
 2708 13bb 0D       		.uleb128 0xd
 2709 13bc E8050000 		.4byte	.LASF292
 2710 13c0 1D       		.byte	0x1d
 2711 13c1 42       		.byte	0x42
 2712 13c2 7F090000 		.4byte	0x97f
 2713 13c6 11       		.byte	0x11
 2714 13c7 0D       		.uleb128 0xd
 2715 13c8 A00D0000 		.4byte	.LASF293
 2716 13cc 1D       		.byte	0x1d
 2717 13cd 43       		.byte	0x43
 2718 13ce 7F090000 		.4byte	0x97f
 2719 13d2 12       		.byte	0x12
 2720 13d3 0D       		.uleb128 0xd
 2721 13d4 1C040000 		.4byte	.LASF294
 2722 13d8 1D       		.byte	0x1d
 2723 13d9 44       		.byte	0x44
 2724 13da 7F090000 		.4byte	0x97f
 2725 13de 13       		.byte	0x13
 2726 13df 0D       		.uleb128 0xd
 2727 13e0 3C000000 		.4byte	.LASF295
ARM GAS  C:\Users\RAKIBU~1\AppData\Local\Temp\cc5tbduv.s 			page 49


 2728 13e4 1D       		.byte	0x1d
 2729 13e5 45       		.byte	0x45
 2730 13e6 7F090000 		.4byte	0x97f
 2731 13ea 14       		.byte	0x14
 2732 13eb 0D       		.uleb128 0xd
 2733 13ec 7E040000 		.4byte	.LASF296
 2734 13f0 1D       		.byte	0x1d
 2735 13f1 46       		.byte	0x46
 2736 13f2 7F090000 		.4byte	0x97f
 2737 13f6 15       		.byte	0x15
 2738 13f7 00       		.byte	0
 2739 13f8 0A       		.uleb128 0xa
 2740 13f9 C8010000 		.4byte	0x1c8
 2741 13fd 08140000 		.4byte	0x1408
 2742 1401 0B       		.uleb128 0xb
 2743 1402 30000000 		.4byte	0x30
 2744 1406 03       		.byte	0x3
 2745 1407 00       		.byte	0
 2746 1408 02       		.uleb128 0x2
 2747 1409 570D0000 		.4byte	.LASF297
 2748 140d 1D       		.byte	0x1d
 2749 140e 47       		.byte	0x47
 2750 140f 17130000 		.4byte	0x1317
 2751 1413 0F       		.uleb128 0xf
 2752 1414 08140000 		.4byte	0x1408
 2753 1418 21       		.uleb128 0x21
 2754 1419 6B000000 		.4byte	.LASF298
 2755 141d 1D       		.byte	0x1d
 2756 141e 6C       		.byte	0x6c
 2757 141f 13140000 		.4byte	0x1413
 2758 1423 02       		.uleb128 0x2
 2759 1424 B40C0000 		.4byte	.LASF299
 2760 1428 1B       		.byte	0x1b
 2761 1429 34       		.byte	0x34
 2762 142a B2120000 		.4byte	0x12b2
 2763 142e 05       		.uleb128 0x5
 2764 142f 04       		.byte	0x4
 2765 1430 23140000 		.4byte	0x1423
 2766 1434 03       		.uleb128 0x3
 2767 1435 01       		.byte	0x1
 2768 1436 02       		.byte	0x2
 2769 1437 CA030000 		.4byte	.LASF300
 2770 143b 02       		.uleb128 0x2
 2771 143c 05090000 		.4byte	.LASF301
 2772 1440 02       		.byte	0x2
 2773 1441 47       		.byte	0x47
 2774 1442 46140000 		.4byte	0x1446
 2775 1446 05       		.uleb128 0x5
 2776 1447 04       		.byte	0x4
 2777 1448 4C140000 		.4byte	0x144c
 2778 144c 15       		.uleb128 0x15
 2779 144d B5010000 		.4byte	0x1b5
 2780 1451 60140000 		.4byte	0x1460
 2781 1455 16       		.uleb128 0x16
 2782 1456 25000000 		.4byte	0x25
 2783 145a 16       		.uleb128 0x16
 2784 145b 30000000 		.4byte	0x30
ARM GAS  C:\Users\RAKIBU~1\AppData\Local\Temp\cc5tbduv.s 			page 50


 2785 145f 00       		.byte	0
 2786 1460 0C       		.uleb128 0xc
 2787 1461 08       		.byte	0x8
 2788 1462 02       		.byte	0x2
 2789 1463 51       		.byte	0x51
 2790 1464 81140000 		.4byte	0x1481
 2791 1468 0D       		.uleb128 0xd
 2792 1469 2F050000 		.4byte	.LASF302
 2793 146d 02       		.byte	0x2
 2794 146e 55       		.byte	0x55
 2795 146f 81140000 		.4byte	0x1481
 2796 1473 00       		.byte	0
 2797 1474 0D       		.uleb128 0xd
 2798 1475 18000000 		.4byte	.LASF303
 2799 1479 02       		.byte	0x2
 2800 147a 59       		.byte	0x59
 2801 147b 81140000 		.4byte	0x1481
 2802 147f 04       		.byte	0x4
 2803 1480 00       		.byte	0
 2804 1481 05       		.uleb128 0x5
 2805 1482 04       		.byte	0x4
 2806 1483 7F090000 		.4byte	0x97f
 2807 1487 02       		.uleb128 0x2
 2808 1488 8B020000 		.4byte	.LASF304
 2809 148c 02       		.byte	0x2
 2810 148d 5A       		.byte	0x5a
 2811 148e 60140000 		.4byte	0x1460
 2812 1492 21       		.uleb128 0x21
 2813 1493 950D0000 		.4byte	.LASF305
 2814 1497 02       		.byte	0x2
 2815 1498 65       		.byte	0x65
 2816 1499 87140000 		.4byte	0x1487
 2817 149d 10       		.uleb128 0x10
 2818 149e F6060000 		.4byte	.LASF306
 2819 14a2 04       		.byte	0x4
 2820 14a3 1E       		.byte	0x1e
 2821 14a4 38       		.byte	0x38
 2822 14a5 B6140000 		.4byte	0x14b6
 2823 14a9 0D       		.uleb128 0xd
 2824 14aa C70D0000 		.4byte	.LASF208
 2825 14ae 1E       		.byte	0x1e
 2826 14af 39       		.byte	0x39
 2827 14b0 B6140000 		.4byte	0x14b6
 2828 14b4 00       		.byte	0
 2829 14b5 00       		.byte	0
 2830 14b6 05       		.uleb128 0x5
 2831 14b7 04       		.byte	0x4
 2832 14b8 9D140000 		.4byte	0x149d
 2833 14bc 0C       		.uleb128 0xc
 2834 14bd 10       		.byte	0x10
 2835 14be 1E       		.byte	0x1e
 2836 14bf 40       		.byte	0x40
 2837 14c0 F5140000 		.4byte	0x14f5
 2838 14c4 0D       		.uleb128 0xd
 2839 14c5 C70D0000 		.4byte	.LASF208
 2840 14c9 1E       		.byte	0x1e
 2841 14ca 41       		.byte	0x41
ARM GAS  C:\Users\RAKIBU~1\AppData\Local\Temp\cc5tbduv.s 			page 51


 2842 14cb B6140000 		.4byte	0x14b6
 2843 14cf 00       		.byte	0
 2844 14d0 0D       		.uleb128 0xd
 2845 14d1 4E0C0000 		.4byte	.LASF307
 2846 14d5 1E       		.byte	0x1e
 2847 14d6 42       		.byte	0x42
 2848 14d7 25000000 		.4byte	0x25
 2849 14db 04       		.byte	0x4
 2850 14dc 0D       		.uleb128 0xd
 2851 14dd E3070000 		.4byte	.LASF308
 2852 14e1 1E       		.byte	0x1e
 2853 14e2 44       		.byte	0x44
 2854 14e3 30000000 		.4byte	0x30
 2855 14e7 08       		.byte	0x8
 2856 14e8 0D       		.uleb128 0xd
 2857 14e9 7E000000 		.4byte	.LASF309
 2858 14ed 1E       		.byte	0x1e
 2859 14ee 45       		.byte	0x45
 2860 14ef 3B140000 		.4byte	0x143b
 2861 14f3 0C       		.byte	0xc
 2862 14f4 00       		.byte	0
 2863 14f5 02       		.uleb128 0x2
 2864 14f6 630B0000 		.4byte	.LASF310
 2865 14fa 1E       		.byte	0x1e
 2866 14fb 47       		.byte	0x47
 2867 14fc BC140000 		.4byte	0x14bc
 2868 1500 10       		.uleb128 0x10
 2869 1501 2D010000 		.4byte	.LASF311
 2870 1505 10       		.byte	0x10
 2871 1506 1F       		.byte	0x1f
 2872 1507 A9       		.byte	0xa9
 2873 1508 31150000 		.4byte	0x1531
 2874 150c 0D       		.uleb128 0xd
 2875 150d C70D0000 		.4byte	.LASF208
 2876 1511 1F       		.byte	0x1f
 2877 1512 AD       		.byte	0xad
 2878 1513 31150000 		.4byte	0x1531
 2879 1517 00       		.byte	0
 2880 1518 0D       		.uleb128 0xd
 2881 1519 46080000 		.4byte	.LASF197
 2882 151d 1F       		.byte	0x1f
 2883 151e B1       		.byte	0xb1
 2884 151f B60B0000 		.4byte	0xbb6
 2885 1523 04       		.byte	0x4
 2886 1524 0D       		.uleb128 0xd
 2887 1525 AF0B0000 		.4byte	.LASF193
 2888 1529 1F       		.byte	0x1f
 2889 152a B3       		.byte	0xb3
 2890 152b 57080000 		.4byte	0x857
 2891 152f 08       		.byte	0x8
 2892 1530 00       		.byte	0
 2893 1531 05       		.uleb128 0x5
 2894 1532 04       		.byte	0x4
 2895 1533 00150000 		.4byte	0x1500
 2896 1537 02       		.uleb128 0x2
 2897 1538 960C0000 		.4byte	.LASF312
 2898 153c 1F       		.byte	0x1f
ARM GAS  C:\Users\RAKIBU~1\AppData\Local\Temp\cc5tbduv.s 			page 52


 2899 153d B7       		.byte	0xb7
 2900 153e 00150000 		.4byte	0x1500
 2901 1542 10       		.uleb128 0x10
 2902 1543 DB0D0000 		.4byte	.LASF313
 2903 1547 04       		.byte	0x4
 2904 1548 1F       		.byte	0x1f
 2905 1549 BC       		.byte	0xbc
 2906 154a 5B150000 		.4byte	0x155b
 2907 154e 0D       		.uleb128 0xd
 2908 154f C70D0000 		.4byte	.LASF208
 2909 1553 1F       		.byte	0x1f
 2910 1554 BD       		.byte	0xbd
 2911 1555 5B150000 		.4byte	0x155b
 2912 1559 00       		.byte	0
 2913 155a 00       		.byte	0
 2914 155b 05       		.uleb128 0x5
 2915 155c 04       		.byte	0x4
 2916 155d 37150000 		.4byte	0x1537
 2917 1561 02       		.uleb128 0x2
 2918 1562 390C0000 		.4byte	.LASF314
 2919 1566 1F       		.byte	0x1f
 2920 1567 BE       		.byte	0xbe
 2921 1568 42150000 		.4byte	0x1542
 2922 156c 1B       		.uleb128 0x1b
 2923 156d A0070000 		.4byte	.LASF315
 2924 1571 48       		.byte	0x48
 2925 1572 1F       		.byte	0x1f
 2926 1573 3E01     		.2byte	0x13e
 2927 1575 EF150000 		.4byte	0x15ef
 2928 1579 23       		.uleb128 0x23
 2929 157a 6D747800 		.ascii	"mtx\000"
 2930 157e 1F       		.byte	0x1f
 2931 157f 4301     		.2byte	0x143
 2932 1581 23140000 		.4byte	0x1423
 2933 1585 00       		.byte	0
 2934 1586 18       		.uleb128 0x18
 2935 1587 6A010000 		.4byte	.LASF316
 2936 158b 1F       		.byte	0x1f
 2937 158c 4A01     		.2byte	0x14a
 2938 158e 61150000 		.4byte	0x1561
 2939 1592 10       		.byte	0x10
 2940 1593 18       		.uleb128 0x18
 2941 1594 75020000 		.4byte	.LASF317
 2942 1598 1F       		.byte	0x1f
 2943 1599 4E01     		.2byte	0x14e
 2944 159b F5140000 		.4byte	0x14f5
 2945 159f 14       		.byte	0x14
 2946 15a0 18       		.uleb128 0x18
 2947 15a1 70090000 		.4byte	.LASF318
 2948 15a5 1F       		.byte	0x1f
 2949 15a6 5301     		.2byte	0x153
 2950 15a8 61150000 		.4byte	0x1561
 2951 15ac 24       		.byte	0x24
 2952 15ad 18       		.uleb128 0x18
 2953 15ae E8030000 		.4byte	.LASF319
 2954 15b2 1F       		.byte	0x1f
 2955 15b3 5901     		.2byte	0x159
ARM GAS  C:\Users\RAKIBU~1\AppData\Local\Temp\cc5tbduv.s 			page 53


 2956 15b5 61150000 		.4byte	0x1561
 2957 15b9 28       		.byte	0x28
 2958 15ba 18       		.uleb128 0x18
 2959 15bb 04050000 		.4byte	.LASF320
 2960 15bf 1F       		.byte	0x1f
 2961 15c0 5D01     		.2byte	0x15d
 2962 15c2 F5140000 		.4byte	0x14f5
 2963 15c6 2C       		.byte	0x2c
 2964 15c7 18       		.uleb128 0x18
 2965 15c8 0F0B0000 		.4byte	.LASF321
 2966 15cc 1F       		.byte	0x1f
 2967 15cd 6301     		.2byte	0x163
 2968 15cf 61150000 		.4byte	0x1561
 2969 15d3 3C       		.byte	0x3c
 2970 15d4 18       		.uleb128 0x18
 2971 15d5 8D060000 		.4byte	.LASF322
 2972 15d9 1F       		.byte	0x1f
 2973 15da 6901     		.2byte	0x169
 2974 15dc 61150000 		.4byte	0x1561
 2975 15e0 40       		.byte	0x40
 2976 15e1 18       		.uleb128 0x18
 2977 15e2 9A040000 		.4byte	.LASF323
 2978 15e6 1F       		.byte	0x1f
 2979 15e7 6F01     		.2byte	0x16f
 2980 15e9 61150000 		.4byte	0x1561
 2981 15ed 44       		.byte	0x44
 2982 15ee 00       		.byte	0
 2983 15ef 07       		.uleb128 0x7
 2984 15f0 58090000 		.4byte	.LASF324
 2985 15f4 1F       		.byte	0x1f
 2986 15f5 7101     		.2byte	0x171
 2987 15f7 6C150000 		.4byte	0x156c
 2988 15fb 20       		.uleb128 0x20
 2989 15fc 33070000 		.4byte	.LASF325
 2990 1600 1F       		.byte	0x1f
 2991 1601 7C01     		.2byte	0x17c
 2992 1603 EF150000 		.4byte	0x15ef
 2993 1607 29       		.uleb128 0x29
 2994 1608 2B040000 		.4byte	.LASF326
 2995 160c 01       		.byte	0x1
 2996 160d AB       		.byte	0xab
 2997 160e 37000000 		.4byte	0x37
 2998 1612 90000000 		.4byte	.LFB301
 2999 1616 04000000 		.4byte	.LFE301-.LFB301
 3000 161a 01       		.uleb128 0x1
 3001 161b 9C       		.byte	0x9c
 3002 161c 3A160000 		.4byte	0x163a
 3003 1620 2A       		.uleb128 0x2a
 3004 1621 7200     		.ascii	"r\000"
 3005 1623 01       		.byte	0x1
 3006 1624 AB       		.byte	0xab
 3007 1625 DF040000 		.4byte	0x4df
 3008 1629 00000000 		.4byte	.LLST11
 3009 162d 2B       		.uleb128 0x2b
 3010 162e 666400   		.ascii	"fd\000"
 3011 1631 01       		.byte	0x1
 3012 1632 AB       		.byte	0xab
ARM GAS  C:\Users\RAKIBU~1\AppData\Local\Temp\cc5tbduv.s 			page 54


 3013 1633 37000000 		.4byte	0x37
 3014 1637 01       		.uleb128 0x1
 3015 1638 51       		.byte	0x51
 3016 1639 00       		.byte	0
 3017 163a 29       		.uleb128 0x29
 3018 163b 550A0000 		.4byte	.LASF327
 3019 163f 01       		.byte	0x1
 3020 1640 9E       		.byte	0x9e
 3021 1641 37000000 		.4byte	0x37
 3022 1645 70000000 		.4byte	.LFB300
 3023 1649 18000000 		.4byte	.LFE300-.LFB300
 3024 164d 01       		.uleb128 0x1
 3025 164e 9C       		.byte	0x9c
 3026 164f 99160000 		.4byte	0x1699
 3027 1653 2A       		.uleb128 0x2a
 3028 1654 7200     		.ascii	"r\000"
 3029 1656 01       		.byte	0x1
 3030 1657 9E       		.byte	0x9e
 3031 1658 DF040000 		.4byte	0x4df
 3032 165c 21000000 		.4byte	.LLST8
 3033 1660 2C       		.uleb128 0x2c
 3034 1661 79040000 		.4byte	.LASF328
 3035 1665 01       		.byte	0x1
 3036 1666 9E       		.byte	0x9e
 3037 1667 37000000 		.4byte	0x37
 3038 166b 42000000 		.4byte	.LLST9
 3039 166f 2A       		.uleb128 0x2a
 3040 1670 737400   		.ascii	"st\000"
 3041 1673 01       		.byte	0x1
 3042 1674 9E       		.byte	0x9e
 3043 1675 99160000 		.4byte	0x1699
 3044 1679 63000000 		.4byte	.LLST10
 3045 167d 2D       		.uleb128 0x2d
 3046 167e 7E000000 		.4byte	.LVL19
 3047 1682 88180000 		.4byte	0x1888
 3048 1686 2E       		.uleb128 0x2e
 3049 1687 01       		.uleb128 0x1
 3050 1688 50       		.byte	0x50
 3051 1689 02       		.uleb128 0x2
 3052 168a 74       		.byte	0x74
 3053 168b 00       		.sleb128 0
 3054 168c 2E       		.uleb128 0x2e
 3055 168d 01       		.uleb128 0x1
 3056 168e 51       		.byte	0x51
 3057 168f 01       		.uleb128 0x1
 3058 1690 30       		.byte	0x30
 3059 1691 2E       		.uleb128 0x2e
 3060 1692 01       		.uleb128 0x1
 3061 1693 52       		.byte	0x52
 3062 1694 02       		.uleb128 0x2
 3063 1695 08       		.byte	0x8
 3064 1696 58       		.byte	0x58
 3065 1697 00       		.byte	0
 3066 1698 00       		.byte	0
 3067 1699 05       		.uleb128 0x5
 3068 169a 04       		.byte	0x4
 3069 169b 6A0A0000 		.4byte	0xa6a
ARM GAS  C:\Users\RAKIBU~1\AppData\Local\Temp\cc5tbduv.s 			page 55


 3070 169f 29       		.uleb128 0x29
 3071 16a0 2D030000 		.4byte	.LASF329
 3072 16a4 01       		.byte	0x1
 3073 16a5 87       		.byte	0x87
 3074 16a6 E1090000 		.4byte	0x9e1
 3075 16aa 40000000 		.4byte	.LFB299
 3076 16ae 30000000 		.4byte	.LFE299-.LFB299
 3077 16b2 01       		.uleb128 0x1
 3078 16b3 9C       		.byte	0x9c
 3079 16b4 37170000 		.4byte	0x1737
 3080 16b8 2A       		.uleb128 0x2a
 3081 16b9 7200     		.ascii	"r\000"
 3082 16bb 01       		.byte	0x1
 3083 16bc 87       		.byte	0x87
 3084 16bd DF040000 		.4byte	0x4df
 3085 16c1 81000000 		.4byte	.LLST5
 3086 16c5 2C       		.uleb128 0x2c
 3087 16c6 54080000 		.4byte	.LASF330
 3088 16ca 01       		.byte	0x1
 3089 16cb 87       		.byte	0x87
 3090 16cc 37000000 		.4byte	0x37
 3091 16d0 B5000000 		.4byte	.LLST6
 3092 16d4 2F       		.uleb128 0x2f
 3093 16d5 7000     		.ascii	"p\000"
 3094 16d7 01       		.byte	0x1
 3095 16d8 8A       		.byte	0x8a
 3096 16d9 B5010000 		.4byte	0x1b5
 3097 16dd 30       		.uleb128 0x30
 3098 16de B9000000 		.4byte	.LASF331
 3099 16e2 47170000 		.4byte	0x1747
 3100 16e6 05       		.uleb128 0x5
 3101 16e7 03       		.byte	0x3
 3102 16e8 00000000 		.4byte	__func__.8186
 3103 16ec 31       		.uleb128 0x31
 3104 16ed 6C180000 		.4byte	0x186c
 3105 16f1 48000000 		.4byte	.LBB4
 3106 16f5 0A000000 		.4byte	.LBE4-.LBB4
 3107 16f9 01       		.byte	0x1
 3108 16fa 8E       		.byte	0x8e
 3109 16fb 23170000 		.4byte	0x1723
 3110 16ff 32       		.uleb128 0x32
 3111 1700 7C180000 		.4byte	0x187c
 3112 1704 E9000000 		.4byte	.LLST7
 3113 1708 2D       		.uleb128 0x2d
 3114 1709 52000000 		.4byte	.LVL11
 3115 170d 97180000 		.4byte	0x1897
 3116 1711 2E       		.uleb128 0x2e
 3117 1712 01       		.uleb128 0x1
 3118 1713 50       		.byte	0x50
 3119 1714 02       		.uleb128 0x2
 3120 1715 74       		.byte	0x74
 3121 1716 00       		.sleb128 0
 3122 1717 2E       		.uleb128 0x2e
 3123 1718 01       		.uleb128 0x1
 3124 1719 51       		.byte	0x51
 3125 171a 01       		.uleb128 0x1
 3126 171b 34       		.byte	0x34
ARM GAS  C:\Users\RAKIBU~1\AppData\Local\Temp\cc5tbduv.s 			page 56


 3127 171c 2E       		.uleb128 0x2e
 3128 171d 01       		.uleb128 0x1
 3129 171e 52       		.byte	0x52
 3130 171f 01       		.uleb128 0x1
 3131 1720 30       		.byte	0x30
 3132 1721 00       		.byte	0
 3133 1722 00       		.byte	0
 3134 1723 2D       		.uleb128 0x2d
 3135 1724 60000000 		.4byte	.LVL14
 3136 1728 A2180000 		.4byte	0x18a2
 3137 172c 2E       		.uleb128 0x2e
 3138 172d 01       		.uleb128 0x1
 3139 172e 50       		.byte	0x50
 3140 172f 05       		.uleb128 0x5
 3141 1730 03       		.byte	0x3
 3142 1731 00000000 		.4byte	.LANCHOR0
 3143 1735 00       		.byte	0
 3144 1736 00       		.byte	0
 3145 1737 0A       		.uleb128 0xa
 3146 1738 CF010000 		.4byte	0x1cf
 3147 173c 47170000 		.4byte	0x1747
 3148 1740 0B       		.uleb128 0xb
 3149 1741 30000000 		.4byte	0x30
 3150 1745 07       		.byte	0x7
 3151 1746 00       		.byte	0
 3152 1747 0F       		.uleb128 0xf
 3153 1748 37170000 		.4byte	0x1737
 3154 174c 29       		.uleb128 0x29
 3155 174d ED060000 		.4byte	.LASF332
 3156 1751 01       		.byte	0x1
 3157 1752 7C       		.byte	0x7c
 3158 1753 37000000 		.4byte	0x37
 3159 1757 30000000 		.4byte	.LFB298
 3160 175b 04000000 		.4byte	.LFE298-.LFB298
 3161 175f 01       		.uleb128 0x1
 3162 1760 9C       		.byte	0x9c
 3163 1761 80170000 		.4byte	0x1780
 3164 1765 2A       		.uleb128 0x2a
 3165 1766 7200     		.ascii	"r\000"
 3166 1768 01       		.byte	0x1
 3167 1769 7C       		.byte	0x7c
 3168 176a DF040000 		.4byte	0x4df
 3169 176e FC000000 		.4byte	.LLST4
 3170 1772 33       		.uleb128 0x33
 3171 1773 79040000 		.4byte	.LASF328
 3172 1777 01       		.byte	0x1
 3173 1778 7C       		.byte	0x7c
 3174 1779 37000000 		.4byte	0x37
 3175 177d 01       		.uleb128 0x1
 3176 177e 51       		.byte	0x51
 3177 177f 00       		.byte	0
 3178 1780 29       		.uleb128 0x29
 3179 1781 24080000 		.4byte	.LASF333
 3180 1785 01       		.byte	0x1
 3181 1786 6A       		.byte	0x6a
 3182 1787 37000000 		.4byte	0x37
 3183 178b 20000000 		.4byte	.LFB297
ARM GAS  C:\Users\RAKIBU~1\AppData\Local\Temp\cc5tbduv.s 			page 57


 3184 178f 04000000 		.4byte	.LFE297-.LFB297
 3185 1793 01       		.uleb128 0x1
 3186 1794 9C       		.byte	0x9c
 3187 1795 CE170000 		.4byte	0x17ce
 3188 1799 2A       		.uleb128 0x2a
 3189 179a 7200     		.ascii	"r\000"
 3190 179c 01       		.byte	0x1
 3191 179d 6A       		.byte	0x6a
 3192 179e DF040000 		.4byte	0x4df
 3193 17a2 1D010000 		.4byte	.LLST3
 3194 17a6 33       		.uleb128 0x33
 3195 17a7 79040000 		.4byte	.LASF328
 3196 17ab 01       		.byte	0x1
 3197 17ac 6A       		.byte	0x6a
 3198 17ad 37000000 		.4byte	0x37
 3199 17b1 01       		.uleb128 0x1
 3200 17b2 51       		.byte	0x51
 3201 17b3 2B       		.uleb128 0x2b
 3202 17b4 70747200 		.ascii	"ptr\000"
 3203 17b8 01       		.byte	0x1
 3204 17b9 6A       		.byte	0x6a
 3205 17ba C2010000 		.4byte	0x1c2
 3206 17be 01       		.uleb128 0x1
 3207 17bf 52       		.byte	0x52
 3208 17c0 2B       		.uleb128 0x2b
 3209 17c1 6C656E00 		.ascii	"len\000"
 3210 17c5 01       		.byte	0x1
 3211 17c6 6A       		.byte	0x6a
 3212 17c7 37000000 		.4byte	0x37
 3213 17cb 01       		.uleb128 0x1
 3214 17cc 53       		.byte	0x53
 3215 17cd 00       		.byte	0
 3216 17ce 29       		.uleb128 0x29
 3217 17cf 8D0C0000 		.4byte	.LASF334
 3218 17d3 01       		.byte	0x1
 3219 17d4 5D       		.byte	0x5d
 3220 17d5 37000000 		.4byte	0x37
 3221 17d9 10000000 		.4byte	.LFB296
 3222 17dd 04000000 		.4byte	.LFE296-.LFB296
 3223 17e1 01       		.uleb128 0x1
 3224 17e2 9C       		.byte	0x9c
 3225 17e3 1C180000 		.4byte	0x181c
 3226 17e7 2A       		.uleb128 0x2a
 3227 17e8 7200     		.ascii	"r\000"
 3228 17ea 01       		.byte	0x1
 3229 17eb 5D       		.byte	0x5d
 3230 17ec DF040000 		.4byte	0x4df
 3231 17f0 3E010000 		.4byte	.LLST2
 3232 17f4 33       		.uleb128 0x33
 3233 17f5 79040000 		.4byte	.LASF328
 3234 17f9 01       		.byte	0x1
 3235 17fa 5D       		.byte	0x5d
 3236 17fb 37000000 		.4byte	0x37
 3237 17ff 01       		.uleb128 0x1
 3238 1800 51       		.byte	0x51
 3239 1801 2B       		.uleb128 0x2b
 3240 1802 70747200 		.ascii	"ptr\000"
ARM GAS  C:\Users\RAKIBU~1\AppData\Local\Temp\cc5tbduv.s 			page 58


 3241 1806 01       		.byte	0x1
 3242 1807 5D       		.byte	0x5d
 3243 1808 37000000 		.4byte	0x37
 3244 180c 01       		.uleb128 0x1
 3245 180d 52       		.byte	0x52
 3246 180e 2B       		.uleb128 0x2b
 3247 180f 64697200 		.ascii	"dir\000"
 3248 1813 01       		.byte	0x1
 3249 1814 5D       		.byte	0x5d
 3250 1815 37000000 		.4byte	0x37
 3251 1819 01       		.uleb128 0x1
 3252 181a 53       		.byte	0x53
 3253 181b 00       		.byte	0
 3254 181c 29       		.uleb128 0x29
 3255 181d 860D0000 		.4byte	.LASF335
 3256 1821 01       		.byte	0x1
 3257 1822 47       		.byte	0x47
 3258 1823 37000000 		.4byte	0x37
 3259 1827 00000000 		.4byte	.LFB295
 3260 182b 0A000000 		.4byte	.LFE295-.LFB295
 3261 182f 01       		.uleb128 0x1
 3262 1830 9C       		.byte	0x9c
 3263 1831 6C180000 		.4byte	0x186c
 3264 1835 2A       		.uleb128 0x2a
 3265 1836 7200     		.ascii	"r\000"
 3266 1838 01       		.byte	0x1
 3267 1839 47       		.byte	0x47
 3268 183a DF040000 		.4byte	0x4df
 3269 183e 5F010000 		.4byte	.LLST0
 3270 1842 33       		.uleb128 0x33
 3271 1843 79040000 		.4byte	.LASF328
 3272 1847 01       		.byte	0x1
 3273 1848 47       		.byte	0x47
 3274 1849 37000000 		.4byte	0x37
 3275 184d 01       		.uleb128 0x1
 3276 184e 51       		.byte	0x51
 3277 184f 2B       		.uleb128 0x2b
 3278 1850 70747200 		.ascii	"ptr\000"
 3279 1854 01       		.byte	0x1
 3280 1855 47       		.byte	0x47
 3281 1856 C2010000 		.4byte	0x1c2
 3282 185a 01       		.uleb128 0x1
 3283 185b 52       		.byte	0x52
 3284 185c 2A       		.uleb128 0x2a
 3285 185d 6C656E00 		.ascii	"len\000"
 3286 1861 01       		.byte	0x1
 3287 1862 47       		.byte	0x47
 3288 1863 37000000 		.4byte	0x37
 3289 1867 80010000 		.4byte	.LLST1
 3290 186b 00       		.byte	0
 3291 186c 34       		.uleb128 0x34
 3292 186d CD040000 		.4byte	.LASF341
 3293 1871 02       		.byte	0x2
 3294 1872 BD       		.byte	0xbd
 3295 1873 B5010000 		.4byte	0x1b5
 3296 1877 03       		.byte	0x3
 3297 1878 88180000 		.4byte	0x1888
ARM GAS  C:\Users\RAKIBU~1\AppData\Local\Temp\cc5tbduv.s 			page 59


 3298 187c 35       		.uleb128 0x35
 3299 187d D7090000 		.4byte	.LASF254
 3300 1881 02       		.byte	0x2
 3301 1882 BD       		.byte	0xbd
 3302 1883 25000000 		.4byte	0x25
 3303 1887 00       		.byte	0
 3304 1888 36       		.uleb128 0x36
 3305 1889 D5030000 		.4byte	.LASF342
 3306 188d 0D020000 		.4byte	.LASF343
 3307 1891 21       		.byte	0x21
 3308 1892 00       		.byte	0
 3309 1893 D5030000 		.4byte	.LASF342
 3310 1897 37       		.uleb128 0x37
 3311 1898 AD030000 		.4byte	.LASF336
 3312 189c AD030000 		.4byte	.LASF336
 3313 18a0 02       		.byte	0x2
 3314 18a1 6F       		.byte	0x6f
 3315 18a2 37       		.uleb128 0x37
 3316 18a3 7C0C0000 		.4byte	.LASF337
 3317 18a7 7C0C0000 		.4byte	.LASF337
 3318 18ab 20       		.byte	0x20
 3319 18ac 63       		.byte	0x63
 3320 18ad 00       		.byte	0
 3321              		.section	.debug_abbrev,"",%progbits
 3322              	.Ldebug_abbrev0:
 3323 0000 01       		.uleb128 0x1
 3324 0001 11       		.uleb128 0x11
 3325 0002 01       		.byte	0x1
 3326 0003 25       		.uleb128 0x25
 3327 0004 0E       		.uleb128 0xe
 3328 0005 13       		.uleb128 0x13
 3329 0006 0B       		.uleb128 0xb
 3330 0007 03       		.uleb128 0x3
 3331 0008 0E       		.uleb128 0xe
 3332 0009 1B       		.uleb128 0x1b
 3333 000a 0E       		.uleb128 0xe
 3334 000b 11       		.uleb128 0x11
 3335 000c 01       		.uleb128 0x1
 3336 000d 12       		.uleb128 0x12
 3337 000e 06       		.uleb128 0x6
 3338 000f 10       		.uleb128 0x10
 3339 0010 17       		.uleb128 0x17
 3340 0011 00       		.byte	0
 3341 0012 00       		.byte	0
 3342 0013 02       		.uleb128 0x2
 3343 0014 16       		.uleb128 0x16
 3344 0015 00       		.byte	0
 3345 0016 03       		.uleb128 0x3
 3346 0017 0E       		.uleb128 0xe
 3347 0018 3A       		.uleb128 0x3a
 3348 0019 0B       		.uleb128 0xb
 3349 001a 3B       		.uleb128 0x3b
 3350 001b 0B       		.uleb128 0xb
 3351 001c 49       		.uleb128 0x49
 3352 001d 13       		.uleb128 0x13
 3353 001e 00       		.byte	0
 3354 001f 00       		.byte	0
ARM GAS  C:\Users\RAKIBU~1\AppData\Local\Temp\cc5tbduv.s 			page 60


 3355 0020 03       		.uleb128 0x3
 3356 0021 24       		.uleb128 0x24
 3357 0022 00       		.byte	0
 3358 0023 0B       		.uleb128 0xb
 3359 0024 0B       		.uleb128 0xb
 3360 0025 3E       		.uleb128 0x3e
 3361 0026 0B       		.uleb128 0xb
 3362 0027 03       		.uleb128 0x3
 3363 0028 0E       		.uleb128 0xe
 3364 0029 00       		.byte	0
 3365 002a 00       		.byte	0
 3366 002b 04       		.uleb128 0x4
 3367 002c 24       		.uleb128 0x24
 3368 002d 00       		.byte	0
 3369 002e 0B       		.uleb128 0xb
 3370 002f 0B       		.uleb128 0xb
 3371 0030 3E       		.uleb128 0x3e
 3372 0031 0B       		.uleb128 0xb
 3373 0032 03       		.uleb128 0x3
 3374 0033 08       		.uleb128 0x8
 3375 0034 00       		.byte	0
 3376 0035 00       		.byte	0
 3377 0036 05       		.uleb128 0x5
 3378 0037 0F       		.uleb128 0xf
 3379 0038 00       		.byte	0
 3380 0039 0B       		.uleb128 0xb
 3381 003a 0B       		.uleb128 0xb
 3382 003b 49       		.uleb128 0x49
 3383 003c 13       		.uleb128 0x13
 3384 003d 00       		.byte	0
 3385 003e 00       		.byte	0
 3386 003f 06       		.uleb128 0x6
 3387 0040 13       		.uleb128 0x13
 3388 0041 00       		.byte	0
 3389 0042 03       		.uleb128 0x3
 3390 0043 0E       		.uleb128 0xe
 3391 0044 3C       		.uleb128 0x3c
 3392 0045 19       		.uleb128 0x19
 3393 0046 00       		.byte	0
 3394 0047 00       		.byte	0
 3395 0048 07       		.uleb128 0x7
 3396 0049 16       		.uleb128 0x16
 3397 004a 00       		.byte	0
 3398 004b 03       		.uleb128 0x3
 3399 004c 0E       		.uleb128 0xe
 3400 004d 3A       		.uleb128 0x3a
 3401 004e 0B       		.uleb128 0xb
 3402 004f 3B       		.uleb128 0x3b
 3403 0050 05       		.uleb128 0x5
 3404 0051 49       		.uleb128 0x49
 3405 0052 13       		.uleb128 0x13
 3406 0053 00       		.byte	0
 3407 0054 00       		.byte	0
 3408 0055 08       		.uleb128 0x8
 3409 0056 17       		.uleb128 0x17
 3410 0057 01       		.byte	0x1
 3411 0058 0B       		.uleb128 0xb
ARM GAS  C:\Users\RAKIBU~1\AppData\Local\Temp\cc5tbduv.s 			page 61


 3412 0059 0B       		.uleb128 0xb
 3413 005a 3A       		.uleb128 0x3a
 3414 005b 0B       		.uleb128 0xb
 3415 005c 3B       		.uleb128 0x3b
 3416 005d 0B       		.uleb128 0xb
 3417 005e 01       		.uleb128 0x1
 3418 005f 13       		.uleb128 0x13
 3419 0060 00       		.byte	0
 3420 0061 00       		.byte	0
 3421 0062 09       		.uleb128 0x9
 3422 0063 0D       		.uleb128 0xd
 3423 0064 00       		.byte	0
 3424 0065 03       		.uleb128 0x3
 3425 0066 0E       		.uleb128 0xe
 3426 0067 3A       		.uleb128 0x3a
 3427 0068 0B       		.uleb128 0xb
 3428 0069 3B       		.uleb128 0x3b
 3429 006a 0B       		.uleb128 0xb
 3430 006b 49       		.uleb128 0x49
 3431 006c 13       		.uleb128 0x13
 3432 006d 00       		.byte	0
 3433 006e 00       		.byte	0
 3434 006f 0A       		.uleb128 0xa
 3435 0070 01       		.uleb128 0x1
 3436 0071 01       		.byte	0x1
 3437 0072 49       		.uleb128 0x49
 3438 0073 13       		.uleb128 0x13
 3439 0074 01       		.uleb128 0x1
 3440 0075 13       		.uleb128 0x13
 3441 0076 00       		.byte	0
 3442 0077 00       		.byte	0
 3443 0078 0B       		.uleb128 0xb
 3444 0079 21       		.uleb128 0x21
 3445 007a 00       		.byte	0
 3446 007b 49       		.uleb128 0x49
 3447 007c 13       		.uleb128 0x13
 3448 007d 2F       		.uleb128 0x2f
 3449 007e 0B       		.uleb128 0xb
 3450 007f 00       		.byte	0
 3451 0080 00       		.byte	0
 3452 0081 0C       		.uleb128 0xc
 3453 0082 13       		.uleb128 0x13
 3454 0083 01       		.byte	0x1
 3455 0084 0B       		.uleb128 0xb
 3456 0085 0B       		.uleb128 0xb
 3457 0086 3A       		.uleb128 0x3a
 3458 0087 0B       		.uleb128 0xb
 3459 0088 3B       		.uleb128 0x3b
 3460 0089 0B       		.uleb128 0xb
 3461 008a 01       		.uleb128 0x1
 3462 008b 13       		.uleb128 0x13
 3463 008c 00       		.byte	0
 3464 008d 00       		.byte	0
 3465 008e 0D       		.uleb128 0xd
 3466 008f 0D       		.uleb128 0xd
 3467 0090 00       		.byte	0
 3468 0091 03       		.uleb128 0x3
ARM GAS  C:\Users\RAKIBU~1\AppData\Local\Temp\cc5tbduv.s 			page 62


 3469 0092 0E       		.uleb128 0xe
 3470 0093 3A       		.uleb128 0x3a
 3471 0094 0B       		.uleb128 0xb
 3472 0095 3B       		.uleb128 0x3b
 3473 0096 0B       		.uleb128 0xb
 3474 0097 49       		.uleb128 0x49
 3475 0098 13       		.uleb128 0x13
 3476 0099 38       		.uleb128 0x38
 3477 009a 0B       		.uleb128 0xb
 3478 009b 00       		.byte	0
 3479 009c 00       		.byte	0
 3480 009d 0E       		.uleb128 0xe
 3481 009e 0F       		.uleb128 0xf
 3482 009f 00       		.byte	0
 3483 00a0 0B       		.uleb128 0xb
 3484 00a1 0B       		.uleb128 0xb
 3485 00a2 00       		.byte	0
 3486 00a3 00       		.byte	0
 3487 00a4 0F       		.uleb128 0xf
 3488 00a5 26       		.uleb128 0x26
 3489 00a6 00       		.byte	0
 3490 00a7 49       		.uleb128 0x49
 3491 00a8 13       		.uleb128 0x13
 3492 00a9 00       		.byte	0
 3493 00aa 00       		.byte	0
 3494 00ab 10       		.uleb128 0x10
 3495 00ac 13       		.uleb128 0x13
 3496 00ad 01       		.byte	0x1
 3497 00ae 03       		.uleb128 0x3
 3498 00af 0E       		.uleb128 0xe
 3499 00b0 0B       		.uleb128 0xb
 3500 00b1 0B       		.uleb128 0xb
 3501 00b2 3A       		.uleb128 0x3a
 3502 00b3 0B       		.uleb128 0xb
 3503 00b4 3B       		.uleb128 0x3b
 3504 00b5 0B       		.uleb128 0xb
 3505 00b6 01       		.uleb128 0x1
 3506 00b7 13       		.uleb128 0x13
 3507 00b8 00       		.byte	0
 3508 00b9 00       		.byte	0
 3509 00ba 11       		.uleb128 0x11
 3510 00bb 0D       		.uleb128 0xd
 3511 00bc 00       		.byte	0
 3512 00bd 03       		.uleb128 0x3
 3513 00be 08       		.uleb128 0x8
 3514 00bf 3A       		.uleb128 0x3a
 3515 00c0 0B       		.uleb128 0xb
 3516 00c1 3B       		.uleb128 0x3b
 3517 00c2 0B       		.uleb128 0xb
 3518 00c3 49       		.uleb128 0x49
 3519 00c4 13       		.uleb128 0x13
 3520 00c5 38       		.uleb128 0x38
 3521 00c6 0B       		.uleb128 0xb
 3522 00c7 00       		.byte	0
 3523 00c8 00       		.byte	0
 3524 00c9 12       		.uleb128 0x12
 3525 00ca 13       		.uleb128 0x13
ARM GAS  C:\Users\RAKIBU~1\AppData\Local\Temp\cc5tbduv.s 			page 63


 3526 00cb 01       		.byte	0x1
 3527 00cc 03       		.uleb128 0x3
 3528 00cd 0E       		.uleb128 0xe
 3529 00ce 0B       		.uleb128 0xb
 3530 00cf 05       		.uleb128 0x5
 3531 00d0 3A       		.uleb128 0x3a
 3532 00d1 0B       		.uleb128 0xb
 3533 00d2 3B       		.uleb128 0x3b
 3534 00d3 0B       		.uleb128 0xb
 3535 00d4 01       		.uleb128 0x1
 3536 00d5 13       		.uleb128 0x13
 3537 00d6 00       		.byte	0
 3538 00d7 00       		.byte	0
 3539 00d8 13       		.uleb128 0x13
 3540 00d9 0D       		.uleb128 0xd
 3541 00da 00       		.byte	0
 3542 00db 03       		.uleb128 0x3
 3543 00dc 0E       		.uleb128 0xe
 3544 00dd 3A       		.uleb128 0x3a
 3545 00de 0B       		.uleb128 0xb
 3546 00df 3B       		.uleb128 0x3b
 3547 00e0 0B       		.uleb128 0xb
 3548 00e1 49       		.uleb128 0x49
 3549 00e2 13       		.uleb128 0x13
 3550 00e3 38       		.uleb128 0x38
 3551 00e4 05       		.uleb128 0x5
 3552 00e5 00       		.byte	0
 3553 00e6 00       		.byte	0
 3554 00e7 14       		.uleb128 0x14
 3555 00e8 15       		.uleb128 0x15
 3556 00e9 00       		.byte	0
 3557 00ea 27       		.uleb128 0x27
 3558 00eb 19       		.uleb128 0x19
 3559 00ec 00       		.byte	0
 3560 00ed 00       		.byte	0
 3561 00ee 15       		.uleb128 0x15
 3562 00ef 15       		.uleb128 0x15
 3563 00f0 01       		.byte	0x1
 3564 00f1 27       		.uleb128 0x27
 3565 00f2 19       		.uleb128 0x19
 3566 00f3 49       		.uleb128 0x49
 3567 00f4 13       		.uleb128 0x13
 3568 00f5 01       		.uleb128 0x1
 3569 00f6 13       		.uleb128 0x13
 3570 00f7 00       		.byte	0
 3571 00f8 00       		.byte	0
 3572 00f9 16       		.uleb128 0x16
 3573 00fa 05       		.uleb128 0x5
 3574 00fb 00       		.byte	0
 3575 00fc 49       		.uleb128 0x49
 3576 00fd 13       		.uleb128 0x13
 3577 00fe 00       		.byte	0
 3578 00ff 00       		.byte	0
 3579 0100 17       		.uleb128 0x17
 3580 0101 13       		.uleb128 0x13
 3581 0102 01       		.byte	0x1
 3582 0103 03       		.uleb128 0x3
ARM GAS  C:\Users\RAKIBU~1\AppData\Local\Temp\cc5tbduv.s 			page 64


 3583 0104 0E       		.uleb128 0xe
 3584 0105 0B       		.uleb128 0xb
 3585 0106 05       		.uleb128 0x5
 3586 0107 3A       		.uleb128 0x3a
 3587 0108 0B       		.uleb128 0xb
 3588 0109 3B       		.uleb128 0x3b
 3589 010a 05       		.uleb128 0x5
 3590 010b 01       		.uleb128 0x1
 3591 010c 13       		.uleb128 0x13
 3592 010d 00       		.byte	0
 3593 010e 00       		.byte	0
 3594 010f 18       		.uleb128 0x18
 3595 0110 0D       		.uleb128 0xd
 3596 0111 00       		.byte	0
 3597 0112 03       		.uleb128 0x3
 3598 0113 0E       		.uleb128 0xe
 3599 0114 3A       		.uleb128 0x3a
 3600 0115 0B       		.uleb128 0xb
 3601 0116 3B       		.uleb128 0x3b
 3602 0117 05       		.uleb128 0x5
 3603 0118 49       		.uleb128 0x49
 3604 0119 13       		.uleb128 0x13
 3605 011a 38       		.uleb128 0x38
 3606 011b 0B       		.uleb128 0xb
 3607 011c 00       		.byte	0
 3608 011d 00       		.byte	0
 3609 011e 19       		.uleb128 0x19
 3610 011f 0D       		.uleb128 0xd
 3611 0120 00       		.byte	0
 3612 0121 03       		.uleb128 0x3
 3613 0122 0E       		.uleb128 0xe
 3614 0123 3A       		.uleb128 0x3a
 3615 0124 0B       		.uleb128 0xb
 3616 0125 3B       		.uleb128 0x3b
 3617 0126 05       		.uleb128 0x5
 3618 0127 49       		.uleb128 0x49
 3619 0128 13       		.uleb128 0x13
 3620 0129 38       		.uleb128 0x38
 3621 012a 05       		.uleb128 0x5
 3622 012b 00       		.byte	0
 3623 012c 00       		.byte	0
 3624 012d 1A       		.uleb128 0x1a
 3625 012e 35       		.uleb128 0x35
 3626 012f 00       		.byte	0
 3627 0130 49       		.uleb128 0x49
 3628 0131 13       		.uleb128 0x13
 3629 0132 00       		.byte	0
 3630 0133 00       		.byte	0
 3631 0134 1B       		.uleb128 0x1b
 3632 0135 13       		.uleb128 0x13
 3633 0136 01       		.byte	0x1
 3634 0137 03       		.uleb128 0x3
 3635 0138 0E       		.uleb128 0xe
 3636 0139 0B       		.uleb128 0xb
 3637 013a 0B       		.uleb128 0xb
 3638 013b 3A       		.uleb128 0x3a
 3639 013c 0B       		.uleb128 0xb
ARM GAS  C:\Users\RAKIBU~1\AppData\Local\Temp\cc5tbduv.s 			page 65


 3640 013d 3B       		.uleb128 0x3b
 3641 013e 05       		.uleb128 0x5
 3642 013f 01       		.uleb128 0x1
 3643 0140 13       		.uleb128 0x13
 3644 0141 00       		.byte	0
 3645 0142 00       		.byte	0
 3646 0143 1C       		.uleb128 0x1c
 3647 0144 13       		.uleb128 0x13
 3648 0145 01       		.byte	0x1
 3649 0146 0B       		.uleb128 0xb
 3650 0147 0B       		.uleb128 0xb
 3651 0148 3A       		.uleb128 0x3a
 3652 0149 0B       		.uleb128 0xb
 3653 014a 3B       		.uleb128 0x3b
 3654 014b 05       		.uleb128 0x5
 3655 014c 01       		.uleb128 0x1
 3656 014d 13       		.uleb128 0x13
 3657 014e 00       		.byte	0
 3658 014f 00       		.byte	0
 3659 0150 1D       		.uleb128 0x1d
 3660 0151 17       		.uleb128 0x17
 3661 0152 01       		.byte	0x1
 3662 0153 0B       		.uleb128 0xb
 3663 0154 0B       		.uleb128 0xb
 3664 0155 3A       		.uleb128 0x3a
 3665 0156 0B       		.uleb128 0xb
 3666 0157 3B       		.uleb128 0x3b
 3667 0158 05       		.uleb128 0x5
 3668 0159 01       		.uleb128 0x1
 3669 015a 13       		.uleb128 0x13
 3670 015b 00       		.byte	0
 3671 015c 00       		.byte	0
 3672 015d 1E       		.uleb128 0x1e
 3673 015e 0D       		.uleb128 0xd
 3674 015f 00       		.byte	0
 3675 0160 03       		.uleb128 0x3
 3676 0161 0E       		.uleb128 0xe
 3677 0162 3A       		.uleb128 0x3a
 3678 0163 0B       		.uleb128 0xb
 3679 0164 3B       		.uleb128 0x3b
 3680 0165 05       		.uleb128 0x5
 3681 0166 49       		.uleb128 0x49
 3682 0167 13       		.uleb128 0x13
 3683 0168 00       		.byte	0
 3684 0169 00       		.byte	0
 3685 016a 1F       		.uleb128 0x1f
 3686 016b 15       		.uleb128 0x15
 3687 016c 01       		.byte	0x1
 3688 016d 27       		.uleb128 0x27
 3689 016e 19       		.uleb128 0x19
 3690 016f 01       		.uleb128 0x1
 3691 0170 13       		.uleb128 0x13
 3692 0171 00       		.byte	0
 3693 0172 00       		.byte	0
 3694 0173 20       		.uleb128 0x20
 3695 0174 34       		.uleb128 0x34
 3696 0175 00       		.byte	0
ARM GAS  C:\Users\RAKIBU~1\AppData\Local\Temp\cc5tbduv.s 			page 66


 3697 0176 03       		.uleb128 0x3
 3698 0177 0E       		.uleb128 0xe
 3699 0178 3A       		.uleb128 0x3a
 3700 0179 0B       		.uleb128 0xb
 3701 017a 3B       		.uleb128 0x3b
 3702 017b 05       		.uleb128 0x5
 3703 017c 49       		.uleb128 0x49
 3704 017d 13       		.uleb128 0x13
 3705 017e 3F       		.uleb128 0x3f
 3706 017f 19       		.uleb128 0x19
 3707 0180 3C       		.uleb128 0x3c
 3708 0181 19       		.uleb128 0x19
 3709 0182 00       		.byte	0
 3710 0183 00       		.byte	0
 3711 0184 21       		.uleb128 0x21
 3712 0185 34       		.uleb128 0x34
 3713 0186 00       		.byte	0
 3714 0187 03       		.uleb128 0x3
 3715 0188 0E       		.uleb128 0xe
 3716 0189 3A       		.uleb128 0x3a
 3717 018a 0B       		.uleb128 0xb
 3718 018b 3B       		.uleb128 0x3b
 3719 018c 0B       		.uleb128 0xb
 3720 018d 49       		.uleb128 0x49
 3721 018e 13       		.uleb128 0x13
 3722 018f 3F       		.uleb128 0x3f
 3723 0190 19       		.uleb128 0x19
 3724 0191 3C       		.uleb128 0x3c
 3725 0192 19       		.uleb128 0x19
 3726 0193 00       		.byte	0
 3727 0194 00       		.byte	0
 3728 0195 22       		.uleb128 0x22
 3729 0196 21       		.uleb128 0x21
 3730 0197 00       		.byte	0
 3731 0198 00       		.byte	0
 3732 0199 00       		.byte	0
 3733 019a 23       		.uleb128 0x23
 3734 019b 0D       		.uleb128 0xd
 3735 019c 00       		.byte	0
 3736 019d 03       		.uleb128 0x3
 3737 019e 08       		.uleb128 0x8
 3738 019f 3A       		.uleb128 0x3a
 3739 01a0 0B       		.uleb128 0xb
 3740 01a1 3B       		.uleb128 0x3b
 3741 01a2 05       		.uleb128 0x5
 3742 01a3 49       		.uleb128 0x49
 3743 01a4 13       		.uleb128 0x13
 3744 01a5 38       		.uleb128 0x38
 3745 01a6 0B       		.uleb128 0xb
 3746 01a7 00       		.byte	0
 3747 01a8 00       		.byte	0
 3748 01a9 24       		.uleb128 0x24
 3749 01aa 0D       		.uleb128 0xd
 3750 01ab 00       		.byte	0
 3751 01ac 03       		.uleb128 0x3
 3752 01ad 08       		.uleb128 0x8
 3753 01ae 3A       		.uleb128 0x3a
ARM GAS  C:\Users\RAKIBU~1\AppData\Local\Temp\cc5tbduv.s 			page 67


 3754 01af 0B       		.uleb128 0xb
 3755 01b0 3B       		.uleb128 0x3b
 3756 01b1 05       		.uleb128 0x5
 3757 01b2 49       		.uleb128 0x49
 3758 01b3 13       		.uleb128 0x13
 3759 01b4 38       		.uleb128 0x38
 3760 01b5 05       		.uleb128 0x5
 3761 01b6 00       		.byte	0
 3762 01b7 00       		.byte	0
 3763 01b8 25       		.uleb128 0x25
 3764 01b9 0D       		.uleb128 0xd
 3765 01ba 00       		.byte	0
 3766 01bb 03       		.uleb128 0x3
 3767 01bc 08       		.uleb128 0x8
 3768 01bd 3A       		.uleb128 0x3a
 3769 01be 0B       		.uleb128 0xb
 3770 01bf 3B       		.uleb128 0x3b
 3771 01c0 0B       		.uleb128 0xb
 3772 01c1 49       		.uleb128 0x49
 3773 01c2 13       		.uleb128 0x13
 3774 01c3 00       		.byte	0
 3775 01c4 00       		.byte	0
 3776 01c5 26       		.uleb128 0x26
 3777 01c6 0D       		.uleb128 0xd
 3778 01c7 00       		.byte	0
 3779 01c8 03       		.uleb128 0x3
 3780 01c9 0E       		.uleb128 0xe
 3781 01ca 3A       		.uleb128 0x3a
 3782 01cb 0B       		.uleb128 0xb
 3783 01cc 3B       		.uleb128 0x3b
 3784 01cd 0B       		.uleb128 0xb
 3785 01ce 49       		.uleb128 0x49
 3786 01cf 13       		.uleb128 0x13
 3787 01d0 0B       		.uleb128 0xb
 3788 01d1 0B       		.uleb128 0xb
 3789 01d2 0D       		.uleb128 0xd
 3790 01d3 0B       		.uleb128 0xb
 3791 01d4 0C       		.uleb128 0xc
 3792 01d5 0B       		.uleb128 0xb
 3793 01d6 38       		.uleb128 0x38
 3794 01d7 0B       		.uleb128 0xb
 3795 01d8 00       		.byte	0
 3796 01d9 00       		.byte	0
 3797 01da 27       		.uleb128 0x27
 3798 01db 13       		.uleb128 0x13
 3799 01dc 01       		.byte	0x1
 3800 01dd 0B       		.uleb128 0xb
 3801 01de 05       		.uleb128 0x5
 3802 01df 3A       		.uleb128 0x3a
 3803 01e0 0B       		.uleb128 0xb
 3804 01e1 3B       		.uleb128 0x3b
 3805 01e2 0B       		.uleb128 0xb
 3806 01e3 01       		.uleb128 0x1
 3807 01e4 13       		.uleb128 0x13
 3808 01e5 00       		.byte	0
 3809 01e6 00       		.byte	0
 3810 01e7 28       		.uleb128 0x28
ARM GAS  C:\Users\RAKIBU~1\AppData\Local\Temp\cc5tbduv.s 			page 68


 3811 01e8 34       		.uleb128 0x34
 3812 01e9 00       		.byte	0
 3813 01ea 03       		.uleb128 0x3
 3814 01eb 08       		.uleb128 0x8
 3815 01ec 3A       		.uleb128 0x3a
 3816 01ed 0B       		.uleb128 0xb
 3817 01ee 3B       		.uleb128 0x3b
 3818 01ef 05       		.uleb128 0x5
 3819 01f0 49       		.uleb128 0x49
 3820 01f1 13       		.uleb128 0x13
 3821 01f2 3F       		.uleb128 0x3f
 3822 01f3 19       		.uleb128 0x19
 3823 01f4 3C       		.uleb128 0x3c
 3824 01f5 19       		.uleb128 0x19
 3825 01f6 00       		.byte	0
 3826 01f7 00       		.byte	0
 3827 01f8 29       		.uleb128 0x29
 3828 01f9 2E       		.uleb128 0x2e
 3829 01fa 01       		.byte	0x1
 3830 01fb 3F       		.uleb128 0x3f
 3831 01fc 19       		.uleb128 0x19
 3832 01fd 03       		.uleb128 0x3
 3833 01fe 0E       		.uleb128 0xe
 3834 01ff 3A       		.uleb128 0x3a
 3835 0200 0B       		.uleb128 0xb
 3836 0201 3B       		.uleb128 0x3b
 3837 0202 0B       		.uleb128 0xb
 3838 0203 27       		.uleb128 0x27
 3839 0204 19       		.uleb128 0x19
 3840 0205 49       		.uleb128 0x49
 3841 0206 13       		.uleb128 0x13
 3842 0207 11       		.uleb128 0x11
 3843 0208 01       		.uleb128 0x1
 3844 0209 12       		.uleb128 0x12
 3845 020a 06       		.uleb128 0x6
 3846 020b 40       		.uleb128 0x40
 3847 020c 18       		.uleb128 0x18
 3848 020d 9742     		.uleb128 0x2117
 3849 020f 19       		.uleb128 0x19
 3850 0210 01       		.uleb128 0x1
 3851 0211 13       		.uleb128 0x13
 3852 0212 00       		.byte	0
 3853 0213 00       		.byte	0
 3854 0214 2A       		.uleb128 0x2a
 3855 0215 05       		.uleb128 0x5
 3856 0216 00       		.byte	0
 3857 0217 03       		.uleb128 0x3
 3858 0218 08       		.uleb128 0x8
 3859 0219 3A       		.uleb128 0x3a
 3860 021a 0B       		.uleb128 0xb
 3861 021b 3B       		.uleb128 0x3b
 3862 021c 0B       		.uleb128 0xb
 3863 021d 49       		.uleb128 0x49
 3864 021e 13       		.uleb128 0x13
 3865 021f 02       		.uleb128 0x2
 3866 0220 17       		.uleb128 0x17
 3867 0221 00       		.byte	0
ARM GAS  C:\Users\RAKIBU~1\AppData\Local\Temp\cc5tbduv.s 			page 69


 3868 0222 00       		.byte	0
 3869 0223 2B       		.uleb128 0x2b
 3870 0224 05       		.uleb128 0x5
 3871 0225 00       		.byte	0
 3872 0226 03       		.uleb128 0x3
 3873 0227 08       		.uleb128 0x8
 3874 0228 3A       		.uleb128 0x3a
 3875 0229 0B       		.uleb128 0xb
 3876 022a 3B       		.uleb128 0x3b
 3877 022b 0B       		.uleb128 0xb
 3878 022c 49       		.uleb128 0x49
 3879 022d 13       		.uleb128 0x13
 3880 022e 02       		.uleb128 0x2
 3881 022f 18       		.uleb128 0x18
 3882 0230 00       		.byte	0
 3883 0231 00       		.byte	0
 3884 0232 2C       		.uleb128 0x2c
 3885 0233 05       		.uleb128 0x5
 3886 0234 00       		.byte	0
 3887 0235 03       		.uleb128 0x3
 3888 0236 0E       		.uleb128 0xe
 3889 0237 3A       		.uleb128 0x3a
 3890 0238 0B       		.uleb128 0xb
 3891 0239 3B       		.uleb128 0x3b
 3892 023a 0B       		.uleb128 0xb
 3893 023b 49       		.uleb128 0x49
 3894 023c 13       		.uleb128 0x13
 3895 023d 02       		.uleb128 0x2
 3896 023e 17       		.uleb128 0x17
 3897 023f 00       		.byte	0
 3898 0240 00       		.byte	0
 3899 0241 2D       		.uleb128 0x2d
 3900 0242 898201   		.uleb128 0x4109
 3901 0245 01       		.byte	0x1
 3902 0246 11       		.uleb128 0x11
 3903 0247 01       		.uleb128 0x1
 3904 0248 31       		.uleb128 0x31
 3905 0249 13       		.uleb128 0x13
 3906 024a 00       		.byte	0
 3907 024b 00       		.byte	0
 3908 024c 2E       		.uleb128 0x2e
 3909 024d 8A8201   		.uleb128 0x410a
 3910 0250 00       		.byte	0
 3911 0251 02       		.uleb128 0x2
 3912 0252 18       		.uleb128 0x18
 3913 0253 9142     		.uleb128 0x2111
 3914 0255 18       		.uleb128 0x18
 3915 0256 00       		.byte	0
 3916 0257 00       		.byte	0
 3917 0258 2F       		.uleb128 0x2f
 3918 0259 34       		.uleb128 0x34
 3919 025a 00       		.byte	0
 3920 025b 03       		.uleb128 0x3
 3921 025c 08       		.uleb128 0x8
 3922 025d 3A       		.uleb128 0x3a
 3923 025e 0B       		.uleb128 0xb
 3924 025f 3B       		.uleb128 0x3b
ARM GAS  C:\Users\RAKIBU~1\AppData\Local\Temp\cc5tbduv.s 			page 70


 3925 0260 0B       		.uleb128 0xb
 3926 0261 49       		.uleb128 0x49
 3927 0262 13       		.uleb128 0x13
 3928 0263 00       		.byte	0
 3929 0264 00       		.byte	0
 3930 0265 30       		.uleb128 0x30
 3931 0266 34       		.uleb128 0x34
 3932 0267 00       		.byte	0
 3933 0268 03       		.uleb128 0x3
 3934 0269 0E       		.uleb128 0xe
 3935 026a 49       		.uleb128 0x49
 3936 026b 13       		.uleb128 0x13
 3937 026c 34       		.uleb128 0x34
 3938 026d 19       		.uleb128 0x19
 3939 026e 02       		.uleb128 0x2
 3940 026f 18       		.uleb128 0x18
 3941 0270 00       		.byte	0
 3942 0271 00       		.byte	0
 3943 0272 31       		.uleb128 0x31
 3944 0273 1D       		.uleb128 0x1d
 3945 0274 01       		.byte	0x1
 3946 0275 31       		.uleb128 0x31
 3947 0276 13       		.uleb128 0x13
 3948 0277 11       		.uleb128 0x11
 3949 0278 01       		.uleb128 0x1
 3950 0279 12       		.uleb128 0x12
 3951 027a 06       		.uleb128 0x6
 3952 027b 58       		.uleb128 0x58
 3953 027c 0B       		.uleb128 0xb
 3954 027d 59       		.uleb128 0x59
 3955 027e 0B       		.uleb128 0xb
 3956 027f 01       		.uleb128 0x1
 3957 0280 13       		.uleb128 0x13
 3958 0281 00       		.byte	0
 3959 0282 00       		.byte	0
 3960 0283 32       		.uleb128 0x32
 3961 0284 05       		.uleb128 0x5
 3962 0285 00       		.byte	0
 3963 0286 31       		.uleb128 0x31
 3964 0287 13       		.uleb128 0x13
 3965 0288 02       		.uleb128 0x2
 3966 0289 17       		.uleb128 0x17
 3967 028a 00       		.byte	0
 3968 028b 00       		.byte	0
 3969 028c 33       		.uleb128 0x33
 3970 028d 05       		.uleb128 0x5
 3971 028e 00       		.byte	0
 3972 028f 03       		.uleb128 0x3
 3973 0290 0E       		.uleb128 0xe
 3974 0291 3A       		.uleb128 0x3a
 3975 0292 0B       		.uleb128 0xb
 3976 0293 3B       		.uleb128 0x3b
 3977 0294 0B       		.uleb128 0xb
 3978 0295 49       		.uleb128 0x49
 3979 0296 13       		.uleb128 0x13
 3980 0297 02       		.uleb128 0x2
 3981 0298 18       		.uleb128 0x18
ARM GAS  C:\Users\RAKIBU~1\AppData\Local\Temp\cc5tbduv.s 			page 71


 3982 0299 00       		.byte	0
 3983 029a 00       		.byte	0
 3984 029b 34       		.uleb128 0x34
 3985 029c 2E       		.uleb128 0x2e
 3986 029d 01       		.byte	0x1
 3987 029e 03       		.uleb128 0x3
 3988 029f 0E       		.uleb128 0xe
 3989 02a0 3A       		.uleb128 0x3a
 3990 02a1 0B       		.uleb128 0xb
 3991 02a2 3B       		.uleb128 0x3b
 3992 02a3 0B       		.uleb128 0xb
 3993 02a4 27       		.uleb128 0x27
 3994 02a5 19       		.uleb128 0x19
 3995 02a6 49       		.uleb128 0x49
 3996 02a7 13       		.uleb128 0x13
 3997 02a8 20       		.uleb128 0x20
 3998 02a9 0B       		.uleb128 0xb
 3999 02aa 01       		.uleb128 0x1
 4000 02ab 13       		.uleb128 0x13
 4001 02ac 00       		.byte	0
 4002 02ad 00       		.byte	0
 4003 02ae 35       		.uleb128 0x35
 4004 02af 05       		.uleb128 0x5
 4005 02b0 00       		.byte	0
 4006 02b1 03       		.uleb128 0x3
 4007 02b2 0E       		.uleb128 0xe
 4008 02b3 3A       		.uleb128 0x3a
 4009 02b4 0B       		.uleb128 0xb
 4010 02b5 3B       		.uleb128 0x3b
 4011 02b6 0B       		.uleb128 0xb
 4012 02b7 49       		.uleb128 0x49
 4013 02b8 13       		.uleb128 0x13
 4014 02b9 00       		.byte	0
 4015 02ba 00       		.byte	0
 4016 02bb 36       		.uleb128 0x36
 4017 02bc 2E       		.uleb128 0x2e
 4018 02bd 00       		.byte	0
 4019 02be 3F       		.uleb128 0x3f
 4020 02bf 19       		.uleb128 0x19
 4021 02c0 3C       		.uleb128 0x3c
 4022 02c1 19       		.uleb128 0x19
 4023 02c2 6E       		.uleb128 0x6e
 4024 02c3 0E       		.uleb128 0xe
 4025 02c4 03       		.uleb128 0x3
 4026 02c5 0E       		.uleb128 0xe
 4027 02c6 3A       		.uleb128 0x3a
 4028 02c7 0B       		.uleb128 0xb
 4029 02c8 3B       		.uleb128 0x3b
 4030 02c9 0B       		.uleb128 0xb
 4031 02ca 6E       		.uleb128 0x6e
 4032 02cb 0E       		.uleb128 0xe
 4033 02cc 00       		.byte	0
 4034 02cd 00       		.byte	0
 4035 02ce 37       		.uleb128 0x37
 4036 02cf 2E       		.uleb128 0x2e
 4037 02d0 00       		.byte	0
 4038 02d1 3F       		.uleb128 0x3f
ARM GAS  C:\Users\RAKIBU~1\AppData\Local\Temp\cc5tbduv.s 			page 72


 4039 02d2 19       		.uleb128 0x19
 4040 02d3 3C       		.uleb128 0x3c
 4041 02d4 19       		.uleb128 0x19
 4042 02d5 6E       		.uleb128 0x6e
 4043 02d6 0E       		.uleb128 0xe
 4044 02d7 03       		.uleb128 0x3
 4045 02d8 0E       		.uleb128 0xe
 4046 02d9 3A       		.uleb128 0x3a
 4047 02da 0B       		.uleb128 0xb
 4048 02db 3B       		.uleb128 0x3b
 4049 02dc 0B       		.uleb128 0xb
 4050 02dd 00       		.byte	0
 4051 02de 00       		.byte	0
 4052 02df 00       		.byte	0
 4053              		.section	.debug_loc,"",%progbits
 4054              	.Ldebug_loc0:
 4055              	.LLST11:
 4056 0000 90000000 		.4byte	.LVL20-.Ltext0
 4057 0004 92000000 		.4byte	.LVL21-.Ltext0
 4058 0008 0100     		.2byte	0x1
 4059 000a 50       		.byte	0x50
 4060 000b 92000000 		.4byte	.LVL21-.Ltext0
 4061 000f 94000000 		.4byte	.LFE301-.Ltext0
 4062 0013 0400     		.2byte	0x4
 4063 0015 F3       		.byte	0xf3
 4064 0016 01       		.uleb128 0x1
 4065 0017 50       		.byte	0x50
 4066 0018 9F       		.byte	0x9f
 4067 0019 00000000 		.4byte	0
 4068 001d 00000000 		.4byte	0
 4069              	.LLST8:
 4070 0021 70000000 		.4byte	.LVL15-.Ltext0
 4071 0025 7A000000 		.4byte	.LVL18-.Ltext0
 4072 0029 0100     		.2byte	0x1
 4073 002b 50       		.byte	0x50
 4074 002c 7A000000 		.4byte	.LVL18-.Ltext0
 4075 0030 88000000 		.4byte	.LFE300-.Ltext0
 4076 0034 0400     		.2byte	0x4
 4077 0036 F3       		.byte	0xf3
 4078 0037 01       		.uleb128 0x1
 4079 0038 50       		.byte	0x50
 4080 0039 9F       		.byte	0x9f
 4081 003a 00000000 		.4byte	0
 4082 003e 00000000 		.4byte	0
 4083              	.LLST9:
 4084 0042 70000000 		.4byte	.LVL15-.Ltext0
 4085 0046 78000000 		.4byte	.LVL17-.Ltext0
 4086 004a 0100     		.2byte	0x1
 4087 004c 51       		.byte	0x51
 4088 004d 78000000 		.4byte	.LVL17-.Ltext0
 4089 0051 88000000 		.4byte	.LFE300-.Ltext0
 4090 0055 0400     		.2byte	0x4
 4091 0057 F3       		.byte	0xf3
 4092 0058 01       		.uleb128 0x1
 4093 0059 51       		.byte	0x51
 4094 005a 9F       		.byte	0x9f
 4095 005b 00000000 		.4byte	0
ARM GAS  C:\Users\RAKIBU~1\AppData\Local\Temp\cc5tbduv.s 			page 73


 4096 005f 00000000 		.4byte	0
 4097              	.LLST10:
 4098 0063 70000000 		.4byte	.LVL15-.Ltext0
 4099 0067 76000000 		.4byte	.LVL16-.Ltext0
 4100 006b 0100     		.2byte	0x1
 4101 006d 52       		.byte	0x52
 4102 006e 76000000 		.4byte	.LVL16-.Ltext0
 4103 0072 88000000 		.4byte	.LFE300-.Ltext0
 4104 0076 0100     		.2byte	0x1
 4105 0078 54       		.byte	0x54
 4106 0079 00000000 		.4byte	0
 4107 007d 00000000 		.4byte	0
 4108              	.LLST5:
 4109 0081 40000000 		.4byte	.LVL9-.Ltext0
 4110 0085 48000000 		.4byte	.LVL10-.Ltext0
 4111 0089 0100     		.2byte	0x1
 4112 008b 50       		.byte	0x50
 4113 008c 48000000 		.4byte	.LVL10-.Ltext0
 4114 0090 5A000000 		.4byte	.LVL12-.Ltext0
 4115 0094 0100     		.2byte	0x1
 4116 0096 55       		.byte	0x55
 4117 0097 5A000000 		.4byte	.LVL12-.Ltext0
 4118 009b 5C000000 		.4byte	.LVL13-.Ltext0
 4119 009f 0100     		.2byte	0x1
 4120 00a1 50       		.byte	0x50
 4121 00a2 5C000000 		.4byte	.LVL13-.Ltext0
 4122 00a6 70000000 		.4byte	.LFE299-.Ltext0
 4123 00aa 0100     		.2byte	0x1
 4124 00ac 55       		.byte	0x55
 4125 00ad 00000000 		.4byte	0
 4126 00b1 00000000 		.4byte	0
 4127              	.LLST6:
 4128 00b5 40000000 		.4byte	.LVL9-.Ltext0
 4129 00b9 48000000 		.4byte	.LVL10-.Ltext0
 4130 00bd 0100     		.2byte	0x1
 4131 00bf 51       		.byte	0x51
 4132 00c0 48000000 		.4byte	.LVL10-.Ltext0
 4133 00c4 5A000000 		.4byte	.LVL12-.Ltext0
 4134 00c8 0100     		.2byte	0x1
 4135 00ca 54       		.byte	0x54
 4136 00cb 5A000000 		.4byte	.LVL12-.Ltext0
 4137 00cf 5F000000 		.4byte	.LVL14-1-.Ltext0
 4138 00d3 0100     		.2byte	0x1
 4139 00d5 51       		.byte	0x51
 4140 00d6 5F000000 		.4byte	.LVL14-1-.Ltext0
 4141 00da 70000000 		.4byte	.LFE299-.Ltext0
 4142 00de 0100     		.2byte	0x1
 4143 00e0 54       		.byte	0x54
 4144 00e1 00000000 		.4byte	0
 4145 00e5 00000000 		.4byte	0
 4146              	.LLST7:
 4147 00e9 48000000 		.4byte	.LVL10-.Ltext0
 4148 00ed 52000000 		.4byte	.LVL11-.Ltext0
 4149 00f1 0100     		.2byte	0x1
 4150 00f3 54       		.byte	0x54
 4151 00f4 00000000 		.4byte	0
 4152 00f8 00000000 		.4byte	0
ARM GAS  C:\Users\RAKIBU~1\AppData\Local\Temp\cc5tbduv.s 			page 74


 4153              	.LLST4:
 4154 00fc 30000000 		.4byte	.LVL7-.Ltext0
 4155 0100 32000000 		.4byte	.LVL8-.Ltext0
 4156 0104 0100     		.2byte	0x1
 4157 0106 50       		.byte	0x50
 4158 0107 32000000 		.4byte	.LVL8-.Ltext0
 4159 010b 34000000 		.4byte	.LFE298-.Ltext0
 4160 010f 0400     		.2byte	0x4
 4161 0111 F3       		.byte	0xf3
 4162 0112 01       		.uleb128 0x1
 4163 0113 50       		.byte	0x50
 4164 0114 9F       		.byte	0x9f
 4165 0115 00000000 		.4byte	0
 4166 0119 00000000 		.4byte	0
 4167              	.LLST3:
 4168 011d 20000000 		.4byte	.LVL5-.Ltext0
 4169 0121 22000000 		.4byte	.LVL6-.Ltext0
 4170 0125 0100     		.2byte	0x1
 4171 0127 50       		.byte	0x50
 4172 0128 22000000 		.4byte	.LVL6-.Ltext0
 4173 012c 24000000 		.4byte	.LFE297-.Ltext0
 4174 0130 0400     		.2byte	0x4
 4175 0132 F3       		.byte	0xf3
 4176 0133 01       		.uleb128 0x1
 4177 0134 50       		.byte	0x50
 4178 0135 9F       		.byte	0x9f
 4179 0136 00000000 		.4byte	0
 4180 013a 00000000 		.4byte	0
 4181              	.LLST2:
 4182 013e 10000000 		.4byte	.LVL3-.Ltext0
 4183 0142 12000000 		.4byte	.LVL4-.Ltext0
 4184 0146 0100     		.2byte	0x1
 4185 0148 50       		.byte	0x50
 4186 0149 12000000 		.4byte	.LVL4-.Ltext0
 4187 014d 14000000 		.4byte	.LFE296-.Ltext0
 4188 0151 0400     		.2byte	0x4
 4189 0153 F3       		.byte	0xf3
 4190 0154 01       		.uleb128 0x1
 4191 0155 50       		.byte	0x50
 4192 0156 9F       		.byte	0x9f
 4193 0157 00000000 		.4byte	0
 4194 015b 00000000 		.4byte	0
 4195              	.LLST0:
 4196 015f 00000000 		.4byte	.LVL0-.Ltext0
 4197 0163 08000000 		.4byte	.LVL2-.Ltext0
 4198 0167 0100     		.2byte	0x1
 4199 0169 50       		.byte	0x50
 4200 016a 08000000 		.4byte	.LVL2-.Ltext0
 4201 016e 0A000000 		.4byte	.LFE295-.Ltext0
 4202 0172 0400     		.2byte	0x4
 4203 0174 F3       		.byte	0xf3
 4204 0175 01       		.uleb128 0x1
 4205 0176 50       		.byte	0x50
 4206 0177 9F       		.byte	0x9f
 4207 0178 00000000 		.4byte	0
 4208 017c 00000000 		.4byte	0
 4209              	.LLST1:
ARM GAS  C:\Users\RAKIBU~1\AppData\Local\Temp\cc5tbduv.s 			page 75


 4210 0180 00000000 		.4byte	.LVL0-.Ltext0
 4211 0184 02000000 		.4byte	.LVL1-.Ltext0
 4212 0188 0100     		.2byte	0x1
 4213 018a 53       		.byte	0x53
 4214 018b 02000000 		.4byte	.LVL1-.Ltext0
 4215 018f 0A000000 		.4byte	.LFE295-.Ltext0
 4216 0193 0400     		.2byte	0x4
 4217 0195 F3       		.byte	0xf3
 4218 0196 01       		.uleb128 0x1
 4219 0197 53       		.byte	0x53
 4220 0198 9F       		.byte	0x9f
 4221 0199 00000000 		.4byte	0
 4222 019d 00000000 		.4byte	0
 4223              		.section	.debug_aranges,"",%progbits
 4224 0000 1C000000 		.4byte	0x1c
 4225 0004 0200     		.2byte	0x2
 4226 0006 00000000 		.4byte	.Ldebug_info0
 4227 000a 04       		.byte	0x4
 4228 000b 00       		.byte	0
 4229 000c 0000     		.2byte	0
 4230 000e 0000     		.2byte	0
 4231 0010 00000000 		.4byte	.Ltext0
 4232 0014 94000000 		.4byte	.Letext0-.Ltext0
 4233 0018 00000000 		.4byte	0
 4234 001c 00000000 		.4byte	0
 4235              		.section	.debug_line,"",%progbits
 4236              	.Ldebug_line0:
 4237 0000 D7040000 		.section	.debug_str,"MS",%progbits,1
 4237      02009504 
 4237      00000201 
 4237      FB0E0D00 
 4237      01010101 
 4238              	.LASF287:
 4239 0000 6F66665F 		.ascii	"off_ctx\000"
 4239      63747800 
 4240              	.LASF4:
 4241 0008 73697A65 		.ascii	"size_t\000"
 4241      5F7400
 4242              	.LASF286:
 4243 000f 6F66665F 		.ascii	"off_prio\000"
 4243      7072696F 
 4243      00
 4244              	.LASF303:
 4245 0018 656E646D 		.ascii	"endmem\000"
 4245      656D00
 4246              	.LASF134:
 4247 001f 5F5F6C6F 		.ascii	"__locale_t\000"
 4247      63616C65 
 4247      5F7400
 4248              	.LASF32:
 4249 002a 5F5F7661 		.ascii	"__value\000"
 4249      6C756500 
 4250              	.LASF235:
 4251 0032 73797374 		.ascii	"systime_t\000"
 4251      696D655F 
 4251      7400
 4252              	.LASF295:
ARM GAS  C:\Users\RAKIBU~1\AppData\Local\Temp\cc5tbduv.s 			page 76


 4253 003c 6F66665F 		.ascii	"off_preempt\000"
 4253      70726565 
 4253      6D707400 
 4254              	.LASF102:
 4255 0048 5F5F7366 		.ascii	"__sf\000"
 4255      00
 4256              	.LASF278:
 4257 004d 6F776E65 		.ascii	"owner\000"
 4257      7200
 4258              	.LASF69:
 4259 0053 5F726561 		.ascii	"_read\000"
 4259      6400
 4260              	.LASF182:
 4261 0059 74707269 		.ascii	"tprio_t\000"
 4261      6F5F7400 
 4262              	.LASF175:
 4263 0061 73745F62 		.ascii	"st_blocks\000"
 4263      6C6F636B 
 4263      7300
 4264              	.LASF298:
 4265 006b 63685F64 		.ascii	"ch_debug\000"
 4265      65627567 
 4265      00
 4266              	.LASF91:
 4267 0074 5F5F636C 		.ascii	"__cleanup\000"
 4267      65616E75 
 4267      7000
 4268              	.LASF309:
 4269 007e 70726F76 		.ascii	"provider\000"
 4269      69646572 
 4269      00
 4270              	.LASF248:
 4271 0087 75736572 		.ascii	"user\000"
 4271      00
 4272              	.LASF70:
 4273 008c 5F777269 		.ascii	"_write\000"
 4273      746500
 4274              	.LASF142:
 4275 0093 696E7433 		.ascii	"int32_t\000"
 4275      325F7400 
 4276              	.LASF113:
 4277 009b 5F617363 		.ascii	"_asctime_buf\000"
 4277      74696D65 
 4277      5F627566 
 4277      00
 4278              	.LASF96:
 4279 00a8 5F637674 		.ascii	"_cvtlen\000"
 4279      6C656E00 
 4280              	.LASF215:
 4281 00b0 76746675 		.ascii	"vtfunc_t\000"
 4281      6E635F74 
 4281      00
 4282              	.LASF331:
 4283 00b9 5F5F6675 		.ascii	"__func__\000"
 4283      6E635F5F 
 4283      00
 4284              	.LASF221:
ARM GAS  C:\Users\RAKIBU~1\AppData\Local\Temp\cc5tbduv.s 			page 77


 4285 00c2 63685F76 		.ascii	"ch_virtual_timers_list\000"
 4285      69727475 
 4285      616C5F74 
 4285      696D6572 
 4285      735F6C69 
 4286              	.LASF151:
 4287 00d9 6465765F 		.ascii	"dev_t\000"
 4287      7400
 4288              	.LASF155:
 4289 00df 6E6C696E 		.ascii	"nlink_t\000"
 4289      6B5F7400 
 4290              	.LASF23:
 4291 00e7 5F5F6769 		.ascii	"__gid_t\000"
 4291      645F7400 
 4292              	.LASF132:
 4293 00ef 5F756E75 		.ascii	"_unused\000"
 4293      73656400 
 4294              	.LASF43:
 4295 00f7 5F5F746D 		.ascii	"__tm\000"
 4295      00
 4296              	.LASF128:
 4297 00fc 5F776373 		.ascii	"_wcsrtombs_state\000"
 4297      72746F6D 
 4297      62735F73 
 4297      74617465 
 4297      00
 4298              	.LASF74:
 4299 010d 5F6E6275 		.ascii	"_nbuf\000"
 4299      6600
 4300              	.LASF44:
 4301 0113 5F5F746D 		.ascii	"__tm_sec\000"
 4301      5F736563 
 4301      00
 4302              	.LASF121:
 4303 011c 5F6C3634 		.ascii	"_l64a_buf\000"
 4303      615F6275 
 4303      6600
 4304              	.LASF145:
 4305 0126 74696D65 		.ascii	"time_t\000"
 4305      5F7400
 4306              	.LASF311:
 4307 012d 63685F64 		.ascii	"ch_dyn_element\000"
 4307      796E5F65 
 4307      6C656D65 
 4307      6E7400
 4308              	.LASF250:
 4309 013c 72747374 		.ascii	"rtstamp\000"
 4309      616D7000 
 4310              	.LASF195:
 4311 0144 73746174 		.ascii	"state\000"
 4311      6500
 4312              	.LASF78:
 4313 014a 5F6C6F63 		.ascii	"_lock\000"
 4313      6B00
 4314              	.LASF227:
 4315 0150 6C6F636B 		.ascii	"lock_cnt\000"
 4315      5F636E74 
ARM GAS  C:\Users\RAKIBU~1\AppData\Local\Temp\cc5tbduv.s 			page 78


 4315      00
 4316              	.LASF204:
 4317 0159 73746174 		.ascii	"stats\000"
 4317      7300
 4318              	.LASF249:
 4319 015f 74797065 		.ascii	"type\000"
 4319      00
 4320              	.LASF109:
 4321 0164 5F6D756C 		.ascii	"_mult\000"
 4321      7400
 4322              	.LASF316:
 4323 016a 6F626A5F 		.ascii	"obj_list\000"
 4323      6C697374 
 4323      00
 4324              	.LASF263:
 4325 0173 74696D65 		.ascii	"time_measurement_t\000"
 4325      5F6D6561 
 4325      73757265 
 4325      6D656E74 
 4325      5F7400
 4326              	.LASF289:
 4327 0186 6F66665F 		.ascii	"off_older\000"
 4327      6F6C6465 
 4327      7200
 4328              	.LASF190:
 4329 0190 7072696F 		.ascii	"prio\000"
 4329      00
 4330              	.LASF29:
 4331 0195 5F5F7763 		.ascii	"__wch\000"
 4331      6800
 4332              	.LASF270:
 4333 019b 65786974 		.ascii	"exitcode\000"
 4333      636F6465 
 4333      00
 4334              	.LASF5:
 4335 01a4 5F5F7569 		.ascii	"__uint8_t\000"
 4335      6E74385F 
 4335      7400
 4336              	.LASF21:
 4337 01ae 5F5F6465 		.ascii	"__dev_t\000"
 4337      765F7400 
 4338              	.LASF152:
 4339 01b6 7569645F 		.ascii	"uid_t\000"
 4339      7400
 4340              	.LASF66:
 4341 01bc 5F66696C 		.ascii	"_file\000"
 4341      6500
 4342              	.LASF53:
 4343 01c2 5F6F6E5F 		.ascii	"_on_exit_args\000"
 4343      65786974 
 4343      5F617267 
 4343      7300
 4344              	.LASF139:
 4345 01d0 5F737973 		.ascii	"_sys_nerr\000"
 4345      5F6E6572 
 4345      7200
 4346              	.LASF124:
ARM GAS  C:\Users\RAKIBU~1\AppData\Local\Temp\cc5tbduv.s 			page 79


 4347 01da 5F6D6272 		.ascii	"_mbrlen_state\000"
 4347      6C656E5F 
 4347      73746174 
 4347      6500
 4348              	.LASF11:
 4349 01e8 6C6F6E67 		.ascii	"long int\000"
 4349      20696E74 
 4349      00
 4350              	.LASF135:
 4351 01f1 5F696D70 		.ascii	"_impure_ptr\000"
 4351      7572655F 
 4351      70747200 
 4352              	.LASF93:
 4353 01fd 5F726573 		.ascii	"_result_k\000"
 4353      756C745F 
 4353      6B00
 4354              	.LASF63:
 4355 0207 5F73697A 		.ascii	"_size\000"
 4355      6500
 4356              	.LASF343:
 4357 020d 5F5F6275 		.ascii	"__builtin_memset\000"
 4357      696C7469 
 4357      6E5F6D65 
 4357      6D736574 
 4357      00
 4358              	.LASF281:
 4359 021e 7A65726F 		.ascii	"zero\000"
 4359      00
 4360              	.LASF114:
 4361 0223 5F6C6F63 		.ascii	"_localtime_buf\000"
 4361      616C7469 
 4361      6D655F62 
 4361      756600
 4362              	.LASF180:
 4363 0232 74737461 		.ascii	"tstate_t\000"
 4363      74655F74 
 4363      00
 4364              	.LASF178:
 4365 023b 72747469 		.ascii	"rttime_t\000"
 4365      6D655F74 
 4365      00
 4366              	.LASF209:
 4367 0244 74687265 		.ascii	"threads_queue_t\000"
 4367      6164735F 
 4367      71756575 
 4367      655F7400 
 4368              	.LASF206:
 4369 0254 74687265 		.ascii	"threads_list_t\000"
 4369      6164735F 
 4369      6C697374 
 4369      5F7400
 4370              	.LASF241:
 4371 0263 72656761 		.ascii	"regarm_t\000"
 4371      726D5F74 
 4371      00
 4372              	.LASF48:
 4373 026c 5F5F746D 		.ascii	"__tm_mon\000"
ARM GAS  C:\Users\RAKIBU~1\AppData\Local\Temp\cc5tbduv.s 			page 80


 4373      5F6D6F6E 
 4373      00
 4374              	.LASF317:
 4375 0275 6F626A5F 		.ascii	"obj_pool\000"
 4375      706F6F6C 
 4375      00
 4376              	.LASF111:
 4377 027e 5F756E75 		.ascii	"_unused_rand\000"
 4377      7365645F 
 4377      72616E64 
 4377      00
 4378              	.LASF304:
 4379 028b 6D656D63 		.ascii	"memcore_t\000"
 4379      6F72655F 
 4379      7400
 4380              	.LASF3:
 4381 0295 7369676E 		.ascii	"signed char\000"
 4381      65642063 
 4381      68617200 
 4382              	.LASF275:
 4383 02a1 65776D61 		.ascii	"ewmask\000"
 4383      736B00
 4384              	.LASF19:
 4385 02a8 5F5F626C 		.ascii	"__blksize_t\000"
 4385      6B73697A 
 4385      655F7400 
 4386              	.LASF140:
 4387 02b4 75696E74 		.ascii	"uint8_t\000"
 4387      385F7400 
 4388              	.LASF252:
 4389 02bc 63685F74 		.ascii	"ch_trace_event_t\000"
 4389      72616365 
 4389      5F657665 
 4389      6E745F74 
 4389      00
 4390              	.LASF169:
 4391 02cd 73745F73 		.ascii	"st_spare1\000"
 4391      70617265 
 4391      3100
 4392              	.LASF164:
 4393 02d7 73745F75 		.ascii	"st_uid\000"
 4393      696400
 4394              	.LASF173:
 4395 02de 73745F73 		.ascii	"st_spare3\000"
 4395      70617265 
 4395      3300
 4396              	.LASF176:
 4397 02e8 73745F73 		.ascii	"st_spare4\000"
 4397      70617265 
 4397      3400
 4398              	.LASF184:
 4399 02f2 6576656E 		.ascii	"eventmask_t\000"
 4399      746D6173 
 4399      6B5F7400 
 4400              	.LASF271:
 4401 02fe 77747472 		.ascii	"wttrp\000"
 4401      7000
ARM GAS  C:\Users\RAKIBU~1\AppData\Local\Temp\cc5tbduv.s 			page 81


 4402              	.LASF6:
 4403 0304 756E7369 		.ascii	"unsigned char\000"
 4403      676E6564 
 4403      20636861 
 4403      7200
 4404              	.LASF222:
 4405 0312 6C617374 		.ascii	"lasttime\000"
 4405      74696D65 
 4405      00
 4406              	.LASF166:
 4407 031b 73745F72 		.ascii	"st_rdev\000"
 4407      64657600 
 4408              	.LASF225:
 4409 0323 70616E69 		.ascii	"panic_msg\000"
 4409      635F6D73 
 4409      6700
 4410              	.LASF329:
 4411 032d 5F736272 		.ascii	"_sbrk_r\000"
 4411      6B5F7200 
 4412              	.LASF88:
 4413 0335 5F756E73 		.ascii	"_unspecified_locale_info\000"
 4413      70656369 
 4413      66696564 
 4413      5F6C6F63 
 4413      616C655F 
 4414              	.LASF81:
 4415 034e 5F726565 		.ascii	"_reent\000"
 4415      6E7400
 4416              	.LASF136:
 4417 0355 5F676C6F 		.ascii	"_global_impure_ptr\000"
 4417      62616C5F 
 4417      696D7075 
 4417      72655F70 
 4417      747200
 4418              	.LASF223:
 4419 0368 73797374 		.ascii	"system_debug_t\000"
 4419      656D5F64 
 4419      65627567 
 4419      5F7400
 4420              	.LASF339:
 4421 0377 2E2E2F2E 		.ascii	"../../../ChibiOSRepo/chibios191/os/various/syscalls"
 4421      2E2F2E2E 
 4421      2F436869 
 4421      62694F53 
 4421      5265706F 
 4422 03aa 2E6300   		.ascii	".c\000"
 4423              	.LASF336:
 4424 03ad 6368436F 		.ascii	"chCoreAllocAlignedWithOffset\000"
 4424      7265416C 
 4424      6C6F6341 
 4424      6C69676E 
 4424      65645769 
 4425              	.LASF300:
 4426 03ca 5F426F6F 		.ascii	"_Bool\000"
 4426      6C00
 4427              	.LASF36:
 4428 03d0 63686172 		.ascii	"char\000"
ARM GAS  C:\Users\RAKIBU~1\AppData\Local\Temp\cc5tbduv.s 			page 82


 4428      00
 4429              	.LASF342:
 4430 03d5 6D656D73 		.ascii	"memset\000"
 4430      657400
 4431              	.LASF60:
 4432 03dc 5F666E73 		.ascii	"_fns\000"
 4432      00
 4433              	.LASF72:
 4434 03e1 5F636C6F 		.ascii	"_close\000"
 4434      736500
 4435              	.LASF319:
 4436 03e8 73656D5F 		.ascii	"sem_list\000"
 4436      6C697374 
 4436      00
 4437              	.LASF8:
 4438 03f1 5F5F7569 		.ascii	"__uint16_t\000"
 4438      6E743136 
 4438      5F7400
 4439              	.LASF245:
 4440 03fc 77746F62 		.ascii	"wtobjp\000"
 4440      6A7000
 4441              	.LASF265:
 4442 0403 6E5F6374 		.ascii	"n_ctxswc\000"
 4442      78737763 
 4442      00
 4443              	.LASF83:
 4444 040c 5F737464 		.ascii	"_stdin\000"
 4444      696E00
 4445              	.LASF25:
 4446 0413 5F5F6D6F 		.ascii	"__mode_t\000"
 4446      64655F74 
 4446      00
 4447              	.LASF294:
 4448 041c 6F66665F 		.ascii	"off_refs\000"
 4448      72656673 
 4448      00
 4449              	.LASF196:
 4450 0425 666C6167 		.ascii	"flags\000"
 4450      7300
 4451              	.LASF326:
 4452 042b 5F697361 		.ascii	"_isatty_r\000"
 4452      7474795F 
 4452      7200
 4453              	.LASF242:
 4454 0435 73746B61 		.ascii	"stkalign_t\000"
 4454      6C69676E 
 4454      5F7400
 4455              	.LASF157:
 4456 0440 5F646179 		.ascii	"_daylight\000"
 4456      6C696768 
 4456      7400
 4457              	.LASF156:
 4458 044a 5F74696D 		.ascii	"_timezone\000"
 4458      657A6F6E 
 4458      6500
 4459              	.LASF203:
 4460 0454 6D706F6F 		.ascii	"mpool\000"
ARM GAS  C:\Users\RAKIBU~1\AppData\Local\Temp\cc5tbduv.s 			page 83


 4460      6C00
 4461              	.LASF260:
 4462 045a 776F7273 		.ascii	"worst\000"
 4462      7400
 4463              	.LASF181:
 4464 0460 74726566 		.ascii	"trefs_t\000"
 4464      735F7400 
 4465              	.LASF283:
 4466 0468 70747273 		.ascii	"ptrsize\000"
 4466      697A6500 
 4467              	.LASF172:
 4468 0470 73745F63 		.ascii	"st_ctime\000"
 4468      74696D65 
 4468      00
 4469              	.LASF328:
 4470 0479 66696C65 		.ascii	"file\000"
 4470      00
 4471              	.LASF296:
 4472 047e 6F66665F 		.ascii	"off_time\000"
 4472      74696D65 
 4472      00
 4473              	.LASF185:
 4474 0487 636E745F 		.ascii	"cnt_t\000"
 4474      7400
 4475              	.LASF228:
 4476 048d 74726163 		.ascii	"trace_buffer\000"
 4476      655F6275 
 4476      66666572 
 4476      00
 4477              	.LASF323:
 4478 049a 70697065 		.ascii	"pipe_list\000"
 4478      5F6C6973 
 4478      7400
 4479              	.LASF158:
 4480 04a4 5F747A6E 		.ascii	"_tzname\000"
 4480      616D6500 
 4481              	.LASF255:
 4482 04ac 62756666 		.ascii	"buffer\000"
 4482      657200
 4483              	.LASF68:
 4484 04b3 5F636F6F 		.ascii	"_cookie\000"
 4484      6B696500 
 4485              	.LASF256:
 4486 04bb 63685F74 		.ascii	"ch_trace_buffer_t\000"
 4486      72616365 
 4486      5F627566 
 4486      6665725F 
 4486      7400
 4487              	.LASF341:
 4488 04cd 6368436F 		.ascii	"chCoreAlloc\000"
 4488      7265416C 
 4488      6C6F6300 
 4489              	.LASF274:
 4490 04d9 77746D74 		.ascii	"wtmtxp\000"
 4490      787000
 4491              	.LASF41:
 4492 04e0 5F776473 		.ascii	"_wds\000"
ARM GAS  C:\Users\RAKIBU~1\AppData\Local\Temp\cc5tbduv.s 			page 84


 4492      00
 4493              	.LASF213:
 4494 04e5 63685F72 		.ascii	"ch_ready_list\000"
 4494      65616479 
 4494      5F6C6973 
 4494      7400
 4495              	.LASF133:
 4496 04f3 5F5F6C6F 		.ascii	"__lock\000"
 4496      636B00
 4497              	.LASF100:
 4498 04fa 5F736967 		.ascii	"_sig_func\000"
 4498      5F66756E 
 4498      6300
 4499              	.LASF320:
 4500 0504 73656D5F 		.ascii	"sem_pool\000"
 4500      706F6F6C 
 4500      00
 4501              	.LASF76:
 4502 050d 5F6F6666 		.ascii	"_offset\000"
 4502      73657400 
 4503              	.LASF97:
 4504 0515 5F637674 		.ascii	"_cvtbuf\000"
 4504      62756600 
 4505              	.LASF165:
 4506 051d 73745F67 		.ascii	"st_gid\000"
 4506      696400
 4507              	.LASF262:
 4508 0524 63756D75 		.ascii	"cumulative\000"
 4508      6C617469 
 4508      766500
 4509              	.LASF302:
 4510 052f 6E657874 		.ascii	"nextmem\000"
 4510      6D656D00 
 4511              	.LASF338:
 4512 0537 474E5520 		.ascii	"GNU C11 7.2.1 20170904 (release) [ARM/embedded-7-br"
 4512      43313120 
 4512      372E322E 
 4512      31203230 
 4512      31373039 
 4513 056a 616E6368 		.ascii	"anch revision 255204] -mcpu=cortex-m4 -mthumb -ggdb"
 4513      20726576 
 4513      6973696F 
 4513      6E203235 
 4513      35323034 
 4514 059d 202D4F67 		.ascii	" -Og -fomit-frame-pointer -falign-functions=16\000"
 4514      202D666F 
 4514      6D69742D 
 4514      6672616D 
 4514      652D706F 
 4515              	.LASF266:
 4516 05cc 6D5F6372 		.ascii	"m_crit_thd\000"
 4516      69745F74 
 4516      686400
 4517              	.LASF14:
 4518 05d7 5F5F7569 		.ascii	"__uint64_t\000"
 4518      6E743634 
 4518      5F7400
ARM GAS  C:\Users\RAKIBU~1\AppData\Local\Temp\cc5tbduv.s 			page 85


 4519              	.LASF149:
 4520 05e2 696E6F5F 		.ascii	"ino_t\000"
 4520      7400
 4521              	.LASF292:
 4522 05e8 6F66665F 		.ascii	"off_state\000"
 4522      73746174 
 4522      6500
 4523              	.LASF94:
 4524 05f2 5F703573 		.ascii	"_p5s\000"
 4524      00
 4525              	.LASF13:
 4526 05f7 6C6F6E67 		.ascii	"long unsigned int\000"
 4526      20756E73 
 4526      69676E65 
 4526      6420696E 
 4526      7400
 4527              	.LASF285:
 4528 0609 74687265 		.ascii	"threadsize\000"
 4528      61647369 
 4528      7A6500
 4529              	.LASF64:
 4530 0614 5F5F7346 		.ascii	"__sFILE\000"
 4530      494C4500 
 4531              	.LASF90:
 4532 061c 5F5F7364 		.ascii	"__sdidinit\000"
 4532      6964696E 
 4532      697400
 4533              	.LASF80:
 4534 0627 5F666C61 		.ascii	"_flags2\000"
 4534      67733200 
 4535              	.LASF167:
 4536 062f 73745F73 		.ascii	"st_size\000"
 4536      697A6500 
 4537              	.LASF238:
 4538 0637 53797374 		.ascii	"SystemCoreClock\000"
 4538      656D436F 
 4538      7265436C 
 4538      6F636B00 
 4539              	.LASF276:
 4540 0647 63685F73 		.ascii	"ch_semaphore\000"
 4540      656D6170 
 4540      686F7265 
 4540      00
 4541              	.LASF188:
 4542 0654 63685F74 		.ascii	"ch_thread\000"
 4542      68726561 
 4542      6400
 4543              	.LASF220:
 4544 065e 76697274 		.ascii	"virtual_timers_list_t\000"
 4544      75616C5F 
 4544      74696D65 
 4544      72735F6C 
 4544      6973745F 
 4545              	.LASF279:
 4546 0674 63685F69 		.ascii	"ch_idle_thread_wa\000"
 4546      646C655F 
 4546      74687265 
ARM GAS  C:\Users\RAKIBU~1\AppData\Local\Temp\cc5tbduv.s 			page 86


 4546      61645F77 
 4546      6100
 4547              	.LASF82:
 4548 0686 5F657272 		.ascii	"_errno\000"
 4548      6E6F00
 4549              	.LASF322:
 4550 068d 6669666F 		.ascii	"fifo_list\000"
 4550      5F6C6973 
 4550      7400
 4551              	.LASF216:
 4552 0697 76697274 		.ascii	"virtual_timer_t\000"
 4552      75616C5F 
 4552      74696D65 
 4552      725F7400 
 4553              	.LASF212:
 4554 06a7 72656164 		.ascii	"ready_list_t\000"
 4554      795F6C69 
 4554      73745F74 
 4554      00
 4555              	.LASF192:
 4556 06b4 6F6C6465 		.ascii	"older\000"
 4556      7200
 4557              	.LASF171:
 4558 06ba 73745F73 		.ascii	"st_spare2\000"
 4558      70617265 
 4558      3200
 4559              	.LASF122:
 4560 06c4 5F736967 		.ascii	"_signal_buf\000"
 4560      6E616C5F 
 4560      62756600 
 4561              	.LASF202:
 4562 06d0 7265616C 		.ascii	"realprio\000"
 4562      7072696F 
 4562      00
 4563              	.LASF186:
 4564 06d9 75636E74 		.ascii	"ucnt_t\000"
 4564      5F7400
 4565              	.LASF291:
 4566 06e0 6F66665F 		.ascii	"off_stklimit\000"
 4566      73746B6C 
 4566      696D6974 
 4566      00
 4567              	.LASF332:
 4568 06ed 5F636C6F 		.ascii	"_close_r\000"
 4568      73655F72 
 4568      00
 4569              	.LASF306:
 4570 06f6 706F6F6C 		.ascii	"pool_header\000"
 4570      5F686561 
 4570      64657200 
 4571              	.LASF42:
 4572 0702 5F426967 		.ascii	"_Bigint\000"
 4572      696E7400 
 4573              	.LASF207:
 4574 070a 63685F74 		.ascii	"ch_threads_list\000"
 4574      68726561 
 4574      64735F6C 
ARM GAS  C:\Users\RAKIBU~1\AppData\Local\Temp\cc5tbduv.s 			page 87


 4574      69737400 
 4575              	.LASF39:
 4576 071a 5F6D6178 		.ascii	"_maxwds\000"
 4576      77647300 
 4577              	.LASF264:
 4578 0722 6E5F6972 		.ascii	"n_irq\000"
 4578      7100
 4579              	.LASF18:
 4580 0728 5F5F626C 		.ascii	"__blkcnt_t\000"
 4580      6B636E74 
 4580      5F7400
 4581              	.LASF325:
 4582 0733 63685F66 		.ascii	"ch_factory\000"
 4582      6163746F 
 4582      727900
 4583              	.LASF99:
 4584 073e 5F617465 		.ascii	"_atexit0\000"
 4584      78697430 
 4584      00
 4585              	.LASF159:
 4586 0747 73746174 		.ascii	"stat\000"
 4586      00
 4587              	.LASF174:
 4588 074c 73745F62 		.ascii	"st_blksize\000"
 4588      6C6B7369 
 4588      7A6500
 4589              	.LASF24:
 4590 0757 5F5F696E 		.ascii	"__ino_t\000"
 4590      6F5F7400 
 4591              	.LASF12:
 4592 075f 5F5F7569 		.ascii	"__uint32_t\000"
 4592      6E743332 
 4592      5F7400
 4593              	.LASF87:
 4594 076a 5F656D65 		.ascii	"_emergency\000"
 4594      7267656E 
 4594      637900
 4595              	.LASF201:
 4596 0775 6D74786C 		.ascii	"mtxlist\000"
 4596      69737400 
 4597              	.LASF1:
 4598 077d 6C6F6E67 		.ascii	"long long int\000"
 4598      206C6F6E 
 4598      6720696E 
 4598      7400
 4599              	.LASF236:
 4600 078b 73797369 		.ascii	"sysinterval_t\000"
 4600      6E746572 
 4600      76616C5F 
 4600      7400
 4601              	.LASF105:
 4602 0799 5F6E696F 		.ascii	"_niobs\000"
 4602      627300
 4603              	.LASF315:
 4604 07a0 63685F6F 		.ascii	"ch_objects_factory\000"
 4604      626A6563 
 4604      74735F66 
ARM GAS  C:\Users\RAKIBU~1\AppData\Local\Temp\cc5tbduv.s 			page 88


 4604      6163746F 
 4604      727900
 4605              	.LASF101:
 4606 07b3 5F5F7367 		.ascii	"__sglue\000"
 4606      6C756500 
 4607              	.LASF131:
 4608 07bb 5F6E6D61 		.ascii	"_nmalloc\000"
 4608      6C6C6F63 
 4608      00
 4609              	.LASF115:
 4610 07c4 5F67616D 		.ascii	"_gamma_signgam\000"
 4610      6D615F73 
 4610      69676E67 
 4610      616D00
 4611              	.LASF95:
 4612 07d3 5F667265 		.ascii	"_freelist\000"
 4612      656C6973 
 4612      7400
 4613              	.LASF106:
 4614 07dd 5F696F62 		.ascii	"_iobs\000"
 4614      7300
 4615              	.LASF308:
 4616 07e3 616C6967 		.ascii	"align\000"
 4616      6E00
 4617              	.LASF104:
 4618 07e9 5F676C75 		.ascii	"_glue\000"
 4618      6500
 4619              	.LASF237:
 4620 07ef 49544D5F 		.ascii	"ITM_RxBuffer\000"
 4620      52784275 
 4620      66666572 
 4620      00
 4621              	.LASF40:
 4622 07fc 5F736967 		.ascii	"_sign\000"
 4622      6E00
 4623              	.LASF288:
 4624 0802 6F66665F 		.ascii	"off_newer\000"
 4624      6E657765 
 4624      7200
 4625              	.LASF267:
 4626 080c 6D5F6372 		.ascii	"m_crit_isr\000"
 4626      69745F69 
 4626      737200
 4627              	.LASF0:
 4628 0817 756E7369 		.ascii	"unsigned int\000"
 4628      676E6564 
 4628      20696E74 
 4628      00
 4629              	.LASF333:
 4630 0824 5F777269 		.ascii	"_write_r\000"
 4630      74655F72 
 4630      00
 4631              	.LASF146:
 4632 082d 626C6B63 		.ascii	"blkcnt_t\000"
 4632      6E745F74 
 4632      00
 4633              	.LASF148:
ARM GAS  C:\Users\RAKIBU~1\AppData\Local\Temp\cc5tbduv.s 			page 89


 4634 0836 63616464 		.ascii	"caddr_t\000"
 4634      725F7400 
 4635              	.LASF177:
 4636 083e 7274636E 		.ascii	"rtcnt_t\000"
 4636      745F7400 
 4637              	.LASF197:
 4638 0846 72656673 		.ascii	"refs\000"
 4638      00
 4639              	.LASF129:
 4640 084b 5F685F65 		.ascii	"_h_errno\000"
 4640      72726E6F 
 4640      00
 4641              	.LASF330:
 4642 0854 696E6372 		.ascii	"incr\000"
 4642      00
 4643              	.LASF127:
 4644 0859 5F776372 		.ascii	"_wcrtomb_state\000"
 4644      746F6D62 
 4644      5F737461 
 4644      746500
 4645              	.LASF47:
 4646 0868 5F5F746D 		.ascii	"__tm_mday\000"
 4646      5F6D6461 
 4646      7900
 4647              	.LASF268:
 4648 0872 6B65726E 		.ascii	"kernel_stats_t\000"
 4648      656C5F73 
 4648      74617473 
 4648      5F7400
 4649              	.LASF98:
 4650 0881 5F6E6577 		.ascii	"_new\000"
 4650      00
 4651              	.LASF73:
 4652 0886 5F756275 		.ascii	"_ubuf\000"
 4652      6600
 4653              	.LASF85:
 4654 088c 5F737464 		.ascii	"_stderr\000"
 4654      65727200 
 4655              	.LASF120:
 4656 0894 5F776374 		.ascii	"_wctomb_state\000"
 4656      6F6D625F 
 4656      73746174 
 4656      6500
 4657              	.LASF79:
 4658 08a2 5F6D6273 		.ascii	"_mbstate\000"
 4658      74617465 
 4658      00
 4659              	.LASF214:
 4660 08ab 63757272 		.ascii	"current\000"
 4660      656E7400 
 4661              	.LASF116:
 4662 08b3 5F72616E 		.ascii	"_rand_next\000"
 4662      645F6E65 
 4662      787400
 4663              	.LASF65:
 4664 08be 5F666C61 		.ascii	"_flags\000"
 4664      677300
ARM GAS  C:\Users\RAKIBU~1\AppData\Local\Temp\cc5tbduv.s 			page 90


 4665              	.LASF257:
 4666 08c5 6F666673 		.ascii	"offset\000"
 4666      657400
 4667              	.LASF205:
 4668 08cc 74687265 		.ascii	"thread_reference_t\000"
 4668      61645F72 
 4668      65666572 
 4668      656E6365 
 4668      5F7400
 4669              	.LASF58:
 4670 08df 5F617465 		.ascii	"_atexit\000"
 4670      78697400 
 4671              	.LASF31:
 4672 08e7 5F5F636F 		.ascii	"__count\000"
 4672      756E7400 
 4673              	.LASF163:
 4674 08ef 73745F6E 		.ascii	"st_nlink\000"
 4674      6C696E6B 
 4674      00
 4675              	.LASF150:
 4676 08f8 6F66665F 		.ascii	"off_t\000"
 4676      7400
 4677              	.LASF154:
 4678 08fe 6D6F6465 		.ascii	"mode_t\000"
 4678      5F7400
 4679              	.LASF301:
 4680 0905 6D656D67 		.ascii	"memgetfunc_t\000"
 4680      65746675 
 4680      6E635F74 
 4680      00
 4681              	.LASF50:
 4682 0912 5F5F746D 		.ascii	"__tm_wday\000"
 4682      5F776461 
 4682      7900
 4683              	.LASF187:
 4684 091c 74687265 		.ascii	"thread_t\000"
 4684      61645F74 
 4684      00
 4685              	.LASF168:
 4686 0925 73745F61 		.ascii	"st_atime\000"
 4686      74696D65 
 4686      00
 4687              	.LASF2:
 4688 092e 6C6F6E67 		.ascii	"long double\000"
 4688      20646F75 
 4688      626C6500 
 4689              	.LASF51:
 4690 093a 5F5F746D 		.ascii	"__tm_yday\000"
 4690      5F796461 
 4690      7900
 4691              	.LASF272:
 4692 0944 73656E74 		.ascii	"sentmsg\000"
 4692      6D736700 
 4693              	.LASF244:
 4694 094c 706F7274 		.ascii	"port_intctx\000"
 4694      5F696E74 
 4694      63747800 
ARM GAS  C:\Users\RAKIBU~1\AppData\Local\Temp\cc5tbduv.s 			page 91


 4695              	.LASF324:
 4696 0958 6F626A65 		.ascii	"objects_factory_t\000"
 4696      6374735F 
 4696      66616374 
 4696      6F72795F 
 4696      7400
 4697              	.LASF108:
 4698 096a 5F736565 		.ascii	"_seed\000"
 4698      6400
 4699              	.LASF318:
 4700 0970 6275665F 		.ascii	"buf_list\000"
 4700      6C697374 
 4700      00
 4701              	.LASF71:
 4702 0979 5F736565 		.ascii	"_seek\000"
 4702      6B00
 4703              	.LASF160:
 4704 097f 73745F64 		.ascii	"st_dev\000"
 4704      657600
 4705              	.LASF226:
 4706 0986 6973725F 		.ascii	"isr_cnt\000"
 4706      636E7400 
 4707              	.LASF27:
 4708 098e 5F66706F 		.ascii	"_fpos_t\000"
 4708      735F7400 
 4709              	.LASF30:
 4710 0996 5F5F7763 		.ascii	"__wchb\000"
 4710      686200
 4711              	.LASF239:
 4712 099d 41484250 		.ascii	"AHBPrescTable\000"
 4712      72657363 
 4712      5461626C 
 4712      6500
 4713              	.LASF217:
 4714 09ab 63685F76 		.ascii	"ch_virtual_timer\000"
 4714      69727475 
 4714      616C5F74 
 4714      696D6572 
 4714      00
 4715              	.LASF119:
 4716 09bc 5F6D6274 		.ascii	"_mbtowc_state\000"
 4716      6F77635F 
 4716      73746174 
 4716      6500
 4717              	.LASF234:
 4718 09ca 6B65726E 		.ascii	"kernel_stats\000"
 4718      656C5F73 
 4718      74617473 
 4718      00
 4719              	.LASF254:
 4720 09d7 73697A65 		.ascii	"size\000"
 4720      00
 4721              	.LASF15:
 4722 09dc 6C6F6E67 		.ascii	"long long unsigned int\000"
 4722      206C6F6E 
 4722      6720756E 
 4722      7369676E 
ARM GAS  C:\Users\RAKIBU~1\AppData\Local\Temp\cc5tbduv.s 			page 92


 4722      65642069 
 4723              	.LASF141:
 4724 09f3 75696E74 		.ascii	"uint16_t\000"
 4724      31365F74 
 4724      00
 4725              	.LASF26:
 4726 09fc 5F5F6F66 		.ascii	"__off_t\000"
 4726      665F7400 
 4727              	.LASF290:
 4728 0a04 6F66665F 		.ascii	"off_name\000"
 4728      6E616D65 
 4728      00
 4729              	.LASF55:
 4730 0a0d 5F64736F 		.ascii	"_dso_handle\000"
 4730      5F68616E 
 4730      646C6500 
 4731              	.LASF183:
 4732 0a19 6D73675F 		.ascii	"msg_t\000"
 4732      7400
 4733              	.LASF210:
 4734 0a1f 63685F74 		.ascii	"ch_threads_queue\000"
 4734      68726561 
 4734      64735F71 
 4734      75657565 
 4734      00
 4735              	.LASF107:
 4736 0a30 5F72616E 		.ascii	"_rand48\000"
 4736      64343800 
 4737              	.LASF84:
 4738 0a38 5F737464 		.ascii	"_stdout\000"
 4738      6F757400 
 4739              	.LASF218:
 4740 0a40 64656C74 		.ascii	"delta\000"
 4740      6100
 4741              	.LASF75:
 4742 0a46 5F626C6B 		.ascii	"_blksize\000"
 4742      73697A65 
 4742      00
 4743              	.LASF62:
 4744 0a4f 5F626173 		.ascii	"_base\000"
 4744      6500
 4745              	.LASF327:
 4746 0a55 5F667374 		.ascii	"_fstat_r\000"
 4746      61745F72 
 4746      00
 4747              	.LASF189:
 4748 0a5e 71756575 		.ascii	"queue\000"
 4748      6500
 4749              	.LASF200:
 4750 0a64 6570656E 		.ascii	"epending\000"
 4750      64696E67 
 4750      00
 4751              	.LASF246:
 4752 0a6d 72656173 		.ascii	"reason\000"
 4752      6F6E00
 4753              	.LASF112:
 4754 0a74 5F737472 		.ascii	"_strtok_last\000"
ARM GAS  C:\Users\RAKIBU~1\AppData\Local\Temp\cc5tbduv.s 			page 93


 4754      746F6B5F 
 4754      6C617374 
 4754      00
 4755              	.LASF340:
 4756 0a81 433A5C55 		.ascii	"C:\\Users\\RakibulChowdhury\\OneDrive - DIAS Geophy"
 4756      73657273 
 4756      5C52616B 
 4756      6962756C 
 4756      43686F77 
 4757 0ab1 73696361 		.ascii	"sical\\Dias32FirmwareDevelopment\\FirmwareRepo\\Dia"
 4757      6C5C4469 
 4757      61733332 
 4757      4669726D 
 4757      77617265 
 4758 0ae1 73333257 		.ascii	"s32Workspace\\DIAS-Gen2-testing\000"
 4758      6F726B73 
 4758      70616365 
 4758      5C444941 
 4758      532D4765 
 4759              	.LASF125:
 4760 0b00 5F6D6272 		.ascii	"_mbrtowc_state\000"
 4760      746F7763 
 4760      5F737461 
 4760      746500
 4761              	.LASF321:
 4762 0b0f 6D62785F 		.ascii	"mbx_list\000"
 4762      6C697374 
 4762      00
 4763              	.LASF233:
 4764 0b18 6D61696E 		.ascii	"mainthread\000"
 4764      74687265 
 4764      616400
 4765              	.LASF34:
 4766 0b23 5F666C6F 		.ascii	"_flock_t\000"
 4766      636B5F74 
 4766      00
 4767              	.LASF282:
 4768 0b2c 76657273 		.ascii	"version\000"
 4768      696F6E00 
 4769              	.LASF103:
 4770 0b34 5F5F4649 		.ascii	"__FILE\000"
 4770      4C4500
 4771              	.LASF247:
 4772 0b3b 68616C74 		.ascii	"halt\000"
 4772      00
 4773              	.LASF259:
 4774 0b40 62657374 		.ascii	"best\000"
 4774      00
 4775              	.LASF33:
 4776 0b45 5F6D6273 		.ascii	"_mbstate_t\000"
 4776      74617465 
 4776      5F7400
 4777              	.LASF117:
 4778 0b50 5F723438 		.ascii	"_r48\000"
 4778      00
 4779              	.LASF194:
 4780 0b55 77616261 		.ascii	"wabase\000"
ARM GAS  C:\Users\RAKIBU~1\AppData\Local\Temp\cc5tbduv.s 			page 94


 4780      736500
 4781              	.LASF28:
 4782 0b5c 77696E74 		.ascii	"wint_t\000"
 4782      5F7400
 4783              	.LASF310:
 4784 0b63 6D656D6F 		.ascii	"memory_pool_t\000"
 4784      72795F70 
 4784      6F6F6C5F 
 4784      7400
 4785              	.LASF38:
 4786 0b71 5F6E6578 		.ascii	"_next\000"
 4786      7400
 4787              	.LASF77:
 4788 0b77 5F646174 		.ascii	"_data\000"
 4788      6100
 4789              	.LASF231:
 4790 0b7d 726C6973 		.ascii	"rlist\000"
 4790      7400
 4791              	.LASF179:
 4792 0b83 746D6F64 		.ascii	"tmode_t\000"
 4792      655F7400 
 4793              	.LASF170:
 4794 0b8b 73745F6D 		.ascii	"st_mtime\000"
 4794      74696D65 
 4794      00
 4795              	.LASF253:
 4796 0b94 73757370 		.ascii	"suspended\000"
 4796      656E6465 
 4796      6400
 4797              	.LASF258:
 4798 0b9e 746D5F63 		.ascii	"tm_calibration_t\000"
 4798      616C6962 
 4798      72617469 
 4798      6F6E5F74 
 4798      00
 4799              	.LASF193:
 4800 0baf 6E616D65 		.ascii	"name\000"
 4800      00
 4801              	.LASF240:
 4802 0bb4 41504250 		.ascii	"APBPrescTable\000"
 4802      72657363 
 4802      5461626C 
 4802      6500
 4803              	.LASF118:
 4804 0bc2 5F6D626C 		.ascii	"_mblen_state\000"
 4804      656E5F73 
 4804      74617465 
 4804      00
 4805              	.LASF7:
 4806 0bcf 73686F72 		.ascii	"short int\000"
 4806      7420696E 
 4806      7400
 4807              	.LASF144:
 4808 0bd9 75696E74 		.ascii	"uint64_t\000"
 4808      36345F74 
 4808      00
 4809              	.LASF219:
ARM GAS  C:\Users\RAKIBU~1\AppData\Local\Temp\cc5tbduv.s 			page 95


 4810 0be2 66756E63 		.ascii	"func\000"
 4810      00
 4811              	.LASF277:
 4812 0be7 63685F6D 		.ascii	"ch_mutex\000"
 4812      75746578 
 4812      00
 4813              	.LASF199:
 4814 0bf0 6D736771 		.ascii	"msgqueue\000"
 4814      75657565 
 4814      00
 4815              	.LASF137:
 4816 0bf9 7375626F 		.ascii	"suboptarg\000"
 4816      70746172 
 4816      6700
 4817              	.LASF56:
 4818 0c03 5F666E74 		.ascii	"_fntypes\000"
 4818      79706573 
 4818      00
 4819              	.LASF16:
 4820 0c0c 5F5F696E 		.ascii	"__int_least64_t\000"
 4820      745F6C65 
 4820      61737436 
 4820      345F7400 
 4821              	.LASF224:
 4822 0c1c 63685F73 		.ascii	"ch_system_debug\000"
 4822      79737465 
 4822      6D5F6465 
 4822      62756700 
 4823              	.LASF138:
 4824 0c2c 5F737973 		.ascii	"_sys_errlist\000"
 4824      5F657272 
 4824      6C697374 
 4824      00
 4825              	.LASF314:
 4826 0c39 64796E5F 		.ascii	"dyn_list_t\000"
 4826      6C697374 
 4826      5F7400
 4827              	.LASF49:
 4828 0c44 5F5F746D 		.ascii	"__tm_year\000"
 4828      5F796561 
 4828      7200
 4829              	.LASF307:
 4830 0c4e 6F626A65 		.ascii	"object_size\000"
 4830      63745F73 
 4830      697A6500 
 4831              	.LASF67:
 4832 0c5a 5F6C6266 		.ascii	"_lbfsize\000"
 4832      73697A65 
 4832      00
 4833              	.LASF232:
 4834 0c63 76746C69 		.ascii	"vtlist\000"
 4834      737400
 4835              	.LASF86:
 4836 0c6a 5F696E63 		.ascii	"_inc\000"
 4836      00
 4837              	.LASF59:
 4838 0c6f 5F696E64 		.ascii	"_ind\000"
ARM GAS  C:\Users\RAKIBU~1\AppData\Local\Temp\cc5tbduv.s 			page 96


 4838      00
 4839              	.LASF198:
 4840 0c74 77616974 		.ascii	"waiting\000"
 4840      696E6700 
 4841              	.LASF337:
 4842 0c7c 63685379 		.ascii	"chSysHalt\000"
 4842      7348616C 
 4842      7400
 4843              	.LASF61:
 4844 0c86 5F5F7362 		.ascii	"__sbuf\000"
 4844      756600
 4845              	.LASF334:
 4846 0c8d 5F6C7365 		.ascii	"_lseek_r\000"
 4846      656B5F72 
 4846      00
 4847              	.LASF312:
 4848 0c96 64796E5F 		.ascii	"dyn_element_t\000"
 4848      656C656D 
 4848      656E745F 
 4848      7400
 4849              	.LASF57:
 4850 0ca4 5F69735F 		.ascii	"_is_cxa\000"
 4850      63786100 
 4851              	.LASF17:
 4852 0cac 5F4C4F43 		.ascii	"_LOCK_T\000"
 4852      4B5F5400 
 4853              	.LASF299:
 4854 0cb4 6D757465 		.ascii	"mutex_t\000"
 4854      785F7400 
 4855              	.LASF162:
 4856 0cbc 73745F6D 		.ascii	"st_mode\000"
 4856      6F646500 
 4857              	.LASF22:
 4858 0cc4 5F5F7569 		.ascii	"__uid_t\000"
 4858      645F7400 
 4859              	.LASF130:
 4860 0ccc 5F6E6578 		.ascii	"_nextf\000"
 4860      746600
 4861              	.LASF243:
 4862 0cd3 706F7274 		.ascii	"port_context\000"
 4862      5F636F6E 
 4862      74657874 
 4862      00
 4863              	.LASF147:
 4864 0ce0 626C6B73 		.ascii	"blksize_t\000"
 4864      697A655F 
 4864      7400
 4865              	.LASF230:
 4866 0cea 63685F73 		.ascii	"ch_system\000"
 4866      79737465 
 4866      6D00
 4867              	.LASF89:
 4868 0cf4 5F6C6F63 		.ascii	"_locale\000"
 4868      616C6500 
 4869              	.LASF37:
 4870 0cfc 5F5F554C 		.ascii	"__ULong\000"
 4870      6F6E6700 
ARM GAS  C:\Users\RAKIBU~1\AppData\Local\Temp\cc5tbduv.s 			page 97


 4871              	.LASF191:
 4872 0d04 6E657765 		.ascii	"newer\000"
 4872      7200
 4873              	.LASF143:
 4874 0d0a 75696E74 		.ascii	"uint32_t\000"
 4874      33325F74 
 4874      00
 4875              	.LASF92:
 4876 0d13 5F726573 		.ascii	"_result\000"
 4876      756C7400 
 4877              	.LASF20:
 4878 0d1b 5F6F6666 		.ascii	"_off_t\000"
 4878      5F7400
 4879              	.LASF269:
 4880 0d22 7264796D 		.ascii	"rdymsg\000"
 4880      736700
 4881              	.LASF110:
 4882 0d29 5F616464 		.ascii	"_add\000"
 4882      00
 4883              	.LASF9:
 4884 0d2e 73686F72 		.ascii	"short unsigned int\000"
 4884      7420756E 
 4884      7369676E 
 4884      65642069 
 4884      6E7400
 4885              	.LASF46:
 4886 0d41 5F5F746D 		.ascii	"__tm_hour\000"
 4886      5F686F75 
 4886      7200
 4887              	.LASF229:
 4888 0d4b 63685F73 		.ascii	"ch_system_t\000"
 4888      79737465 
 4888      6D5F7400 
 4889              	.LASF297:
 4890 0d57 63686465 		.ascii	"chdebug_t\000"
 4890      6275675F 
 4890      7400
 4891              	.LASF126:
 4892 0d61 5F6D6273 		.ascii	"_mbsrtowcs_state\000"
 4892      72746F77 
 4892      63735F73 
 4892      74617465 
 4892      00
 4893              	.LASF211:
 4894 0d72 70726576 		.ascii	"prev\000"
 4894      00
 4895              	.LASF251:
 4896 0d77 74696D65 		.ascii	"time\000"
 4896      00
 4897              	.LASF10:
 4898 0d7c 5F5F696E 		.ascii	"__int32_t\000"
 4898      7433325F 
 4898      7400
 4899              	.LASF335:
 4900 0d86 5F726561 		.ascii	"_read_r\000"
 4900      645F7200 
 4901              	.LASF161:
ARM GAS  C:\Users\RAKIBU~1\AppData\Local\Temp\cc5tbduv.s 			page 98


 4902 0d8e 73745F69 		.ascii	"st_ino\000"
 4902      6E6F00
 4903              	.LASF305:
 4904 0d95 63685F6D 		.ascii	"ch_memcore\000"
 4904      656D636F 
 4904      726500
 4905              	.LASF293:
 4906 0da0 6F66665F 		.ascii	"off_flags\000"
 4906      666C6167 
 4906      7300
 4907              	.LASF35:
 4908 0daa 5F5F6E6C 		.ascii	"__nlink_t\000"
 4908      696E6B5F 
 4908      7400
 4909              	.LASF54:
 4910 0db4 5F666E61 		.ascii	"_fnargs\000"
 4910      72677300 
 4911              	.LASF52:
 4912 0dbc 5F5F746D 		.ascii	"__tm_isdst\000"
 4912      5F697364 
 4912      737400
 4913              	.LASF208:
 4914 0dc7 6E657874 		.ascii	"next\000"
 4914      00
 4915              	.LASF153:
 4916 0dcc 6769645F 		.ascii	"gid_t\000"
 4916      7400
 4917              	.LASF45:
 4918 0dd2 5F5F746D 		.ascii	"__tm_min\000"
 4918      5F6D696E 
 4918      00
 4919              	.LASF313:
 4920 0ddb 63685F64 		.ascii	"ch_dyn_list\000"
 4920      796E5F6C 
 4920      69737400 
 4921              	.LASF280:
 4922 0de7 6964656E 		.ascii	"identifier\000"
 4922      74696669 
 4922      657200
 4923              	.LASF123:
 4924 0df2 5F676574 		.ascii	"_getdate_err\000"
 4924      64617465 
 4924      5F657272 
 4924      00
 4925              	.LASF284:
 4926 0dff 74696D65 		.ascii	"timesize\000"
 4926      73697A65 
 4926      00
 4927              	.LASF273:
 4928 0e08 77747365 		.ascii	"wtsemp\000"
 4928      6D7000
 4929              	.LASF261:
 4930 0e0f 6C617374 		.ascii	"last\000"
 4930      00
 4931              		.ident	"GCC: (GNU Tools for Arm Embedded Processors 7-2017-q4-major) 7.2.1 20170904 (release) [ARM
ARM GAS  C:\Users\RAKIBU~1\AppData\Local\Temp\cc5tbduv.s 			page 99


DEFINED SYMBOLS
                            *ABS*:00000000 syscalls.c
C:\Users\RAKIBU~1\AppData\Local\Temp\cc5tbduv.s:15     .text:00000000 $t
C:\Users\RAKIBU~1\AppData\Local\Temp\cc5tbduv.s:23     .text:00000000 _read_r
C:\Users\RAKIBU~1\AppData\Local\Temp\cc5tbduv.s:51     .text:00000010 _lseek_r
C:\Users\RAKIBU~1\AppData\Local\Temp\cc5tbduv.s:74     .text:00000020 _write_r
C:\Users\RAKIBU~1\AppData\Local\Temp\cc5tbduv.s:97     .text:00000030 _close_r
C:\Users\RAKIBU~1\AppData\Local\Temp\cc5tbduv.s:120    .text:00000040 _sbrk_r
C:\Users\RAKIBU~1\AppData\Local\Temp\cc5tbduv.s:175    .text:0000006c $d
C:\Users\RAKIBU~1\AppData\Local\Temp\cc5tbduv.s:179    .text:00000070 $t
C:\Users\RAKIBU~1\AppData\Local\Temp\cc5tbduv.s:187    .text:00000070 _fstat_r
C:\Users\RAKIBU~1\AppData\Local\Temp\cc5tbduv.s:225    .text:00000090 _isatty_r
C:\Users\RAKIBU~1\AppData\Local\Temp\cc5tbduv.s:241    .rodata:00000000 $d
C:\Users\RAKIBU~1\AppData\Local\Temp\cc5tbduv.s:245    .rodata:00000000 __func__.8186

UNDEFINED SYMBOLS
chCoreAllocAlignedWithOffset
chSysHalt
memset
