ARM GAS  C:\Users\RAKIBU~1\AppData\Local\Temp\cc5tbduv.s 			page 1


   1              		.cpu cortex-m4
   2              		.eabi_attribute 20, 1
   3              		.eabi_attribute 21, 1
   4              		.eabi_attribute 23, 3
   5              		.eabi_attribute 24, 1
   6              		.eabi_attribute 25, 1
   7              		.eabi_attribute 26, 1
   8              		.eabi_attribute 30, 1
   9              		.eabi_attribute 34, 1
  10              		.eabi_attribute 18, 4
  11              		.file	"syscalls.c"
  12              		.text
  13              	.Ltext0:
  14              		.cfi_sections	.debug_frame
  15              		.align	1
  16              		.p2align 4,,15
  17              		.global	_read_r
  18              		.syntax unified
  19              		.thumb
  20              		.thumb_func
  21              		.fpu softvfp
  22              		.type	_read_r, %function
  23              	_read_r:
  24              	.LFB295:
  25              		.file 1 "../../../ChibiOSRepo/chibios191/os/various/syscalls.c"
  26              		.loc 1 72 0
  27              		.cfi_startproc
  28              		@ args = 0, pretend = 0, frame = 0
  29              		@ frame_needed = 0, uses_anonymous_args = 0
  30              		@ link register save eliminated.
  31              	.LVL0:
  32              		.loc 1 85 0
  33 0000 1623     		movs	r3, #22
  34              	.LVL1:
  35 0002 0360     		str	r3, [r0]
  36              		.loc 1 88 0
  37 0004 4FF0FF30 		mov	r0, #-1
  38              	.LVL2:
  39 0008 7047     		bx	lr
  40              		.cfi_endproc
  41              	.LFE295:
  42              		.size	_read_r, .-_read_r
  43              		.align	1
  44 000a 00BFAFF3 		.p2align 4,,15
  44      0080
  45              		.global	_lseek_r
  46              		.syntax unified
  47              		.thumb
  48              		.thumb_func
  49              		.fpu softvfp
  50              		.type	_lseek_r, %function
  51              	_lseek_r:
  52              	.LFB296:
  53              		.loc 1 94 0
  54              		.cfi_startproc
  55              		@ args = 0, pretend = 0, frame = 0
  56              		@ frame_needed = 0, uses_anonymous_args = 0
ARM GAS  C:\Users\RAKIBU~1\AppData\Local\Temp\cc5tbduv.s 			page 2


  57              		@ link register save eliminated.
  58              	.LVL3:
  59              		.loc 1 101 0
  60 0010 0020     		movs	r0, #0
  61              	.LVL4:
  62 0012 7047     		bx	lr
  63              		.cfi_endproc
  64              	.LFE296:
  65              		.size	_lseek_r, .-_lseek_r
  66              		.align	1
  67 0014 AFF30080 		.p2align 4,,15
  67      AFF30080 
  67      AFF30080 
  68              		.global	_write_r
  69              		.syntax unified
  70              		.thumb
  71              		.thumb_func
  72              		.fpu softvfp
  73              		.type	_write_r, %function
  74              	_write_r:
  75              	.LFB297:
  76              		.loc 1 107 0
  77              		.cfi_startproc
  78              		@ args = 0, pretend = 0, frame = 0
  79              		@ frame_needed = 0, uses_anonymous_args = 0
  80              		@ link register save eliminated.
  81              	.LVL5:
  82              		.loc 1 119 0
  83 0020 1846     		mov	r0, r3
  84              	.LVL6:
  85 0022 7047     		bx	lr
  86              		.cfi_endproc
  87              	.LFE297:
  88              		.size	_write_r, .-_write_r
  89              		.align	1
  90 0024 AFF30080 		.p2align 4,,15
  90      AFF30080 
  90      AFF30080 
  91              		.global	_close_r
  92              		.syntax unified
  93              		.thumb
  94              		.thumb_func
  95              		.fpu softvfp
  96              		.type	_close_r, %function
  97              	_close_r:
  98              	.LFB298:
  99              		.loc 1 125 0
 100              		.cfi_startproc
 101              		@ args = 0, pretend = 0, frame = 0
 102              		@ frame_needed = 0, uses_anonymous_args = 0
 103              		@ link register save eliminated.
 104              	.LVL7:
 105              		.loc 1 130 0
 106 0030 0020     		movs	r0, #0
 107              	.LVL8:
 108 0032 7047     		bx	lr
 109              		.cfi_endproc
ARM GAS  C:\Users\RAKIBU~1\AppData\Local\Temp\cc5tbduv.s 			page 3


 110              	.LFE298:
 111              		.size	_close_r, .-_close_r
 112              		.align	1
 113 0034 AFF30080 		.p2align 4,,15
 113      AFF30080 
 113      AFF30080 
 114              		.global	_sbrk_r
 115              		.syntax unified
 116              		.thumb
 117              		.thumb_func
 118              		.fpu softvfp
 119              		.type	_sbrk_r, %function
 120              	_sbrk_r:
 121              	.LFB299:
 122              		.loc 1 136 0
 123              		.cfi_startproc
 124              		@ args = 0, pretend = 0, frame = 0
 125              		@ frame_needed = 0, uses_anonymous_args = 0
 126              	.LVL9:
 127 0040 38B5     		push	{r3, r4, r5, lr}
 128              		.cfi_def_cfa_offset 16
 129              		.cfi_offset 3, -16
 130              		.cfi_offset 4, -12
 131              		.cfi_offset 5, -8
 132              		.cfi_offset 14, -4
 133 0042 0546     		mov	r5, r0
 134              		.loc 1 140 0
 135 0044 0C1E     		subs	r4, r1, #0
 136 0046 08DB     		blt	.L9
 137              	.LVL10:
 138              	.L6:
 139              	.LBB4:
 140              	.LBB5:
 141              		.file 2 "../../../ChibiOSRepo/chibios191/os/oslib/include/chmemcore.h"
 142              		.loc 2 191 0
 143 0048 0022     		movs	r2, #0
 144 004a 0421     		movs	r1, #4
 145 004c 2046     		mov	r0, r4
 146 004e FFF7FEFF 		bl	chCoreAllocAlignedWithOffset
 147              	.LVL11:
 148              	.LBE5:
 149              	.LBE4:
 150              		.loc 1 143 0
 151 0052 0346     		mov	r3, r0
 152 0054 28B1     		cbz	r0, .L10
 153              	.L5:
 154              		.loc 1 153 0
 155 0056 1846     		mov	r0, r3
 156 0058 38BD     		pop	{r3, r4, r5, pc}
 157              	.LVL12:
 158              	.L9:
 159              		.loc 1 140 0 discriminator 2
 160 005a 0448     		ldr	r0, .L11
 161              	.LVL13:
 162 005c FFF7FEFF 		bl	chSysHalt
 163              	.LVL14:
 164 0060 F2E7     		b	.L6
ARM GAS  C:\Users\RAKIBU~1\AppData\Local\Temp\cc5tbduv.s 			page 4


 165              	.L10:
 166              		.loc 1 144 0
 167 0062 0C23     		movs	r3, #12
 168 0064 2B60     		str	r3, [r5]
 169              		.loc 1 145 0
 170 0066 4FF0FF33 		mov	r3, #-1
 171 006a F4E7     		b	.L5
 172              	.L12:
 173              		.align	2
 174              	.L11:
 175 006c 00000000 		.word	.LANCHOR0
 176              		.cfi_endproc
 177              	.LFE299:
 178              		.size	_sbrk_r, .-_sbrk_r
 179              		.align	1
 180              		.p2align 4,,15
 181              		.global	_fstat_r
 182              		.syntax unified
 183              		.thumb
 184              		.thumb_func
 185              		.fpu softvfp
 186              		.type	_fstat_r, %function
 187              	_fstat_r:
 188              	.LFB300:
 189              		.loc 1 159 0
 190              		.cfi_startproc
 191              		@ args = 0, pretend = 0, frame = 0
 192              		@ frame_needed = 0, uses_anonymous_args = 0
 193              	.LVL15:
 194 0070 10B5     		push	{r4, lr}
 195              		.cfi_def_cfa_offset 8
 196              		.cfi_offset 4, -8
 197              		.cfi_offset 14, -4
 198 0072 1446     		mov	r4, r2
 199              		.loc 1 163 0
 200 0074 5822     		movs	r2, #88
 201              	.LVL16:
 202 0076 0021     		movs	r1, #0
 203              	.LVL17:
 204 0078 2046     		mov	r0, r4
 205              	.LVL18:
 206 007a FFF7FEFF 		bl	memset
 207              	.LVL19:
 208              		.loc 1 164 0
 209 007e 4FF40053 		mov	r3, #8192
 210 0082 6360     		str	r3, [r4, #4]
 211              		.loc 1 166 0
 212 0084 0020     		movs	r0, #0
 213 0086 10BD     		pop	{r4, pc}
 214              		.cfi_endproc
 215              	.LFE300:
 216              		.size	_fstat_r, .-_fstat_r
 217              		.align	1
 218 0088 AFF30080 		.p2align 4,,15
 218      AFF30080 
 219              		.global	_isatty_r
 220              		.syntax unified
ARM GAS  C:\Users\RAKIBU~1\AppData\Local\Temp\cc5tbduv.s 			page 5


 221              		.thumb
 222              		.thumb_func
 223              		.fpu softvfp
 224              		.type	_isatty_r, %function
 225              	_isatty_r:
 226              	.LFB301:
 227              		.loc 1 172 0
 228              		.cfi_startproc
 229              		@ args = 0, pretend = 0, frame = 0
 230              		@ frame_needed = 0, uses_anonymous_args = 0
 231              		@ link register save eliminated.
 232              	.LVL20:
 233              		.loc 1 177 0
 234 0090 0120     		movs	r0, #1
 235              	.LVL21:
 236 0092 7047     		bx	lr
 237              		.cfi_endproc
 238              	.LFE301:
 239              		.size	_isatty_r, .-_isatty_r
 240              		.section	.rodata
 241              		.align	2
 242              		.set	.LANCHOR0,. + 0
 243              		.type	__func__.8186, %object
 244              		.size	__func__.8186, 8
 245              	__func__.8186:
 246 0000 5F736272 		.ascii	"_sbrk_r\000"
 246      6B5F7200 
 247              		.text
 248              	.Letext0:
 249              		.file 3 "c:\\chibistudio\\tools\\gnu tools arm embedded\\7.0 2017q4\\lib\\gcc\\arm-none-eabi\\7.2.
 250              		.file 4 "c:\\chibistudio\\tools\\gnu tools arm embedded\\7.0 2017q4\\arm-none-eabi\\include\\machi
 251              		.file 5 "c:\\chibistudio\\tools\\gnu tools arm embedded\\7.0 2017q4\\arm-none-eabi\\include\\sys\\
 252              		.file 6 "c:\\chibistudio\\tools\\gnu tools arm embedded\\7.0 2017q4\\arm-none-eabi\\include\\sys\\
 253              		.file 7 "c:\\chibistudio\\tools\\gnu tools arm embedded\\7.0 2017q4\\arm-none-eabi\\include\\sys\\
 254              		.file 8 "c:\\chibistudio\\tools\\gnu tools arm embedded\\7.0 2017q4\\arm-none-eabi\\include\\stdli
 255              		.file 9 "c:\\chibistudio\\tools\\gnu tools arm embedded\\7.0 2017q4\\arm-none-eabi\\include\\sys\\
 256              		.file 10 "c:\\chibistudio\\tools\\gnu tools arm embedded\\7.0 2017q4\\arm-none-eabi\\include\\sys\
 257              		.file 11 "c:\\chibistudio\\tools\\gnu tools arm embedded\\7.0 2017q4\\arm-none-eabi\\include\\sys\
 258              		.file 12 "c:\\chibistudio\\tools\\gnu tools arm embedded\\7.0 2017q4\\arm-none-eabi\\include\\sys\
 259              		.file 13 "c:\\chibistudio\\tools\\gnu tools arm embedded\\7.0 2017q4\\arm-none-eabi\\include\\time
 260              		.file 14 "c:\\chibistudio\\tools\\gnu tools arm embedded\\7.0 2017q4\\arm-none-eabi\\include\\sys\
 261              		.file 15 "../../../ChibiOSRepo/chibios191/os/common/ports/ARMCMx/compilers/GCC/chtypes.h"
 262              		.file 16 "../../../ChibiOSRepo/chibios191/os/rt/include/chsystypes.h"
 263              		.file 17 "../../../ChibiOSRepo/chibios191/os/rt/include/chschd.h"
 264              		.file 18 "../../../ChibiOSRepo/chibios191/os/rt/include/chtime.h"
 265              		.file 19 "../../../ChibiOSRepo/chibios191/os/common/ext/ARM/CMSIS/Core/Include/core_cm4.h"
 266              		.file 20 "../../../ChibiOSRepo/chibios191/os/common/ext/ST/STM32F4xx/system_stm32f4xx.h"
 267              		.file 21 "../../../ChibiOSRepo/chibios191/os/common/ports/ARMCMx/chcore.h"
 268              		.file 22 "../../../ChibiOSRepo/chibios191/os/common/ports/ARMCMx/chcore_v7m.h"
 269              		.file 23 "../../../ChibiOSRepo/chibios191/os/rt/include/chtrace.h"
 270              		.file 24 "../../../ChibiOSRepo/chibios191/os/rt/include/chtm.h"
 271              		.file 25 "../../../ChibiOSRepo/chibios191/os/rt/include/chstats.h"
 272              		.file 26 "../../../ChibiOSRepo/chibios191/os/rt/include/chsem.h"
 273              		.file 27 "../../../ChibiOSRepo/chibios191/os/rt/include/chmtx.h"
 274              		.file 28 "../../../ChibiOSRepo/chibios191/os/rt/include/chsys.h"
 275              		.file 29 "../../../ChibiOSRepo/chibios191/os/rt/include/chregistry.h"
 276              		.file 30 "../../../ChibiOSRepo/chibios191/os/oslib/include/chmempools.h"
ARM GAS  C:\Users\RAKIBU~1\AppData\Local\Temp\cc5tbduv.s 			page 6


 277              		.file 31 "../../../ChibiOSRepo/chibios191/os/oslib/include/chfactory.h"
 278              		.file 32 "../../../ChibiOSRepo/chibios191/os/rt/include/ch.h"
 279              		.file 33 "<built-in>"