ARM GAS  C:\Users\RAKIBU~1\AppData\Local\Temp\ccVo8Jm3.s 			page 1


   1              		.cpu cortex-m4
   2              		.eabi_attribute 20, 1
   3              		.eabi_attribute 21, 1
   4              		.eabi_attribute 23, 3
   5              		.eabi_attribute 24, 1
   6              		.eabi_attribute 25, 1
   7              		.eabi_attribute 26, 1
   8              		.eabi_attribute 30, 1
   9              		.eabi_attribute 34, 1
  10              		.eabi_attribute 18, 4
  11              		.file	"xbee.c"
  12              		.text
  13              	.Ltext0:
  14              		.cfi_sections	.debug_frame
  15              		.align	1
  16              		.p2align 4,,15
  17              		.global	xbee_init
  18              		.syntax unified
  19              		.thumb
  20              		.thumb_func
  21              		.fpu softvfp
  22              		.type	xbee_init, %function
  23              	xbee_init:
  24              	.LFB328:
  25              		.file 1 "xbee/xbee.c"
  26              		.loc 1 28 0
  27              		.cfi_startproc
  28              		@ args = 0, pretend = 0, frame = 0
  29              		@ frame_needed = 0, uses_anonymous_args = 0
  30              	.LVL0:
  31 0000 10B5     		push	{r4, lr}
  32              		.cfi_def_cfa_offset 8
  33              		.cfi_offset 4, -8
  34              		.cfi_offset 14, -4
  35              		.loc 1 30 0
  36 0002 224B     		ldr	r3, .L7
  37 0004 1860     		str	r0, [r3]
  38              		.loc 1 31 0
  39 0006 224B     		ldr	r3, .L7+4
  40 0008 1960     		str	r1, [r3]
  41              		.loc 1 35 0
  42 000a 224C     		ldr	r4, .L7+8
  43 000c 0522     		movs	r2, #5
  44 000e 04F16401 		add	r1, r4, #100
  45              	.LVL1:
  46 0012 2046     		mov	r0, r4
  47              	.LVL2:
  48 0014 FFF7FEFF 		bl	chMBObjectInit
  49              	.LVL3:
  50              		.loc 1 36 0
  51 0018 0522     		movs	r2, #5
  52 001a 04F15001 		add	r1, r4, #80
  53 001e 04F12800 		add	r0, r4, #40
  54 0022 FFF7FEFF 		bl	chMBObjectInit
  55              	.LVL4:
  56              		.loc 1 40 0
  57 0026 0024     		movs	r4, #0
ARM GAS  C:\Users\RAKIBU~1\AppData\Local\Temp\ccVo8Jm3.s 			page 2


  58 0028 0BE0     		b	.L2
  59              	.LVL5:
  60              	.L3:
  61              		.loc 1 42 0 discriminator 3
  62 002a 1A48     		ldr	r0, .L7+8
  63 002c 5E21     		movs	r1, #94
  64 002e 01FB04F1 		mul	r1, r1, r4
  65 0032 F031     		adds	r1, r1, #240
  66 0034 0022     		movs	r2, #0
  67 0036 0023     		movs	r3, #0
  68 0038 0144     		add	r1, r1, r0
  69 003a 2830     		adds	r0, r0, #40
  70 003c FFF7FEFF 		bl	chMBPostTimeout
  71              	.LVL6:
  72              		.loc 1 40 0 discriminator 3
  73 0040 0134     		adds	r4, r4, #1
  74              	.LVL7:
  75              	.L2:
  76              		.loc 1 40 0 is_stmt 0 discriminator 1
  77 0042 042C     		cmp	r4, #4
  78 0044 F1D9     		bls	.L3
  79              		.loc 1 46 0 is_stmt 1
  80 0046 134C     		ldr	r4, .L7+8
  81              	.LVL8:
  82 0048 0522     		movs	r2, #5
  83 004a 04F1DC01 		add	r1, r4, #220
  84 004e 04F17800 		add	r0, r4, #120
  85 0052 FFF7FEFF 		bl	chMBObjectInit
  86              	.LVL9:
  87              		.loc 1 47 0
  88 0056 0522     		movs	r2, #5
  89 0058 04F1C801 		add	r1, r4, #200
  90 005c 04F1A000 		add	r0, r4, #160
  91 0060 FFF7FEFF 		bl	chMBObjectInit
  92              	.LVL10:
  93              		.loc 1 50 0
  94 0064 0024     		movs	r4, #0
  95 0066 0DE0     		b	.L4
  96              	.LVL11:
  97              	.L5:
  98              		.loc 1 52 0 discriminator 3
  99 0068 0A48     		ldr	r0, .L7+8
 100 006a 5E21     		movs	r1, #94
 101 006c 01FB04F1 		mul	r1, r1, r4
 102 0070 01F53071 		add	r1, r1, #704
 103 0074 0144     		add	r1, r1, r0
 104 0076 0022     		movs	r2, #0
 105 0078 0023     		movs	r3, #0
 106 007a 0631     		adds	r1, r1, #6
 107 007c A030     		adds	r0, r0, #160
 108 007e FFF7FEFF 		bl	chMBPostTimeout
 109              	.LVL12:
 110              		.loc 1 50 0 discriminator 3
 111 0082 0134     		adds	r4, r4, #1
 112              	.LVL13:
 113              	.L4:
 114              		.loc 1 50 0 is_stmt 0 discriminator 1
ARM GAS  C:\Users\RAKIBU~1\AppData\Local\Temp\ccVo8Jm3.s 			page 3


 115 0084 042C     		cmp	r4, #4
 116 0086 EFD9     		bls	.L5
 117              		.loc 1 56 0 is_stmt 1
 118 0088 0248     		ldr	r0, .L7+8
 119 008a 10BD     		pop	{r4, pc}
 120              	.LVL14:
 121              	.L8:
 122              		.align	2
 123              	.L7:
 124 008c 00000000 		.word	xbee_stream
 125 0090 00000000 		.word	debug_stream
 126 0094 00000000 		.word	.LANCHOR0
 127              		.cfi_endproc
 128              	.LFE328:
 129              		.size	xbee_init, .-xbee_init
 130              		.align	1
 131 0098 AFF30080 		.p2align 4,,15
 131      AFF30080 
 132              		.global	xbee_send_packet
 133              		.syntax unified
 134              		.thumb
 135              		.thumb_func
 136              		.fpu softvfp
 137              		.type	xbee_send_packet, %function
 138              	xbee_send_packet:
 139              	.LFB330:
 140              		.loc 1 170 0
 141              		.cfi_startproc
 142              		@ args = 0, pretend = 0, frame = 8
 143              		@ frame_needed = 0, uses_anonymous_args = 0
 144 00a0 30B5     		push	{r4, r5, lr}
 145              		.cfi_def_cfa_offset 12
 146              		.cfi_offset 4, -12
 147              		.cfi_offset 5, -8
 148              		.cfi_offset 14, -4
 149 00a2 85B0     		sub	sp, sp, #20
 150              		.cfi_def_cfa_offset 32
 151              		.loc 1 175 0
 152 00a4 22E0     		b	.L10
 153              	.L17:
 154              	.LBB56:
 155              		.loc 1 184 0
 156 00a6 1022     		movs	r2, #16
 157 00a8 9A70     		strb	r2, [r3, #2]
 158 00aa 32E0     		b	.L11
 159              	.LVL15:
 160              	.L13:
 161              		.loc 1 205 0 discriminator 3
 162 00ac 2F49     		ldr	r1, .L18
 163 00ae C95C     		ldrb	r1, [r1, r3]	@ zero_extendqisi2
 164 00b0 0A44     		add	r2, r2, r1
 165              	.LVL16:
 166 00b2 D2B2     		uxtb	r2, r2
 167              	.LVL17:
 168              		.loc 1 203 0 discriminator 3
 169 00b4 0133     		adds	r3, r3, #1
 170              	.LVL18:
ARM GAS  C:\Users\RAKIBU~1\AppData\Local\Temp\ccVo8Jm3.s 			page 4


 171 00b6 DBB2     		uxtb	r3, r3
 172              	.LVL19:
 173              	.L12:
 174              		.loc 1 203 0 is_stmt 0 discriminator 1
 175 00b8 2988     		ldrh	r1, [r5]
 176 00ba 0331     		adds	r1, r1, #3
 177 00bc 8B42     		cmp	r3, r1
 178 00be F5DB     		blt	.L13
 179              		.loc 1 207 0 is_stmt 1
 180 00c0 D243     		mvns	r2, r2
 181              	.LVL20:
 182              		.loc 1 208 0
 183 00c2 2A49     		ldr	r1, .L18
 184 00c4 CA54     		strb	r2, [r1, r3]
 185              		.loc 1 211 0
 186 00c6 2A4B     		ldr	r3, .L18+4
 187              	.LVL21:
 188 00c8 1868     		ldr	r0, [r3]
 189 00ca 2A88     		ldrh	r2, [r5]
 190              	.LVL22:
 191 00cc 4FF0FF34 		mov	r4, #-1
 192 00d0 4FF0FF35 		mov	r5, #-1
 193 00d4 CDE90045 		strd	r4, [sp]
 194 00d8 0432     		adds	r2, r2, #4
 195 00da 3030     		adds	r0, r0, #48
 196 00dc FFF7FEFF 		bl	oqWriteTimeout
 197              	.LVL23:
 198              		.loc 1 219 0
 199 00e0 0022     		movs	r2, #0
 200 00e2 0023     		movs	r3, #0
 201 00e4 0399     		ldr	r1, [sp, #12]
 202 00e6 2348     		ldr	r0, .L18+8
 203 00e8 FFF7FEFF 		bl	chMBPostTimeout
 204              	.LVL24:
 205              	.L10:
 206              	.LBE56:
 207              		.loc 1 175 0
 208 00ec 0022     		movs	r2, #0
 209 00ee 0023     		movs	r3, #0
 210 00f0 03A9     		add	r1, sp, #12
 211 00f2 2148     		ldr	r0, .L18+12
 212 00f4 FFF7FEFF 		bl	chMBFetchTimeout
 213              	.LVL25:
 214 00f8 0028     		cmp	r0, #0
 215 00fa 34D1     		bne	.L16
 216              	.LBB57:
 217              		.loc 1 178 0
 218 00fc 039A     		ldr	r2, [sp, #12]
 219 00fe 0E32     		adds	r2, r2, #14
 220 0100 1E49     		ldr	r1, .L18+16
 221 0102 1F4B     		ldr	r3, .L18+20
 222 0104 1868     		ldr	r0, [r3]
 223 0106 FFF7FEFF 		bl	chprintf
 224              	.LVL26:
 225              		.loc 1 181 0
 226 010a 039B     		ldr	r3, [sp, #12]
 227 010c 9A78     		ldrb	r2, [r3, #2]	@ zero_extendqisi2
ARM GAS  C:\Users\RAKIBU~1\AppData\Local\Temp\ccVo8Jm3.s 			page 5


 228 010e 902A     		cmp	r2, #144
 229 0110 C9D0     		beq	.L17
 230              	.L11:
 231              		.loc 1 186 0
 232 0112 039A     		ldr	r2, [sp, #12]
 233 0114 9389     		ldrh	r3, [r2, #12]
 234 0116 0E33     		adds	r3, r3, #14
 235 0118 1380     		strh	r3, [r2]	@ movhi
 236              		.loc 1 187 0
 237 011a 1448     		ldr	r0, .L18
 238 011c 7E23     		movs	r3, #126
 239 011e 0370     		strb	r3, [r0]
 240              		.loc 1 188 0
 241 0120 039D     		ldr	r5, [sp, #12]
 242 0122 2B88     		ldrh	r3, [r5]
 243 0124 1B0A     		lsrs	r3, r3, #8
 244 0126 4370     		strb	r3, [r0, #1]
 245              		.loc 1 189 0
 246 0128 2B78     		ldrb	r3, [r5]	@ zero_extendqisi2
 247 012a 8370     		strb	r3, [r0, #2]
 248              		.loc 1 190 0
 249 012c AB78     		ldrb	r3, [r5, #2]	@ zero_extendqisi2
 250 012e C370     		strb	r3, [r0, #3]
 251              		.loc 1 191 0
 252 0130 0123     		movs	r3, #1
 253 0132 0371     		strb	r3, [r0, #4]
 254              		.loc 1 192 0
 255 0134 D5F80330 		ldr	r3, [r5, #3]	@ unaligned
 256 0138 C0F80530 		str	r3, [r0, #5]	@ unaligned
 257              		.loc 1 193 0
 258 013c D5F80730 		ldr	r3, [r5, #7]	@ unaligned
 259 0140 C0F80930 		str	r3, [r0, #9]	@ unaligned
 260              		.loc 1 194 0
 261 0144 FF23     		movs	r3, #255
 262 0146 4373     		strb	r3, [r0, #13]
 263              		.loc 1 195 0
 264 0148 FE23     		movs	r3, #254
 265 014a 8373     		strb	r3, [r0, #14]
 266              		.loc 1 196 0
 267 014c 0024     		movs	r4, #0
 268 014e C473     		strb	r4, [r0, #15]
 269              		.loc 1 197 0
 270 0150 C123     		movs	r3, #193
 271 0152 0374     		strb	r3, [r0, #16]
 272              		.loc 1 198 0
 273 0154 AA89     		ldrh	r2, [r5, #12]
 274 0156 05F10E01 		add	r1, r5, #14
 275 015a 1130     		adds	r0, r0, #17
 276 015c FFF7FEFF 		bl	memcpy
 277              	.LVL27:
 278              		.loc 1 202 0
 279 0160 2246     		mov	r2, r4
 280              		.loc 1 203 0
 281 0162 0323     		movs	r3, #3
 282 0164 A8E7     		b	.L12
 283              	.LVL28:
 284              	.L16:
ARM GAS  C:\Users\RAKIBU~1\AppData\Local\Temp\ccVo8Jm3.s 			page 6


 285              	.LBE57:
 286              		.loc 1 222 0
 287 0166 05B0     		add	sp, sp, #20
 288              		.cfi_def_cfa_offset 12
 289              		@ sp needed
 290 0168 30BD     		pop	{r4, r5, pc}
 291              	.L19:
 292 016a 00BF     		.align	2
 293              	.L18:
 294 016c 00000000 		.word	xbee_tx_buffer
 295 0170 00000000 		.word	xbee_stream
 296 0174 A0000000 		.word	.LANCHOR0+160
 297 0178 78000000 		.word	.LANCHOR0+120
 298 017c 00000000 		.word	.LC0
 299 0180 00000000 		.word	debug_stream
 300              		.cfi_endproc
 301              	.LFE330:
 302              		.size	xbee_send_packet, .-xbee_send_packet
 303              		.global	__aeabi_uldivmod
 304              		.align	1
 305 0184 AFF30080 		.p2align 4,,15
 305      AFF30080 
 305      AFF30080 
 306              		.global	xbee_process_packet
 307              		.syntax unified
 308              		.thumb
 309              		.thumb_func
 310              		.fpu softvfp
 311              		.type	xbee_process_packet, %function
 312              	xbee_process_packet:
 313              	.LFB331:
 314              		.loc 1 229 0
 315              		.cfi_startproc
 316              		@ args = 0, pretend = 0, frame = 8
 317              		@ frame_needed = 0, uses_anonymous_args = 0
 318 0190 2DE9F04B 		push	{r4, r5, r6, r7, r8, r9, fp, lr}
 319              		.cfi_def_cfa_offset 32
 320              		.cfi_offset 4, -32
 321              		.cfi_offset 5, -28
 322              		.cfi_offset 6, -24
 323              		.cfi_offset 7, -20
 324              		.cfi_offset 8, -16
 325              		.cfi_offset 9, -12
 326              		.cfi_offset 11, -8
 327              		.cfi_offset 14, -4
 328 0194 82B0     		sub	sp, sp, #8
 329              		.cfi_def_cfa_offset 40
 330              		.loc 1 232 0
 331 0196 3E4B     		ldr	r3, .L29
 332 0198 9B78     		ldrb	r3, [r3, #2]	@ zero_extendqisi2
 333 019a 8B2B     		cmp	r3, #139
 334 019c 72D0     		beq	.L22
 335 019e 902B     		cmp	r3, #144
 336 01a0 03D0     		beq	.L27
 337              	.L21:
 338              		.loc 1 271 0
 339 01a2 0020     		movs	r0, #0
ARM GAS  C:\Users\RAKIBU~1\AppData\Local\Temp\ccVo8Jm3.s 			page 7


 340 01a4 02B0     		add	sp, sp, #8
 341              		.cfi_remember_state
 342              		.cfi_def_cfa_offset 32
 343              		@ sp needed
 344 01a6 BDE8F08B 		pop	{r4, r5, r6, r7, r8, r9, fp, pc}
 345              	.L27:
 346              		.cfi_restore_state
 347              	.LVL29:
 348              	.LBB75:
 349              	.LBB76:
 350              	.LBB77:
 351              	.LBB78:
 352              	.LBB79:
 353              	.LBB80:
 354              	.LBB81:
 355              	.LBB82:
 356              		.file 2 "../../../ChibiOSRepo/chibios191/os/common/ext/ARM/CMSIS/Core/Include/cmsis_gcc.h"
 357              		.loc 2 493 0
 358 01aa 2023     		movs	r3, #32
 359              		.syntax unified
 360              	@ 493 "../../../ChibiOSRepo/chibios191/os/common/ext/ARM/CMSIS/Core/Include/cmsis_gcc.h" 1
 361 01ac 83F31188 		MSR basepri, r3
 362              	@ 0 "" 2
 363              	.LVL30:
 364              		.thumb
 365              		.syntax unified
 366              	.LBE82:
 367              	.LBE81:
 368              	.LBE80:
 369              		.file 3 "../../../ChibiOSRepo/chibios191/os/rt/include/chsys.h"
 370              		.loc 3 356 0
 371 01b0 FFF7FEFF 		bl	_stats_start_measure_crit_thd
 372              	.LVL31:
 373              		.loc 3 357 0
 374 01b4 FFF7FEFF 		bl	_dbg_check_lock
 375              	.LVL32:
 376              	.LBE79:
 377              	.LBE78:
 378              	.LBB83:
 379              	.LBB84:
 380              	.LBB85:
 381              	.LBB86:
 382              		.file 4 "../../../ChibiOSRepo/chibios191/os/hal/ports/STM32/LLD/TIMv1/hal_st_lld.h"
 383              		.loc 4 147 0
 384 01b8 4FF08043 		mov	r3, #1073741824
 385 01bc 5C6A     		ldr	r4, [r3, #36]
 386              	.LBE86:
 387              	.LBE85:
 388              	.LBE84:
 389              	.LBE83:
 390              	.LBB87:
 391              	.LBB88:
 392              		.loc 3 367 0
 393 01be FFF7FEFF 		bl	_dbg_check_unlock
 394              	.LVL33:
 395              		.loc 3 368 0
 396 01c2 FFF7FEFF 		bl	_stats_stop_measure_crit_thd
ARM GAS  C:\Users\RAKIBU~1\AppData\Local\Temp\ccVo8Jm3.s 			page 8


 397              	.LVL34:
 398              		.loc 3 374 0
 399 01c6 334B     		ldr	r3, .L29+4
 400 01c8 1A68     		ldr	r2, [r3]
 401 01ca 9A42     		cmp	r2, r3
 402 01cc 04D0     		beq	.L25
 403 01ce 9B69     		ldr	r3, [r3, #24]
 404 01d0 9968     		ldr	r1, [r3, #8]
 405 01d2 9368     		ldr	r3, [r2, #8]
 406 01d4 9942     		cmp	r1, r3
 407 01d6 51D3     		bcc	.L28
 408              	.L25:
 409              	.LVL35:
 410              	.LBB89:
 411              	.LBB90:
 412              	.LBB91:
 413              		.loc 2 493 0
 414 01d8 0025     		movs	r5, #0
 415              		.syntax unified
 416              	@ 493 "../../../ChibiOSRepo/chibios191/os/common/ext/ARM/CMSIS/Core/Include/cmsis_gcc.h" 1
 417 01da 85F31188 		MSR basepri, r5
 418              	@ 0 "" 2
 419              	.LVL36:
 420              		.thumb
 421              		.syntax unified
 422              	.LBE91:
 423              	.LBE90:
 424              	.LBE89:
 425              	.LBE88:
 426              	.LBE87:
 427              	.LBE77:
 428              	.LBE76:
 429              		.loc 1 237 0
 430 01de 0027     		movs	r7, #0
 431 01e0 6001     		lsls	r0, r4, #5
 432 01e2 E10E     		lsrs	r1, r4, #27
 433 01e4 001B     		subs	r0, r0, r4
 434 01e6 61EB0701 		sbc	r1, r1, r7
 435 01ea 8B00     		lsls	r3, r1, #2
 436 01ec 43EA9073 		orr	r3, r3, r0, lsr #30
 437 01f0 8200     		lsls	r2, r0, #2
 438 01f2 12EB040B 		adds	fp, r2, r4
 439 01f6 43EB070C 		adc	ip, r3, r7
 440 01fa 4FEACC03 		lsl	r3, ip, #3
 441 01fe 43EA5B73 		orr	r3, r3, fp, lsr #29
 442 0202 4FEACB02 		lsl	r2, fp, #3
 443 0206 9346     		mov	fp, r2
 444 0208 9C46     		mov	ip, r3
 445 020a 234A     		ldr	r2, .L29+8
 446 020c 0023     		movs	r3, #0
 447 020e 234E     		ldr	r6, .L29+12
 448 0210 0027     		movs	r7, #0
 449 0212 1BEB0600 		adds	r0, fp, r6
 450 0216 4CEB0701 		adc	r1, ip, r7
 451 021a FFF7FEFF 		bl	__aeabi_uldivmod
 452              	.LVL37:
 453 021e DFF89080 		ldr	r8, .L29+32
ARM GAS  C:\Users\RAKIBU~1\AppData\Local\Temp\ccVo8Jm3.s 			page 9


 454 0222 C8F89C04 		str	r0, [r8, #1180]
 455              		.loc 1 239 0
 456 0226 1A4E     		ldr	r6, .L29
 457 0228 3488     		ldrh	r4, [r6]
 458 022a 0C3C     		subs	r4, r4, #12
 459 022c A4B2     		uxth	r4, r4
 460 022e B481     		strh	r4, [r6, #12]	@ movhi
 461              		.loc 1 240 0
 462 0230 1B4F     		ldr	r7, .L29+16
 463 0232 2246     		mov	r2, r4
 464 0234 3946     		mov	r1, r7
 465 0236 06F10E00 		add	r0, r6, #14
 466 023a FFF7FEFF 		bl	memcpy
 467              	.LVL38:
 468              		.loc 1 241 0
 469 023e 3444     		add	r4, r4, r6
 470 0240 A573     		strb	r5, [r4, #14]
 471              		.loc 1 242 0
 472 0242 57F80B3C 		ldr	r3, [r7, #-11]	@ unaligned
 473 0246 C6F80330 		str	r3, [r6, #3]	@ unaligned
 474              		.loc 1 243 0
 475 024a 57F8073C 		ldr	r3, [r7, #-7]	@ unaligned
 476 024e C6F80730 		str	r3, [r6, #7]	@ unaligned
 477              		.loc 1 246 0
 478 0252 0022     		movs	r2, #0
 479 0254 0023     		movs	r3, #0
 480 0256 01A9     		add	r1, sp, #4
 481 0258 08F12800 		add	r0, r8, #40
 482 025c FFF7FEFF 		bl	chMBFetchTimeout
 483              	.LVL39:
 484 0260 0028     		cmp	r0, #0
 485 0262 9ED1     		bne	.L21
 486              		.loc 1 248 0
 487 0264 5E22     		movs	r2, #94
 488 0266 3146     		mov	r1, r6
 489 0268 0198     		ldr	r0, [sp, #4]
 490 026a FFF7FEFF 		bl	memcpy
 491              	.LVL40:
 492              		.loc 1 249 0
 493 026e 0022     		movs	r2, #0
 494 0270 0023     		movs	r3, #0
 495 0272 0199     		ldr	r1, [sp, #4]
 496 0274 4046     		mov	r0, r8
 497 0276 FFF7FEFF 		bl	chMBPostTimeout
 498              	.LVL41:
 499 027a 92E7     		b	.L21
 500              	.L28:
 501              	.LBB95:
 502              	.LBB94:
 503              	.LBB93:
 504              	.LBB92:
 505              		.loc 3 374 0
 506 027c 0948     		ldr	r0, .L29+20
 507 027e FFF7FEFF 		bl	chSysHalt
 508              	.LVL42:
 509 0282 A9E7     		b	.L25
 510              	.L22:
ARM GAS  C:\Users\RAKIBU~1\AppData\Local\Temp\ccVo8Jm3.s 			page 10


 511              	.LBE92:
 512              	.LBE93:
 513              	.LBE94:
 514              	.LBE95:
 515              		.loc 1 265 0
 516 0284 0849     		ldr	r1, .L29+24
 517 0286 094B     		ldr	r3, .L29+28
 518 0288 1868     		ldr	r0, [r3]
 519 028a FFF7FEFF 		bl	chprintf
 520              	.LVL43:
 521              		.loc 1 267 0
 522 028e 88E7     		b	.L21
 523              	.L30:
 524              		.align	2
 525              	.L29:
 526 0290 00000000 		.word	new_packet
 527 0294 00000000 		.word	ch
 528 0298 A0860100 		.word	100000
 529 029c 9F860100 		.word	99999
 530 02a0 0F000000 		.word	xbee_com_buffer+15
 531 02a4 00000000 		.word	.LANCHOR1
 532 02a8 1C000000 		.word	.LC1
 533 02ac 00000000 		.word	debug_stream
 534 02b0 00000000 		.word	.LANCHOR0
 535              	.LBE75:
 536              		.cfi_endproc
 537              	.LFE331:
 538              		.size	xbee_process_packet, .-xbee_process_packet
 539              		.align	1
 540 02b4 AFF30080 		.p2align 4,,15
 540      AFF30080 
 540      AFF30080 
 541              		.global	xbee_com_parse
 542              		.syntax unified
 543              		.thumb
 544              		.thumb_func
 545              		.fpu softvfp
 546              		.type	xbee_com_parse, %function
 547              	xbee_com_parse:
 548              	.LFB329:
 549              		.loc 1 63 0
 550              		.cfi_startproc
 551              		@ args = 0, pretend = 0, frame = 0
 552              		@ frame_needed = 0, uses_anonymous_args = 0
 553 02c0 2DE9F04B 		push	{r4, r5, r6, r7, r8, r9, fp, lr}
 554              		.cfi_def_cfa_offset 32
 555              		.cfi_offset 4, -32
 556              		.cfi_offset 5, -28
 557              		.cfi_offset 6, -24
 558              		.cfi_offset 7, -20
 559              		.cfi_offset 8, -16
 560              		.cfi_offset 9, -12
 561              		.cfi_offset 11, -8
 562              		.cfi_offset 14, -4
 563              		.loc 1 72 0
 564 02c4 634B     		ldr	r3, .L49
 565 02c6 1868     		ldr	r0, [r3]
ARM GAS  C:\Users\RAKIBU~1\AppData\Local\Temp\ccVo8Jm3.s 			page 11


 566 02c8 0022     		movs	r2, #0
 567 02ca 0023     		movs	r3, #0
 568 02cc 0C30     		adds	r0, r0, #12
 569 02ce FFF7FEFF 		bl	iqGetTimeout
 570              	.LVL44:
 571 02d2 0446     		mov	r4, r0
 572              	.LVL45:
 573              		.loc 1 75 0
 574 02d4 2BE0     		b	.L32
 575              	.LVL46:
 576              	.L47:
 577              	.LBB113:
 578              	.LBB114:
 579              	.LBB115:
 580              	.LBB116:
 581              		.loc 3 374 0
 582 02d6 6048     		ldr	r0, .L49+4
 583 02d8 FFF7FEFF 		bl	chSysHalt
 584              	.LVL47:
 585 02dc 42E0     		b	.L33
 586              	.LVL48:
 587              	.L48:
 588              	.LBE116:
 589              	.LBE115:
 590              	.LBE114:
 591              	.LBE113:
 592              		.loc 1 83 0
 593 02de E2B2     		uxtb	r2, r4
 594 02e0 5E49     		ldr	r1, .L49+8
 595 02e2 5F4B     		ldr	r3, .L49+12
 596 02e4 1868     		ldr	r0, [r3]
 597              	.LVL49:
 598 02e6 FFF7FEFF 		bl	chprintf
 599              	.LVL50:
 600              		.loc 1 85 0
 601 02ea 5E4B     		ldr	r3, .L49+16
 602 02ec 0022     		movs	r2, #0
 603 02ee A3F8A424 		strh	r2, [r3, #1188]	@ movhi
 604 02f2 66E0     		b	.L34
 605              	.LVL51:
 606              	.L35:
 607              		.loc 1 100 0
 608 02f4 5B4B     		ldr	r3, .L49+16
 609 02f6 B3F8A434 		ldrh	r3, [r3, #1188]
 610 02fa 002B     		cmp	r3, #0
 611 02fc 6DD1     		bne	.L44
 612              	.LVL52:
 613              	.L37:
 614              		.loc 1 107 0
 615 02fe 594B     		ldr	r3, .L49+16
 616 0300 0022     		movs	r2, #0
 617 0302 A3F8A424 		strh	r2, [r3, #1188]	@ movhi
 618              	.L36:
 619              		.loc 1 109 0
 620 0306 574A     		ldr	r2, .L49+16
 621 0308 B2F8A414 		ldrh	r1, [r2, #1188]
 622 030c 4B1C     		adds	r3, r1, #1
ARM GAS  C:\Users\RAKIBU~1\AppData\Local\Temp\ccVo8Jm3.s 			page 12


 623 030e 9BB2     		uxth	r3, r3
 624 0310 A2F8A434 		strh	r3, [r2, #1188]	@ movhi
 625 0314 544A     		ldr	r2, .L49+20
 626 0316 5554     		strb	r5, [r2, r1]
 627              		.loc 1 115 0
 628 0318 1278     		ldrb	r2, [r2]	@ zero_extendqisi2
 629 031a 7E2A     		cmp	r2, #126
 630 031c 64D0     		beq	.L45
 631              	.LVL53:
 632              	.L38:
 633              		.loc 1 161 0
 634 031e 4D4B     		ldr	r3, .L49
 635 0320 1868     		ldr	r0, [r3]
 636 0322 0222     		movs	r2, #2
 637 0324 0023     		movs	r3, #0
 638 0326 0C30     		adds	r0, r0, #12
 639 0328 FFF7FEFF 		bl	iqGetTimeout
 640              	.LVL54:
 641 032c 0446     		mov	r4, r0
 642              	.LVL55:
 643              	.L32:
 644              		.loc 1 75 0
 645 032e B4F1FF3F 		cmp	r4, #-1
 646 0332 00F08C80 		beq	.L46
 647              	.LVL56:
 648              	.LBB132:
 649              	.LBB131:
 650              	.LBB121:
 651              	.LBB122:
 652              	.LBB123:
 653              	.LBB124:
 654              	.LBB125:
 655              		.loc 2 493 0
 656 0336 2023     		movs	r3, #32
 657              		.syntax unified
 658              	@ 493 "../../../ChibiOSRepo/chibios191/os/common/ext/ARM/CMSIS/Core/Include/cmsis_gcc.h" 1
 659 0338 83F31188 		MSR basepri, r3
 660              	@ 0 "" 2
 661              	.LVL57:
 662              		.thumb
 663              		.syntax unified
 664              	.LBE125:
 665              	.LBE124:
 666              	.LBE123:
 667              		.loc 3 356 0
 668 033c FFF7FEFF 		bl	_stats_start_measure_crit_thd
 669              	.LVL58:
 670              		.loc 3 357 0
 671 0340 FFF7FEFF 		bl	_dbg_check_lock
 672              	.LVL59:
 673              	.LBE122:
 674              	.LBE121:
 675              	.LBB126:
 676              	.LBB127:
 677              	.LBB128:
 678              	.LBB129:
 679              		.loc 4 147 0
ARM GAS  C:\Users\RAKIBU~1\AppData\Local\Temp\ccVo8Jm3.s 			page 13


 680 0344 4FF08043 		mov	r3, #1073741824
 681 0348 5D6A     		ldr	r5, [r3, #36]
 682              	.LBE129:
 683              	.LBE128:
 684              	.LBE127:
 685              	.LBE126:
 686              	.LBB130:
 687              	.LBB120:
 688              		.loc 3 367 0
 689 034a FFF7FEFF 		bl	_dbg_check_unlock
 690              	.LVL60:
 691              		.loc 3 368 0
 692 034e FFF7FEFF 		bl	_stats_stop_measure_crit_thd
 693              	.LVL61:
 694              		.loc 3 374 0
 695 0352 464B     		ldr	r3, .L49+24
 696 0354 1A68     		ldr	r2, [r3]
 697 0356 9A42     		cmp	r2, r3
 698 0358 04D0     		beq	.L33
 699 035a 9B69     		ldr	r3, [r3, #24]
 700 035c 9968     		ldr	r1, [r3, #8]
 701 035e 9368     		ldr	r3, [r2, #8]
 702 0360 9942     		cmp	r1, r3
 703 0362 B8D3     		bcc	.L47
 704              	.L33:
 705              	.LVL62:
 706              	.LBB117:
 707              	.LBB118:
 708              	.LBB119:
 709              		.loc 2 493 0
 710 0364 0023     		movs	r3, #0
 711              		.syntax unified
 712              	@ 493 "../../../ChibiOSRepo/chibios191/os/common/ext/ARM/CMSIS/Core/Include/cmsis_gcc.h" 1
 713 0366 83F31188 		MSR basepri, r3
 714              	@ 0 "" 2
 715              	.LVL63:
 716              		.thumb
 717              		.syntax unified
 718              	.LBE119:
 719              	.LBE118:
 720              	.LBE117:
 721              	.LBE120:
 722              	.LBE130:
 723              	.LBE131:
 724              	.LBE132:
 725              		.loc 1 77 0
 726 036a 0027     		movs	r7, #0
 727 036c 6801     		lsls	r0, r5, #5
 728 036e E90E     		lsrs	r1, r5, #27
 729 0370 401B     		subs	r0, r0, r5
 730 0372 61EB0701 		sbc	r1, r1, r7
 731 0376 8B00     		lsls	r3, r1, #2
 732 0378 43EA9073 		orr	r3, r3, r0, lsr #30
 733 037c 8200     		lsls	r2, r0, #2
 734 037e 12EB0508 		adds	r8, r2, r5
 735 0382 43EB0709 		adc	r9, r3, r7
 736 0386 4FEAC903 		lsl	r3, r9, #3
ARM GAS  C:\Users\RAKIBU~1\AppData\Local\Temp\ccVo8Jm3.s 			page 14


 737 038a 43EA5873 		orr	r3, r3, r8, lsr #29
 738 038e 4FEAC802 		lsl	r2, r8, #3
 739 0392 9046     		mov	r8, r2
 740 0394 9946     		mov	r9, r3
 741 0396 364A     		ldr	r2, .L49+28
 742 0398 0023     		movs	r3, #0
 743 039a 364E     		ldr	r6, .L49+32
 744 039c 0027     		movs	r7, #0
 745 039e 18EB0600 		adds	r0, r8, r6
 746 03a2 49EB0701 		adc	r1, r9, r7
 747 03a6 FFF7FEFF 		bl	__aeabi_uldivmod
 748              	.LVL64:
 749 03aa 0546     		mov	r5, r0
 750              	.LVL65:
 751              		.loc 1 79 0
 752 03ac 2D4B     		ldr	r3, .L49+16
 753 03ae D3F8A034 		ldr	r3, [r3, #1184]
 754 03b2 C31A     		subs	r3, r0, r3
 755 03b4 642B     		cmp	r3, #100
 756 03b6 04D9     		bls	.L34
 757              		.loc 1 79 0 is_stmt 0 discriminator 1
 758 03b8 2A4B     		ldr	r3, .L49+16
 759 03ba B3F8A434 		ldrh	r3, [r3, #1188]
 760 03be 002B     		cmp	r3, #0
 761 03c0 8DD1     		bne	.L48
 762              	.LVL66:
 763              	.L34:
 764              		.loc 1 87 0 is_stmt 1
 765 03c2 284B     		ldr	r3, .L49+16
 766 03c4 C3F8A054 		str	r5, [r3, #1184]
 767              		.loc 1 93 0
 768 03c8 E5B2     		uxtb	r5, r4
 769              	.LVL67:
 770              		.loc 1 98 0
 771 03ca 7E2D     		cmp	r5, #126
 772 03cc 92D0     		beq	.L35
 773              		.loc 1 98 0 is_stmt 0 discriminator 1
 774 03ce B3F8A434 		ldrh	r3, [r3, #1188]
 775 03d2 B3F5807F 		cmp	r3, #256
 776 03d6 96D1     		bne	.L36
 777 03d8 8CE7     		b	.L35
 778              	.L44:
 779              		.loc 1 104 0 is_stmt 1
 780 03da E2B2     		uxtb	r2, r4
 781 03dc 1F49     		ldr	r1, .L49+8
 782 03de 204B     		ldr	r3, .L49+12
 783 03e0 1868     		ldr	r0, [r3]
 784 03e2 FFF7FEFF 		bl	chprintf
 785              	.LVL68:
 786 03e6 8AE7     		b	.L37
 787              	.L45:
 788              		.loc 1 115 0 discriminator 1
 789 03e8 042B     		cmp	r3, #4
 790 03ea 98D9     		bls	.L38
 791              		.loc 1 121 0
 792 03ec 1E49     		ldr	r1, .L49+20
 793 03ee 4878     		ldrb	r0, [r1, #1]	@ zero_extendqisi2
ARM GAS  C:\Users\RAKIBU~1\AppData\Local\Temp\ccVo8Jm3.s 			page 15


 794 03f0 8A78     		ldrb	r2, [r1, #2]	@ zero_extendqisi2
 795 03f2 02EB0022 		add	r2, r2, r0, lsl #8
 796 03f6 92B2     		uxth	r2, r2
 797 03f8 1F49     		ldr	r1, .L49+36
 798 03fa 0A80     		strh	r2, [r1]	@ movhi
 799              		.loc 1 128 0
 800 03fc 0432     		adds	r2, r2, #4
 801 03fe 9342     		cmp	r3, r2
 802 0400 8DD1     		bne	.L38
 803              	.LBB133:
 804              		.loc 1 132 0
 805 0402 0025     		movs	r5, #0
 806              	.LVL69:
 807              		.loc 1 133 0
 808 0404 0324     		movs	r4, #3
 809              	.LVL70:
 810 0406 0AE0     		b	.L39
 811              	.LVL71:
 812              	.L40:
 813              		.loc 1 135 0 discriminator 3
 814 0408 174B     		ldr	r3, .L49+20
 815 040a 1A5D     		ldrb	r2, [r3, r4]	@ zero_extendqisi2
 816 040c 1544     		add	r5, r5, r2
 817              	.LVL72:
 818 040e EDB2     		uxtb	r5, r5
 819              	.LVL73:
 820              		.loc 1 137 0 discriminator 3
 821 0410 1A49     		ldr	r1, .L49+40
 822 0412 134B     		ldr	r3, .L49+12
 823 0414 1868     		ldr	r0, [r3]
 824 0416 FFF7FEFF 		bl	chprintf
 825              	.LVL74:
 826              		.loc 1 133 0 discriminator 3
 827 041a 0134     		adds	r4, r4, #1
 828              	.LVL75:
 829 041c E4B2     		uxtb	r4, r4
 830              	.LVL76:
 831              	.L39:
 832              		.loc 1 133 0 is_stmt 0 discriminator 1
 833 041e 114B     		ldr	r3, .L49+16
 834 0420 B3F8A434 		ldrh	r3, [r3, #1188]
 835 0424 013B     		subs	r3, r3, #1
 836 0426 9C42     		cmp	r4, r3
 837 0428 EEDB     		blt	.L40
 838              		.loc 1 141 0 is_stmt 1
 839 042a ED43     		mvns	r5, r5
 840              	.LVL77:
 841 042c EDB2     		uxtb	r5, r5
 842              	.LVL78:
 843              		.loc 1 145 0
 844 042e 0E4B     		ldr	r3, .L49+20
 845 0430 1B5D     		ldrb	r3, [r3, r4]	@ zero_extendqisi2
 846 0432 AB42     		cmp	r3, r5
 847 0434 7FF473AF 		bne	.L38
 848              		.loc 1 152 0
 849 0438 0B4B     		ldr	r3, .L49+20
 850 043a DA78     		ldrb	r2, [r3, #3]	@ zero_extendqisi2
ARM GAS  C:\Users\RAKIBU~1\AppData\Local\Temp\ccVo8Jm3.s 			page 16


 851 043c 0E4B     		ldr	r3, .L49+36
 852 043e 9A70     		strb	r2, [r3, #2]
 853              		.loc 1 153 0
 854 0440 FFF7FEFF 		bl	xbee_process_packet
 855              	.LVL79:
 856              		.loc 1 154 0
 857 0444 074B     		ldr	r3, .L49+16
 858 0446 0022     		movs	r2, #0
 859 0448 A3F8A424 		strh	r2, [r3, #1188]	@ movhi
 860 044c 67E7     		b	.L38
 861              	.LVL80:
 862              	.L46:
 863              	.LBE133:
 864              		.loc 1 164 0
 865 044e BDE8F08B 		pop	{r4, r5, r6, r7, r8, r9, fp, pc}
 866              	.L50:
 867 0452 00BF     		.align	2
 868              	.L49:
 869 0454 00000000 		.word	xbee_stream
 870 0458 00000000 		.word	.LANCHOR1
 871 045c 40000000 		.word	.LC2
 872 0460 00000000 		.word	debug_stream
 873 0464 00000000 		.word	.LANCHOR0
 874 0468 00000000 		.word	xbee_com_buffer
 875 046c 00000000 		.word	ch
 876 0470 A0860100 		.word	100000
 877 0474 9F860100 		.word	99999
 878 0478 00000000 		.word	new_packet
 879 047c 5C000000 		.word	.LC3
 880              		.cfi_endproc
 881              	.LFE329:
 882              		.size	xbee_com_parse, .-xbee_com_parse
 883              		.global	lastXB_CMD_mS
 884              		.global	lastXB_RX_mS
 885              		.comm	packet_length,2,2
 886              		.comm	new_packet,94,4
 887              		.comm	xbee_tx_buffer,256,4
 888              		.comm	xbee_com_buffer,256,4
 889              		.comm	xbee_cmd_buffer,256,4
 890              		.global	buf_end_pos
 891              		.global	buf_start_pos
 892              		.comm	debug_stream,4,4
 893              		.comm	xbee_stream,4,4
 894              		.section	.rodata
 895              		.align	2
 896              		.set	.LANCHOR1,. + 0
 897              		.type	__func__.6118, %object
 898              		.size	__func__.6118, 12
 899              	__func__.6118:
 900 0000 63685379 		.ascii	"chSysUnlock\000"
 900      73556E6C 
 900      6F636B00 
 901              		.bss
 902              		.align	2
 903              		.set	.LANCHOR0,. + 0
 904              		.type	xbee_mailbox, %object
 905              		.size	xbee_mailbox, 1180
ARM GAS  C:\Users\RAKIBU~1\AppData\Local\Temp\ccVo8Jm3.s 			page 17


 906              	xbee_mailbox:
 907 0000 00000000 		.space	1180
 907      00000000 
 907      00000000 
 907      00000000 
 907      00000000 
 908              		.type	lastXB_CMD_mS, %object
 909              		.size	lastXB_CMD_mS, 4
 910              	lastXB_CMD_mS:
 911 049c 00000000 		.space	4
 912              		.type	lastXB_RX_mS, %object
 913              		.size	lastXB_RX_mS, 4
 914              	lastXB_RX_mS:
 915 04a0 00000000 		.space	4
 916              		.type	buf_end_pos, %object
 917              		.size	buf_end_pos, 2
 918              	buf_end_pos:
 919 04a4 0000     		.space	2
 920              		.type	buf_start_pos, %object
 921              		.size	buf_start_pos, 2
 922              	buf_start_pos:
 923 04a6 0000     		.space	2
 924              		.section	.rodata.str1.4,"aMS",%progbits,1
 925              		.align	2
 926              	.LC0:
 927 0000 0A0D5862 		.ascii	"\012\015Xbee send data[] = %s\012\015\000"
 927      65652073 
 927      656E6420 
 927      64617461 
 927      5B5D203D 
 928 001a 0000     		.space	2
 929              	.LC1:
 930 001c 0A0D7862 		.ascii	"\012\015xbee TX status packet received\012\015\000"
 930      65652054 
 930      58207374 
 930      61747573 
 930      20706163 
 931 003f 00       		.space	1
 932              	.LC2:
 933 0040 0A0D636F 		.ascii	"\012\015corrupted xbee packet\012\015\000"
 933      72727570 
 933      74656420 
 933      78626565 
 933      20706163 
 934 005a 0000     		.space	2
 935              	.LC3:
 936 005c 30782530 		.ascii	"0x%02X \000"
 936      32582000 
 937              		.text
 938              	.Letext0:
 939              		.file 5 "c:\\chibistudio\\tools\\gnu tools arm embedded\\7.0 2017q4\\lib\\gcc\\arm-none-eabi\\7.2.
 940              		.file 6 "c:\\chibistudio\\tools\\gnu tools arm embedded\\7.0 2017q4\\arm-none-eabi\\include\\machi
 941              		.file 7 "c:\\chibistudio\\tools\\gnu tools arm embedded\\7.0 2017q4\\arm-none-eabi\\include\\sys\\
 942              		.file 8 "c:\\chibistudio\\tools\\gnu tools arm embedded\\7.0 2017q4\\arm-none-eabi\\include\\stdin
 943              		.file 9 "../../../ChibiOSRepo/chibios191/os/common/ports/ARMCMx/compilers/GCC/chtypes.h"
 944              		.file 10 "../../../ChibiOSRepo/chibios191/os/rt/include/chsystypes.h"
 945              		.file 11 "../../../ChibiOSRepo/chibios191/os/rt/include/chschd.h"
ARM GAS  C:\Users\RAKIBU~1\AppData\Local\Temp\ccVo8Jm3.s 			page 18


 946              		.file 12 "../../../ChibiOSRepo/chibios191/os/rt/include/chtime.h"
 947              		.file 13 "../../../ChibiOSRepo/chibios191/os/common/ext/ARM/CMSIS/Core/Include/core_cm4.h"
 948              		.file 14 "../../../ChibiOSRepo/chibios191/os/common/ext/ST/STM32F4xx/system_stm32f4xx.h"
 949              		.file 15 "../../../ChibiOSRepo/chibios191/os/common/ext/ST/STM32F4xx/stm32f407xx.h"
 950              		.file 16 "../../../ChibiOSRepo/chibios191/os/common/ports/ARMCMx/chcore.h"
 951              		.file 17 "../../../ChibiOSRepo/chibios191/os/common/ports/ARMCMx/chcore_v7m.h"
 952              		.file 18 "../../../ChibiOSRepo/chibios191/os/hal/ports/STM32/LLD/TIMv1/stm32_tim.h"
 953              		.file 19 "../../../ChibiOSRepo/chibios191/os/rt/include/chtrace.h"
 954              		.file 20 "../../../ChibiOSRepo/chibios191/os/rt/include/chtm.h"
 955              		.file 21 "../../../ChibiOSRepo/chibios191/os/rt/include/chstats.h"
 956              		.file 22 "../../../ChibiOSRepo/chibios191/os/rt/include/chsem.h"
 957              		.file 23 "../../../ChibiOSRepo/chibios191/os/rt/include/chmtx.h"
 958              		.file 24 "../../../ChibiOSRepo/chibios191/os/rt/include/chregistry.h"
 959              		.file 25 "../../../ChibiOSRepo/chibios191/os/rt/include/chevents.h"
 960              		.file 26 "../../../ChibiOSRepo/chibios191/os/oslib/include/chmboxes.h"
 961              		.file 27 "../../../ChibiOSRepo/chibios191/os/oslib/include/chmemcore.h"
 962              		.file 28 "../../../ChibiOSRepo/chibios191/os/oslib/include/chmempools.h"
 963              		.file 29 "../../../ChibiOSRepo/chibios191/os/oslib/include/chfactory.h"
 964              		.file 30 "../../../ChibiOSRepo/chibios191/os/hal/ports/STM32/LLD/DMAv2/stm32_dma.h"
 965              		.file 31 "../../../ChibiOSRepo/chibios191/os/hal/include/hal_streams.h"
 966              		.file 32 "../../../ChibiOSRepo/chibios191/os/hal/include/hal_ioblock.h"
 967              		.file 33 "../../../ChibiOSRepo/chibios191/os/hal/include/hal_persistent.h"
 968              		.file 34 "../../../ChibiOSRepo/chibios191/os/hal/include/hal_queues.h"
 969              		.file 35 "../../../ChibiOSRepo/chibios191/os/hal/include/hal_pal.h"
 970              		.file 36 "../../../ChibiOSRepo/chibios191/os/hal/ports/STM32/LLD/GPIOv2/stm32_gpio.h"
 971              		.file 37 "../../../ChibiOSRepo/chibios191/os/hal/ports/STM32/LLD/GPIOv2/hal_pal_lld.h"
 972              		.file 38 "../../../ChibiOSRepo/chibios191/os/hal/include/hal_gpt.h"
 973              		.file 39 "../../../ChibiOSRepo/chibios191/os/hal/ports/STM32/LLD/TIMv1/hal_gpt_lld.h"
 974              		.file 40 "../../../ChibiOSRepo/chibios191/os/hal/include/hal_i2c.h"
 975              		.file 41 "../../../ChibiOSRepo/chibios191/os/hal/ports/STM32/LLD/I2Cv1/hal_i2c_lld.h"
 976              		.file 42 "c:\\chibistudio\\tools\\gnu tools arm embedded\\7.0 2017q4\\arm-none-eabi\\include\\sys\
 977              		.file 43 "c:\\chibistudio\\tools\\gnu tools arm embedded\\7.0 2017q4\\arm-none-eabi\\include\\sys\
 978              		.file 44 "c:\\chibistudio\\tools\\gnu tools arm embedded\\7.0 2017q4\\arm-none-eabi\\include\\sys\
 979              		.file 45 "c:\\chibistudio\\tools\\gnu tools arm embedded\\7.0 2017q4\\arm-none-eabi\\include\\time
 980              		.file 46 "../../../ChibiOSRepo/chibios191/os/hal/include/hal_rtc.h"
 981              		.file 47 "../../../ChibiOSRepo/chibios191/os/hal/ports/STM32/LLD/RTCv2/hal_rtc_lld.h"
 982              		.file 48 "../../../ChibiOSRepo/chibios191/os/hal/include/hal_serial.h"
 983              		.file 49 "../../../ChibiOSRepo/chibios191/os/hal/ports/STM32/LLD/USARTv1/hal_serial_lld.h"
 984              		.file 50 "../../../ChibiOSRepo/chibios191/os/hal/include/hal_sdc.h"
 985              		.file 51 "../../../ChibiOSRepo/chibios191/os/hal/ports/STM32/LLD/SDIOv1/hal_sdc_lld.h"
 986              		.file 52 "../../../ChibiOSRepo/chibios191/os/hal/include/hal_spi.h"
 987              		.file 53 "../../../ChibiOSRepo/chibios191/os/hal/ports/STM32/LLD/SPIv1/hal_spi_lld.h"
 988              		.file 54 "xbee/xbee.h"
 989              		.file 55 "../../../ChibiOSRepo/chibios191/os/rt/include/chvt.h"
 990              		.file 56 "../../../ChibiOSRepo/chibios191/os/common/ports/ARMCMx/chcore_timer.h"
 991              		.file 57 "../../../ChibiOSRepo/chibios191/os/rt/include/chdebug.h"
 992              		.file 58 "../../../ChibiOSRepo/chibios191/os/rt/include/ch.h"
 993              		.file 59 "../../../ChibiOSRepo/chibios191/os/hal/lib/streams/chprintf.h"
 994              		.file 60 "<built-in>"